SF:/home/ubuntu/Code/ExpressGateway/.claude/worktrees/s36-verify/crates/lb-config/src/lib.rs
FN:1263,_RNvCs6lUImYQ17UA_9lb_config12parse_config
FN:1254,_RNvCs6lUImYQ17UA_9lb_config14default_weight
FN:1273,_RNvCs6lUImYQ17UA_9lb_config15validate_config
FN:1332,_RNvCs6lUImYQ17UA_9lb_config16validate_runtime
FN:1459,_RNvCs6lUImYQ17UA_9lb_config17validate_listener
FN:564,_RNvCs6lUImYQ17UA_9lb_config18default_per_ip_cap
FN:798,_RNvCs6lUImYQ17UA_9lb_config18default_ws_enabled
FN:1541,_RNvCs6lUImYQ17UA_9lb_config19validate_grpc_block
FN:705,_RNvCs6lUImYQ17UA_9lb_config20default_grpc_enabled
FN:1823,_RNvCs6lUImYQ17UA_9lb_config20validate_passthrough
FN:1633,_RNvCs6lUImYQ17UA_9lb_config21validate_backend_list
FN:1717,_RNvCs6lUImYQ17UA_9lb_config21validate_h1s_listener
FN:1688,_RNvCs6lUImYQ17UA_9lb_config21validate_tls_listener
FN:955,_RNvCs6lUImYQ17UA_9lb_config22default_ticket_overlap
FN:1607,_RNvCs6lUImYQ17UA_9lb_config22validate_http_timeouts
FN:1315,_RNvCs6lUImYQ17UA_9lb_config22validate_observability
FN:1733,_RNvCs6lUImYQ17UA_9lb_config22validate_quic_listener
FN:875,_RNvCs6lUImYQ17UA_9lb_config23default_alt_svc_max_age
FN:916,_RNvCs6lUImYQ17UA_9lb_config23default_body_timeout_ms
FN:924,_RNvCs6lUImYQ17UA_9lb_config23default_head_timeout_ms
FN:951,_RNvCs6lUImYQ17UA_9lb_config23default_ticket_interval
FN:802,_RNvCs6lUImYQ17UA_9lb_config23default_ws_idle_timeout
FN:1657,_RNvCs6lUImYQ17UA_9lb_config23validate_backend_h3_tls
FN:1250,_RNvCs6lUImYQ17UA_9lb_config24default_backend_protocol
FN:512,_RNvCs6lUImYQ17UA_9lb_config24default_drain_timeout_ms
FN:920,_RNvCs6lUImYQ17UA_9lb_config24default_total_timeout_ms
FN:1246,_RNvCs6lUImYQ17UA_9lb_config24default_verify_peer_true
FN:1562,_RNvCs6lUImYQ17UA_9lb_config24validate_websocket_block
FN:709,_RNvCs6lUImYQ17UA_9lb_config25default_grpc_max_deadline
FN:912,_RNvCs6lUImYQ17UA_9lb_config25default_header_timeout_ms
FN:556,_RNvCs6lUImYQ17UA_9lb_config26default_connect_timeout_ms
FN:532,_RNvCs6lUImYQ17UA_9lb_config27default_readiness_settle_ms
FN:806,_RNvCs6lUImYQ17UA_9lb_config27default_ws_max_message_size
FN:541,_RNvCs6lUImYQ17UA_9lb_config28default_handshake_timeout_ms
FN:1003,_RNvCs6lUImYQ17UA_9lb_config28default_quic_idle_timeout_ms
FN:1007,_RNvCs6lUImYQ17UA_9lb_config29default_quic_recv_udp_payload
FN:354,_RNvCs6lUImYQ17UA_9lb_config30default_max_keepalive_requests
FN:1192,_RNvCs6lUImYQ17UA_9lb_config30default_passthrough_mint_retry
FN:713,_RNvCs6lUImYQ17UA_9lb_config31default_grpc_health_synthesized
FN:548,_RNvCs6lUImYQ17UA_9lb_config32default_max_inflight_connections
FN:1067,_RNvCs6lUImYQ17UA_9lb_config33default_raw_proxy_dgram_queue_cap
FN:484,_RNvCs6lUImYQ17UA_9lb_config34default_watchdog_sweep_interval_ms
FN:1073,_RNvCs6lUImYQ17UA_9lb_config35default_raw_proxy_max_relay_streams
FN:472,_RNvCs6lUImYQ17UA_9lb_config35default_watchdog_header_deadline_ms
FN:1171,_RNvCs6lUImYQ17UA_9lb_config36default_passthrough_per_flow_backlog
FN:810,_RNvCs6lUImYQ17UA_9lb_config37default_ws_ping_rate_limit_per_window
FN:818,_RNvCs6lUImYQ17UA_9lb_config37default_ws_read_frame_timeout_seconds
FN:365,_RNvCs6lUImYQ17UA_9lb_config38default_max_requests_per_h3_connection
FN:478,_RNvCs6lUImYQ17UA_9lb_config38default_watchdog_body_progress_min_bps
FN:1184,_RNvCs6lUImYQ17UA_9lb_config39default_passthrough_max_dcid_len_routed
FN:1164,_RNvCs6lUImYQ17UA_9lb_config39default_passthrough_min_client_dcid_len
FN:1199,_RNvCs6lUImYQ17UA_9lb_config40default_passthrough_flow_idle_timeout_ms
FN:1158,_RNvCs6lUImYQ17UA_9lb_config40default_passthrough_max_quic_connections
FN:348,_RNvCs6lUImYQ17UA_9lb_config40default_xdp_new_flow_cap_per_sec_per_cpu
FN:814,_RNvCs6lUImYQ17UA_9lb_config41default_ws_ping_rate_limit_window_seconds
FN:1178,_RNvCs6lUImYQ17UA_9lb_config46default_passthrough_audit_throttle_window_secs
FN:375,_RNvMCs6lUImYQ17UA_9lb_configNtB2_13RuntimeConfig25effective_drain_jitter_ms
FN:403,_RNvMs_Cs6lUImYQ17UA_9lb_configNtB4_14ListenerConfig25effective_drain_jitter_ms
FN:390,_RNvMs_Cs6lUImYQ17UA_9lb_configNtB4_14ListenerConfig26effective_drain_timeout_ms
FN:696,_RNvXs1_Cs6lUImYQ17UA_9lb_configNtB5_18GrpcListenerConfigNtNtCs1p5UDGgVI4d_4core7default7Default7default
FN:782,_RNvXs2_Cs6lUImYQ17UA_9lb_configNtB5_15WebsocketConfigNtNtCs1p5UDGgVI4d_4core7default7Default7default
FN:902,_RNvXs3_Cs6lUImYQ17UA_9lb_configNtB5_18HttpTimeoutsConfigNtNtCs1p5UDGgVI4d_4core7default7Default7default
FN:461,_RNvXs0_Cs6lUImYQ17UA_9lb_configNtB5_21RuntimeWatchdogConfigNtNtCs1p5UDGgVI4d_4core7default7Default7default
FN:2973,_RNvNtCs6lUImYQ17UA_9lb_config5tests12base_runtime
FN:2994,_RNvNtCs6lUImYQ17UA_9lb_config5tests12min_listener
FN:3145,_RNvNtCs6lUImYQ17UA_9lb_config5tests6pt_min
FN:1981,_RNvNtCs6lUImYQ17UA_9lb_config5testss_11validate_ok
FN:1878,_RNvNtCs6lUImYQ17UA_9lb_config5testss_16parse_valid_toml
FN:1891,_RNvNtCs6lUImYQ17UA_9lb_config5testss_18parse_invalid_toml
FN:2058,_RNvNtCs6lUImYQ17UA_9lb_config5testss_18parse_tls_listener
FN:2195,_RNvNtCs6lUImYQ17UA_9lb_config5testss_19parse_quic_listener
FN:1955,_RNvNtCs6lUImYQ17UA_9lb_config5testss_22validate_empty_address
FN:1942,_RNvNtCs6lUImYQ17UA_9lb_config5testss_24validate_empty_listeners
FN:2643,_RNvNtCs6lUImYQ17UA_9lb_config5testss_25parse_runtime_xdp_enabled
FN:2040,_RNvNtCs6lUImYQ17UA_9lb_config5testss_26parse_config_with_backends
FN:2920,_RNvNtCs6lUImYQ17UA_9lb_config5testss_28parse_h1s_listener_with_grpc
FN:2007,_RNvNtCs6lUImYQ17UA_9lb_config5testss_30validate_empty_backend_address
FN:2564,_RNvNtCs6lUImYQ17UA_9lb_config5testss_30validate_h1s_with_tls_block_ok
FN:2782,_RNvNtCs6lUImYQ17UA_9lb_config5testss_32parse_h1_listener_with_websocket
FN:2763,_RNvNtCs6lUImYQ17UA_9lb_config5testss_32parse_observability_metrics_bind
FN:3162,_RNvNtCs6lUImYQ17UA_9lb_config5testss_32passthrough_only_config_is_valid
FN:2246,_RNvNtCs6lUImYQ17UA_9lb_config5testss_32validate_quic_small_mtu_rejected
FN:3221,_RNvNtCs6lUImYQ17UA_9lb_config5testss_34parse_passthrough_block_round_trip
FN:2107,_RNvNtCs6lUImYQ17UA_9lb_config5testss_34validate_unknown_protocol_rejected
FN:3179,_RNvNtCs6lUImYQ17UA_9lb_config5testss_35passthrough_empty_backends_rejected
FN:2531,_RNvNtCs6lUImYQ17UA_9lb_config5testss_35validate_h1_with_tls_block_rejected
FN:2081,_RNvNtCs6lUImYQ17UA_9lb_config5testss_35validate_tls_without_block_rejected
FN:2605,_RNvNtCs6lUImYQ17UA_9lb_config5testss_35validate_zero_http_timeout_rejected
FN:3270,_RNvNtCs6lUImYQ17UA_9lb_config5testss_36h3_request_cap_explicit_value_parses
FN:1901,_RNvNtCs6lUImYQ17UA_9lb_config5testss_36raw_proxy_minimal_toml_defaults_caps
FN:2220,_RNvNtCs6lUImYQ17UA_9lb_config5testss_36validate_quic_without_block_rejected
FN:3290,_RNvNtCs6lUImYQ17UA_9lb_config5testss_37h3_request_cap_zero_is_valid_disabled
FN:2164,_RNvNtCs6lUImYQ17UA_9lb_config5testss_37validate_tls_empty_cert_path_rejected
FN:3305,_RNvNtCs6lUImYQ17UA_9lb_config5testss_38h3_request_cap_full_u32_range_is_valid
FN:2863,_RNvNtCs6lUImYQ17UA_9lb_config5testss_38validate_websocket_on_quic_listener_ok
FN:2497,_RNvNtCs6lUImYQ17UA_9lb_config5testss_39validate_h1s_without_tls_block_rejected
FN:3212,_RNvNtCs6lUImYQ17UA_9lb_config5testss_40passthrough_defaults_match_owner_rulings
FN:3116,_RNvNtCs6lUImYQ17UA_9lb_config5testss_40validate_observability_bad_bind_rejected
FN:3036,_RNvNtCs6lUImYQ17UA_9lb_config5testss_41ops02_jitter_default_is_quarter_of_budget
FN:3053,_RNvNtCs6lUImYQ17UA_9lb_config5testss_41ops10_per_listener_timeout_range_rejected
FN:2811,_RNvNtCs6lUImYQ17UA_9lb_config5testss_42parse_websocket_h2_extended_connect_opt_in
FN:2892,_RNvNtCs6lUImYQ17UA_9lb_config5testss_42parse_websocket_h3_extended_connect_opt_in
FN:2435,_RNvNtCs6lUImYQ17UA_9lb_config5testss_42validate_backend_unknown_protocol_rejected
FN:2946,_RNvNtCs6lUImYQ17UA_9lb_config5testss_42validate_grpc_on_non_h1s_listener_rejected
FN:3246,_RNvNtCs6lUImYQ17UA_9lb_config5testss_43h3_request_cap_defaults_to_1000_when_absent
FN:2468,_RNvNtCs6lUImYQ17UA_9lb_config5testss_43parse_h1_listener_with_alt_svc_and_timeouts
FN:3019,_RNvNtCs6lUImYQ17UA_9lb_config5testss_44ops10_override_takes_precedence_over_runtime
FN:2283,_RNvNtCs6lUImYQ17UA_9lb_config5testss_45validate_quic_h3_terminate_with_h1_backend_ok
FN:3090,_RNvNtCs6lUImYQ17UA_9lb_config5testss_46ops02_gateway_jitter_exceeding_budget_rejected
FN:2751,_RNvNtCs6lUImYQ17UA_9lb_config5testss_46runtime_absent_keeps_parse_backward_compatible
FN:2664,_RNvNtCs6lUImYQ17UA_9lb_config5testss_46runtime_xdp_enabled_without_interface_rejected
FN:2328,_RNvNtCs6lUImYQ17UA_9lb_config5testss_46validate_quic_raw_proxy_with_backends_rejected
FN:2708,_RNvNtCs6lUImYQ17UA_9lb_config5testss_47runtime_xdp_disabled_does_not_require_interface
FN:3194,_RNvNtCs6lUImYQ17UA_9lb_config5testss_48passthrough_min_client_dcid_below_floor_rejected
FN:2133,_RNvNtCs6lUImYQ17UA_9lb_config5testss_48validate_tls_block_without_tls_protocol_rejected
FN:2834,_RNvNtCs6lUImYQ17UA_9lb_config5testss_48validate_websocket_on_non_http_listener_rejected
FN:3108,_RNvNtCs6lUImYQ17UA_9lb_config5testss_49ops11_readiness_settle_default_is_kubelet_aligned
FN:3068,_RNvNtCs6lUImYQ17UA_9lb_config5testss_57ops02_listener_jitter_exceeding_inherited_budget_rejected
FN:2381,_RNvNtCs6lUImYQ17UA_9lb_config5testss_58validate_quic_h3_terminate_mixed_backend_families_rejected
FN:406,_RNCNCNvMs_Cs6lUImYQ17UA_9lb_configNtB8_14ListenerConfig25effective_drain_jitter_ms00B8_
FN:1338,_RNCNvCs6lUImYQ17UA_9lb_config16validate_runtime0B3_
FN:1689,_RNCNvCs6lUImYQ17UA_9lb_config21validate_tls_listener0B3_
FN:1323,_RNCNvCs6lUImYQ17UA_9lb_config22validate_observability0B3_
FN:1734,_RNCNvCs6lUImYQ17UA_9lb_config22validate_quic_listener0B3_
FN:404,_RNCNvMs_Cs6lUImYQ17UA_9lb_configNtB6_14ListenerConfig25effective_drain_jitter_ms0B6_
FN:391,_RNCNvMs_Cs6lUImYQ17UA_9lb_configNtB6_14ListenerConfig26effective_drain_timeout_ms0B6_
FNDA:17,_RNvCs6lUImYQ17UA_9lb_config12parse_config
FNDA:10,_RNvCs6lUImYQ17UA_9lb_config14default_weight
FNDA:42,_RNvCs6lUImYQ17UA_9lb_config15validate_config
FNDA:13,_RNvCs6lUImYQ17UA_9lb_config16validate_runtime
FNDA:38,_RNvCs6lUImYQ17UA_9lb_config17validate_listener
FNDA:3,_RNvCs6lUImYQ17UA_9lb_config18default_per_ip_cap
FNDA:5,_RNvCs6lUImYQ17UA_9lb_config18default_ws_enabled
FNDA:26,_RNvCs6lUImYQ17UA_9lb_config19validate_grpc_block
FNDA:2,_RNvCs6lUImYQ17UA_9lb_config20default_grpc_enabled
FNDA:4,_RNvCs6lUImYQ17UA_9lb_config20validate_passthrough
FNDA:24,_RNvCs6lUImYQ17UA_9lb_config21validate_backend_list
FNDA:3,_RNvCs6lUImYQ17UA_9lb_config21validate_h1s_listener
FNDA:5,_RNvCs6lUImYQ17UA_9lb_config21validate_tls_listener
FNDA:2,_RNvCs6lUImYQ17UA_9lb_config22default_ticket_overlap
FNDA:25,_RNvCs6lUImYQ17UA_9lb_config22validate_http_timeouts
FNDA:2,_RNvCs6lUImYQ17UA_9lb_config22validate_observability
FNDA:8,_RNvCs6lUImYQ17UA_9lb_config22validate_quic_listener
FNDA:1,_RNvCs6lUImYQ17UA_9lb_config23default_alt_svc_max_age
FNDA:2,_RNvCs6lUImYQ17UA_9lb_config23default_body_timeout_ms
FNDA:2,_RNvCs6lUImYQ17UA_9lb_config23default_head_timeout_ms
FNDA:2,_RNvCs6lUImYQ17UA_9lb_config23default_ticket_interval
FNDA:4,_RNvCs6lUImYQ17UA_9lb_config23default_ws_idle_timeout
FNDA:15,_RNvCs6lUImYQ17UA_9lb_config23validate_backend_h3_tls
FNDA:10,_RNvCs6lUImYQ17UA_9lb_config24default_backend_protocol
FNDA:30,_RNvCs6lUImYQ17UA_9lb_config24default_drain_timeout_ms
FNDA:2,_RNvCs6lUImYQ17UA_9lb_config24default_total_timeout_ms
FNDA:11,_RNvCs6lUImYQ17UA_9lb_config24default_verify_peer_true
FNDA:27,_RNvCs6lUImYQ17UA_9lb_config24validate_websocket_block
FNDA:1,_RNvCs6lUImYQ17UA_9lb_config25default_grpc_max_deadline
FNDA:1,_RNvCs6lUImYQ17UA_9lb_config25default_header_timeout_ms
FNDA:3,_RNvCs6lUImYQ17UA_9lb_config26default_connect_timeout_ms
FNDA:5,_RNvCs6lUImYQ17UA_9lb_config27default_readiness_settle_ms
FNDA:4,_RNvCs6lUImYQ17UA_9lb_config27default_ws_max_message_size
FNDA:3,_RNvCs6lUImYQ17UA_9lb_config28default_handshake_timeout_ms
FNDA:4,_RNvCs6lUImYQ17UA_9lb_config28default_quic_idle_timeout_ms
FNDA:4,_RNvCs6lUImYQ17UA_9lb_config29default_quic_recv_udp_payload
FNDA:3,_RNvCs6lUImYQ17UA_9lb_config30default_max_keepalive_requests
FNDA:4,_RNvCs6lUImYQ17UA_9lb_config30default_passthrough_mint_retry
FNDA:1,_RNvCs6lUImYQ17UA_9lb_config31default_grpc_health_synthesized
FNDA:3,_RNvCs6lUImYQ17UA_9lb_config32default_max_inflight_connections
FNDA:2,_RNvCs6lUImYQ17UA_9lb_config33default_raw_proxy_dgram_queue_cap
FNDA:0,_RNvCs6lUImYQ17UA_9lb_config34default_watchdog_sweep_interval_ms
FNDA:2,_RNvCs6lUImYQ17UA_9lb_config35default_raw_proxy_max_relay_streams
FNDA:0,_RNvCs6lUImYQ17UA_9lb_config35default_watchdog_header_deadline_ms
FNDA:5,_RNvCs6lUImYQ17UA_9lb_config36default_passthrough_per_flow_backlog
FNDA:5,_RNvCs6lUImYQ17UA_9lb_config37default_ws_ping_rate_limit_per_window
FNDA:5,_RNvCs6lUImYQ17UA_9lb_config37default_ws_read_frame_timeout_seconds
FNDA:2,_RNvCs6lUImYQ17UA_9lb_config38default_max_requests_per_h3_connection
FNDA:0,_RNvCs6lUImYQ17UA_9lb_config38default_watchdog_body_progress_min_bps
FNDA:5,_RNvCs6lUImYQ17UA_9lb_config39default_passthrough_max_dcid_len_routed
FNDA:5,_RNvCs6lUImYQ17UA_9lb_config39default_passthrough_min_client_dcid_len
FNDA:4,_RNvCs6lUImYQ17UA_9lb_config40default_passthrough_flow_idle_timeout_ms
FNDA:5,_RNvCs6lUImYQ17UA_9lb_config40default_passthrough_max_quic_connections
FNDA:3,_RNvCs6lUImYQ17UA_9lb_config40default_xdp_new_flow_cap_per_sec_per_cpu
FNDA:5,_RNvCs6lUImYQ17UA_9lb_config41default_ws_ping_rate_limit_window_seconds
FNDA:5,_RNvCs6lUImYQ17UA_9lb_config46default_passthrough_audit_throttle_window_secs
FNDA:6,_RNvMCs6lUImYQ17UA_9lb_configNtB2_13RuntimeConfig25effective_drain_jitter_ms
FNDA:21,_RNvMs_Cs6lUImYQ17UA_9lb_configNtB4_14ListenerConfig25effective_drain_jitter_ms
FNDA:22,_RNvMs_Cs6lUImYQ17UA_9lb_configNtB4_14ListenerConfig26effective_drain_timeout_ms
FNDA:1,_RNvXs1_Cs6lUImYQ17UA_9lb_configNtB5_18GrpcListenerConfigNtNtCs1p5UDGgVI4d_4core7default7Default7default
FNDA:1,_RNvXs2_Cs6lUImYQ17UA_9lb_configNtB5_15WebsocketConfigNtNtCs1p5UDGgVI4d_4core7default7Default7default
FNDA:1,_RNvXs3_Cs6lUImYQ17UA_9lb_configNtB5_18HttpTimeoutsConfigNtNtCs1p5UDGgVI4d_4core7default7Default7default
FNDA:0,_RNvXs0_Cs6lUImYQ17UA_9lb_configNtB5_21RuntimeWatchdogConfigNtNtCs1p5UDGgVI4d_4core7default7Default7default
FNDA:10,_RNvNtCs6lUImYQ17UA_9lb_config5tests12base_runtime
FNDA:7,_RNvNtCs6lUImYQ17UA_9lb_config5tests12min_listener
FNDA:3,_RNvNtCs6lUImYQ17UA_9lb_config5tests6pt_min
FNDA:1,_RNvNtCs6lUImYQ17UA_9lb_config5testss_11validate_ok
FNDA:1,_RNvNtCs6lUImYQ17UA_9lb_config5testss_16parse_valid_toml
FNDA:1,_RNvNtCs6lUImYQ17UA_9lb_config5testss_18parse_invalid_toml
FNDA:1,_RNvNtCs6lUImYQ17UA_9lb_config5testss_18parse_tls_listener
FNDA:1,_RNvNtCs6lUImYQ17UA_9lb_config5testss_19parse_quic_listener
FNDA:1,_RNvNtCs6lUImYQ17UA_9lb_config5testss_22validate_empty_address
FNDA:1,_RNvNtCs6lUImYQ17UA_9lb_config5testss_24validate_empty_listeners
FNDA:1,_RNvNtCs6lUImYQ17UA_9lb_config5testss_25parse_runtime_xdp_enabled
FNDA:1,_RNvNtCs6lUImYQ17UA_9lb_config5testss_26parse_config_with_backends
FNDA:1,_RNvNtCs6lUImYQ17UA_9lb_config5testss_28parse_h1s_listener_with_grpc
FNDA:1,_RNvNtCs6lUImYQ17UA_9lb_config5testss_30validate_empty_backend_address
FNDA:1,_RNvNtCs6lUImYQ17UA_9lb_config5testss_30validate_h1s_with_tls_block_ok
FNDA:1,_RNvNtCs6lUImYQ17UA_9lb_config5testss_32parse_h1_listener_with_websocket
FNDA:1,_RNvNtCs6lUImYQ17UA_9lb_config5testss_32parse_observability_metrics_bind
FNDA:1,_RNvNtCs6lUImYQ17UA_9lb_config5testss_32passthrough_only_config_is_valid
FNDA:1,_RNvNtCs6lUImYQ17UA_9lb_config5testss_32validate_quic_small_mtu_rejected
FNDA:1,_RNvNtCs6lUImYQ17UA_9lb_config5testss_34parse_passthrough_block_round_trip
FNDA:1,_RNvNtCs6lUImYQ17UA_9lb_config5testss_34validate_unknown_protocol_rejected
FNDA:1,_RNvNtCs6lUImYQ17UA_9lb_config5testss_35passthrough_empty_backends_rejected
FNDA:1,_RNvNtCs6lUImYQ17UA_9lb_config5testss_35validate_h1_with_tls_block_rejected
FNDA:1,_RNvNtCs6lUImYQ17UA_9lb_config5testss_35validate_tls_without_block_rejected
FNDA:1,_RNvNtCs6lUImYQ17UA_9lb_config5testss_35validate_zero_http_timeout_rejected
FNDA:1,_RNvNtCs6lUImYQ17UA_9lb_config5testss_36h3_request_cap_explicit_value_parses
FNDA:1,_RNvNtCs6lUImYQ17UA_9lb_config5testss_36raw_proxy_minimal_toml_defaults_caps
FNDA:1,_RNvNtCs6lUImYQ17UA_9lb_config5testss_36validate_quic_without_block_rejected
FNDA:1,_RNvNtCs6lUImYQ17UA_9lb_config5testss_37h3_request_cap_zero_is_valid_disabled
FNDA:1,_RNvNtCs6lUImYQ17UA_9lb_config5testss_37validate_tls_empty_cert_path_rejected
FNDA:1,_RNvNtCs6lUImYQ17UA_9lb_config5testss_38h3_request_cap_full_u32_range_is_valid
FNDA:1,_RNvNtCs6lUImYQ17UA_9lb_config5testss_38validate_websocket_on_quic_listener_ok
FNDA:1,_RNvNtCs6lUImYQ17UA_9lb_config5testss_39validate_h1s_without_tls_block_rejected
FNDA:1,_RNvNtCs6lUImYQ17UA_9lb_config5testss_40passthrough_defaults_match_owner_rulings
FNDA:1,_RNvNtCs6lUImYQ17UA_9lb_config5testss_40validate_observability_bad_bind_rejected
FNDA:1,_RNvNtCs6lUImYQ17UA_9lb_config5testss_41ops02_jitter_default_is_quarter_of_budget
FNDA:1,_RNvNtCs6lUImYQ17UA_9lb_config5testss_41ops10_per_listener_timeout_range_rejected
FNDA:1,_RNvNtCs6lUImYQ17UA_9lb_config5testss_42parse_websocket_h2_extended_connect_opt_in
FNDA:1,_RNvNtCs6lUImYQ17UA_9lb_config5testss_42parse_websocket_h3_extended_connect_opt_in
FNDA:1,_RNvNtCs6lUImYQ17UA_9lb_config5testss_42validate_backend_unknown_protocol_rejected
FNDA:1,_RNvNtCs6lUImYQ17UA_9lb_config5testss_42validate_grpc_on_non_h1s_listener_rejected
FNDA:1,_RNvNtCs6lUImYQ17UA_9lb_config5testss_43h3_request_cap_defaults_to_1000_when_absent
FNDA:1,_RNvNtCs6lUImYQ17UA_9lb_config5testss_43parse_h1_listener_with_alt_svc_and_timeouts
FNDA:1,_RNvNtCs6lUImYQ17UA_9lb_config5testss_44ops10_override_takes_precedence_over_runtime
FNDA:1,_RNvNtCs6lUImYQ17UA_9lb_config5testss_45validate_quic_h3_terminate_with_h1_backend_ok
FNDA:1,_RNvNtCs6lUImYQ17UA_9lb_config5testss_46ops02_gateway_jitter_exceeding_budget_rejected
FNDA:1,_RNvNtCs6lUImYQ17UA_9lb_config5testss_46runtime_absent_keeps_parse_backward_compatible
FNDA:1,_RNvNtCs6lUImYQ17UA_9lb_config5testss_46runtime_xdp_enabled_without_interface_rejected
FNDA:1,_RNvNtCs6lUImYQ17UA_9lb_config5testss_46validate_quic_raw_proxy_with_backends_rejected
FNDA:1,_RNvNtCs6lUImYQ17UA_9lb_config5testss_47runtime_xdp_disabled_does_not_require_interface
FNDA:1,_RNvNtCs6lUImYQ17UA_9lb_config5testss_48passthrough_min_client_dcid_below_floor_rejected
FNDA:1,_RNvNtCs6lUImYQ17UA_9lb_config5testss_48validate_tls_block_without_tls_protocol_rejected
FNDA:1,_RNvNtCs6lUImYQ17UA_9lb_config5testss_48validate_websocket_on_non_http_listener_rejected
FNDA:1,_RNvNtCs6lUImYQ17UA_9lb_config5testss_49ops11_readiness_settle_default_is_kubelet_aligned
FNDA:1,_RNvNtCs6lUImYQ17UA_9lb_config5testss_57ops02_listener_jitter_exceeding_inherited_budget_rejected
FNDA:1,_RNvNtCs6lUImYQ17UA_9lb_config5testss_58validate_quic_h3_terminate_mixed_backend_families_rejected
FNDA:14,_RNCNCNvMs_Cs6lUImYQ17UA_9lb_configNtB8_14ListenerConfig25effective_drain_jitter_ms00B8_
FNDA:1,_RNCNvCs6lUImYQ17UA_9lb_config16validate_runtime0B3_
FNDA:1,_RNCNvCs6lUImYQ17UA_9lb_config21validate_tls_listener0B3_
FNDA:1,_RNCNvCs6lUImYQ17UA_9lb_config22validate_observability0B3_
FNDA:1,_RNCNvCs6lUImYQ17UA_9lb_config22validate_quic_listener0B3_
FNDA:19,_RNCNvMs_Cs6lUImYQ17UA_9lb_configNtB6_14ListenerConfig25effective_drain_jitter_ms0B6_
FNDA:21,_RNCNvMs_Cs6lUImYQ17UA_9lb_configNtB6_14ListenerConfig26effective_drain_timeout_ms0B6_
FNF:126
FNH:122
DA:348,3
DA:349,3
DA:350,3
DA:354,3
DA:355,3
DA:356,3
DA:365,2
DA:366,2
DA:367,2
DA:375,6
DA:376,6
DA:377,0
DA:378,6
DA:380,6
DA:390,22
DA:391,22
DA:392,21
DA:393,21
DA:394,22
DA:403,21
DA:404,21
DA:405,19
DA:406,14
DA:409,19
DA:410,21
DA:461,0
DA:462,0
DA:463,0
DA:464,0
DA:465,0
DA:466,0
DA:467,0
DA:472,0
DA:473,0
DA:474,0
DA:478,0
DA:479,0
DA:480,0
DA:484,0
DA:485,0
DA:486,0
DA:512,30
DA:513,30
DA:514,30
DA:532,5
DA:533,5
DA:534,5
DA:541,3
DA:542,3
DA:543,3
DA:548,3
DA:549,3
DA:550,3
DA:556,3
DA:557,3
DA:558,3
DA:564,3
DA:565,3
DA:566,3
DA:696,1
DA:697,1
DA:698,1
DA:699,1
DA:700,1
DA:701,1
DA:702,1
DA:705,2
DA:706,2
DA:707,2
DA:709,1
DA:710,1
DA:711,1
DA:713,1
DA:714,1
DA:715,1
DA:782,1
DA:783,1
DA:784,1
DA:785,1
DA:786,1
DA:787,1
DA:788,1
DA:789,1
DA:790,1
DA:791,1
DA:792,1
DA:793,1
DA:794,1
DA:795,1
DA:798,5
DA:799,5
DA:800,5
DA:802,4
DA:803,4
DA:804,4
DA:806,4
DA:807,4
DA:808,4
DA:810,5
DA:811,5
DA:812,5
DA:814,5
DA:815,5
DA:816,5
DA:818,5
DA:819,5
DA:820,5
DA:875,1
DA:876,1
DA:877,1
DA:902,1
DA:903,1
DA:904,1
DA:905,1
DA:906,1
DA:907,1
DA:908,1
DA:909,1
DA:912,1
DA:913,1
DA:914,1
DA:916,2
DA:917,2
DA:918,2
DA:920,2
DA:921,2
DA:922,2
DA:924,2
DA:925,2
DA:926,2
DA:951,2
DA:952,2
DA:953,2
DA:955,2
DA:956,2
DA:957,2
DA:1003,4
DA:1004,4
DA:1005,4
DA:1007,4
DA:1008,4
DA:1009,4
DA:1067,2
DA:1068,2
DA:1069,2
DA:1073,2
DA:1074,2
DA:1075,2
DA:1158,5
DA:1159,5
DA:1160,5
DA:1164,5
DA:1165,5
DA:1166,5
DA:1171,5
DA:1172,5
DA:1173,5
DA:1178,5
DA:1179,5
DA:1180,5
DA:1184,5
DA:1185,5
DA:1186,5
DA:1192,4
DA:1193,4
DA:1194,4
DA:1199,4
DA:1200,4
DA:1201,4
DA:1246,11
DA:1247,11
DA:1248,11
DA:1250,10
DA:1251,10
DA:1252,10
DA:1254,10
DA:1255,10
DA:1256,10
DA:1263,17
DA:1264,17
DA:1265,16
DA:1266,17
DA:1273,42
DA:1278,42
DA:1279,1
DA:1280,1
DA:1281,1
DA:1282,41
DA:1283,41
DA:1284,4
DA:1285,37
DA:1286,39
DA:1287,38
DA:1289,22
DA:1290,7
DA:1291,15
DA:1298,20
DA:1299,19
DA:1300,19
DA:1301,19
DA:1302,1
DA:1303,1
DA:1304,1
DA:1305,1
DA:1306,1
DA:1307,18
DA:1309,19
DA:1310,2
DA:1311,17
DA:1312,18
DA:1313,42
DA:1315,2
DA:1316,2
DA:1317,2
DA:1318,2
DA:1319,0
DA:1320,0
DA:1321,0
DA:1322,2
DA:1323,2
DA:1324,1
DA:1325,1
DA:1326,1
DA:1327,1
DA:1328,0
DA:1329,1
DA:1330,2
DA:1332,13
DA:1333,13
DA:1334,2
DA:1335,2
DA:1336,2
DA:1337,2
DA:1338,2
DA:1339,2
DA:1340,1
DA:1341,1
DA:1342,1
DA:1343,1
DA:1344,11
DA:1352,12
DA:1353,0
DA:1354,0
DA:1355,0
DA:1356,0
DA:1357,12
DA:1362,12
DA:1363,1
DA:1364,1
DA:1365,1
DA:1366,1
DA:1367,1
DA:1368,1
DA:1369,0
DA:1370,11
DA:1374,11
DA:1375,0
DA:1376,0
DA:1377,0
DA:1378,0
DA:1379,11
DA:1383,11
DA:1384,0
DA:1385,0
DA:1386,0
DA:1387,0
DA:1388,11
DA:1393,11
DA:1394,0
DA:1395,0
DA:1396,0
DA:1397,0
DA:1398,11
DA:1402,11
DA:1403,0
DA:1404,0
DA:1405,0
DA:1406,0
DA:1407,11
DA:1410,11
DA:1411,0
DA:1412,0
DA:1413,0
DA:1414,0
DA:1415,11
DA:1421,11
DA:1422,0
DA:1423,0
DA:1424,0
DA:1425,0
DA:1426,0
DA:1427,0
DA:1428,0
DA:1429,0
DA:1430,0
DA:1431,0
DA:1432,0
DA:1433,0
DA:1434,0
DA:1435,0
DA:1436,0
DA:1437,0
DA:1438,0
DA:1439,0
DA:1440,11
DA:1449,11
DA:1450,11
DA:1451,0
DA:1452,0
DA:1453,0
DA:1454,0
DA:1455,11
DA:1456,11
DA:1457,13
DA:1459,38
DA:1460,38
DA:1461,1
DA:1462,1
DA:1463,1
DA:1464,37
DA:1465,37
DA:1466,37
DA:1467,0
DA:1468,0
DA:1469,0
DA:1470,37
DA:1471,37
DA:1472,37
DA:1473,34
DA:1474,26
DA:1475,23
DA:1477,6
DA:1478,1
DA:1479,1
DA:1480,1
DA:1481,1
DA:1482,5
DA:1483,5
DA:1484,0
DA:1485,0
DA:1486,0
DA:1487,5
DA:1489,17
DA:1490,16
DA:1491,1
DA:1492,1
DA:1493,1
DA:1494,1
DA:1495,15
DA:1496,15
DA:1497,0
DA:1498,0
DA:1499,0
DA:1500,0
DA:1501,15
DA:1503,1
DA:1504,1
DA:1505,1
DA:1506,1
DA:1507,1
DA:1510,27
DA:1511,26
DA:1512,25
DA:1513,24
DA:1516,22
DA:1517,1
DA:1518,1
DA:1519,1
DA:1520,1
DA:1521,0
DA:1522,21
DA:1529,21
DA:1530,1
DA:1531,1
DA:1532,0
DA:1533,0
DA:1534,0
DA:1535,0
DA:1536,1
DA:1537,20
DA:1538,21
DA:1539,38
DA:1541,26
DA:1542,26
DA:1543,26
DA:1544,26
DA:1545,26
DA:1546,26
DA:1547,1
DA:1548,1
DA:1549,1
DA:1550,1
DA:1551,25
DA:1552,25
DA:1553,1
DA:1554,0
DA:1555,0
DA:1556,0
DA:1557,1
DA:1558,24
DA:1559,25
DA:1560,26
DA:1562,27
DA:1563,27
DA:1564,27
DA:1565,27
DA:1566,27
DA:1571,27
DA:1572,1
DA:1573,1
DA:1574,1
DA:1575,1
DA:1576,26
DA:1577,26
DA:1578,4
DA:1579,0
DA:1580,0
DA:1581,0
DA:1582,4
DA:1583,4
DA:1584,0
DA:1585,0
DA:1586,0
DA:1587,4
DA:1588,4
DA:1589,0
DA:1590,0
DA:1591,0
DA:1592,4
DA:1593,4
DA:1594,0
DA:1595,0
DA:1596,0
DA:1597,4
DA:1598,4
DA:1599,0
DA:1600,0
DA:1601,0
DA:1602,4
DA:1603,22
DA:1604,26
DA:1605,27
DA:1607,25
DA:1608,25
DA:1609,3
DA:1610,1
DA:1611,1
DA:1612,1
DA:1613,2
DA:1614,2
DA:1615,0
DA:1616,0
DA:1617,0
DA:1618,2
DA:1619,2
DA:1620,0
DA:1621,0
DA:1622,0
DA:1623,2
DA:1624,2
DA:1625,0
DA:1626,0
DA:1627,0
DA:1628,2
DA:1629,22
DA:1630,24
DA:1631,25
DA:1633,24
DA:1634,24
DA:1635,17
DA:1636,1
DA:1637,1
DA:1638,1
DA:1639,16
DA:1640,16
DA:1641,16
DA:1642,1
DA:1643,1
DA:1644,1
DA:1645,1
DA:1646,1
DA:1649,15
DA:1651,22
DA:1652,24
DA:1657,15
DA:1658,15
DA:1659,15
DA:1660,15
DA:1661,15
DA:1663,0
DA:1664,0
DA:1665,0
DA:1666,0
DA:1667,0
DA:1668,15
DA:1669,15
DA:1670,0
DA:1671,0
DA:1672,0
DA:1673,0
DA:1674,0
DA:1675,0
DA:1676,0
DA:1677,0
DA:1678,0
DA:1679,0
DA:1680,0
DA:1681,0
DA:1682,0
DA:1683,0
DA:1684,0
DA:1685,0
DA:1686,15
DA:1688,5
DA:1689,5
DA:1690,1
DA:1691,1
DA:1692,1
DA:1693,1
DA:1694,4
DA:1695,1
DA:1696,1
DA:1697,1
DA:1698,3
DA:1699,3
DA:1700,0
DA:1701,0
DA:1702,0
DA:1703,3
DA:1704,3
DA:1705,0
DA:1706,0
DA:1707,0
DA:1708,3
DA:1709,3
DA:1710,0
DA:1711,0
DA:1712,0
DA:1713,3
DA:1714,3
DA:1715,5
DA:1717,3
DA:1719,3
DA:1720,1
DA:1721,1
DA:1722,1
DA:1723,2
DA:1724,2
DA:1725,0
DA:1726,0
DA:1727,0
DA:1728,2
DA:1730,2
DA:1731,3
DA:1733,8
DA:1734,8
DA:1735,1
DA:1736,1
DA:1737,1
DA:1738,1
DA:1739,7
DA:1740,0
DA:1741,0
DA:1742,0
DA:1743,7
DA:1744,7
DA:1745,0
DA:1746,0
DA:1747,0
DA:1748,7
DA:1749,7
DA:1750,0
DA:1751,0
DA:1752,0
DA:1753,7
DA:1754,7
DA:1755,0
DA:1756,0
DA:1757,0
DA:1758,7
DA:1759,7
DA:1760,1
DA:1761,1
DA:1762,1
DA:1763,6
DA:1764,6
DA:1765,0
DA:1766,0
DA:1767,0
DA:1768,6
DA:1776,6
DA:1777,1
DA:1778,1
DA:1779,1
DA:1780,1
DA:1781,1
DA:1782,5
DA:1790,5
DA:1791,3
DA:1792,3
DA:1793,3
DA:1794,7
DA:1795,4
DA:1796,4
DA:1797,1
DA:1798,0
DA:1801,0
DA:1804,3
DA:1805,3
DA:1806,1
DA:1807,1
DA:1808,1
DA:1809,1
DA:1810,1
DA:1811,2
DA:1812,2
DA:1813,4
DA:1814,8
DA:1823,4
DA:1824,4
DA:1825,1
DA:1826,1
DA:1827,1
DA:1828,3
DA:1833,3
DA:1834,0
DA:1835,0
DA:1836,0
DA:1837,0
DA:1838,3
DA:1842,3
DA:1843,1
DA:1844,1
DA:1845,1
DA:1846,1
DA:1847,2
DA:1848,2
DA:1849,0
DA:1850,0
DA:1851,0
DA:1852,0
DA:1853,2
DA:1854,2
DA:1855,0
DA:1856,0
DA:1857,0
DA:1858,2
DA:1859,2
DA:1860,0
DA:1861,0
DA:1862,0
DA:1863,0
DA:1864,2
DA:1865,2
DA:1866,0
DA:1867,0
DA:1868,0
DA:1869,2
DA:1870,2
DA:1871,4
DA:1878,1
DA:1879,1
DA:1880,1
DA:1881,1
DA:1882,1
DA:1883,1
DA:1884,1
DA:1885,1
DA:1886,1
DA:1887,1
DA:1888,1
DA:1891,1
DA:1892,1
DA:1893,1
DA:1894,1
DA:1901,1
DA:1906,1
DA:1907,1
DA:1908,1
DA:1909,1
DA:1910,1
DA:1911,1
DA:1912,1
DA:1913,1
DA:1914,1
DA:1915,1
DA:1916,1
DA:1917,1
DA:1918,1
DA:1919,1
DA:1920,1
DA:1921,1
DA:1922,1
DA:1924,1
DA:1925,0
DA:1927,1
DA:1928,1
DA:1930,1
DA:1931,0
DA:1933,1
DA:1935,1
DA:1936,1
DA:1937,0
DA:1939,1
DA:1942,1
DA:1943,1
DA:1944,1
DA:1945,1
DA:1946,1
DA:1947,1
DA:1948,1
DA:1949,1
DA:1950,1
DA:1951,1
DA:1952,1
DA:1955,1
DA:1956,1
DA:1957,1
DA:1958,1
DA:1959,1
DA:1960,1
DA:1961,1
DA:1962,1
DA:1963,1
DA:1964,1
DA:1965,1
DA:1966,1
DA:1967,1
DA:1968,1
DA:1969,1
DA:1970,1
DA:1971,1
DA:1972,1
DA:1973,1
DA:1974,1
DA:1975,1
DA:1976,1
DA:1977,1
DA:1978,1
DA:1981,1
DA:1982,1
DA:1983,1
DA:1984,1
DA:1985,1
DA:1986,1
DA:1987,1
DA:1988,1
DA:1989,1
DA:1990,1
DA:1991,1
DA:1992,1
DA:1993,1
DA:1994,1
DA:1995,1
DA:1996,1
DA:1997,1
DA:1998,1
DA:1999,1
DA:2000,1
DA:2001,1
DA:2002,1
DA:2003,1
DA:2004,1
DA:2007,1
DA:2008,1
DA:2009,1
DA:2010,1
DA:2011,1
DA:2012,1
DA:2013,1
DA:2014,1
DA:2015,1
DA:2016,1
DA:2017,1
DA:2018,1
DA:2019,1
DA:2020,1
DA:2021,1
DA:2022,1
DA:2023,1
DA:2024,1
DA:2025,1
DA:2026,1
DA:2027,1
DA:2028,1
DA:2029,1
DA:2030,1
DA:2031,1
DA:2032,1
DA:2033,1
DA:2034,1
DA:2035,1
DA:2036,1
DA:2037,1
DA:2040,1
DA:2041,1
DA:2042,1
DA:2043,1
DA:2044,1
DA:2045,1
DA:2046,1
DA:2047,1
DA:2048,1
DA:2049,1
DA:2050,1
DA:2051,1
DA:2052,1
DA:2053,1
DA:2054,1
DA:2055,1
DA:2058,1
DA:2059,1
DA:2060,1
DA:2061,1
DA:2062,1
DA:2063,1
DA:2064,1
DA:2065,1
DA:2066,1
DA:2067,1
DA:2068,1
DA:2069,1
DA:2070,1
DA:2071,1
DA:2072,1
DA:2073,1
DA:2074,1
DA:2075,1
DA:2076,1
DA:2077,1
DA:2078,1
DA:2081,1
DA:2082,1
DA:2083,1
DA:2084,1
DA:2085,1
DA:2086,1
DA:2087,1
DA:2088,1
DA:2089,1
DA:2090,1
DA:2091,1
DA:2092,1
DA:2093,1
DA:2094,1
DA:2095,1
DA:2096,1
DA:2097,1
DA:2098,1
DA:2099,1
DA:2100,1
DA:2101,1
DA:2102,1
DA:2103,1
DA:2104,1
DA:2107,1
DA:2108,1
DA:2109,1
DA:2110,1
DA:2111,1
DA:2112,1
DA:2113,1
DA:2114,1
DA:2115,1
DA:2116,1
DA:2117,1
DA:2118,1
DA:2119,1
DA:2120,1
DA:2121,1
DA:2122,1
DA:2123,1
DA:2124,1
DA:2125,1
DA:2126,1
DA:2127,1
DA:2128,1
DA:2129,1
DA:2130,1
DA:2133,1
DA:2134,1
DA:2135,1
DA:2136,1
DA:2137,1
DA:2138,1
DA:2139,1
DA:2140,1
DA:2141,1
DA:2142,1
DA:2143,1
DA:2144,1
DA:2145,1
DA:2146,1
DA:2147,1
DA:2148,1
DA:2149,1
DA:2150,1
DA:2151,1
DA:2152,1
DA:2153,1
DA:2154,1
DA:2155,1
DA:2156,1
DA:2157,1
DA:2158,1
DA:2159,1
DA:2160,1
DA:2161,1
DA:2164,1
DA:2165,1
DA:2166,1
DA:2167,1
DA:2168,1
DA:2169,1
DA:2170,1
DA:2171,1
DA:2172,1
DA:2173,1
DA:2174,1
DA:2175,1
DA:2176,1
DA:2177,1
DA:2178,1
DA:2179,1
DA:2180,1
DA:2181,1
DA:2182,1
DA:2183,1
DA:2184,1
DA:2185,1
DA:2186,1
DA:2187,1
DA:2188,1
DA:2189,1
DA:2190,1
DA:2191,1
DA:2192,1
DA:2195,1
DA:2196,1
DA:2197,1
DA:2198,1
DA:2199,1
DA:2200,1
DA:2201,1
DA:2202,1
DA:2203,1
DA:2204,1
DA:2205,1
DA:2206,1
DA:2207,1
DA:2208,1
DA:2209,1
DA:2210,1
DA:2211,1
DA:2212,1
DA:2213,1
DA:2214,1
DA:2215,1
DA:2216,1
DA:2217,1
DA:2220,1
DA:2221,1
DA:2222,1
DA:2223,1
DA:2224,1
DA:2225,1
DA:2226,1
DA:2227,1
DA:2228,1
DA:2229,1
DA:2230,1
DA:2231,1
DA:2232,1
DA:2233,1
DA:2234,1
DA:2235,1
DA:2236,1
DA:2237,1
DA:2238,1
DA:2239,1
DA:2240,1
DA:2241,1
DA:2242,1
DA:2243,1
DA:2246,1
DA:2247,1
DA:2248,1
DA:2249,1
DA:2250,1
DA:2251,1
DA:2252,1
DA:2253,1
DA:2254,1
DA:2255,1
DA:2256,1
DA:2257,1
DA:2258,1
DA:2259,1
DA:2260,1
DA:2261,1
DA:2262,1
DA:2263,1
DA:2264,1
DA:2265,1
DA:2266,1
DA:2267,1
DA:2268,1
DA:2269,1
DA:2270,1
DA:2271,1
DA:2272,1
DA:2273,1
DA:2274,1
DA:2275,1
DA:2276,1
DA:2283,1
DA:2284,1
DA:2285,1
DA:2286,1
DA:2287,1
DA:2288,1
DA:2289,1
DA:2290,1
DA:2291,1
DA:2292,1
DA:2293,1
DA:2294,1
DA:2295,1
DA:2296,1
DA:2297,1
DA:2298,1
DA:2299,1
DA:2300,1
DA:2301,1
DA:2302,1
DA:2303,1
DA:2304,1
DA:2305,1
DA:2306,1
DA:2307,1
DA:2308,1
DA:2309,1
DA:2310,1
DA:2311,1
DA:2312,1
DA:2313,1
DA:2314,1
DA:2315,1
DA:2316,1
DA:2317,1
DA:2318,1
DA:2319,1
DA:2320,1
DA:2321,0
DA:2323,1
DA:2328,1
DA:2329,1
DA:2330,1
DA:2331,1
DA:2332,1
DA:2333,1
DA:2334,1
DA:2335,1
DA:2336,1
DA:2337,1
DA:2338,1
DA:2339,1
DA:2340,1
DA:2341,1
DA:2342,1
DA:2343,1
DA:2344,1
DA:2345,1
DA:2346,1
DA:2347,1
DA:2348,1
DA:2349,1
DA:2350,1
DA:2351,1
DA:2352,1
DA:2353,1
DA:2354,1
DA:2355,1
DA:2356,1
DA:2357,1
DA:2358,1
DA:2359,1
DA:2360,1
DA:2361,1
DA:2362,1
DA:2363,1
DA:2364,1
DA:2365,1
DA:2366,1
DA:2367,1
DA:2368,1
DA:2369,1
DA:2370,1
DA:2371,1
DA:2372,1
DA:2373,0
DA:2375,1
DA:2381,1
DA:2382,1
DA:2383,1
DA:2384,1
DA:2385,1
DA:2386,1
DA:2387,1
DA:2388,1
DA:2389,1
DA:2390,1
DA:2391,1
DA:2392,1
DA:2393,1
DA:2394,1
DA:2395,1
DA:2396,1
DA:2397,1
DA:2398,1
DA:2399,1
DA:2400,1
DA:2401,1
DA:2402,1
DA:2403,1
DA:2404,1
DA:2405,1
DA:2406,1
DA:2407,1
DA:2408,1
DA:2409,1
DA:2410,1
DA:2411,1
DA:2412,1
DA:2413,1
DA:2414,1
DA:2415,1
DA:2416,1
DA:2417,1
DA:2418,1
DA:2419,1
DA:2420,1
DA:2421,1
DA:2422,1
DA:2423,1
DA:2424,1
DA:2425,1
DA:2426,1
DA:2427,1
DA:2428,1
DA:2429,1
DA:2430,0
DA:2432,1
DA:2435,1
DA:2436,1
DA:2437,1
DA:2438,1
DA:2439,1
DA:2440,1
DA:2441,1
DA:2442,1
DA:2443,1
DA:2444,1
DA:2445,1
DA:2446,1
DA:2447,1
DA:2448,1
DA:2449,1
DA:2450,1
DA:2451,1
DA:2452,1
DA:2453,1
DA:2454,1
DA:2455,1
DA:2456,1
DA:2457,1
DA:2458,1
DA:2459,1
DA:2460,1
DA:2461,1
DA:2462,1
DA:2463,1
DA:2464,1
DA:2465,1
DA:2468,1
DA:2469,1
DA:2470,1
DA:2471,1
DA:2472,1
DA:2473,1
DA:2474,1
DA:2475,1
DA:2476,1
DA:2477,1
DA:2478,1
DA:2479,1
DA:2480,1
DA:2481,1
DA:2482,1
DA:2483,1
DA:2484,1
DA:2485,1
DA:2486,1
DA:2487,1
DA:2488,1
DA:2489,1
DA:2490,1
DA:2491,1
DA:2492,1
DA:2493,1
DA:2494,1
DA:2497,1
DA:2498,1
DA:2499,1
DA:2500,1
DA:2501,1
DA:2502,1
DA:2503,1
DA:2504,1
DA:2505,1
DA:2506,1
DA:2507,1
DA:2508,1
DA:2509,1
DA:2510,1
DA:2511,1
DA:2512,1
DA:2513,1
DA:2514,1
DA:2515,1
DA:2516,1
DA:2517,1
DA:2518,1
DA:2519,1
DA:2520,1
DA:2521,1
DA:2522,1
DA:2523,1
DA:2524,1
DA:2525,1
DA:2526,1
DA:2527,1
DA:2528,1
DA:2531,1
DA:2534,1
DA:2535,1
DA:2536,1
DA:2537,1
DA:2538,1
DA:2539,1
DA:2540,1
DA:2541,1
DA:2542,1
DA:2543,1
DA:2544,1
DA:2545,1
DA:2546,1
DA:2547,1
DA:2548,1
DA:2549,1
DA:2550,1
DA:2551,1
DA:2552,1
DA:2553,1
DA:2554,1
DA:2555,1
DA:2556,1
DA:2557,1
DA:2558,1
DA:2559,1
DA:2560,1
DA:2561,1
DA:2564,1
DA:2565,1
DA:2566,1
DA:2567,1
DA:2568,1
DA:2569,1
DA:2570,1
DA:2571,1
DA:2572,1
DA:2573,1
DA:2574,1
DA:2575,1
DA:2576,1
DA:2577,1
DA:2578,1
DA:2579,1
DA:2580,1
DA:2581,1
DA:2582,1
DA:2583,1
DA:2584,1
DA:2585,1
DA:2586,1
DA:2587,1
DA:2588,1
DA:2589,1
DA:2590,1
DA:2591,1
DA:2592,1
DA:2593,1
DA:2594,1
DA:2595,1
DA:2596,1
DA:2597,1
DA:2598,1
DA:2599,1
DA:2600,1
DA:2601,1
DA:2602,1
DA:2605,1
DA:2606,1
DA:2607,1
DA:2608,1
DA:2609,1
DA:2610,1
DA:2611,1
DA:2612,1
DA:2613,1
DA:2614,1
DA:2615,1
DA:2616,1
DA:2617,1
DA:2618,1
DA:2619,1
DA:2620,1
DA:2621,1
DA:2622,1
DA:2623,1
DA:2624,1
DA:2625,1
DA:2626,1
DA:2627,1
DA:2628,1
DA:2629,1
DA:2630,1
DA:2631,1
DA:2632,1
DA:2633,1
DA:2634,1
DA:2635,1
DA:2636,1
DA:2637,1
DA:2638,1
DA:2639,1
DA:2640,1
DA:2643,1
DA:2644,1
DA:2645,1
DA:2646,1
DA:2647,1
DA:2648,1
DA:2649,1
DA:2650,1
DA:2651,1
DA:2652,1
DA:2653,1
DA:2654,1
DA:2655,1
DA:2656,1
DA:2657,1
DA:2658,1
DA:2659,1
DA:2660,1
DA:2661,1
DA:2664,1
DA:2665,1
DA:2666,1
DA:2667,1
DA:2668,1
DA:2669,1
DA:2670,1
DA:2671,1
DA:2672,1
DA:2673,1
DA:2674,1
DA:2675,1
DA:2676,1
DA:2677,1
DA:2678,1
DA:2679,1
DA:2680,1
DA:2681,1
DA:2682,1
DA:2683,1
DA:2684,1
DA:2685,1
DA:2686,1
DA:2687,1
DA:2688,1
DA:2689,1
DA:2690,1
DA:2691,1
DA:2692,1
DA:2693,1
DA:2694,1
DA:2695,1
DA:2696,1
DA:2697,1
DA:2698,1
DA:2699,1
DA:2700,1
DA:2701,1
DA:2702,1
DA:2703,1
DA:2704,1
DA:2705,1
DA:2708,1
DA:2709,1
DA:2710,1
DA:2711,1
DA:2712,1
DA:2713,1
DA:2714,1
DA:2715,1
DA:2716,1
DA:2717,1
DA:2718,1
DA:2719,1
DA:2720,1
DA:2721,1
DA:2722,1
DA:2723,1
DA:2724,1
DA:2725,1
DA:2726,1
DA:2727,1
DA:2728,1
DA:2729,1
DA:2730,1
DA:2731,1
DA:2732,1
DA:2733,1
DA:2734,1
DA:2735,1
DA:2736,1
DA:2737,1
DA:2738,1
DA:2739,1
DA:2740,1
DA:2741,1
DA:2742,1
DA:2743,1
DA:2744,1
DA:2745,1
DA:2746,1
DA:2747,1
DA:2748,1
DA:2751,1
DA:2752,1
DA:2753,1
DA:2754,1
DA:2755,1
DA:2756,1
DA:2757,1
DA:2758,1
DA:2759,1
DA:2760,1
DA:2763,1
DA:2764,1
DA:2765,1
DA:2766,1
DA:2767,1
DA:2768,1
DA:2769,1
DA:2770,1
DA:2771,1
DA:2772,1
DA:2773,1
DA:2774,1
DA:2775,1
DA:2776,1
DA:2777,1
DA:2778,1
DA:2779,1
DA:2782,1
DA:2783,1
DA:2784,1
DA:2785,1
DA:2786,1
DA:2787,1
DA:2788,1
DA:2789,1
DA:2790,1
DA:2791,1
DA:2792,1
DA:2793,1
DA:2794,1
DA:2795,1
DA:2796,1
DA:2797,1
DA:2798,1
DA:2799,1
DA:2803,1
DA:2804,1
DA:2805,0
DA:2807,1
DA:2808,1
DA:2811,1
DA:2813,1
DA:2814,1
DA:2815,1
DA:2816,1
DA:2817,1
DA:2818,1
DA:2819,1
DA:2820,1
DA:2821,1
DA:2822,1
DA:2823,1
DA:2824,1
DA:2825,1
DA:2826,1
DA:2827,1
DA:2828,0
DA:2830,1
DA:2831,1
DA:2834,1
DA:2835,1
DA:2836,1
DA:2837,1
DA:2838,1
DA:2839,1
DA:2840,1
DA:2841,1
DA:2842,1
DA:2843,1
DA:2844,1
DA:2845,1
DA:2846,1
DA:2847,1
DA:2848,1
DA:2849,1
DA:2850,1
DA:2851,1
DA:2852,1
DA:2853,1
DA:2854,1
DA:2855,1
DA:2856,1
DA:2857,1
DA:2863,1
DA:2864,1
DA:2865,1
DA:2866,1
DA:2867,1
DA:2868,1
DA:2869,1
DA:2870,1
DA:2871,1
DA:2872,1
DA:2873,1
DA:2874,1
DA:2875,1
DA:2876,1
DA:2877,1
DA:2878,1
DA:2879,1
DA:2880,1
DA:2881,1
DA:2882,1
DA:2883,0
DA:2885,1
DA:2886,1
DA:2887,1
DA:2892,1
DA:2893,1
DA:2894,1
DA:2895,1
DA:2896,1
DA:2897,1
DA:2898,1
DA:2899,1
DA:2900,1
DA:2901,1
DA:2902,1
DA:2903,1
DA:2904,1
DA:2905,1
DA:2906,1
DA:2907,1
DA:2908,1
DA:2909,1
DA:2910,0
DA:2912,1
DA:2913,1
DA:2914,0
DA:2916,1
DA:2917,1
DA:2920,1
DA:2921,1
DA:2922,1
DA:2923,1
DA:2924,1
DA:2925,1
DA:2926,1
DA:2927,1
DA:2928,1
DA:2929,1
DA:2930,1
DA:2931,1
DA:2932,1
DA:2933,1
DA:2934,1
DA:2935,1
DA:2936,1
DA:2937,1
DA:2938,1
DA:2939,1
DA:2940,1
DA:2941,1
DA:2942,1
DA:2943,1
DA:2946,1
DA:2947,1
DA:2948,1
DA:2949,1
DA:2950,1
DA:2951,1
DA:2952,1
DA:2953,1
DA:2954,1
DA:2955,1
DA:2956,1
DA:2957,1
DA:2958,1
DA:2959,1
DA:2960,1
DA:2961,1
DA:2962,1
DA:2963,1
DA:2964,1
DA:2965,1
DA:2966,1
DA:2967,1
DA:2968,1
DA:2969,1
DA:2973,10
DA:2974,10
DA:2975,10
DA:2976,10
DA:2977,10
DA:2978,10
DA:2979,10
DA:2980,10
DA:2981,10
DA:2982,10
DA:2983,10
DA:2984,10
DA:2985,10
DA:2986,10
DA:2987,10
DA:2988,10
DA:2989,10
DA:2990,10
DA:2991,10
DA:2992,10
DA:2994,7
DA:2995,7
DA:2996,7
DA:2997,7
DA:2998,7
DA:2999,7
DA:3000,7
DA:3001,7
DA:3002,7
DA:3003,7
DA:3004,7
DA:3005,7
DA:3006,7
DA:3007,7
DA:3008,7
DA:3009,7
DA:3010,7
DA:3011,7
DA:3012,7
DA:3013,7
DA:3014,7
DA:3015,7
DA:3016,7
DA:3019,1
DA:3020,1
DA:3021,1
DA:3022,1
DA:3023,1
DA:3024,1
DA:3025,1
DA:3027,1
DA:3029,1
DA:3030,1
DA:3032,1
DA:3033,1
DA:3036,1
DA:3037,1
DA:3038,1
DA:3039,1
DA:3040,1
DA:3041,1
DA:3042,1
DA:3044,1
DA:3045,1
DA:3047,1
DA:3048,1
DA:3049,1
DA:3050,1
DA:3053,1
DA:3054,1
DA:3055,1
DA:3056,1
DA:3057,1
DA:3058,1
DA:3059,1
DA:3060,1
DA:3061,1
DA:3062,1
DA:3063,1
DA:3064,1
DA:3065,1
DA:3068,1
DA:3071,1
DA:3072,1
DA:3073,1
DA:3074,1
DA:3075,1
DA:3076,1
DA:3077,1
DA:3078,1
DA:3079,1
DA:3080,1
DA:3081,1
DA:3082,1
DA:3083,1
DA:3084,1
DA:3085,1
DA:3086,1
DA:3087,1
DA:3090,1
DA:3091,1
DA:3092,1
DA:3093,1
DA:3094,1
DA:3095,1
DA:3096,1
DA:3097,1
DA:3098,1
DA:3099,1
DA:3100,1
DA:3101,1
DA:3102,1
DA:3103,1
DA:3104,1
DA:3105,1
DA:3108,1
DA:3111,1
DA:3112,1
DA:3113,1
DA:3116,1
DA:3117,1
DA:3118,1
DA:3119,1
DA:3120,1
DA:3121,1
DA:3122,1
DA:3123,1
DA:3124,1
DA:3125,1
DA:3126,1
DA:3127,1
DA:3128,1
DA:3129,1
DA:3130,1
DA:3131,1
DA:3132,1
DA:3133,1
DA:3134,1
DA:3135,1
DA:3136,1
DA:3137,1
DA:3138,1
DA:3139,1
DA:3140,1
DA:3141,1
DA:3142,1
DA:3145,3
DA:3146,3
DA:3147,3
DA:3148,3
DA:3149,3
DA:3150,3
DA:3151,3
DA:3152,3
DA:3153,3
DA:3154,3
DA:3155,3
DA:3156,3
DA:3157,3
DA:3158,3
DA:3159,3
DA:3162,1
DA:3167,1
DA:3168,1
DA:3169,1
DA:3170,1
DA:3171,1
DA:3172,1
DA:3173,1
DA:3174,1
DA:3175,1
DA:3176,1
DA:3179,1
DA:3180,1
DA:3181,1
DA:3182,1
DA:3183,1
DA:3184,1
DA:3185,1
DA:3186,1
DA:3187,1
DA:3188,1
DA:3189,1
DA:3190,1
DA:3191,1
DA:3194,1
DA:3198,1
DA:3199,1
DA:3200,1
DA:3201,1
DA:3202,1
DA:3203,1
DA:3204,1
DA:3205,1
DA:3206,1
DA:3207,1
DA:3208,1
DA:3209,1
DA:3212,1
DA:3213,1
DA:3214,1
DA:3215,1
DA:3216,1
DA:3217,1
DA:3218,1
DA:3221,1
DA:3222,1
DA:3223,1
DA:3224,1
DA:3225,1
DA:3226,1
DA:3227,1
DA:3228,1
DA:3229,1
DA:3230,1
DA:3231,1
DA:3232,1
DA:3233,1
DA:3234,1
DA:3235,1
DA:3236,1
DA:3238,1
DA:3239,1
DA:3240,1
DA:3241,1
DA:3246,1
DA:3249,1
DA:3250,1
DA:3251,1
DA:3252,1
DA:3253,1
DA:3254,1
DA:3255,1
DA:3256,1
DA:3257,1
DA:3258,1
DA:3259,1
DA:3260,1
DA:3261,1
DA:3262,1
DA:3264,0
DA:3266,1
DA:3267,1
DA:3270,1
DA:3271,1
DA:3272,1
DA:3273,1
DA:3274,1
DA:3275,1
DA:3276,1
DA:3277,1
DA:3278,1
DA:3279,1
DA:3280,1
DA:3281,1
DA:3282,1
DA:3283,1
DA:3284,1
DA:3285,1
DA:3286,1
DA:3287,1
DA:3290,1
DA:3294,1
DA:3295,1
DA:3296,1
DA:3297,1
DA:3298,1
DA:3299,1
DA:3300,0
DA:3302,1
DA:3305,1
DA:3308,6
DA:3309,5
DA:3310,5
DA:3311,5
DA:3312,5
DA:3313,5
DA:3314,5
DA:3315,0
DA:3318,1
BRF:0
BRH:0
LF:1927
LH:1735
end_of_record
SF:/home/ubuntu/Code/ExpressGateway/.claude/worktrees/s36-verify/crates/lb-observability/src/admin_http.rs
FN:159,_RNCNvNtCs5GE8Mj9sQ3x_16lb_observability10admin_http11json_status0B5_
FN:167,_RNCNvNtCs5GE8Mj9sQ3x_16lb_observability10admin_http5plain0B5_
FN:89,_RNCNvNtCs5GE8Mj9sQ3x_16lb_observability10admin_http5route0B5_
FN:102,_RNCNvNtCs5GE8Mj9sQ3x_16lb_observability10admin_http5routes_0B5_
FN:61,_RNCNvXNtCs5GE8Mj9sQ3x_16lb_observability10admin_httpNtB4_12AdminServiceINtNtNtCskeO9B2Wk1MU_5hyper7service7service7ServiceINtNtCshEf4uzDsfur_4http7request7RequestNtNtNtB1e_4body8incoming8IncomingEE4call0B6_
FN:146,_RNvNtCs5GE8Mj9sQ3x_16lb_observability10admin_http11json_status
FN:170,_RNvNtCs5GE8Mj9sQ3x_16lb_observability10admin_http12fallback_500
FN:68,_RNvNtCs5GE8Mj9sQ3x_16lb_observability10admin_http13is_probe_path
FN:113,_RNvNtCs5GE8Mj9sQ3x_16lb_observability10admin_http14livez_response
FN:124,_RNvNtCs5GE8Mj9sQ3x_16lb_observability10admin_http15readyz_response
FN:223,_RNvNtCs5GE8Mj9sQ3x_16lb_observability10admin_http15serve_with_auth
FN:198,_RNvNtCs5GE8Mj9sQ3x_16lb_observability10admin_http17serve_with_probes
FN:136,_RNvNtCs5GE8Mj9sQ3x_16lb_observability10admin_http17startupz_response
FN:162,_RNvNtCs5GE8Mj9sQ3x_16lb_observability10admin_http5plain
FN:72,_RNvNtCs5GE8Mj9sQ3x_16lb_observability10admin_http5route
FN:290,_RNvNtCs5GE8Mj9sQ3x_16lb_observability10admin_http5serve
FN:57,_RNvXNtCs5GE8Mj9sQ3x_16lb_observability10admin_httpNtB2_12AdminServiceINtNtNtCskeO9B2Wk1MU_5hyper7service7service7ServiceINtNtCshEf4uzDsfur_4http7request7RequestNtNtNtB1c_4body8incoming8IncomingEE4call
FN:262,_RNCNCNCNvNtCs5GE8Mj9sQ3x_16lb_observability10admin_http15serve_with_auth0s_00B9_
FN:232,_RNCNCNvNtCs5GE8Mj9sQ3x_16lb_observability10admin_http15serve_with_auth00B7_
FN:244,_RNCNCNvNtCs5GE8Mj9sQ3x_16lb_observability10admin_http15serve_with_auth0s_0B7_
FN:229,_RNCNvNtCs5GE8Mj9sQ3x_16lb_observability10admin_http15serve_with_auth0B5_
FN:203,_RNCNvNtCs5GE8Mj9sQ3x_16lb_observability10admin_http17serve_with_probes0B5_
FN:294,_RNCNvNtCs5GE8Mj9sQ3x_16lb_observability10admin_http5serve0B5_
FN:262,_RNCNCNCNvNtCs5GE8Mj9sQ3x_16lb_observability10admin_http15serve_with_auth0s_00Cs8XUSXkhk2gU_16health_endpoints
FN:232,_RNCNCNvNtCs5GE8Mj9sQ3x_16lb_observability10admin_http15serve_with_auth00Cs8XUSXkhk2gU_16health_endpoints
FN:244,_RNCNCNvNtCs5GE8Mj9sQ3x_16lb_observability10admin_http15serve_with_auth0s_0Cs8XUSXkhk2gU_16health_endpoints
FN:229,_RNCNvNtCs5GE8Mj9sQ3x_16lb_observability10admin_http15serve_with_auth0Cs8XUSXkhk2gU_16health_endpoints
FN:203,_RNCNvNtCs5GE8Mj9sQ3x_16lb_observability10admin_http17serve_with_probes0Cs8XUSXkhk2gU_16health_endpoints
FN:294,_RNCNvNtCsgHt304caEPG_16lb_observability10admin_http5serve0B5_
FN:290,_RNvNtCsgHt304caEPG_16lb_observability10admin_http5serve
FN:262,_RNCNCNCNvNtCsgHt304caEPG_16lb_observability10admin_http15serve_with_auth0s_00B9_
FN:232,_RNCNCNvNtCsgHt304caEPG_16lb_observability10admin_http15serve_with_auth00B7_
FN:244,_RNCNCNvNtCsgHt304caEPG_16lb_observability10admin_http15serve_with_auth0s_0B7_
FN:159,_RNCNvNtCsgHt304caEPG_16lb_observability10admin_http11json_status0B5_
FN:229,_RNCNvNtCsgHt304caEPG_16lb_observability10admin_http15serve_with_auth0B5_
FN:203,_RNCNvNtCsgHt304caEPG_16lb_observability10admin_http17serve_with_probes0B5_
FN:167,_RNCNvNtCsgHt304caEPG_16lb_observability10admin_http5plain0B5_
FN:89,_RNCNvNtCsgHt304caEPG_16lb_observability10admin_http5route0B5_
FN:102,_RNCNvNtCsgHt304caEPG_16lb_observability10admin_http5routes_0B5_
FN:61,_RNCNvXNtCsgHt304caEPG_16lb_observability10admin_httpNtB4_12AdminServiceINtNtNtCskeO9B2Wk1MU_5hyper7service7service7ServiceINtNtCshEf4uzDsfur_4http7request7RequestNtNtNtB1e_4body8incoming8IncomingEE4call0B6_
FN:146,_RNvNtCsgHt304caEPG_16lb_observability10admin_http11json_status
FN:170,_RNvNtCsgHt304caEPG_16lb_observability10admin_http12fallback_500
FN:68,_RNvNtCsgHt304caEPG_16lb_observability10admin_http13is_probe_path
FN:113,_RNvNtCsgHt304caEPG_16lb_observability10admin_http14livez_response
FN:124,_RNvNtCsgHt304caEPG_16lb_observability10admin_http15readyz_response
FN:223,_RNvNtCsgHt304caEPG_16lb_observability10admin_http15serve_with_auth
FN:198,_RNvNtCsgHt304caEPG_16lb_observability10admin_http17serve_with_probes
FN:136,_RNvNtCsgHt304caEPG_16lb_observability10admin_http17startupz_response
FN:162,_RNvNtCsgHt304caEPG_16lb_observability10admin_http5plain
FN:72,_RNvNtCsgHt304caEPG_16lb_observability10admin_http5route
FN:57,_RNvXNtCsgHt304caEPG_16lb_observability10admin_httpNtB2_12AdminServiceINtNtNtCskeO9B2Wk1MU_5hyper7service7service7ServiceINtNtCshEf4uzDsfur_4http7request7RequestNtNtNtB1c_4body8incoming8IncomingEE4call
FN:309,_RNvNtNtCsgHt304caEPG_16lb_observability10admin_http5testss_17bind_and_shutdown
FN:327,_RNvNtNtCsgHt304caEPG_16lb_observability10admin_http5testss_28test_admin_403_without_token
FN:309,_RNCNvNtNtCsgHt304caEPG_16lb_observability10admin_http5testss_17bind_and_shutdown0B7_
FN:327,_RNCNvNtNtCsgHt304caEPG_16lb_observability10admin_http5testss_28test_admin_403_without_token0B7_
FNDA:0,_RNCNvNtCs5GE8Mj9sQ3x_16lb_observability10admin_http11json_status0B5_
FNDA:0,_RNCNvNtCs5GE8Mj9sQ3x_16lb_observability10admin_http5plain0B5_
FNDA:0,_RNCNvNtCs5GE8Mj9sQ3x_16lb_observability10admin_http5route0B5_
FNDA:0,_RNCNvNtCs5GE8Mj9sQ3x_16lb_observability10admin_http5routes_0B5_
FNDA:12,_RNCNvXNtCs5GE8Mj9sQ3x_16lb_observability10admin_httpNtB4_12AdminServiceINtNtNtCskeO9B2Wk1MU_5hyper7service7service7ServiceINtNtCshEf4uzDsfur_4http7request7RequestNtNtNtB1e_4body8incoming8IncomingEE4call0B6_
FNDA:12,_RNvNtCs5GE8Mj9sQ3x_16lb_observability10admin_http11json_status
FNDA:0,_RNvNtCs5GE8Mj9sQ3x_16lb_observability10admin_http12fallback_500
FNDA:0,_RNvNtCs5GE8Mj9sQ3x_16lb_observability10admin_http13is_probe_path
FNDA:5,_RNvNtCs5GE8Mj9sQ3x_16lb_observability10admin_http14livez_response
FNDA:4,_RNvNtCs5GE8Mj9sQ3x_16lb_observability10admin_http15readyz_response
FNDA:2,_RNvNtCs5GE8Mj9sQ3x_16lb_observability10admin_http15serve_with_auth
FNDA:2,_RNvNtCs5GE8Mj9sQ3x_16lb_observability10admin_http17serve_with_probes
FNDA:3,_RNvNtCs5GE8Mj9sQ3x_16lb_observability10admin_http17startupz_response
FNDA:0,_RNvNtCs5GE8Mj9sQ3x_16lb_observability10admin_http5plain
FNDA:12,_RNvNtCs5GE8Mj9sQ3x_16lb_observability10admin_http5route
FNDA:0,_RNvNtCs5GE8Mj9sQ3x_16lb_observability10admin_http5serve
FNDA:12,_RNvXNtCs5GE8Mj9sQ3x_16lb_observability10admin_httpNtB2_12AdminServiceINtNtNtCskeO9B2Wk1MU_5hyper7service7service7ServiceINtNtCshEf4uzDsfur_4http7request7RequestNtNtNtB1c_4body8incoming8IncomingEE4call
FNDA:0,_RNCNCNCNvNtCs5GE8Mj9sQ3x_16lb_observability10admin_http15serve_with_auth0s_00B9_
FNDA:0,_RNCNCNvNtCs5GE8Mj9sQ3x_16lb_observability10admin_http15serve_with_auth00B7_
FNDA:0,_RNCNCNvNtCs5GE8Mj9sQ3x_16lb_observability10admin_http15serve_with_auth0s_0B7_
FNDA:0,_RNCNvNtCs5GE8Mj9sQ3x_16lb_observability10admin_http15serve_with_auth0B5_
FNDA:0,_RNCNvNtCs5GE8Mj9sQ3x_16lb_observability10admin_http17serve_with_probes0B5_
FNDA:0,_RNCNvNtCs5GE8Mj9sQ3x_16lb_observability10admin_http5serve0B5_
FNDA:12,_RNCNCNCNvNtCs5GE8Mj9sQ3x_16lb_observability10admin_http15serve_with_auth0s_00Cs8XUSXkhk2gU_16health_endpoints
FNDA:0,_RNCNCNvNtCs5GE8Mj9sQ3x_16lb_observability10admin_http15serve_with_auth00Cs8XUSXkhk2gU_16health_endpoints
FNDA:2,_RNCNCNvNtCs5GE8Mj9sQ3x_16lb_observability10admin_http15serve_with_auth0s_0Cs8XUSXkhk2gU_16health_endpoints
FNDA:2,_RNCNvNtCs5GE8Mj9sQ3x_16lb_observability10admin_http15serve_with_auth0Cs8XUSXkhk2gU_16health_endpoints
FNDA:2,_RNCNvNtCs5GE8Mj9sQ3x_16lb_observability10admin_http17serve_with_probes0Cs8XUSXkhk2gU_16health_endpoints
FNDA:0,_RNCNvNtCsgHt304caEPG_16lb_observability10admin_http5serve0B5_
FNDA:0,_RNvNtCsgHt304caEPG_16lb_observability10admin_http5serve
FNDA:1,_RNCNCNCNvNtCsgHt304caEPG_16lb_observability10admin_http15serve_with_auth0s_00B9_
FNDA:1,_RNCNCNvNtCsgHt304caEPG_16lb_observability10admin_http15serve_with_auth00B7_
FNDA:2,_RNCNCNvNtCsgHt304caEPG_16lb_observability10admin_http15serve_with_auth0s_0B7_
FNDA:0,_RNCNvNtCsgHt304caEPG_16lb_observability10admin_http11json_status0B5_
FNDA:2,_RNCNvNtCsgHt304caEPG_16lb_observability10admin_http15serve_with_auth0B5_
FNDA:1,_RNCNvNtCsgHt304caEPG_16lb_observability10admin_http17serve_with_probes0B5_
FNDA:0,_RNCNvNtCsgHt304caEPG_16lb_observability10admin_http5plain0B5_
FNDA:0,_RNCNvNtCsgHt304caEPG_16lb_observability10admin_http5route0B5_
FNDA:0,_RNCNvNtCsgHt304caEPG_16lb_observability10admin_http5routes_0B5_
FNDA:1,_RNCNvXNtCsgHt304caEPG_16lb_observability10admin_httpNtB4_12AdminServiceINtNtNtCskeO9B2Wk1MU_5hyper7service7service7ServiceINtNtCshEf4uzDsfur_4http7request7RequestNtNtNtB1e_4body8incoming8IncomingEE4call0B6_
FNDA:0,_RNvNtCsgHt304caEPG_16lb_observability10admin_http11json_status
FNDA:0,_RNvNtCsgHt304caEPG_16lb_observability10admin_http12fallback_500
FNDA:1,_RNvNtCsgHt304caEPG_16lb_observability10admin_http13is_probe_path
FNDA:0,_RNvNtCsgHt304caEPG_16lb_observability10admin_http14livez_response
FNDA:0,_RNvNtCsgHt304caEPG_16lb_observability10admin_http15readyz_response
FNDA:2,_RNvNtCsgHt304caEPG_16lb_observability10admin_http15serve_with_auth
FNDA:1,_RNvNtCsgHt304caEPG_16lb_observability10admin_http17serve_with_probes
FNDA:0,_RNvNtCsgHt304caEPG_16lb_observability10admin_http17startupz_response
FNDA:1,_RNvNtCsgHt304caEPG_16lb_observability10admin_http5plain
FNDA:1,_RNvNtCsgHt304caEPG_16lb_observability10admin_http5route
FNDA:1,_RNvXNtCsgHt304caEPG_16lb_observability10admin_httpNtB2_12AdminServiceINtNtNtCskeO9B2Wk1MU_5hyper7service7service7ServiceINtNtCshEf4uzDsfur_4http7request7RequestNtNtNtB1c_4body8incoming8IncomingEE4call
FNDA:1,_RNvNtNtCsgHt304caEPG_16lb_observability10admin_http5testss_17bind_and_shutdown
FNDA:1,_RNvNtNtCsgHt304caEPG_16lb_observability10admin_http5testss_28test_admin_403_without_token
FNDA:1,_RNCNvNtNtCsgHt304caEPG_16lb_observability10admin_http5testss_17bind_and_shutdown0B7_
FNDA:1,_RNCNvNtNtCsgHt304caEPG_16lb_observability10admin_http5testss_28test_admin_403_without_token0B7_
FNF:27
FNH:20
DA:57,13
DA:58,13
DA:59,13
DA:60,13
DA:61,13
DA:62,13
DA:68,1
DA:69,1
DA:70,1
DA:72,13
DA:73,13
DA:74,13
DA:75,13
DA:76,13
DA:77,13
DA:78,13
DA:79,0
DA:80,13
DA:84,13
DA:85,1
DA:86,1
DA:87,1
DA:88,1
DA:89,1
DA:90,1
DA:91,1
DA:92,0
DA:93,0
DA:94,12
DA:95,12
DA:96,12
DA:97,0
DA:98,0
DA:99,0
DA:100,0
DA:101,0
DA:102,0
DA:104,12
DA:105,7
DA:106,3
DA:107,0
DA:109,13
DA:113,5
DA:114,5
DA:115,5
DA:117,0
DA:119,5
DA:120,5
DA:124,4
DA:125,4
DA:126,4
DA:127,2
DA:129,2
DA:131,4
DA:132,4
DA:136,3
DA:137,3
DA:138,3
DA:139,2
DA:141,1
DA:143,3
DA:144,3
DA:146,12
DA:151,12
DA:152,12
DA:153,12
DA:154,12
DA:155,12
DA:158,12
DA:159,12
DA:160,12
DA:162,1
DA:163,1
DA:164,1
DA:165,1
DA:166,1
DA:167,1
DA:168,1
DA:170,0
DA:175,0
DA:176,0
DA:178,0
DA:179,0
DA:180,0
DA:198,3
DA:199,3
DA:200,3
DA:201,3
DA:202,3
DA:203,3
DA:204,3
DA:205,3
DA:223,4
DA:224,4
DA:225,4
DA:226,4
DA:227,4
DA:228,4
DA:229,4
DA:230,4
DA:231,4
DA:232,4
DA:233,4
DA:236,0
DA:238,4
DA:239,4
DA:240,4
DA:241,4
DA:242,4
DA:244,4
DA:246,17
DA:248,17
DA:249,4
DA:250,4
DA:252,17
DA:254,13
DA:255,13
DA:256,0
DA:257,0
DA:258,0
DA:261,13
DA:262,13
DA:263,13
DA:264,13
DA:265,13
DA:266,13
DA:267,13
DA:269,0
DA:270,12
DA:271,12
DA:273,4
DA:275,4
DA:276,4
DA:290,0
DA:291,0
DA:292,0
DA:293,0
DA:294,0
DA:295,0
DA:300,0
DA:301,0
DA:302,0
DA:309,1
DA:310,1
DA:311,1
DA:312,1
DA:313,1
DA:314,1
DA:315,1
DA:316,1
DA:317,1
DA:318,1
DA:320,1
DA:321,1
DA:327,1
DA:331,1
DA:332,1
DA:333,1
DA:334,1
DA:335,1
DA:336,1
DA:337,1
DA:338,1
DA:339,1
DA:340,1
DA:342,1
DA:343,1
DA:344,1
DA:345,1
DA:346,1
DA:347,1
DA:348,1
DA:349,1
DA:350,1
DA:351,1
DA:352,1
DA:353,1
DA:354,1
DA:355,1
DA:356,1
DA:357,1
DA:358,1
DA:359,1
BRF:0
BRH:0
LF:198
LH:156
end_of_record
SF:/home/ubuntu/Code/ExpressGateway/.claude/worktrees/s36-verify/crates/lb-observability/src/label_budget.rs
FN:332,_RNCNvMs4_NtCs5GE8Mj9sQ3x_16lb_observability12label_budgetNtB7_19EnforcedLabelBudget8observed0B9_
FN:240,_RNCNvXs1_NtCs5GE8Mj9sQ3x_16lb_observability12label_budgetNtB7_19EnforcedLabelBudgetNtNtCs1p5UDGgVI4d_4core3fmt5Debug3fmt0B9_
FN:240,_RNCNvXs1_NtCsgHt304caEPG_16lb_observability12label_budgetNtB7_19EnforcedLabelBudgetNtNtCs1p5UDGgVI4d_4core3fmt5Debug3fmt0B9_
FN:343,_RNvMs4_NtCsgHt304caEPG_16lb_observability12label_budgetNtB5_19EnforcedLabelBudget6family
FN:337,_RNvMs4_NtCsgHt304caEPG_16lb_observability12label_budgetNtB5_19EnforcedLabelBudget7ceiling
FN:90,_RNvXNtCsgHt304caEPG_16lb_observability12label_budgetNtB2_16LabelBudgetErrorNtNtCs1p5UDGgVI4d_4core3fmt7Display3fmt
FN:234,_RNvXs1_NtCsgHt304caEPG_16lb_observability12label_budgetNtB5_19EnforcedLabelBudgetNtNtCs1p5UDGgVI4d_4core3fmt5Debug3fmt
FN:262,_RNvXs2_NtCsgHt304caEPG_16lb_observability12label_budgetNtB5_14CardinalityErrNtNtCs1p5UDGgVI4d_4core3fmt7Display3fmt
FN:426,_RNvNtNtCsgHt304caEPG_16lb_observability12label_budget5testss_32enforced_budget_refuses_overflow
FN:386,_RNvNtNtCsgHt304caEPG_16lb_observability12label_budget5testss_32oversize_config_refuses_to_start
FN:416,_RNvNtNtCsgHt304caEPG_16lb_observability12label_budget5testss_37enforced_budget_admits_within_ceiling
FN:457,_RNvNtNtCsgHt304caEPG_16lb_observability12label_budget5testss_39max_routes_budget_constant_matches_plan
FN:396,_RNvNtNtCsgHt304caEPG_16lb_observability12label_budget5testss_41canonical_label_table_covers_red_families
FN:371,_RNvNtNtCsgHt304caEPG_16lb_observability12label_budget5testss_43realistic_config_fits_within_default_budget
FN:449,_RNvNtNtCsgHt304caEPG_16lb_observability12label_budget5testss_49enforced_budget_distinguishes_arity_via_separator
FN:462,_RNvNtNtCsgHt304caEPG_16lb_observability12label_budget5testss_53xdp_label_keys_locked_to_action_family_direction_mode
FN:144,_RNvMs0_NtCsgHt304caEPG_16lb_observability12label_budgetNtB5_11LabelBudget10worst_case
FN:128,_RNvMs0_NtCsgHt304caEPG_16lb_observability12label_budgetNtB5_11LabelBudget17from_config_shape
FN:171,_RNvMs0_NtCsgHt304caEPG_16lb_observability12label_budgetNtB5_11LabelBudget5check
FN:291,_RNvMs4_NtCsgHt304caEPG_16lb_observability12label_budgetNtB5_19EnforcedLabelBudget10hash_tuple
FN:283,_RNvMs4_NtCsgHt304caEPG_16lb_observability12label_budgetNtB5_19EnforcedLabelBudget3new
FN:311,_RNvMs4_NtCsgHt304caEPG_16lb_observability12label_budgetNtB5_19EnforcedLabelBudget5admit
FN:331,_RNvMs4_NtCsgHt304caEPG_16lb_observability12label_budgetNtB5_19EnforcedLabelBudget8observed
FN:332,_RNCNvMs4_NtCsgHt304caEPG_16lb_observability12label_budgetNtB7_19EnforcedLabelBudget8observed0B9_
FN:468,_RNCNvNtNtCsgHt304caEPG_16lb_observability12label_budget5testss_53xdp_label_keys_locked_to_action_family_direction_mode0B7_
FN:473,_RNCNvNtNtCsgHt304caEPG_16lb_observability12label_budget5testss_53xdp_label_keys_locked_to_action_family_direction_modes_0B7_
FN:144,_RNvMs0_NtCs5GE8Mj9sQ3x_16lb_observability12label_budgetNtB5_11LabelBudget10worst_case
FN:128,_RNvMs0_NtCs5GE8Mj9sQ3x_16lb_observability12label_budgetNtB5_11LabelBudget17from_config_shape
FN:171,_RNvMs0_NtCs5GE8Mj9sQ3x_16lb_observability12label_budgetNtB5_11LabelBudget5check
FN:291,_RNvMs4_NtCs5GE8Mj9sQ3x_16lb_observability12label_budgetNtB5_19EnforcedLabelBudget10hash_tuple
FN:283,_RNvMs4_NtCs5GE8Mj9sQ3x_16lb_observability12label_budgetNtB5_19EnforcedLabelBudget3new
FN:311,_RNvMs4_NtCs5GE8Mj9sQ3x_16lb_observability12label_budgetNtB5_19EnforcedLabelBudget5admit
FN:343,_RNvMs4_NtCs5GE8Mj9sQ3x_16lb_observability12label_budgetNtB5_19EnforcedLabelBudget6family
FN:337,_RNvMs4_NtCs5GE8Mj9sQ3x_16lb_observability12label_budgetNtB5_19EnforcedLabelBudget7ceiling
FN:331,_RNvMs4_NtCs5GE8Mj9sQ3x_16lb_observability12label_budgetNtB5_19EnforcedLabelBudget8observed
FN:90,_RNvXNtCs5GE8Mj9sQ3x_16lb_observability12label_budgetNtB2_16LabelBudgetErrorNtNtCs1p5UDGgVI4d_4core3fmt7Display3fmt
FN:234,_RNvXs1_NtCs5GE8Mj9sQ3x_16lb_observability12label_budgetNtB5_19EnforcedLabelBudgetNtNtCs1p5UDGgVI4d_4core3fmt5Debug3fmt
FN:262,_RNvXs2_NtCs5GE8Mj9sQ3x_16lb_observability12label_budgetNtB5_14CardinalityErrNtNtCs1p5UDGgVI4d_4core3fmt7Display3fmt
FNDA:0,_RNCNvMs4_NtCs5GE8Mj9sQ3x_16lb_observability12label_budgetNtB7_19EnforcedLabelBudget8observed0B9_
FNDA:0,_RNCNvXs1_NtCs5GE8Mj9sQ3x_16lb_observability12label_budgetNtB7_19EnforcedLabelBudgetNtNtCs1p5UDGgVI4d_4core3fmt5Debug3fmt0B9_
FNDA:0,_RNCNvXs1_NtCsgHt304caEPG_16lb_observability12label_budgetNtB7_19EnforcedLabelBudgetNtNtCs1p5UDGgVI4d_4core3fmt5Debug3fmt0B9_
FNDA:0,_RNvMs4_NtCsgHt304caEPG_16lb_observability12label_budgetNtB5_19EnforcedLabelBudget6family
FNDA:0,_RNvMs4_NtCsgHt304caEPG_16lb_observability12label_budgetNtB5_19EnforcedLabelBudget7ceiling
FNDA:0,_RNvXNtCsgHt304caEPG_16lb_observability12label_budgetNtB2_16LabelBudgetErrorNtNtCs1p5UDGgVI4d_4core3fmt7Display3fmt
FNDA:0,_RNvXs1_NtCsgHt304caEPG_16lb_observability12label_budgetNtB5_19EnforcedLabelBudgetNtNtCs1p5UDGgVI4d_4core3fmt5Debug3fmt
FNDA:0,_RNvXs2_NtCsgHt304caEPG_16lb_observability12label_budgetNtB5_14CardinalityErrNtNtCs1p5UDGgVI4d_4core3fmt7Display3fmt
FNDA:1,_RNvNtNtCsgHt304caEPG_16lb_observability12label_budget5testss_32enforced_budget_refuses_overflow
FNDA:1,_RNvNtNtCsgHt304caEPG_16lb_observability12label_budget5testss_32oversize_config_refuses_to_start
FNDA:1,_RNvNtNtCsgHt304caEPG_16lb_observability12label_budget5testss_37enforced_budget_admits_within_ceiling
FNDA:1,_RNvNtNtCsgHt304caEPG_16lb_observability12label_budget5testss_39max_routes_budget_constant_matches_plan
FNDA:1,_RNvNtNtCsgHt304caEPG_16lb_observability12label_budget5testss_41canonical_label_table_covers_red_families
FNDA:1,_RNvNtNtCsgHt304caEPG_16lb_observability12label_budget5testss_43realistic_config_fits_within_default_budget
FNDA:1,_RNvNtNtCsgHt304caEPG_16lb_observability12label_budget5testss_49enforced_budget_distinguishes_arity_via_separator
FNDA:1,_RNvNtNtCsgHt304caEPG_16lb_observability12label_budget5testss_53xdp_label_keys_locked_to_action_family_direction_mode
FNDA:3,_RNvMs0_NtCsgHt304caEPG_16lb_observability12label_budgetNtB5_11LabelBudget10worst_case
FNDA:2,_RNvMs0_NtCsgHt304caEPG_16lb_observability12label_budgetNtB5_11LabelBudget17from_config_shape
FNDA:2,_RNvMs0_NtCsgHt304caEPG_16lb_observability12label_budgetNtB5_11LabelBudget5check
FNDA:10,_RNvMs4_NtCsgHt304caEPG_16lb_observability12label_budgetNtB5_19EnforcedLabelBudget10hash_tuple
FNDA:3,_RNvMs4_NtCsgHt304caEPG_16lb_observability12label_budgetNtB5_19EnforcedLabelBudget3new
FNDA:10,_RNvMs4_NtCsgHt304caEPG_16lb_observability12label_budgetNtB5_19EnforcedLabelBudget5admit
FNDA:3,_RNvMs4_NtCsgHt304caEPG_16lb_observability12label_budgetNtB5_19EnforcedLabelBudget8observed
FNDA:3,_RNCNvMs4_NtCsgHt304caEPG_16lb_observability12label_budgetNtB7_19EnforcedLabelBudget8observed0B9_
FNDA:10,_RNCNvNtNtCsgHt304caEPG_16lb_observability12label_budget5testss_53xdp_label_keys_locked_to_action_family_direction_mode0B7_
FNDA:7,_RNCNvNtNtCsgHt304caEPG_16lb_observability12label_budget5testss_53xdp_label_keys_locked_to_action_family_direction_modes_0B7_
FNDA:4,_RNvMs0_NtCs5GE8Mj9sQ3x_16lb_observability12label_budgetNtB5_11LabelBudget10worst_case
FNDA:3,_RNvMs0_NtCs5GE8Mj9sQ3x_16lb_observability12label_budgetNtB5_11LabelBudget17from_config_shape
FNDA:3,_RNvMs0_NtCs5GE8Mj9sQ3x_16lb_observability12label_budgetNtB5_11LabelBudget5check
FNDA:0,_RNvMs4_NtCs5GE8Mj9sQ3x_16lb_observability12label_budgetNtB5_19EnforcedLabelBudget10hash_tuple
FNDA:0,_RNvMs4_NtCs5GE8Mj9sQ3x_16lb_observability12label_budgetNtB5_19EnforcedLabelBudget3new
FNDA:0,_RNvMs4_NtCs5GE8Mj9sQ3x_16lb_observability12label_budgetNtB5_19EnforcedLabelBudget5admit
FNDA:0,_RNvMs4_NtCs5GE8Mj9sQ3x_16lb_observability12label_budgetNtB5_19EnforcedLabelBudget6family
FNDA:0,_RNvMs4_NtCs5GE8Mj9sQ3x_16lb_observability12label_budgetNtB5_19EnforcedLabelBudget7ceiling
FNDA:0,_RNvMs4_NtCs5GE8Mj9sQ3x_16lb_observability12label_budgetNtB5_19EnforcedLabelBudget8observed
FNDA:2,_RNvXNtCs5GE8Mj9sQ3x_16lb_observability12label_budgetNtB2_16LabelBudgetErrorNtNtCs1p5UDGgVI4d_4core3fmt7Display3fmt
FNDA:0,_RNvXs1_NtCs5GE8Mj9sQ3x_16lb_observability12label_budgetNtB5_19EnforcedLabelBudgetNtNtCs1p5UDGgVI4d_4core3fmt5Debug3fmt
FNDA:0,_RNvXs2_NtCs5GE8Mj9sQ3x_16lb_observability12label_budgetNtB5_14CardinalityErrNtNtCs1p5UDGgVI4d_4core3fmt7Display3fmt
FNF:24
FNH:19
DA:90,2
DA:91,2
DA:92,2
DA:93,2
DA:94,2
DA:99,2
DA:128,5
DA:129,5
DA:130,5
DA:131,5
DA:132,5
DA:133,5
DA:134,5
DA:135,5
DA:136,5
DA:137,5
DA:138,5
DA:139,5
DA:140,5
DA:144,7
DA:148,7
DA:149,7
DA:150,7
DA:151,7
DA:152,7
DA:153,7
DA:154,7
DA:155,7
DA:156,7
DA:157,7
DA:158,7
DA:159,7
DA:160,7
DA:161,7
DA:162,7
DA:163,7
DA:171,5
DA:172,5
DA:173,5
DA:175,5
DA:176,5
DA:177,5
DA:178,5
DA:179,5
DA:180,5
DA:181,5
DA:182,5
DA:183,5
DA:184,5
DA:185,5
DA:186,5
DA:187,5
DA:188,5
DA:189,25
DA:190,22
DA:191,2
DA:192,2
DA:193,2
DA:194,2
DA:195,2
DA:196,20
DA:198,3
DA:199,5
DA:234,0
DA:235,0
DA:236,0
DA:237,0
DA:238,0
DA:239,0
DA:240,0
DA:242,0
DA:243,0
DA:262,0
DA:263,0
DA:265,0
DA:266,0
DA:267,0
DA:268,0
DA:269,0
DA:270,0
DA:271,0
DA:272,0
DA:275,0
DA:283,3
DA:284,3
DA:285,3
DA:286,3
DA:287,3
DA:288,3
DA:289,3
DA:291,10
DA:293,10
DA:294,19
DA:295,19
DA:296,9
DA:297,10
DA:298,19
DA:300,10
DA:301,10
DA:311,10
DA:312,10
DA:313,10
DA:314,10
DA:315,2
DA:316,8
DA:317,8
DA:318,1
DA:319,1
DA:320,1
DA:321,1
DA:322,1
DA:323,7
DA:324,7
DA:325,7
DA:326,10
DA:331,3
DA:332,3
DA:333,3
DA:337,0
DA:338,0
DA:339,0
DA:343,0
DA:344,0
DA:345,0
DA:371,1
DA:372,1
DA:378,1
DA:379,1
DA:380,1
DA:381,1
DA:382,1
DA:383,1
DA:386,1
DA:389,1
DA:390,1
DA:391,1
DA:392,1
DA:393,1
DA:396,1
DA:400,1
DA:401,5
DA:403,1
DA:404,1
DA:405,1
DA:406,1
DA:408,5
DA:409,5
DA:410,0
DA:413,1
DA:416,1
DA:417,1
DA:418,1
DA:419,1
DA:420,1
DA:421,1
DA:422,1
DA:423,1
DA:426,1
DA:427,1
DA:428,1
DA:429,1
DA:430,1
DA:431,1
DA:432,1
DA:433,1
DA:435,1
DA:436,1
DA:437,1
DA:439,1
DA:440,1
DA:441,1
DA:444,1
DA:445,1
DA:446,1
DA:449,1
DA:450,1
DA:451,1
DA:452,1
DA:453,1
DA:454,1
DA:457,1
DA:458,1
DA:459,1
DA:462,1
DA:466,1
DA:467,1
DA:468,10
DA:469,1
DA:470,1
DA:471,1
DA:472,1
DA:473,7
DA:474,1
DA:475,1
DA:476,1
BRF:0
BRH:0
LF:199
LH:171
end_of_record
SF:/home/ubuntu/Code/ExpressGateway/.claude/worktrees/s36-verify/crates/lb-observability/src/lib.rs
FN:493,_RNCNvMs0_Cs5GE8Mj9sQ3x_16lb_observabilityNtB7_15MetricsRegistry17check_cardinality0B7_
FN:509,_RNvCs5GE8Mj9sQ3x_16lb_observability20http_latency_buckets
FN:193,_RNvMs0_Cs5GE8Mj9sQ3x_16lb_observabilityNtB5_15MetricsRegistry11counter_vec
FN:267,_RNvMs0_Cs5GE8Mj9sQ3x_16lb_observabilityNtB5_15MetricsRegistry13histogram_vec
FN:488,_RNvMs0_Cs5GE8Mj9sQ3x_16lb_observabilityNtB5_15MetricsRegistry17check_cardinality
FN:403,_RNvMs0_Cs5GE8Mj9sQ3x_16lb_observabilityNtB5_15MetricsRegistry19accept_inflight_dec
FN:392,_RNvMs0_Cs5GE8Mj9sQ3x_16lb_observabilityNtB5_15MetricsRegistry19accept_inflight_inc
FN:427,_RNvMs0_Cs5GE8Mj9sQ3x_16lb_observabilityNtB5_15MetricsRegistry19panic_total_counter
FN:380,_RNvMs0_Cs5GE8Mj9sQ3x_16lb_observabilityNtB5_15MetricsRegistry21accept_inflight_gauge
FN:467,_RNvMs0_Cs5GE8Mj9sQ3x_16lb_observabilityNtB5_15MetricsRegistry3get
FN:478,_RNvMs0_Cs5GE8Mj9sQ3x_16lb_observabilityNtB5_15MetricsRegistry3len
FN:135,_RNvMs0_Cs5GE8Mj9sQ3x_16lb_observabilityNtB5_15MetricsRegistry3new
FN:345,_RNvMs0_Cs5GE8Mj9sQ3x_16lb_observabilityNtB5_15MetricsRegistry5gauge
FN:445,_RNvMs0_Cs5GE8Mj9sQ3x_16lb_observabilityNtB5_15MetricsRegistry5inner
FN:437,_RNvMs0_Cs5GE8Mj9sQ3x_16lb_observabilityNtB5_15MetricsRegistry6gather
FN:154,_RNvMs0_Cs5GE8Mj9sQ3x_16lb_observabilityNtB5_15MetricsRegistry7counter
FN:484,_RNvMs0_Cs5GE8Mj9sQ3x_16lb_observabilityNtB5_15MetricsRegistry8is_empty
FN:309,_RNvMs0_Cs5GE8Mj9sQ3x_16lb_observabilityNtB5_15MetricsRegistry9gauge_vec
FN:229,_RNvMs0_Cs5GE8Mj9sQ3x_16lb_observabilityNtB5_15MetricsRegistry9histogram
FN:453,_RNvMs0_Cs5GE8Mj9sQ3x_16lb_observabilityNtB5_15MetricsRegistry9increment
FN:114,_RNvXCs5GE8Mj9sQ3x_16lb_observabilityNtB2_15MetricsRegistryNtNtCs1p5UDGgVI4d_4core7default7Default7default
FN:120,_RNvXs_Cs5GE8Mj9sQ3x_16lb_observabilityNtB4_6HandleNtNtCs1p5UDGgVI4d_4core3fmt5Debug3fmt
FN:522,_RNvCs5GE8Mj9sQ3x_16lb_observability24__force_collector_linkage
FN:509,_RNvCsgHt304caEPG_16lb_observability20http_latency_buckets
FN:522,_RNvCsgHt304caEPG_16lb_observability24__force_collector_linkage
FN:267,_RNvMs0_CsgHt304caEPG_16lb_observabilityNtB5_15MetricsRegistry13histogram_vec
FN:403,_RNvMs0_CsgHt304caEPG_16lb_observabilityNtB5_15MetricsRegistry19accept_inflight_dec
FN:392,_RNvMs0_CsgHt304caEPG_16lb_observabilityNtB5_15MetricsRegistry19accept_inflight_inc
FN:427,_RNvMs0_CsgHt304caEPG_16lb_observabilityNtB5_15MetricsRegistry19panic_total_counter
FN:380,_RNvMs0_CsgHt304caEPG_16lb_observabilityNtB5_15MetricsRegistry21accept_inflight_gauge
FN:445,_RNvMs0_CsgHt304caEPG_16lb_observabilityNtB5_15MetricsRegistry5inner
FN:114,_RNvXCsgHt304caEPG_16lb_observabilityNtB2_15MetricsRegistryNtNtCs1p5UDGgVI4d_4core7default7Default7default
FN:120,_RNvXs_CsgHt304caEPG_16lb_observabilityNtB4_6HandleNtNtCs1p5UDGgVI4d_4core3fmt5Debug3fmt
FN:608,_RNvNtCsgHt304caEPG_16lb_observability5testss_21thread_safe_increment
FN:600,_RNvNtCsgHt304caEPG_16lb_observability5testss_25type_mismatch_is_reported
FN:540,_RNvNtCsgHt304caEPG_16lb_observability5testss_28missing_counter_returns_none
FN:529,_RNvNtCsgHt304caEPG_16lb_observability5testss_29increment_and_read_backcompat
FN:546,_RNvNtCsgHt304caEPG_16lb_observability5testss_35counter_get_or_create_is_idempotent
FN:569,_RNvNtCsgHt304caEPG_16lb_observability5testss_39histogram_observe_appears_in_exposition
FN:556,_RNvNtCsgHt304caEPG_16lb_observability5testss_42counter_vec_labels_increment_independently
FN:585,_RNvNtCsgHt304caEPG_16lb_observability5testss_42gather_snapshot_matches_registered_metrics
FN:616,_RNCNvNtCsgHt304caEPG_16lb_observability5testss_21thread_safe_increment0B5_
FN:593,_RNCNvNtCsgHt304caEPG_16lb_observability5testss_42gather_snapshot_matches_registered_metrics0B5_
FN:193,_RNvMs0_CsgHt304caEPG_16lb_observabilityNtB5_15MetricsRegistry11counter_vec
FN:488,_RNvMs0_CsgHt304caEPG_16lb_observabilityNtB5_15MetricsRegistry17check_cardinality
FN:467,_RNvMs0_CsgHt304caEPG_16lb_observabilityNtB5_15MetricsRegistry3get
FN:478,_RNvMs0_CsgHt304caEPG_16lb_observabilityNtB5_15MetricsRegistry3len
FN:135,_RNvMs0_CsgHt304caEPG_16lb_observabilityNtB5_15MetricsRegistry3new
FN:345,_RNvMs0_CsgHt304caEPG_16lb_observabilityNtB5_15MetricsRegistry5gauge
FN:437,_RNvMs0_CsgHt304caEPG_16lb_observabilityNtB5_15MetricsRegistry6gather
FN:154,_RNvMs0_CsgHt304caEPG_16lb_observabilityNtB5_15MetricsRegistry7counter
FN:484,_RNvMs0_CsgHt304caEPG_16lb_observabilityNtB5_15MetricsRegistry8is_empty
FN:309,_RNvMs0_CsgHt304caEPG_16lb_observabilityNtB5_15MetricsRegistry9gauge_vec
FN:229,_RNvMs0_CsgHt304caEPG_16lb_observabilityNtB5_15MetricsRegistry9histogram
FN:453,_RNvMs0_CsgHt304caEPG_16lb_observabilityNtB5_15MetricsRegistry9increment
FN:493,_RNCNvMs0_CsgHt304caEPG_16lb_observabilityNtB7_15MetricsRegistry17check_cardinality0B7_
FNDA:453,_RNCNvMs0_Cs5GE8Mj9sQ3x_16lb_observabilityNtB7_15MetricsRegistry17check_cardinality0B7_
FNDA:0,_RNvCs5GE8Mj9sQ3x_16lb_observability20http_latency_buckets
FNDA:10,_RNvMs0_Cs5GE8Mj9sQ3x_16lb_observabilityNtB5_15MetricsRegistry11counter_vec
FNDA:0,_RNvMs0_Cs5GE8Mj9sQ3x_16lb_observabilityNtB5_15MetricsRegistry13histogram_vec
FNDA:156,_RNvMs0_Cs5GE8Mj9sQ3x_16lb_observabilityNtB5_15MetricsRegistry17check_cardinality
FNDA:0,_RNvMs0_Cs5GE8Mj9sQ3x_16lb_observabilityNtB5_15MetricsRegistry19accept_inflight_dec
FNDA:0,_RNvMs0_Cs5GE8Mj9sQ3x_16lb_observabilityNtB5_15MetricsRegistry19accept_inflight_inc
FNDA:3,_RNvMs0_Cs5GE8Mj9sQ3x_16lb_observabilityNtB5_15MetricsRegistry19panic_total_counter
FNDA:0,_RNvMs0_Cs5GE8Mj9sQ3x_16lb_observabilityNtB5_15MetricsRegistry21accept_inflight_gauge
FNDA:0,_RNvMs0_Cs5GE8Mj9sQ3x_16lb_observabilityNtB5_15MetricsRegistry3get
FNDA:0,_RNvMs0_Cs5GE8Mj9sQ3x_16lb_observabilityNtB5_15MetricsRegistry3len
FNDA:35,_RNvMs0_Cs5GE8Mj9sQ3x_16lb_observabilityNtB5_15MetricsRegistry3new
FNDA:25,_RNvMs0_Cs5GE8Mj9sQ3x_16lb_observabilityNtB5_15MetricsRegistry5gauge
FNDA:0,_RNvMs0_Cs5GE8Mj9sQ3x_16lb_observabilityNtB5_15MetricsRegistry5inner
FNDA:8,_RNvMs0_Cs5GE8Mj9sQ3x_16lb_observabilityNtB5_15MetricsRegistry6gather
FNDA:117,_RNvMs0_Cs5GE8Mj9sQ3x_16lb_observabilityNtB5_15MetricsRegistry7counter
FNDA:0,_RNvMs0_Cs5GE8Mj9sQ3x_16lb_observabilityNtB5_15MetricsRegistry8is_empty
FNDA:5,_RNvMs0_Cs5GE8Mj9sQ3x_16lb_observabilityNtB5_15MetricsRegistry9gauge_vec
FNDA:0,_RNvMs0_Cs5GE8Mj9sQ3x_16lb_observabilityNtB5_15MetricsRegistry9histogram
FNDA:0,_RNvMs0_Cs5GE8Mj9sQ3x_16lb_observabilityNtB5_15MetricsRegistry9increment
FNDA:0,_RNvXCs5GE8Mj9sQ3x_16lb_observabilityNtB2_15MetricsRegistryNtNtCs1p5UDGgVI4d_4core7default7Default7default
FNDA:0,_RNvXs_Cs5GE8Mj9sQ3x_16lb_observabilityNtB4_6HandleNtNtCs1p5UDGgVI4d_4core3fmt5Debug3fmt
FNDA:0,_RNvCs5GE8Mj9sQ3x_16lb_observability24__force_collector_linkage
FNDA:0,_RNvCsgHt304caEPG_16lb_observability20http_latency_buckets
FNDA:0,_RNvCsgHt304caEPG_16lb_observability24__force_collector_linkage
FNDA:0,_RNvMs0_CsgHt304caEPG_16lb_observabilityNtB5_15MetricsRegistry13histogram_vec
FNDA:0,_RNvMs0_CsgHt304caEPG_16lb_observabilityNtB5_15MetricsRegistry19accept_inflight_dec
FNDA:0,_RNvMs0_CsgHt304caEPG_16lb_observabilityNtB5_15MetricsRegistry19accept_inflight_inc
FNDA:0,_RNvMs0_CsgHt304caEPG_16lb_observabilityNtB5_15MetricsRegistry19panic_total_counter
FNDA:0,_RNvMs0_CsgHt304caEPG_16lb_observabilityNtB5_15MetricsRegistry21accept_inflight_gauge
FNDA:0,_RNvMs0_CsgHt304caEPG_16lb_observabilityNtB5_15MetricsRegistry5inner
FNDA:0,_RNvXCsgHt304caEPG_16lb_observabilityNtB2_15MetricsRegistryNtNtCs1p5UDGgVI4d_4core7default7Default7default
FNDA:0,_RNvXs_CsgHt304caEPG_16lb_observabilityNtB4_6HandleNtNtCs1p5UDGgVI4d_4core3fmt5Debug3fmt
FNDA:1,_RNvNtCsgHt304caEPG_16lb_observability5testss_21thread_safe_increment
FNDA:1,_RNvNtCsgHt304caEPG_16lb_observability5testss_25type_mismatch_is_reported
FNDA:1,_RNvNtCsgHt304caEPG_16lb_observability5testss_28missing_counter_returns_none
FNDA:1,_RNvNtCsgHt304caEPG_16lb_observability5testss_29increment_and_read_backcompat
FNDA:1,_RNvNtCsgHt304caEPG_16lb_observability5testss_35counter_get_or_create_is_idempotent
FNDA:1,_RNvNtCsgHt304caEPG_16lb_observability5testss_39histogram_observe_appears_in_exposition
FNDA:1,_RNvNtCsgHt304caEPG_16lb_observability5testss_42counter_vec_labels_increment_independently
FNDA:1,_RNvNtCsgHt304caEPG_16lb_observability5testss_42gather_snapshot_matches_registered_metrics
FNDA:4,_RNCNvNtCsgHt304caEPG_16lb_observability5testss_21thread_safe_increment0B5_
FNDA:3,_RNCNvNtCsgHt304caEPG_16lb_observability5testss_42gather_snapshot_matches_registered_metrics0B5_
FNDA:9,_RNvMs0_CsgHt304caEPG_16lb_observabilityNtB5_15MetricsRegistry11counter_vec
FNDA:53,_RNvMs0_CsgHt304caEPG_16lb_observabilityNtB5_15MetricsRegistry17check_cardinality
FNDA:3,_RNvMs0_CsgHt304caEPG_16lb_observabilityNtB5_15MetricsRegistry3get
FNDA:1,_RNvMs0_CsgHt304caEPG_16lb_observabilityNtB5_15MetricsRegistry3len
FNDA:24,_RNvMs0_CsgHt304caEPG_16lb_observabilityNtB5_15MetricsRegistry3new
FNDA:12,_RNvMs0_CsgHt304caEPG_16lb_observabilityNtB5_15MetricsRegistry5gauge
FNDA:6,_RNvMs0_CsgHt304caEPG_16lb_observabilityNtB5_15MetricsRegistry6gather
FNDA:4039,_RNvMs0_CsgHt304caEPG_16lb_observabilityNtB5_15MetricsRegistry7counter
FNDA:1,_RNvMs0_CsgHt304caEPG_16lb_observabilityNtB5_15MetricsRegistry8is_empty
FNDA:4,_RNvMs0_CsgHt304caEPG_16lb_observabilityNtB5_15MetricsRegistry9gauge_vec
FNDA:3,_RNvMs0_CsgHt304caEPG_16lb_observabilityNtB5_15MetricsRegistry9histogram
FNDA:4002,_RNvMs0_CsgHt304caEPG_16lb_observabilityNtB5_15MetricsRegistry9increment
FNDA:92,_RNCNvMs0_CsgHt304caEPG_16lb_observabilityNtB7_15MetricsRegistry17check_cardinality0B7_
FNF:33
FNH:24
DA:114,0
DA:115,0
DA:116,0
DA:120,0
DA:121,0
DA:122,0
DA:123,0
DA:124,0
DA:125,0
DA:126,0
DA:127,0
DA:129,0
DA:135,59
DA:136,59
DA:137,59
DA:138,59
DA:139,59
DA:140,59
DA:154,4156
DA:156,4156
DA:157,4011
DA:158,4011
DA:159,0
DA:160,0
DA:161,0
DA:162,0
DA:163,145
DA:169,145
DA:170,0
DA:171,0
DA:172,0
DA:173,0
DA:174,0
DA:176,145
DA:177,145
DA:178,145
DA:179,145
DA:180,145
DA:181,145
DA:184,4156
DA:193,19
DA:194,19
DA:195,19
DA:196,19
DA:197,19
DA:198,19
DA:199,19
DA:200,0
DA:201,0
DA:202,0
DA:203,0
DA:204,0
DA:205,0
DA:206,19
DA:207,19
DA:208,0
DA:209,0
DA:210,0
DA:211,0
DA:212,0
DA:214,19
DA:215,19
DA:216,19
DA:217,19
DA:218,19
DA:219,19
DA:222,19
DA:229,3
DA:230,3
DA:231,3
DA:232,3
DA:233,3
DA:234,3
DA:235,3
DA:236,0
DA:237,0
DA:238,0
DA:239,0
DA:240,0
DA:241,0
DA:242,3
DA:243,3
DA:244,0
DA:245,0
DA:246,0
DA:247,0
DA:248,0
DA:250,3
DA:251,3
DA:252,3
DA:253,0
DA:254,3
DA:255,3
DA:256,3
DA:257,3
DA:260,3
DA:267,0
DA:268,0
DA:269,0
DA:270,0
DA:271,0
DA:272,0
DA:273,0
DA:274,0
DA:275,0
DA:276,0
DA:277,0
DA:278,0
DA:279,0
DA:280,0
DA:281,0
DA:282,0
DA:283,0
DA:284,0
DA:285,0
DA:286,0
DA:287,0
DA:289,0
DA:290,0
DA:291,0
DA:292,0
DA:293,0
DA:294,0
DA:295,0
DA:296,0
DA:297,0
DA:300,0
DA:309,9
DA:310,9
DA:311,9
DA:312,9
DA:313,9
DA:314,9
DA:315,9
DA:316,0
DA:317,0
DA:318,0
DA:319,0
DA:320,0
DA:321,0
DA:322,9
DA:323,9
DA:324,0
DA:325,0
DA:326,0
DA:327,0
DA:328,0
DA:330,9
DA:331,9
DA:332,9
DA:333,9
DA:334,9
DA:335,9
DA:338,9
DA:345,37
DA:346,37
DA:347,4
DA:348,3
DA:349,1
DA:350,1
DA:351,1
DA:352,1
DA:353,33
DA:354,33
DA:355,0
DA:356,0
DA:357,0
DA:358,0
DA:359,0
DA:361,33
DA:362,33
DA:363,33
DA:364,33
DA:365,33
DA:366,33
DA:369,37
DA:380,0
DA:381,0
DA:382,0
DA:383,0
DA:384,0
DA:386,0
DA:392,0
DA:393,0
DA:394,0
DA:395,0
DA:396,0
DA:399,0
DA:403,0
DA:404,0
DA:405,0
DA:406,0
DA:407,0
DA:410,0
DA:427,3
DA:428,3
DA:429,3
DA:430,3
DA:432,3
DA:437,14
DA:438,14
DA:439,14
DA:445,0
DA:446,0
DA:447,0
DA:453,4002
DA:454,4002
DA:455,4002
DA:456,0
DA:457,0
DA:460,4002
DA:467,3
DA:468,3
DA:469,2
DA:470,2
DA:471,0
DA:472,0
DA:473,3
DA:478,1
DA:479,1
DA:480,1
DA:484,1
DA:485,1
DA:486,1
DA:488,209
DA:489,209
DA:490,209
DA:491,209
DA:492,209
DA:493,545
DA:494,209
DA:495,209
DA:496,0
DA:499,0
DA:501,209
DA:502,209
DA:509,0
DA:510,0
DA:513,0
DA:522,0
DA:529,1
DA:530,1
DA:531,1
DA:533,1
DA:534,1
DA:535,1
DA:536,1
DA:537,1
DA:540,1
DA:541,1
DA:542,1
DA:543,1
DA:546,1
DA:547,1
DA:548,1
DA:549,1
DA:550,1
DA:551,1
DA:552,1
DA:553,1
DA:556,1
DA:557,1
DA:558,1
DA:559,1
DA:560,1
DA:561,1
DA:562,1
DA:563,1
DA:564,1
DA:565,1
DA:566,1
DA:569,1
DA:570,1
DA:571,1
DA:572,1
DA:573,1
DA:574,1
DA:575,1
DA:576,1
DA:577,1
DA:578,1
DA:579,1
DA:580,0
DA:582,1
DA:585,1
DA:586,1
DA:587,1
DA:588,1
DA:589,1
DA:590,1
DA:591,1
DA:592,1
DA:593,3
DA:594,1
DA:595,1
DA:596,1
DA:597,1
DA:600,1
DA:601,1
DA:602,1
DA:603,1
DA:604,1
DA:605,1
DA:608,1
DA:611,1
DA:612,1
DA:614,5
DA:615,4
DA:616,4
DA:617,4004
DA:618,4000
DA:619,4000
DA:620,4
DA:623,5
DA:624,4
DA:625,4
DA:627,1
DA:628,1
BRF:0
BRH:0
LF:321
LH:198
end_of_record
SF:/home/ubuntu/Code/ExpressGateway/.claude/worktrees/s36-verify/crates/lb-observability/src/log.rs
FN:106,_RNCNvNtCs5GE8Mj9sQ3x_16lb_observability3log12init_tracing0B5_
FN:110,_RNCNvNtCs5GE8Mj9sQ3x_16lb_observability3log12init_tracings_0B5_
FN:45,_RNvMNtCs5GE8Mj9sQ3x_16lb_observability3logNtB2_9LogFormat5parse
FN:103,_RNvNtCs5GE8Mj9sQ3x_16lb_observability3log12init_tracing
FN:143,_RNvNtCs5GE8Mj9sQ3x_16lb_observability3log14current_format
FN:64,_RNvXs_NtCs5GE8Mj9sQ3x_16lb_observability3logNtB4_13TracingConfigNtNtCs1p5UDGgVI4d_4core7default7Default7default
FN:106,_RNCNvNtCsgHt304caEPG_16lb_observability3log12init_tracing0B5_
FN:110,_RNCNvNtCsgHt304caEPG_16lb_observability3log12init_tracings_0B5_
FN:103,_RNvNtCsgHt304caEPG_16lb_observability3log12init_tracing
FN:143,_RNvNtCsgHt304caEPG_16lb_observability3log14current_format
FN:45,_RNvMNtCsgHt304caEPG_16lb_observability3logNtB2_9LogFormat5parse
FN:64,_RNvXs_NtCsgHt304caEPG_16lb_observability3logNtB4_13TracingConfigNtNtCs1p5UDGgVI4d_4core7default7Default7default
FN:161,_RNvNtNtCsgHt304caEPG_16lb_observability3log5testss_27default_config_is_json_info
FN:152,_RNvNtNtCsgHt304caEPG_16lb_observability3log5testss_38format_parser_accepts_canonical_tokens
FNDA:0,_RNCNvNtCs5GE8Mj9sQ3x_16lb_observability3log12init_tracing0B5_
FNDA:0,_RNCNvNtCs5GE8Mj9sQ3x_16lb_observability3log12init_tracings_0B5_
FNDA:3,_RNvMNtCs5GE8Mj9sQ3x_16lb_observability3logNtB2_9LogFormat5parse
FNDA:0,_RNvNtCs5GE8Mj9sQ3x_16lb_observability3log12init_tracing
FNDA:0,_RNvNtCs5GE8Mj9sQ3x_16lb_observability3log14current_format
FNDA:0,_RNvXs_NtCs5GE8Mj9sQ3x_16lb_observability3logNtB4_13TracingConfigNtNtCs1p5UDGgVI4d_4core7default7Default7default
FNDA:0,_RNCNvNtCsgHt304caEPG_16lb_observability3log12init_tracing0B5_
FNDA:0,_RNCNvNtCsgHt304caEPG_16lb_observability3log12init_tracings_0B5_
FNDA:0,_RNvNtCsgHt304caEPG_16lb_observability3log12init_tracing
FNDA:0,_RNvNtCsgHt304caEPG_16lb_observability3log14current_format
FNDA:5,_RNvMNtCsgHt304caEPG_16lb_observability3logNtB2_9LogFormat5parse
FNDA:1,_RNvXs_NtCsgHt304caEPG_16lb_observability3logNtB4_13TracingConfigNtNtCs1p5UDGgVI4d_4core7default7Default7default
FNDA:1,_RNvNtNtCsgHt304caEPG_16lb_observability3log5testss_27default_config_is_json_info
FNDA:1,_RNvNtNtCsgHt304caEPG_16lb_observability3log5testss_38format_parser_accepts_canonical_tokens
FNF:8
FNH:4
DA:45,8
DA:46,8
DA:47,8
DA:48,5
DA:49,2
DA:51,8
DA:64,1
DA:65,1
DA:66,1
DA:67,1
DA:68,1
DA:69,1
DA:103,0
DA:104,0
DA:105,0
DA:106,0
DA:107,0
DA:109,0
DA:110,0
DA:114,0
DA:115,0
DA:116,0
DA:117,0
DA:118,0
DA:119,0
DA:120,0
DA:121,0
DA:122,0
DA:123,0
DA:124,0
DA:125,0
DA:126,0
DA:127,0
DA:130,0
DA:133,0
DA:134,0
DA:136,0
DA:138,0
DA:143,0
DA:144,0
DA:145,0
DA:152,1
DA:153,1
DA:154,1
DA:155,1
DA:156,1
DA:157,1
DA:158,1
DA:161,1
DA:162,1
DA:163,1
DA:164,1
DA:165,1
BRF:0
BRH:0
LF:55
LH:24
end_of_record
SF:/home/ubuntu/Code/ExpressGateway/.claude/worktrees/s36-verify/crates/lb-observability/src/passthrough_metrics.rs
FN:108,_RNvNtNtCsgHt304caEPG_16lb_observability19passthrough_metrics5testss_22register_is_idempotent
FN:96,_RNvNtNtCsgHt304caEPG_16lb_observability19passthrough_metrics5testss_35register_seeds_all_families_at_zero
FN:55,_RNvMNtCsgHt304caEPG_16lb_observability19passthrough_metricsNtB2_18PassthroughMetrics8register
FN:55,_RNvMNtCs5GE8Mj9sQ3x_16lb_observability19passthrough_metricsNtB2_18PassthroughMetrics8register
FNDA:1,_RNvNtNtCsgHt304caEPG_16lb_observability19passthrough_metrics5testss_22register_is_idempotent
FNDA:1,_RNvNtNtCsgHt304caEPG_16lb_observability19passthrough_metrics5testss_35register_seeds_all_families_at_zero
FNDA:3,_RNvMNtCsgHt304caEPG_16lb_observability19passthrough_metricsNtB2_18PassthroughMetrics8register
FNDA:19,_RNvMNtCs5GE8Mj9sQ3x_16lb_observability19passthrough_metricsNtB2_18PassthroughMetrics8register
FNF:3
FNH:3
DA:55,22
DA:56,22
DA:57,22
DA:58,22
DA:59,0
DA:60,22
DA:61,22
DA:62,22
DA:63,0
DA:64,22
DA:65,22
DA:66,22
DA:67,0
DA:68,22
DA:69,22
DA:70,22
DA:71,0
DA:72,22
DA:73,22
DA:74,22
DA:75,0
DA:76,22
DA:77,22
DA:78,22
DA:79,0
DA:80,22
DA:81,22
DA:82,22
DA:83,22
DA:84,22
DA:85,22
DA:86,22
DA:87,22
DA:88,22
DA:96,1
DA:97,1
DA:98,1
DA:99,1
DA:100,1
DA:101,1
DA:102,1
DA:103,1
DA:104,1
DA:105,1
DA:108,1
DA:109,1
DA:110,1
DA:111,1
DA:114,1
DA:115,1
DA:116,1
BRF:0
BRH:0
LF:51
LH:45
end_of_record
SF:/home/ubuntu/Code/ExpressGateway/.claude/worktrees/s36-verify/crates/lb-observability/src/probes.rs
FN:54,_RNvMNtCs5GE8Mj9sQ3x_16lb_observability6probesNtB2_10ProbeState10body_token
FN:40,_RNvMNtCs5GE8Mj9sQ3x_16lb_observability6probesNtB2_10ProbeState7as_byte
FN:44,_RNvMNtCs5GE8Mj9sQ3x_16lb_observability6probesNtB2_10ProbeState9from_byte
FN:143,_RNvMs0_NtCs5GE8Mj9sQ3x_16lb_observability6probesNtB5_13ProbeRegistry10is_started
FN:118,_RNvMs0_NtCs5GE8Mj9sQ3x_16lb_observability6probesNtB5_13ProbeRegistry12set_draining
FN:83,_RNvMs0_NtCs5GE8Mj9sQ3x_16lb_observability6probesNtB5_13ProbeRegistry3new
FN:98,_RNvMs0_NtCs5GE8Mj9sQ3x_16lb_observability6probesNtB5_13ProbeRegistry5state
FN:92,_RNvMs0_NtCs5GE8Mj9sQ3x_16lb_observability6probesNtB5_13ProbeRegistry6shared
FN:132,_RNvMs0_NtCs5GE8Mj9sQ3x_16lb_observability6probesNtB5_13ProbeRegistry7is_live
FN:125,_RNvMs0_NtCs5GE8Mj9sQ3x_16lb_observability6probesNtB5_13ProbeRegistry8is_ready
FN:105,_RNvMs0_NtCs5GE8Mj9sQ3x_16lb_observability6probesNtB5_13ProbeRegistry9set_ready
FN:75,_RNvXs_NtCs5GE8Mj9sQ3x_16lb_observability6probesNtB4_13ProbeRegistryNtNtCs1p5UDGgVI4d_4core7default7Default7default
FN:75,_RNvXs_NtCsgHt304caEPG_16lb_observability6probesNtB4_13ProbeRegistryNtNtCs1p5UDGgVI4d_4core7default7Default7default
FN:153,_RNvNtNtCsgHt304caEPG_16lb_observability6probes5testss_24starts_in_starting_state
FN:196,_RNvNtNtCsgHt304caEPG_16lb_observability6probes5testss_27body_token_string_is_stable
FN:183,_RNvNtNtCsgHt304caEPG_16lb_observability6probes5testss_28ready_after_drain_is_a_no_op
FN:162,_RNvNtNtCsgHt304caEPG_16lb_observability6probes5testss_28ready_transition_flips_flags
FN:172,_RNvNtNtCsgHt304caEPG_16lb_observability6probes5testss_40drain_flips_readiness_but_keeps_liveness
FN:54,_RNvMNtCsgHt304caEPG_16lb_observability6probesNtB2_10ProbeState10body_token
FN:40,_RNvMNtCsgHt304caEPG_16lb_observability6probesNtB2_10ProbeState7as_byte
FN:44,_RNvMNtCsgHt304caEPG_16lb_observability6probesNtB2_10ProbeState9from_byte
FN:143,_RNvMs0_NtCsgHt304caEPG_16lb_observability6probesNtB5_13ProbeRegistry10is_started
FN:118,_RNvMs0_NtCsgHt304caEPG_16lb_observability6probesNtB5_13ProbeRegistry12set_draining
FN:83,_RNvMs0_NtCsgHt304caEPG_16lb_observability6probesNtB5_13ProbeRegistry3new
FN:98,_RNvMs0_NtCsgHt304caEPG_16lb_observability6probesNtB5_13ProbeRegistry5state
FN:92,_RNvMs0_NtCsgHt304caEPG_16lb_observability6probesNtB5_13ProbeRegistry6shared
FN:132,_RNvMs0_NtCsgHt304caEPG_16lb_observability6probesNtB5_13ProbeRegistry7is_live
FN:125,_RNvMs0_NtCsgHt304caEPG_16lb_observability6probesNtB5_13ProbeRegistry8is_ready
FN:105,_RNvMs0_NtCsgHt304caEPG_16lb_observability6probesNtB5_13ProbeRegistry9set_ready
FNDA:12,_RNvMNtCs5GE8Mj9sQ3x_16lb_observability6probesNtB2_10ProbeState10body_token
FNDA:5,_RNvMNtCs5GE8Mj9sQ3x_16lb_observability6probesNtB2_10ProbeState7as_byte
FNDA:16,_RNvMNtCs5GE8Mj9sQ3x_16lb_observability6probesNtB2_10ProbeState9from_byte
FNDA:3,_RNvMs0_NtCs5GE8Mj9sQ3x_16lb_observability6probesNtB5_13ProbeRegistry10is_started
FNDA:1,_RNvMs0_NtCs5GE8Mj9sQ3x_16lb_observability6probesNtB5_13ProbeRegistry12set_draining
FNDA:2,_RNvMs0_NtCs5GE8Mj9sQ3x_16lb_observability6probesNtB5_13ProbeRegistry3new
FNDA:16,_RNvMs0_NtCs5GE8Mj9sQ3x_16lb_observability6probesNtB5_13ProbeRegistry5state
FNDA:2,_RNvMs0_NtCs5GE8Mj9sQ3x_16lb_observability6probesNtB5_13ProbeRegistry6shared
FNDA:5,_RNvMs0_NtCs5GE8Mj9sQ3x_16lb_observability6probesNtB5_13ProbeRegistry7is_live
FNDA:0,_RNvMs0_NtCs5GE8Mj9sQ3x_16lb_observability6probesNtB5_13ProbeRegistry8is_ready
FNDA:2,_RNvMs0_NtCs5GE8Mj9sQ3x_16lb_observability6probesNtB5_13ProbeRegistry9set_ready
FNDA:0,_RNvXs_NtCs5GE8Mj9sQ3x_16lb_observability6probesNtB4_13ProbeRegistryNtNtCs1p5UDGgVI4d_4core7default7Default7default
FNDA:0,_RNvXs_NtCsgHt304caEPG_16lb_observability6probesNtB4_13ProbeRegistryNtNtCs1p5UDGgVI4d_4core7default7Default7default
FNDA:1,_RNvNtNtCsgHt304caEPG_16lb_observability6probes5testss_24starts_in_starting_state
FNDA:1,_RNvNtNtCsgHt304caEPG_16lb_observability6probes5testss_27body_token_string_is_stable
FNDA:1,_RNvNtNtCsgHt304caEPG_16lb_observability6probes5testss_28ready_after_drain_is_a_no_op
FNDA:1,_RNvNtNtCsgHt304caEPG_16lb_observability6probes5testss_28ready_transition_flips_flags
FNDA:1,_RNvNtNtCsgHt304caEPG_16lb_observability6probes5testss_40drain_flips_readiness_but_keeps_liveness
FNDA:3,_RNvMNtCsgHt304caEPG_16lb_observability6probesNtB2_10ProbeState10body_token
FNDA:12,_RNvMNtCsgHt304caEPG_16lb_observability6probesNtB2_10ProbeState7as_byte
FNDA:10,_RNvMNtCsgHt304caEPG_16lb_observability6probesNtB2_10ProbeState9from_byte
FNDA:3,_RNvMs0_NtCsgHt304caEPG_16lb_observability6probesNtB5_13ProbeRegistry10is_started
FNDA:2,_RNvMs0_NtCsgHt304caEPG_16lb_observability6probesNtB5_13ProbeRegistry12set_draining
FNDA:6,_RNvMs0_NtCsgHt304caEPG_16lb_observability6probesNtB5_13ProbeRegistry3new
FNDA:10,_RNvMs0_NtCsgHt304caEPG_16lb_observability6probesNtB5_13ProbeRegistry5state
FNDA:2,_RNvMs0_NtCsgHt304caEPG_16lb_observability6probesNtB5_13ProbeRegistry6shared
FNDA:3,_RNvMs0_NtCsgHt304caEPG_16lb_observability6probesNtB5_13ProbeRegistry7is_live
FNDA:3,_RNvMs0_NtCsgHt304caEPG_16lb_observability6probesNtB5_13ProbeRegistry8is_ready
FNDA:5,_RNvMs0_NtCsgHt304caEPG_16lb_observability6probesNtB5_13ProbeRegistry9set_ready
FNF:17
FNH:16
DA:40,17
DA:41,17
DA:42,17
DA:44,26
DA:45,26
DA:46,8
DA:47,10
DA:48,8
DA:50,26
DA:54,15
DA:55,15
DA:56,4
DA:57,5
DA:58,6
DA:60,15
DA:75,0
DA:76,0
DA:77,0
DA:83,8
DA:84,8
DA:85,8
DA:86,8
DA:87,8
DA:92,4
DA:93,4
DA:94,4
DA:98,26
DA:99,26
DA:100,26
DA:105,7
DA:108,7
DA:109,7
DA:110,7
DA:111,7
DA:112,7
DA:113,7
DA:114,7
DA:118,3
DA:119,3
DA:120,3
DA:121,3
DA:125,3
DA:126,3
DA:127,3
DA:132,8
DA:136,8
DA:137,8
DA:143,6
DA:144,6
DA:145,6
DA:153,1
DA:154,1
DA:155,1
DA:156,1
DA:157,1
DA:158,1
DA:159,1
DA:162,1
DA:163,1
DA:164,1
DA:165,1
DA:166,1
DA:167,1
DA:168,1
DA:169,1
DA:172,1
DA:173,1
DA:174,1
DA:175,1
DA:176,1
DA:177,1
DA:178,1
DA:179,1
DA:180,1
DA:183,1
DA:184,1
DA:185,1
DA:186,1
DA:187,1
DA:188,1
DA:189,1
DA:191,0
DA:193,1
DA:196,1
DA:198,1
DA:199,1
DA:200,1
DA:201,1
BRF:0
BRH:0
LF:88
LH:84
end_of_record
SF:/home/ubuntu/Code/ExpressGateway/.claude/worktrees/s36-verify/crates/lb-observability/src/prometheus_exposition.rs
FN:33,_RNCNvNtCs5GE8Mj9sQ3x_16lb_observability21prometheus_exposition11render_text0B5_
FN:22,_RNvNtCs5GE8Mj9sQ3x_16lb_observability21prometheus_exposition11render_text
FN:33,_RNCNvNtCsgHt304caEPG_16lb_observability21prometheus_exposition11render_text0B5_
FN:92,_RNCNvNtNtCsgHt304caEPG_16lb_observability21prometheus_exposition5testss_44exposition_text_parses_as_openmetrics_subset0B7_
FN:44,_RNvNtNtCsgHt304caEPG_16lb_observability21prometheus_exposition5testss_27renders_help_and_type_lines
FN:55,_RNvNtNtCsgHt304caEPG_16lb_observability21prometheus_exposition5testss_33renders_histogram_buckets_and_sum
FN:68,_RNvNtNtCsgHt304caEPG_16lb_observability21prometheus_exposition5testss_35empty_registry_renders_empty_string
FN:75,_RNvNtNtCsgHt304caEPG_16lb_observability21prometheus_exposition5testss_44exposition_text_parses_as_openmetrics_subset
FN:22,_RNvNtCsgHt304caEPG_16lb_observability21prometheus_exposition11render_text
FNDA:0,_RNCNvNtCs5GE8Mj9sQ3x_16lb_observability21prometheus_exposition11render_text0B5_
FNDA:7,_RNvNtCs5GE8Mj9sQ3x_16lb_observability21prometheus_exposition11render_text
FNDA:0,_RNCNvNtCsgHt304caEPG_16lb_observability21prometheus_exposition11render_text0B5_
FNDA:3,_RNCNvNtNtCsgHt304caEPG_16lb_observability21prometheus_exposition5testss_44exposition_text_parses_as_openmetrics_subset0B7_
FNDA:1,_RNvNtNtCsgHt304caEPG_16lb_observability21prometheus_exposition5testss_27renders_help_and_type_lines
FNDA:1,_RNvNtNtCsgHt304caEPG_16lb_observability21prometheus_exposition5testss_33renders_histogram_buckets_and_sum
FNDA:1,_RNvNtNtCsgHt304caEPG_16lb_observability21prometheus_exposition5testss_35empty_registry_renders_empty_string
FNDA:1,_RNvNtNtCsgHt304caEPG_16lb_observability21prometheus_exposition5testss_44exposition_text_parses_as_openmetrics_subset
FNDA:5,_RNvNtCsgHt304caEPG_16lb_observability21prometheus_exposition11render_text
FNF:7
FNH:6
DA:22,12
DA:23,12
DA:24,12
DA:25,12
DA:29,12
DA:30,0
DA:31,0
DA:32,12
DA:33,12
DA:34,0
DA:35,0
DA:36,0
DA:37,12
DA:44,1
DA:45,1
DA:46,1
DA:47,1
DA:48,1
DA:49,1
DA:50,1
DA:51,1
DA:52,1
DA:55,1
DA:56,1
DA:57,1
DA:58,1
DA:59,1
DA:60,1
DA:61,1
DA:62,1
DA:63,1
DA:64,1
DA:65,1
DA:68,1
DA:69,1
DA:70,1
DA:71,1
DA:72,1
DA:75,1
DA:76,1
DA:77,1
DA:78,1
DA:79,1
DA:80,6
DA:81,6
DA:82,0
DA:83,6
DA:84,6
DA:85,2
DA:86,2
DA:87,4
DA:88,4
DA:89,2
DA:90,2
DA:91,2
DA:92,3
DA:93,0
DA:95,2
DA:96,2
DA:98,2
DA:100,1
BRF:0
BRH:0
LF:63
LH:55
end_of_record
SF:/home/ubuntu/Code/ExpressGateway/.claude/worktrees/s36-verify/crates/lb-observability/src/quic_h3_recycle_metrics.rs
FN:58,_RNvMNtCs5GE8Mj9sQ3x_16lb_observability23quic_h3_recycle_metricsNtB2_20QuicH3RecycleMetrics8register
FN:58,_RNvMNtCsgHt304caEPG_16lb_observability23quic_h3_recycle_metricsNtB2_20QuicH3RecycleMetrics8register
FN:87,_RNvNtNtCsgHt304caEPG_16lb_observability23quic_h3_recycle_metrics5testss_22register_is_idempotent
FN:79,_RNvNtNtCsgHt304caEPG_16lb_observability23quic_h3_recycle_metrics5testss_35register_seeds_all_families_at_zero
FNDA:4,_RNvMNtCs5GE8Mj9sQ3x_16lb_observability23quic_h3_recycle_metricsNtB2_20QuicH3RecycleMetrics8register
FNDA:3,_RNvMNtCsgHt304caEPG_16lb_observability23quic_h3_recycle_metricsNtB2_20QuicH3RecycleMetrics8register
FNDA:1,_RNvNtNtCsgHt304caEPG_16lb_observability23quic_h3_recycle_metrics5testss_22register_is_idempotent
FNDA:1,_RNvNtNtCsgHt304caEPG_16lb_observability23quic_h3_recycle_metrics5testss_35register_seeds_all_families_at_zero
FNF:3
FNH:3
DA:58,7
DA:59,7
DA:60,7
DA:61,7
DA:62,0
DA:63,7
DA:64,7
DA:65,7
DA:66,0
DA:67,7
DA:68,7
DA:69,7
DA:70,7
DA:71,7
DA:79,1
DA:80,1
DA:81,1
DA:82,1
DA:83,1
DA:84,1
DA:87,1
DA:88,1
DA:89,1
DA:90,1
DA:93,1
DA:94,1
DA:95,1
BRF:0
BRH:0
LF:27
LH:25
end_of_record
SF:/home/ubuntu/Code/ExpressGateway/.claude/worktrees/s36-verify/crates/lb-observability/src/quic_modeb_metrics.rs
FN:61,_RNvMNtCsgHt304caEPG_16lb_observability18quic_modeb_metricsNtB2_16QuicModeBMetrics8register
FN:102,_RNvNtNtCsgHt304caEPG_16lb_observability18quic_modeb_metrics5testss_22register_is_idempotent
FN:92,_RNvNtNtCsgHt304caEPG_16lb_observability18quic_modeb_metrics5testss_35register_seeds_all_families_at_zero
FN:61,_RNvMNtCs5GE8Mj9sQ3x_16lb_observability18quic_modeb_metricsNtB2_16QuicModeBMetrics8register
FNDA:3,_RNvMNtCsgHt304caEPG_16lb_observability18quic_modeb_metricsNtB2_16QuicModeBMetrics8register
FNDA:1,_RNvNtNtCsgHt304caEPG_16lb_observability18quic_modeb_metrics5testss_22register_is_idempotent
FNDA:1,_RNvNtNtCsgHt304caEPG_16lb_observability18quic_modeb_metrics5testss_35register_seeds_all_families_at_zero
FNDA:3,_RNvMNtCs5GE8Mj9sQ3x_16lb_observability18quic_modeb_metricsNtB2_16QuicModeBMetrics8register
FNF:3
FNH:3
DA:61,6
DA:62,6
DA:63,6
DA:64,6
DA:65,0
DA:66,6
DA:67,6
DA:68,6
DA:69,0
DA:70,6
DA:71,6
DA:72,6
DA:73,0
DA:74,6
DA:75,6
DA:76,6
DA:77,0
DA:78,6
DA:79,6
DA:80,6
DA:81,6
DA:82,6
DA:83,6
DA:84,6
DA:92,1
DA:93,1
DA:94,1
DA:95,1
DA:96,1
DA:97,1
DA:98,1
DA:99,1
DA:102,1
DA:103,1
DA:104,1
DA:105,1
DA:108,1
DA:109,1
DA:110,1
BRF:0
BRH:0
LF:39
LH:35
end_of_record
SF:/home/ubuntu/Code/ExpressGateway/.claude/worktrees/s36-verify/crates/lb-observability/src/tracing_propagation.rs
FN:157,_RNCNvNtCs5GE8Mj9sQ3x_16lb_observability19tracing_propagation17parse_traceparent0B5_
FN:166,_RNCNvNtCs5GE8Mj9sQ3x_16lb_observability19tracing_propagation17parse_traceparents_0B5_
FN:239,_RINvNtCs5GE8Mj9sQ3x_16lb_observability19tracing_propagation11inject_intopEB4_
FN:210,_RINvNtCs5GE8Mj9sQ3x_16lb_observability19tracing_propagation14extract_parentpEB4_
FN:214,_RNCINvNtCs5GE8Mj9sQ3x_16lb_observability19tracing_propagation14extract_parentpE0B6_
FN:239,_RINvNtCsgHt304caEPG_16lb_observability19tracing_propagation11inject_intoNtNtB2_5tests11TestHeadersEB4_
FN:210,_RINvNtCsgHt304caEPG_16lb_observability19tracing_propagation14extract_parentNtNtB2_5tests11TestHeadersEB4_
FN:214,_RNCINvNtCsgHt304caEPG_16lb_observability19tracing_propagation14extract_parentNtNtB4_5tests11TestHeadersE0B6_
FN:157,_RNCNvNtCsgHt304caEPG_16lb_observability19tracing_propagation17parse_traceparent0B5_
FN:166,_RNCNvNtCsgHt304caEPG_16lb_observability19tracing_propagation17parse_traceparents_0B5_
FN:326,_RNvNtNtCsgHt304caEPG_16lb_observability19tracing_propagation5testss_23roundtrip_encode_decode
FN:376,_RNvNtNtCsgHt304caEPG_16lb_observability19tracing_propagation5testss_26span_name_format_is_locked
FN:294,_RNvNtNtCsgHt304caEPG_16lb_observability19tracing_propagation5testss_27parse_canonical_traceparent
FN:333,_RNvNtNtCsgHt304caEPG_16lb_observability19tracing_propagation5testss_29extract_and_inject_round_trip
FN:359,_RNvNtNtCsgHt304caEPG_16lb_observability19tracing_propagation5testss_30tracestate_overlong_is_dropped
FN:386,_RNvNtNtCsgHt304caEPG_16lb_observability19tracing_propagation5testss_33otlp_disabled_keeps_sampler_ratio
FN:304,_RNvNtNtCsgHt304caEPG_16lb_observability19tracing_propagation5testss_34rejects_invalid_traceparent_shapes
FN:282,_RNvXNtNtCsgHt304caEPG_16lb_observability19tracing_propagation5testsNtB2_11TestHeadersNtB4_9HeaderBag6append
FN:288,_RNvXNtNtCsgHt304caEPG_16lb_observability19tracing_propagation5testsNtB2_11TestHeadersNtB4_9HeaderBag6remove
FN:276,_RNvXNtNtCsgHt304caEPG_16lb_observability19tracing_propagation5testsNtB2_11TestHeadersNtB4_9HeaderBag9get_first
FN:53,_RNvMNtCsgHt304caEPG_16lb_observability19tracing_propagationNtB2_10OtlpConfig8disabled
FN:76,_RNvMs_NtCsgHt304caEPG_16lb_observability19tracing_propagationNtB4_12TraceContext7sampled
FN:83,_RNvMs_NtCsgHt304caEPG_16lb_observability19tracing_propagationNtB4_12TraceContext9to_header
FN:103,_RNvNtCsgHt304caEPG_16lb_observability19tracing_propagation10hex_nibble
FN:177,_RNvNtCsgHt304caEPG_16lb_observability19tracing_propagation15decode_hex_byte
FN:183,_RNvNtCsgHt304caEPG_16lb_observability19tracing_propagation17decode_hex_nibble
FN:129,_RNvNtCsgHt304caEPG_16lb_observability19tracing_propagation17parse_traceparent
FN:262,_RNvNtCsgHt304caEPG_16lb_observability19tracing_propagation9span_name
FN:279,_RNCNvXNtNtCsgHt304caEPG_16lb_observability19tracing_propagation5testsNtB4_11TestHeadersNtB6_9HeaderBag9get_first0B8_
FN:239,_RINvNtCs5GE8Mj9sQ3x_16lb_observability19tracing_propagation11inject_intoNtCsaK0kWoYnKNL_19tracing_traceparent3BagEB1a_
FN:210,_RINvNtCs5GE8Mj9sQ3x_16lb_observability19tracing_propagation14extract_parentNtCsaK0kWoYnKNL_19tracing_traceparent3BagEB1d_
FN:214,_RNCINvNtCs5GE8Mj9sQ3x_16lb_observability19tracing_propagation14extract_parentNtCsaK0kWoYnKNL_19tracing_traceparent3BagE0B1f_
FN:53,_RNvMNtCs5GE8Mj9sQ3x_16lb_observability19tracing_propagationNtB2_10OtlpConfig8disabled
FN:76,_RNvMs_NtCs5GE8Mj9sQ3x_16lb_observability19tracing_propagationNtB4_12TraceContext7sampled
FN:83,_RNvMs_NtCs5GE8Mj9sQ3x_16lb_observability19tracing_propagationNtB4_12TraceContext9to_header
FN:103,_RNvNtCs5GE8Mj9sQ3x_16lb_observability19tracing_propagation10hex_nibble
FN:177,_RNvNtCs5GE8Mj9sQ3x_16lb_observability19tracing_propagation15decode_hex_byte
FN:183,_RNvNtCs5GE8Mj9sQ3x_16lb_observability19tracing_propagation17decode_hex_nibble
FN:129,_RNvNtCs5GE8Mj9sQ3x_16lb_observability19tracing_propagation17parse_traceparent
FN:262,_RNvNtCs5GE8Mj9sQ3x_16lb_observability19tracing_propagation9span_name
FNDA:3,_RNCNvNtCs5GE8Mj9sQ3x_16lb_observability19tracing_propagation17parse_traceparent0B5_
FNDA:3,_RNCNvNtCs5GE8Mj9sQ3x_16lb_observability19tracing_propagation17parse_traceparents_0B5_
FNDA:0,_RINvNtCs5GE8Mj9sQ3x_16lb_observability19tracing_propagation11inject_intopEB4_
FNDA:0,_RINvNtCs5GE8Mj9sQ3x_16lb_observability19tracing_propagation14extract_parentpEB4_
FNDA:0,_RNCINvNtCs5GE8Mj9sQ3x_16lb_observability19tracing_propagation14extract_parentpE0B6_
FNDA:1,_RINvNtCsgHt304caEPG_16lb_observability19tracing_propagation11inject_intoNtNtB2_5tests11TestHeadersEB4_
FNDA:2,_RINvNtCsgHt304caEPG_16lb_observability19tracing_propagation14extract_parentNtNtB2_5tests11TestHeadersEB4_
FNDA:2,_RNCINvNtCsgHt304caEPG_16lb_observability19tracing_propagation14extract_parentNtNtB4_5tests11TestHeadersE0B6_
FNDA:21,_RNCNvNtCsgHt304caEPG_16lb_observability19tracing_propagation17parse_traceparent0B5_
FNDA:12,_RNCNvNtCsgHt304caEPG_16lb_observability19tracing_propagation17parse_traceparents_0B5_
FNDA:1,_RNvNtNtCsgHt304caEPG_16lb_observability19tracing_propagation5testss_23roundtrip_encode_decode
FNDA:1,_RNvNtNtCsgHt304caEPG_16lb_observability19tracing_propagation5testss_26span_name_format_is_locked
FNDA:1,_RNvNtNtCsgHt304caEPG_16lb_observability19tracing_propagation5testss_27parse_canonical_traceparent
FNDA:1,_RNvNtNtCsgHt304caEPG_16lb_observability19tracing_propagation5testss_29extract_and_inject_round_trip
FNDA:1,_RNvNtNtCsgHt304caEPG_16lb_observability19tracing_propagation5testss_30tracestate_overlong_is_dropped
FNDA:1,_RNvNtNtCsgHt304caEPG_16lb_observability19tracing_propagation5testss_33otlp_disabled_keeps_sampler_ratio
FNDA:1,_RNvNtNtCsgHt304caEPG_16lb_observability19tracing_propagation5testss_34rejects_invalid_traceparent_shapes
FNDA:6,_RNvXNtNtCsgHt304caEPG_16lb_observability19tracing_propagation5testsNtB2_11TestHeadersNtB4_9HeaderBag6append
FNDA:2,_RNvXNtNtCsgHt304caEPG_16lb_observability19tracing_propagation5testsNtB2_11TestHeadersNtB4_9HeaderBag6remove
FNDA:6,_RNvXNtNtCsgHt304caEPG_16lb_observability19tracing_propagation5testsNtB2_11TestHeadersNtB4_9HeaderBag9get_first
FNDA:1,_RNvMNtCsgHt304caEPG_16lb_observability19tracing_propagationNtB2_10OtlpConfig8disabled
FNDA:2,_RNvMs_NtCsgHt304caEPG_16lb_observability19tracing_propagationNtB4_12TraceContext7sampled
FNDA:2,_RNvMs_NtCsgHt304caEPG_16lb_observability19tracing_propagationNtB4_12TraceContext9to_header
FNDA:100,_RNvNtCsgHt304caEPG_16lb_observability19tracing_propagation10hex_nibble
FNDA:147,_RNvNtCsgHt304caEPG_16lb_observability19tracing_propagation15decode_hex_byte
FNDA:294,_RNvNtCsgHt304caEPG_16lb_observability19tracing_propagation17decode_hex_nibble
FNDA:10,_RNvNtCsgHt304caEPG_16lb_observability19tracing_propagation17parse_traceparent
FNDA:2,_RNvNtCsgHt304caEPG_16lb_observability19tracing_propagation9span_name
FNDA:6,_RNCNvXNtNtCsgHt304caEPG_16lb_observability19tracing_propagation5testsNtB4_11TestHeadersNtB6_9HeaderBag9get_first0B8_
FNDA:2,_RINvNtCs5GE8Mj9sQ3x_16lb_observability19tracing_propagation11inject_intoNtCsaK0kWoYnKNL_19tracing_traceparent3BagEB1a_
FNDA:1,_RINvNtCs5GE8Mj9sQ3x_16lb_observability19tracing_propagation14extract_parentNtCsaK0kWoYnKNL_19tracing_traceparent3BagEB1d_
FNDA:1,_RNCINvNtCs5GE8Mj9sQ3x_16lb_observability19tracing_propagation14extract_parentNtCsaK0kWoYnKNL_19tracing_traceparent3BagE0B1f_
FNDA:0,_RNvMNtCs5GE8Mj9sQ3x_16lb_observability19tracing_propagationNtB2_10OtlpConfig8disabled
FNDA:1,_RNvMs_NtCs5GE8Mj9sQ3x_16lb_observability19tracing_propagationNtB4_12TraceContext7sampled
FNDA:2,_RNvMs_NtCs5GE8Mj9sQ3x_16lb_observability19tracing_propagationNtB4_12TraceContext9to_header
FNDA:100,_RNvNtCs5GE8Mj9sQ3x_16lb_observability19tracing_propagation10hex_nibble
FNDA:78,_RNvNtCs5GE8Mj9sQ3x_16lb_observability19tracing_propagation15decode_hex_byte
FNDA:156,_RNvNtCs5GE8Mj9sQ3x_16lb_observability19tracing_propagation17decode_hex_nibble
FNDA:3,_RNvNtCs5GE8Mj9sQ3x_16lb_observability19tracing_propagation17parse_traceparent
FNDA:4,_RNvNtCs5GE8Mj9sQ3x_16lb_observability19tracing_propagation9span_name
FNF:24
FNH:24
DA:53,1
DA:54,1
DA:55,1
DA:56,1
DA:57,1
DA:58,1
DA:76,3
DA:77,3
DA:78,3
DA:83,4
DA:84,4
DA:85,4
DA:86,68
DA:87,64
DA:88,64
DA:89,64
DA:90,64
DA:91,4
DA:92,36
DA:93,32
DA:94,32
DA:95,32
DA:96,4
DA:97,4
DA:98,4
DA:99,4
DA:100,4
DA:103,200
DA:104,200
DA:105,23
DA:106,30
DA:107,7
DA:108,17
DA:109,12
DA:110,4
DA:111,14
DA:112,10
DA:113,12
DA:114,11
DA:115,7
DA:116,10
DA:117,14
DA:118,16
DA:119,7
DA:120,6
DA:122,200
DA:129,13
DA:131,13
DA:132,2
DA:133,11
DA:134,11
DA:138,11
DA:139,1
DA:140,10
DA:141,10
DA:142,10
DA:144,1
DA:145,9
DA:146,9
DA:149,0
DA:150,9
DA:151,9
DA:152,144
DA:153,144
DA:154,144
DA:155,0
DA:157,24
DA:158,1
DA:159,8
DA:160,8
DA:161,64
DA:162,64
DA:163,64
DA:164,0
DA:166,15
DA:167,1
DA:168,7
DA:169,7
DA:170,7
DA:171,7
DA:172,7
DA:173,7
DA:174,7
DA:175,13
DA:177,225
DA:178,225
DA:179,225
DA:180,225
DA:181,225
DA:183,450
DA:184,450
DA:185,450
DA:186,110
DA:187,0
DA:188,0
DA:190,450
DA:210,3
DA:211,3
DA:212,3
DA:213,3
DA:214,3
DA:215,3
DA:216,3
DA:217,3
DA:218,3
DA:219,3
DA:220,3
DA:221,3
DA:239,3
DA:240,3
DA:241,3
DA:242,3
DA:243,3
DA:244,3
DA:245,3
DA:246,3
DA:247,2
DA:248,2
DA:249,2
DA:250,2
DA:251,1
DA:252,3
DA:262,6
DA:263,6
DA:264,6
DA:276,6
DA:277,6
DA:278,6
DA:279,6
DA:280,6
DA:281,6
DA:282,6
DA:283,6
DA:284,6
DA:285,6
DA:286,6
DA:287,6
DA:288,2
DA:289,2
DA:290,2
DA:294,1
DA:295,1
DA:296,1
DA:297,1
DA:298,1
DA:300,1
DA:301,1
DA:304,1
DA:305,1
DA:306,1
DA:308,1
DA:309,1
DA:312,1
DA:313,1
DA:316,1
DA:317,1
DA:320,1
DA:321,1
DA:323,1
DA:326,1
DA:327,1
DA:328,1
DA:329,1
DA:330,1
DA:333,1
DA:334,1
DA:335,1
DA:336,1
DA:337,1
DA:339,1
DA:341,1
DA:342,1
DA:343,1
DA:344,1
DA:346,1
DA:347,1
DA:348,1
DA:349,1
DA:352,1
DA:353,1
DA:356,1
DA:359,1
DA:360,1
DA:361,1
DA:362,1
DA:363,1
DA:364,1
DA:365,1
DA:367,1
DA:370,1
DA:372,1
DA:373,1
DA:376,1
DA:377,1
DA:378,1
DA:379,1
DA:381,0
DA:383,1
DA:386,1
DA:387,1
DA:388,1
DA:389,1
DA:390,1
BRF:0
BRH:0
LF:207
LH:201
end_of_record
SF:/home/ubuntu/Code/ExpressGateway/.claude/worktrees/s36-verify/crates/lb-observability/src/xdp_metrics.rs
FN:226,_RNvNtCs5GE8Mj9sQ3x_16lb_observability11xdp_metrics17__gauge_vec_anchor
FN:226,_RNvNtCsgHt304caEPG_16lb_observability11xdp_metrics17__gauge_vec_anchor
FN:56,_RNvMNtCsgHt304caEPG_16lb_observability11xdp_metricsNtB2_10XdpMetrics8register
FN:203,_RNvMs0_NtCsgHt304caEPG_16lb_observability11xdp_metricsNtB5_15ConntrackFamily6as_str
FN:135,_RNvMs_NtCsgHt304caEPG_16lb_observability11xdp_metricsNtB4_15SamplerBaseline5delta
FN:99,_RNvNtCsgHt304caEPG_16lb_observability11xdp_metrics16stat_slot_labels
FN:175,_RNvNtCsgHt304caEPG_16lb_observability11xdp_metrics17set_attached_mode
FN:161,_RNvNtCsgHt304caEPG_16lb_observability11xdp_metrics19apply_packet_deltas
FN:184,_RNvNtCsgHt304caEPG_16lb_observability11xdp_metrics21record_conntrack_full
FN:260,_RNvNtNtCsgHt304caEPG_16lb_observability11xdp_metrics5testss_22delta_emits_increments
FN:252,_RNvNtNtCsgHt304caEPG_16lb_observability11xdp_metrics5testss_24delta_first_tick_is_zero
FN:304,_RNvNtNtCsgHt304caEPG_16lb_observability11xdp_metrics5testss_25set_attached_mode_one_hot
FN:270,_RNvNtNtCsgHt304caEPG_16lb_observability11xdp_metrics5testss_27delta_handles_counter_reset
FN:323,_RNvNtNtCsgHt304caEPG_16lb_observability11xdp_metrics5testss_34record_conntrack_full_bumps_family
FN:233,_RNvNtNtCsgHt304caEPG_16lb_observability11xdp_metrics5testss_34register_pre_seeds_all_label_slots
FN:283,_RNvNtNtCsgHt304caEPG_16lb_observability11xdp_metrics5testss_35apply_packet_deltas_updates_counter
FN:56,_RNvMNtCs5GE8Mj9sQ3x_16lb_observability11xdp_metricsNtB2_10XdpMetrics8register
FN:203,_RNvMs0_NtCs5GE8Mj9sQ3x_16lb_observability11xdp_metricsNtB5_15ConntrackFamily6as_str
FN:135,_RNvMs_NtCs5GE8Mj9sQ3x_16lb_observability11xdp_metricsNtB4_15SamplerBaseline5delta
FN:99,_RNvNtCs5GE8Mj9sQ3x_16lb_observability11xdp_metrics16stat_slot_labels
FN:175,_RNvNtCs5GE8Mj9sQ3x_16lb_observability11xdp_metrics17set_attached_mode
FN:161,_RNvNtCs5GE8Mj9sQ3x_16lb_observability11xdp_metrics19apply_packet_deltas
FN:184,_RNvNtCs5GE8Mj9sQ3x_16lb_observability11xdp_metrics21record_conntrack_full
FNDA:0,_RNvNtCs5GE8Mj9sQ3x_16lb_observability11xdp_metrics17__gauge_vec_anchor
FNDA:0,_RNvNtCsgHt304caEPG_16lb_observability11xdp_metrics17__gauge_vec_anchor
FNDA:4,_RNvMNtCsgHt304caEPG_16lb_observability11xdp_metricsNtB2_10XdpMetrics8register
FNDA:1,_RNvMs0_NtCsgHt304caEPG_16lb_observability11xdp_metricsNtB5_15ConntrackFamily6as_str
FNDA:4,_RNvMs_NtCsgHt304caEPG_16lb_observability11xdp_metricsNtB4_15SamplerBaseline5delta
FNDA:7,_RNvNtCsgHt304caEPG_16lb_observability11xdp_metrics16stat_slot_labels
FNDA:3,_RNvNtCsgHt304caEPG_16lb_observability11xdp_metrics17set_attached_mode
FNDA:1,_RNvNtCsgHt304caEPG_16lb_observability11xdp_metrics19apply_packet_deltas
FNDA:1,_RNvNtCsgHt304caEPG_16lb_observability11xdp_metrics21record_conntrack_full
FNDA:1,_RNvNtNtCsgHt304caEPG_16lb_observability11xdp_metrics5testss_22delta_emits_increments
FNDA:1,_RNvNtNtCsgHt304caEPG_16lb_observability11xdp_metrics5testss_24delta_first_tick_is_zero
FNDA:1,_RNvNtNtCsgHt304caEPG_16lb_observability11xdp_metrics5testss_25set_attached_mode_one_hot
FNDA:1,_RNvNtNtCsgHt304caEPG_16lb_observability11xdp_metrics5testss_27delta_handles_counter_reset
FNDA:1,_RNvNtNtCsgHt304caEPG_16lb_observability11xdp_metrics5testss_34record_conntrack_full_bumps_family
FNDA:1,_RNvNtNtCsgHt304caEPG_16lb_observability11xdp_metrics5testss_34register_pre_seeds_all_label_slots
FNDA:1,_RNvNtNtCsgHt304caEPG_16lb_observability11xdp_metrics5testss_35apply_packet_deltas_updates_counter
FNDA:5,_RNvMNtCs5GE8Mj9sQ3x_16lb_observability11xdp_metricsNtB2_10XdpMetrics8register
FNDA:7,_RNvMs0_NtCs5GE8Mj9sQ3x_16lb_observability11xdp_metricsNtB5_15ConntrackFamily6as_str
FNDA:0,_RNvMs_NtCs5GE8Mj9sQ3x_16lb_observability11xdp_metricsNtB4_15SamplerBaseline5delta
FNDA:8,_RNvNtCs5GE8Mj9sQ3x_16lb_observability11xdp_metrics16stat_slot_labels
FNDA:0,_RNvNtCs5GE8Mj9sQ3x_16lb_observability11xdp_metrics17set_attached_mode
FNDA:1,_RNvNtCs5GE8Mj9sQ3x_16lb_observability11xdp_metrics19apply_packet_deltas
FNDA:7,_RNvNtCs5GE8Mj9sQ3x_16lb_observability11xdp_metrics21record_conntrack_full
FNF:15
FNH:14
DA:56,9
DA:57,9
DA:58,9
DA:59,9
DA:60,9
DA:61,0
DA:62,9
DA:63,9
DA:64,9
DA:65,9
DA:66,0
DA:67,9
DA:68,9
DA:69,9
DA:70,0
DA:71,9
DA:72,9
DA:73,9
DA:74,9
DA:75,0
DA:79,9
DA:80,9
DA:81,27
DA:82,27
DA:83,27
DA:84,144
DA:85,144
DA:86,144
DA:87,9
DA:88,9
DA:89,9
DA:90,9
DA:91,9
DA:92,9
DA:93,9
DA:99,15
DA:100,15
DA:101,15
DA:102,15
DA:103,15
DA:104,15
DA:105,15
DA:106,15
DA:107,15
DA:108,15
DA:109,15
DA:110,15
DA:111,15
DA:112,15
DA:113,15
DA:114,15
DA:115,15
DA:116,15
DA:117,15
DA:118,15
DA:135,4
DA:136,4
DA:139,1
DA:140,1
DA:141,3
DA:142,3
DA:143,7
DA:144,7
DA:145,7
DA:146,7
DA:147,7
DA:148,7
DA:149,7
DA:150,7
DA:153,3
DA:154,3
DA:155,4
DA:161,2
DA:162,2
DA:163,32
DA:164,32
DA:165,13
DA:166,19
DA:167,19
DA:168,19
DA:169,19
DA:171,2
DA:175,3
DA:176,9
DA:177,9
DA:178,9
DA:180,3
DA:184,8
DA:185,8
DA:186,8
DA:187,8
DA:188,8
DA:189,8
DA:203,8
DA:204,8
DA:205,7
DA:206,1
DA:208,8
DA:226,0
DA:233,1
DA:234,1
DA:235,1
DA:237,1
DA:238,1
DA:240,1
DA:242,16
DA:243,16
DA:244,16
DA:246,0
DA:249,1
DA:252,1
DA:253,1
DA:254,1
DA:255,1
DA:256,1
DA:257,1
DA:260,1
DA:261,1
DA:262,1
DA:263,1
DA:264,1
DA:265,1
DA:266,1
DA:267,1
DA:270,1
DA:271,1
DA:272,1
DA:273,1
DA:275,1
DA:276,1
DA:278,1
DA:279,1
DA:280,1
DA:283,1
DA:284,1
DA:285,1
DA:286,1
DA:288,1
DA:289,1
DA:290,1
DA:291,1
DA:292,1
DA:293,1
DA:294,1
DA:295,1
DA:296,1
DA:297,1
DA:298,1
DA:299,1
DA:300,1
DA:301,1
DA:304,1
DA:305,1
DA:306,1
DA:307,1
DA:308,1
DA:309,1
DA:310,1
DA:312,1
DA:313,1
DA:314,1
DA:316,1
DA:317,3
DA:318,3
DA:320,1
DA:323,1
DA:324,1
DA:325,1
DA:326,1
DA:327,1
DA:328,1
DA:329,1
BRF:0
BRH:0
LF:172
LH:166
end_of_record
SF:/home/ubuntu/Code/ExpressGateway/.claude/worktrees/s36-verify/crates/lb-quic/src/cleanup_guard.rs
FN:68,_RNvXs_NtCs7RDJCKiF9ex_7lb_quic13cleanup_guardINtB4_13CidEntryGuardINtNtCsaFPxhswmqCN_5alloc3vec3VechEINtNtNtNtCsfJ9qyBeLJna_5tokio4sync4mpsc7bounded6SenderNtNtB6_10conn_actor13InboundPacketEENtNtNtCs1p5UDGgVI4d_4core3ops4drop4Drop4dropB6_
FN:59,_RNvMNtCs7RDJCKiF9ex_7lb_quic13cleanup_guardINtB2_13CidEntryGuardppE6disarmB4_
FN:50,_RNvMNtCs7RDJCKiF9ex_7lb_quic13cleanup_guardINtB2_13CidEntryGuardINtNtCsaFPxhswmqCN_5alloc3vec3VechEINtNtNtNtCsfJ9qyBeLJna_5tokio4sync4mpsc7bounded6SenderNtNtB4_10conn_actor13InboundPacketEE3newB4_
FN:59,_RNvMNtCs48r2xzLZq6T_7lb_quic13cleanup_guardINtB2_13CidEntryGuardppE6disarmB4_
FN:50,_RNvMNtCs48r2xzLZq6T_7lb_quic13cleanup_guardINtB2_13CidEntryGuardINtNtCsaFPxhswmqCN_5alloc3vec3VechEINtNtNtNtCsfJ9qyBeLJna_5tokio4sync4mpsc7bounded6SenderNtNtB4_10conn_actor13InboundPacketEE3newB4_
FN:68,_RNvXs_NtCs48r2xzLZq6T_7lb_quic13cleanup_guardINtB4_13CidEntryGuardINtNtCsaFPxhswmqCN_5alloc3vec3VechEINtNtNtNtCsfJ9qyBeLJna_5tokio4sync4mpsc7bounded6SenderNtNtB6_10conn_actor13InboundPacketEENtNtNtCs1p5UDGgVI4d_4core3ops4drop4Drop4dropB6_
FN:68,_RNvXs_NtCs7RDJCKiF9ex_7lb_quic13cleanup_guardINtB4_13CidEntryGuardINtNtCsaFPxhswmqCN_5alloc3vec3VechEuENtNtNtCs1p5UDGgVI4d_4core3ops4drop4Drop4dropCs5MGiip4b47O_16quic_router_leak
FN:50,_RNvMNtCs7RDJCKiF9ex_7lb_quic13cleanup_guardINtB2_13CidEntryGuardINtNtCsaFPxhswmqCN_5alloc3vec3VechEuE3newCs5MGiip4b47O_16quic_router_leak
FNDA:267,_RNvXs_NtCs7RDJCKiF9ex_7lb_quic13cleanup_guardINtB4_13CidEntryGuardINtNtCsaFPxhswmqCN_5alloc3vec3VechEINtNtNtNtCsfJ9qyBeLJna_5tokio4sync4mpsc7bounded6SenderNtNtB6_10conn_actor13InboundPacketEENtNtNtCs1p5UDGgVI4d_4core3ops4drop4Drop4dropB6_
FNDA:0,_RNvMNtCs7RDJCKiF9ex_7lb_quic13cleanup_guardINtB2_13CidEntryGuardppE6disarmB4_
FNDA:267,_RNvMNtCs7RDJCKiF9ex_7lb_quic13cleanup_guardINtB2_13CidEntryGuardINtNtCsaFPxhswmqCN_5alloc3vec3VechEINtNtNtNtCsfJ9qyBeLJna_5tokio4sync4mpsc7bounded6SenderNtNtB4_10conn_actor13InboundPacketEE3newB4_
FNDA:0,_RNvMNtCs48r2xzLZq6T_7lb_quic13cleanup_guardINtB2_13CidEntryGuardppE6disarmB4_
FNDA:4,_RNvMNtCs48r2xzLZq6T_7lb_quic13cleanup_guardINtB2_13CidEntryGuardINtNtCsaFPxhswmqCN_5alloc3vec3VechEINtNtNtNtCsfJ9qyBeLJna_5tokio4sync4mpsc7bounded6SenderNtNtB4_10conn_actor13InboundPacketEE3newB4_
FNDA:4,_RNvXs_NtCs48r2xzLZq6T_7lb_quic13cleanup_guardINtB4_13CidEntryGuardINtNtCsaFPxhswmqCN_5alloc3vec3VechEINtNtNtNtCsfJ9qyBeLJna_5tokio4sync4mpsc7bounded6SenderNtNtB6_10conn_actor13InboundPacketEENtNtNtCs1p5UDGgVI4d_4core3ops4drop4Drop4dropB6_
FNDA:3,_RNvXs_NtCs7RDJCKiF9ex_7lb_quic13cleanup_guardINtB4_13CidEntryGuardINtNtCsaFPxhswmqCN_5alloc3vec3VechEuENtNtNtCs1p5UDGgVI4d_4core3ops4drop4Drop4dropCs5MGiip4b47O_16quic_router_leak
FNDA:3,_RNvMNtCs7RDJCKiF9ex_7lb_quic13cleanup_guardINtB2_13CidEntryGuardINtNtCsaFPxhswmqCN_5alloc3vec3VechEuE3newCs5MGiip4b47O_16quic_router_leak
FNF:3
FNH:2
DA:50,274
DA:51,274
DA:52,274
DA:53,274
DA:54,274
DA:55,274
DA:59,0
DA:60,0
DA:61,0
DA:68,274
DA:69,822
DA:70,548
DA:71,548
DA:72,548
DA:73,548
DA:74,548
DA:75,548
DA:77,274
BRF:0
BRH:0
LF:18
LH:15
end_of_record
SF:/home/ubuntu/Code/ExpressGateway/.claude/worktrees/s36-verify/crates/lb-quic/src/conn_actor.rs
FN:784,_RNvMNtCs7RDJCKiF9ex_7lb_quic10conn_actorNtB2_8StreamTx11progressive
FN:1908,_RNvNtCs7RDJCKiF9ex_7lb_quic10conn_actor11ws_teardown
FN:1682,_RNvNtCs7RDJCKiF9ex_7lb_quic10conn_actor14select_backend
FN:1112,_RNvNtCs7RDJCKiF9ex_7lb_quic10conn_actor15drain_conn_send
FN:1935,_RNvNtCs7RDJCKiF9ex_7lb_quic10conn_actor15pump_ws_tunnels
FN:1039,_RNvNtCs7RDJCKiF9ex_7lb_quic10conn_actor15reset_h3_stream
FN:1731,_RNvNtCs7RDJCKiF9ex_7lb_quic10conn_actor15setup_ws_tunnel
FN:1821,_RNvNtCs7RDJCKiF9ex_7lb_quic10conn_actor16ws_drain_inbound
FN:1156,_RNvNtCs7RDJCKiF9ex_7lb_quic10conn_actor18drain_request_body
FN:622,_RNvNtCs7RDJCKiF9ex_7lb_quic10conn_actor19drain_resp_channels
FN:1667,_RNvNtCs7RDJCKiF9ex_7lb_quic10conn_actor19record_req_retained
FN:987,_RNvNtCs7RDJCKiF9ex_7lb_quic10conn_actor20graceful_h3_shutdown
FN:1865,_RNvNtCs7RDJCKiF9ex_7lb_quic10conn_actor20ws_handle_client_fin
FN:805,_RNvNtCs7RDJCKiF9ex_7lb_quic10conn_actor21drain_streams_to_conn
FN:1895,_RNvNtCs7RDJCKiF9ex_7lb_quic10conn_actor22ws_handle_client_reset
FN:1072,_RNvNtCs7RDJCKiF9ex_7lb_quic10conn_actor23try_send_pending_goaway
FN:1694,_RNvNtCs7RDJCKiF9ex_7lb_quic10conn_actor24spawn_inline_h3_response
FN:575,_RNvNtCs7RDJCKiF9ex_7lb_quic10conn_actor31reap_client_cancelled_responses
FN:1235,_RNvNtCs7RDJCKiF9ex_7lb_quic10conn_actor7poll_h3
FN:296,_RNvNtCs7RDJCKiF9ex_7lb_quic10conn_actor9run_actor
FN:444,_RNCNCNvNtCs7RDJCKiF9ex_7lb_quic10conn_actor9run_actor00B7_
FN:520,_RNCNCNvNtCs7RDJCKiF9ex_7lb_quic10conn_actor9run_actor0s_0B7_
FN:1116,_RNCNvNtCs7RDJCKiF9ex_7lb_quic10conn_actor15drain_conn_send0B5_
FN:1781,_RNCNvNtCs7RDJCKiF9ex_7lb_quic10conn_actor15setup_ws_tunnel0B5_
FN:1782,_RNCNvNtCs7RDJCKiF9ex_7lb_quic10conn_actor15setup_ws_tunnels_0B5_
FN:711,_RNCNvNtCs7RDJCKiF9ex_7lb_quic10conn_actor19drain_resp_channels0B5_
FN:713,_RNCNvNtCs7RDJCKiF9ex_7lb_quic10conn_actor19drain_resp_channelss_0B5_
FN:1674,_RNCNvNtCs7RDJCKiF9ex_7lb_quic10conn_actor19record_req_retained0B5_
FN:991,_RNCNvNtCs7RDJCKiF9ex_7lb_quic10conn_actor20graceful_h3_shutdown0B5_
FN:892,_RNCNvNtCs7RDJCKiF9ex_7lb_quic10conn_actor21drain_streams_to_conn0B5_
FN:958,_RNCNvNtCs7RDJCKiF9ex_7lb_quic10conn_actor21drain_streams_to_conns_0B5_
FN:1703,_RNCNvNtCs7RDJCKiF9ex_7lb_quic10conn_actor24spawn_inline_h3_response0B5_
FN:1288,_RNCNvNtCs7RDJCKiF9ex_7lb_quic10conn_actor7poll_h30B5_
FN:1440,_RNCNvNtCs7RDJCKiF9ex_7lb_quic10conn_actor7poll_h3s0_0B5_
FN:1441,_RNCNvNtCs7RDJCKiF9ex_7lb_quic10conn_actor7poll_h3s1_0B5_
FN:1467,_RNCNvNtCs7RDJCKiF9ex_7lb_quic10conn_actor7poll_h3s2_0B5_
FN:1484,_RNCNvNtCs7RDJCKiF9ex_7lb_quic10conn_actor7poll_h3s3_0B5_
FN:1502,_RNCNvNtCs7RDJCKiF9ex_7lb_quic10conn_actor7poll_h3s4_0B5_
FN:1302,_RNCNvNtCs7RDJCKiF9ex_7lb_quic10conn_actor7poll_h3s_0B5_
FN:296,_RNCNvNtCs7RDJCKiF9ex_7lb_quic10conn_actor9run_actor0B5_
FN:444,_RNCNCNvNtCs48r2xzLZq6T_7lb_quic10conn_actor9run_actor00B7_
FN:520,_RNCNCNvNtCs48r2xzLZq6T_7lb_quic10conn_actor9run_actor0s_0B7_
FN:1116,_RNCNvNtCs48r2xzLZq6T_7lb_quic10conn_actor15drain_conn_send0B5_
FN:1781,_RNCNvNtCs48r2xzLZq6T_7lb_quic10conn_actor15setup_ws_tunnel0B5_
FN:1782,_RNCNvNtCs48r2xzLZq6T_7lb_quic10conn_actor15setup_ws_tunnels_0B5_
FN:711,_RNCNvNtCs48r2xzLZq6T_7lb_quic10conn_actor19drain_resp_channels0B5_
FN:713,_RNCNvNtCs48r2xzLZq6T_7lb_quic10conn_actor19drain_resp_channelss_0B5_
FN:1674,_RNCNvNtCs48r2xzLZq6T_7lb_quic10conn_actor19record_req_retained0B5_
FN:991,_RNCNvNtCs48r2xzLZq6T_7lb_quic10conn_actor20graceful_h3_shutdown0B5_
FN:892,_RNCNvNtCs48r2xzLZq6T_7lb_quic10conn_actor21drain_streams_to_conn0B5_
FN:958,_RNCNvNtCs48r2xzLZq6T_7lb_quic10conn_actor21drain_streams_to_conns_0B5_
FN:1703,_RNCNvNtCs48r2xzLZq6T_7lb_quic10conn_actor24spawn_inline_h3_response0B5_
FN:1288,_RNCNvNtCs48r2xzLZq6T_7lb_quic10conn_actor7poll_h30B5_
FN:1440,_RNCNvNtCs48r2xzLZq6T_7lb_quic10conn_actor7poll_h3s0_0B5_
FN:1441,_RNCNvNtCs48r2xzLZq6T_7lb_quic10conn_actor7poll_h3s1_0B5_
FN:1467,_RNCNvNtCs48r2xzLZq6T_7lb_quic10conn_actor7poll_h3s2_0B5_
FN:1484,_RNCNvNtCs48r2xzLZq6T_7lb_quic10conn_actor7poll_h3s3_0B5_
FN:1502,_RNCNvNtCs48r2xzLZq6T_7lb_quic10conn_actor7poll_h3s4_0B5_
FN:1302,_RNCNvNtCs48r2xzLZq6T_7lb_quic10conn_actor7poll_h3s_0B5_
FN:296,_RNCNvNtCs48r2xzLZq6T_7lb_quic10conn_actor9run_actor0B5_
FN:784,_RNvMNtCs48r2xzLZq6T_7lb_quic10conn_actorNtB2_8StreamTx11progressive
FN:1908,_RNvNtCs48r2xzLZq6T_7lb_quic10conn_actor11ws_teardown
FN:1682,_RNvNtCs48r2xzLZq6T_7lb_quic10conn_actor14select_backend
FN:1112,_RNvNtCs48r2xzLZq6T_7lb_quic10conn_actor15drain_conn_send
FN:1935,_RNvNtCs48r2xzLZq6T_7lb_quic10conn_actor15pump_ws_tunnels
FN:1039,_RNvNtCs48r2xzLZq6T_7lb_quic10conn_actor15reset_h3_stream
FN:1731,_RNvNtCs48r2xzLZq6T_7lb_quic10conn_actor15setup_ws_tunnel
FN:1821,_RNvNtCs48r2xzLZq6T_7lb_quic10conn_actor16ws_drain_inbound
FN:1156,_RNvNtCs48r2xzLZq6T_7lb_quic10conn_actor18drain_request_body
FN:622,_RNvNtCs48r2xzLZq6T_7lb_quic10conn_actor19drain_resp_channels
FN:1667,_RNvNtCs48r2xzLZq6T_7lb_quic10conn_actor19record_req_retained
FN:987,_RNvNtCs48r2xzLZq6T_7lb_quic10conn_actor20graceful_h3_shutdown
FN:1865,_RNvNtCs48r2xzLZq6T_7lb_quic10conn_actor20ws_handle_client_fin
FN:805,_RNvNtCs48r2xzLZq6T_7lb_quic10conn_actor21drain_streams_to_conn
FN:1895,_RNvNtCs48r2xzLZq6T_7lb_quic10conn_actor22ws_handle_client_reset
FN:1072,_RNvNtCs48r2xzLZq6T_7lb_quic10conn_actor23try_send_pending_goaway
FN:1694,_RNvNtCs48r2xzLZq6T_7lb_quic10conn_actor24spawn_inline_h3_response
FN:575,_RNvNtCs48r2xzLZq6T_7lb_quic10conn_actor31reap_client_cancelled_responses
FN:1235,_RNvNtCs48r2xzLZq6T_7lb_quic10conn_actor7poll_h3
FN:296,_RNvNtCs48r2xzLZq6T_7lb_quic10conn_actor9run_actor
FNDA:274,_RNvMNtCs7RDJCKiF9ex_7lb_quic10conn_actorNtB2_8StreamTx11progressive
FNDA:0,_RNvNtCs7RDJCKiF9ex_7lb_quic10conn_actor11ws_teardown
FNDA:52,_RNvNtCs7RDJCKiF9ex_7lb_quic10conn_actor14select_backend
FNDA:601440,_RNvNtCs7RDJCKiF9ex_7lb_quic10conn_actor15drain_conn_send
FNDA:423003,_RNvNtCs7RDJCKiF9ex_7lb_quic10conn_actor15pump_ws_tunnels
FNDA:18,_RNvNtCs7RDJCKiF9ex_7lb_quic10conn_actor15reset_h3_stream
FNDA:0,_RNvNtCs7RDJCKiF9ex_7lb_quic10conn_actor15setup_ws_tunnel
FNDA:0,_RNvNtCs7RDJCKiF9ex_7lb_quic10conn_actor16ws_drain_inbound
FNDA:23425,_RNvNtCs7RDJCKiF9ex_7lb_quic10conn_actor18drain_request_body
FNDA:423270,_RNvNtCs7RDJCKiF9ex_7lb_quic10conn_actor19drain_resp_channels
FNDA:8307,_RNvNtCs7RDJCKiF9ex_7lb_quic10conn_actor19record_req_retained
FNDA:152,_RNvNtCs7RDJCKiF9ex_7lb_quic10conn_actor20graceful_h3_shutdown
FNDA:0,_RNvNtCs7RDJCKiF9ex_7lb_quic10conn_actor20ws_handle_client_fin
FNDA:423539,_RNvNtCs7RDJCKiF9ex_7lb_quic10conn_actor21drain_streams_to_conn
FNDA:0,_RNvNtCs7RDJCKiF9ex_7lb_quic10conn_actor22ws_handle_client_reset
FNDA:423007,_RNvNtCs7RDJCKiF9ex_7lb_quic10conn_actor23try_send_pending_goaway
FNDA:2,_RNvNtCs7RDJCKiF9ex_7lb_quic10conn_actor24spawn_inline_h3_response
FNDA:423270,_RNvNtCs7RDJCKiF9ex_7lb_quic10conn_actor31reap_client_cancelled_responses
FNDA:423003,_RNvNtCs7RDJCKiF9ex_7lb_quic10conn_actor7poll_h3
FNDA:273,_RNvNtCs7RDJCKiF9ex_7lb_quic10conn_actor9run_actor
FNDA:267,_RNCNCNvNtCs7RDJCKiF9ex_7lb_quic10conn_actor9run_actor00B7_
FNDA:412655,_RNCNCNvNtCs7RDJCKiF9ex_7lb_quic10conn_actor9run_actor0s_0B7_
FNDA:601440,_RNCNvNtCs7RDJCKiF9ex_7lb_quic10conn_actor15drain_conn_send0B5_
FNDA:0,_RNCNvNtCs7RDJCKiF9ex_7lb_quic10conn_actor15setup_ws_tunnel0B5_
FNDA:0,_RNCNvNtCs7RDJCKiF9ex_7lb_quic10conn_actor15setup_ws_tunnels_0B5_
FNDA:205,_RNCNvNtCs7RDJCKiF9ex_7lb_quic10conn_actor19drain_resp_channels0B5_
FNDA:139,_RNCNvNtCs7RDJCKiF9ex_7lb_quic10conn_actor19drain_resp_channelss_0B5_
FNDA:8307,_RNCNvNtCs7RDJCKiF9ex_7lb_quic10conn_actor19record_req_retained0B5_
FNDA:152,_RNCNvNtCs7RDJCKiF9ex_7lb_quic10conn_actor20graceful_h3_shutdown0B5_
FNDA:139,_RNCNvNtCs7RDJCKiF9ex_7lb_quic10conn_actor21drain_streams_to_conn0B5_
FNDA:421990,_RNCNvNtCs7RDJCKiF9ex_7lb_quic10conn_actor21drain_streams_to_conns_0B5_
FNDA:2,_RNCNvNtCs7RDJCKiF9ex_7lb_quic10conn_actor24spawn_inline_h3_response0B5_
FNDA:1310,_RNCNvNtCs7RDJCKiF9ex_7lb_quic10conn_actor7poll_h30B5_
FNDA:0,_RNCNvNtCs7RDJCKiF9ex_7lb_quic10conn_actor7poll_h3s0_0B5_
FNDA:0,_RNCNvNtCs7RDJCKiF9ex_7lb_quic10conn_actor7poll_h3s1_0B5_
FNDA:77,_RNCNvNtCs7RDJCKiF9ex_7lb_quic10conn_actor7poll_h3s2_0B5_
FNDA:143,_RNCNvNtCs7RDJCKiF9ex_7lb_quic10conn_actor7poll_h3s3_0B5_
FNDA:52,_RNCNvNtCs7RDJCKiF9ex_7lb_quic10conn_actor7poll_h3s4_0B5_
FNDA:3,_RNCNvNtCs7RDJCKiF9ex_7lb_quic10conn_actor7poll_h3s_0B5_
FNDA:273,_RNCNvNtCs7RDJCKiF9ex_7lb_quic10conn_actor9run_actor0B5_
FNDA:0,_RNCNCNvNtCs48r2xzLZq6T_7lb_quic10conn_actor9run_actor00B7_
FNDA:0,_RNCNCNvNtCs48r2xzLZq6T_7lb_quic10conn_actor9run_actor0s_0B7_
FNDA:0,_RNCNvNtCs48r2xzLZq6T_7lb_quic10conn_actor15drain_conn_send0B5_
FNDA:0,_RNCNvNtCs48r2xzLZq6T_7lb_quic10conn_actor15setup_ws_tunnel0B5_
FNDA:0,_RNCNvNtCs48r2xzLZq6T_7lb_quic10conn_actor15setup_ws_tunnels_0B5_
FNDA:0,_RNCNvNtCs48r2xzLZq6T_7lb_quic10conn_actor19drain_resp_channels0B5_
FNDA:0,_RNCNvNtCs48r2xzLZq6T_7lb_quic10conn_actor19drain_resp_channelss_0B5_
FNDA:0,_RNCNvNtCs48r2xzLZq6T_7lb_quic10conn_actor19record_req_retained0B5_
FNDA:0,_RNCNvNtCs48r2xzLZq6T_7lb_quic10conn_actor20graceful_h3_shutdown0B5_
FNDA:0,_RNCNvNtCs48r2xzLZq6T_7lb_quic10conn_actor21drain_streams_to_conn0B5_
FNDA:0,_RNCNvNtCs48r2xzLZq6T_7lb_quic10conn_actor21drain_streams_to_conns_0B5_
FNDA:0,_RNCNvNtCs48r2xzLZq6T_7lb_quic10conn_actor24spawn_inline_h3_response0B5_
FNDA:0,_RNCNvNtCs48r2xzLZq6T_7lb_quic10conn_actor7poll_h30B5_
FNDA:0,_RNCNvNtCs48r2xzLZq6T_7lb_quic10conn_actor7poll_h3s0_0B5_
FNDA:0,_RNCNvNtCs48r2xzLZq6T_7lb_quic10conn_actor7poll_h3s1_0B5_
FNDA:0,_RNCNvNtCs48r2xzLZq6T_7lb_quic10conn_actor7poll_h3s2_0B5_
FNDA:0,_RNCNvNtCs48r2xzLZq6T_7lb_quic10conn_actor7poll_h3s3_0B5_
FNDA:0,_RNCNvNtCs48r2xzLZq6T_7lb_quic10conn_actor7poll_h3s4_0B5_
FNDA:0,_RNCNvNtCs48r2xzLZq6T_7lb_quic10conn_actor7poll_h3s_0B5_
FNDA:0,_RNCNvNtCs48r2xzLZq6T_7lb_quic10conn_actor9run_actor0B5_
FNDA:0,_RNvMNtCs48r2xzLZq6T_7lb_quic10conn_actorNtB2_8StreamTx11progressive
FNDA:0,_RNvNtCs48r2xzLZq6T_7lb_quic10conn_actor11ws_teardown
FNDA:0,_RNvNtCs48r2xzLZq6T_7lb_quic10conn_actor14select_backend
FNDA:0,_RNvNtCs48r2xzLZq6T_7lb_quic10conn_actor15drain_conn_send
FNDA:0,_RNvNtCs48r2xzLZq6T_7lb_quic10conn_actor15pump_ws_tunnels
FNDA:0,_RNvNtCs48r2xzLZq6T_7lb_quic10conn_actor15reset_h3_stream
FNDA:0,_RNvNtCs48r2xzLZq6T_7lb_quic10conn_actor15setup_ws_tunnel
FNDA:0,_RNvNtCs48r2xzLZq6T_7lb_quic10conn_actor16ws_drain_inbound
FNDA:0,_RNvNtCs48r2xzLZq6T_7lb_quic10conn_actor18drain_request_body
FNDA:0,_RNvNtCs48r2xzLZq6T_7lb_quic10conn_actor19drain_resp_channels
FNDA:0,_RNvNtCs48r2xzLZq6T_7lb_quic10conn_actor19record_req_retained
FNDA:0,_RNvNtCs48r2xzLZq6T_7lb_quic10conn_actor20graceful_h3_shutdown
FNDA:0,_RNvNtCs48r2xzLZq6T_7lb_quic10conn_actor20ws_handle_client_fin
FNDA:0,_RNvNtCs48r2xzLZq6T_7lb_quic10conn_actor21drain_streams_to_conn
FNDA:0,_RNvNtCs48r2xzLZq6T_7lb_quic10conn_actor22ws_handle_client_reset
FNDA:0,_RNvNtCs48r2xzLZq6T_7lb_quic10conn_actor23try_send_pending_goaway
FNDA:0,_RNvNtCs48r2xzLZq6T_7lb_quic10conn_actor24spawn_inline_h3_response
FNDA:0,_RNvNtCs48r2xzLZq6T_7lb_quic10conn_actor31reap_client_cancelled_responses
FNDA:0,_RNvNtCs48r2xzLZq6T_7lb_quic10conn_actor7poll_h3
FNDA:0,_RNvNtCs48r2xzLZq6T_7lb_quic10conn_actor9run_actor
FNF:40
FNH:31
DA:296,273
DA:302,273
DA:303,0
DA:304,273
DA:306,273
DA:311,273
DA:312,273
DA:318,273
DA:322,273
DA:326,273
DA:335,273
DA:338,273
DA:344,273
DA:363,273
DA:364,273
DA:365,273
DA:366,273
DA:367,273
DA:376,423539
DA:377,423539
DA:379,423539
DA:380,52
DA:381,423487
DA:383,423487
DA:407,423487
DA:408,421993
DA:409,421993
DA:410,421993
DA:412,423487
DA:414,423487
DA:415,147
DA:416,20
DA:418,423487
DA:419,150603
DA:420,150603
DA:421,150603
DA:422,150602
DA:423,1
DA:424,1
DA:428,423487
DA:429,272667
DA:430,272667
DA:434,423270
DA:438,423003
DA:443,267
DA:444,267
DA:446,267
DA:447,0
DA:448,0
DA:449,0
DA:450,0
DA:451,0
DA:455,422736
DA:456,423003
DA:457,423003
DA:458,423003
DA:459,423003
DA:460,423003
DA:461,423003
DA:462,423003
DA:463,423003
DA:464,423003
DA:465,423003
DA:466,423003
DA:467,423003
DA:468,423003
DA:469,423003
DA:470,423003
DA:471,423003
DA:472,423003
DA:473,423003
DA:474,423003
DA:475,423003
DA:476,423003
DA:477,423003
DA:478,423003
DA:479,423003
DA:480,423003
DA:481,423003
DA:482,423003
DA:483,423003
DA:484,423003
DA:485,423003
DA:486,423003
DA:487,423003
DA:488,423003
DA:489,423003
DA:490,423003
DA:491,423003
DA:492,423003
DA:493,423003
DA:494,423003
DA:495,423003
DA:496,423003
DA:497,267
DA:503,423270
DA:504,423270
DA:505,423270
DA:506,423270
DA:516,423270
DA:520,423270
DA:533,423270
DA:534,170
DA:535,170
DA:536,4
DA:537,4
DA:539,4
DA:540,3
DA:541,3
DA:542,3
DA:543,3
DA:546,0
DA:548,3
DA:549,423266
DA:556,75
DA:557,0
DA:558,0
DA:559,75
DA:560,75
DA:575,423270
DA:576,423270
DA:577,423270
DA:578,423270
DA:579,423270
DA:580,423270
DA:581,423270
DA:582,422220
DA:583,3
DA:584,3
DA:587,0
DA:588,0
DA:590,3
DA:592,422217
DA:595,423273
DA:596,3
DA:597,3
DA:598,3
DA:599,3
DA:600,3
DA:601,3
DA:602,423270
DA:622,423270
DA:623,423270
DA:624,423270
DA:625,423270
DA:626,423270
DA:627,845487
DA:643,421990
DA:644,421990
DA:645,421990
DA:646,421990
DA:648,422217
DA:650,227
DA:651,227
DA:653,421990
DA:657,0
DA:658,421990
DA:660,421990
DA:661,25000
DA:662,396990
DA:663,396990
DA:664,0
DA:671,396990
DA:675,268
DA:676,268
DA:677,268
DA:678,60420
DA:679,70
DA:680,168
DA:681,22
DA:682,336042
DA:683,0
DA:684,0
DA:685,0
DA:686,0
DA:687,0
DA:688,0
DA:704,423270
DA:705,423270
DA:706,421990
DA:707,421990
DA:708,85758
DA:709,85420
DA:710,268
DA:711,268
DA:713,139
DA:717,423270
DA:718,421990
DA:719,421990
DA:720,421990
DA:721,421990
DA:722,421990
DA:723,423270
DA:725,423270
DA:784,274
DA:785,274
DA:786,274
DA:787,274
DA:788,274
DA:789,274
DA:790,274
DA:791,274
DA:792,274
DA:805,423539
DA:806,423539
DA:807,423539
DA:808,423539
DA:809,423539
DA:810,423539
DA:811,423539
DA:812,421990
DA:816,421990
DA:817,421990
DA:818,421990
DA:819,421990
DA:820,421990
DA:822,421990
DA:823,0
DA:824,421990
DA:828,421990
DA:829,0
DA:836,482675
DA:837,85758
DA:838,268
DA:839,268
DA:842,0
DA:843,0
DA:844,268
DA:845,268
DA:846,268
DA:847,268
DA:848,268
DA:849,268
DA:851,268
DA:852,205
DA:853,205
DA:854,205
DA:855,268
DA:856,267
DA:857,267
DA:858,267
DA:859,267
DA:861,0
DA:862,1
DA:863,1
DA:864,1
DA:865,1
DA:869,85420
DA:870,85420
DA:871,23502
DA:872,61918
DA:873,60418
DA:874,60418
DA:875,1500
DA:878,1500
DA:879,1500
DA:881,0
DA:882,0
DA:883,0
DA:884,0
DA:885,0
DA:889,70
DA:890,70
DA:891,70
DA:892,139
DA:893,70
DA:903,70
DA:905,70
DA:906,70
DA:907,70
DA:908,70
DA:911,0
DA:912,0
DA:913,0
DA:914,0
DA:915,0
DA:921,421990
DA:926,23
DA:927,23
DA:928,0
DA:929,0
DA:932,23
DA:933,23
DA:934,421967
DA:939,168
DA:940,168
DA:941,0
DA:942,0
DA:945,168
DA:946,168
DA:947,421799
DA:951,423800
DA:954,261
DA:955,261
DA:956,261
DA:958,423539
DA:959,421990
DA:960,421990
DA:961,421990
DA:962,423539
DA:987,152
DA:988,152
DA:989,152
DA:990,152
DA:991,152
DA:992,152
DA:993,152
DA:994,0
DA:995,0
DA:998,152
DA:1000,176
DA:1001,176
DA:1002,23
DA:1003,153
DA:1004,153
DA:1005,1
DA:1006,0
DA:1008,1
DA:1009,152
DA:1013,152
DA:1014,152
DA:1015,152
DA:1016,152
DA:1017,24
DA:1019,24
DA:1039,18
DA:1040,18
DA:1041,18
DA:1042,0
DA:1044,18
DA:1045,18
DA:1046,0
DA:1048,18
DA:1072,423007
DA:1073,423007
DA:1074,423007
DA:1075,423007
DA:1076,423007
DA:1077,423007
DA:1078,423007
DA:1079,423007
DA:1080,423007
DA:1081,423003
DA:1082,4
DA:1083,4
DA:1085,4
DA:1086,4
DA:1087,4
DA:1088,4
DA:1089,4
DA:1091,0
DA:1094,0
DA:1095,0
DA:1096,0
DA:1097,0
DA:1098,0
DA:1099,0
DA:1102,0
DA:1104,0
DA:1105,0
DA:1106,0
DA:1107,0
DA:1110,423007
DA:1112,601440
DA:1113,601440
DA:1114,601440
DA:1115,601440
DA:1116,601440
DA:1118,912260
DA:1119,310820
DA:1120,310820
DA:1121,310820
DA:1122,0
DA:1123,0
DA:1124,310820
DA:1126,601440
DA:1127,0
DA:1128,0
DA:1129,0
DA:1133,601440
DA:1156,23425
DA:1157,23425
DA:1158,23425
DA:1159,23425
DA:1160,23425
DA:1161,23425
DA:1162,23425
DA:1163,23425
DA:1164,23425
DA:1167,31732
DA:1168,31732
DA:1169,12093
DA:1171,19639
DA:1172,0
DA:1173,8307
DA:1174,8307
DA:1175,8307
DA:1176,8307
DA:1180,0
DA:1181,0
DA:1182,0
DA:1183,0
DA:1184,0
DA:1185,0
DA:1186,8307
DA:1189,8307
DA:1190,8307
DA:1191,8307
DA:1192,8307
DA:1193,8307
DA:1195,8307
DA:1197,11330
DA:1198,2
DA:1201,2
DA:1204,0
DA:1206,2
DA:1207,2
DA:1208,2
DA:1209,2
DA:1210,2
DA:1211,2
DA:1215,23425
DA:1235,423003
DA:1236,423003
DA:1237,423003
DA:1238,423003
DA:1239,423003
DA:1240,423003
DA:1241,423003
DA:1242,423003
DA:1243,423003
DA:1244,423003
DA:1245,423003
DA:1246,423003
DA:1247,423003
DA:1248,423003
DA:1249,423003
DA:1250,423003
DA:1251,423003
DA:1252,423003
DA:1253,423003
DA:1254,423003
DA:1255,423003
DA:1256,423003
DA:1257,423003
DA:1258,423003
DA:1259,423003
DA:1260,423003
DA:1261,423003
DA:1262,423003
DA:1263,423003
DA:1264,423003
DA:1265,423003
DA:1266,423003
DA:1270,423003
DA:1271,445498
DA:1272,22495
DA:1273,22495
DA:1274,22495
DA:1275,22495
DA:1276,22495
DA:1277,22495
DA:1278,22495
DA:1279,22495
DA:1280,22495
DA:1284,424366
DA:1285,294
DA:1286,294
DA:1287,294
DA:1288,1310
DA:1290,1310
DA:1291,1310
DA:1292,1310
DA:1293,1310
DA:1294,1310
DA:1295,294
DA:1299,294
DA:1302,3
DA:1303,0
DA:1305,0
DA:1307,0
DA:1308,0
DA:1309,0
DA:1310,0
DA:1311,0
DA:1312,0
DA:1313,2
DA:1314,2
DA:1315,2
DA:1316,292
DA:1325,292
DA:1337,26
DA:1338,17
DA:1341,0
DA:1343,17
DA:1344,17
DA:1345,9
DA:1352,9
DA:1361,9
DA:1368,9
DA:1369,4
DA:1370,4
DA:1371,4
DA:1372,4
DA:1373,4
DA:1374,4
DA:1375,4
DA:1376,4
DA:1377,4
DA:1378,5
DA:1379,266
DA:1385,275
DA:1386,1
DA:1389,0
DA:1391,1
DA:1392,1
DA:1393,274
DA:1394,274
DA:1398,274
DA:1399,274
DA:1400,2
DA:1404,0
DA:1411,2
DA:1412,2
DA:1413,2
DA:1414,2
DA:1415,2
DA:1419,2
DA:1420,272
DA:1421,0
DA:1436,272
DA:1437,0
DA:1438,0
DA:1439,0
DA:1440,0
DA:1441,0
DA:1442,0
DA:1443,0
DA:1444,0
DA:1445,0
DA:1446,0
DA:1447,0
DA:1448,0
DA:1449,0
DA:1450,0
DA:1451,0
DA:1453,0
DA:1454,0
DA:1455,272
DA:1457,272
DA:1462,272
DA:1463,272
DA:1465,272
DA:1466,77
DA:1467,77
DA:1468,77
DA:1469,77
DA:1470,77
DA:1471,77
DA:1472,77
DA:1473,77
DA:1476,77
DA:1478,0
DA:1479,77
DA:1480,77
DA:1481,77
DA:1482,195
DA:1483,143
DA:1484,143
DA:1485,143
DA:1486,143
DA:1487,143
DA:1488,143
DA:1489,143
DA:1490,143
DA:1491,143
DA:1494,143
DA:1496,13
DA:1497,130
DA:1498,143
DA:1499,143
DA:1500,52
DA:1501,52
DA:1502,52
DA:1503,52
DA:1504,52
DA:1505,52
DA:1506,52
DA:1507,52
DA:1508,52
DA:1511,52
DA:1513,14
DA:1514,38
DA:1515,52
DA:1516,52
DA:1518,0
DA:1519,0
DA:1521,272
DA:1522,0
DA:1523,272
DA:1524,272
DA:1525,272
DA:1527,272
DA:1528,124
DA:1529,124
DA:1530,124
DA:1531,124
DA:1532,124
DA:1533,124
DA:1534,124
DA:1535,148
DA:1536,148
DA:1537,148
DA:1538,148
DA:1539,148
DA:1540,148
DA:1541,148
DA:1542,148
DA:1543,148
DA:1544,148
DA:1545,148
DA:1546,148
DA:1547,148
DA:1548,148
DA:1549,148
DA:1550,148
DA:1552,782
DA:1553,782
DA:1554,782
DA:1555,782
DA:1556,782
DA:1557,782
DA:1558,782
DA:1559,782
DA:1560,782
DA:1561,782
DA:1562,226
DA:1567,226
DA:1568,0
DA:1569,0
DA:1570,226
DA:1587,226
DA:1588,226
DA:1591,226
DA:1592,83
DA:1593,0
DA:1595,0
DA:1596,0
DA:1598,0
DA:1599,83
DA:1600,83
DA:1601,83
DA:1602,83
DA:1603,143
DA:1604,226
DA:1605,226
DA:1607,61
DA:1612,61
DA:1613,0
DA:1614,0
DA:1615,61
DA:1618,61
DA:1621,0
DA:1623,61
DA:1624,61
DA:1625,61
DA:1626,61
DA:1627,61
DA:1631,0
DA:1632,423001
DA:1633,2
DA:1639,2
DA:1640,2
DA:1649,423003
DA:1650,423003
DA:1651,423003
DA:1652,423003
DA:1653,423003
DA:1654,423003
DA:1655,423003
DA:1657,423003
DA:1667,8307
DA:1668,8307
DA:1669,8307
DA:1670,8307
DA:1671,8307
DA:1672,8307
DA:1673,8307
DA:1674,8307
DA:1675,8307
DA:1676,8307
DA:1677,8307
DA:1682,52
DA:1683,52
DA:1684,52
DA:1694,2
DA:1695,2
DA:1696,2
DA:1697,2
DA:1698,2
DA:1699,2
DA:1700,2
DA:1701,2
DA:1702,2
DA:1703,2
DA:1704,2
DA:1705,2
DA:1706,2
DA:1707,2
DA:1708,2
DA:1709,2
DA:1710,2
DA:1711,2
DA:1712,2
DA:1713,2
DA:1714,2
DA:1715,2
DA:1716,2
DA:1717,2
DA:1731,0
DA:1732,0
DA:1733,0
DA:1734,0
DA:1735,0
DA:1736,0
DA:1737,0
DA:1738,0
DA:1739,0
DA:1740,0
DA:1743,0
DA:1744,0
DA:1747,0
DA:1749,0
DA:1750,0
DA:1751,0
DA:1752,0
DA:1753,0
DA:1757,0
DA:1758,0
DA:1759,0
DA:1762,0
DA:1764,0
DA:1766,0
DA:1767,0
DA:1768,0
DA:1769,0
DA:1770,0
DA:1774,0
DA:1778,0
DA:1779,0
DA:1780,0
DA:1781,0
DA:1782,0
DA:1783,0
DA:1784,0
DA:1785,0
DA:1786,0
DA:1787,0
DA:1788,0
DA:1789,0
DA:1791,0
DA:1792,0
DA:1793,0
DA:1794,0
DA:1796,0
DA:1798,0
DA:1799,0
DA:1800,0
DA:1801,0
DA:1802,0
DA:1803,0
DA:1804,0
DA:1805,0
DA:1806,0
DA:1807,0
DA:1808,0
DA:1809,0
DA:1810,0
DA:1812,0
DA:1821,0
DA:1822,0
DA:1823,0
DA:1824,0
DA:1825,0
DA:1826,0
DA:1827,0
DA:1828,0
DA:1829,0
DA:1832,0
DA:1833,0
DA:1835,0
DA:1838,0
DA:1839,0
DA:1840,0
DA:1841,0
DA:1842,0
DA:1843,0
DA:1844,0
DA:1845,0
DA:1846,0
DA:1847,0
DA:1848,0
DA:1849,0
DA:1850,0
DA:1851,0
DA:1852,0
DA:1853,0
DA:1857,0
DA:1865,0
DA:1866,0
DA:1867,0
DA:1868,0
DA:1869,0
DA:1870,0
DA:1872,0
DA:1873,0
DA:1874,0
DA:1876,0
DA:1877,0
DA:1880,0
DA:1881,0
DA:1883,0
DA:1885,0
DA:1887,0
DA:1890,0
DA:1895,0
DA:1896,0
DA:1897,0
DA:1899,0
DA:1901,0
DA:1902,0
DA:1903,0
DA:1908,0
DA:1909,0
DA:1910,0
DA:1911,0
DA:1912,0
DA:1913,0
DA:1915,0
DA:1916,0
DA:1917,0
DA:1919,0
DA:1920,0
DA:1921,0
DA:1935,423003
DA:1936,423003
DA:1937,423003
DA:1938,423003
DA:1939,423003
DA:1940,423003
DA:1941,423003
DA:1942,423003
DA:1943,423003
DA:1944,423003
DA:1945,0
DA:1946,0
DA:1947,0
DA:1948,0
DA:1949,0
DA:1950,0
DA:1954,0
DA:1955,0
DA:1956,0
DA:1957,0
DA:1958,0
DA:1959,0
DA:1960,0
DA:1961,0
DA:1962,0
DA:1963,0
DA:1964,0
DA:1965,0
DA:1966,0
DA:1967,0
DA:1970,0
DA:1971,0
DA:1975,0
DA:1980,0
DA:1981,0
DA:1982,0
DA:1983,0
DA:1984,0
DA:1985,0
DA:1989,0
DA:1990,0
DA:1993,0
DA:1996,0
DA:1997,0
DA:1998,0
DA:1999,0
DA:2000,0
DA:2001,0
DA:2002,0
DA:2004,0
DA:2005,0
DA:2006,0
DA:2009,0
DA:2011,0
DA:2012,0
DA:2013,0
DA:2014,0
DA:2015,0
DA:2018,0
DA:2020,0
DA:2021,0
DA:2022,0
DA:2025,0
DA:2030,0
DA:2031,0
DA:2032,0
DA:2033,0
DA:2036,0
DA:2037,0
DA:2038,0
DA:2039,0
DA:2040,0
DA:2043,0
DA:2044,0
DA:2045,0
DA:2046,0
DA:2049,0
DA:2050,0
DA:2051,0
DA:2052,0
DA:2053,0
DA:2054,0
DA:2057,0
DA:2058,0
DA:2059,0
DA:2060,0
DA:2062,0
DA:2063,0
DA:2064,0
DA:2065,0
DA:2066,0
DA:2070,0
DA:2074,0
DA:2075,0
DA:2076,0
DA:2078,0
DA:2079,0
DA:2080,0
DA:2081,0
DA:2082,0
DA:2083,0
DA:2084,0
DA:2086,423003
BRF:0
BRH:0
LF:967
LH:635
end_of_record
SF:/home/ubuntu/Code/ExpressGateway/.claude/worktrees/s36-verify/crates/lb-quic/src/h3_bridge.rs
FN:745,_RNvMs0_NtCs7RDJCKiF9ex_7lb_quic9h3_bridgeNtB5_12ChunkDecoder13take_trailers
FN:855,_RNvMs0_NtCs7RDJCKiF9ex_7lb_quic9h3_bridgeNtB5_12ChunkDecoder21parse_trailer_section
FN:731,_RNvMs0_NtCs7RDJCKiF9ex_7lb_quic9h3_bridgeNtB5_12ChunkDecoder3new
FN:753,_RNvMs0_NtCs7RDJCKiF9ex_7lb_quic9h3_bridgeNtB5_12ChunkDecoder4feed
FN:2223,_RNvMs4_NtCs7RDJCKiF9ex_7lb_quic9h3_bridgeNtB5_9H3RespOut11on_trailers
FN:2077,_RNvMs4_NtCs7RDJCKiF9ex_7lb_quic9h3_bridgeNtB5_9H3RespOut6inline
FN:2247,_RNvMs4_NtCs7RDJCKiF9ex_7lb_quic9h3_bridgeNtB5_9H3RespOut6on_end
FN:2190,_RNvMs4_NtCs7RDJCKiF9ex_7lb_quic9h3_bridgeNtB5_9H3RespOut7on_data
FN:2125,_RNvMs4_NtCs7RDJCKiF9ex_7lb_quic9h3_bridgeNtB5_9H3RespOut7on_head
FN:2263,_RNvMs4_NtCs7RDJCKiF9ex_7lb_quic9h3_bridgeNtB5_9H3RespOut8on_reset
FN:403,_RNvMs_NtCs7RDJCKiF9ex_7lb_quic9h3_bridgeNtB4_9H3Request12from_headers
FN:1709,_RNvNCNvNtCs7RDJCKiF9ex_7lb_quic9h3_bridge20h3_to_h1_stream_resp06inline
FN:1972,_RNvNCNvNtCs7RDJCKiF9ex_7lb_quic9h3_bridge20h3_to_h2_stream_resp06inline
FN:1387,_RNvNtCs7RDJCKiF9ex_7lb_quic9h3_bridge13build_h1_head
FN:621,_RNvNtCs7RDJCKiF9ex_7lb_quic9h3_bridge15find_header_sep
FN:1432,_RNvNtCs7RDJCKiF9ex_7lb_quic9h3_bridge15record_inflight
FN:307,_RNvNtCs7RDJCKiF9ex_7lb_quic9h3_bridge15record_retained
FN:1456,_RNvNtCs7RDJCKiF9ex_7lb_quic9h3_bridge16write_body_chunk
FN:1527,_RNvNtCs7RDJCKiF9ex_7lb_quic9h3_bridge16write_h1_request
FN:625,_RNvNtCs7RDJCKiF9ex_7lb_quic9h3_bridge17parse_status_line
FN:934,_RNvNtCs7RDJCKiF9ex_7lb_quic9h3_bridge18stream_h1_response
FN:1250,_RNvNtCs7RDJCKiF9ex_7lb_quic9h3_bridge18stream_h2_response
FN:2987,_RNvNtCs7RDJCKiF9ex_7lb_quic9h3_bridge19j2_req_event_action
FN:1696,_RNvNtCs7RDJCKiF9ex_7lb_quic9h3_bridge20h3_to_h1_stream_resp
FN:1959,_RNvNtCs7RDJCKiF9ex_7lb_quic9h3_bridge20h3_to_h2_stream_resp
FN:2287,_RNvNtCs7RDJCKiF9ex_7lb_quic9h3_bridge20h3_to_h3_stream_resp
FN:344,_RNvNtCs7RDJCKiF9ex_7lb_quic9h3_bridge20record_resp_retained
FN:663,_RNvNtCs7RDJCKiF9ex_7lb_quic9h3_bridge22is_response_hop_by_hop
FN:1891,_RNvNtCs7RDJCKiF9ex_7lb_quic9h3_bridge23h2_request_body_from_rx
FN:2415,_RNvNtCs7RDJCKiF9ex_7lb_quic9h3_bridge29stream_request_to_h3_upstream
FN:489,_RNvNtCs7RDJCKiF9ex_7lb_quic9h3_bridge31validate_request_pseudo_headers
FN:386,_RNvXNtCs7RDJCKiF9ex_7lb_quic9h3_bridgeNtB2_9H3RequestNtNtCs1p5UDGgVI4d_4core7default7Default7default
FN:1780,_RNvXs1_NtCs7RDJCKiF9ex_7lb_quic9h3_bridgeNtB5_10H3ReqAbortNtNtCs1p5UDGgVI4d_4core3fmt7Display3fmt
FN:1813,_RNvXs3_NtCs7RDJCKiF9ex_7lb_quic9h3_bridgeNtB5_15H3ReqStreamBodyNtCs5BnnnQOtX03_9http_body4Body10poll_frame
FN:1354,_RNCNCNCNvNtCs7RDJCKiF9ex_7lb_quic9h3_bridge18stream_h2_response0s2_00B9_
FN:2230,_RNCNCNvMs4_NtCs7RDJCKiF9ex_7lb_quic9h3_bridgeNtB9_9H3RespOut11on_trailers00Bb_
FN:2157,_RNCNCNvMs4_NtCs7RDJCKiF9ex_7lb_quic9h3_bridgeNtB9_9H3RespOut7on_head00Bb_
FN:1545,_RNCNCNvNtCs7RDJCKiF9ex_7lb_quic9h3_bridge16write_h1_request00B7_
FN:978,_RNCNCNvNtCs7RDJCKiF9ex_7lb_quic9h3_bridge18stream_h1_response00B7_
FN:1059,_RNCNCNvNtCs7RDJCKiF9ex_7lb_quic9h3_bridge18stream_h1_response0s0_0B7_
FN:1176,_RNCNCNvNtCs7RDJCKiF9ex_7lb_quic9h3_bridge18stream_h1_response0s1_0B7_
FN:993,_RNCNCNvNtCs7RDJCKiF9ex_7lb_quic9h3_bridge18stream_h1_response0s_0B7_
FN:1270,_RNCNCNvNtCs7RDJCKiF9ex_7lb_quic9h3_bridge18stream_h2_response00B7_
FN:1297,_RNCNCNvNtCs7RDJCKiF9ex_7lb_quic9h3_bridge18stream_h2_response0s0_0B7_
FN:1350,_RNCNCNvNtCs7RDJCKiF9ex_7lb_quic9h3_bridge18stream_h2_response0s1_0B7_
FN:1351,_RNCNCNvNtCs7RDJCKiF9ex_7lb_quic9h3_bridge18stream_h2_response0s2_0B7_
FN:1360,_RNCNCNvNtCs7RDJCKiF9ex_7lb_quic9h3_bridge18stream_h2_response0s3_0B7_
FN:1271,_RNCNCNvNtCs7RDJCKiF9ex_7lb_quic9h3_bridge18stream_h2_response0s_0B7_
FN:2488,_RNCNCNvNtCs7RDJCKiF9ex_7lb_quic9h3_bridge29stream_request_to_h3_upstream00B7_
FN:2527,_RNCNCNvNtCs7RDJCKiF9ex_7lb_quic9h3_bridge29stream_request_to_h3_upstream0s0_0B7_
FN:2584,_RNCNCNvNtCs7RDJCKiF9ex_7lb_quic9h3_bridge29stream_request_to_h3_upstream0s1_0B7_
FN:2684,_RNCNCNvNtCs7RDJCKiF9ex_7lb_quic9h3_bridge29stream_request_to_h3_upstream0s2_0B7_
FN:2709,_RNCNCNvNtCs7RDJCKiF9ex_7lb_quic9h3_bridge29stream_request_to_h3_upstream0s3_0B7_
FN:2767,_RNCNCNvNtCs7RDJCKiF9ex_7lb_quic9h3_bridge29stream_request_to_h3_upstream0s4_0B7_
FN:2506,_RNCNCNvNtCs7RDJCKiF9ex_7lb_quic9h3_bridge29stream_request_to_h3_upstream0s_0B7_
FN:2873,_RNCNCNvNtCs7RDJCKiF9ex_7lb_quic9h3_bridge29stream_request_to_h3_upstream0si_0B7_
FN:864,_RNCNvMs0_NtCs7RDJCKiF9ex_7lb_quic9h3_bridgeNtB7_12ChunkDecoder21parse_trailer_section0B9_
FN:797,_RNCNvMs0_NtCs7RDJCKiF9ex_7lb_quic9h3_bridgeNtB7_12ChunkDecoder4feed0B9_
FN:811,_RNCNvMs0_NtCs7RDJCKiF9ex_7lb_quic9h3_bridgeNtB7_12ChunkDecoder4feeds_0B9_
FN:2223,_RNCNvMs4_NtCs7RDJCKiF9ex_7lb_quic9h3_bridgeNtB7_9H3RespOut11on_trailers0B9_
FN:2077,_RNCNvMs4_NtCs7RDJCKiF9ex_7lb_quic9h3_bridgeNtB7_9H3RespOut6inline0B9_
FN:2247,_RNCNvMs4_NtCs7RDJCKiF9ex_7lb_quic9h3_bridgeNtB7_9H3RespOut6on_end0B9_
FN:2190,_RNCNvMs4_NtCs7RDJCKiF9ex_7lb_quic9h3_bridgeNtB7_9H3RespOut7on_data0B9_
FN:2125,_RNCNvMs4_NtCs7RDJCKiF9ex_7lb_quic9h3_bridgeNtB7_9H3RespOut7on_head0B9_
FN:2263,_RNCNvMs4_NtCs7RDJCKiF9ex_7lb_quic9h3_bridgeNtB7_9H3RespOut8on_reset0B9_
FN:420,_RNCNvMs_NtCs7RDJCKiF9ex_7lb_quic9h3_bridgeNtB6_9H3Request12from_headers0B8_
FN:421,_RNCNvMs_NtCs7RDJCKiF9ex_7lb_quic9h3_bridgeNtB6_9H3Request12from_headerss_0B8_
FN:1709,_RNCNvNCNvNtCs7RDJCKiF9ex_7lb_quic9h3_bridge20h3_to_h1_stream_resp06inline0B9_
FN:1972,_RNCNvNCNvNtCs7RDJCKiF9ex_7lb_quic9h3_bridge20h3_to_h2_stream_resp06inline0B9_
FN:622,_RNCNvNtCs7RDJCKiF9ex_7lb_quic9h3_bridge15find_header_sep0B5_
FN:1456,_RNCNvNtCs7RDJCKiF9ex_7lb_quic9h3_bridge16write_body_chunk0B5_
FN:1531,_RNCNvNtCs7RDJCKiF9ex_7lb_quic9h3_bridge16write_h1_request0B5_
FN:630,_RNCNvNtCs7RDJCKiF9ex_7lb_quic9h3_bridge17parse_status_line0B5_
FN:938,_RNCNvNtCs7RDJCKiF9ex_7lb_quic9h3_bridge18stream_h1_response0B5_
FN:1254,_RNCNvNtCs7RDJCKiF9ex_7lb_quic9h3_bridge18stream_h2_response0B5_
FN:1703,_RNCNvNtCs7RDJCKiF9ex_7lb_quic9h3_bridge20h3_to_h1_stream_resp0B5_
FN:1966,_RNCNvNtCs7RDJCKiF9ex_7lb_quic9h3_bridge20h3_to_h2_stream_resp0B5_
FN:2295,_RNCNvNtCs7RDJCKiF9ex_7lb_quic9h3_bridge20h3_to_h3_stream_resp0B5_
FN:2423,_RNCNvNtCs7RDJCKiF9ex_7lb_quic9h3_bridge29stream_request_to_h3_upstream0B5_
FN:386,_RNvXNtCs48r2xzLZq6T_7lb_quic9h3_bridgeNtB2_9H3RequestNtNtCs1p5UDGgVI4d_4core7default7Default7default
FN:3007,_RNvNtNtCs48r2xzLZq6T_7lb_quic9h3_bridge5tests1h
FN:3694,_RNvNtNtCs48r2xzLZq6T_7lb_quic9h3_bridge5testss_27s7_j2_request_send_decision
FN:3061,_RNvNtNtCs48r2xzLZq6T_7lb_quic9h3_bridge5testss_28pseudo_12_duplicate_rejected
FN:3125,_RNvNtNtCs48r2xzLZq6T_7lb_quic9h3_bridge5testss_28pseudo_connect_request_rules
FN:3553,_RNvNtNtCs48r2xzLZq6T_7lb_quic9h3_bridge5testss_34chunk_decoder_decodes_split_chunks
FN:3386,_RNvNtNtCs48r2xzLZq6T_7lb_quic9h3_bridge5testss_36g5_h3reqabort_display_and_error_impl
FN:3080,_RNvNtNtCs48r2xzLZq6T_7lb_quic9h3_bridge5testss_36pseudo_13_missing_mandatory_rejected
FN:3258,_RNvNtNtCs48r2xzLZq6T_7lb_quic9h3_bridge5testss_37pseudo_ws_duplicate_protocol_rejected
FN:3111,_RNvNtNtCs48r2xzLZq6T_7lb_quic9h3_bridge5testss_38pseudo_15_after_regular_field_rejected
FN:3615,_RNvNtNtCs48r2xzLZq6T_7lb_quic9h3_bridge5testss_39chunk_decoder_parses_trailer_section_c4
FN:3599,_RNvNtNtCs48r2xzLZq6T_7lb_quic9h3_bridge5testss_39chunk_decoder_tolerates_chunk_extension
FN:3091,_RNvNtNtCs48r2xzLZq6T_7lb_quic9h3_bridge5testss_40pseudo_14_prohibited_or_unknown_rejected
FN:3569,_RNvNtNtCs48r2xzLZq6T_7lb_quic9h3_bridge5testss_42chunk_decoder_rejects_malformed_framing_c3
FN:3222,_RNvNtNtCs48r2xzLZq6T_7lb_quic9h3_bridge5testss_42pseudo_ws_protocol_requires_connect_method
FN:3015,_RNvNtNtCs48r2xzLZq6T_7lb_quic9h3_bridge5testss_46pseudo_valid_request_accepted_negative_control
FN:3278,_RNvNtNtCs48r2xzLZq6T_7lb_quic9h3_bridge5testss_48pseudo_normal_request_unchanged_under_ws_enabled
FN:3145,_RNvNtNtCs48r2xzLZq6T_7lb_quic9h3_bridge5testss_48pseudo_ws_extended_connect_accepted_when_enabled
FN:3406,_RNvNtNtCs48r2xzLZq6T_7lb_quic9h3_bridge5testss_49g5_h2_request_body_from_rx_head_construction_arms
FN:3241,_RNvNtNtCs48r2xzLZq6T_7lb_quic9h3_bridge5testss_49pseudo_classic_connect_unchanged_under_ws_enabled
FN:3164,_RNvNtNtCs48r2xzLZq6T_7lb_quic9h3_bridge5testss_49pseudo_ws_extended_connect_rejected_when_disabled
FN:3296,_RNvNtNtCs48r2xzLZq6T_7lb_quic9h3_bridge5testss_49s6_i2_h3_req_stream_body_frame_and_abort_contract
FN:3471,_RNvNtNtCs48r2xzLZq6T_7lb_quic9h3_bridge5testss_50g5_h3_to_h2_stream_resp_inline_413_and_502_no_dial
FN:3039,_RNvNtNtCs48r2xzLZq6T_7lb_quic9h3_bridge5testss_51pseudo_13_absent_authority_rejected_for_http_scheme
FN:3183,_RNvNtNtCs48r2xzLZq6T_7lb_quic9h3_bridge5testss_51pseudo_ws_extended_connect_requires_scheme_and_path
FN:3831,_RNvNtNtCs48r2xzLZq6T_7lb_quic9h3_bridge5testss_52s12_decoded_sink_on_head_forwards_full_nonpseudo_set
FN:3801,_RNvNtNtCs48r2xzLZq6T_7lb_quic9h3_bridge5testss_55s12_decoded_sink_on_trailers_emits_h3respevent_trailers
FN:745,_RNvMs0_NtCs48r2xzLZq6T_7lb_quic9h3_bridgeNtB5_12ChunkDecoder13take_trailers
FN:855,_RNvMs0_NtCs48r2xzLZq6T_7lb_quic9h3_bridgeNtB5_12ChunkDecoder21parse_trailer_section
FN:731,_RNvMs0_NtCs48r2xzLZq6T_7lb_quic9h3_bridgeNtB5_12ChunkDecoder3new
FN:753,_RNvMs0_NtCs48r2xzLZq6T_7lb_quic9h3_bridgeNtB5_12ChunkDecoder4feed
FN:2223,_RNvMs4_NtCs48r2xzLZq6T_7lb_quic9h3_bridgeNtB5_9H3RespOut11on_trailers
FN:2077,_RNvMs4_NtCs48r2xzLZq6T_7lb_quic9h3_bridgeNtB5_9H3RespOut6inline
FN:2247,_RNvMs4_NtCs48r2xzLZq6T_7lb_quic9h3_bridgeNtB5_9H3RespOut6on_end
FN:2190,_RNvMs4_NtCs48r2xzLZq6T_7lb_quic9h3_bridgeNtB5_9H3RespOut7on_data
FN:2125,_RNvMs4_NtCs48r2xzLZq6T_7lb_quic9h3_bridgeNtB5_9H3RespOut7on_head
FN:2263,_RNvMs4_NtCs48r2xzLZq6T_7lb_quic9h3_bridgeNtB5_9H3RespOut8on_reset
FN:403,_RNvMs_NtCs48r2xzLZq6T_7lb_quic9h3_bridgeNtB4_9H3Request12from_headers
FN:1709,_RNvNCNvNtCs48r2xzLZq6T_7lb_quic9h3_bridge20h3_to_h1_stream_resp06inline
FN:1972,_RNvNCNvNtCs48r2xzLZq6T_7lb_quic9h3_bridge20h3_to_h2_stream_resp06inline
FN:1387,_RNvNtCs48r2xzLZq6T_7lb_quic9h3_bridge13build_h1_head
FN:621,_RNvNtCs48r2xzLZq6T_7lb_quic9h3_bridge15find_header_sep
FN:1432,_RNvNtCs48r2xzLZq6T_7lb_quic9h3_bridge15record_inflight
FN:307,_RNvNtCs48r2xzLZq6T_7lb_quic9h3_bridge15record_retained
FN:1456,_RNvNtCs48r2xzLZq6T_7lb_quic9h3_bridge16write_body_chunk
FN:1527,_RNvNtCs48r2xzLZq6T_7lb_quic9h3_bridge16write_h1_request
FN:625,_RNvNtCs48r2xzLZq6T_7lb_quic9h3_bridge17parse_status_line
FN:934,_RNvNtCs48r2xzLZq6T_7lb_quic9h3_bridge18stream_h1_response
FN:1250,_RNvNtCs48r2xzLZq6T_7lb_quic9h3_bridge18stream_h2_response
FN:2987,_RNvNtCs48r2xzLZq6T_7lb_quic9h3_bridge19j2_req_event_action
FN:1696,_RNvNtCs48r2xzLZq6T_7lb_quic9h3_bridge20h3_to_h1_stream_resp
FN:1959,_RNvNtCs48r2xzLZq6T_7lb_quic9h3_bridge20h3_to_h2_stream_resp
FN:2287,_RNvNtCs48r2xzLZq6T_7lb_quic9h3_bridge20h3_to_h3_stream_resp
FN:344,_RNvNtCs48r2xzLZq6T_7lb_quic9h3_bridge20record_resp_retained
FN:663,_RNvNtCs48r2xzLZq6T_7lb_quic9h3_bridge22is_response_hop_by_hop
FN:1891,_RNvNtCs48r2xzLZq6T_7lb_quic9h3_bridge23h2_request_body_from_rx
FN:2415,_RNvNtCs48r2xzLZq6T_7lb_quic9h3_bridge29stream_request_to_h3_upstream
FN:489,_RNvNtCs48r2xzLZq6T_7lb_quic9h3_bridge31validate_request_pseudo_headers
FN:1780,_RNvXs1_NtCs48r2xzLZq6T_7lb_quic9h3_bridgeNtB5_10H3ReqAbortNtNtCs1p5UDGgVI4d_4core3fmt7Display3fmt
FN:1813,_RNvXs3_NtCs48r2xzLZq6T_7lb_quic9h3_bridgeNtB5_15H3ReqStreamBodyNtCs5BnnnQOtX03_9http_body4Body10poll_frame
FN:3438,_RNCNCNvNtNtCs48r2xzLZq6T_7lb_quic9h3_bridge5testss_49g5_h2_request_body_from_rx_head_construction_arms00B9_
FN:3010,_RNCNvNtNtCs48r2xzLZq6T_7lb_quic9h3_bridge5tests1h0B7_
FN:3269,_RNCNvNtNtCs48r2xzLZq6T_7lb_quic9h3_bridge5testss_37pseudo_ws_duplicate_protocol_rejected0B7_
FN:3232,_RNCNvNtNtCs48r2xzLZq6T_7lb_quic9h3_bridge5testss_42pseudo_ws_protocol_requires_connect_method0B7_
FN:3406,_RNCNvNtNtCs48r2xzLZq6T_7lb_quic9h3_bridge5testss_49g5_h2_request_body_from_rx_head_construction_arms0B7_
FN:3251,_RNCNvNtNtCs48r2xzLZq6T_7lb_quic9h3_bridge5testss_49pseudo_classic_connect_unchanged_under_ws_enabled0B7_
FN:3296,_RNCNvNtNtCs48r2xzLZq6T_7lb_quic9h3_bridge5testss_49s6_i2_h3_req_stream_body_frame_and_abort_contract0B7_
FN:3471,_RNCNvNtNtCs48r2xzLZq6T_7lb_quic9h3_bridge5testss_50g5_h3_to_h2_stream_resp_inline_413_and_502_no_dial0B7_
FN:3192,_RNCNvNtNtCs48r2xzLZq6T_7lb_quic9h3_bridge5testss_51pseudo_ws_extended_connect_requires_scheme_and_path0B7_
FN:3214,_RNCNvNtNtCs48r2xzLZq6T_7lb_quic9h3_bridge5testss_51pseudo_ws_extended_connect_requires_scheme_and_paths0_0B7_
FN:3203,_RNCNvNtNtCs48r2xzLZq6T_7lb_quic9h3_bridge5testss_51pseudo_ws_extended_connect_requires_scheme_and_paths_0B7_
FN:3831,_RNCNvNtNtCs48r2xzLZq6T_7lb_quic9h3_bridge5testss_52s12_decoded_sink_on_head_forwards_full_nonpseudo_set0B7_
FN:3801,_RNCNvNtNtCs48r2xzLZq6T_7lb_quic9h3_bridge5testss_55s12_decoded_sink_on_trailers_emits_h3respevent_trailers0B7_
FN:1354,_RNCNCNCNvNtCs48r2xzLZq6T_7lb_quic9h3_bridge18stream_h2_response0s2_00B9_
FN:2230,_RNCNCNvMs4_NtCs48r2xzLZq6T_7lb_quic9h3_bridgeNtB9_9H3RespOut11on_trailers00Bb_
FN:2157,_RNCNCNvMs4_NtCs48r2xzLZq6T_7lb_quic9h3_bridgeNtB9_9H3RespOut7on_head00Bb_
FN:1545,_RNCNCNvNtCs48r2xzLZq6T_7lb_quic9h3_bridge16write_h1_request00B7_
FN:978,_RNCNCNvNtCs48r2xzLZq6T_7lb_quic9h3_bridge18stream_h1_response00B7_
FN:1059,_RNCNCNvNtCs48r2xzLZq6T_7lb_quic9h3_bridge18stream_h1_response0s0_0B7_
FN:1176,_RNCNCNvNtCs48r2xzLZq6T_7lb_quic9h3_bridge18stream_h1_response0s1_0B7_
FN:993,_RNCNCNvNtCs48r2xzLZq6T_7lb_quic9h3_bridge18stream_h1_response0s_0B7_
FN:1270,_RNCNCNvNtCs48r2xzLZq6T_7lb_quic9h3_bridge18stream_h2_response00B7_
FN:1297,_RNCNCNvNtCs48r2xzLZq6T_7lb_quic9h3_bridge18stream_h2_response0s0_0B7_
FN:1350,_RNCNCNvNtCs48r2xzLZq6T_7lb_quic9h3_bridge18stream_h2_response0s1_0B7_
FN:1351,_RNCNCNvNtCs48r2xzLZq6T_7lb_quic9h3_bridge18stream_h2_response0s2_0B7_
FN:1360,_RNCNCNvNtCs48r2xzLZq6T_7lb_quic9h3_bridge18stream_h2_response0s3_0B7_
FN:1271,_RNCNCNvNtCs48r2xzLZq6T_7lb_quic9h3_bridge18stream_h2_response0s_0B7_
FN:2488,_RNCNCNvNtCs48r2xzLZq6T_7lb_quic9h3_bridge29stream_request_to_h3_upstream00B7_
FN:2527,_RNCNCNvNtCs48r2xzLZq6T_7lb_quic9h3_bridge29stream_request_to_h3_upstream0s0_0B7_
FN:2584,_RNCNCNvNtCs48r2xzLZq6T_7lb_quic9h3_bridge29stream_request_to_h3_upstream0s1_0B7_
FN:2684,_RNCNCNvNtCs48r2xzLZq6T_7lb_quic9h3_bridge29stream_request_to_h3_upstream0s2_0B7_
FN:2709,_RNCNCNvNtCs48r2xzLZq6T_7lb_quic9h3_bridge29stream_request_to_h3_upstream0s3_0B7_
FN:2767,_RNCNCNvNtCs48r2xzLZq6T_7lb_quic9h3_bridge29stream_request_to_h3_upstream0s4_0B7_
FN:2506,_RNCNCNvNtCs48r2xzLZq6T_7lb_quic9h3_bridge29stream_request_to_h3_upstream0s_0B7_
FN:2873,_RNCNCNvNtCs48r2xzLZq6T_7lb_quic9h3_bridge29stream_request_to_h3_upstream0si_0B7_
FN:864,_RNCNvMs0_NtCs48r2xzLZq6T_7lb_quic9h3_bridgeNtB7_12ChunkDecoder21parse_trailer_section0B9_
FN:797,_RNCNvMs0_NtCs48r2xzLZq6T_7lb_quic9h3_bridgeNtB7_12ChunkDecoder4feed0B9_
FN:811,_RNCNvMs0_NtCs48r2xzLZq6T_7lb_quic9h3_bridgeNtB7_12ChunkDecoder4feeds_0B9_
FN:2223,_RNCNvMs4_NtCs48r2xzLZq6T_7lb_quic9h3_bridgeNtB7_9H3RespOut11on_trailers0B9_
FN:2077,_RNCNvMs4_NtCs48r2xzLZq6T_7lb_quic9h3_bridgeNtB7_9H3RespOut6inline0B9_
FN:2247,_RNCNvMs4_NtCs48r2xzLZq6T_7lb_quic9h3_bridgeNtB7_9H3RespOut6on_end0B9_
FN:2190,_RNCNvMs4_NtCs48r2xzLZq6T_7lb_quic9h3_bridgeNtB7_9H3RespOut7on_data0B9_
FN:2125,_RNCNvMs4_NtCs48r2xzLZq6T_7lb_quic9h3_bridgeNtB7_9H3RespOut7on_head0B9_
FN:2263,_RNCNvMs4_NtCs48r2xzLZq6T_7lb_quic9h3_bridgeNtB7_9H3RespOut8on_reset0B9_
FN:420,_RNCNvMs_NtCs48r2xzLZq6T_7lb_quic9h3_bridgeNtB6_9H3Request12from_headers0B8_
FN:421,_RNCNvMs_NtCs48r2xzLZq6T_7lb_quic9h3_bridgeNtB6_9H3Request12from_headerss_0B8_
FN:1709,_RNCNvNCNvNtCs48r2xzLZq6T_7lb_quic9h3_bridge20h3_to_h1_stream_resp06inline0B9_
FN:1972,_RNCNvNCNvNtCs48r2xzLZq6T_7lb_quic9h3_bridge20h3_to_h2_stream_resp06inline0B9_
FN:622,_RNCNvNtCs48r2xzLZq6T_7lb_quic9h3_bridge15find_header_sep0B5_
FN:1456,_RNCNvNtCs48r2xzLZq6T_7lb_quic9h3_bridge16write_body_chunk0B5_
FN:1531,_RNCNvNtCs48r2xzLZq6T_7lb_quic9h3_bridge16write_h1_request0B5_
FN:630,_RNCNvNtCs48r2xzLZq6T_7lb_quic9h3_bridge17parse_status_line0B5_
FN:938,_RNCNvNtCs48r2xzLZq6T_7lb_quic9h3_bridge18stream_h1_response0B5_
FN:1254,_RNCNvNtCs48r2xzLZq6T_7lb_quic9h3_bridge18stream_h2_response0B5_
FN:1703,_RNCNvNtCs48r2xzLZq6T_7lb_quic9h3_bridge20h3_to_h1_stream_resp0B5_
FN:1966,_RNCNvNtCs48r2xzLZq6T_7lb_quic9h3_bridge20h3_to_h2_stream_resp0B5_
FN:2295,_RNCNvNtCs48r2xzLZq6T_7lb_quic9h3_bridge20h3_to_h3_stream_resp0B5_
FN:2423,_RNCNvNtCs48r2xzLZq6T_7lb_quic9h3_bridge29stream_request_to_h3_upstream0B5_
FNDA:4,_RNvMs0_NtCs7RDJCKiF9ex_7lb_quic9h3_bridgeNtB5_12ChunkDecoder13take_trailers
FNDA:65,_RNvMs0_NtCs7RDJCKiF9ex_7lb_quic9h3_bridgeNtB5_12ChunkDecoder21parse_trailer_section
FNDA:9,_RNvMs0_NtCs7RDJCKiF9ex_7lb_quic9h3_bridgeNtB5_12ChunkDecoder3new
FNDA:98,_RNvMs0_NtCs7RDJCKiF9ex_7lb_quic9h3_bridgeNtB5_12ChunkDecoder4feed
FNDA:1,_RNvMs4_NtCs7RDJCKiF9ex_7lb_quic9h3_bridgeNtB5_9H3RespOut11on_trailers
FNDA:118,_RNvMs4_NtCs7RDJCKiF9ex_7lb_quic9h3_bridgeNtB5_9H3RespOut6inline
FNDA:12,_RNvMs4_NtCs7RDJCKiF9ex_7lb_quic9h3_bridgeNtB5_9H3RespOut6on_end
FNDA:37375,_RNvMs4_NtCs7RDJCKiF9ex_7lb_quic9h3_bridgeNtB5_9H3RespOut7on_data
FNDA:20,_RNvMs4_NtCs7RDJCKiF9ex_7lb_quic9h3_bridgeNtB5_9H3RespOut7on_head
FNDA:14,_RNvMs4_NtCs7RDJCKiF9ex_7lb_quic9h3_bridgeNtB5_9H3RespOut8on_reset
FNDA:274,_RNvMs_NtCs7RDJCKiF9ex_7lb_quic9h3_bridgeNtB4_9H3Request12from_headers
FNDA:3,_RNvNCNvNtCs7RDJCKiF9ex_7lb_quic9h3_bridge20h3_to_h1_stream_resp06inline
FNDA:3,_RNvNCNvNtCs7RDJCKiF9ex_7lb_quic9h3_bridge20h3_to_h2_stream_resp06inline
FNDA:52,_RNvNtCs7RDJCKiF9ex_7lb_quic9h3_bridge13build_h1_head
FNDA:98,_RNvNtCs7RDJCKiF9ex_7lb_quic9h3_bridge15find_header_sep
FNDA:702,_RNvNtCs7RDJCKiF9ex_7lb_quic9h3_bridge15record_inflight
FNDA:8307,_RNvNtCs7RDJCKiF9ex_7lb_quic9h3_bridge15record_retained
FNDA:658,_RNvNtCs7RDJCKiF9ex_7lb_quic9h3_bridge16write_body_chunk
FNDA:52,_RNvNtCs7RDJCKiF9ex_7lb_quic9h3_bridge16write_h1_request
FNDA:48,_RNvNtCs7RDJCKiF9ex_7lb_quic9h3_bridge17parse_status_line
FNDA:49,_RNvNtCs7RDJCKiF9ex_7lb_quic9h3_bridge18stream_h1_response
FNDA:100,_RNvNtCs7RDJCKiF9ex_7lb_quic9h3_bridge18stream_h2_response
FNDA:2254,_RNvNtCs7RDJCKiF9ex_7lb_quic9h3_bridge19j2_req_event_action
FNDA:52,_RNvNtCs7RDJCKiF9ex_7lb_quic9h3_bridge20h3_to_h1_stream_resp
FNDA:77,_RNvNtCs7RDJCKiF9ex_7lb_quic9h3_bridge20h3_to_h2_stream_resp
FNDA:143,_RNvNtCs7RDJCKiF9ex_7lb_quic9h3_bridge20h3_to_h3_stream_resp
FNDA:423270,_RNvNtCs7RDJCKiF9ex_7lb_quic9h3_bridge20record_resp_retained
FNDA:229,_RNvNtCs7RDJCKiF9ex_7lb_quic9h3_bridge22is_response_hop_by_hop
FNDA:77,_RNvNtCs7RDJCKiF9ex_7lb_quic9h3_bridge23h2_request_body_from_rx
FNDA:143,_RNvNtCs7RDJCKiF9ex_7lb_quic9h3_bridge29stream_request_to_h3_upstream
FNDA:275,_RNvNtCs7RDJCKiF9ex_7lb_quic9h3_bridge31validate_request_pseudo_headers
FNDA:0,_RNvXNtCs7RDJCKiF9ex_7lb_quic9h3_bridgeNtB2_9H3RequestNtNtCs1p5UDGgVI4d_4core7default7Default7default
FNDA:0,_RNvXs1_NtCs7RDJCKiF9ex_7lb_quic9h3_bridgeNtB5_10H3ReqAbortNtNtCs1p5UDGgVI4d_4core3fmt7Display3fmt
FNDA:8990,_RNvXs3_NtCs7RDJCKiF9ex_7lb_quic9h3_bridgeNtB5_15H3ReqStreamBodyNtCs5BnnnQOtX03_9http_body4Body10poll_frame
FNDA:144,_RNCNCNCNvNtCs7RDJCKiF9ex_7lb_quic9h3_bridge18stream_h2_response0s2_00B9_
FNDA:1,_RNCNCNvMs4_NtCs7RDJCKiF9ex_7lb_quic9h3_bridgeNtB9_9H3RespOut11on_trailers00Bb_
FNDA:10,_RNCNCNvMs4_NtCs7RDJCKiF9ex_7lb_quic9h3_bridgeNtB9_9H3RespOut7on_head00Bb_
FNDA:2,_RNCNCNvNtCs7RDJCKiF9ex_7lb_quic9h3_bridge16write_h1_request00B7_
FNDA:0,_RNCNCNvNtCs7RDJCKiF9ex_7lb_quic9h3_bridge18stream_h1_response00B7_
FNDA:42,_RNCNCNvNtCs7RDJCKiF9ex_7lb_quic9h3_bridge18stream_h1_response0s0_0B7_
FNDA:4,_RNCNCNvNtCs7RDJCKiF9ex_7lb_quic9h3_bridge18stream_h1_response0s1_0B7_
FNDA:48,_RNCNCNvNtCs7RDJCKiF9ex_7lb_quic9h3_bridge18stream_h1_response0s_0B7_
FNDA:6,_RNCNCNvNtCs7RDJCKiF9ex_7lb_quic9h3_bridge18stream_h2_response00B7_
FNDA:183,_RNCNCNvNtCs7RDJCKiF9ex_7lb_quic9h3_bridge18stream_h2_response0s0_0B7_
FNDA:144,_RNCNCNvNtCs7RDJCKiF9ex_7lb_quic9h3_bridge18stream_h2_response0s1_0B7_
FNDA:144,_RNCNCNvNtCs7RDJCKiF9ex_7lb_quic9h3_bridge18stream_h2_response0s2_0B7_
FNDA:144,_RNCNCNvNtCs7RDJCKiF9ex_7lb_quic9h3_bridge18stream_h2_response0s3_0B7_
FNDA:6,_RNCNCNvNtCs7RDJCKiF9ex_7lb_quic9h3_bridge18stream_h2_response0s_0B7_
FNDA:25,_RNCNCNvNtCs7RDJCKiF9ex_7lb_quic9h3_bridge29stream_request_to_h3_upstream00B7_
FNDA:0,_RNCNCNvNtCs7RDJCKiF9ex_7lb_quic9h3_bridge29stream_request_to_h3_upstream0s0_0B7_
FNDA:100,_RNCNCNvNtCs7RDJCKiF9ex_7lb_quic9h3_bridge29stream_request_to_h3_upstream0s1_0B7_
FNDA:32,_RNCNCNvNtCs7RDJCKiF9ex_7lb_quic9h3_bridge29stream_request_to_h3_upstream0s2_0B7_
FNDA:2,_RNCNCNvNtCs7RDJCKiF9ex_7lb_quic9h3_bridge29stream_request_to_h3_upstream0s3_0B7_
FNDA:4,_RNCNCNvNtCs7RDJCKiF9ex_7lb_quic9h3_bridge29stream_request_to_h3_upstream0s4_0B7_
FNDA:100,_RNCNCNvNtCs7RDJCKiF9ex_7lb_quic9h3_bridge29stream_request_to_h3_upstream0s_0B7_
FNDA:0,_RNCNCNvNtCs7RDJCKiF9ex_7lb_quic9h3_bridge29stream_request_to_h3_upstream0si_0B7_
FNDA:876,_RNCNvMs0_NtCs7RDJCKiF9ex_7lb_quic9h3_bridgeNtB7_12ChunkDecoder21parse_trailer_section0B9_
FNDA:101,_RNCNvMs0_NtCs7RDJCKiF9ex_7lb_quic9h3_bridgeNtB7_12ChunkDecoder4feed0B9_
FNDA:70,_RNCNvMs0_NtCs7RDJCKiF9ex_7lb_quic9h3_bridgeNtB7_12ChunkDecoder4feeds_0B9_
FNDA:1,_RNCNvMs4_NtCs7RDJCKiF9ex_7lb_quic9h3_bridgeNtB7_9H3RespOut11on_trailers0B9_
FNDA:118,_RNCNvMs4_NtCs7RDJCKiF9ex_7lb_quic9h3_bridgeNtB7_9H3RespOut6inline0B9_
FNDA:12,_RNCNvMs4_NtCs7RDJCKiF9ex_7lb_quic9h3_bridgeNtB7_9H3RespOut6on_end0B9_
FNDA:37375,_RNCNvMs4_NtCs7RDJCKiF9ex_7lb_quic9h3_bridgeNtB7_9H3RespOut7on_data0B9_
FNDA:20,_RNCNvMs4_NtCs7RDJCKiF9ex_7lb_quic9h3_bridgeNtB7_9H3RespOut7on_head0B9_
FNDA:14,_RNCNvMs4_NtCs7RDJCKiF9ex_7lb_quic9h3_bridgeNtB7_9H3RespOut8on_reset0B9_
FNDA:0,_RNCNvMs_NtCs7RDJCKiF9ex_7lb_quic9h3_bridgeNtB6_9H3Request12from_headers0B8_
FNDA:0,_RNCNvMs_NtCs7RDJCKiF9ex_7lb_quic9h3_bridgeNtB6_9H3Request12from_headerss_0B8_
FNDA:3,_RNCNvNCNvNtCs7RDJCKiF9ex_7lb_quic9h3_bridge20h3_to_h1_stream_resp06inline0B9_
FNDA:3,_RNCNvNCNvNtCs7RDJCKiF9ex_7lb_quic9h3_bridge20h3_to_h2_stream_resp06inline0B9_
FNDA:2734,_RNCNvNtCs7RDJCKiF9ex_7lb_quic9h3_bridge15find_header_sep0B5_
FNDA:658,_RNCNvNtCs7RDJCKiF9ex_7lb_quic9h3_bridge16write_body_chunk0B5_
FNDA:52,_RNCNvNtCs7RDJCKiF9ex_7lb_quic9h3_bridge16write_h1_request0B5_
FNDA:0,_RNCNvNtCs7RDJCKiF9ex_7lb_quic9h3_bridge17parse_status_line0B5_
FNDA:49,_RNCNvNtCs7RDJCKiF9ex_7lb_quic9h3_bridge18stream_h1_response0B5_
FNDA:100,_RNCNvNtCs7RDJCKiF9ex_7lb_quic9h3_bridge18stream_h2_response0B5_
FNDA:52,_RNCNvNtCs7RDJCKiF9ex_7lb_quic9h3_bridge20h3_to_h1_stream_resp0B5_
FNDA:77,_RNCNvNtCs7RDJCKiF9ex_7lb_quic9h3_bridge20h3_to_h2_stream_resp0B5_
FNDA:143,_RNCNvNtCs7RDJCKiF9ex_7lb_quic9h3_bridge20h3_to_h3_stream_resp0B5_
FNDA:143,_RNCNvNtCs7RDJCKiF9ex_7lb_quic9h3_bridge29stream_request_to_h3_upstream0B5_
FNDA:0,_RNvXNtCs48r2xzLZq6T_7lb_quic9h3_bridgeNtB2_9H3RequestNtNtCs1p5UDGgVI4d_4core7default7Default7default
FNDA:25,_RNvNtNtCs48r2xzLZq6T_7lb_quic9h3_bridge5tests1h
FNDA:1,_RNvNtNtCs48r2xzLZq6T_7lb_quic9h3_bridge5testss_27s7_j2_request_send_decision
FNDA:1,_RNvNtNtCs48r2xzLZq6T_7lb_quic9h3_bridge5testss_28pseudo_12_duplicate_rejected
FNDA:1,_RNvNtNtCs48r2xzLZq6T_7lb_quic9h3_bridge5testss_28pseudo_connect_request_rules
FNDA:1,_RNvNtNtCs48r2xzLZq6T_7lb_quic9h3_bridge5testss_34chunk_decoder_decodes_split_chunks
FNDA:1,_RNvNtNtCs48r2xzLZq6T_7lb_quic9h3_bridge5testss_36g5_h3reqabort_display_and_error_impl
FNDA:1,_RNvNtNtCs48r2xzLZq6T_7lb_quic9h3_bridge5testss_36pseudo_13_missing_mandatory_rejected
FNDA:1,_RNvNtNtCs48r2xzLZq6T_7lb_quic9h3_bridge5testss_37pseudo_ws_duplicate_protocol_rejected
FNDA:1,_RNvNtNtCs48r2xzLZq6T_7lb_quic9h3_bridge5testss_38pseudo_15_after_regular_field_rejected
FNDA:1,_RNvNtNtCs48r2xzLZq6T_7lb_quic9h3_bridge5testss_39chunk_decoder_parses_trailer_section_c4
FNDA:1,_RNvNtNtCs48r2xzLZq6T_7lb_quic9h3_bridge5testss_39chunk_decoder_tolerates_chunk_extension
FNDA:1,_RNvNtNtCs48r2xzLZq6T_7lb_quic9h3_bridge5testss_40pseudo_14_prohibited_or_unknown_rejected
FNDA:1,_RNvNtNtCs48r2xzLZq6T_7lb_quic9h3_bridge5testss_42chunk_decoder_rejects_malformed_framing_c3
FNDA:1,_RNvNtNtCs48r2xzLZq6T_7lb_quic9h3_bridge5testss_42pseudo_ws_protocol_requires_connect_method
FNDA:1,_RNvNtNtCs48r2xzLZq6T_7lb_quic9h3_bridge5testss_46pseudo_valid_request_accepted_negative_control
FNDA:1,_RNvNtNtCs48r2xzLZq6T_7lb_quic9h3_bridge5testss_48pseudo_normal_request_unchanged_under_ws_enabled
FNDA:1,_RNvNtNtCs48r2xzLZq6T_7lb_quic9h3_bridge5testss_48pseudo_ws_extended_connect_accepted_when_enabled
FNDA:1,_RNvNtNtCs48r2xzLZq6T_7lb_quic9h3_bridge5testss_49g5_h2_request_body_from_rx_head_construction_arms
FNDA:1,_RNvNtNtCs48r2xzLZq6T_7lb_quic9h3_bridge5testss_49pseudo_classic_connect_unchanged_under_ws_enabled
FNDA:1,_RNvNtNtCs48r2xzLZq6T_7lb_quic9h3_bridge5testss_49pseudo_ws_extended_connect_rejected_when_disabled
FNDA:1,_RNvNtNtCs48r2xzLZq6T_7lb_quic9h3_bridge5testss_49s6_i2_h3_req_stream_body_frame_and_abort_contract
FNDA:1,_RNvNtNtCs48r2xzLZq6T_7lb_quic9h3_bridge5testss_50g5_h3_to_h2_stream_resp_inline_413_and_502_no_dial
FNDA:1,_RNvNtNtCs48r2xzLZq6T_7lb_quic9h3_bridge5testss_51pseudo_13_absent_authority_rejected_for_http_scheme
FNDA:1,_RNvNtNtCs48r2xzLZq6T_7lb_quic9h3_bridge5testss_51pseudo_ws_extended_connect_requires_scheme_and_path
FNDA:1,_RNvNtNtCs48r2xzLZq6T_7lb_quic9h3_bridge5testss_52s12_decoded_sink_on_head_forwards_full_nonpseudo_set
FNDA:1,_RNvNtNtCs48r2xzLZq6T_7lb_quic9h3_bridge5testss_55s12_decoded_sink_on_trailers_emits_h3respevent_trailers
FNDA:3,_RNvMs0_NtCs48r2xzLZq6T_7lb_quic9h3_bridgeNtB5_12ChunkDecoder13take_trailers
FNDA:11,_RNvMs0_NtCs48r2xzLZq6T_7lb_quic9h3_bridgeNtB5_12ChunkDecoder21parse_trailer_section
FNDA:12,_RNvMs0_NtCs48r2xzLZq6T_7lb_quic9h3_bridgeNtB5_12ChunkDecoder3new
FNDA:17,_RNvMs0_NtCs48r2xzLZq6T_7lb_quic9h3_bridgeNtB5_12ChunkDecoder4feed
FNDA:1,_RNvMs4_NtCs48r2xzLZq6T_7lb_quic9h3_bridgeNtB5_9H3RespOut11on_trailers
FNDA:0,_RNvMs4_NtCs48r2xzLZq6T_7lb_quic9h3_bridgeNtB5_9H3RespOut6inline
FNDA:0,_RNvMs4_NtCs48r2xzLZq6T_7lb_quic9h3_bridgeNtB5_9H3RespOut6on_end
FNDA:0,_RNvMs4_NtCs48r2xzLZq6T_7lb_quic9h3_bridgeNtB5_9H3RespOut7on_data
FNDA:1,_RNvMs4_NtCs48r2xzLZq6T_7lb_quic9h3_bridgeNtB5_9H3RespOut7on_head
FNDA:0,_RNvMs4_NtCs48r2xzLZq6T_7lb_quic9h3_bridgeNtB5_9H3RespOut8on_reset
FNDA:0,_RNvMs_NtCs48r2xzLZq6T_7lb_quic9h3_bridgeNtB4_9H3Request12from_headers
FNDA:0,_RNvNCNvNtCs48r2xzLZq6T_7lb_quic9h3_bridge20h3_to_h1_stream_resp06inline
FNDA:2,_RNvNCNvNtCs48r2xzLZq6T_7lb_quic9h3_bridge20h3_to_h2_stream_resp06inline
FNDA:0,_RNvNtCs48r2xzLZq6T_7lb_quic9h3_bridge13build_h1_head
FNDA:0,_RNvNtCs48r2xzLZq6T_7lb_quic9h3_bridge15find_header_sep
FNDA:0,_RNvNtCs48r2xzLZq6T_7lb_quic9h3_bridge15record_inflight
FNDA:0,_RNvNtCs48r2xzLZq6T_7lb_quic9h3_bridge15record_retained
FNDA:0,_RNvNtCs48r2xzLZq6T_7lb_quic9h3_bridge16write_body_chunk
FNDA:0,_RNvNtCs48r2xzLZq6T_7lb_quic9h3_bridge16write_h1_request
FNDA:0,_RNvNtCs48r2xzLZq6T_7lb_quic9h3_bridge17parse_status_line
FNDA:0,_RNvNtCs48r2xzLZq6T_7lb_quic9h3_bridge18stream_h1_response
FNDA:0,_RNvNtCs48r2xzLZq6T_7lb_quic9h3_bridge18stream_h2_response
FNDA:9,_RNvNtCs48r2xzLZq6T_7lb_quic9h3_bridge19j2_req_event_action
FNDA:0,_RNvNtCs48r2xzLZq6T_7lb_quic9h3_bridge20h3_to_h1_stream_resp
FNDA:2,_RNvNtCs48r2xzLZq6T_7lb_quic9h3_bridge20h3_to_h2_stream_resp
FNDA:0,_RNvNtCs48r2xzLZq6T_7lb_quic9h3_bridge20h3_to_h3_stream_resp
FNDA:0,_RNvNtCs48r2xzLZq6T_7lb_quic9h3_bridge20record_resp_retained
FNDA:0,_RNvNtCs48r2xzLZq6T_7lb_quic9h3_bridge22is_response_hop_by_hop
FNDA:6,_RNvNtCs48r2xzLZq6T_7lb_quic9h3_bridge23h2_request_body_from_rx
FNDA:0,_RNvNtCs48r2xzLZq6T_7lb_quic9h3_bridge29stream_request_to_h3_upstream
FNDA:26,_RNvNtCs48r2xzLZq6T_7lb_quic9h3_bridge31validate_request_pseudo_headers
FNDA:2,_RNvXs1_NtCs48r2xzLZq6T_7lb_quic9h3_bridgeNtB5_10H3ReqAbortNtNtCs1p5UDGgVI4d_4core3fmt7Display3fmt
FNDA:9,_RNvXs3_NtCs48r2xzLZq6T_7lb_quic9h3_bridgeNtB5_15H3ReqStreamBodyNtCs5BnnnQOtX03_9http_body4Body10poll_frame
FNDA:1,_RNCNCNvNtNtCs48r2xzLZq6T_7lb_quic9h3_bridge5testss_49g5_h2_request_body_from_rx_head_construction_arms00B9_
FNDA:90,_RNCNvNtNtCs48r2xzLZq6T_7lb_quic9h3_bridge5tests1h0B7_
FNDA:1,_RNCNvNtNtCs48r2xzLZq6T_7lb_quic9h3_bridge5testss_37pseudo_ws_duplicate_protocol_rejected0B7_
FNDA:1,_RNCNvNtNtCs48r2xzLZq6T_7lb_quic9h3_bridge5testss_42pseudo_ws_protocol_requires_connect_method0B7_
FNDA:1,_RNCNvNtNtCs48r2xzLZq6T_7lb_quic9h3_bridge5testss_49g5_h2_request_body_from_rx_head_construction_arms0B7_
FNDA:1,_RNCNvNtNtCs48r2xzLZq6T_7lb_quic9h3_bridge5testss_49pseudo_classic_connect_unchanged_under_ws_enabled0B7_
FNDA:1,_RNCNvNtNtCs48r2xzLZq6T_7lb_quic9h3_bridge5testss_49s6_i2_h3_req_stream_body_frame_and_abort_contract0B7_
FNDA:1,_RNCNvNtNtCs48r2xzLZq6T_7lb_quic9h3_bridge5testss_50g5_h3_to_h2_stream_resp_inline_413_and_502_no_dial0B7_
FNDA:1,_RNCNvNtNtCs48r2xzLZq6T_7lb_quic9h3_bridge5testss_51pseudo_ws_extended_connect_requires_scheme_and_path0B7_
FNDA:1,_RNCNvNtNtCs48r2xzLZq6T_7lb_quic9h3_bridge5testss_51pseudo_ws_extended_connect_requires_scheme_and_paths0_0B7_
FNDA:1,_RNCNvNtNtCs48r2xzLZq6T_7lb_quic9h3_bridge5testss_51pseudo_ws_extended_connect_requires_scheme_and_paths_0B7_
FNDA:1,_RNCNvNtNtCs48r2xzLZq6T_7lb_quic9h3_bridge5testss_52s12_decoded_sink_on_head_forwards_full_nonpseudo_set0B7_
FNDA:1,_RNCNvNtNtCs48r2xzLZq6T_7lb_quic9h3_bridge5testss_55s12_decoded_sink_on_trailers_emits_h3respevent_trailers0B7_
FNDA:0,_RNCNCNCNvNtCs48r2xzLZq6T_7lb_quic9h3_bridge18stream_h2_response0s2_00B9_
FNDA:0,_RNCNCNvMs4_NtCs48r2xzLZq6T_7lb_quic9h3_bridgeNtB9_9H3RespOut11on_trailers00Bb_
FNDA:0,_RNCNCNvMs4_NtCs48r2xzLZq6T_7lb_quic9h3_bridgeNtB9_9H3RespOut7on_head00Bb_
FNDA:0,_RNCNCNvNtCs48r2xzLZq6T_7lb_quic9h3_bridge16write_h1_request00B7_
FNDA:0,_RNCNCNvNtCs48r2xzLZq6T_7lb_quic9h3_bridge18stream_h1_response00B7_
FNDA:0,_RNCNCNvNtCs48r2xzLZq6T_7lb_quic9h3_bridge18stream_h1_response0s0_0B7_
FNDA:0,_RNCNCNvNtCs48r2xzLZq6T_7lb_quic9h3_bridge18stream_h1_response0s1_0B7_
FNDA:0,_RNCNCNvNtCs48r2xzLZq6T_7lb_quic9h3_bridge18stream_h1_response0s_0B7_
FNDA:0,_RNCNCNvNtCs48r2xzLZq6T_7lb_quic9h3_bridge18stream_h2_response00B7_
FNDA:0,_RNCNCNvNtCs48r2xzLZq6T_7lb_quic9h3_bridge18stream_h2_response0s0_0B7_
FNDA:0,_RNCNCNvNtCs48r2xzLZq6T_7lb_quic9h3_bridge18stream_h2_response0s1_0B7_
FNDA:0,_RNCNCNvNtCs48r2xzLZq6T_7lb_quic9h3_bridge18stream_h2_response0s2_0B7_
FNDA:0,_RNCNCNvNtCs48r2xzLZq6T_7lb_quic9h3_bridge18stream_h2_response0s3_0B7_
FNDA:0,_RNCNCNvNtCs48r2xzLZq6T_7lb_quic9h3_bridge18stream_h2_response0s_0B7_
FNDA:0,_RNCNCNvNtCs48r2xzLZq6T_7lb_quic9h3_bridge29stream_request_to_h3_upstream00B7_
FNDA:0,_RNCNCNvNtCs48r2xzLZq6T_7lb_quic9h3_bridge29stream_request_to_h3_upstream0s0_0B7_
FNDA:0,_RNCNCNvNtCs48r2xzLZq6T_7lb_quic9h3_bridge29stream_request_to_h3_upstream0s1_0B7_
FNDA:0,_RNCNCNvNtCs48r2xzLZq6T_7lb_quic9h3_bridge29stream_request_to_h3_upstream0s2_0B7_
FNDA:0,_RNCNCNvNtCs48r2xzLZq6T_7lb_quic9h3_bridge29stream_request_to_h3_upstream0s3_0B7_
FNDA:0,_RNCNCNvNtCs48r2xzLZq6T_7lb_quic9h3_bridge29stream_request_to_h3_upstream0s4_0B7_
FNDA:0,_RNCNCNvNtCs48r2xzLZq6T_7lb_quic9h3_bridge29stream_request_to_h3_upstream0s_0B7_
FNDA:0,_RNCNCNvNtCs48r2xzLZq6T_7lb_quic9h3_bridge29stream_request_to_h3_upstream0si_0B7_
FNDA:96,_RNCNvMs0_NtCs48r2xzLZq6T_7lb_quic9h3_bridgeNtB7_12ChunkDecoder21parse_trailer_section0B9_
FNDA:312,_RNCNvMs0_NtCs48r2xzLZq6T_7lb_quic9h3_bridgeNtB7_12ChunkDecoder4feed0B9_
FNDA:19,_RNCNvMs0_NtCs48r2xzLZq6T_7lb_quic9h3_bridgeNtB7_12ChunkDecoder4feeds_0B9_
FNDA:1,_RNCNvMs4_NtCs48r2xzLZq6T_7lb_quic9h3_bridgeNtB7_9H3RespOut11on_trailers0B9_
FNDA:0,_RNCNvMs4_NtCs48r2xzLZq6T_7lb_quic9h3_bridgeNtB7_9H3RespOut6inline0B9_
FNDA:0,_RNCNvMs4_NtCs48r2xzLZq6T_7lb_quic9h3_bridgeNtB7_9H3RespOut6on_end0B9_
FNDA:0,_RNCNvMs4_NtCs48r2xzLZq6T_7lb_quic9h3_bridgeNtB7_9H3RespOut7on_data0B9_
FNDA:1,_RNCNvMs4_NtCs48r2xzLZq6T_7lb_quic9h3_bridgeNtB7_9H3RespOut7on_head0B9_
FNDA:0,_RNCNvMs4_NtCs48r2xzLZq6T_7lb_quic9h3_bridgeNtB7_9H3RespOut8on_reset0B9_
FNDA:0,_RNCNvMs_NtCs48r2xzLZq6T_7lb_quic9h3_bridgeNtB6_9H3Request12from_headers0B8_
FNDA:0,_RNCNvMs_NtCs48r2xzLZq6T_7lb_quic9h3_bridgeNtB6_9H3Request12from_headerss_0B8_
FNDA:0,_RNCNvNCNvNtCs48r2xzLZq6T_7lb_quic9h3_bridge20h3_to_h1_stream_resp06inline0B9_
FNDA:2,_RNCNvNCNvNtCs48r2xzLZq6T_7lb_quic9h3_bridge20h3_to_h2_stream_resp06inline0B9_
FNDA:0,_RNCNvNtCs48r2xzLZq6T_7lb_quic9h3_bridge15find_header_sep0B5_
FNDA:0,_RNCNvNtCs48r2xzLZq6T_7lb_quic9h3_bridge16write_body_chunk0B5_
FNDA:0,_RNCNvNtCs48r2xzLZq6T_7lb_quic9h3_bridge16write_h1_request0B5_
FNDA:0,_RNCNvNtCs48r2xzLZq6T_7lb_quic9h3_bridge17parse_status_line0B5_
FNDA:0,_RNCNvNtCs48r2xzLZq6T_7lb_quic9h3_bridge18stream_h1_response0B5_
FNDA:0,_RNCNvNtCs48r2xzLZq6T_7lb_quic9h3_bridge18stream_h2_response0B5_
FNDA:0,_RNCNvNtCs48r2xzLZq6T_7lb_quic9h3_bridge20h3_to_h1_stream_resp0B5_
FNDA:2,_RNCNvNtCs48r2xzLZq6T_7lb_quic9h3_bridge20h3_to_h2_stream_resp0B5_
FNDA:0,_RNCNvNtCs48r2xzLZq6T_7lb_quic9h3_bridge20h3_to_h3_stream_resp0B5_
FNDA:0,_RNCNvNtCs48r2xzLZq6T_7lb_quic9h3_bridge29stream_request_to_h3_upstream0B5_
FNF:118
FNH:111
DA:307,8307
DA:309,8307
DA:310,8307
DA:311,176
DA:312,176
DA:313,176
DA:314,176
DA:315,176
DA:316,176
DA:317,176
DA:318,0
DA:321,8307
DA:344,423270
DA:346,423270
DA:347,423270
DA:348,125
DA:349,125
DA:350,125
DA:351,125
DA:352,125
DA:353,125
DA:354,125
DA:355,0
DA:358,423270
DA:386,0
DA:387,0
DA:388,0
DA:389,0
DA:390,0
DA:391,0
DA:392,0
DA:393,0
DA:394,0
DA:403,274
DA:404,274
DA:405,274
DA:406,274
DA:407,274
DA:408,1510
DA:409,1236
DA:410,1236
DA:411,962
DA:412,688
DA:413,414
DA:414,274
DA:415,274
DA:416,140
DA:420,274
DA:421,274
DA:422,274
DA:423,274
DA:429,274
DA:431,274
DA:489,301
DA:490,301
DA:491,301
DA:492,301
DA:493,301
DA:494,301
DA:495,301
DA:496,301
DA:497,301
DA:498,301
DA:499,301
DA:501,1619
DA:502,1325
DA:505,1182
DA:506,1
DA:507,1181
DA:508,1181
DA:509,1181
DA:510,301
DA:511,1
DA:512,300
DA:513,300
DA:515,880
DA:516,291
DA:517,0
DA:518,291
DA:519,291
DA:521,589
DA:522,293
DA:523,1
DA:524,292
DA:525,292
DA:527,296
DA:528,286
DA:529,0
DA:530,286
DA:531,286
DA:538,10
DA:539,7
DA:540,1
DA:541,6
DA:542,6
DA:549,3
DA:553,143
DA:556,143
DA:557,1
DA:558,142
DA:569,9
DA:570,1
DA:571,293
DA:575,4
DA:576,1
DA:577,3
DA:578,1
DA:579,2
DA:580,1
DA:582,1
DA:586,5
DA:587,2
DA:588,3
DA:589,1
DA:591,2
DA:599,284
DA:600,1
DA:601,283
DA:602,283
DA:603,1
DA:605,282
DA:606,1
DA:607,281
DA:611,281
DA:612,281
DA:613,281
DA:614,2
DA:615,279
DA:616,279
DA:619,301
DA:621,98
DA:622,2734
DA:623,98
DA:625,48
DA:626,48
DA:627,48
DA:628,48
DA:629,48
DA:630,48
DA:631,48
DA:663,229
DA:664,229
DA:665,229
DA:731,21
DA:732,21
DA:733,21
DA:734,21
DA:735,21
DA:736,21
DA:737,21
DA:738,21
DA:739,21
DA:740,21
DA:745,7
DA:746,7
DA:747,7
DA:753,115
DA:754,115
DA:756,246
DA:760,0
DA:761,246
DA:762,246
DA:769,76
DA:770,170
DA:771,170
DA:774,30
DA:775,0
DA:777,30
DA:778,2
DA:779,28
DA:780,28
DA:781,28
DA:783,88
DA:784,88
DA:785,29
DA:786,59
DA:787,59
DA:788,59
DA:789,0
DA:791,59
DA:792,59
DA:793,59
DA:797,413
DA:798,3
DA:799,0
DA:800,3
DA:801,3
DA:803,49
DA:804,1
DA:805,48
DA:806,48
DA:807,0
DA:811,89
DA:812,48
DA:813,48
DA:814,48
DA:815,48
DA:816,1
DA:817,47
DA:818,44
DA:819,47
DA:820,44
DA:821,44
DA:830,13
DA:831,13
DA:832,31
DA:833,31
DA:837,115
DA:855,76
DA:858,83
DA:859,72
DA:860,1
DA:861,71
DA:862,71
DA:863,11
DA:864,972
DA:867,66
DA:868,0
DA:869,66
DA:870,66
DA:872,16
DA:874,7
DA:875,7
DA:876,7
DA:877,9
DA:878,9
DA:879,9
DA:883,9
DA:884,8
DA:885,8
DA:886,1
DA:887,7
DA:891,7
DA:892,0
DA:893,7
DA:894,7
DA:895,7
DA:897,76
DA:934,49
DA:935,49
DA:936,49
DA:937,49
DA:938,49
DA:949,49
DA:950,49
DA:951,48
DA:952,98
DA:953,48
DA:954,50
DA:955,50
DA:956,0
DA:957,0
DA:958,50
DA:959,50
DA:960,50
DA:962,0
DA:963,0
DA:966,50
DA:968,1
DA:969,1
DA:970,49
DA:971,49
DA:975,48
DA:976,48
DA:978,48
DA:980,0
DA:981,0
DA:982,48
DA:983,48
DA:984,0
DA:985,0
DA:986,0
DA:989,48
DA:990,48
DA:991,48
DA:992,48
DA:993,48
DA:995,48
DA:996,0
DA:997,0
DA:998,0
DA:1001,48
DA:1002,48
DA:1010,48
DA:1011,138
DA:1012,90
DA:1013,0
DA:1015,90
DA:1016,90
DA:1017,39
DA:1018,39
DA:1020,0
DA:1021,0
DA:1024,51
DA:1025,9
DA:1026,42
DA:1027,3
DA:1028,39
DA:1032,48
DA:1033,9
DA:1034,0
DA:1035,0
DA:1036,9
DA:1037,9
DA:1038,39
DA:1039,39
DA:1041,0
DA:1049,48
DA:1050,39
DA:1051,39
DA:1058,48
DA:1059,48
DA:1060,48
DA:1061,0
DA:1062,0
DA:1063,48
DA:1064,48
DA:1065,48
DA:1066,48
DA:1067,48
DA:1068,48
DA:1069,48
DA:1089,48
DA:1090,39
DA:1091,39
DA:1093,39
DA:1094,37
DA:1096,0
DA:1097,0
DA:1098,37
DA:1099,37
DA:1100,37
DA:1101,37
DA:1102,2
DA:1103,18096
DA:1104,18065
DA:1105,18065
DA:1106,18065
DA:1107,18063
DA:1109,2
DA:1110,2
DA:1113,18063
DA:1115,2
DA:1116,2
DA:1117,18061
DA:1118,18061
DA:1119,18061
DA:1120,18061
DA:1124,9
DA:1125,9
DA:1126,9
DA:1127,9
DA:1128,9
DA:1129,3
DA:1130,3
DA:1131,6
DA:1132,6
DA:1133,6
DA:1134,6
DA:1135,0
DA:1136,0
DA:1143,95
DA:1144,91
DA:1145,91
DA:1147,0
DA:1148,0
DA:1151,91
DA:1154,2
DA:1155,2
DA:1156,89
DA:1157,89
DA:1158,0
DA:1159,0
DA:1160,89
DA:1161,89
DA:1162,27
DA:1163,27
DA:1164,62
DA:1174,4
DA:1175,4
DA:1176,4
DA:1177,2
DA:1178,0
DA:1179,0
DA:1180,2
DA:1181,2
DA:1182,2
DA:1185,0
DA:1186,0
DA:1187,0
DA:1188,0
DA:1190,0
DA:1191,0
DA:1193,0
DA:1194,0
DA:1197,0
DA:1198,0
DA:1199,0
DA:1200,0
DA:1201,0
DA:1207,35
DA:1208,35
DA:1209,49
DA:1250,100
DA:1251,100
DA:1252,100
DA:1253,100
DA:1254,100
DA:1261,100
DA:1267,100
DA:1268,100
DA:1269,100
DA:1270,100
DA:1271,100
DA:1281,100
DA:1282,283
DA:1283,183
DA:1284,183
DA:1285,6
DA:1286,177
DA:1287,177
DA:1288,177
DA:1289,177
DA:1291,100
DA:1292,6
DA:1293,94
DA:1297,183
DA:1298,100
DA:1299,10
DA:1300,10
DA:1301,90
DA:1302,90
DA:1303,90
DA:1304,90
DA:1305,90
DA:1306,90
DA:1307,90
DA:1328,3754
DA:1329,3675
DA:1330,3675
DA:1334,0
DA:1335,0
DA:1338,3675
DA:1340,3602
DA:1341,3602
DA:1342,3601
DA:1343,1
DA:1344,73
DA:1348,73
DA:1349,73
DA:1350,144
DA:1351,144
DA:1352,144
DA:1353,144
DA:1354,144
DA:1355,144
DA:1356,73
DA:1357,73
DA:1360,144
DA:1361,73
DA:1362,1
DA:1363,1
DA:1364,72
DA:1365,72
DA:1366,0
DA:1367,0
DA:1373,79
DA:1374,79
DA:1375,100
DA:1387,52
DA:1388,52
DA:1389,52
DA:1390,52
DA:1391,52
DA:1392,52
DA:1393,52
DA:1394,52
DA:1395,52
DA:1396,52
DA:1397,52
DA:1398,52
DA:1399,44
DA:1400,0
DA:1401,0
DA:1402,0
DA:1403,0
DA:1404,0
DA:1405,8
DA:1407,52
DA:1408,52
DA:1409,52
DA:1410,52
DA:1432,702
DA:1434,702
DA:1435,702
DA:1436,18
DA:1437,18
DA:1438,18
DA:1439,18
DA:1440,18
DA:1441,18
DA:1442,18
DA:1443,0
DA:1446,702
DA:1456,658
DA:1457,658
DA:1458,0
DA:1459,658
DA:1460,658
DA:1461,658
DA:1462,658
DA:1463,657
DA:1464,656
DA:1466,0
DA:1468,656
DA:1469,658
DA:1527,52
DA:1528,52
DA:1529,52
DA:1530,52
DA:1531,52
DA:1534,52
DA:1535,52
DA:1537,44
DA:1542,0
DA:1544,8
DA:1545,8
DA:1546,2
DA:1547,0
DA:1549,2
DA:1551,2
DA:1552,8
DA:1553,0
DA:1554,8
DA:1558,52
DA:1560,52
DA:1561,52
DA:1563,52
DA:1564,0
DA:1565,0
DA:1566,52
DA:1568,52
DA:1569,8
DA:1570,1
DA:1571,1
DA:1572,7
DA:1573,44
DA:1580,51
DA:1581,700
DA:1582,656
DA:1583,650
DA:1584,650
DA:1585,650
DA:1586,1
DA:1587,1
DA:1588,649
DA:1616,5
DA:1617,5
DA:1638,1
DA:1639,0
DA:1640,0
DA:1642,1
DA:1646,49
DA:1650,0
DA:1651,0
DA:1652,49
DA:1653,49
DA:1654,5
DA:1655,0
DA:1656,0
DA:1657,5
DA:1658,44
DA:1660,49
DA:1661,0
DA:1662,0
DA:1663,49
DA:1664,49
DA:1665,52
DA:1696,52
DA:1697,52
DA:1698,52
DA:1699,52
DA:1700,52
DA:1701,52
DA:1702,52
DA:1703,52
DA:1709,3
DA:1710,3
DA:1711,3
DA:1712,3
DA:1713,3
DA:1714,3
DA:1715,3
DA:1716,3
DA:1717,3
DA:1718,0
DA:1719,3
DA:1720,3
DA:1722,52
DA:1723,52
DA:1724,0
DA:1725,0
DA:1726,0
DA:1728,0
DA:1732,49
DA:1733,52
DA:1734,0
DA:1735,0
DA:1736,0
DA:1739,52
DA:1745,49
DA:1747,1
DA:1748,1
DA:1750,1
DA:1751,1
DA:1754,2
DA:1755,2
DA:1756,2
DA:1767,49
DA:1768,49
DA:1769,52
DA:1780,2
DA:1781,2
DA:1782,2
DA:1813,8999
DA:1814,8999
DA:1815,8999
DA:1816,8999
DA:1818,8999
DA:1819,8999
DA:1820,2
DA:1821,8997
DA:1822,8997
DA:1826,75
DA:1827,8922
DA:1828,8922
DA:1829,4134
DA:1830,4713
DA:1831,4713
DA:1837,72
DA:1838,72
DA:1848,3
DA:1849,3
DA:1852,8999
DA:1891,83
DA:1892,83
DA:1893,83
DA:1894,83
DA:1895,83
DA:1896,83
DA:1900,83
DA:1901,83
DA:1902,1
DA:1904,82
DA:1906,83
DA:1907,83
DA:1908,223
DA:1909,140
DA:1910,1
DA:1911,139
DA:1912,139
DA:1915,82
DA:1918,9
DA:1919,9
DA:1920,9
DA:1923,2
DA:1929,72
DA:1930,72
DA:1931,72
DA:1932,72
DA:1933,72
DA:1936,81
DA:1937,83
DA:1959,79
DA:1960,79
DA:1961,79
DA:1962,79
DA:1963,79
DA:1964,79
DA:1965,79
DA:1966,79
DA:1972,5
DA:1973,5
DA:1974,5
DA:1975,5
DA:1976,5
DA:1977,5
DA:1978,5
DA:1979,5
DA:1980,5
DA:1981,0
DA:1982,5
DA:1983,5
DA:1987,79
DA:1989,79
DA:1990,77
DA:1992,1
DA:1993,1
DA:1996,1
DA:1997,1
DA:2001,77
DA:2002,74
DA:2003,3
DA:2004,3
DA:2005,3
DA:2006,3
DA:2010,74
DA:2011,79
DA:2077,118
DA:2078,118
DA:2079,118
DA:2084,118
DA:2085,118
DA:2086,118
DA:2087,118
DA:2088,118
DA:2089,118
DA:2090,118
DA:2091,118
DA:2092,0
DA:2093,118
DA:2095,0
DA:2096,0
DA:2097,0
DA:2098,0
DA:2099,0
DA:2100,0
DA:2101,0
DA:2102,0
DA:2103,0
DA:2104,0
DA:2105,0
DA:2106,0
DA:2107,0
DA:2110,118
DA:2125,21
DA:2126,21
DA:2127,20
DA:2142,20
DA:2143,20
DA:2144,50
DA:2145,30
DA:2146,20
DA:2147,20
DA:2148,20
DA:2149,10
DA:2150,10
DA:2151,10
DA:2157,20
DA:2158,20
DA:2159,0
DA:2160,0
DA:2161,20
DA:2162,20
DA:2163,20
DA:2164,20
DA:2166,1
DA:2167,1
DA:2168,1
DA:2169,5
DA:2170,4
DA:2171,1
DA:2172,1
DA:2173,1
DA:2174,3
DA:2175,3
DA:2176,3
DA:2178,1
DA:2179,1
DA:2180,1
DA:2183,21
DA:2190,37375
DA:2191,37375
DA:2192,37375
DA:2195,37375
DA:2196,37375
DA:2197,0
DA:2198,0
DA:2199,37375
DA:2200,37375
DA:2201,37375
DA:2202,37375
DA:2204,0
DA:2205,0
DA:2206,0
DA:2207,0
DA:2208,0
DA:2209,0
DA:2210,0
DA:2211,0
DA:2212,0
DA:2215,37375
DA:2223,2
DA:2224,2
DA:2225,1
DA:2230,1
DA:2231,1
DA:2232,0
DA:2233,0
DA:2234,1
DA:2235,1
DA:2236,1
DA:2237,1
DA:2239,1
DA:2240,1
DA:2241,1
DA:2242,1
DA:2244,2
DA:2247,12
DA:2248,12
DA:2249,12
DA:2250,12
DA:2251,12
DA:2252,12
DA:2253,0
DA:2254,0
DA:2255,0
DA:2256,0
DA:2258,12
DA:2263,14
DA:2264,14
DA:2265,14
DA:2266,14
DA:2268,0
DA:2269,0
DA:2272,14
DA:2287,143
DA:2288,143
DA:2289,143
DA:2290,143
DA:2291,143
DA:2292,143
DA:2293,143
DA:2294,143
DA:2295,143
DA:2300,143
DA:2301,0
DA:2303,143
DA:2305,143
DA:2306,143
DA:2307,143
DA:2308,143
DA:2309,143
DA:2311,143
DA:2312,143
DA:2313,143
DA:2314,143
DA:2315,143
DA:2316,143
DA:2317,143
DA:2415,143
DA:2416,143
DA:2417,143
DA:2418,143
DA:2419,143
DA:2420,143
DA:2421,143
DA:2422,143
DA:2423,143
DA:2427,143
DA:2436,143
DA:2437,143
DA:2438,143
DA:2439,143
DA:2440,0
DA:2441,0
DA:2442,0
DA:2443,0
DA:2444,76
DA:2446,0
DA:2447,0
DA:2449,67
DA:2450,67
DA:2451,67
DA:2452,67
DA:2456,143
DA:2457,25
DA:2458,118
DA:2459,118
DA:2460,118
DA:2461,118
DA:2464,25
DA:2465,0
DA:2466,0
DA:2467,0
DA:2470,25
DA:2471,25
DA:2472,25
DA:2473,25
DA:2474,25
DA:2476,0
DA:2477,0
DA:2478,0
DA:2487,25
DA:2488,25
DA:2490,25
DA:2491,0
DA:2492,0
DA:2493,0
DA:2494,0
DA:2495,0
DA:2503,25
DA:2504,25
DA:2505,25
DA:2506,100
DA:2507,25
DA:2508,25
DA:2509,25
DA:2510,0
DA:2511,0
DA:2512,0
DA:2513,0
DA:2514,0
DA:2517,25
DA:2523,25
DA:2524,25
DA:2525,0
DA:2526,0
DA:2527,0
DA:2528,0
DA:2529,0
DA:2530,0
DA:2531,0
DA:2532,0
DA:2533,0
DA:2534,0
DA:2535,0
DA:2536,25
DA:2549,25
DA:2550,8
DA:2551,8
DA:2552,0
DA:2557,17
DA:2560,25
DA:2561,25
DA:2562,25
DA:2563,25
DA:2564,25
DA:2565,25
DA:2582,25
DA:2583,25
DA:2584,100
DA:2585,25
DA:2586,25
DA:2587,25
DA:2636,90251
DA:2639,90249
DA:2644,90249
DA:2645,2572
DA:2646,2572
DA:2647,2571
DA:2648,2571
DA:2649,2571
DA:2650,2571
DA:2651,2571
DA:2652,2571
DA:2653,2254
DA:2654,2254
DA:2656,0
DA:2657,1
DA:2658,1
DA:2659,1
DA:2660,1
DA:2661,1
DA:2662,1
DA:2663,1
DA:2664,1
DA:2665,1
DA:2668,87677
DA:2671,141403
DA:2672,51155
DA:2673,51155
DA:2674,0
DA:2675,51155
DA:2680,127308
DA:2681,22
DA:2682,22
DA:2683,22
DA:2684,32
DA:2686,32
DA:2687,32
DA:2688,32
DA:2689,32
DA:2690,32
DA:2691,22
DA:2692,22
DA:2697,50
DA:2698,30
DA:2699,20
DA:2700,20
DA:2701,8
DA:2702,8
DA:2704,20
DA:2705,20
DA:2709,2
DA:2710,1
DA:2711,1
DA:2712,1
DA:2713,1
DA:2714,1
DA:2720,1
DA:2721,1
DA:2722,1
DA:2723,1
DA:2724,1
DA:2725,0
DA:2726,0
DA:2727,0
DA:2730,0
DA:2733,37040
DA:2734,74413
DA:2736,13
DA:2748,13
DA:2749,13
DA:2761,13
DA:2762,0
DA:2763,13
DA:2764,13
DA:2766,13
DA:2767,13
DA:2768,13
DA:2769,0
DA:2771,0
DA:2772,0
DA:2774,0
DA:2775,13
DA:2776,0
DA:2777,13
DA:2778,1
DA:2782,0
DA:2783,0
DA:2785,1
DA:2786,12
DA:2787,12
DA:2788,12
DA:2789,13
DA:2791,3
DA:2793,3
DA:2796,0
DA:2798,3
DA:2799,3
DA:2802,0
DA:2803,90228
DA:2804,2
DA:2809,2
DA:2810,2
DA:2811,2
DA:2820,90228
DA:2821,81164
DA:2822,9065
DA:2824,90228
DA:2825,0
DA:2826,90228
DA:2834,90228
DA:2835,37023
DA:2836,53205
DA:2840,53205
DA:2841,53205
DA:2842,53205
DA:2843,53205
DA:2844,53205
DA:2846,53205
DA:2847,50949
DA:2848,50949
DA:2849,50949
DA:2850,50949
DA:2851,50949
DA:2852,50949
DA:2853,0
DA:2854,0
DA:2855,0
DA:2856,0
DA:2860,2
DA:2861,2
DA:2862,2
DA:2865,53205
DA:2866,2254
DA:2867,2247
DA:2868,2247
DA:2869,2247
DA:2870,0
DA:2871,0
DA:2872,0
DA:2873,0
DA:2874,0
DA:2875,0
DA:2876,0
DA:2877,0
DA:2878,0
DA:2879,0
DA:2880,0
DA:2881,0
DA:2882,0
DA:2883,0
DA:2884,0
DA:2885,0
DA:2886,0
DA:2887,0
DA:2888,0
DA:2889,0
DA:2894,5
DA:2895,5
DA:2896,5
DA:2897,5
DA:2898,5
DA:2899,0
DA:2900,0
DA:2901,0
DA:2902,0
DA:2905,5
DA:2912,2
DA:2913,2
DA:2914,2
DA:2915,2
DA:2916,2
DA:2917,2
DA:2918,2
DA:2923,53203
DA:2927,25
DA:2929,25
DA:2930,12
DA:2931,12
DA:2932,13
DA:2933,13
DA:2936,2
DA:2937,2
DA:2938,11
DA:2940,11
DA:2941,11
DA:2942,143
DA:2987,2263
DA:2988,2260
DA:2989,2249
DA:2990,8
DA:2991,8
DA:2992,1
DA:2994,7
DA:2997,6
DA:2999,2263
DA:3007,25
DA:3008,25
DA:3009,25
DA:3010,90
DA:3011,25
DA:3012,25
DA:3015,1
DA:3019,1
DA:3020,1
DA:3021,1
DA:3022,1
DA:3023,1
DA:3024,1
DA:3025,1
DA:3026,1
DA:3029,1
DA:3030,1
DA:3031,1
DA:3032,1
DA:3033,1
DA:3034,1
DA:3035,1
DA:3036,1
DA:3039,1
DA:3042,1
DA:3043,1
DA:3044,1
DA:3045,0
DA:3048,1
DA:3049,1
DA:3050,1
DA:3051,1
DA:3052,1
DA:3053,1
DA:3054,1
DA:3055,1
DA:3056,0
DA:3058,1
DA:3061,1
DA:3063,1
DA:3064,1
DA:3065,1
DA:3066,1
DA:3067,1
DA:3068,1
DA:3069,1
DA:3070,1
DA:3071,1
DA:3072,1
DA:3073,1
DA:3074,1
DA:3075,1
DA:3076,1
DA:3077,1
DA:3080,1
DA:3082,1
DA:3083,1
DA:3084,1
DA:3085,1
DA:3086,1
DA:3087,1
DA:3088,1
DA:3091,1
DA:3094,1
DA:3095,1
DA:3096,1
DA:3097,1
DA:3098,1
DA:3099,1
DA:3100,1
DA:3101,1
DA:3102,1
DA:3103,1
DA:3104,1
DA:3105,1
DA:3106,1
DA:3107,1
DA:3108,1
DA:3111,1
DA:3113,1
DA:3114,1
DA:3115,1
DA:3116,1
DA:3117,1
DA:3118,1
DA:3119,1
DA:3120,1
DA:3125,1
DA:3127,1
DA:3128,1
DA:3129,1
DA:3130,1
DA:3131,1
DA:3132,1
DA:3133,1
DA:3134,1
DA:3135,1
DA:3136,1
DA:3137,1
DA:3145,1
DA:3146,1
DA:3147,1
DA:3148,1
DA:3149,1
DA:3150,1
DA:3151,1
DA:3152,1
DA:3153,1
DA:3154,1
DA:3155,0
DA:3157,1
DA:3164,1
DA:3165,1
DA:3166,1
DA:3167,1
DA:3168,1
DA:3169,1
DA:3170,1
DA:3171,1
DA:3172,1
DA:3173,1
DA:3174,1
DA:3175,1
DA:3176,0
DA:3178,1
DA:3183,1
DA:3184,1
DA:3185,1
DA:3186,1
DA:3187,1
DA:3188,1
DA:3189,1
DA:3190,1
DA:3191,1
DA:3192,1
DA:3193,0
DA:3195,1
DA:3196,1
DA:3197,1
DA:3198,1
DA:3199,1
DA:3200,1
DA:3201,1
DA:3202,1
DA:3203,1
DA:3204,0
DA:3206,1
DA:3207,1
DA:3208,1
DA:3209,1
DA:3210,1
DA:3211,1
DA:3212,1
DA:3213,1
DA:3214,1
DA:3215,0
DA:3217,1
DA:3222,1
DA:3223,1
DA:3224,1
DA:3225,1
DA:3226,1
DA:3227,1
DA:3228,1
DA:3229,1
DA:3230,1
DA:3231,1
DA:3232,1
DA:3233,0
DA:3235,1
DA:3241,1
DA:3242,1
DA:3243,1
DA:3244,1
DA:3245,1
DA:3246,1
DA:3247,1
DA:3248,1
DA:3249,1
DA:3250,1
DA:3251,1
DA:3252,0
DA:3254,1
DA:3258,1
DA:3259,1
DA:3260,1
DA:3261,1
DA:3262,1
DA:3263,1
DA:3264,1
DA:3265,1
DA:3266,1
DA:3267,1
DA:3268,1
DA:3269,1
DA:3270,0
DA:3272,1
DA:3278,1
DA:3279,1
DA:3280,1
DA:3281,1
DA:3282,1
DA:3283,1
DA:3284,1
DA:3285,1
DA:3286,1
DA:3287,1
DA:3296,1
DA:3301,1
DA:3302,1
DA:3303,1
DA:3304,1
DA:3305,1
DA:3306,1
DA:3307,1
DA:3308,1
DA:3309,1
DA:3310,1
DA:3311,1
DA:3312,1
DA:3313,1
DA:3314,1
DA:3315,1
DA:3316,1
DA:3317,1
DA:3318,1
DA:3319,1
DA:3320,1
DA:3321,1
DA:3324,1
DA:3325,1
DA:3326,1
DA:3327,1
DA:3328,1
DA:3329,1
DA:3330,1
DA:3331,1
DA:3332,1
DA:3333,1
DA:3334,1
DA:3335,1
DA:3336,0
DA:3341,1
DA:3342,1
DA:3343,1
DA:3344,1
DA:3345,1
DA:3346,1
DA:3347,1
DA:3348,1
DA:3349,1
DA:3350,1
DA:3351,0
DA:3356,1
DA:3357,1
DA:3358,1
DA:3359,1
DA:3360,1
DA:3361,1
DA:3362,1
DA:3363,1
DA:3364,1
DA:3365,1
DA:3366,1
DA:3370,1
DA:3371,1
DA:3372,1
DA:3373,1
DA:3374,1
DA:3375,1
DA:3376,1
DA:3377,1
DA:3379,1
DA:3380,1
DA:3386,1
DA:3387,1
DA:3388,1
DA:3389,1
DA:3390,1
DA:3391,0
DA:3394,1
DA:3395,1
DA:3397,1
DA:3398,1
DA:3399,1
DA:3406,1
DA:3410,1
DA:3411,1
DA:3412,1
DA:3413,1
DA:3414,1
DA:3415,1
DA:3416,1
DA:3417,1
DA:3418,1
DA:3419,1
DA:3420,1
DA:3421,1
DA:3422,1
DA:3423,1
DA:3424,1
DA:3425,1
DA:3426,1
DA:3427,1
DA:3428,1
DA:3430,1
DA:3432,1
DA:3433,1
DA:3434,1
DA:3435,0
DA:3437,1
DA:3438,1
DA:3440,0
DA:3442,1
DA:3443,1
DA:3444,0
DA:3448,1
DA:3449,1
DA:3450,1
DA:3451,1
DA:3452,1
DA:3453,1
DA:3454,1
DA:3455,1
DA:3456,1
DA:3457,1
DA:3458,1
DA:3459,1
DA:3460,1
DA:3461,1
DA:3462,1
DA:3471,1
DA:3472,1
DA:3473,1
DA:3474,1
DA:3475,1
DA:3476,1
DA:3477,1
DA:3480,1
DA:3483,1
DA:3484,1
DA:3485,1
DA:3486,1
DA:3487,1
DA:3488,1
DA:3489,1
DA:3490,1
DA:3491,1
DA:3492,1
DA:3493,1
DA:3494,1
DA:3499,1
DA:3500,1
DA:3501,4
DA:3502,3
DA:3503,1
DA:3504,1
DA:3505,1
DA:3506,0
DA:3509,1
DA:3510,1
DA:3516,1
DA:3517,1
DA:3518,1
DA:3519,1
DA:3520,1
DA:3521,1
DA:3522,1
DA:3523,1
DA:3524,1
DA:3525,1
DA:3526,1
DA:3527,1
DA:3528,1
DA:3529,1
DA:3530,1
DA:3531,1
DA:3534,1
DA:3535,1
DA:3536,4
DA:3537,3
DA:3538,1
DA:3539,1
DA:3540,1
DA:3541,0
DA:3544,1
DA:3545,1
DA:3547,1
DA:3548,1
DA:3553,1
DA:3554,1
DA:3555,1
DA:3557,1
DA:3558,1
DA:3559,1
DA:3560,1
DA:3561,1
DA:3562,1
DA:3563,1
DA:3569,1
DA:3571,1
DA:3572,1
DA:3573,1
DA:3577,1
DA:3578,1
DA:3579,1
DA:3583,1
DA:3584,1
DA:3585,1
DA:3587,1
DA:3588,1
DA:3589,1
DA:3590,1
DA:3593,1
DA:3599,1
DA:3600,1
DA:3601,1
DA:3602,1
DA:3603,1
DA:3604,1
DA:3605,1
DA:3606,1
DA:3615,1
DA:3617,1
DA:3618,1
DA:3619,1
DA:3620,1
DA:3621,1
DA:3623,1
DA:3624,1
DA:3625,1
DA:3626,1
DA:3627,1
DA:3628,1
DA:3629,1
DA:3630,1
DA:3636,1
DA:3637,1
DA:3638,1
DA:3639,1
DA:3640,1
DA:3641,1
DA:3642,1
DA:3643,1
DA:3644,1
DA:3645,1
DA:3646,1
DA:3647,1
DA:3648,1
DA:3652,1
DA:3653,1
DA:3654,1
DA:3655,1
DA:3656,1
DA:3657,1
DA:3662,1
DA:3663,1
DA:3664,1
DA:3670,1
DA:3671,1
DA:3672,1
DA:3678,1
DA:3679,1
DA:3680,1
DA:3681,1
DA:3682,1
DA:3683,1
DA:3686,1
DA:3694,1
DA:3702,1
DA:3703,1
DA:3704,1
DA:3707,1
DA:3708,1
DA:3709,1
DA:3710,1
DA:3711,1
DA:3712,0
DA:3715,0
DA:3719,1
DA:3720,1
DA:3727,1
DA:3728,1
DA:3729,1
DA:3730,1
DA:3731,1
DA:3735,0
DA:3740,1
DA:3741,1
DA:3743,0
DA:3749,1
DA:3750,1
DA:3752,0
DA:3762,1
DA:3763,1
DA:3764,1
DA:3765,1
DA:3766,1
DA:3769,1
DA:3770,0
DA:3772,1
DA:3773,1
DA:3775,0
DA:3777,1
DA:3778,1
DA:3780,0
DA:3782,1
DA:3783,1
DA:3785,0
DA:3787,1
DA:3801,1
DA:3802,1
DA:3803,1
DA:3804,1
DA:3805,1
DA:3806,1
DA:3807,1
DA:3808,1
DA:3809,1
DA:3810,1
DA:3812,1
DA:3813,1
DA:3814,1
DA:3815,1
DA:3816,1
DA:3817,1
DA:3818,0
DA:3819,1
DA:3820,1
DA:3821,1
DA:3822,1
DA:3831,1
DA:3832,1
DA:3833,1
DA:3834,1
DA:3835,1
DA:3836,1
DA:3837,1
DA:3838,1
DA:3839,1
DA:3840,1
DA:3841,1
DA:3842,1
DA:3844,1
DA:3845,1
DA:3846,1
DA:3847,1
DA:3848,1
DA:3849,1
DA:3850,1
DA:3851,1
DA:3852,1
DA:3853,1
DA:3854,1
DA:3855,1
DA:3856,1
DA:3857,0
DA:3858,0
DA:3859,1
DA:3860,1
DA:3861,1
DA:3862,1
DA:3863,1
BRF:0
BRH:0
LF:1782
LH:1504
end_of_record
SF:/home/ubuntu/Code/ExpressGateway/.claude/worktrees/s36-verify/crates/lb-quic/src/h3_config.rs
FN:99,_RNvNtCs7RDJCKiF9ex_7lb_quic9h3_config22build_client_h3_config
FN:62,_RNvNtCs7RDJCKiF9ex_7lb_quic9h3_config22build_server_h3_config
FN:99,_RNvNtCs48r2xzLZq6T_7lb_quic9h3_config22build_client_h3_config
FN:62,_RNvNtCs48r2xzLZq6T_7lb_quic9h3_config22build_server_h3_config
FN:145,_RNvNtNtCs48r2xzLZq6T_7lb_quic9h3_config5testss_49client_h3_config_builds_with_static_only_defaults
FN:117,_RNvNtNtCs48r2xzLZq6T_7lb_quic9h3_config5testss_49server_h3_config_builds_with_static_only_defaults
FN:135,_RNvNtNtCs48r2xzLZq6T_7lb_quic9h3_config5testss_53server_h3_config_builds_with_extended_connect_enabled
FNDA:25,_RNvNtCs7RDJCKiF9ex_7lb_quic9h3_config22build_client_h3_config
FNDA:267,_RNvNtCs7RDJCKiF9ex_7lb_quic9h3_config22build_server_h3_config
FNDA:1,_RNvNtCs48r2xzLZq6T_7lb_quic9h3_config22build_client_h3_config
FNDA:2,_RNvNtCs48r2xzLZq6T_7lb_quic9h3_config22build_server_h3_config
FNDA:1,_RNvNtNtCs48r2xzLZq6T_7lb_quic9h3_config5testss_49client_h3_config_builds_with_static_only_defaults
FNDA:1,_RNvNtNtCs48r2xzLZq6T_7lb_quic9h3_config5testss_49server_h3_config_builds_with_static_only_defaults
FNDA:1,_RNvNtNtCs48r2xzLZq6T_7lb_quic9h3_config5testss_53server_h3_config_builds_with_extended_connect_enabled
FNF:5
FNH:5
DA:62,269
DA:63,269
DA:64,269
DA:67,269
DA:68,269
DA:72,269
DA:73,1
DA:74,268
DA:75,269
DA:76,269
DA:99,26
DA:100,26
DA:101,26
DA:104,26
DA:105,26
DA:106,26
DA:107,26
DA:117,1
DA:120,1
DA:124,1
DA:125,1
DA:135,1
DA:136,1
DA:137,1
DA:138,1
DA:145,1
DA:146,1
DA:147,1
DA:148,1
BRF:0
BRH:0
LF:29
LH:29
end_of_record
SF:/home/ubuntu/Code/ExpressGateway/.claude/worktrees/s36-verify/crates/lb-quic/src/listener.rs
FN:374,_RNCNCNvMs0_NtCs7RDJCKiF9ex_7lb_quic8listenerNtB9_12QuicListener5spawn00CsaynjlquWaVv_11grpc_h3_e2e
FN:439,_RNCNCNvMs0_NtCs7RDJCKiF9ex_7lb_quic8listenerNtB9_12QuicListener5spawn0s0_0CsaynjlquWaVv_11grpc_h3_e2e
FN:388,_RNCNCNvMs0_NtCs7RDJCKiF9ex_7lb_quic8listenerNtB9_12QuicListener5spawn0s_0CsaynjlquWaVv_11grpc_h3_e2e
FN:338,_RNCNvMs0_NtCs7RDJCKiF9ex_7lb_quic8listenerNtB7_12QuicListener5spawn0CsaynjlquWaVv_11grpc_h3_e2e
FN:243,_RINvMs_NtCs7RDJCKiF9ex_7lb_quic8listenerNtB5_18QuicListenerParams15with_h3_backendpEB7_
FN:374,_RNCNCNvMs0_NtCs7RDJCKiF9ex_7lb_quic8listenerNtB9_12QuicListener5spawn00Bb_
FN:439,_RNCNCNvMs0_NtCs7RDJCKiF9ex_7lb_quic8listenerNtB9_12QuicListener5spawn0s0_0Bb_
FN:388,_RNCNCNvMs0_NtCs7RDJCKiF9ex_7lb_quic8listenerNtB9_12QuicListener5spawn0s_0Bb_
FN:338,_RNCNvMs0_NtCs7RDJCKiF9ex_7lb_quic8listenerNtB7_12QuicListener5spawn0B9_
FN:457,_RNvMs0_NtCs7RDJCKiF9ex_7lb_quic8listenerNtB5_12QuicListener10local_addr
FN:469,_RNvMs0_NtCs7RDJCKiF9ex_7lb_quic8listenerNtB5_12QuicListener12replay_guard
FN:463,_RNvMs0_NtCs7RDJCKiF9ex_7lb_quic8listenerNtB5_12QuicListener12retry_signer
FN:335,_RNvMs0_NtCs7RDJCKiF9ex_7lb_quic8listenerNtB5_12QuicListener5spawn
FN:475,_RNvMs0_NtCs7RDJCKiF9ex_7lb_quic8listenerNtB5_12QuicListener8shutdown
FN:233,_RNvMs_NtCs7RDJCKiF9ex_7lb_quic8listenerNtB4_18QuicListenerParams13with_backends
FN:294,_RNvMs_NtCs7RDJCKiF9ex_7lb_quic8listenerNtB4_18QuicListenerParams14with_websocket
FN:257,_RNvMs_NtCs7RDJCKiF9ex_7lb_quic8listenerNtB4_18QuicListenerParams15with_h2_backend
FN:271,_RNvMs_NtCs7RDJCKiF9ex_7lb_quic8listenerNtB4_18QuicListenerParams16with_raw_backend
FN:220,_RNvMs_NtCs7RDJCKiF9ex_7lb_quic8listenerNtB4_18QuicListenerParams19with_h3_request_cap
FN:309,_RNvMs_NtCs7RDJCKiF9ex_7lb_quic8listenerNtB4_18QuicListenerParams22with_ws_relay_launcher
FN:172,_RNvMs_NtCs7RDJCKiF9ex_7lb_quic8listenerNtB4_18QuicListenerParams3new
FN:517,_RNvNtCs7RDJCKiF9ex_7lb_quic8listener17write_secret_file
FN:545,_RNvNtCs7RDJCKiF9ex_7lb_quic8listener19build_server_config
FN:481,_RNvNtCs7RDJCKiF9ex_7lb_quic8listener29load_or_generate_retry_secret
FN:141,_RNvXNtCs7RDJCKiF9ex_7lb_quic8listenerNtB2_18QuicListenerParamsNtNtCs1p5UDGgVI4d_4core3fmt5Debug3fmt
FN:508,_RNCNvNtCs7RDJCKiF9ex_7lb_quic8listener29load_or_generate_retry_secret0B5_
FN:374,_RNCNCNvMs0_NtCs7RDJCKiF9ex_7lb_quic8listenerNtB9_12QuicListener5spawn00CseznNHQ5PbqY_25h3_connection_recycle_e2e
FN:439,_RNCNCNvMs0_NtCs7RDJCKiF9ex_7lb_quic8listenerNtB9_12QuicListener5spawn0s0_0CseznNHQ5PbqY_25h3_connection_recycle_e2e
FN:388,_RNCNCNvMs0_NtCs7RDJCKiF9ex_7lb_quic8listenerNtB9_12QuicListener5spawn0s_0CseznNHQ5PbqY_25h3_connection_recycle_e2e
FN:338,_RNCNvMs0_NtCs7RDJCKiF9ex_7lb_quic8listenerNtB7_12QuicListener5spawn0CseznNHQ5PbqY_25h3_connection_recycle_e2e
FN:374,_RNCNCNvMs0_NtCs7RDJCKiF9ex_7lb_quic8listenerNtB9_12QuicListener5spawn00Cs4Jekr7O5LKV_16h3_h1_bridge_e2e
FN:439,_RNCNCNvMs0_NtCs7RDJCKiF9ex_7lb_quic8listenerNtB9_12QuicListener5spawn0s0_0Cs4Jekr7O5LKV_16h3_h1_bridge_e2e
FN:388,_RNCNCNvMs0_NtCs7RDJCKiF9ex_7lb_quic8listenerNtB9_12QuicListener5spawn0s_0Cs4Jekr7O5LKV_16h3_h1_bridge_e2e
FN:338,_RNCNvMs0_NtCs7RDJCKiF9ex_7lb_quic8listenerNtB7_12QuicListener5spawn0Cs4Jekr7O5LKV_16h3_h1_bridge_e2e
FN:374,_RNCNCNvMs0_NtCs7RDJCKiF9ex_7lb_quic8listenerNtB9_12QuicListener5spawn00CsjtIKxJY6Qff_21h3_h1_resp_stream_e2e
FN:439,_RNCNCNvMs0_NtCs7RDJCKiF9ex_7lb_quic8listenerNtB9_12QuicListener5spawn0s0_0CsjtIKxJY6Qff_21h3_h1_resp_stream_e2e
FN:388,_RNCNCNvMs0_NtCs7RDJCKiF9ex_7lb_quic8listenerNtB9_12QuicListener5spawn0s_0CsjtIKxJY6Qff_21h3_h1_resp_stream_e2e
FN:338,_RNCNvMs0_NtCs7RDJCKiF9ex_7lb_quic8listenerNtB7_12QuicListener5spawn0CsjtIKxJY6Qff_21h3_h1_resp_stream_e2e
FN:374,_RNCNCNvMs0_NtCs7RDJCKiF9ex_7lb_quic8listenerNtB9_12QuicListener5spawn00CsgAijibt8yDZ_21h3_h1_stream_body_e2e
FN:439,_RNCNCNvMs0_NtCs7RDJCKiF9ex_7lb_quic8listenerNtB9_12QuicListener5spawn0s0_0CsgAijibt8yDZ_21h3_h1_stream_body_e2e
FN:388,_RNCNCNvMs0_NtCs7RDJCKiF9ex_7lb_quic8listenerNtB9_12QuicListener5spawn0s_0CsgAijibt8yDZ_21h3_h1_stream_body_e2e
FN:338,_RNCNvMs0_NtCs7RDJCKiF9ex_7lb_quic8listenerNtB7_12QuicListener5spawn0CsgAijibt8yDZ_21h3_h1_stream_body_e2e
FN:374,_RNCNCNvMs0_NtCs7RDJCKiF9ex_7lb_quic8listenerNtB9_12QuicListener5spawn00Cs1czSP5NU9KY_28h3_h1_stream_body_errors_e2e
FN:439,_RNCNCNvMs0_NtCs7RDJCKiF9ex_7lb_quic8listenerNtB9_12QuicListener5spawn0s0_0Cs1czSP5NU9KY_28h3_h1_stream_body_errors_e2e
FN:388,_RNCNCNvMs0_NtCs7RDJCKiF9ex_7lb_quic8listenerNtB9_12QuicListener5spawn0s_0Cs1czSP5NU9KY_28h3_h1_stream_body_errors_e2e
FN:338,_RNCNvMs0_NtCs7RDJCKiF9ex_7lb_quic8listenerNtB7_12QuicListener5spawn0Cs1czSP5NU9KY_28h3_h1_stream_body_errors_e2e
FN:374,_RNCNCNvMs0_NtCs7RDJCKiF9ex_7lb_quic8listenerNtB9_12QuicListener5spawn00CsjgXmVheg7AS_23h3_h1_trailers_resp_e2e
FN:439,_RNCNCNvMs0_NtCs7RDJCKiF9ex_7lb_quic8listenerNtB9_12QuicListener5spawn0s0_0CsjgXmVheg7AS_23h3_h1_trailers_resp_e2e
FN:388,_RNCNCNvMs0_NtCs7RDJCKiF9ex_7lb_quic8listenerNtB9_12QuicListener5spawn0s_0CsjgXmVheg7AS_23h3_h1_trailers_resp_e2e
FN:338,_RNCNvMs0_NtCs7RDJCKiF9ex_7lb_quic8listenerNtB7_12QuicListener5spawn0CsjgXmVheg7AS_23h3_h1_trailers_resp_e2e
FN:374,_RNCNCNvMs0_NtCs7RDJCKiF9ex_7lb_quic8listenerNtB9_12QuicListener5spawn00Cs9SQrgqjWl8x_16h3_h2_stream_e2e
FN:439,_RNCNCNvMs0_NtCs7RDJCKiF9ex_7lb_quic8listenerNtB9_12QuicListener5spawn0s0_0Cs9SQrgqjWl8x_16h3_h2_stream_e2e
FN:388,_RNCNCNvMs0_NtCs7RDJCKiF9ex_7lb_quic8listenerNtB9_12QuicListener5spawn0s_0Cs9SQrgqjWl8x_16h3_h2_stream_e2e
FN:338,_RNCNvMs0_NtCs7RDJCKiF9ex_7lb_quic8listenerNtB7_12QuicListener5spawn0Cs9SQrgqjWl8x_16h3_h2_stream_e2e
FN:243,_RINvMs_NtCs7RDJCKiF9ex_7lb_quic8listenerNtB5_18QuicListenerParams15with_h3_backendReECs2mM2PX45pNR_16h3_h3_stream_e2e
FN:374,_RNCNCNvMs0_NtCs7RDJCKiF9ex_7lb_quic8listenerNtB9_12QuicListener5spawn00Cs2mM2PX45pNR_16h3_h3_stream_e2e
FN:439,_RNCNCNvMs0_NtCs7RDJCKiF9ex_7lb_quic8listenerNtB9_12QuicListener5spawn0s0_0Cs2mM2PX45pNR_16h3_h3_stream_e2e
FN:388,_RNCNCNvMs0_NtCs7RDJCKiF9ex_7lb_quic8listenerNtB9_12QuicListener5spawn0s_0Cs2mM2PX45pNR_16h3_h3_stream_e2e
FN:338,_RNCNvMs0_NtCs7RDJCKiF9ex_7lb_quic8listenerNtB7_12QuicListener5spawn0Cs2mM2PX45pNR_16h3_h3_stream_e2e
FN:243,_RINvMs_NtCs48r2xzLZq6T_7lb_quic8listenerNtB5_18QuicListenerParams15with_h3_backendpEB7_
FN:374,_RNCNCNvMs0_NtCs48r2xzLZq6T_7lb_quic8listenerNtB9_12QuicListener5spawn00Bb_
FN:439,_RNCNCNvMs0_NtCs48r2xzLZq6T_7lb_quic8listenerNtB9_12QuicListener5spawn0s0_0Bb_
FN:388,_RNCNCNvMs0_NtCs48r2xzLZq6T_7lb_quic8listenerNtB9_12QuicListener5spawn0s_0Bb_
FN:338,_RNCNvMs0_NtCs48r2xzLZq6T_7lb_quic8listenerNtB7_12QuicListener5spawn0B9_
FN:508,_RNCNvNtCs48r2xzLZq6T_7lb_quic8listener29load_or_generate_retry_secret0B5_
FN:457,_RNvMs0_NtCs48r2xzLZq6T_7lb_quic8listenerNtB5_12QuicListener10local_addr
FN:469,_RNvMs0_NtCs48r2xzLZq6T_7lb_quic8listenerNtB5_12QuicListener12replay_guard
FN:463,_RNvMs0_NtCs48r2xzLZq6T_7lb_quic8listenerNtB5_12QuicListener12retry_signer
FN:335,_RNvMs0_NtCs48r2xzLZq6T_7lb_quic8listenerNtB5_12QuicListener5spawn
FN:475,_RNvMs0_NtCs48r2xzLZq6T_7lb_quic8listenerNtB5_12QuicListener8shutdown
FN:233,_RNvMs_NtCs48r2xzLZq6T_7lb_quic8listenerNtB4_18QuicListenerParams13with_backends
FN:294,_RNvMs_NtCs48r2xzLZq6T_7lb_quic8listenerNtB4_18QuicListenerParams14with_websocket
FN:257,_RNvMs_NtCs48r2xzLZq6T_7lb_quic8listenerNtB4_18QuicListenerParams15with_h2_backend
FN:271,_RNvMs_NtCs48r2xzLZq6T_7lb_quic8listenerNtB4_18QuicListenerParams16with_raw_backend
FN:220,_RNvMs_NtCs48r2xzLZq6T_7lb_quic8listenerNtB4_18QuicListenerParams19with_h3_request_cap
FN:309,_RNvMs_NtCs48r2xzLZq6T_7lb_quic8listenerNtB4_18QuicListenerParams22with_ws_relay_launcher
FN:172,_RNvMs_NtCs48r2xzLZq6T_7lb_quic8listenerNtB4_18QuicListenerParams3new
FN:517,_RNvNtCs48r2xzLZq6T_7lb_quic8listener17write_secret_file
FN:545,_RNvNtCs48r2xzLZq6T_7lb_quic8listener19build_server_config
FN:481,_RNvNtCs48r2xzLZq6T_7lb_quic8listener29load_or_generate_retry_secret
FN:141,_RNvXNtCs48r2xzLZq6T_7lb_quic8listenerNtB2_18QuicListenerParamsNtNtCs1p5UDGgVI4d_4core3fmt5Debug3fmt
FN:374,_RNCNCNvMs0_NtCs7RDJCKiF9ex_7lb_quic8listenerNtB9_12QuicListener5spawn00Cs2PYQqQcI3AV_18listener_lifecycle
FN:439,_RNCNCNvMs0_NtCs7RDJCKiF9ex_7lb_quic8listenerNtB9_12QuicListener5spawn0s0_0Cs2PYQqQcI3AV_18listener_lifecycle
FN:388,_RNCNCNvMs0_NtCs7RDJCKiF9ex_7lb_quic8listenerNtB9_12QuicListener5spawn0s_0Cs2PYQqQcI3AV_18listener_lifecycle
FN:338,_RNCNvMs0_NtCs7RDJCKiF9ex_7lb_quic8listenerNtB7_12QuicListener5spawn0Cs2PYQqQcI3AV_18listener_lifecycle
FN:374,_RNCNCNvMs0_NtCs7RDJCKiF9ex_7lb_quic8listenerNtB9_12QuicListener5spawn00Cs8V3ZNegbJWO_18router_accept_path
FN:439,_RNCNCNvMs0_NtCs7RDJCKiF9ex_7lb_quic8listenerNtB9_12QuicListener5spawn0s0_0Cs8V3ZNegbJWO_18router_accept_path
FN:388,_RNCNCNvMs0_NtCs7RDJCKiF9ex_7lb_quic8listenerNtB9_12QuicListener5spawn0s_0Cs8V3ZNegbJWO_18router_accept_path
FN:338,_RNCNvMs0_NtCs7RDJCKiF9ex_7lb_quic8listenerNtB7_12QuicListener5spawn0Cs8V3ZNegbJWO_18router_accept_path
FNDA:70,_RNCNCNvMs0_NtCs7RDJCKiF9ex_7lb_quic8listenerNtB9_12QuicListener5spawn00CsaynjlquWaVv_11grpc_h3_e2e
FNDA:16,_RNCNCNvMs0_NtCs7RDJCKiF9ex_7lb_quic8listenerNtB9_12QuicListener5spawn0s0_0CsaynjlquWaVv_11grpc_h3_e2e
FNDA:15,_RNCNCNvMs0_NtCs7RDJCKiF9ex_7lb_quic8listenerNtB9_12QuicListener5spawn0s_0CsaynjlquWaVv_11grpc_h3_e2e
FNDA:16,_RNCNvMs0_NtCs7RDJCKiF9ex_7lb_quic8listenerNtB7_12QuicListener5spawn0CsaynjlquWaVv_11grpc_h3_e2e
FNDA:0,_RINvMs_NtCs7RDJCKiF9ex_7lb_quic8listenerNtB5_18QuicListenerParams15with_h3_backendpEB7_
FNDA:0,_RNCNCNvMs0_NtCs7RDJCKiF9ex_7lb_quic8listenerNtB9_12QuicListener5spawn00Bb_
FNDA:0,_RNCNCNvMs0_NtCs7RDJCKiF9ex_7lb_quic8listenerNtB9_12QuicListener5spawn0s0_0Bb_
FNDA:0,_RNCNCNvMs0_NtCs7RDJCKiF9ex_7lb_quic8listenerNtB9_12QuicListener5spawn0s_0Bb_
FNDA:0,_RNCNvMs0_NtCs7RDJCKiF9ex_7lb_quic8listenerNtB7_12QuicListener5spawn0B9_
FNDA:93,_RNvMs0_NtCs7RDJCKiF9ex_7lb_quic8listenerNtB5_12QuicListener10local_addr
FNDA:1,_RNvMs0_NtCs7RDJCKiF9ex_7lb_quic8listenerNtB5_12QuicListener12replay_guard
FNDA:2,_RNvMs0_NtCs7RDJCKiF9ex_7lb_quic8listenerNtB5_12QuicListener12retry_signer
FNDA:96,_RNvMs0_NtCs7RDJCKiF9ex_7lb_quic8listenerNtB5_12QuicListener5spawn
FNDA:80,_RNvMs0_NtCs7RDJCKiF9ex_7lb_quic8listenerNtB5_12QuicListener8shutdown
FNDA:36,_RNvMs_NtCs7RDJCKiF9ex_7lb_quic8listenerNtB4_18QuicListenerParams13with_backends
FNDA:0,_RNvMs_NtCs7RDJCKiF9ex_7lb_quic8listenerNtB4_18QuicListenerParams14with_websocket
FNDA:23,_RNvMs_NtCs7RDJCKiF9ex_7lb_quic8listenerNtB4_18QuicListenerParams15with_h2_backend
FNDA:0,_RNvMs_NtCs7RDJCKiF9ex_7lb_quic8listenerNtB4_18QuicListenerParams16with_raw_backend
FNDA:1,_RNvMs_NtCs7RDJCKiF9ex_7lb_quic8listenerNtB4_18QuicListenerParams19with_h3_request_cap
FNDA:0,_RNvMs_NtCs7RDJCKiF9ex_7lb_quic8listenerNtB4_18QuicListenerParams22with_ws_relay_launcher
FNDA:96,_RNvMs_NtCs7RDJCKiF9ex_7lb_quic8listenerNtB4_18QuicListenerParams3new
FNDA:92,_RNvNtCs7RDJCKiF9ex_7lb_quic8listener17write_secret_file
FNDA:267,_RNvNtCs7RDJCKiF9ex_7lb_quic8listener19build_server_config
FNDA:96,_RNvNtCs7RDJCKiF9ex_7lb_quic8listener29load_or_generate_retry_secret
FNDA:0,_RNvXNtCs7RDJCKiF9ex_7lb_quic8listenerNtB2_18QuicListenerParamsNtNtCs1p5UDGgVI4d_4core3fmt5Debug3fmt
FNDA:0,_RNCNvNtCs7RDJCKiF9ex_7lb_quic8listener29load_or_generate_retry_secret0B5_
FNDA:2,_RNCNCNvMs0_NtCs7RDJCKiF9ex_7lb_quic8listenerNtB9_12QuicListener5spawn00CseznNHQ5PbqY_25h3_connection_recycle_e2e
FNDA:1,_RNCNCNvMs0_NtCs7RDJCKiF9ex_7lb_quic8listenerNtB9_12QuicListener5spawn0s0_0CseznNHQ5PbqY_25h3_connection_recycle_e2e
FNDA:0,_RNCNCNvMs0_NtCs7RDJCKiF9ex_7lb_quic8listenerNtB9_12QuicListener5spawn0s_0CseznNHQ5PbqY_25h3_connection_recycle_e2e
FNDA:1,_RNCNvMs0_NtCs7RDJCKiF9ex_7lb_quic8listenerNtB7_12QuicListener5spawn0CseznNHQ5PbqY_25h3_connection_recycle_e2e
FNDA:1,_RNCNCNvMs0_NtCs7RDJCKiF9ex_7lb_quic8listenerNtB9_12QuicListener5spawn00Cs4Jekr7O5LKV_16h3_h1_bridge_e2e
FNDA:1,_RNCNCNvMs0_NtCs7RDJCKiF9ex_7lb_quic8listenerNtB9_12QuicListener5spawn0s0_0Cs4Jekr7O5LKV_16h3_h1_bridge_e2e
FNDA:0,_RNCNCNvMs0_NtCs7RDJCKiF9ex_7lb_quic8listenerNtB9_12QuicListener5spawn0s_0Cs4Jekr7O5LKV_16h3_h1_bridge_e2e
FNDA:1,_RNCNvMs0_NtCs7RDJCKiF9ex_7lb_quic8listenerNtB7_12QuicListener5spawn0Cs4Jekr7O5LKV_16h3_h1_bridge_e2e
FNDA:24,_RNCNCNvMs0_NtCs7RDJCKiF9ex_7lb_quic8listenerNtB9_12QuicListener5spawn00CsjtIKxJY6Qff_21h3_h1_resp_stream_e2e
FNDA:24,_RNCNCNvMs0_NtCs7RDJCKiF9ex_7lb_quic8listenerNtB9_12QuicListener5spawn0s0_0CsjtIKxJY6Qff_21h3_h1_resp_stream_e2e
FNDA:0,_RNCNCNvMs0_NtCs7RDJCKiF9ex_7lb_quic8listenerNtB9_12QuicListener5spawn0s_0CsjtIKxJY6Qff_21h3_h1_resp_stream_e2e
FNDA:24,_RNCNvMs0_NtCs7RDJCKiF9ex_7lb_quic8listenerNtB7_12QuicListener5spawn0CsjtIKxJY6Qff_21h3_h1_resp_stream_e2e
FNDA:5,_RNCNCNvMs0_NtCs7RDJCKiF9ex_7lb_quic8listenerNtB9_12QuicListener5spawn00CsgAijibt8yDZ_21h3_h1_stream_body_e2e
FNDA:5,_RNCNCNvMs0_NtCs7RDJCKiF9ex_7lb_quic8listenerNtB9_12QuicListener5spawn0s0_0CsgAijibt8yDZ_21h3_h1_stream_body_e2e
FNDA:0,_RNCNCNvMs0_NtCs7RDJCKiF9ex_7lb_quic8listenerNtB9_12QuicListener5spawn0s_0CsgAijibt8yDZ_21h3_h1_stream_body_e2e
FNDA:5,_RNCNvMs0_NtCs7RDJCKiF9ex_7lb_quic8listenerNtB7_12QuicListener5spawn0CsgAijibt8yDZ_21h3_h1_stream_body_e2e
FNDA:3,_RNCNCNvMs0_NtCs7RDJCKiF9ex_7lb_quic8listenerNtB9_12QuicListener5spawn00Cs1czSP5NU9KY_28h3_h1_stream_body_errors_e2e
FNDA:2,_RNCNCNvMs0_NtCs7RDJCKiF9ex_7lb_quic8listenerNtB9_12QuicListener5spawn0s0_0Cs1czSP5NU9KY_28h3_h1_stream_body_errors_e2e
FNDA:0,_RNCNCNvMs0_NtCs7RDJCKiF9ex_7lb_quic8listenerNtB9_12QuicListener5spawn0s_0Cs1czSP5NU9KY_28h3_h1_stream_body_errors_e2e
FNDA:2,_RNCNvMs0_NtCs7RDJCKiF9ex_7lb_quic8listenerNtB7_12QuicListener5spawn0Cs1czSP5NU9KY_28h3_h1_stream_body_errors_e2e
FNDA:2,_RNCNCNvMs0_NtCs7RDJCKiF9ex_7lb_quic8listenerNtB9_12QuicListener5spawn00CsjgXmVheg7AS_23h3_h1_trailers_resp_e2e
FNDA:2,_RNCNCNvMs0_NtCs7RDJCKiF9ex_7lb_quic8listenerNtB9_12QuicListener5spawn0s0_0CsjgXmVheg7AS_23h3_h1_trailers_resp_e2e
FNDA:0,_RNCNCNvMs0_NtCs7RDJCKiF9ex_7lb_quic8listenerNtB9_12QuicListener5spawn0s_0CsjgXmVheg7AS_23h3_h1_trailers_resp_e2e
FNDA:2,_RNCNvMs0_NtCs7RDJCKiF9ex_7lb_quic8listenerNtB7_12QuicListener5spawn0CsjgXmVheg7AS_23h3_h1_trailers_resp_e2e
FNDA:8,_RNCNCNvMs0_NtCs7RDJCKiF9ex_7lb_quic8listenerNtB9_12QuicListener5spawn00Cs9SQrgqjWl8x_16h3_h2_stream_e2e
FNDA:8,_RNCNCNvMs0_NtCs7RDJCKiF9ex_7lb_quic8listenerNtB9_12QuicListener5spawn0s0_0Cs9SQrgqjWl8x_16h3_h2_stream_e2e
FNDA:8,_RNCNCNvMs0_NtCs7RDJCKiF9ex_7lb_quic8listenerNtB9_12QuicListener5spawn0s_0Cs9SQrgqjWl8x_16h3_h2_stream_e2e
FNDA:8,_RNCNvMs0_NtCs7RDJCKiF9ex_7lb_quic8listenerNtB7_12QuicListener5spawn0Cs9SQrgqjWl8x_16h3_h2_stream_e2e
FNDA:27,_RINvMs_NtCs7RDJCKiF9ex_7lb_quic8listenerNtB5_18QuicListenerParams15with_h3_backendReECs2mM2PX45pNR_16h3_h3_stream_e2e
FNDA:146,_RNCNCNvMs0_NtCs7RDJCKiF9ex_7lb_quic8listenerNtB9_12QuicListener5spawn00Cs2mM2PX45pNR_16h3_h3_stream_e2e
FNDA:27,_RNCNCNvMs0_NtCs7RDJCKiF9ex_7lb_quic8listenerNtB9_12QuicListener5spawn0s0_0Cs2mM2PX45pNR_16h3_h3_stream_e2e
FNDA:27,_RNCNCNvMs0_NtCs7RDJCKiF9ex_7lb_quic8listenerNtB9_12QuicListener5spawn0s_0Cs2mM2PX45pNR_16h3_h3_stream_e2e
FNDA:27,_RNCNvMs0_NtCs7RDJCKiF9ex_7lb_quic8listenerNtB7_12QuicListener5spawn0Cs2mM2PX45pNR_16h3_h3_stream_e2e
FNDA:0,_RINvMs_NtCs48r2xzLZq6T_7lb_quic8listenerNtB5_18QuicListenerParams15with_h3_backendpEB7_
FNDA:0,_RNCNCNvMs0_NtCs48r2xzLZq6T_7lb_quic8listenerNtB9_12QuicListener5spawn00Bb_
FNDA:0,_RNCNCNvMs0_NtCs48r2xzLZq6T_7lb_quic8listenerNtB9_12QuicListener5spawn0s0_0Bb_
FNDA:0,_RNCNCNvMs0_NtCs48r2xzLZq6T_7lb_quic8listenerNtB9_12QuicListener5spawn0s_0Bb_
FNDA:0,_RNCNvMs0_NtCs48r2xzLZq6T_7lb_quic8listenerNtB7_12QuicListener5spawn0B9_
FNDA:0,_RNCNvNtCs48r2xzLZq6T_7lb_quic8listener29load_or_generate_retry_secret0B5_
FNDA:0,_RNvMs0_NtCs48r2xzLZq6T_7lb_quic8listenerNtB5_12QuicListener10local_addr
FNDA:0,_RNvMs0_NtCs48r2xzLZq6T_7lb_quic8listenerNtB5_12QuicListener12replay_guard
FNDA:0,_RNvMs0_NtCs48r2xzLZq6T_7lb_quic8listenerNtB5_12QuicListener12retry_signer
FNDA:0,_RNvMs0_NtCs48r2xzLZq6T_7lb_quic8listenerNtB5_12QuicListener5spawn
FNDA:0,_RNvMs0_NtCs48r2xzLZq6T_7lb_quic8listenerNtB5_12QuicListener8shutdown
FNDA:0,_RNvMs_NtCs48r2xzLZq6T_7lb_quic8listenerNtB4_18QuicListenerParams13with_backends
FNDA:0,_RNvMs_NtCs48r2xzLZq6T_7lb_quic8listenerNtB4_18QuicListenerParams14with_websocket
FNDA:0,_RNvMs_NtCs48r2xzLZq6T_7lb_quic8listenerNtB4_18QuicListenerParams15with_h2_backend
FNDA:0,_RNvMs_NtCs48r2xzLZq6T_7lb_quic8listenerNtB4_18QuicListenerParams16with_raw_backend
FNDA:0,_RNvMs_NtCs48r2xzLZq6T_7lb_quic8listenerNtB4_18QuicListenerParams19with_h3_request_cap
FNDA:0,_RNvMs_NtCs48r2xzLZq6T_7lb_quic8listenerNtB4_18QuicListenerParams22with_ws_relay_launcher
FNDA:0,_RNvMs_NtCs48r2xzLZq6T_7lb_quic8listenerNtB4_18QuicListenerParams3new
FNDA:0,_RNvNtCs48r2xzLZq6T_7lb_quic8listener17write_secret_file
FNDA:0,_RNvNtCs48r2xzLZq6T_7lb_quic8listener19build_server_config
FNDA:0,_RNvNtCs48r2xzLZq6T_7lb_quic8listener29load_or_generate_retry_secret
FNDA:0,_RNvXNtCs48r2xzLZq6T_7lb_quic8listenerNtB2_18QuicListenerParamsNtNtCs1p5UDGgVI4d_4core3fmt5Debug3fmt
FNDA:3,_RNCNCNvMs0_NtCs7RDJCKiF9ex_7lb_quic8listenerNtB9_12QuicListener5spawn00Cs2PYQqQcI3AV_18listener_lifecycle
FNDA:7,_RNCNCNvMs0_NtCs7RDJCKiF9ex_7lb_quic8listenerNtB9_12QuicListener5spawn0s0_0Cs2PYQqQcI3AV_18listener_lifecycle
FNDA:7,_RNCNCNvMs0_NtCs7RDJCKiF9ex_7lb_quic8listenerNtB9_12QuicListener5spawn0s_0Cs2PYQqQcI3AV_18listener_lifecycle
FNDA:7,_RNCNvMs0_NtCs7RDJCKiF9ex_7lb_quic8listenerNtB7_12QuicListener5spawn0Cs2PYQqQcI3AV_18listener_lifecycle
FNDA:3,_RNCNCNvMs0_NtCs7RDJCKiF9ex_7lb_quic8listenerNtB9_12QuicListener5spawn00Cs8V3ZNegbJWO_18router_accept_path
FNDA:3,_RNCNCNvMs0_NtCs7RDJCKiF9ex_7lb_quic8listenerNtB9_12QuicListener5spawn0s0_0Cs8V3ZNegbJWO_18router_accept_path
FNDA:3,_RNCNCNvMs0_NtCs7RDJCKiF9ex_7lb_quic8listenerNtB9_12QuicListener5spawn0s_0Cs8V3ZNegbJWO_18router_accept_path
FNDA:3,_RNCNvMs0_NtCs7RDJCKiF9ex_7lb_quic8listenerNtB7_12QuicListener5spawn0Cs8V3ZNegbJWO_18router_accept_path
FNF:22
FNH:17
DA:141,0
DA:142,0
DA:143,0
DA:144,0
DA:145,0
DA:146,0
DA:147,0
DA:148,0
DA:149,0
DA:150,0
DA:151,0
DA:152,0
DA:153,0
DA:154,0
DA:155,0
DA:156,0
DA:157,0
DA:158,0
DA:159,0
DA:160,0
DA:161,0
DA:162,0
DA:163,0
DA:164,0
DA:165,0
DA:172,96
DA:173,96
DA:174,96
DA:175,96
DA:176,96
DA:177,96
DA:178,96
DA:179,96
DA:180,96
DA:181,96
DA:182,96
DA:183,96
DA:184,96
DA:185,96
DA:186,96
DA:187,96
DA:188,96
DA:189,96
DA:190,96
DA:191,96
DA:192,96
DA:193,96
DA:194,96
DA:195,96
DA:196,96
DA:197,96
DA:198,96
DA:199,96
DA:200,96
DA:201,96
DA:202,96
DA:203,96
DA:204,96
DA:205,96
DA:206,96
DA:207,96
DA:208,96
DA:209,96
DA:210,96
DA:211,96
DA:220,1
DA:221,1
DA:222,1
DA:223,1
DA:224,1
DA:225,1
DA:226,1
DA:227,1
DA:228,1
DA:233,36
DA:234,36
DA:235,36
DA:236,36
DA:237,36
DA:243,27
DA:244,27
DA:245,27
DA:246,27
DA:247,27
DA:248,27
DA:249,27
DA:250,27
DA:251,27
DA:257,23
DA:258,23
DA:259,23
DA:260,23
DA:271,0
DA:272,0
DA:273,0
DA:274,0
DA:275,0
DA:276,0
DA:277,0
DA:278,0
DA:279,0
DA:280,0
DA:281,0
DA:294,0
DA:295,0
DA:296,0
DA:297,0
DA:309,0
DA:310,0
DA:311,0
DA:312,0
DA:335,96
DA:336,96
DA:337,96
DA:338,96
DA:339,96
DA:340,96
DA:341,96
DA:343,96
DA:344,96
DA:345,96
DA:348,96
DA:351,0
DA:352,0
DA:353,0
DA:354,0
DA:362,96
DA:363,96
DA:364,96
DA:365,96
DA:371,96
DA:372,96
DA:373,96
DA:374,267
DA:375,267
DA:376,267
DA:377,267
DA:378,267
DA:379,267
DA:380,267
DA:381,267
DA:383,267
DA:388,96
DA:389,60
DA:390,60
DA:391,60
DA:392,60
DA:393,60
DA:394,60
DA:395,60
DA:396,60
DA:397,60
DA:398,60
DA:399,60
DA:400,60
DA:402,60
DA:404,96
DA:405,96
DA:406,96
DA:407,96
DA:408,96
DA:409,96
DA:410,96
DA:411,96
DA:412,96
DA:413,96
DA:414,96
DA:415,96
DA:416,96
DA:417,96
DA:418,96
DA:419,96
DA:420,96
DA:421,96
DA:422,96
DA:423,96
DA:424,96
DA:425,96
DA:426,96
DA:427,96
DA:428,96
DA:429,96
DA:430,96
DA:431,96
DA:432,96
DA:433,96
DA:434,96
DA:435,96
DA:436,96
DA:437,96
DA:438,96
DA:439,96
DA:440,96
DA:441,0
DA:442,80
DA:443,80
DA:444,80
DA:446,96
DA:447,96
DA:448,96
DA:449,96
DA:450,96
DA:451,96
DA:452,96
DA:453,96
DA:457,93
DA:458,93
DA:459,93
DA:463,2
DA:464,2
DA:465,2
DA:469,1
DA:470,1
DA:471,1
DA:475,80
DA:476,80
DA:477,80
DA:478,80
DA:481,96
DA:482,96
DA:483,4
DA:484,4
DA:485,0
DA:486,0
DA:487,0
DA:488,0
DA:489,0
DA:490,0
DA:491,4
DA:492,4
DA:493,4
DA:494,4
DA:495,4
DA:496,4
DA:498,4
DA:500,92
DA:501,92
DA:502,92
DA:503,92
DA:504,0
DA:505,0
DA:506,92
DA:507,92
DA:508,92
DA:509,92
DA:510,92
DA:512,0
DA:514,96
DA:517,92
DA:520,92
DA:521,92
DA:522,92
DA:523,92
DA:524,92
DA:525,92
DA:526,92
DA:527,92
DA:528,92
DA:545,267
DA:546,267
DA:547,267
DA:548,267
DA:549,267
DA:550,267
DA:551,267
DA:552,267
DA:553,267
DA:554,267
DA:555,267
DA:556,267
DA:557,267
DA:558,267
DA:559,267
DA:560,267
DA:561,267
DA:562,267
DA:563,267
DA:564,267
DA:567,267
DA:568,0
DA:569,267
DA:570,267
DA:571,267
DA:572,267
DA:573,267
DA:574,267
DA:575,267
BRF:0
BRH:0
LF:292
LH:232
end_of_record
SF:/home/ubuntu/Code/ExpressGateway/.claude/worktrees/s36-verify/crates/lb-quic/src/passthrough.rs
FN:248,_RNvXs_NtCs7RDJCKiF9ex_7lb_quic11passthroughNtB4_9FlowEntryNtNtNtCs1p5UDGgVI4d_4core3ops4drop4Drop4drop
FN:1213,_RNCNCNCNCNvMs1_NtCs7RDJCKiF9ex_7lb_quic11passthroughNtBd_19PassthroughListener5spawn0s1_000Bf_
FN:1209,_RNCNCNCNvMs1_NtCs7RDJCKiF9ex_7lb_quic11passthroughNtBb_19PassthroughListener5spawn0s1_00Bd_
FN:1146,_RNCNCNvMs1_NtCs7RDJCKiF9ex_7lb_quic11passthroughNtB9_19PassthroughListener5spawn00Bb_
FN:1166,_RNCNCNvMs1_NtCs7RDJCKiF9ex_7lb_quic11passthroughNtB9_19PassthroughListener5spawn0s0_0Bb_
FN:1207,_RNCNCNvMs1_NtCs7RDJCKiF9ex_7lb_quic11passthroughNtB9_19PassthroughListener5spawn0s1_0Bb_
FN:1157,_RNCNCNvMs1_NtCs7RDJCKiF9ex_7lb_quic11passthroughNtB9_19PassthroughListener5spawn0s_0Bb_
FN:987,_RNCNCNvNtCs7RDJCKiF9ex_7lb_quic11passthrough12reverse_pump00B7_
FN:1031,_RNCNCNvNtCs7RDJCKiF9ex_7lb_quic11passthrough13forward_short00B7_
FN:1032,_RNCNCNvNtCs7RDJCKiF9ex_7lb_quic11passthrough13forward_short0s_0B7_
FN:923,_RNCNCNvNtCs7RDJCKiF9ex_7lb_quic11passthrough14handle_initial00B7_
FN:947,_RNCNCNvNtCs7RDJCKiF9ex_7lb_quic11passthrough14handle_initial0s_0B7_
FN:1136,_RNCNvMs1_NtCs7RDJCKiF9ex_7lb_quic11passthroughNtB7_19PassthroughListener5spawn0B9_
FN:951,_RNCNvNtCs7RDJCKiF9ex_7lb_quic11passthrough12reverse_pump0B5_
FN:1013,_RNCNvNtCs7RDJCKiF9ex_7lb_quic11passthrough13forward_short0B5_
FN:696,_RNCNvNtCs7RDJCKiF9ex_7lb_quic11passthrough14handle_inbound0B5_
FN:756,_RNCNvNtCs7RDJCKiF9ex_7lb_quic11passthrough14handle_initial0B5_
FN:674,_RNCNvNtCs7RDJCKiF9ex_7lb_quic11passthrough16run_idle_sweeper0B5_
FN:1002,_RNCNvNtCs7RDJCKiF9ex_7lb_quic11passthrough21forward_long_existing0B5_
FN:291,_RNvNtCs7RDJCKiF9ex_7lb_quic11passthrough23__flow_entry_field_audit
FN:615,_RNCNCNvNtCs7RDJCKiF9ex_7lb_quic11passthrough13reclaim_flows00B7_
FN:616,_RNCNCNvNtCs7RDJCKiF9ex_7lb_quic11passthrough13reclaim_flows0s_0B7_
FN:529,_RNCNvNtCs7RDJCKiF9ex_7lb_quic11passthrough11audit_allow0B5_
FN:612,_RNCNvNtCs7RDJCKiF9ex_7lb_quic11passthrough13reclaim_flows0B5_
FN:628,_RNCNvNtCs7RDJCKiF9ex_7lb_quic11passthrough13reclaim_flowss_0B5_
FN:653,_RNCNvNtCs7RDJCKiF9ex_7lb_quic11passthrough16sweep_idle_flows0B5_
FN:418,_RNCNvNtCs7RDJCKiF9ex_7lb_quic11passthrough18build_retry_packet0B5_
FN:427,_RNCNvNtCs7RDJCKiF9ex_7lb_quic11passthrough18build_retry_packets_0B5_
FN:1292,_RNCNvNtCs7RDJCKiF9ex_7lb_quic11passthrough29load_or_generate_retry_secret0B5_
FN:152,_RNvMNtCs7RDJCKiF9ex_7lb_quic11passthroughNtB2_17PassthroughParams3new
FN:256,_RNvMs0_NtCs7RDJCKiF9ex_7lb_quic11passthroughNtB5_9FlowEntry5touch
FN:268,_RNvMs0_NtCs7RDJCKiF9ex_7lb_quic11passthroughNtB5_9FlowEntry8get_peer
FN:263,_RNvMs0_NtCs7RDJCKiF9ex_7lb_quic11passthroughNtB5_9FlowEntry8set_peer
FN:1237,_RNvMs1_NtCs7RDJCKiF9ex_7lb_quic11passthroughNtB5_19PassthroughListener10local_addr
FN:1133,_RNvMs1_NtCs7RDJCKiF9ex_7lb_quic11passthroughNtB5_19PassthroughListener5spawn
FN:1253,_RNvMs1_NtCs7RDJCKiF9ex_7lb_quic11passthroughNtB5_19PassthroughListener8shutdown
FN:1246,_RNvMs1_NtCs7RDJCKiF9ex_7lb_quic11passthroughNtB5_19PassthroughListener9flows_len
FN:1105,_RNvNtCs7RDJCKiF9ex_7lb_quic11passthrough10elapsed_ms
FN:526,_RNvNtCs7RDJCKiF9ex_7lb_quic11passthrough11audit_allow
FN:563,_RNvNtCs7RDJCKiF9ex_7lb_quic11passthrough12evict_oldest
FN:540,_RNvNtCs7RDJCKiF9ex_7lb_quic11passthrough12pick_backend
FN:951,_RNvNtCs7RDJCKiF9ex_7lb_quic11passthrough12reverse_pump
FN:1013,_RNvNtCs7RDJCKiF9ex_7lb_quic11passthrough13forward_short
FN:600,_RNvNtCs7RDJCKiF9ex_7lb_quic11passthrough13reclaim_flows
FN:696,_RNvNtCs7RDJCKiF9ex_7lb_quic11passthrough14handle_inbound
FN:748,_RNvNtCs7RDJCKiF9ex_7lb_quic11passthrough14handle_initial
FN:1092,_RNvNtCs7RDJCKiF9ex_7lb_quic11passthrough14sample_lb_scid
FN:552,_RNvNtCs7RDJCKiF9ex_7lb_quic11passthrough15set_flows_gauge
FN:669,_RNvNtCs7RDJCKiF9ex_7lb_quic11passthrough16run_idle_sweeper
FN:647,_RNvNtCs7RDJCKiF9ex_7lb_quic11passthrough16sweep_idle_flows
FN:1059,_RNvNtCs7RDJCKiF9ex_7lb_quic11passthrough17forward_short_via
FN:1301,_RNvNtCs7RDJCKiF9ex_7lb_quic11passthrough17write_secret_file
FN:376,_RNvNtCs7RDJCKiF9ex_7lb_quic11passthrough18build_retry_packet
FN:327,_RNvNtCs7RDJCKiF9ex_7lb_quic11passthrough20hash_dcid_for_maglev
FN:1002,_RNvNtCs7RDJCKiF9ex_7lb_quic11passthrough21forward_long_existing
FN:743,_RNvNtCs7RDJCKiF9ex_7lb_quic11passthrough22default_short_dcid_len
FN:467,_RNvNtCs7RDJCKiF9ex_7lb_quic11passthrough24__test_build_retry_packet
FN:1265,_RNvNtCs7RDJCKiF9ex_7lb_quic11passthrough29load_or_generate_retry_secret
FN:1213,_RNCNCNCNCNvMs1_NtCs48r2xzLZq6T_7lb_quic11passthroughNtBd_19PassthroughListener5spawn0s1_000Bf_
FN:1209,_RNCNCNCNvMs1_NtCs48r2xzLZq6T_7lb_quic11passthroughNtBb_19PassthroughListener5spawn0s1_00Bd_
FN:1146,_RNCNCNvMs1_NtCs48r2xzLZq6T_7lb_quic11passthroughNtB9_19PassthroughListener5spawn00Bb_
FN:1166,_RNCNCNvMs1_NtCs48r2xzLZq6T_7lb_quic11passthroughNtB9_19PassthroughListener5spawn0s0_0Bb_
FN:1207,_RNCNCNvMs1_NtCs48r2xzLZq6T_7lb_quic11passthroughNtB9_19PassthroughListener5spawn0s1_0Bb_
FN:1157,_RNCNCNvMs1_NtCs48r2xzLZq6T_7lb_quic11passthroughNtB9_19PassthroughListener5spawn0s_0Bb_
FN:1136,_RNCNvMs1_NtCs48r2xzLZq6T_7lb_quic11passthroughNtB7_19PassthroughListener5spawn0B9_
FN:696,_RNCNvNtCs48r2xzLZq6T_7lb_quic11passthrough14handle_inbound0B5_
FN:1002,_RNCNvNtCs48r2xzLZq6T_7lb_quic11passthrough21forward_long_existing0B5_
FN:1237,_RNvMs1_NtCs48r2xzLZq6T_7lb_quic11passthroughNtB5_19PassthroughListener10local_addr
FN:1133,_RNvMs1_NtCs48r2xzLZq6T_7lb_quic11passthroughNtB5_19PassthroughListener5spawn
FN:1253,_RNvMs1_NtCs48r2xzLZq6T_7lb_quic11passthroughNtB5_19PassthroughListener8shutdown
FN:1246,_RNvMs1_NtCs48r2xzLZq6T_7lb_quic11passthroughNtB5_19PassthroughListener9flows_len
FN:696,_RNvNtCs48r2xzLZq6T_7lb_quic11passthrough14handle_inbound
FN:1002,_RNvNtCs48r2xzLZq6T_7lb_quic11passthrough21forward_long_existing
FN:743,_RNvNtCs48r2xzLZq6T_7lb_quic11passthrough22default_short_dcid_len
FN:467,_RNvNtCs48r2xzLZq6T_7lb_quic11passthrough24__test_build_retry_packet
FN:152,_RNvMNtCs48r2xzLZq6T_7lb_quic11passthroughNtB2_17PassthroughParams3new
FN:256,_RNvMs0_NtCs48r2xzLZq6T_7lb_quic11passthroughNtB5_9FlowEntry5touch
FN:268,_RNvMs0_NtCs48r2xzLZq6T_7lb_quic11passthroughNtB5_9FlowEntry8get_peer
FN:263,_RNvMs0_NtCs48r2xzLZq6T_7lb_quic11passthroughNtB5_9FlowEntry8set_peer
FN:1105,_RNvNtCs48r2xzLZq6T_7lb_quic11passthrough10elapsed_ms
FN:526,_RNvNtCs48r2xzLZq6T_7lb_quic11passthrough11audit_allow
FN:563,_RNvNtCs48r2xzLZq6T_7lb_quic11passthrough12evict_oldest
FN:540,_RNvNtCs48r2xzLZq6T_7lb_quic11passthrough12pick_backend
FN:951,_RNvNtCs48r2xzLZq6T_7lb_quic11passthrough12reverse_pump
FN:1013,_RNvNtCs48r2xzLZq6T_7lb_quic11passthrough13forward_short
FN:600,_RNvNtCs48r2xzLZq6T_7lb_quic11passthrough13reclaim_flows
FN:748,_RNvNtCs48r2xzLZq6T_7lb_quic11passthrough14handle_initial
FN:1092,_RNvNtCs48r2xzLZq6T_7lb_quic11passthrough14sample_lb_scid
FN:552,_RNvNtCs48r2xzLZq6T_7lb_quic11passthrough15set_flows_gauge
FN:669,_RNvNtCs48r2xzLZq6T_7lb_quic11passthrough16run_idle_sweeper
FN:647,_RNvNtCs48r2xzLZq6T_7lb_quic11passthrough16sweep_idle_flows
FN:1059,_RNvNtCs48r2xzLZq6T_7lb_quic11passthrough17forward_short_via
FN:1301,_RNvNtCs48r2xzLZq6T_7lb_quic11passthrough17write_secret_file
FN:376,_RNvNtCs48r2xzLZq6T_7lb_quic11passthrough18build_retry_packet
FN:327,_RNvNtCs48r2xzLZq6T_7lb_quic11passthrough20hash_dcid_for_maglev
FN:291,_RNvNtCs48r2xzLZq6T_7lb_quic11passthrough23__flow_entry_field_audit
FN:1265,_RNvNtCs48r2xzLZq6T_7lb_quic11passthrough29load_or_generate_retry_secret
FN:1448,_RINvNtNtCs48r2xzLZq6T_7lb_quic11passthrough5tests8test_ctxNCNCNvB2_s_29pick_backend_is_deterministic00EB6_
FN:1448,_RINvNtNtCs48r2xzLZq6T_7lb_quic11passthrough5tests8test_ctxNCNCNvB2_s_31min_client_dcid_len_floor_table00EB6_
FN:1448,_RINvNtNtCs48r2xzLZq6T_7lb_quic11passthrough5tests8test_ctxNCNCNvB2_s_31token_verify_reject_then_accept00EB6_
FN:1448,_RINvNtNtCs48r2xzLZq6T_7lb_quic11passthrough5tests8test_ctxNCNCNvB2_s_31token_verify_reject_then_accept0s_0EB6_
FN:1448,_RINvNtNtCs48r2xzLZq6T_7lb_quic11passthrough5tests8test_ctxNCNCNvB2_s_37forward_short_via_strict_source_table00EB6_
FN:1448,_RINvNtNtCs48r2xzLZq6T_7lb_quic11passthrough5tests8test_ctxNCNCNvB2_s_37mint_retry_false_forwards_and_inserts00EB6_
FN:1448,_RINvNtNtCs48r2xzLZq6T_7lb_quic11passthrough5tests8test_ctxNCNCNvB2_s_40evict_oldest_at_cap_and_negative_control00EB6_
FN:1448,_RINvNtNtCs48r2xzLZq6T_7lb_quic11passthrough5tests8test_ctxNCNCNvB2_s_40evict_oldest_at_cap_and_negative_control0s_0EB6_
FN:1448,_RINvNtNtCs48r2xzLZq6T_7lb_quic11passthrough5tests8test_ctxNCNCNvB2_s_40forward_short_multi_length_fallback_hits00EB6_
FN:1448,_RINvNtNtCs48r2xzLZq6T_7lb_quic11passthrough5tests8test_ctxNCNCNvB2_s_41mint_retry_true_mints_and_does_not_insert00EB6_
FN:1448,_RINvNtNtCs48r2xzLZq6T_7lb_quic11passthrough5tests8test_ctxNCNCNvB2_s_45idle_sweep_reclaims_idle_flows_and_frees_them00EB6_
FN:1448,_RINvNtNtCs48r2xzLZq6T_7lb_quic11passthrough5tests8test_ctxNCNCNvB2_s_58idle_sweeper_task_reaps_periodically_and_stops_on_shutdown00EB6_
FN:1450,_RNCINvNtNtCs48r2xzLZq6T_7lb_quic11passthrough5tests8test_ctxNCNCNvB4_s_29pick_backend_is_deterministic00E0B8_
FN:1450,_RNCINvNtNtCs48r2xzLZq6T_7lb_quic11passthrough5tests8test_ctxNCNCNvB4_s_31min_client_dcid_len_floor_table00E0B8_
FN:1450,_RNCINvNtNtCs48r2xzLZq6T_7lb_quic11passthrough5tests8test_ctxNCNCNvB4_s_31token_verify_reject_then_accept00E0B8_
FN:1450,_RNCINvNtNtCs48r2xzLZq6T_7lb_quic11passthrough5tests8test_ctxNCNCNvB4_s_31token_verify_reject_then_accept0s_0E0B8_
FN:1450,_RNCINvNtNtCs48r2xzLZq6T_7lb_quic11passthrough5tests8test_ctxNCNCNvB4_s_37forward_short_via_strict_source_table00E0B8_
FN:1450,_RNCINvNtNtCs48r2xzLZq6T_7lb_quic11passthrough5tests8test_ctxNCNCNvB4_s_37mint_retry_false_forwards_and_inserts00E0B8_
FN:1450,_RNCINvNtNtCs48r2xzLZq6T_7lb_quic11passthrough5tests8test_ctxNCNCNvB4_s_40evict_oldest_at_cap_and_negative_control00E0B8_
FN:1450,_RNCINvNtNtCs48r2xzLZq6T_7lb_quic11passthrough5tests8test_ctxNCNCNvB4_s_40evict_oldest_at_cap_and_negative_control0s_0E0B8_
FN:1450,_RNCINvNtNtCs48r2xzLZq6T_7lb_quic11passthrough5tests8test_ctxNCNCNvB4_s_40forward_short_multi_length_fallback_hits00E0B8_
FN:1450,_RNCINvNtNtCs48r2xzLZq6T_7lb_quic11passthrough5tests8test_ctxNCNCNvB4_s_41mint_retry_true_mints_and_does_not_insert00E0B8_
FN:1450,_RNCINvNtNtCs48r2xzLZq6T_7lb_quic11passthrough5tests8test_ctxNCNCNvB4_s_45idle_sweep_reclaims_idle_flows_and_frees_them00E0B8_
FN:1450,_RNCINvNtNtCs48r2xzLZq6T_7lb_quic11passthrough5tests8test_ctxNCNCNvB4_s_58idle_sweeper_task_reaps_periodically_and_stops_on_shutdown00E0B8_
FN:1472,_RNCNCINvNtNtCs48r2xzLZq6T_7lb_quic11passthrough5tests8test_ctxNCNCNvB6_s_29pick_backend_is_deterministic00E00Ba_
FN:1472,_RNCNCINvNtNtCs48r2xzLZq6T_7lb_quic11passthrough5tests8test_ctxNCNCNvB6_s_31min_client_dcid_len_floor_table00E00Ba_
FN:1472,_RNCNCINvNtNtCs48r2xzLZq6T_7lb_quic11passthrough5tests8test_ctxNCNCNvB6_s_31token_verify_reject_then_accept00E00Ba_
FN:1472,_RNCNCINvNtNtCs48r2xzLZq6T_7lb_quic11passthrough5tests8test_ctxNCNCNvB6_s_31token_verify_reject_then_accept0s_0E00Ba_
FN:1472,_RNCNCINvNtNtCs48r2xzLZq6T_7lb_quic11passthrough5tests8test_ctxNCNCNvB6_s_37forward_short_via_strict_source_table00E00Ba_
FN:1472,_RNCNCINvNtNtCs48r2xzLZq6T_7lb_quic11passthrough5tests8test_ctxNCNCNvB6_s_37mint_retry_false_forwards_and_inserts00E00Ba_
FN:1472,_RNCNCINvNtNtCs48r2xzLZq6T_7lb_quic11passthrough5tests8test_ctxNCNCNvB6_s_40evict_oldest_at_cap_and_negative_control00E00Ba_
FN:1472,_RNCNCINvNtNtCs48r2xzLZq6T_7lb_quic11passthrough5tests8test_ctxNCNCNvB6_s_40evict_oldest_at_cap_and_negative_control0s_0E00Ba_
FN:1472,_RNCNCINvNtNtCs48r2xzLZq6T_7lb_quic11passthrough5tests8test_ctxNCNCNvB6_s_40forward_short_multi_length_fallback_hits00E00Ba_
FN:1472,_RNCNCINvNtNtCs48r2xzLZq6T_7lb_quic11passthrough5tests8test_ctxNCNCNvB6_s_41mint_retry_true_mints_and_does_not_insert00E00Ba_
FN:1472,_RNCNCINvNtNtCs48r2xzLZq6T_7lb_quic11passthrough5tests8test_ctxNCNCNvB6_s_45idle_sweep_reclaims_idle_flows_and_frees_them00E00Ba_
FN:1472,_RNCNCINvNtNtCs48r2xzLZq6T_7lb_quic11passthrough5tests8test_ctxNCNCNvB6_s_58idle_sweeper_task_reaps_periodically_and_stops_on_shutdown00E00Ba_
FN:1969,_RNCNCNvNtNtCs48r2xzLZq6T_7lb_quic11passthrough5testss_29pick_backend_is_deterministic00B9_
FN:1520,_RNCNCNvNtNtCs48r2xzLZq6T_7lb_quic11passthrough5testss_31min_client_dcid_len_floor_table00B9_
FN:1615,_RNCNCNvNtNtCs48r2xzLZq6T_7lb_quic11passthrough5testss_31token_verify_reject_then_accept00B9_
FN:1631,_RNCNCNvNtNtCs48r2xzLZq6T_7lb_quic11passthrough5testss_31token_verify_reject_then_accept0s_0B9_
FN:1869,_RNCNCNvNtNtCs48r2xzLZq6T_7lb_quic11passthrough5testss_37forward_short_via_strict_source_table00B9_
FN:1665,_RNCNCNvNtNtCs48r2xzLZq6T_7lb_quic11passthrough5testss_40evict_oldest_at_cap_and_negative_control00B9_
FN:1695,_RNCNCNvNtNtCs48r2xzLZq6T_7lb_quic11passthrough5testss_40evict_oldest_at_cap_and_negative_control0s_0B9_
FN:1783,_RNCNCNvNtNtCs48r2xzLZq6T_7lb_quic11passthrough5testss_45idle_sweep_reclaims_idle_flows_and_frees_them0s0_0B9_
FN:1747,_RNCNCNvNtNtCs48r2xzLZq6T_7lb_quic11passthrough5testss_45idle_sweep_reclaims_idle_flows_and_frees_them0s_0B9_
FN:1335,_RNCNvNtNtCs48r2xzLZq6T_7lb_quic11passthrough5testss_25flow_entry_audit_compiles0B7_
FN:1968,_RNCNvNtNtCs48r2xzLZq6T_7lb_quic11passthrough5testss_29pick_backend_is_deterministic0B7_
FN:1515,_RNCNvNtNtCs48r2xzLZq6T_7lb_quic11passthrough5testss_31min_client_dcid_len_floor_table0B7_
FN:1613,_RNCNvNtNtCs48r2xzLZq6T_7lb_quic11passthrough5testss_31token_verify_reject_then_accept0B7_
FN:1860,_RNCNvNtNtCs48r2xzLZq6T_7lb_quic11passthrough5testss_37forward_short_via_strict_source_table0B7_
FN:1586,_RNCNvNtNtCs48r2xzLZq6T_7lb_quic11passthrough5testss_37mint_retry_false_forwards_and_inserts0B7_
FN:1661,_RNCNvNtNtCs48r2xzLZq6T_7lb_quic11passthrough5testss_40evict_oldest_at_cap_and_negative_control0B7_
FN:1898,_RNCNvNtNtCs48r2xzLZq6T_7lb_quic11passthrough5testss_40forward_short_multi_length_fallback_hits0B7_
FN:1549,_RNCNvNtNtCs48r2xzLZq6T_7lb_quic11passthrough5testss_41mint_retry_true_mints_and_does_not_insert0B7_
FN:1722,_RNCNvNtNtCs48r2xzLZq6T_7lb_quic11passthrough5testss_45idle_sweep_reclaims_idle_flows_and_frees_them0B7_
FN:1801,_RNCNvNtNtCs48r2xzLZq6T_7lb_quic11passthrough5testss_58idle_sweeper_task_reaps_periodically_and_stops_on_shutdown0B7_
FN:987,_RNCNCNvNtCs48r2xzLZq6T_7lb_quic11passthrough12reverse_pump00B7_
FN:1031,_RNCNCNvNtCs48r2xzLZq6T_7lb_quic11passthrough13forward_short00B7_
FN:1032,_RNCNCNvNtCs48r2xzLZq6T_7lb_quic11passthrough13forward_short0s_0B7_
FN:615,_RNCNCNvNtCs48r2xzLZq6T_7lb_quic11passthrough13reclaim_flows00B7_
FN:616,_RNCNCNvNtCs48r2xzLZq6T_7lb_quic11passthrough13reclaim_flows0s_0B7_
FN:923,_RNCNCNvNtCs48r2xzLZq6T_7lb_quic11passthrough14handle_initial00B7_
FN:947,_RNCNCNvNtCs48r2xzLZq6T_7lb_quic11passthrough14handle_initial0s_0B7_
FN:529,_RNCNvNtCs48r2xzLZq6T_7lb_quic11passthrough11audit_allow0B5_
FN:951,_RNCNvNtCs48r2xzLZq6T_7lb_quic11passthrough12reverse_pump0B5_
FN:1013,_RNCNvNtCs48r2xzLZq6T_7lb_quic11passthrough13forward_short0B5_
FN:612,_RNCNvNtCs48r2xzLZq6T_7lb_quic11passthrough13reclaim_flows0B5_
FN:628,_RNCNvNtCs48r2xzLZq6T_7lb_quic11passthrough13reclaim_flowss_0B5_
FN:756,_RNCNvNtCs48r2xzLZq6T_7lb_quic11passthrough14handle_initial0B5_
FN:674,_RNCNvNtCs48r2xzLZq6T_7lb_quic11passthrough16run_idle_sweeper0B5_
FN:653,_RNCNvNtCs48r2xzLZq6T_7lb_quic11passthrough16sweep_idle_flows0B5_
FN:418,_RNCNvNtCs48r2xzLZq6T_7lb_quic11passthrough18build_retry_packet0B5_
FN:427,_RNCNvNtCs48r2xzLZq6T_7lb_quic11passthrough18build_retry_packets_0B5_
FN:1292,_RNCNvNtCs48r2xzLZq6T_7lb_quic11passthrough29load_or_generate_retry_secret0B5_
FN:1496,_RNvNtNtCs48r2xzLZq6T_7lb_quic11passthrough5tests2rt
FN:1440,_RNvNtNtCs48r2xzLZq6T_7lb_quic11passthrough5tests8loopback
FN:1368,_RNvNtNtCs48r2xzLZq6T_7lb_quic11passthrough5testss_24retry_packet_byte_layout
FN:1326,_RNvNtNtCs48r2xzLZq6T_7lb_quic11passthrough5testss_25flow_entry_audit_compiles
FN:1936,_RNvNtNtCs48r2xzLZq6T_7lb_quic11passthrough5testss_25retry_secret_loader_edges
FN:1988,_RNvNtNtCs48r2xzLZq6T_7lb_quic11passthrough5testss_26audit_allow_one_per_window
FN:1398,_RNvNtNtCs48r2xzLZq6T_7lb_quic11passthrough5testss_26retry_packet_deterministic
FN:1967,_RNvNtNtCs48r2xzLZq6T_7lb_quic11passthrough5testss_29pick_backend_is_deterministic
FN:1506,_RNvNtNtCs48r2xzLZq6T_7lb_quic11passthrough5testss_31min_client_dcid_len_floor_table
FN:1612,_RNvNtNtCs48r2xzLZq6T_7lb_quic11passthrough5testss_31token_verify_reject_then_accept
FN:1859,_RNvNtNtCs48r2xzLZq6T_7lb_quic11passthrough5testss_37forward_short_via_strict_source_table
FN:1585,_RNvNtNtCs48r2xzLZq6T_7lb_quic11passthrough5testss_37mint_retry_false_forwards_and_inserts
FN:1660,_RNvNtNtCs48r2xzLZq6T_7lb_quic11passthrough5testss_40evict_oldest_at_cap_and_negative_control
FN:1897,_RNvNtNtCs48r2xzLZq6T_7lb_quic11passthrough5testss_40forward_short_multi_length_fallback_hits
FN:1548,_RNvNtNtCs48r2xzLZq6T_7lb_quic11passthrough5testss_41mint_retry_true_mints_and_does_not_insert
FN:1721,_RNvNtNtCs48r2xzLZq6T_7lb_quic11passthrough5testss_45idle_sweep_reclaims_idle_flows_and_frees_them
FN:1412,_RNvNtNtCs48r2xzLZq6T_7lb_quic11passthrough5testss_47passthrough_params_defaults_match_owner_rulings
FN:1800,_RNvNtNtCs48r2xzLZq6T_7lb_quic11passthrough5testss_58idle_sweeper_task_reaps_periodically_and_stops_on_shutdown
FN:248,_RNvXs_NtCs48r2xzLZq6T_7lb_quic11passthroughNtB4_9FlowEntryNtNtNtCs1p5UDGgVI4d_4core3ops4drop4Drop4drop
FNDA:0,_RNvXs_NtCs7RDJCKiF9ex_7lb_quic11passthroughNtB4_9FlowEntryNtNtNtCs1p5UDGgVI4d_4core3ops4drop4Drop4drop
FNDA:0,_RNCNCNCNCNvMs1_NtCs7RDJCKiF9ex_7lb_quic11passthroughNtBd_19PassthroughListener5spawn0s1_000Bf_
FNDA:0,_RNCNCNCNvMs1_NtCs7RDJCKiF9ex_7lb_quic11passthroughNtBb_19PassthroughListener5spawn0s1_00Bd_
FNDA:0,_RNCNCNvMs1_NtCs7RDJCKiF9ex_7lb_quic11passthroughNtB9_19PassthroughListener5spawn00Bb_
FNDA:0,_RNCNCNvMs1_NtCs7RDJCKiF9ex_7lb_quic11passthroughNtB9_19PassthroughListener5spawn0s0_0Bb_
FNDA:0,_RNCNCNvMs1_NtCs7RDJCKiF9ex_7lb_quic11passthroughNtB9_19PassthroughListener5spawn0s1_0Bb_
FNDA:0,_RNCNCNvMs1_NtCs7RDJCKiF9ex_7lb_quic11passthroughNtB9_19PassthroughListener5spawn0s_0Bb_
FNDA:0,_RNCNCNvNtCs7RDJCKiF9ex_7lb_quic11passthrough12reverse_pump00B7_
FNDA:0,_RNCNCNvNtCs7RDJCKiF9ex_7lb_quic11passthrough13forward_short00B7_
FNDA:0,_RNCNCNvNtCs7RDJCKiF9ex_7lb_quic11passthrough13forward_short0s_0B7_
FNDA:0,_RNCNCNvNtCs7RDJCKiF9ex_7lb_quic11passthrough14handle_initial00B7_
FNDA:0,_RNCNCNvNtCs7RDJCKiF9ex_7lb_quic11passthrough14handle_initial0s_0B7_
FNDA:0,_RNCNvMs1_NtCs7RDJCKiF9ex_7lb_quic11passthroughNtB7_19PassthroughListener5spawn0B9_
FNDA:0,_RNCNvNtCs7RDJCKiF9ex_7lb_quic11passthrough12reverse_pump0B5_
FNDA:0,_RNCNvNtCs7RDJCKiF9ex_7lb_quic11passthrough13forward_short0B5_
FNDA:0,_RNCNvNtCs7RDJCKiF9ex_7lb_quic11passthrough14handle_inbound0B5_
FNDA:0,_RNCNvNtCs7RDJCKiF9ex_7lb_quic11passthrough14handle_initial0B5_
FNDA:0,_RNCNvNtCs7RDJCKiF9ex_7lb_quic11passthrough16run_idle_sweeper0B5_
FNDA:0,_RNCNvNtCs7RDJCKiF9ex_7lb_quic11passthrough21forward_long_existing0B5_
FNDA:0,_RNvNtCs7RDJCKiF9ex_7lb_quic11passthrough23__flow_entry_field_audit
FNDA:0,_RNCNCNvNtCs7RDJCKiF9ex_7lb_quic11passthrough13reclaim_flows00B7_
FNDA:0,_RNCNCNvNtCs7RDJCKiF9ex_7lb_quic11passthrough13reclaim_flows0s_0B7_
FNDA:0,_RNCNvNtCs7RDJCKiF9ex_7lb_quic11passthrough11audit_allow0B5_
FNDA:0,_RNCNvNtCs7RDJCKiF9ex_7lb_quic11passthrough13reclaim_flows0B5_
FNDA:0,_RNCNvNtCs7RDJCKiF9ex_7lb_quic11passthrough13reclaim_flowss_0B5_
FNDA:0,_RNCNvNtCs7RDJCKiF9ex_7lb_quic11passthrough16sweep_idle_flows0B5_
FNDA:0,_RNCNvNtCs7RDJCKiF9ex_7lb_quic11passthrough18build_retry_packet0B5_
FNDA:0,_RNCNvNtCs7RDJCKiF9ex_7lb_quic11passthrough18build_retry_packets_0B5_
FNDA:0,_RNCNvNtCs7RDJCKiF9ex_7lb_quic11passthrough29load_or_generate_retry_secret0B5_
FNDA:0,_RNvMNtCs7RDJCKiF9ex_7lb_quic11passthroughNtB2_17PassthroughParams3new
FNDA:0,_RNvMs0_NtCs7RDJCKiF9ex_7lb_quic11passthroughNtB5_9FlowEntry5touch
FNDA:0,_RNvMs0_NtCs7RDJCKiF9ex_7lb_quic11passthroughNtB5_9FlowEntry8get_peer
FNDA:0,_RNvMs0_NtCs7RDJCKiF9ex_7lb_quic11passthroughNtB5_9FlowEntry8set_peer
FNDA:0,_RNvMs1_NtCs7RDJCKiF9ex_7lb_quic11passthroughNtB5_19PassthroughListener10local_addr
FNDA:0,_RNvMs1_NtCs7RDJCKiF9ex_7lb_quic11passthroughNtB5_19PassthroughListener5spawn
FNDA:0,_RNvMs1_NtCs7RDJCKiF9ex_7lb_quic11passthroughNtB5_19PassthroughListener8shutdown
FNDA:0,_RNvMs1_NtCs7RDJCKiF9ex_7lb_quic11passthroughNtB5_19PassthroughListener9flows_len
FNDA:0,_RNvNtCs7RDJCKiF9ex_7lb_quic11passthrough10elapsed_ms
FNDA:0,_RNvNtCs7RDJCKiF9ex_7lb_quic11passthrough11audit_allow
FNDA:0,_RNvNtCs7RDJCKiF9ex_7lb_quic11passthrough12evict_oldest
FNDA:0,_RNvNtCs7RDJCKiF9ex_7lb_quic11passthrough12pick_backend
FNDA:0,_RNvNtCs7RDJCKiF9ex_7lb_quic11passthrough12reverse_pump
FNDA:0,_RNvNtCs7RDJCKiF9ex_7lb_quic11passthrough13forward_short
FNDA:0,_RNvNtCs7RDJCKiF9ex_7lb_quic11passthrough13reclaim_flows
FNDA:0,_RNvNtCs7RDJCKiF9ex_7lb_quic11passthrough14handle_inbound
FNDA:0,_RNvNtCs7RDJCKiF9ex_7lb_quic11passthrough14handle_initial
FNDA:0,_RNvNtCs7RDJCKiF9ex_7lb_quic11passthrough14sample_lb_scid
FNDA:0,_RNvNtCs7RDJCKiF9ex_7lb_quic11passthrough15set_flows_gauge
FNDA:0,_RNvNtCs7RDJCKiF9ex_7lb_quic11passthrough16run_idle_sweeper
FNDA:0,_RNvNtCs7RDJCKiF9ex_7lb_quic11passthrough16sweep_idle_flows
FNDA:0,_RNvNtCs7RDJCKiF9ex_7lb_quic11passthrough17forward_short_via
FNDA:0,_RNvNtCs7RDJCKiF9ex_7lb_quic11passthrough17write_secret_file
FNDA:1001,_RNvNtCs7RDJCKiF9ex_7lb_quic11passthrough18build_retry_packet
FNDA:0,_RNvNtCs7RDJCKiF9ex_7lb_quic11passthrough20hash_dcid_for_maglev
FNDA:0,_RNvNtCs7RDJCKiF9ex_7lb_quic11passthrough21forward_long_existing
FNDA:0,_RNvNtCs7RDJCKiF9ex_7lb_quic11passthrough22default_short_dcid_len
FNDA:1001,_RNvNtCs7RDJCKiF9ex_7lb_quic11passthrough24__test_build_retry_packet
FNDA:0,_RNvNtCs7RDJCKiF9ex_7lb_quic11passthrough29load_or_generate_retry_secret
FNDA:0,_RNCNCNCNCNvMs1_NtCs48r2xzLZq6T_7lb_quic11passthroughNtBd_19PassthroughListener5spawn0s1_000Bf_
FNDA:0,_RNCNCNCNvMs1_NtCs48r2xzLZq6T_7lb_quic11passthroughNtBb_19PassthroughListener5spawn0s1_00Bd_
FNDA:0,_RNCNCNvMs1_NtCs48r2xzLZq6T_7lb_quic11passthroughNtB9_19PassthroughListener5spawn00Bb_
FNDA:0,_RNCNCNvMs1_NtCs48r2xzLZq6T_7lb_quic11passthroughNtB9_19PassthroughListener5spawn0s0_0Bb_
FNDA:0,_RNCNCNvMs1_NtCs48r2xzLZq6T_7lb_quic11passthroughNtB9_19PassthroughListener5spawn0s1_0Bb_
FNDA:0,_RNCNCNvMs1_NtCs48r2xzLZq6T_7lb_quic11passthroughNtB9_19PassthroughListener5spawn0s_0Bb_
FNDA:0,_RNCNvMs1_NtCs48r2xzLZq6T_7lb_quic11passthroughNtB7_19PassthroughListener5spawn0B9_
FNDA:0,_RNCNvNtCs48r2xzLZq6T_7lb_quic11passthrough14handle_inbound0B5_
FNDA:0,_RNCNvNtCs48r2xzLZq6T_7lb_quic11passthrough21forward_long_existing0B5_
FNDA:0,_RNvMs1_NtCs48r2xzLZq6T_7lb_quic11passthroughNtB5_19PassthroughListener10local_addr
FNDA:0,_RNvMs1_NtCs48r2xzLZq6T_7lb_quic11passthroughNtB5_19PassthroughListener5spawn
FNDA:0,_RNvMs1_NtCs48r2xzLZq6T_7lb_quic11passthroughNtB5_19PassthroughListener8shutdown
FNDA:0,_RNvMs1_NtCs48r2xzLZq6T_7lb_quic11passthroughNtB5_19PassthroughListener9flows_len
FNDA:0,_RNvNtCs48r2xzLZq6T_7lb_quic11passthrough14handle_inbound
FNDA:0,_RNvNtCs48r2xzLZq6T_7lb_quic11passthrough21forward_long_existing
FNDA:0,_RNvNtCs48r2xzLZq6T_7lb_quic11passthrough22default_short_dcid_len
FNDA:0,_RNvNtCs48r2xzLZq6T_7lb_quic11passthrough24__test_build_retry_packet
FNDA:20,_RNvMNtCs48r2xzLZq6T_7lb_quic11passthroughNtB2_17PassthroughParams3new
FNDA:2,_RNvMs0_NtCs48r2xzLZq6T_7lb_quic11passthroughNtB5_9FlowEntry5touch
FNDA:3,_RNvMs0_NtCs48r2xzLZq6T_7lb_quic11passthroughNtB5_9FlowEntry8get_peer
FNDA:2,_RNvMs0_NtCs48r2xzLZq6T_7lb_quic11passthroughNtB5_9FlowEntry8set_peer
FNDA:21,_RNvNtCs48r2xzLZq6T_7lb_quic11passthrough10elapsed_ms
FNDA:7,_RNvNtCs48r2xzLZq6T_7lb_quic11passthrough11audit_allow
FNDA:1,_RNvNtCs48r2xzLZq6T_7lb_quic11passthrough12evict_oldest
FNDA:18,_RNvNtCs48r2xzLZq6T_7lb_quic11passthrough12pick_backend
FNDA:6,_RNvNtCs48r2xzLZq6T_7lb_quic11passthrough12reverse_pump
FNDA:1,_RNvNtCs48r2xzLZq6T_7lb_quic11passthrough13forward_short
FNDA:4,_RNvNtCs48r2xzLZq6T_7lb_quic11passthrough13reclaim_flows
FNDA:21,_RNvNtCs48r2xzLZq6T_7lb_quic11passthrough14handle_initial
FNDA:1,_RNvNtCs48r2xzLZq6T_7lb_quic11passthrough14sample_lb_scid
FNDA:19,_RNvNtCs48r2xzLZq6T_7lb_quic11passthrough15set_flows_gauge
FNDA:1,_RNvNtCs48r2xzLZq6T_7lb_quic11passthrough16run_idle_sweeper
FNDA:3,_RNvNtCs48r2xzLZq6T_7lb_quic11passthrough16sweep_idle_flows
FNDA:5,_RNvNtCs48r2xzLZq6T_7lb_quic11passthrough17forward_short_via
FNDA:1,_RNvNtCs48r2xzLZq6T_7lb_quic11passthrough17write_secret_file
FNDA:4,_RNvNtCs48r2xzLZq6T_7lb_quic11passthrough18build_retry_packet
FNDA:21,_RNvNtCs48r2xzLZq6T_7lb_quic11passthrough20hash_dcid_for_maglev
FNDA:1,_RNvNtCs48r2xzLZq6T_7lb_quic11passthrough23__flow_entry_field_audit
FNDA:3,_RNvNtCs48r2xzLZq6T_7lb_quic11passthrough29load_or_generate_retry_secret
FNDA:1,_RINvNtNtCs48r2xzLZq6T_7lb_quic11passthrough5tests8test_ctxNCNCNvB2_s_29pick_backend_is_deterministic00EB6_
FNDA:5,_RINvNtNtCs48r2xzLZq6T_7lb_quic11passthrough5tests8test_ctxNCNCNvB2_s_31min_client_dcid_len_floor_table00EB6_
FNDA:1,_RINvNtNtCs48r2xzLZq6T_7lb_quic11passthrough5tests8test_ctxNCNCNvB2_s_31token_verify_reject_then_accept00EB6_
FNDA:1,_RINvNtNtCs48r2xzLZq6T_7lb_quic11passthrough5tests8test_ctxNCNCNvB2_s_31token_verify_reject_then_accept0s_0EB6_
FNDA:4,_RINvNtNtCs48r2xzLZq6T_7lb_quic11passthrough5tests8test_ctxNCNCNvB2_s_37forward_short_via_strict_source_table00EB6_
FNDA:1,_RINvNtNtCs48r2xzLZq6T_7lb_quic11passthrough5tests8test_ctxNCNCNvB2_s_37mint_retry_false_forwards_and_inserts00EB6_
FNDA:1,_RINvNtNtCs48r2xzLZq6T_7lb_quic11passthrough5tests8test_ctxNCNCNvB2_s_40evict_oldest_at_cap_and_negative_control00EB6_
FNDA:1,_RINvNtNtCs48r2xzLZq6T_7lb_quic11passthrough5tests8test_ctxNCNCNvB2_s_40evict_oldest_at_cap_and_negative_control0s_0EB6_
FNDA:1,_RINvNtNtCs48r2xzLZq6T_7lb_quic11passthrough5tests8test_ctxNCNCNvB2_s_40forward_short_multi_length_fallback_hits00EB6_
FNDA:1,_RINvNtNtCs48r2xzLZq6T_7lb_quic11passthrough5tests8test_ctxNCNCNvB2_s_41mint_retry_true_mints_and_does_not_insert00EB6_
FNDA:1,_RINvNtNtCs48r2xzLZq6T_7lb_quic11passthrough5tests8test_ctxNCNCNvB2_s_45idle_sweep_reclaims_idle_flows_and_frees_them00EB6_
FNDA:1,_RINvNtNtCs48r2xzLZq6T_7lb_quic11passthrough5tests8test_ctxNCNCNvB2_s_58idle_sweeper_task_reaps_periodically_and_stops_on_shutdown00EB6_
FNDA:1,_RNCINvNtNtCs48r2xzLZq6T_7lb_quic11passthrough5tests8test_ctxNCNCNvB4_s_29pick_backend_is_deterministic00E0B8_
FNDA:5,_RNCINvNtNtCs48r2xzLZq6T_7lb_quic11passthrough5tests8test_ctxNCNCNvB4_s_31min_client_dcid_len_floor_table00E0B8_
FNDA:1,_RNCINvNtNtCs48r2xzLZq6T_7lb_quic11passthrough5tests8test_ctxNCNCNvB4_s_31token_verify_reject_then_accept00E0B8_
FNDA:1,_RNCINvNtNtCs48r2xzLZq6T_7lb_quic11passthrough5tests8test_ctxNCNCNvB4_s_31token_verify_reject_then_accept0s_0E0B8_
FNDA:4,_RNCINvNtNtCs48r2xzLZq6T_7lb_quic11passthrough5tests8test_ctxNCNCNvB4_s_37forward_short_via_strict_source_table00E0B8_
FNDA:1,_RNCINvNtNtCs48r2xzLZq6T_7lb_quic11passthrough5tests8test_ctxNCNCNvB4_s_37mint_retry_false_forwards_and_inserts00E0B8_
FNDA:1,_RNCINvNtNtCs48r2xzLZq6T_7lb_quic11passthrough5tests8test_ctxNCNCNvB4_s_40evict_oldest_at_cap_and_negative_control00E0B8_
FNDA:1,_RNCINvNtNtCs48r2xzLZq6T_7lb_quic11passthrough5tests8test_ctxNCNCNvB4_s_40evict_oldest_at_cap_and_negative_control0s_0E0B8_
FNDA:1,_RNCINvNtNtCs48r2xzLZq6T_7lb_quic11passthrough5tests8test_ctxNCNCNvB4_s_40forward_short_multi_length_fallback_hits00E0B8_
FNDA:1,_RNCINvNtNtCs48r2xzLZq6T_7lb_quic11passthrough5tests8test_ctxNCNCNvB4_s_41mint_retry_true_mints_and_does_not_insert00E0B8_
FNDA:1,_RNCINvNtNtCs48r2xzLZq6T_7lb_quic11passthrough5tests8test_ctxNCNCNvB4_s_45idle_sweep_reclaims_idle_flows_and_frees_them00E0B8_
FNDA:1,_RNCINvNtNtCs48r2xzLZq6T_7lb_quic11passthrough5tests8test_ctxNCNCNvB4_s_58idle_sweeper_task_reaps_periodically_and_stops_on_shutdown00E0B8_
FNDA:1,_RNCNCINvNtNtCs48r2xzLZq6T_7lb_quic11passthrough5tests8test_ctxNCNCNvB6_s_29pick_backend_is_deterministic00E00Ba_
FNDA:5,_RNCNCINvNtNtCs48r2xzLZq6T_7lb_quic11passthrough5tests8test_ctxNCNCNvB6_s_31min_client_dcid_len_floor_table00E00Ba_
FNDA:1,_RNCNCINvNtNtCs48r2xzLZq6T_7lb_quic11passthrough5tests8test_ctxNCNCNvB6_s_31token_verify_reject_then_accept00E00Ba_
FNDA:1,_RNCNCINvNtNtCs48r2xzLZq6T_7lb_quic11passthrough5tests8test_ctxNCNCNvB6_s_31token_verify_reject_then_accept0s_0E00Ba_
FNDA:4,_RNCNCINvNtNtCs48r2xzLZq6T_7lb_quic11passthrough5tests8test_ctxNCNCNvB6_s_37forward_short_via_strict_source_table00E00Ba_
FNDA:1,_RNCNCINvNtNtCs48r2xzLZq6T_7lb_quic11passthrough5tests8test_ctxNCNCNvB6_s_37mint_retry_false_forwards_and_inserts00E00Ba_
FNDA:1,_RNCNCINvNtNtCs48r2xzLZq6T_7lb_quic11passthrough5tests8test_ctxNCNCNvB6_s_40evict_oldest_at_cap_and_negative_control00E00Ba_
FNDA:1,_RNCNCINvNtNtCs48r2xzLZq6T_7lb_quic11passthrough5tests8test_ctxNCNCNvB6_s_40evict_oldest_at_cap_and_negative_control0s_0E00Ba_
FNDA:1,_RNCNCINvNtNtCs48r2xzLZq6T_7lb_quic11passthrough5tests8test_ctxNCNCNvB6_s_40forward_short_multi_length_fallback_hits00E00Ba_
FNDA:1,_RNCNCINvNtNtCs48r2xzLZq6T_7lb_quic11passthrough5tests8test_ctxNCNCNvB6_s_41mint_retry_true_mints_and_does_not_insert00E00Ba_
FNDA:1,_RNCNCINvNtNtCs48r2xzLZq6T_7lb_quic11passthrough5tests8test_ctxNCNCNvB6_s_45idle_sweep_reclaims_idle_flows_and_frees_them00E00Ba_
FNDA:1,_RNCNCINvNtNtCs48r2xzLZq6T_7lb_quic11passthrough5tests8test_ctxNCNCNvB6_s_58idle_sweeper_task_reaps_periodically_and_stops_on_shutdown00E00Ba_
FNDA:1,_RNCNCNvNtNtCs48r2xzLZq6T_7lb_quic11passthrough5testss_29pick_backend_is_deterministic00B9_
FNDA:5,_RNCNCNvNtNtCs48r2xzLZq6T_7lb_quic11passthrough5testss_31min_client_dcid_len_floor_table00B9_
FNDA:1,_RNCNCNvNtNtCs48r2xzLZq6T_7lb_quic11passthrough5testss_31token_verify_reject_then_accept00B9_
FNDA:1,_RNCNCNvNtNtCs48r2xzLZq6T_7lb_quic11passthrough5testss_31token_verify_reject_then_accept0s_0B9_
FNDA:4,_RNCNCNvNtNtCs48r2xzLZq6T_7lb_quic11passthrough5testss_37forward_short_via_strict_source_table00B9_
FNDA:1,_RNCNCNvNtNtCs48r2xzLZq6T_7lb_quic11passthrough5testss_40evict_oldest_at_cap_and_negative_control00B9_
FNDA:1,_RNCNCNvNtNtCs48r2xzLZq6T_7lb_quic11passthrough5testss_40evict_oldest_at_cap_and_negative_control0s_0B9_
FNDA:3,_RNCNCNvNtNtCs48r2xzLZq6T_7lb_quic11passthrough5testss_45idle_sweep_reclaims_idle_flows_and_frees_them0s0_0B9_
FNDA:3,_RNCNCNvNtNtCs48r2xzLZq6T_7lb_quic11passthrough5testss_45idle_sweep_reclaims_idle_flows_and_frees_them0s_0B9_
FNDA:1,_RNCNvNtNtCs48r2xzLZq6T_7lb_quic11passthrough5testss_25flow_entry_audit_compiles0B7_
FNDA:1,_RNCNvNtNtCs48r2xzLZq6T_7lb_quic11passthrough5testss_29pick_backend_is_deterministic0B7_
FNDA:1,_RNCNvNtNtCs48r2xzLZq6T_7lb_quic11passthrough5testss_31min_client_dcid_len_floor_table0B7_
FNDA:1,_RNCNvNtNtCs48r2xzLZq6T_7lb_quic11passthrough5testss_31token_verify_reject_then_accept0B7_
FNDA:1,_RNCNvNtNtCs48r2xzLZq6T_7lb_quic11passthrough5testss_37forward_short_via_strict_source_table0B7_
FNDA:1,_RNCNvNtNtCs48r2xzLZq6T_7lb_quic11passthrough5testss_37mint_retry_false_forwards_and_inserts0B7_
FNDA:1,_RNCNvNtNtCs48r2xzLZq6T_7lb_quic11passthrough5testss_40evict_oldest_at_cap_and_negative_control0B7_
FNDA:1,_RNCNvNtNtCs48r2xzLZq6T_7lb_quic11passthrough5testss_40forward_short_multi_length_fallback_hits0B7_
FNDA:1,_RNCNvNtNtCs48r2xzLZq6T_7lb_quic11passthrough5testss_41mint_retry_true_mints_and_does_not_insert0B7_
FNDA:1,_RNCNvNtNtCs48r2xzLZq6T_7lb_quic11passthrough5testss_45idle_sweep_reclaims_idle_flows_and_frees_them0B7_
FNDA:1,_RNCNvNtNtCs48r2xzLZq6T_7lb_quic11passthrough5testss_58idle_sweeper_task_reaps_periodically_and_stops_on_shutdown0B7_
FNDA:0,_RNCNCNvNtCs48r2xzLZq6T_7lb_quic11passthrough12reverse_pump00B7_
FNDA:1,_RNCNCNvNtCs48r2xzLZq6T_7lb_quic11passthrough13forward_short00B7_
FNDA:1,_RNCNCNvNtCs48r2xzLZq6T_7lb_quic11passthrough13forward_short0s_0B7_
FNDA:14,_RNCNCNvNtCs48r2xzLZq6T_7lb_quic11passthrough13reclaim_flows00B7_
FNDA:7,_RNCNCNvNtCs48r2xzLZq6T_7lb_quic11passthrough13reclaim_flows0s_0B7_
FNDA:6,_RNCNCNvNtCs48r2xzLZq6T_7lb_quic11passthrough14handle_initial00B7_
FNDA:6,_RNCNCNvNtCs48r2xzLZq6T_7lb_quic11passthrough14handle_initial0s_0B7_
FNDA:7,_RNCNvNtCs48r2xzLZq6T_7lb_quic11passthrough11audit_allow0B5_
FNDA:6,_RNCNvNtCs48r2xzLZq6T_7lb_quic11passthrough12reverse_pump0B5_
FNDA:1,_RNCNvNtCs48r2xzLZq6T_7lb_quic11passthrough13forward_short0B5_
FNDA:8,_RNCNvNtCs48r2xzLZq6T_7lb_quic11passthrough13reclaim_flows0B5_
FNDA:7,_RNCNvNtCs48r2xzLZq6T_7lb_quic11passthrough13reclaim_flowss_0B5_
FNDA:21,_RNCNvNtCs48r2xzLZq6T_7lb_quic11passthrough14handle_initial0B5_
FNDA:1,_RNCNvNtCs48r2xzLZq6T_7lb_quic11passthrough16run_idle_sweeper0B5_
FNDA:6,_RNCNvNtCs48r2xzLZq6T_7lb_quic11passthrough16sweep_idle_flows0B5_
FNDA:0,_RNCNvNtCs48r2xzLZq6T_7lb_quic11passthrough18build_retry_packet0B5_
FNDA:0,_RNCNvNtCs48r2xzLZq6T_7lb_quic11passthrough18build_retry_packets_0B5_
FNDA:0,_RNCNvNtCs48r2xzLZq6T_7lb_quic11passthrough29load_or_generate_retry_secret0B5_
FNDA:10,_RNvNtNtCs48r2xzLZq6T_7lb_quic11passthrough5tests2rt
FNDA:91,_RNvNtNtCs48r2xzLZq6T_7lb_quic11passthrough5tests8loopback
FNDA:1,_RNvNtNtCs48r2xzLZq6T_7lb_quic11passthrough5testss_24retry_packet_byte_layout
FNDA:1,_RNvNtNtCs48r2xzLZq6T_7lb_quic11passthrough5testss_25flow_entry_audit_compiles
FNDA:1,_RNvNtNtCs48r2xzLZq6T_7lb_quic11passthrough5testss_25retry_secret_loader_edges
FNDA:1,_RNvNtNtCs48r2xzLZq6T_7lb_quic11passthrough5testss_26audit_allow_one_per_window
FNDA:1,_RNvNtNtCs48r2xzLZq6T_7lb_quic11passthrough5testss_26retry_packet_deterministic
FNDA:1,_RNvNtNtCs48r2xzLZq6T_7lb_quic11passthrough5testss_29pick_backend_is_deterministic
FNDA:1,_RNvNtNtCs48r2xzLZq6T_7lb_quic11passthrough5testss_31min_client_dcid_len_floor_table
FNDA:1,_RNvNtNtCs48r2xzLZq6T_7lb_quic11passthrough5testss_31token_verify_reject_then_accept
FNDA:1,_RNvNtNtCs48r2xzLZq6T_7lb_quic11passthrough5testss_37forward_short_via_strict_source_table
FNDA:1,_RNvNtNtCs48r2xzLZq6T_7lb_quic11passthrough5testss_37mint_retry_false_forwards_and_inserts
FNDA:1,_RNvNtNtCs48r2xzLZq6T_7lb_quic11passthrough5testss_40evict_oldest_at_cap_and_negative_control
FNDA:1,_RNvNtNtCs48r2xzLZq6T_7lb_quic11passthrough5testss_40forward_short_multi_length_fallback_hits
FNDA:1,_RNvNtNtCs48r2xzLZq6T_7lb_quic11passthrough5testss_41mint_retry_true_mints_and_does_not_insert
FNDA:1,_RNvNtNtCs48r2xzLZq6T_7lb_quic11passthrough5testss_45idle_sweep_reclaims_idle_flows_and_frees_them
FNDA:1,_RNvNtNtCs48r2xzLZq6T_7lb_quic11passthrough5testss_47passthrough_params_defaults_match_owner_rulings
FNDA:1,_RNvNtNtCs48r2xzLZq6T_7lb_quic11passthrough5testss_58idle_sweeper_task_reaps_periodically_and_stops_on_shutdown
FNDA:22,_RNvXs_NtCs48r2xzLZq6T_7lb_quic11passthroughNtB4_9FlowEntryNtNtNtCs1p5UDGgVI4d_4core3ops4drop4Drop4drop
FNF:99
FNH:79
DA:152,20
DA:153,20
DA:154,20
DA:155,20
DA:156,20
DA:157,20
DA:158,20
DA:159,20
DA:160,20
DA:161,20
DA:162,20
DA:163,20
DA:164,20
DA:165,20
DA:166,20
DA:167,20
DA:168,20
DA:169,20
DA:170,20
DA:171,20
DA:248,22
DA:249,22
DA:250,22
DA:256,2
DA:257,2
DA:258,2
DA:259,2
DA:260,2
DA:263,2
DA:264,2
DA:265,2
DA:268,3
DA:269,3
DA:270,3
DA:291,1
DA:293,1
DA:294,1
DA:295,1
DA:296,1
DA:297,1
DA:298,1
DA:299,1
DA:301,1
DA:302,1
DA:305,1
DA:306,1
DA:307,1
DA:308,1
DA:309,1
DA:310,1
DA:311,1
DA:313,1
DA:316,1
DA:327,21
DA:331,21
DA:332,178
DA:333,157
DA:334,157
DA:335,157
DA:336,157
DA:337,21
DA:338,21
DA:339,21
DA:340,21
DA:341,21
DA:342,21
DA:343,21
DA:376,1005
DA:377,1005
DA:378,1005
DA:379,1005
DA:380,1005
DA:381,1005
DA:382,1005
DA:383,1005
DA:384,1005
DA:385,0
DA:386,1005
DA:387,1005
DA:388,0
DA:389,0
DA:390,0
DA:391,0
DA:392,1005
DA:400,1005
DA:403,1005
DA:404,1005
DA:406,1005
DA:407,1005
DA:408,1005
DA:409,1005
DA:410,1005
DA:411,1005
DA:412,1005
DA:413,1005
DA:414,1005
DA:417,1005
DA:418,1005
DA:419,1005
DA:420,1005
DA:421,1005
DA:424,1005
DA:425,1005
DA:426,1005
DA:427,1005
DA:428,1005
DA:429,1005
DA:430,0
DA:431,0
DA:432,0
DA:433,0
DA:434,0
DA:435,1005
DA:438,1005
DA:439,1005
DA:440,1005
DA:441,1005
DA:442,1005
DA:443,1005
DA:444,1005
DA:445,1005
DA:446,1005
DA:447,1005
DA:448,1005
DA:449,1005
DA:467,1001
DA:468,1001
DA:469,1001
DA:470,1001
DA:471,1001
DA:472,1001
DA:473,1001
DA:474,1001
DA:475,1001
DA:476,1001
DA:526,7
DA:527,7
DA:528,7
DA:529,7
DA:530,7
DA:531,4
DA:533,3
DA:535,7
DA:536,7
DA:537,7
DA:540,18
DA:541,18
DA:542,18
DA:543,18
DA:544,18
DA:552,19
DA:553,19
DA:554,19
DA:555,19
DA:556,19
DA:557,19
DA:563,1
DA:564,1
DA:565,1
DA:566,2
DA:567,2
DA:568,2
DA:569,1
DA:570,1
DA:571,1
DA:573,1
DA:574,1
DA:575,0
DA:577,1
DA:600,4
DA:601,4
DA:602,1
DA:603,3
DA:605,10
DA:606,7
DA:607,7
DA:608,3
DA:609,3
DA:610,3
DA:611,3
DA:612,8
DA:613,8
DA:614,8
DA:615,14
DA:616,8
DA:617,8
DA:618,3
DA:619,3
DA:620,10
DA:621,7
DA:622,7
DA:623,7
DA:624,7
DA:625,7
DA:626,0
DA:628,7
DA:629,3
DA:630,3
DA:631,3
DA:632,3
DA:633,3
DA:635,3
DA:636,0
DA:637,3
DA:638,4
DA:647,3
DA:648,3
DA:649,3
DA:650,9
DA:651,9
DA:652,9
DA:653,6
DA:654,6
DA:655,6
DA:656,6
DA:658,3
DA:659,3
DA:660,3
DA:661,3
DA:669,1
DA:670,1
DA:671,1
DA:672,1
DA:673,1
DA:674,1
DA:675,1
DA:676,1
DA:678,2
DA:680,2
DA:681,2
DA:682,1
DA:683,1
DA:684,1
DA:687,0
DA:689,0
DA:693,1
DA:696,0
DA:697,0
DA:698,0
DA:699,0
DA:700,0
DA:701,0
DA:702,0
DA:703,0
DA:704,0
DA:708,0
DA:710,0
DA:711,0
DA:712,0
DA:713,0
DA:714,0
DA:716,0
DA:718,0
DA:725,0
DA:730,0
DA:733,0
DA:736,0
DA:739,0
DA:743,0
DA:744,0
DA:745,0
DA:748,21
DA:749,21
DA:750,21
DA:751,21
DA:752,21
DA:753,21
DA:754,21
DA:755,21
DA:756,21
DA:759,21
DA:760,3
DA:762,0
DA:763,0
DA:764,0
DA:766,3
DA:767,18
DA:770,18
DA:771,0
DA:772,0
DA:773,0
DA:774,0
DA:775,0
DA:776,0
DA:777,18
DA:796,18
DA:797,18
DA:799,1
DA:800,1
DA:801,1
DA:802,1
DA:803,0
DA:804,0
DA:805,1
DA:806,1
DA:807,0
DA:808,1
DA:809,1
DA:810,1
DA:811,1
DA:812,1
DA:813,17
DA:817,17
DA:818,17
DA:819,2
DA:820,1
DA:821,1
DA:822,1
DA:823,1
DA:824,1
DA:825,1
DA:826,15
DA:831,16
DA:832,16
DA:834,1
DA:835,1
DA:836,1
DA:837,1
DA:838,1
DA:840,1
DA:843,0
DA:845,0
DA:847,0
DA:848,2
DA:849,1
DA:850,0
DA:851,1
DA:853,15
DA:856,16
DA:857,0
DA:858,0
DA:862,16
DA:863,16
DA:864,0
DA:866,16
DA:867,16
DA:868,0
DA:869,0
DA:870,0
DA:871,0
DA:872,0
DA:873,0
DA:876,16
DA:877,0
DA:878,0
DA:879,0
DA:880,0
DA:881,0
DA:882,16
DA:883,16
DA:885,16
DA:888,16
DA:890,16
DA:891,16
DA:892,16
DA:893,16
DA:894,16
DA:895,16
DA:896,16
DA:897,16
DA:898,16
DA:899,16
DA:900,16
DA:909,16
DA:911,16
DA:914,16
DA:920,16
DA:921,16
DA:922,16
DA:923,16
DA:924,6
DA:926,12
DA:928,12
DA:929,12
DA:930,6
DA:931,0
DA:934,6
DA:935,0
DA:936,0
DA:937,0
DA:938,0
DA:939,0
DA:940,6
DA:942,3
DA:945,16
DA:946,16
DA:947,16
DA:948,21
DA:951,6
DA:952,6
DA:959,6
DA:961,6
DA:962,6
DA:963,0
DA:964,6
DA:965,6
DA:966,6
DA:967,6
DA:968,6
DA:969,6
DA:973,0
DA:980,0
DA:981,0
DA:982,0
DA:987,0
DA:988,0
DA:989,0
DA:990,0
DA:992,0
DA:993,0
DA:994,0
DA:997,0
DA:999,6
DA:1002,0
DA:1003,0
DA:1004,0
DA:1005,0
DA:1006,0
DA:1007,0
DA:1008,0
DA:1009,0
DA:1013,1
DA:1015,1
DA:1016,0
DA:1017,0
DA:1018,0
DA:1019,0
DA:1020,0
DA:1021,0
DA:1022,0
DA:1023,0
DA:1024,0
DA:1025,1
DA:1028,1
DA:1029,1
DA:1030,1
DA:1031,1
DA:1032,1
DA:1033,1
DA:1034,1
DA:1035,1
DA:1036,1
DA:1037,1
DA:1038,1
DA:1039,0
DA:1041,1
DA:1042,1
DA:1043,1
DA:1044,1
DA:1045,0
DA:1046,1
DA:1047,1
DA:1048,1
DA:1049,1
DA:1050,1
DA:1051,0
DA:1055,1
DA:1059,5
DA:1060,5
DA:1061,3
DA:1062,2
DA:1063,2
DA:1064,2
DA:1066,1
DA:1069,0
DA:1074,1
DA:1075,1
DA:1076,1
DA:1077,1
DA:1078,1
DA:1080,1
DA:1084,0
DA:1086,0
DA:1087,1
DA:1088,1
DA:1089,1
DA:1090,5
DA:1092,1
DA:1093,1
DA:1094,1
DA:1099,0
DA:1100,0
DA:1101,1
DA:1102,1
DA:1103,1
DA:1105,21
DA:1106,21
DA:1107,21
DA:1133,0
DA:1134,0
DA:1135,0
DA:1136,0
DA:1137,0
DA:1138,0
DA:1139,0
DA:1140,0
DA:1141,0
DA:1142,0
DA:1144,0
DA:1145,0
DA:1146,0
DA:1147,0
DA:1148,0
DA:1149,0
DA:1152,0
DA:1153,0
DA:1154,0
DA:1155,0
DA:1156,0
DA:1157,0
DA:1162,0
DA:1163,0
DA:1164,0
DA:1165,0
DA:1166,0
DA:1168,0
DA:1169,0
DA:1170,0
DA:1171,0
DA:1172,0
DA:1173,0
DA:1174,0
DA:1175,0
DA:1176,0
DA:1177,0
DA:1178,0
DA:1180,0
DA:1183,0
DA:1184,0
DA:1192,0
DA:1193,0
DA:1194,0
DA:1195,0
DA:1196,0
DA:1197,0
DA:1198,0
DA:1199,0
DA:1200,0
DA:1201,0
DA:1202,0
DA:1203,0
DA:1205,0
DA:1206,0
DA:1207,0
DA:1208,0
DA:1209,0
DA:1210,0
DA:1211,0
DA:1212,0
DA:1213,0
DA:1214,0
DA:1215,0
DA:1216,0
DA:1217,0
DA:1218,0
DA:1219,0
DA:1221,0
DA:1222,0
DA:1223,0
DA:1225,0
DA:1226,0
DA:1227,0
DA:1228,0
DA:1229,0
DA:1230,0
DA:1231,0
DA:1232,0
DA:1233,0
DA:1237,0
DA:1238,0
DA:1239,0
DA:1246,0
DA:1247,0
DA:1248,0
DA:1253,0
DA:1254,0
DA:1255,0
DA:1256,0
DA:1265,3
DA:1266,3
DA:1267,2
DA:1268,2
DA:1269,1
DA:1270,1
DA:1271,1
DA:1272,1
DA:1273,1
DA:1274,1
DA:1275,1
DA:1276,1
DA:1277,1
DA:1278,1
DA:1279,1
DA:1280,1
DA:1282,1
DA:1284,1
DA:1285,1
DA:1286,1
DA:1287,1
DA:1288,0
DA:1289,0
DA:1290,1
DA:1291,1
DA:1292,1
DA:1293,1
DA:1294,1
DA:1296,0
DA:1298,3
DA:1301,1
DA:1304,1
DA:1305,1
DA:1306,1
DA:1307,1
DA:1308,1
DA:1309,1
DA:1310,1
DA:1311,1
DA:1312,1
DA:1326,1
DA:1330,1
DA:1331,1
DA:1332,1
DA:1333,1
DA:1334,1
DA:1335,1
DA:1336,1
DA:1337,1
DA:1338,1
DA:1339,1
DA:1340,1
DA:1341,1
DA:1342,1
DA:1343,1
DA:1344,1
DA:1345,1
DA:1346,1
DA:1347,1
DA:1348,1
DA:1349,1
DA:1350,1
DA:1351,1
DA:1352,1
DA:1353,1
DA:1354,1
DA:1355,1
DA:1356,1
DA:1357,1
DA:1359,1
DA:1360,1
DA:1361,1
DA:1362,1
DA:1363,1
DA:1364,1
DA:1365,1
DA:1368,1
DA:1374,1
DA:1375,1
DA:1376,1
DA:1377,1
DA:1378,1
DA:1379,1
DA:1380,1
DA:1381,1
DA:1385,1
DA:1386,1
DA:1387,1
DA:1388,1
DA:1389,1
DA:1390,1
DA:1391,1
DA:1393,1
DA:1394,1
DA:1395,1
DA:1398,1
DA:1400,1
DA:1401,1
DA:1402,1
DA:1403,1
DA:1404,1
DA:1405,1
DA:1406,1
DA:1407,1
DA:1408,1
DA:1409,1
DA:1412,1
DA:1413,1
DA:1414,1
DA:1415,1
DA:1416,1
DA:1418,1
DA:1419,1
DA:1420,1
DA:1421,1
DA:1422,1
DA:1423,1
DA:1440,91
DA:1441,91
DA:1442,91
DA:1448,19
DA:1449,19
DA:1450,19
DA:1453,19
DA:1454,19
DA:1456,19
DA:1457,19
DA:1458,19
DA:1460,19
DA:1461,19
DA:1463,19
DA:1464,19
DA:1465,19
DA:1467,19
DA:1468,19
DA:1469,19
DA:1470,19
DA:1471,19
DA:1472,19
DA:1477,19
DA:1478,19
DA:1479,19
DA:1480,19
DA:1482,19
DA:1483,19
DA:1484,19
DA:1485,19
DA:1486,19
DA:1487,19
DA:1488,19
DA:1489,19
DA:1490,19
DA:1491,19
DA:1492,19
DA:1493,19
DA:1494,19
DA:1496,10
DA:1497,10
DA:1498,10
DA:1499,10
DA:1500,10
DA:1501,10
DA:1506,1
DA:1508,1
DA:1509,1
DA:1510,1
DA:1511,1
DA:1512,1
DA:1513,1
DA:1514,1
DA:1515,1
DA:1516,6
DA:1520,5
DA:1521,5
DA:1522,5
DA:1523,5
DA:1524,5
DA:1525,5
DA:1526,5
DA:1527,5
DA:1528,5
DA:1529,5
DA:1530,5
DA:1531,5
DA:1532,5
DA:1533,5
DA:1534,5
DA:1535,5
DA:1536,5
DA:1537,5
DA:1539,0
DA:1542,1
DA:1543,1
DA:1548,1
DA:1549,1
DA:1552,1
DA:1553,1
DA:1555,1
DA:1556,1
DA:1557,1
DA:1558,1
DA:1559,1
DA:1560,1
DA:1561,1
DA:1562,1
DA:1563,1
DA:1564,1
DA:1565,1
DA:1566,1
DA:1569,1
DA:1570,1
DA:1572,1
DA:1573,1
DA:1574,1
DA:1575,1
DA:1576,1
DA:1577,1
DA:1578,1
DA:1579,1
DA:1580,1
DA:1585,1
DA:1586,1
DA:1587,1
DA:1588,1
DA:1589,1
DA:1590,1
DA:1591,1
DA:1592,1
DA:1593,1
DA:1594,1
DA:1595,1
DA:1596,1
DA:1597,1
DA:1598,1
DA:1599,1
DA:1600,1
DA:1601,1
DA:1603,0
DA:1605,1
DA:1606,1
DA:1607,1
DA:1612,1
DA:1613,1
DA:1615,1
DA:1616,1
DA:1617,1
DA:1618,1
DA:1619,1
DA:1620,1
DA:1621,1
DA:1622,1
DA:1623,1
DA:1624,1
DA:1625,1
DA:1626,1
DA:1627,1
DA:1628,1
DA:1631,1
DA:1632,1
DA:1633,1
DA:1634,1
DA:1635,1
DA:1636,1
DA:1637,1
DA:1638,1
DA:1639,1
DA:1640,1
DA:1641,1
DA:1642,1
DA:1643,1
DA:1644,1
DA:1645,1
DA:1646,1
DA:1647,0
DA:1649,1
DA:1650,1
DA:1652,0
DA:1654,1
DA:1655,1
DA:1660,1
DA:1661,1
DA:1665,1
DA:1666,1
DA:1667,1
DA:1668,1
DA:1669,1
DA:1670,4
DA:1671,3
DA:1672,3
DA:1673,3
DA:1674,3
DA:1675,3
DA:1676,3
DA:1677,3
DA:1678,3
DA:1679,3
DA:1680,3
DA:1681,3
DA:1683,1
DA:1684,1
DA:1685,1
DA:1686,0
DA:1688,1
DA:1689,1
DA:1690,1
DA:1691,0
DA:1695,1
DA:1696,1
DA:1697,1
DA:1698,1
DA:1699,1
DA:1700,4
DA:1701,3
DA:1702,3
DA:1703,3
DA:1704,3
DA:1705,3
DA:1706,3
DA:1707,3
DA:1708,3
DA:1709,3
DA:1710,3
DA:1711,3
DA:1713,1
DA:1714,1
DA:1715,1
DA:1716,1
DA:1721,1
DA:1722,1
DA:1723,1
DA:1726,4
DA:1727,3
DA:1728,3
DA:1729,3
DA:1730,3
DA:1731,3
DA:1732,3
DA:1733,3
DA:1734,3
DA:1735,3
DA:1736,3
DA:1737,3
DA:1739,1
DA:1744,1
DA:1745,1
DA:1746,1
DA:1747,3
DA:1748,1
DA:1752,1
DA:1753,1
DA:1755,0
DA:1757,1
DA:1758,1
DA:1763,3
DA:1764,3
DA:1765,3
DA:1766,1
DA:1767,1
DA:1768,1
DA:1769,1
DA:1770,1
DA:1771,1
DA:1773,0
DA:1775,1
DA:1781,1
DA:1783,3
DA:1784,1
DA:1785,1
DA:1786,0
DA:1787,0
DA:1788,0
DA:1789,0
DA:1790,0
DA:1792,0
DA:1794,1
DA:1795,1
DA:1800,1
DA:1801,1
DA:1802,1
DA:1803,4
DA:1804,3
DA:1805,3
DA:1806,3
DA:1807,3
DA:1808,3
DA:1809,3
DA:1810,3
DA:1811,3
DA:1812,3
DA:1813,3
DA:1814,3
DA:1816,1
DA:1818,3
DA:1819,3
DA:1820,3
DA:1821,1
DA:1824,1
DA:1825,1
DA:1826,1
DA:1828,1
DA:1829,1
DA:1833,1
DA:1834,2
DA:1835,1
DA:1836,1
DA:1837,0
DA:1839,1
DA:1841,1
DA:1842,1
DA:1843,0
DA:1848,1
DA:1849,1
DA:1850,1
DA:1851,1
DA:1852,1
DA:1853,1
DA:1854,1
DA:1859,1
DA:1860,1
DA:1862,1
DA:1863,1
DA:1864,1
DA:1865,1
DA:1866,1
DA:1867,1
DA:1868,5
DA:1869,4
DA:1870,4
DA:1871,4
DA:1872,2
DA:1874,2
DA:1876,4
DA:1877,4
DA:1878,4
DA:1879,4
DA:1880,4
DA:1881,4
DA:1882,4
DA:1883,4
DA:1884,4
DA:1885,4
DA:1887,4
DA:1888,4
DA:1890,0
DA:1893,1
DA:1894,1
DA:1897,1
DA:1898,1
DA:1902,1
DA:1903,1
DA:1904,1
DA:1905,1
DA:1906,1
DA:1907,1
DA:1908,1
DA:1909,1
DA:1910,1
DA:1911,1
DA:1912,1
DA:1913,1
DA:1915,1
DA:1918,1
DA:1919,1
DA:1920,1
DA:1923,1
DA:1924,1
DA:1926,1
DA:1927,1
DA:1928,0
DA:1930,1
DA:1931,1
DA:1936,1
DA:1937,1
DA:1938,1
DA:1939,1
DA:1940,1
DA:1941,1
DA:1942,1
DA:1945,1
DA:1946,1
DA:1947,1
DA:1948,1
DA:1951,1
DA:1954,1
DA:1955,1
DA:1956,1
DA:1957,1
DA:1958,0
DA:1961,1
DA:1962,1
DA:1967,1
DA:1968,1
DA:1969,1
DA:1970,1
DA:1971,1
DA:1972,1
DA:1973,1
DA:1974,1
DA:1975,1
DA:1977,1
DA:1978,1
DA:1979,1
DA:1980,1
DA:1981,0
DA:1983,1
DA:1988,1
DA:1989,1
DA:1990,1
DA:1992,1
DA:1994,1
DA:1995,1
DA:1996,1
DA:1997,0
DA:2000,1
DA:2002,1
DA:2003,1
DA:2004,0
DA:2006,1
BRF:0
BRH:0
LF:1143
LH:902
end_of_record
SF:/home/ubuntu/Code/ExpressGateway/.claude/worktrees/s36-verify/crates/lb-quic/src/public_header.rs
FN:183,_RNvNtCs7RDJCKiF9ex_7lb_quic13public_header10parse_long
FN:337,_RNvNtCs7RDJCKiF9ex_7lb_quic13public_header11parse_short
FN:134,_RNvNtCs7RDJCKiF9ex_7lb_quic13public_header13decode_varint
FN:165,_RNvNtCs7RDJCKiF9ex_7lb_quic13public_header19parse_public_header
FN:276,_RNCNvNtCs7RDJCKiF9ex_7lb_quic13public_header10parse_long0B5_
FN:276,_RNCNvNtCs48r2xzLZq6T_7lb_quic13public_header10parse_long0B5_
FN:395,_RNvNtNtCs48r2xzLZq6T_7lb_quic13public_header5tests18rfc9001_a2_initial
FN:442,_RNvNtNtCs48r2xzLZq6T_7lb_quic13public_header5tests21handcrafted_handshake
FN:649,_RNvNtNtCs48r2xzLZq6T_7lb_quic13public_header5testss_15varint_one_byte
FN:657,_RNvNtNtCs48r2xzLZq6T_7lb_quic13public_header5testss_15varint_two_byte
FN:456,_RNvNtNtCs48r2xzLZq6T_7lb_quic13public_header5testss_16handshake_parses
FN:665,_RNvNtNtCs48r2xzLZq6T_7lb_quic13public_header5testss_16varint_four_byte
FN:671,_RNvNtNtCs48r2xzLZq6T_7lb_quic13public_header5testss_17varint_eight_byte
FN:677,_RNvNtNtCs48r2xzLZq6T_7lb_quic13public_header5testss_17varint_incomplete
FN:565,_RNvNtNtCs48r2xzLZq6T_7lb_quic13public_header5testss_21short_header_positive
FN:508,_RNvNtNtCs48r2xzLZq6T_7lb_quic13public_header5testss_22dcid_too_long_rejected
FN:520,_RNvNtNtCs48r2xzLZq6T_7lb_quic13public_header5testss_22scid_too_long_rejected
FN:480,_RNvNtNtCs48r2xzLZq6T_7lb_quic13public_header5testss_25empty_buffer_is_too_short
FN:410,_RNvNtNtCs48r2xzLZq6T_7lb_quic13public_header5testss_25rfc9001_a2_initial_parses
FN:625,_RNvNtNtCs48r2xzLZq6T_7lb_quic13public_header5testss_26retry_classified_no_length
FN:488,_RNvNtNtCs48r2xzLZq6T_7lb_quic13public_header5testss_29fixed_bit_clear_long_rejected
FN:498,_RNvNtNtCs48r2xzLZq6T_7lb_quic13public_header5testss_30fixed_bit_clear_short_rejected
FN:579,_RNvNtNtCs48r2xzLZq6T_7lb_quic13public_header5testss_30short_header_zero_len_rejected
FN:588,_RNvNtNtCs48r2xzLZq6T_7lb_quic13public_header5testss_31short_header_too_short_for_dcid
FN:544,_RNvNtNtCs48r2xzLZq6T_7lb_quic13public_header5testss_32initial_declared_length_overruns
FN:533,_RNvNtNtCs48r2xzLZq6T_7lb_quic13public_header5testss_37initial_truncated_in_token_len_varint
FN:599,_RNvNtNtCs48r2xzLZq6T_7lb_quic13public_header5testss_39version_negotiation_overrides_type_bits
FN:183,_RNvNtCs48r2xzLZq6T_7lb_quic13public_header10parse_long
FN:337,_RNvNtCs48r2xzLZq6T_7lb_quic13public_header11parse_short
FN:134,_RNvNtCs48r2xzLZq6T_7lb_quic13public_header13decode_varint
FN:165,_RNvNtCs48r2xzLZq6T_7lb_quic13public_header19parse_public_header
FNDA:2249,_RNvNtCs7RDJCKiF9ex_7lb_quic13public_header10parse_long
FNDA:269,_RNvNtCs7RDJCKiF9ex_7lb_quic13public_header11parse_short
FNDA:4002,_RNvNtCs7RDJCKiF9ex_7lb_quic13public_header13decode_varint
FNDA:3000,_RNvNtCs7RDJCKiF9ex_7lb_quic13public_header19parse_public_header
FNDA:0,_RNCNvNtCs7RDJCKiF9ex_7lb_quic13public_header10parse_long0B5_
FNDA:0,_RNCNvNtCs48r2xzLZq6T_7lb_quic13public_header10parse_long0B5_
FNDA:1,_RNvNtNtCs48r2xzLZq6T_7lb_quic13public_header5tests18rfc9001_a2_initial
FNDA:1,_RNvNtNtCs48r2xzLZq6T_7lb_quic13public_header5tests21handcrafted_handshake
FNDA:1,_RNvNtNtCs48r2xzLZq6T_7lb_quic13public_header5testss_15varint_one_byte
FNDA:1,_RNvNtNtCs48r2xzLZq6T_7lb_quic13public_header5testss_15varint_two_byte
FNDA:1,_RNvNtNtCs48r2xzLZq6T_7lb_quic13public_header5testss_16handshake_parses
FNDA:1,_RNvNtNtCs48r2xzLZq6T_7lb_quic13public_header5testss_16varint_four_byte
FNDA:1,_RNvNtNtCs48r2xzLZq6T_7lb_quic13public_header5testss_17varint_eight_byte
FNDA:1,_RNvNtNtCs48r2xzLZq6T_7lb_quic13public_header5testss_17varint_incomplete
FNDA:1,_RNvNtNtCs48r2xzLZq6T_7lb_quic13public_header5testss_21short_header_positive
FNDA:1,_RNvNtNtCs48r2xzLZq6T_7lb_quic13public_header5testss_22dcid_too_long_rejected
FNDA:1,_RNvNtNtCs48r2xzLZq6T_7lb_quic13public_header5testss_22scid_too_long_rejected
FNDA:1,_RNvNtNtCs48r2xzLZq6T_7lb_quic13public_header5testss_25empty_buffer_is_too_short
FNDA:1,_RNvNtNtCs48r2xzLZq6T_7lb_quic13public_header5testss_25rfc9001_a2_initial_parses
FNDA:1,_RNvNtNtCs48r2xzLZq6T_7lb_quic13public_header5testss_26retry_classified_no_length
FNDA:1,_RNvNtNtCs48r2xzLZq6T_7lb_quic13public_header5testss_29fixed_bit_clear_long_rejected
FNDA:1,_RNvNtNtCs48r2xzLZq6T_7lb_quic13public_header5testss_30fixed_bit_clear_short_rejected
FNDA:1,_RNvNtNtCs48r2xzLZq6T_7lb_quic13public_header5testss_30short_header_zero_len_rejected
FNDA:1,_RNvNtNtCs48r2xzLZq6T_7lb_quic13public_header5testss_31short_header_too_short_for_dcid
FNDA:1,_RNvNtNtCs48r2xzLZq6T_7lb_quic13public_header5testss_32initial_declared_length_overruns
FNDA:1,_RNvNtNtCs48r2xzLZq6T_7lb_quic13public_header5testss_37initial_truncated_in_token_len_varint
FNDA:1,_RNvNtNtCs48r2xzLZq6T_7lb_quic13public_header5testss_39version_negotiation_overrides_type_bits
FNDA:8,_RNvNtCs48r2xzLZq6T_7lb_quic13public_header10parse_long
FNDA:3,_RNvNtCs48r2xzLZq6T_7lb_quic13public_header11parse_short
FNDA:13,_RNvNtCs48r2xzLZq6T_7lb_quic13public_header13decode_varint
FNDA:14,_RNvNtCs48r2xzLZq6T_7lb_quic13public_header19parse_public_header
FNF:26
FNH:25
DA:134,4015
DA:135,4015
DA:136,4015
DA:137,4015
DA:138,4014
DA:139,4014
DA:140,1
DA:141,1
DA:142,1
DA:143,1
DA:144,4013
DA:145,4013
DA:146,4013
DA:147,2018
DA:148,2018
DA:149,2018
DA:150,2018
DA:151,2018
DA:153,4013
DA:154,4015
DA:165,3014
DA:166,3014
DA:167,3014
DA:168,3014
DA:169,3014
DA:170,3014
DA:171,3014
DA:173,3008
DA:174,479
DA:175,2529
DA:176,2529
DA:177,272
DA:179,2257
DA:181,3014
DA:183,2257
DA:185,2257
DA:186,2257
DA:187,2257
DA:188,2257
DA:189,2255
DA:190,2255
DA:191,2255
DA:192,2255
DA:193,2255
DA:194,2255
DA:195,2255
DA:196,2255
DA:197,2255
DA:198,2255
DA:199,2255
DA:200,2255
DA:201,2255
DA:202,2255
DA:203,2255
DA:204,2255
DA:205,2255
DA:206,2255
DA:207,2255
DA:208,2255
DA:210,2255
DA:211,2255
DA:212,2255
DA:213,2255
DA:214,2255
DA:215,226
DA:216,2029
DA:217,2029
DA:218,2029
DA:219,2029
DA:220,2029
DA:221,2029
DA:222,2029
DA:223,2029
DA:224,2029
DA:225,2029
DA:226,2029
DA:227,2029
DA:229,2029
DA:230,2029
DA:231,2029
DA:232,2029
DA:233,2029
DA:234,2029
DA:235,20
DA:236,2009
DA:237,2009
DA:238,2009
DA:239,2009
DA:240,2009
DA:241,2009
DA:242,2009
DA:243,2009
DA:244,2009
DA:245,2009
DA:246,2009
DA:247,2009
DA:250,2009
DA:251,1
DA:252,1
DA:253,1
DA:254,1
DA:255,1
DA:256,1
DA:257,1
DA:258,1
DA:259,2008
DA:261,2008
DA:262,2003
DA:263,2
DA:264,1
DA:265,2
DA:268,2008
DA:269,2008
DA:270,2008
DA:271,2008
DA:272,2008
DA:274,2003
DA:275,2002
DA:276,0
DA:277,0
DA:278,0
DA:279,2002
DA:280,2002
DA:281,2002
DA:282,2002
DA:283,2002
DA:284,2002
DA:285,2002
DA:286,2002
DA:287,2002
DA:288,2002
DA:289,2002
DA:290,2002
DA:291,2002
DA:292,2002
DA:293,2002
DA:294,2002
DA:295,2002
DA:296,2002
DA:297,2002
DA:298,1
DA:299,1
DA:300,1
DA:301,1
DA:302,2001
DA:303,2001
DA:306,3
DA:307,3
DA:308,3
DA:309,3
DA:310,1
DA:311,1
DA:312,1
DA:313,1
DA:314,2
DA:315,2
DA:324,2
DA:327,2005
DA:328,2005
DA:329,2005
DA:330,2005
DA:331,2005
DA:332,2005
DA:333,2005
DA:334,2005
DA:335,2257
DA:337,272
DA:338,272
DA:344,27
DA:345,27
DA:346,245
DA:347,245
DA:348,245
DA:349,245
DA:350,245
DA:351,245
DA:352,245
DA:353,245
DA:354,245
DA:355,245
DA:356,245
DA:357,230
DA:358,272
DA:395,1
DA:396,1
DA:397,1
DA:398,1
DA:399,1
DA:400,1
DA:401,1
DA:402,1
DA:403,1
DA:405,1
DA:406,1
DA:407,1
DA:410,1
DA:411,1
DA:412,1
DA:413,1
DA:415,1
DA:416,1
DA:417,1
DA:418,1
DA:419,1
DA:420,1
DA:422,1
DA:423,1
DA:424,1
DA:425,1
DA:426,1
DA:427,1
DA:428,1
DA:430,0
DA:432,1
DA:442,1
DA:443,1
DA:444,1
DA:445,1
DA:446,1
DA:447,1
DA:448,1
DA:449,1
DA:450,1
DA:451,1
DA:452,1
DA:453,1
DA:456,1
DA:457,1
DA:458,1
DA:459,1
DA:461,1
DA:462,1
DA:463,1
DA:464,1
DA:465,1
DA:466,1
DA:468,1
DA:469,1
DA:470,1
DA:471,1
DA:472,1
DA:473,1
DA:475,0
DA:477,1
DA:480,1
DA:481,1
DA:482,1
DA:483,0
DA:485,1
DA:488,1
DA:490,1
DA:491,1
DA:492,1
DA:493,0
DA:495,1
DA:498,1
DA:500,1
DA:501,1
DA:502,1
DA:503,0
DA:505,1
DA:508,1
DA:510,1
DA:511,1
DA:512,1
DA:513,1
DA:514,1
DA:515,0
DA:517,1
DA:520,1
DA:522,1
DA:523,1
DA:524,1
DA:525,1
DA:526,1
DA:527,1
DA:528,0
DA:530,1
DA:533,1
DA:536,1
DA:537,1
DA:538,1
DA:539,0
DA:541,1
DA:544,1
DA:547,1
DA:548,1
DA:549,1
DA:550,1
DA:551,1
DA:553,1
DA:554,1
DA:555,1
DA:559,1
DA:560,0
DA:562,1
DA:565,1
DA:567,1
DA:568,1
DA:569,1
DA:570,1
DA:571,1
DA:572,1
DA:574,0
DA:576,1
DA:579,1
DA:580,1
DA:581,1
DA:582,1
DA:583,0
DA:585,1
DA:588,1
DA:591,1
DA:592,1
DA:593,1
DA:594,0
DA:596,1
DA:599,1
DA:601,1
DA:602,1
DA:603,1
DA:604,1
DA:605,1
DA:606,1
DA:607,1
DA:609,1
DA:610,1
DA:611,1
DA:612,1
DA:615,1
DA:616,1
DA:617,1
DA:618,1
DA:620,0
DA:622,1
DA:625,1
DA:627,1
DA:628,1
DA:629,1
DA:630,1
DA:632,1
DA:633,1
DA:634,1
DA:636,1
DA:638,1
DA:639,1
DA:640,1
DA:642,0
DA:644,1
DA:649,1
DA:650,1
DA:651,1
DA:652,1
DA:653,1
DA:654,1
DA:657,1
DA:658,1
DA:659,1
DA:660,1
DA:661,1
DA:662,1
DA:665,1
DA:666,1
DA:667,1
DA:668,1
DA:671,1
DA:672,1
DA:673,1
DA:674,1
DA:677,1
DA:678,1
DA:679,1
DA:680,0
DA:682,1
BRF:0
BRH:0
LF:375
LH:351
end_of_record
SF:/home/ubuntu/Code/ExpressGateway/.claude/worktrees/s36-verify/crates/lb-quic/src/raw_proxy.rs
FN:367,_RNvXs0_NtCs7RDJCKiF9ex_7lb_quic9raw_proxyNtB5_15ActiveConnGuardNtNtNtCs1p5UDGgVI4d_4core3ops4drop4Drop4drop
FN:221,_RNCNvNtCs7RDJCKiF9ex_7lb_quic9raw_proxy28run_raw_proxy_actor_for_test0B5_
FN:878,_RNCNvNtCs7RDJCKiF9ex_7lb_quic9raw_proxy13relay_streams0B5_
FN:476,_RNCNvNtCs7RDJCKiF9ex_7lb_quic9raw_proxy13run_dual_pump0B5_
FN:1480,_RNCNvNtCs7RDJCKiF9ex_7lb_quic9raw_proxy14graceful_close0B5_
FN:197,_RNCNvNtCs7RDJCKiF9ex_7lb_quic9raw_proxy19run_raw_proxy_actor0B5_
FN:229,_RNCNvNtCs7RDJCKiF9ex_7lb_quic9raw_proxy25run_raw_proxy_actor_inner0B5_
FN:386,_RNCNvNtCs7RDJCKiF9ex_7lb_quic9raw_proxy27drive_client_to_established0B5_
FN:729,_RNvMs1_NtCs7RDJCKiF9ex_7lb_quic9raw_proxyNtB5_9RelayHalf16propagate_cancel
FN:797,_RNvMs2_NtCs7RDJCKiF9ex_7lb_quic9raw_proxyNtB5_14RawStreamState11is_complete
FN:1043,_RNvMs3_NtCs7RDJCKiF9ex_7lb_quic9raw_proxyNtB5_17BoundedDgramQueue3len
FN:1001,_RNvMs3_NtCs7RDJCKiF9ex_7lb_quic9raw_proxyNtB5_17BoundedDgramQueue3new
FN:1016,_RNvMs3_NtCs7RDJCKiF9ex_7lb_quic9raw_proxyNtB5_17BoundedDgramQueue4push
FN:1033,_RNvMs3_NtCs7RDJCKiF9ex_7lb_quic9raw_proxyNtB5_17BoundedDgramQueue5front
FN:1055,_RNvMs3_NtCs7RDJCKiF9ex_7lb_quic9raw_proxyNtB5_17BoundedDgramQueue7dropped
FN:1048,_RNvMs3_NtCs7RDJCKiF9ex_7lb_quic9raw_proxyNtB5_17BoundedDgramQueue8is_empty
FN:1038,_RNvMs3_NtCs7RDJCKiF9ex_7lb_quic9raw_proxyNtB5_17BoundedDgramQueue9pop_front
FN:1219,_RNvMs4_NtCs7RDJCKiF9ex_7lb_quic9raw_proxyNtB5_9Direction6as_str
FN:357,_RNvMs_NtCs7RDJCKiF9ex_7lb_quic9raw_proxyNtB4_15ActiveConnGuard3new
FN:823,_RNvNtCs7RDJCKiF9ex_7lb_quic9raw_proxy13relay_streams
FN:459,_RNvNtCs7RDJCKiF9ex_7lb_quic9raw_proxy13run_dual_pump
FN:1480,_RNvNtCs7RDJCKiF9ex_7lb_quic9raw_proxy14graceful_close
FN:1111,_RNvNtCs7RDJCKiF9ex_7lb_quic9raw_proxy14pump_dgram_dir
FN:890,_RNvNtCs7RDJCKiF9ex_7lb_quic9raw_proxy15admit_or_refuse
FN:1069,_RNvNtCs7RDJCKiF9ex_7lb_quic9raw_proxy15relay_datagrams
FN:197,_RNvNtCs7RDJCKiF9ex_7lb_quic9raw_proxy19run_raw_proxy_actor
FN:229,_RNvNtCs7RDJCKiF9ex_7lb_quic9raw_proxy25run_raw_proxy_actor_inner
FN:380,_RNvNtCs7RDJCKiF9ex_7lb_quic9raw_proxy27drive_client_to_established
FN:221,_RNvNtCs7RDJCKiF9ex_7lb_quic9raw_proxy28run_raw_proxy_actor_for_test
FN:1275,_RNvNtCs7RDJCKiF9ex_7lb_quic9raw_proxy8pump_dir
FN:148,_RNvXNtCs7RDJCKiF9ex_7lb_quic9raw_proxyNtB2_10RawBackendNtNtCs1p5UDGgVI4d_4core3fmt5Debug3fmt
FN:221,_RNCNvNtCs48r2xzLZq6T_7lb_quic9raw_proxy28run_raw_proxy_actor_for_test0B5_
FN:221,_RNvNtCs48r2xzLZq6T_7lb_quic9raw_proxy28run_raw_proxy_actor_for_test
FN:148,_RNvXNtCs48r2xzLZq6T_7lb_quic9raw_proxyNtB2_10RawBackendNtNtCs1p5UDGgVI4d_4core3fmt5Debug3fmt
FN:878,_RNCNvNtCs48r2xzLZq6T_7lb_quic9raw_proxy13relay_streams0B5_
FN:476,_RNCNvNtCs48r2xzLZq6T_7lb_quic9raw_proxy13run_dual_pump0B5_
FN:1480,_RNCNvNtCs48r2xzLZq6T_7lb_quic9raw_proxy14graceful_close0B5_
FN:197,_RNCNvNtCs48r2xzLZq6T_7lb_quic9raw_proxy19run_raw_proxy_actor0B5_
FN:229,_RNCNvNtCs48r2xzLZq6T_7lb_quic9raw_proxy25run_raw_proxy_actor_inner0B5_
FN:386,_RNCNvNtCs48r2xzLZq6T_7lb_quic9raw_proxy27drive_client_to_established0B5_
FN:729,_RNvMs1_NtCs48r2xzLZq6T_7lb_quic9raw_proxyNtB5_9RelayHalf16propagate_cancel
FN:797,_RNvMs2_NtCs48r2xzLZq6T_7lb_quic9raw_proxyNtB5_14RawStreamState11is_complete
FN:1043,_RNvMs3_NtCs48r2xzLZq6T_7lb_quic9raw_proxyNtB5_17BoundedDgramQueue3len
FN:1001,_RNvMs3_NtCs48r2xzLZq6T_7lb_quic9raw_proxyNtB5_17BoundedDgramQueue3new
FN:1016,_RNvMs3_NtCs48r2xzLZq6T_7lb_quic9raw_proxyNtB5_17BoundedDgramQueue4push
FN:1033,_RNvMs3_NtCs48r2xzLZq6T_7lb_quic9raw_proxyNtB5_17BoundedDgramQueue5front
FN:1055,_RNvMs3_NtCs48r2xzLZq6T_7lb_quic9raw_proxyNtB5_17BoundedDgramQueue7dropped
FN:1048,_RNvMs3_NtCs48r2xzLZq6T_7lb_quic9raw_proxyNtB5_17BoundedDgramQueue8is_empty
FN:1038,_RNvMs3_NtCs48r2xzLZq6T_7lb_quic9raw_proxyNtB5_17BoundedDgramQueue9pop_front
FN:1219,_RNvMs4_NtCs48r2xzLZq6T_7lb_quic9raw_proxyNtB5_9Direction6as_str
FN:357,_RNvMs_NtCs48r2xzLZq6T_7lb_quic9raw_proxyNtB4_15ActiveConnGuard3new
FN:823,_RNvNtCs48r2xzLZq6T_7lb_quic9raw_proxy13relay_streams
FN:459,_RNvNtCs48r2xzLZq6T_7lb_quic9raw_proxy13run_dual_pump
FN:1480,_RNvNtCs48r2xzLZq6T_7lb_quic9raw_proxy14graceful_close
FN:1111,_RNvNtCs48r2xzLZq6T_7lb_quic9raw_proxy14pump_dgram_dir
FN:890,_RNvNtCs48r2xzLZq6T_7lb_quic9raw_proxy15admit_or_refuse
FN:1069,_RNvNtCs48r2xzLZq6T_7lb_quic9raw_proxy15relay_datagrams
FN:197,_RNvNtCs48r2xzLZq6T_7lb_quic9raw_proxy19run_raw_proxy_actor
FN:229,_RNvNtCs48r2xzLZq6T_7lb_quic9raw_proxy25run_raw_proxy_actor_inner
FN:380,_RNvNtCs48r2xzLZq6T_7lb_quic9raw_proxy27drive_client_to_established
FN:1275,_RNvNtCs48r2xzLZq6T_7lb_quic9raw_proxy8pump_dir
FN:2638,_RNvNtNtCs48r2xzLZq6T_7lb_quic9raw_proxy5tests10dgram_pair
FN:1579,_RNvNtNtCs48r2xzLZq6T_7lb_quic9raw_proxy5tests11random_scid
FN:1612,_RNvNtNtCs48r2xzLZq6T_7lb_quic9raw_proxy5tests13client_config
FN:1590,_RNvNtNtCs48r2xzLZq6T_7lb_quic9raw_proxy5tests13server_config
FN:1634,_RNvNtNtCs48r2xzLZq6T_7lb_quic9raw_proxy5tests14handshake_pair
FN:1727,_RNvNtNtCs48r2xzLZq6T_7lb_quic9raw_proxy5tests16established_pair
FN:2408,_RNvNtNtCs48r2xzLZq6T_7lb_quic9raw_proxy5tests22over_cap_client_config
FN:2388,_RNvNtNtCs48r2xzLZq6T_7lb_quic9raw_proxy5tests22over_cap_server_config
FN:2433,_RNvNtNtCs48r2xzLZq6T_7lb_quic9raw_proxy5tests30server_with_n_readable_streams
FN:1767,_RNvNtNtCs48r2xzLZq6T_7lb_quic9raw_proxy5tests32src_server_with_fin_only_stream0
FN:1930,_RNvNtNtCs48r2xzLZq6T_7lb_quic9raw_proxy5tests33established_pair_small_dst_window
FN:1902,_RNvNtNtCs48r2xzLZq6T_7lb_quic9raw_proxy5tests33server_config_small_stream_window
FN:1972,_RNvNtNtCs48r2xzLZq6T_7lb_quic9raw_proxy5tests35src_server_with_payload_fin_stream0
FN:1720,_RNvNtNtCs48r2xzLZq6T_7lb_quic9raw_proxy5tests5addrs
FN:1547,_RNvNtNtCs48r2xzLZq6T_7lb_quic9raw_proxy5tests9gen_certs
FN:1685,_RNvNtNtCs48r2xzLZq6T_7lb_quic9raw_proxy5tests9pump_once
FN:2229,_RNvNtNtCs48r2xzLZq6T_7lb_quic9raw_proxy5testss_32dgram_queue_preserves_fifo_order
FN:1812,_RNvNtNtCs48r2xzLZq6T_7lb_quic9raw_proxy5testss_39fin_only_stream_limit_does_not_drop_fin
FN:2261,_RNvNtNtCs48r2xzLZq6T_7lb_quic9raw_proxy5testss_40dgram_queue_drop_newest_negative_control
FN:2353,_RNvNtNtCs48r2xzLZq6T_7lb_quic9raw_proxy5testss_46dgram_queue_cap_constant_is_documented_default
FN:2039,_RNvNtNtCs48r2xzLZq6T_7lb_quic9raw_proxy5testss_46post_fin_short_write_reread_does_not_drop_tail
FN:1857,_RNvNtNtCs48r2xzLZq6T_7lb_quic9raw_proxy5testss_47fin_only_delivered_when_stream_credit_available
FN:2558,_RNvNtNtCs48r2xzLZq6T_7lb_quic9raw_proxy5testss_48admit_or_refuse_keeps_tracked_refuses_new_at_cap
FN:2607,_RNvNtNtCs48r2xzLZq6T_7lb_quic9raw_proxy5testss_48max_relay_streams_constant_is_documented_default
FN:2688,_RNvNtNtCs48r2xzLZq6T_7lb_quic9raw_proxy5testss_48pump_dgram_dir_invalid_state_drains_and_disables
FN:2736,_RNvNtNtCs48r2xzLZq6T_7lb_quic9raw_proxy5testss_51pump_dgram_dir_buffer_too_short_drops_one_continues
FN:2501,_RNvNtNtCs48r2xzLZq6T_7lb_quic9raw_proxy5testss_52relay_table_clamped_to_max_relay_streams_under_flood
FN:2313,_RNvNtNtCs48r2xzLZq6T_7lb_quic9raw_proxy5testss_53dgram_queue_preserves_binary_and_zero_length_verbatim
FN:1798,_RNCNvNtNtCs48r2xzLZq6T_7lb_quic9raw_proxy5tests32src_server_with_fin_only_stream00B7_
FN:2009,_RNCNvNtNtCs48r2xzLZq6T_7lb_quic9raw_proxy5tests35src_server_with_payload_fin_stream00B7_
FN:1550,_RNCNvNtNtCs48r2xzLZq6T_7lb_quic9raw_proxy5tests9gen_certs0B7_
FN:2231,_RNCNvNtNtCs48r2xzLZq6T_7lb_quic9raw_proxy5testss_32dgram_queue_preserves_fifo_order0B7_
FN:2268,_RNCNvNtNtCs48r2xzLZq6T_7lb_quic9raw_proxy5testss_40dgram_queue_drop_newest_negative_control0B7_
FN:2048,_RNCNvNtNtCs48r2xzLZq6T_7lb_quic9raw_proxy5testss_46post_fin_short_write_reread_does_not_drop_tail0B7_
FN:2320,_RNCNvNtNtCs48r2xzLZq6T_7lb_quic9raw_proxy5testss_53dgram_queue_preserves_binary_and_zero_length_verbatim0B7_
FN:1542,_RNvXNtNtCs48r2xzLZq6T_7lb_quic9raw_proxy5testsNtB2_9TestCertsNtNtNtCs1p5UDGgVI4d_4core3ops4drop4Drop4drop
FN:367,_RNvXs0_NtCs48r2xzLZq6T_7lb_quic9raw_proxyNtB5_15ActiveConnGuardNtNtNtCs1p5UDGgVI4d_4core3ops4drop4Drop4drop
FN:221,_RNCNvNtCs7RDJCKiF9ex_7lb_quic9raw_proxy28run_raw_proxy_actor_for_test0Cs9x3c9UD8grd_22s16_b1_two_connections
FN:221,_RNCNvNtCs7RDJCKiF9ex_7lb_quic9raw_proxy28run_raw_proxy_actor_for_test0Csc8bNvbR5y7Q_19s16_b2_backpressure
FN:221,_RNCNvNtCs7RDJCKiF9ex_7lb_quic9raw_proxy28run_raw_proxy_actor_for_test0CsjRho3DGqkB6_18s16_b2_multistream
FN:221,_RNCNvNtCs7RDJCKiF9ex_7lb_quic9raw_proxy28run_raw_proxy_actor_for_test0Cs3stJPwoXuEf_20s16_b2_reset_not_fin
FN:221,_RNCNvNtCs7RDJCKiF9ex_7lb_quic9raw_proxy28run_raw_proxy_actor_for_test0CsiIbcdwNfqHu_25s16_b2_stream_relay_smoke
FN:221,_RNCNvNtCs7RDJCKiF9ex_7lb_quic9raw_proxy28run_raw_proxy_actor_for_test0CsbayGtfIrGrS_30s16_b3_reset_propagation_smoke
FN:221,_RNCNvNtCs7RDJCKiF9ex_7lb_quic9raw_proxy28run_raw_proxy_actor_for_test0CsfQJ4E6zfRnh_31s16_b3_reset_propagation_verify
FN:221,_RNCNvNtCs7RDJCKiF9ex_7lb_quic9raw_proxy28run_raw_proxy_actor_for_test0CsjNQbhmih8j9_27s19_b4_datagram_relay_smoke
FN:221,_RNCNvNtCs7RDJCKiF9ex_7lb_quic9raw_proxy28run_raw_proxy_actor_for_test0CsdHPP4lyEcq5_22s19_b4_datagram_verify
FN:221,_RNCNvNtCs7RDJCKiF9ex_7lb_quic9raw_proxy28run_raw_proxy_actor_for_test0CsajpK1oF1BJb_19s19_b5_stream_flood
FN:221,_RNCNvNtCs7RDJCKiF9ex_7lb_quic9raw_proxy28run_raw_proxy_actor_for_test0Cs7VfQRMHOBrc_13s19_b5_verify
FN:221,_RNCNvNtCs7RDJCKiF9ex_7lb_quic9raw_proxy28run_raw_proxy_actor_for_test0CslELTpUOqAWh_25s19_b6_metrics_nonvacuous
FN:221,_RNCNvNtCs7RDJCKiF9ex_7lb_quic9raw_proxy28run_raw_proxy_actor_for_test0CsbG0HNV7Nlm4_22s19_b6_two_connections
FNDA:23,_RNvXs0_NtCs7RDJCKiF9ex_7lb_quic9raw_proxyNtB5_15ActiveConnGuardNtNtNtCs1p5UDGgVI4d_4core3ops4drop4Drop4drop
FNDA:0,_RNCNvNtCs7RDJCKiF9ex_7lb_quic9raw_proxy28run_raw_proxy_actor_for_test0B5_
FNDA:71959,_RNCNvNtCs7RDJCKiF9ex_7lb_quic9raw_proxy13relay_streams0B5_
FNDA:23,_RNCNvNtCs7RDJCKiF9ex_7lb_quic9raw_proxy13run_dual_pump0B5_
FNDA:46,_RNCNvNtCs7RDJCKiF9ex_7lb_quic9raw_proxy14graceful_close0B5_
FNDA:0,_RNCNvNtCs7RDJCKiF9ex_7lb_quic9raw_proxy19run_raw_proxy_actor0B5_
FNDA:23,_RNCNvNtCs7RDJCKiF9ex_7lb_quic9raw_proxy25run_raw_proxy_actor_inner0B5_
FNDA:23,_RNCNvNtCs7RDJCKiF9ex_7lb_quic9raw_proxy27drive_client_to_established0B5_
FNDA:5,_RNvMs1_NtCs7RDJCKiF9ex_7lb_quic9raw_proxyNtB5_9RelayHalf16propagate_cancel
FNDA:71959,_RNvMs2_NtCs7RDJCKiF9ex_7lb_quic9raw_proxyNtB5_14RawStreamState11is_complete
FNDA:0,_RNvMs3_NtCs7RDJCKiF9ex_7lb_quic9raw_proxyNtB5_17BoundedDgramQueue3len
FNDA:46,_RNvMs3_NtCs7RDJCKiF9ex_7lb_quic9raw_proxyNtB5_17BoundedDgramQueue3new
FNDA:35273,_RNvMs3_NtCs7RDJCKiF9ex_7lb_quic9raw_proxyNtB5_17BoundedDgramQueue4push
FNDA:183794,_RNvMs3_NtCs7RDJCKiF9ex_7lb_quic9raw_proxyNtB5_17BoundedDgramQueue5front
FNDA:11146,_RNvMs3_NtCs7RDJCKiF9ex_7lb_quic9raw_proxyNtB5_17BoundedDgramQueue7dropped
FNDA:39524,_RNvMs3_NtCs7RDJCKiF9ex_7lb_quic9raw_proxyNtB5_17BoundedDgramQueue8is_empty
FNDA:6230,_RNvMs3_NtCs7RDJCKiF9ex_7lb_quic9raw_proxyNtB5_17BoundedDgramQueue9pop_front
FNDA:0,_RNvMs4_NtCs7RDJCKiF9ex_7lb_quic9raw_proxyNtB5_9Direction6as_str
FNDA:23,_RNvMs_NtCs7RDJCKiF9ex_7lb_quic9raw_proxyNtB4_15ActiveConnGuard3new
FNDA:88782,_RNvNtCs7RDJCKiF9ex_7lb_quic9raw_proxy13relay_streams
FNDA:23,_RNvNtCs7RDJCKiF9ex_7lb_quic9raw_proxy13run_dual_pump
FNDA:46,_RNvNtCs7RDJCKiF9ex_7lb_quic9raw_proxy14graceful_close
FNDA:177564,_RNvNtCs7RDJCKiF9ex_7lb_quic9raw_proxy14pump_dgram_dir
FNDA:41512,_RNvNtCs7RDJCKiF9ex_7lb_quic9raw_proxy15admit_or_refuse
FNDA:88782,_RNvNtCs7RDJCKiF9ex_7lb_quic9raw_proxy15relay_datagrams
FNDA:0,_RNvNtCs7RDJCKiF9ex_7lb_quic9raw_proxy19run_raw_proxy_actor
FNDA:23,_RNvNtCs7RDJCKiF9ex_7lb_quic9raw_proxy25run_raw_proxy_actor_inner
FNDA:23,_RNvNtCs7RDJCKiF9ex_7lb_quic9raw_proxy27drive_client_to_established
FNDA:23,_RNvNtCs7RDJCKiF9ex_7lb_quic9raw_proxy28run_raw_proxy_actor_for_test
FNDA:143918,_RNvNtCs7RDJCKiF9ex_7lb_quic9raw_proxy8pump_dir
FNDA:1,_RNvXNtCs7RDJCKiF9ex_7lb_quic9raw_proxyNtB2_10RawBackendNtNtCs1p5UDGgVI4d_4core3fmt5Debug3fmt
FNDA:0,_RNCNvNtCs48r2xzLZq6T_7lb_quic9raw_proxy28run_raw_proxy_actor_for_test0B5_
FNDA:0,_RNvNtCs48r2xzLZq6T_7lb_quic9raw_proxy28run_raw_proxy_actor_for_test
FNDA:0,_RNvXNtCs48r2xzLZq6T_7lb_quic9raw_proxyNtB2_10RawBackendNtNtCs1p5UDGgVI4d_4core3fmt5Debug3fmt
FNDA:1024,_RNCNvNtCs48r2xzLZq6T_7lb_quic9raw_proxy13relay_streams0B5_
FNDA:0,_RNCNvNtCs48r2xzLZq6T_7lb_quic9raw_proxy13run_dual_pump0B5_
FNDA:0,_RNCNvNtCs48r2xzLZq6T_7lb_quic9raw_proxy14graceful_close0B5_
FNDA:0,_RNCNvNtCs48r2xzLZq6T_7lb_quic9raw_proxy19run_raw_proxy_actor0B5_
FNDA:0,_RNCNvNtCs48r2xzLZq6T_7lb_quic9raw_proxy25run_raw_proxy_actor_inner0B5_
FNDA:0,_RNCNvNtCs48r2xzLZq6T_7lb_quic9raw_proxy27drive_client_to_established0B5_
FNDA:0,_RNvMs1_NtCs48r2xzLZq6T_7lb_quic9raw_proxyNtB5_9RelayHalf16propagate_cancel
FNDA:1024,_RNvMs2_NtCs48r2xzLZq6T_7lb_quic9raw_proxyNtB5_14RawStreamState11is_complete
FNDA:7,_RNvMs3_NtCs48r2xzLZq6T_7lb_quic9raw_proxyNtB5_17BoundedDgramQueue3len
FNDA:6,_RNvMs3_NtCs48r2xzLZq6T_7lb_quic9raw_proxyNtB5_17BoundedDgramQueue3new
FNDA:1064,_RNvMs3_NtCs48r2xzLZq6T_7lb_quic9raw_proxyNtB5_17BoundedDgramQueue4push
FNDA:9,_RNvMs3_NtCs48r2xzLZq6T_7lb_quic9raw_proxyNtB5_17BoundedDgramQueue5front
FNDA:7,_RNvMs3_NtCs48r2xzLZq6T_7lb_quic9raw_proxyNtB5_17BoundedDgramQueue7dropped
FNDA:3,_RNvMs3_NtCs48r2xzLZq6T_7lb_quic9raw_proxyNtB5_17BoundedDgramQueue8is_empty
FNDA:32,_RNvMs3_NtCs48r2xzLZq6T_7lb_quic9raw_proxyNtB5_17BoundedDgramQueue9pop_front
FNDA:0,_RNvMs4_NtCs48r2xzLZq6T_7lb_quic9raw_proxyNtB5_9Direction6as_str
FNDA:0,_RNvMs_NtCs48r2xzLZq6T_7lb_quic9raw_proxyNtB4_15ActiveConnGuard3new
FNDA:4,_RNvNtCs48r2xzLZq6T_7lb_quic9raw_proxy13relay_streams
FNDA:0,_RNvNtCs48r2xzLZq6T_7lb_quic9raw_proxy13run_dual_pump
FNDA:0,_RNvNtCs48r2xzLZq6T_7lb_quic9raw_proxy14graceful_close
FNDA:2,_RNvNtCs48r2xzLZq6T_7lb_quic9raw_proxy14pump_dgram_dir
FNDA:770,_RNvNtCs48r2xzLZq6T_7lb_quic9raw_proxy15admit_or_refuse
FNDA:0,_RNvNtCs48r2xzLZq6T_7lb_quic9raw_proxy15relay_datagrams
FNDA:0,_RNvNtCs48r2xzLZq6T_7lb_quic9raw_proxy19run_raw_proxy_actor
FNDA:0,_RNvNtCs48r2xzLZq6T_7lb_quic9raw_proxy25run_raw_proxy_actor_inner
FNDA:0,_RNvNtCs48r2xzLZq6T_7lb_quic9raw_proxy27drive_client_to_established
FNDA:2055,_RNvNtCs48r2xzLZq6T_7lb_quic9raw_proxy8pump_dir
FNDA:2,_RNvNtNtCs48r2xzLZq6T_7lb_quic9raw_proxy5tests10dgram_pair
FNDA:20,_RNvNtNtCs48r2xzLZq6T_7lb_quic9raw_proxy5tests11random_scid
FNDA:9,_RNvNtNtCs48r2xzLZq6T_7lb_quic9raw_proxy5tests13client_config
FNDA:8,_RNvNtNtCs48r2xzLZq6T_7lb_quic9raw_proxy5tests13server_config
FNDA:10,_RNvNtNtCs48r2xzLZq6T_7lb_quic9raw_proxy5tests14handshake_pair
FNDA:3,_RNvNtNtCs48r2xzLZq6T_7lb_quic9raw_proxy5tests16established_pair
FNDA:1,_RNvNtNtCs48r2xzLZq6T_7lb_quic9raw_proxy5tests22over_cap_client_config
FNDA:1,_RNvNtNtCs48r2xzLZq6T_7lb_quic9raw_proxy5tests22over_cap_server_config
FNDA:1,_RNvNtNtCs48r2xzLZq6T_7lb_quic9raw_proxy5tests30server_with_n_readable_streams
FNDA:2,_RNvNtNtCs48r2xzLZq6T_7lb_quic9raw_proxy5tests32src_server_with_fin_only_stream0
FNDA:1,_RNvNtNtCs48r2xzLZq6T_7lb_quic9raw_proxy5tests33established_pair_small_dst_window
FNDA:1,_RNvNtNtCs48r2xzLZq6T_7lb_quic9raw_proxy5tests33server_config_small_stream_window
FNDA:1,_RNvNtNtCs48r2xzLZq6T_7lb_quic9raw_proxy5tests35src_server_with_payload_fin_stream0
FNDA:4,_RNvNtNtCs48r2xzLZq6T_7lb_quic9raw_proxy5tests5addrs
FNDA:6,_RNvNtNtCs48r2xzLZq6T_7lb_quic9raw_proxy5tests9gen_certs
FNDA:30,_RNvNtNtCs48r2xzLZq6T_7lb_quic9raw_proxy5tests9pump_once
FNDA:1,_RNvNtNtCs48r2xzLZq6T_7lb_quic9raw_proxy5testss_32dgram_queue_preserves_fifo_order
FNDA:1,_RNvNtNtCs48r2xzLZq6T_7lb_quic9raw_proxy5testss_39fin_only_stream_limit_does_not_drop_fin
FNDA:1,_RNvNtNtCs48r2xzLZq6T_7lb_quic9raw_proxy5testss_40dgram_queue_drop_newest_negative_control
FNDA:1,_RNvNtNtCs48r2xzLZq6T_7lb_quic9raw_proxy5testss_46dgram_queue_cap_constant_is_documented_default
FNDA:1,_RNvNtNtCs48r2xzLZq6T_7lb_quic9raw_proxy5testss_46post_fin_short_write_reread_does_not_drop_tail
FNDA:1,_RNvNtNtCs48r2xzLZq6T_7lb_quic9raw_proxy5testss_47fin_only_delivered_when_stream_credit_available
FNDA:1,_RNvNtNtCs48r2xzLZq6T_7lb_quic9raw_proxy5testss_48admit_or_refuse_keeps_tracked_refuses_new_at_cap
FNDA:1,_RNvNtNtCs48r2xzLZq6T_7lb_quic9raw_proxy5testss_48max_relay_streams_constant_is_documented_default
FNDA:1,_RNvNtNtCs48r2xzLZq6T_7lb_quic9raw_proxy5testss_48pump_dgram_dir_invalid_state_drains_and_disables
FNDA:1,_RNvNtNtCs48r2xzLZq6T_7lb_quic9raw_proxy5testss_51pump_dgram_dir_buffer_too_short_drops_one_continues
FNDA:1,_RNvNtNtCs48r2xzLZq6T_7lb_quic9raw_proxy5testss_52relay_table_clamped_to_max_relay_streams_under_flood
FNDA:1,_RNvNtNtCs48r2xzLZq6T_7lb_quic9raw_proxy5testss_53dgram_queue_preserves_binary_and_zero_length_verbatim
FNDA:2,_RNCNvNtNtCs48r2xzLZq6T_7lb_quic9raw_proxy5tests32src_server_with_fin_only_stream00B7_
FNDA:1,_RNCNvNtNtCs48r2xzLZq6T_7lb_quic9raw_proxy5tests35src_server_with_payload_fin_stream00B7_
FNDA:6,_RNCNvNtNtCs48r2xzLZq6T_7lb_quic9raw_proxy5tests9gen_certs0B7_
FNDA:5,_RNCNvNtNtCs48r2xzLZq6T_7lb_quic9raw_proxy5testss_32dgram_queue_preserves_fifo_order0B7_
FNDA:41,_RNCNvNtNtCs48r2xzLZq6T_7lb_quic9raw_proxy5testss_40dgram_queue_drop_newest_negative_control0B7_
FNDA:10240,_RNCNvNtNtCs48r2xzLZq6T_7lb_quic9raw_proxy5testss_46post_fin_short_write_reread_does_not_drop_tail0B7_
FNDA:50000,_RNCNvNtNtCs48r2xzLZq6T_7lb_quic9raw_proxy5testss_53dgram_queue_preserves_binary_and_zero_length_verbatim0B7_
FNDA:6,_RNvXNtNtCs48r2xzLZq6T_7lb_quic9raw_proxy5testsNtB2_9TestCertsNtNtNtCs1p5UDGgVI4d_4core3ops4drop4Drop4drop
FNDA:0,_RNvXs0_NtCs48r2xzLZq6T_7lb_quic9raw_proxyNtB5_15ActiveConnGuardNtNtNtCs1p5UDGgVI4d_4core3ops4drop4Drop4drop
FNDA:1,_RNCNvNtCs7RDJCKiF9ex_7lb_quic9raw_proxy28run_raw_proxy_actor_for_test0Cs9x3c9UD8grd_22s16_b1_two_connections
FNDA:1,_RNCNvNtCs7RDJCKiF9ex_7lb_quic9raw_proxy28run_raw_proxy_actor_for_test0Csc8bNvbR5y7Q_19s16_b2_backpressure
FNDA:1,_RNCNvNtCs7RDJCKiF9ex_7lb_quic9raw_proxy28run_raw_proxy_actor_for_test0CsjRho3DGqkB6_18s16_b2_multistream
FNDA:1,_RNCNvNtCs7RDJCKiF9ex_7lb_quic9raw_proxy28run_raw_proxy_actor_for_test0Cs3stJPwoXuEf_20s16_b2_reset_not_fin
FNDA:4,_RNCNvNtCs7RDJCKiF9ex_7lb_quic9raw_proxy28run_raw_proxy_actor_for_test0CsiIbcdwNfqHu_25s16_b2_stream_relay_smoke
FNDA:1,_RNCNvNtCs7RDJCKiF9ex_7lb_quic9raw_proxy28run_raw_proxy_actor_for_test0CsbayGtfIrGrS_30s16_b3_reset_propagation_smoke
FNDA:4,_RNCNvNtCs7RDJCKiF9ex_7lb_quic9raw_proxy28run_raw_proxy_actor_for_test0CsfQJ4E6zfRnh_31s16_b3_reset_propagation_verify
FNDA:1,_RNCNvNtCs7RDJCKiF9ex_7lb_quic9raw_proxy28run_raw_proxy_actor_for_test0CsjNQbhmih8j9_27s19_b4_datagram_relay_smoke
FNDA:3,_RNCNvNtCs7RDJCKiF9ex_7lb_quic9raw_proxy28run_raw_proxy_actor_for_test0CsdHPP4lyEcq5_22s19_b4_datagram_verify
FNDA:1,_RNCNvNtCs7RDJCKiF9ex_7lb_quic9raw_proxy28run_raw_proxy_actor_for_test0CsajpK1oF1BJb_19s19_b5_stream_flood
FNDA:1,_RNCNvNtCs7RDJCKiF9ex_7lb_quic9raw_proxy28run_raw_proxy_actor_for_test0Cs7VfQRMHOBrc_13s19_b5_verify
FNDA:3,_RNCNvNtCs7RDJCKiF9ex_7lb_quic9raw_proxy28run_raw_proxy_actor_for_test0CslELTpUOqAWh_25s19_b6_metrics_nonvacuous
FNDA:1,_RNCNvNtCs7RDJCKiF9ex_7lb_quic9raw_proxy28run_raw_proxy_actor_for_test0CsbG0HNV7Nlm4_22s19_b6_two_connections
FNF:67
FNH:64
DA:148,1
DA:149,1
DA:150,1
DA:151,1
DA:152,1
DA:153,1
DA:154,1
DA:155,1
DA:197,0
DA:198,0
DA:199,0
DA:200,0
DA:201,0
DA:204,0
DA:207,0
DA:221,23
DA:222,23
DA:223,23
DA:229,23
DA:233,23
DA:234,0
DA:235,0
DA:236,0
DA:239,23
DA:246,23
DA:247,23
DA:248,23
DA:249,23
DA:250,23
DA:251,23
DA:252,23
DA:253,23
DA:254,23
DA:257,0
DA:258,0
DA:259,0
DA:260,0
DA:261,23
DA:265,23
DA:266,23
DA:267,23
DA:268,23
DA:269,0
DA:272,0
DA:280,23
DA:281,0
DA:283,23
DA:285,23
DA:286,23
DA:287,23
DA:288,23
DA:289,23
DA:290,23
DA:291,23
DA:295,0
DA:298,23
DA:299,23
DA:300,23
DA:301,23
DA:302,23
DA:303,23
DA:304,23
DA:313,23
DA:314,23
DA:315,3
DA:316,20
DA:317,23
DA:327,23
DA:328,23
DA:329,23
DA:330,23
DA:331,23
DA:332,23
DA:333,23
DA:334,23
DA:335,23
DA:340,23
DA:341,23
DA:343,23
DA:344,23
DA:357,23
DA:358,23
DA:359,23
DA:360,3
DA:361,20
DA:362,23
DA:363,23
DA:367,23
DA:368,23
DA:369,3
DA:370,20
DA:371,23
DA:380,23
DA:381,23
DA:382,23
DA:383,23
DA:384,23
DA:385,23
DA:386,23
DA:387,23
DA:389,23
DA:390,23
DA:391,23
DA:392,0
DA:393,0
DA:394,0
DA:395,0
DA:396,0
DA:397,0
DA:398,0
DA:399,0
DA:400,0
DA:401,0
DA:402,0
DA:404,0
DA:406,0
DA:407,0
DA:409,0
DA:410,0
DA:411,0
DA:412,0
DA:413,0
DA:414,0
DA:417,0
DA:418,0
DA:419,0
DA:422,23
DA:459,23
DA:460,23
DA:461,23
DA:462,23
DA:463,23
DA:464,23
DA:465,23
DA:466,23
DA:467,23
DA:468,23
DA:469,23
DA:470,23
DA:471,23
DA:472,23
DA:473,23
DA:474,23
DA:475,23
DA:476,23
DA:480,23
DA:481,23
DA:486,23
DA:493,23
DA:494,23
DA:500,23
DA:505,88805
DA:506,88805
DA:508,88805
DA:509,1
DA:510,88804
DA:512,88804
DA:513,88804
DA:523,88804
DA:524,83498
DA:525,83498
DA:526,83498
DA:528,88804
DA:530,88804
DA:531,22
DA:533,88804
DA:534,43345
DA:535,43345
DA:536,43345
DA:537,43345
DA:538,0
DA:541,88804
DA:542,38760
DA:543,38760
DA:544,38760
DA:545,38760
DA:546,38760
DA:547,38760
DA:548,0
DA:549,0
DA:553,0
DA:554,0
DA:558,88804
DA:559,6677
DA:560,6677
DA:561,88804
DA:562,0
DA:563,0
DA:572,88782
DA:573,88782
DA:574,88782
DA:575,88782
DA:576,88782
DA:588,88782
DA:597,88782
DA:599,5573
DA:600,5573
DA:602,5573
DA:603,5573
DA:604,5573
DA:605,150
DA:606,150
DA:607,5423
DA:608,83209
DA:610,23
DA:729,5
DA:730,5
DA:731,5
DA:732,5
DA:733,5
DA:734,5
DA:735,5
DA:736,5
DA:741,5
DA:742,0
DA:743,0
DA:744,0
DA:745,5
DA:746,5
DA:749,5
DA:750,0
DA:753,0
DA:754,0
DA:755,0
DA:756,0
DA:762,5
DA:763,5
DA:764,5
DA:765,5
DA:797,72983
DA:798,72983
DA:799,72983
DA:823,88786
DA:824,88786
DA:825,88786
DA:826,88786
DA:827,88786
DA:828,88786
DA:843,88786
DA:844,36092
DA:845,36092
DA:846,88786
DA:847,5932
DA:848,5932
DA:850,88786
DA:851,161769
DA:852,72983
DA:853,0
DA:856,72983
DA:857,72983
DA:858,72983
DA:859,72983
DA:860,72983
DA:861,72983
DA:864,72983
DA:865,72983
DA:866,72983
DA:867,72983
DA:868,72983
DA:869,72983
DA:878,88786
DA:879,88786
DA:890,42282
DA:891,42282
DA:894,40479
DA:895,1803
DA:896,1803
DA:897,1546
DA:898,1546
DA:904,257
DA:906,0
DA:908,0
DA:909,0
DA:912,42282
DA:1001,52
DA:1002,52
DA:1003,52
DA:1004,52
DA:1005,52
DA:1006,52
DA:1007,52
DA:1016,36337
DA:1017,36337
DA:1021,27005
DA:1022,27005
DA:1024,9332
DA:1025,9332
DA:1027,36337
DA:1033,183803
DA:1034,183803
DA:1035,183803
DA:1038,6262
DA:1039,6262
DA:1040,6262
DA:1043,7
DA:1044,7
DA:1045,7
DA:1048,39527
DA:1049,39527
DA:1050,39527
DA:1055,11153
DA:1056,11153
DA:1057,11153
DA:1069,88782
DA:1070,88782
DA:1071,88782
DA:1072,88782
DA:1073,88782
DA:1074,88782
DA:1076,88782
DA:1078,88782
DA:1079,88782
DA:1111,177566
DA:1112,177566
DA:1113,177566
DA:1114,177566
DA:1115,177566
DA:1116,177566
DA:1119,177566
DA:1121,212839
DA:1122,35273
DA:1126,35273
DA:1127,35273
DA:1128,26995
DA:1129,0
DA:1131,0
DA:1133,8278
DA:1135,177566
DA:1138,0
DA:1139,0
DA:1141,0
DA:1142,0
DA:1144,0
DA:1146,0
DA:1147,0
DA:1148,0
DA:1149,0
DA:1151,0
DA:1157,183798
DA:1158,35145
DA:1159,6231
DA:1160,6231
DA:1161,6231
DA:1162,6231
DA:1165,28912
DA:1170,1
DA:1171,1
DA:1172,1
DA:1173,0
DA:1174,0
DA:1175,0
DA:1183,1
DA:1184,4
DA:1185,1
DA:1186,1
DA:1187,0
DA:1189,0
DA:1190,0
DA:1192,1
DA:1194,0
DA:1197,0
DA:1198,0
DA:1199,0
DA:1200,0
DA:1201,0
DA:1202,0
DA:1204,0
DA:1208,177566
DA:1219,0
DA:1220,0
DA:1221,0
DA:1222,0
DA:1224,0
DA:1275,145973
DA:1276,145973
DA:1277,145973
DA:1278,145973
DA:1279,145973
DA:1280,145973
DA:1281,145973
DA:1282,145973
DA:1283,26682
DA:1284,119291
DA:1296,128244
DA:1297,89661
DA:1300,89661
DA:1301,89661
DA:1302,11263
DA:1303,11263
DA:1304,11263
DA:1305,2310
DA:1306,8953
DA:1307,11263
DA:1310,2310
DA:1311,8953
DA:1313,78140
DA:1321,4
DA:1322,4
DA:1325,0
DA:1326,0
DA:1327,0
DA:1329,4
DA:1330,4
DA:1341,254
DA:1342,254
DA:1343,0
DA:1344,0
DA:1345,0
DA:1347,254
DA:1348,254
DA:1349,254
DA:1355,119033
DA:1356,126049
DA:1357,47422
DA:1358,47422
DA:1359,35710
DA:1360,10703
DA:1361,10703
DA:1362,10703
DA:1364,3687
DA:1365,7016
DA:1371,1008
DA:1373,0
DA:1374,0
DA:1376,1008
DA:1385,1
DA:1386,1
DA:1389,0
DA:1390,0
DA:1391,0
DA:1393,1
DA:1394,1
DA:1402,0
DA:1403,0
DA:1404,0
DA:1405,0
DA:1406,0
DA:1408,0
DA:1409,0
DA:1410,0
DA:1416,119032
DA:1417,10703
DA:1418,108329
DA:1421,119032
DA:1422,2058
DA:1423,2057
DA:1424,2057
DA:1425,2057
DA:1426,2057
DA:1437,1
DA:1439,0
DA:1440,0
DA:1448,0
DA:1449,0
DA:1452,0
DA:1453,0
DA:1455,0
DA:1457,0
DA:1458,0
DA:1459,0
DA:1460,0
DA:1462,0
DA:1465,116974
DA:1466,145973
DA:1480,46
DA:1481,46
DA:1482,46
DA:1483,0
DA:1485,46
DA:1487,92
DA:1488,92
DA:1489,46
DA:1490,46
DA:1491,46
DA:1492,0
DA:1493,0
DA:1494,46
DA:1495,46
DA:1496,46
DA:1497,46
DA:1498,46
DA:1499,46
DA:1501,46
DA:1542,6
DA:1543,6
DA:1544,6
DA:1547,6
DA:1548,6
DA:1549,6
DA:1550,6
DA:1551,6
DA:1552,6
DA:1553,6
DA:1554,6
DA:1555,6
DA:1556,6
DA:1557,6
DA:1558,6
DA:1559,6
DA:1560,6
DA:1561,6
DA:1562,6
DA:1563,6
DA:1564,6
DA:1565,6
DA:1566,6
DA:1567,6
DA:1568,6
DA:1569,6
DA:1570,6
DA:1571,6
DA:1572,6
DA:1573,6
DA:1574,6
DA:1575,6
DA:1576,6
DA:1577,6
DA:1579,20
DA:1581,20
DA:1582,20
DA:1583,20
DA:1584,20
DA:1590,8
DA:1591,8
DA:1592,8
DA:1593,8
DA:1594,8
DA:1595,8
DA:1596,8
DA:1597,8
DA:1598,8
DA:1599,8
DA:1600,8
DA:1601,8
DA:1602,8
DA:1603,8
DA:1604,8
DA:1605,8
DA:1606,8
DA:1607,8
DA:1608,8
DA:1612,9
DA:1613,9
DA:1614,9
DA:1615,9
DA:1616,9
DA:1617,9
DA:1618,9
DA:1619,9
DA:1620,9
DA:1621,9
DA:1622,9
DA:1623,9
DA:1624,9
DA:1625,9
DA:1626,9
DA:1627,9
DA:1628,9
DA:1629,9
DA:1634,10
DA:1635,10
DA:1636,10
DA:1637,10
DA:1638,10
DA:1639,10
DA:1640,10
DA:1641,30
DA:1642,30
DA:1643,10
DA:1644,20
DA:1647,40
DA:1648,20
DA:1649,20
DA:1650,20
DA:1651,20
DA:1652,20
DA:1653,20
DA:1654,20
DA:1655,20
DA:1656,20
DA:1657,0
DA:1662,40
DA:1663,20
DA:1664,20
DA:1665,20
DA:1666,20
DA:1667,20
DA:1668,20
DA:1669,20
DA:1670,20
DA:1671,20
DA:1672,0
DA:1676,0
DA:1677,0
DA:1678,0
DA:1680,10
DA:1685,30
DA:1686,30
DA:1687,30
DA:1688,30
DA:1689,30
DA:1690,30
DA:1691,30
DA:1693,373
DA:1694,343
DA:1695,343
DA:1696,343
DA:1697,343
DA:1698,343
DA:1699,343
DA:1700,343
DA:1701,30
DA:1702,0
DA:1706,42
DA:1707,12
DA:1708,12
DA:1709,12
DA:1710,12
DA:1711,12
DA:1712,12
DA:1713,12
DA:1714,30
DA:1715,0
DA:1718,30
DA:1720,4
DA:1721,4
DA:1722,4
DA:1723,4
DA:1724,4
DA:1725,4
DA:1727,3
DA:1728,3
DA:1729,3
DA:1730,3
DA:1731,3
DA:1732,3
DA:1733,3
DA:1734,3
DA:1735,3
DA:1736,3
DA:1737,3
DA:1738,3
DA:1739,3
DA:1740,3
DA:1741,3
DA:1742,3
DA:1743,3
DA:1744,3
DA:1745,3
DA:1746,3
DA:1748,3
DA:1749,3
DA:1750,3
DA:1751,3
DA:1752,3
DA:1753,3
DA:1754,3
DA:1756,3
DA:1757,3
DA:1758,3
DA:1759,3
DA:1767,2
DA:1768,2
DA:1769,2
DA:1770,2
DA:1771,2
DA:1772,2
DA:1773,2
DA:1774,2
DA:1775,2
DA:1776,2
DA:1777,2
DA:1778,2
DA:1779,2
DA:1780,2
DA:1781,2
DA:1783,2
DA:1784,2
DA:1785,2
DA:1786,2
DA:1787,2
DA:1788,2
DA:1789,2
DA:1791,2
DA:1792,2
DA:1795,2
DA:1796,2
DA:1797,2
DA:1798,2
DA:1799,0
DA:1801,2
DA:1802,2
DA:1812,1
DA:1813,1
DA:1815,1
DA:1818,1
DA:1819,1
DA:1820,1
DA:1822,0
DA:1825,1
DA:1826,1
DA:1828,1
DA:1829,1
DA:1830,1
DA:1831,1
DA:1835,1
DA:1836,1
DA:1837,0
DA:1840,1
DA:1841,1
DA:1842,0
DA:1843,0
DA:1845,1
DA:1846,1
DA:1847,0
DA:1849,1
DA:1857,1
DA:1858,1
DA:1859,1
DA:1861,1
DA:1862,1
DA:1863,1
DA:1864,0
DA:1867,1
DA:1868,1
DA:1870,1
DA:1871,1
DA:1872,1
DA:1873,1
DA:1876,1
DA:1877,1
DA:1878,0
DA:1884,1
DA:1885,1
DA:1886,1
DA:1887,0
DA:1889,1
DA:1902,1
DA:1903,1
DA:1904,1
DA:1905,1
DA:1906,1
DA:1907,1
DA:1908,1
DA:1909,1
DA:1910,1
DA:1911,1
DA:1912,1
DA:1913,1
DA:1914,1
DA:1915,1
DA:1916,1
DA:1919,1
DA:1920,1
DA:1921,1
DA:1922,1
DA:1923,1
DA:1924,1
DA:1925,1
DA:1930,1
DA:1931,1
DA:1932,1
DA:1933,1
DA:1934,1
DA:1935,1
DA:1936,1
DA:1937,1
DA:1938,1
DA:1939,1
DA:1940,1
DA:1941,1
DA:1942,1
DA:1943,1
DA:1944,1
DA:1945,1
DA:1946,1
DA:1947,1
DA:1948,1
DA:1949,1
DA:1951,1
DA:1952,1
DA:1953,1
DA:1954,1
DA:1955,1
DA:1956,1
DA:1957,1
DA:1959,1
DA:1960,1
DA:1961,1
DA:1962,1
DA:1972,1
DA:1973,1
DA:1974,1
DA:1975,1
DA:1976,1
DA:1977,1
DA:1978,1
DA:1979,1
DA:1980,1
DA:1981,1
DA:1982,1
DA:1983,1
DA:1984,1
DA:1985,1
DA:1986,1
DA:1987,1
DA:1989,1
DA:1990,1
DA:1991,1
DA:1992,1
DA:1993,1
DA:1994,1
DA:1995,1
DA:1997,1
DA:1998,1
DA:2001,1
DA:2002,1
DA:2004,1
DA:2005,0
DA:2007,1
DA:2008,1
DA:2009,1
DA:2010,0
DA:2012,1
DA:2013,1
DA:2039,1
DA:2040,1
DA:2048,10240
DA:2052,1
DA:2053,1
DA:2054,1
DA:2055,1
DA:2056,1
DA:2061,1
DA:2062,1
DA:2063,1
DA:2065,1
DA:2068,1
DA:2070,1
DA:2071,1
DA:2072,1
DA:2073,1
DA:2075,1
DA:2076,1
DA:2077,0
DA:2079,1
DA:2080,1
DA:2081,0
DA:2082,0
DA:2084,1
DA:2085,1
DA:2086,0
DA:2088,1
DA:2089,1
DA:2090,0
DA:2100,1
DA:2101,1
DA:2102,9
DA:2103,8
DA:2104,8
DA:2107,1
DA:2108,2
DA:2110,9
DA:2111,8
DA:2112,8
DA:2115,1
DA:2116,1
DA:2117,0
DA:2118,0
DA:2125,1
DA:2127,1
DA:2128,1
DA:2129,1
DA:2130,1
DA:2132,1
DA:2133,1
DA:2134,0
DA:2135,0
DA:2144,1
DA:2145,1
DA:2146,1
DA:2147,3
DA:2149,3
DA:2152,6
DA:2153,3
DA:2154,3
DA:2155,3
DA:2156,3
DA:2157,3
DA:2158,0
DA:2162,3
DA:2164,3
DA:2166,3
DA:2167,3
DA:2168,3
DA:2169,3
DA:2171,3
DA:2173,1
DA:2174,1
DA:2175,2
DA:2178,1
DA:2180,1
DA:2181,0
DA:2182,0
DA:2183,0
DA:2184,0
DA:2185,1
DA:2186,0
DA:2191,1
DA:2192,1
DA:2193,0
DA:2194,0
DA:2196,1
DA:2197,1
DA:2198,0
DA:2202,1
DA:2203,1
DA:2204,1
DA:2205,0
DA:2206,0
DA:2207,0
DA:2208,0
DA:2210,1
DA:2212,0
DA:2214,1
DA:2215,1
DA:2216,0
DA:2217,0
DA:2219,1
DA:2229,1
DA:2230,1
DA:2231,5
DA:2232,6
DA:2233,5
DA:2234,5
DA:2236,0
DA:2239,1
DA:2240,1
DA:2243,6
DA:2244,5
DA:2245,5
DA:2246,5
DA:2247,0
DA:2249,5
DA:2251,1
DA:2252,1
DA:2253,1
DA:2261,1
DA:2264,1
DA:2268,41
DA:2270,25
DA:2271,25
DA:2272,25
DA:2273,16
DA:2276,0
DA:2279,9
DA:2282,0
DA:2288,1
DA:2290,1
DA:2291,1
DA:2293,0
DA:2298,17
DA:2299,16
DA:2300,16
DA:2301,16
DA:2302,0
DA:2305,1
DA:2306,1
DA:2313,1
DA:2314,1
DA:2315,1
DA:2316,1
DA:2317,1
DA:2319,1
DA:2320,50000
DA:2321,1
DA:2323,4
DA:2324,4
DA:2327,1
DA:2328,1
DA:2329,1
DA:2330,0
DA:2332,1
DA:2333,1
DA:2334,1
DA:2335,0
DA:2337,1
DA:2338,1
DA:2339,1
DA:2340,0
DA:2342,1
DA:2343,1
DA:2344,1
DA:2345,0
DA:2347,1
DA:2348,1
DA:2353,1
DA:2354,1
DA:2356,0
DA:2360,1
DA:2361,1025
DA:2362,1024
DA:2364,1
DA:2365,1
DA:2366,1
DA:2368,0
DA:2370,1
DA:2371,1
DA:2388,1
DA:2389,1
DA:2390,1
DA:2391,1
DA:2392,1
DA:2393,1
DA:2394,1
DA:2395,1
DA:2396,1
DA:2397,1
DA:2398,1
DA:2399,1
DA:2400,1
DA:2401,1
DA:2402,1
DA:2403,1
DA:2404,1
DA:2405,1
DA:2406,1
DA:2408,1
DA:2409,1
DA:2410,1
DA:2411,1
DA:2412,1
DA:2413,1
DA:2414,1
DA:2415,1
DA:2416,1
DA:2417,1
DA:2418,1
DA:2419,1
DA:2420,1
DA:2421,1
DA:2422,1
DA:2423,1
DA:2424,1
DA:2425,1
DA:2433,1
DA:2434,1
DA:2435,1
DA:2436,1
DA:2437,1
DA:2438,1
DA:2439,1
DA:2440,0
DA:2442,1
DA:2443,1
DA:2444,1
DA:2445,1
DA:2446,1
DA:2447,1
DA:2448,1
DA:2449,1
DA:2450,1
DA:2451,1
DA:2452,1
DA:2453,1
DA:2455,1
DA:2456,1
DA:2457,1
DA:2458,1
DA:2459,1
DA:2460,1
DA:2461,1
DA:2463,1
DA:2464,1
DA:2467,320
DA:2468,320
DA:2469,320
DA:2470,320
DA:2473,2
DA:2474,2
DA:2475,2
DA:2476,2
DA:2477,1
DA:2478,1
DA:2480,1
DA:2481,1
DA:2482,1
DA:2483,0
DA:2485,1
DA:2486,1
DA:2501,1
DA:2502,1
DA:2504,1
DA:2507,1
DA:2508,1
DA:2513,1
DA:2517,1
DA:2518,1
DA:2519,1
DA:2520,0
DA:2521,0
DA:2524,1
DA:2527,5
DA:2531,4
DA:2532,4
DA:2533,4
DA:2534,0
DA:2535,0
DA:2536,0
DA:2544,1
DA:2545,1
DA:2547,0
DA:2548,0
DA:2550,1
DA:2558,1
DA:2559,1
DA:2563,256
DA:2564,256
DA:2565,256
DA:2566,1
DA:2567,1
DA:2569,0
DA:2574,1
DA:2575,1
DA:2576,1
DA:2577,1
DA:2578,1
DA:2580,0
DA:2582,1
DA:2583,1
DA:2584,0
DA:2590,1
DA:2591,1
DA:2592,1
DA:2593,1
DA:2594,1
DA:2595,0
DA:2597,1
DA:2598,1
DA:2600,0
DA:2602,1
DA:2607,1
DA:2608,1
DA:2610,0
DA:2613,1
DA:2614,1
DA:2616,1
DA:2617,0
DA:2618,0
DA:2620,1
DA:2638,2
DA:2639,2
DA:2640,2
DA:2641,2
DA:2642,2
DA:2643,2
DA:2644,2
DA:2645,2
DA:2646,2
DA:2647,2
DA:2648,2
DA:2649,2
DA:2650,2
DA:2651,2
DA:2652,2
DA:2653,2
DA:2654,1
DA:2655,1
DA:2656,2
DA:2657,2
DA:2658,2
DA:2659,2
DA:2660,2
DA:2661,2
DA:2662,2
DA:2663,2
DA:2664,2
DA:2665,2
DA:2666,2
DA:2667,2
DA:2669,2
DA:2670,2
DA:2671,2
DA:2672,2
DA:2673,2
DA:2674,2
DA:2675,2
DA:2677,2
DA:2678,2
DA:2679,2
DA:2680,2
DA:2688,1
DA:2689,1
DA:2697,1
DA:2699,1
DA:2700,1
DA:2701,0
DA:2706,1
DA:2707,4
DA:2708,3
DA:2710,1
DA:2711,1
DA:2715,1
DA:2717,1
DA:2718,1
DA:2720,0
DA:2722,1
DA:2723,1
DA:2724,1
DA:2725,0
DA:2727,1
DA:2736,1
DA:2737,1
DA:2740,1
DA:2741,1
DA:2742,1
DA:2743,1
DA:2744,1
DA:2745,1
DA:2750,1
DA:2751,1
DA:2752,1
DA:2753,1
DA:2754,1
DA:2755,1
DA:2758,1
DA:2759,1
DA:2760,1
DA:2761,1
DA:2762,1
DA:2765,1
DA:2766,1
DA:2768,0
DA:2770,1
DA:2771,1
DA:2772,1
DA:2773,0
DA:2778,1
DA:2780,2
DA:2781,1
DA:2782,1
DA:2783,1
DA:2784,1
DA:2785,1
DA:2786,1
DA:2787,1
DA:2788,1
DA:2789,0
DA:2792,1
DA:2793,1
DA:2794,1
DA:2795,1
DA:2796,1
DA:2797,1
DA:2798,1
DA:2799,0
DA:2801,1
BRF:0
BRH:0
LF:1271
LH:1057
end_of_record
SF:/home/ubuntu/Code/ExpressGateway/.claude/worktrees/s36-verify/crates/lb-quic/src/router.rs
FN:153,_RNCNvMNtCs7RDJCKiF9ex_7lb_quic6routerNtB4_12RouterHandle4join0CsaynjlquWaVv_11grpc_h3_e2e
FN:153,_RNvMNtCs7RDJCKiF9ex_7lb_quic6routerNtB2_12RouterHandle4join
FN:308,_RNvNtCs7RDJCKiF9ex_7lb_quic6router10send_retry
FN:169,_RNvNtCs7RDJCKiF9ex_7lb_quic6router11router_main
FN:466,_RNvNtCs7RDJCKiF9ex_7lb_quic6router14sample_conn_id
FN:208,_RNvNtCs7RDJCKiF9ex_7lb_quic6router15dispatch_packet
FN:277,_RNvNtCs7RDJCKiF9ex_7lb_quic6router16build_replay_key
FN:286,_RNvNtCs7RDJCKiF9ex_7lb_quic6router16forward_to_actor
FN:344,_RNvNtCs7RDJCKiF9ex_7lb_quic6router20spawn_new_connection
FN:160,_RNvNtCs7RDJCKiF9ex_7lb_quic6router5spawn
FN:153,_RNCNvMNtCs7RDJCKiF9ex_7lb_quic6routerNtB4_12RouterHandle4join0B6_
FN:237,_RNCNCNvNtCs7RDJCKiF9ex_7lb_quic6router15dispatch_packet00B7_
FN:313,_RNCNvNtCs7RDJCKiF9ex_7lb_quic6router10send_retry0B5_
FN:169,_RNCNvNtCs7RDJCKiF9ex_7lb_quic6router11router_main0B5_
FN:472,_RNCNvNtCs7RDJCKiF9ex_7lb_quic6router14sample_conn_id0B5_
FN:214,_RNCNvNtCs7RDJCKiF9ex_7lb_quic6router15dispatch_packet0B5_
FN:378,_RNCNvNtCs7RDJCKiF9ex_7lb_quic6router20spawn_new_connection0B5_
FN:456,_RNCNvNtCs7RDJCKiF9ex_7lb_quic6router20spawn_new_connections0_0B5_
FN:389,_RNCNvNtCs7RDJCKiF9ex_7lb_quic6router20spawn_new_connections_0B5_
FN:161,_RNCNvNtCs7RDJCKiF9ex_7lb_quic6router5spawn0B5_
FN:153,_RNCNvMNtCs7RDJCKiF9ex_7lb_quic6routerNtB4_12RouterHandle4join0CseznNHQ5PbqY_25h3_connection_recycle_e2e
FN:153,_RNCNvMNtCs7RDJCKiF9ex_7lb_quic6routerNtB4_12RouterHandle4join0Cs4Jekr7O5LKV_16h3_h1_bridge_e2e
FN:153,_RNCNvMNtCs7RDJCKiF9ex_7lb_quic6routerNtB4_12RouterHandle4join0CsjtIKxJY6Qff_21h3_h1_resp_stream_e2e
FN:153,_RNCNvMNtCs7RDJCKiF9ex_7lb_quic6routerNtB4_12RouterHandle4join0CsgAijibt8yDZ_21h3_h1_stream_body_e2e
FN:153,_RNCNvMNtCs7RDJCKiF9ex_7lb_quic6routerNtB4_12RouterHandle4join0Cs1czSP5NU9KY_28h3_h1_stream_body_errors_e2e
FN:153,_RNCNvMNtCs7RDJCKiF9ex_7lb_quic6routerNtB4_12RouterHandle4join0CsjgXmVheg7AS_23h3_h1_trailers_resp_e2e
FN:153,_RNCNvMNtCs7RDJCKiF9ex_7lb_quic6routerNtB4_12RouterHandle4join0Cs9SQrgqjWl8x_16h3_h2_stream_e2e
FN:153,_RNCNvMNtCs7RDJCKiF9ex_7lb_quic6routerNtB4_12RouterHandle4join0Cs2mM2PX45pNR_16h3_h3_stream_e2e
FN:237,_RNCNCNvNtCs48r2xzLZq6T_7lb_quic6router15dispatch_packet00B7_
FN:153,_RNCNvMNtCs48r2xzLZq6T_7lb_quic6routerNtB4_12RouterHandle4join0B6_
FN:313,_RNCNvNtCs48r2xzLZq6T_7lb_quic6router10send_retry0B5_
FN:169,_RNCNvNtCs48r2xzLZq6T_7lb_quic6router11router_main0B5_
FN:214,_RNCNvNtCs48r2xzLZq6T_7lb_quic6router15dispatch_packet0B5_
FN:161,_RNCNvNtCs48r2xzLZq6T_7lb_quic6router5spawn0B5_
FN:153,_RNvMNtCs48r2xzLZq6T_7lb_quic6routerNtB2_12RouterHandle4join
FN:308,_RNvNtCs48r2xzLZq6T_7lb_quic6router10send_retry
FN:169,_RNvNtCs48r2xzLZq6T_7lb_quic6router11router_main
FN:208,_RNvNtCs48r2xzLZq6T_7lb_quic6router15dispatch_packet
FN:277,_RNvNtCs48r2xzLZq6T_7lb_quic6router16build_replay_key
FN:286,_RNvNtCs48r2xzLZq6T_7lb_quic6router16forward_to_actor
FN:160,_RNvNtCs48r2xzLZq6T_7lb_quic6router5spawn
FN:531,_RNCNCNvNtNtCs48r2xzLZq6T_7lb_quic6router5testss_37router_drops_initial_when_cap_reached00B9_
FN:662,_RNCNvNtNtCs48r2xzLZq6T_7lb_quic6router5tests27flood_server_config_factory0B7_
FN:690,_RNCNvNtNtCs48r2xzLZq6T_7lb_quic6router5tests9write_tmp0B7_
FN:514,_RNCNvNtNtCs48r2xzLZq6T_7lb_quic6router5testss_37router_drops_initial_when_cap_reached0B7_
FN:740,_RNCNvNtNtCs48r2xzLZq6T_7lb_quic6router5testss_46router_drops_flood_of_distinct_initials_at_cap0B7_
FN:705,_RNvNtNtCs48r2xzLZq6T_7lb_quic6router5tests21mint_distinct_initial
FN:649,_RNvNtNtCs48r2xzLZq6T_7lb_quic6router5tests27flood_server_config_factory
FN:684,_RNvNtNtCs48r2xzLZq6T_7lb_quic6router5tests9write_tmp
FN:514,_RNvNtNtCs48r2xzLZq6T_7lb_quic6router5testss_37router_drops_initial_when_cap_reached
FN:740,_RNvNtNtCs48r2xzLZq6T_7lb_quic6router5testss_46router_drops_flood_of_distinct_initials_at_cap
FN:466,_RNvNtCs48r2xzLZq6T_7lb_quic6router14sample_conn_id
FN:344,_RNvNtCs48r2xzLZq6T_7lb_quic6router20spawn_new_connection
FN:472,_RNCNvNtCs48r2xzLZq6T_7lb_quic6router14sample_conn_id0B5_
FN:378,_RNCNvNtCs48r2xzLZq6T_7lb_quic6router20spawn_new_connection0B5_
FN:456,_RNCNvNtCs48r2xzLZq6T_7lb_quic6router20spawn_new_connections0_0B5_
FN:389,_RNCNvNtCs48r2xzLZq6T_7lb_quic6router20spawn_new_connections_0B5_
FN:153,_RNCNvMNtCs7RDJCKiF9ex_7lb_quic6routerNtB4_12RouterHandle4join0Cs2PYQqQcI3AV_18listener_lifecycle
FN:153,_RNCNvMNtCs7RDJCKiF9ex_7lb_quic6routerNtB4_12RouterHandle4join0Cs8V3ZNegbJWO_18router_accept_path
FNDA:16,_RNCNvMNtCs7RDJCKiF9ex_7lb_quic6routerNtB4_12RouterHandle4join0CsaynjlquWaVv_11grpc_h3_e2e
FNDA:96,_RNvMNtCs7RDJCKiF9ex_7lb_quic6routerNtB2_12RouterHandle4join
FNDA:267,_RNvNtCs7RDJCKiF9ex_7lb_quic6router10send_retry
FNDA:96,_RNvNtCs7RDJCKiF9ex_7lb_quic6router11router_main
FNDA:534,_RNvNtCs7RDJCKiF9ex_7lb_quic6router14sample_conn_id
FNDA:202805,_RNvNtCs7RDJCKiF9ex_7lb_quic6router15dispatch_packet
FNDA:267,_RNvNtCs7RDJCKiF9ex_7lb_quic6router16build_replay_key
FNDA:202271,_RNvNtCs7RDJCKiF9ex_7lb_quic6router16forward_to_actor
FNDA:267,_RNvNtCs7RDJCKiF9ex_7lb_quic6router20spawn_new_connection
FNDA:96,_RNvNtCs7RDJCKiF9ex_7lb_quic6router5spawn
FNDA:0,_RNCNvMNtCs7RDJCKiF9ex_7lb_quic6routerNtB4_12RouterHandle4join0B6_
FNDA:534,_RNCNCNvNtCs7RDJCKiF9ex_7lb_quic6router15dispatch_packet00B7_
FNDA:267,_RNCNvNtCs7RDJCKiF9ex_7lb_quic6router10send_retry0B5_
FNDA:96,_RNCNvNtCs7RDJCKiF9ex_7lb_quic6router11router_main0B5_
FNDA:0,_RNCNvNtCs7RDJCKiF9ex_7lb_quic6router14sample_conn_id0B5_
FNDA:202805,_RNCNvNtCs7RDJCKiF9ex_7lb_quic6router15dispatch_packet0B5_
FNDA:0,_RNCNvNtCs7RDJCKiF9ex_7lb_quic6router20spawn_new_connection0B5_
FNDA:267,_RNCNvNtCs7RDJCKiF9ex_7lb_quic6router20spawn_new_connections0_0B5_
FNDA:0,_RNCNvNtCs7RDJCKiF9ex_7lb_quic6router20spawn_new_connections_0B5_
FNDA:96,_RNCNvNtCs7RDJCKiF9ex_7lb_quic6router5spawn0B5_
FNDA:1,_RNCNvMNtCs7RDJCKiF9ex_7lb_quic6routerNtB4_12RouterHandle4join0CseznNHQ5PbqY_25h3_connection_recycle_e2e
FNDA:1,_RNCNvMNtCs7RDJCKiF9ex_7lb_quic6routerNtB4_12RouterHandle4join0Cs4Jekr7O5LKV_16h3_h1_bridge_e2e
FNDA:24,_RNCNvMNtCs7RDJCKiF9ex_7lb_quic6routerNtB4_12RouterHandle4join0CsjtIKxJY6Qff_21h3_h1_resp_stream_e2e
FNDA:5,_RNCNvMNtCs7RDJCKiF9ex_7lb_quic6routerNtB4_12RouterHandle4join0CsgAijibt8yDZ_21h3_h1_stream_body_e2e
FNDA:2,_RNCNvMNtCs7RDJCKiF9ex_7lb_quic6routerNtB4_12RouterHandle4join0Cs1czSP5NU9KY_28h3_h1_stream_body_errors_e2e
FNDA:2,_RNCNvMNtCs7RDJCKiF9ex_7lb_quic6routerNtB4_12RouterHandle4join0CsjgXmVheg7AS_23h3_h1_trailers_resp_e2e
FNDA:8,_RNCNvMNtCs7RDJCKiF9ex_7lb_quic6routerNtB4_12RouterHandle4join0Cs9SQrgqjWl8x_16h3_h2_stream_e2e
FNDA:27,_RNCNvMNtCs7RDJCKiF9ex_7lb_quic6routerNtB4_12RouterHandle4join0Cs2mM2PX45pNR_16h3_h3_stream_e2e
FNDA:0,_RNCNCNvNtCs48r2xzLZq6T_7lb_quic6router15dispatch_packet00B7_
FNDA:0,_RNCNvMNtCs48r2xzLZq6T_7lb_quic6routerNtB4_12RouterHandle4join0B6_
FNDA:0,_RNCNvNtCs48r2xzLZq6T_7lb_quic6router10send_retry0B5_
FNDA:0,_RNCNvNtCs48r2xzLZq6T_7lb_quic6router11router_main0B5_
FNDA:0,_RNCNvNtCs48r2xzLZq6T_7lb_quic6router15dispatch_packet0B5_
FNDA:0,_RNCNvNtCs48r2xzLZq6T_7lb_quic6router5spawn0B5_
FNDA:0,_RNvMNtCs48r2xzLZq6T_7lb_quic6routerNtB2_12RouterHandle4join
FNDA:0,_RNvNtCs48r2xzLZq6T_7lb_quic6router10send_retry
FNDA:0,_RNvNtCs48r2xzLZq6T_7lb_quic6router11router_main
FNDA:0,_RNvNtCs48r2xzLZq6T_7lb_quic6router15dispatch_packet
FNDA:0,_RNvNtCs48r2xzLZq6T_7lb_quic6router16build_replay_key
FNDA:0,_RNvNtCs48r2xzLZq6T_7lb_quic6router16forward_to_actor
FNDA:0,_RNvNtCs48r2xzLZq6T_7lb_quic6router5spawn
FNDA:0,_RNCNCNvNtNtCs48r2xzLZq6T_7lb_quic6router5testss_37router_drops_initial_when_cap_reached00B9_
FNDA:4,_RNCNvNtNtCs48r2xzLZq6T_7lb_quic6router5tests27flood_server_config_factory0B7_
FNDA:8,_RNCNvNtNtCs48r2xzLZq6T_7lb_quic6router5tests9write_tmp0B7_
FNDA:1,_RNCNvNtNtCs48r2xzLZq6T_7lb_quic6router5testss_37router_drops_initial_when_cap_reached0B7_
FNDA:1,_RNCNvNtNtCs48r2xzLZq6T_7lb_quic6router5testss_46router_drops_flood_of_distinct_initials_at_cap0B7_
FNDA:40,_RNvNtNtCs48r2xzLZq6T_7lb_quic6router5tests21mint_distinct_initial
FNDA:1,_RNvNtNtCs48r2xzLZq6T_7lb_quic6router5tests27flood_server_config_factory
FNDA:8,_RNvNtNtCs48r2xzLZq6T_7lb_quic6router5tests9write_tmp
FNDA:1,_RNvNtNtCs48r2xzLZq6T_7lb_quic6router5testss_37router_drops_initial_when_cap_reached
FNDA:1,_RNvNtNtCs48r2xzLZq6T_7lb_quic6router5testss_46router_drops_flood_of_distinct_initials_at_cap
FNDA:45,_RNvNtCs48r2xzLZq6T_7lb_quic6router14sample_conn_id
FNDA:41,_RNvNtCs48r2xzLZq6T_7lb_quic6router20spawn_new_connection
FNDA:0,_RNCNvNtCs48r2xzLZq6T_7lb_quic6router14sample_conn_id0B5_
FNDA:0,_RNCNvNtCs48r2xzLZq6T_7lb_quic6router20spawn_new_connection0B5_
FNDA:0,_RNCNvNtCs48r2xzLZq6T_7lb_quic6router20spawn_new_connections0_0B5_
FNDA:0,_RNCNvNtCs48r2xzLZq6T_7lb_quic6router20spawn_new_connections_0B5_
FNDA:7,_RNCNvMNtCs7RDJCKiF9ex_7lb_quic6routerNtB4_12RouterHandle4join0Cs2PYQqQcI3AV_18listener_lifecycle
FNDA:3,_RNCNvMNtCs7RDJCKiF9ex_7lb_quic6routerNtB4_12RouterHandle4join0Cs8V3ZNegbJWO_18router_accept_path
FNF:29
FNH:25
DA:153,96
DA:154,96
DA:155,80
DA:160,96
DA:161,96
DA:162,96
DA:163,0
DA:164,80
DA:165,80
DA:166,96
DA:167,96
DA:169,96
DA:170,96
DA:172,96
DA:173,96
DA:175,96
DA:178,202901
DA:180,202901
DA:181,80
DA:182,80
DA:184,202901
DA:185,202805
DA:186,202805
DA:187,0
DA:188,0
DA:189,0
DA:192,202805
DA:193,202805
DA:194,202805
DA:195,202805
DA:196,202805
DA:197,202805
DA:199,202805
DA:201,0
DA:202,202805
DA:206,80
DA:208,202805
DA:209,202805
DA:210,202805
DA:211,202805
DA:212,202805
DA:213,202805
DA:214,202805
DA:218,202805
DA:219,202805
DA:220,0
DA:222,202805
DA:225,202805
DA:226,202271
DA:227,202271
DA:228,534
DA:233,534
DA:234,0
DA:235,534
DA:237,534
DA:238,534
DA:239,267
DA:240,267
DA:241,267
DA:243,267
DA:244,267
DA:245,0
DA:246,0
DA:247,0
DA:254,267
DA:255,267
DA:256,267
DA:257,0
DA:258,0
DA:259,267
DA:260,267
DA:261,267
DA:262,267
DA:263,267
DA:264,267
DA:265,267
DA:266,267
DA:267,267
DA:269,202805
DA:277,267
DA:278,267
DA:279,267
DA:280,267
DA:281,267
DA:282,267
DA:283,267
DA:286,202271
DA:287,202271
DA:288,202271
DA:289,202271
DA:290,202271
DA:291,202271
DA:292,202271
DA:293,202271
DA:294,202271
DA:295,202271
DA:296,150262
DA:298,52009
DA:300,0
DA:301,0
DA:302,0
DA:304,202271
DA:308,267
DA:309,267
DA:310,267
DA:311,267
DA:312,267
DA:313,267
DA:316,267
DA:322,267
DA:323,267
DA:325,267
DA:326,267
DA:327,267
DA:328,267
DA:329,267
DA:330,267
DA:331,267
DA:332,267
DA:333,267
DA:334,267
DA:335,0
DA:337,267
DA:338,267
DA:339,0
DA:340,267
DA:341,267
DA:342,267
DA:344,308
DA:345,308
DA:346,308
DA:347,308
DA:348,308
DA:349,308
DA:350,308
DA:351,308
DA:352,308
DA:357,308
DA:358,308
DA:359,37
DA:360,0
DA:364,0
DA:366,37
DA:367,271
DA:368,271
DA:369,271
DA:370,271
DA:376,271
DA:378,271
DA:379,271
DA:380,271
DA:381,271
DA:382,271
DA:383,271
DA:384,271
DA:385,271
DA:386,271
DA:387,271
DA:389,271
DA:391,271
DA:396,271
DA:397,271
DA:398,271
DA:399,271
DA:402,271
DA:403,271
DA:404,271
DA:405,271
DA:406,271
DA:408,271
DA:409,271
DA:410,271
DA:411,271
DA:412,271
DA:413,271
DA:414,271
DA:415,271
DA:416,271
DA:417,271
DA:418,271
DA:419,271
DA:420,271
DA:421,271
DA:422,271
DA:423,271
DA:424,271
DA:425,271
DA:426,271
DA:427,271
DA:428,271
DA:429,271
DA:430,271
DA:431,271
DA:432,271
DA:433,271
DA:434,271
DA:435,271
DA:436,271
DA:437,271
DA:438,271
DA:451,271
DA:452,271
DA:453,271
DA:454,271
DA:456,271
DA:459,267
DA:460,267
DA:462,69
DA:463,271
DA:464,308
DA:466,579
DA:468,579
DA:469,579
DA:470,0
DA:471,0
DA:472,0
DA:473,0
DA:474,0
DA:475,0
DA:477,0
DA:478,0
DA:479,0
DA:480,0
DA:481,0
DA:482,0
DA:484,579
DA:485,579
DA:486,579
DA:514,1
DA:516,1
DA:517,1
DA:518,1
DA:519,1
DA:521,1
DA:522,1
DA:524,1
DA:525,1
DA:530,1
DA:531,1
DA:533,1
DA:534,1
DA:536,1
DA:537,1
DA:538,1
DA:539,1
DA:540,1
DA:541,1
DA:542,1
DA:543,1
DA:544,1
DA:545,1
DA:546,1
DA:547,1
DA:548,1
DA:549,1
DA:550,1
DA:551,1
DA:552,1
DA:553,1
DA:554,1
DA:555,1
DA:558,1
DA:559,1
DA:560,5
DA:561,4
DA:562,4
DA:563,4
DA:564,4
DA:565,4
DA:566,4
DA:567,4
DA:568,4
DA:569,4
DA:570,1
DA:571,1
DA:573,0
DA:577,1
DA:578,1
DA:579,1
DA:580,1
DA:581,1
DA:582,1
DA:583,1
DA:584,1
DA:585,1
DA:586,1
DA:587,1
DA:588,1
DA:590,1
DA:591,1
DA:592,1
DA:593,1
DA:594,1
DA:595,1
DA:600,1
DA:601,1
DA:602,1
DA:603,1
DA:604,1
DA:607,1
DA:608,1
DA:609,1
DA:610,1
DA:611,1
DA:612,1
DA:613,1
DA:614,1
DA:620,1
DA:621,1
DA:622,1
DA:623,1
DA:624,1
DA:625,1
DA:626,1
DA:627,1
DA:628,1
DA:629,1
DA:630,1
DA:631,1
DA:632,1
DA:633,1
DA:634,1
DA:649,1
DA:650,1
DA:652,1
DA:653,1
DA:654,1
DA:655,1
DA:656,1
DA:657,1
DA:658,1
DA:659,1
DA:660,1
DA:661,1
DA:662,4
DA:663,4
DA:664,4
DA:665,4
DA:666,4
DA:667,4
DA:668,4
DA:671,4
DA:672,4
DA:673,4
DA:674,4
DA:675,4
DA:676,4
DA:677,4
DA:678,4
DA:679,4
DA:680,1
DA:684,8
DA:687,8
DA:688,8
DA:689,8
DA:690,8
DA:691,8
DA:692,8
DA:693,8
DA:694,8
DA:695,8
DA:696,8
DA:697,8
DA:698,8
DA:705,40
DA:706,40
DA:707,40
DA:708,40
DA:709,40
DA:710,40
DA:711,40
DA:712,40
DA:713,40
DA:714,40
DA:715,40
DA:716,40
DA:717,40
DA:718,40
DA:720,40
DA:721,40
DA:722,40
DA:723,40
DA:724,40
DA:725,40
DA:726,40
DA:727,40
DA:740,1
DA:745,1
DA:746,1
DA:747,1
DA:748,1
DA:751,1
DA:752,1
DA:753,1
DA:754,1
DA:756,1
DA:757,1
DA:758,1
DA:759,1
DA:760,1
DA:761,1
DA:762,1
DA:763,1
DA:764,1
DA:765,1
DA:766,1
DA:767,1
DA:768,1
DA:769,1
DA:770,1
DA:771,1
DA:772,1
DA:773,1
DA:774,1
DA:776,1
DA:777,1
DA:779,1
DA:780,1
DA:781,1
DA:782,1
DA:783,41
DA:784,40
DA:785,40
DA:786,40
DA:787,40
DA:788,40
DA:789,40
DA:790,40
DA:791,40
DA:792,40
DA:793,40
DA:794,40
DA:795,40
DA:796,40
DA:797,40
DA:798,40
DA:800,40
DA:802,4
DA:804,4
DA:805,4
DA:806,4
DA:807,0
DA:810,36
DA:811,36
DA:812,36
DA:814,0
DA:817,36
DA:818,36
DA:820,0
DA:825,40
DA:826,40
DA:827,0
DA:828,0
DA:834,1
DA:835,1
DA:837,0
DA:839,1
DA:841,0
DA:843,1
DA:845,1
DA:846,0
DA:850,1
DA:851,1
BRF:0
BRH:0
LF:486
LH:439
end_of_record
SF:/home/ubuntu/Code/ExpressGateway/.claude/worktrees/s36-verify/crates/lb-quic/src/terminate_loopback.rs
FN:407,_RINvNtCs7RDJCKiF9ex_7lb_quic18terminate_loopback5driveppEB4_
FN:415,_RNCINvNtCs7RDJCKiF9ex_7lb_quic18terminate_loopback5driveppE0B6_
FN:443,_RNCNCINvNtCs7RDJCKiF9ex_7lb_quic18terminate_loopback5driveppE00B8_
FN:704,_RNCNCNvNtCs7RDJCKiF9ex_7lb_quic18terminate_loopback16roundtrip_stream00B7_
FN:719,_RNCNCNvNtCs7RDJCKiF9ex_7lb_quic18terminate_loopback16roundtrip_stream0s_0B7_
FN:628,_RNCNCNvNtCs7RDJCKiF9ex_7lb_quic18terminate_loopback18roundtrip_datagram00B7_
FN:643,_RNCNCNvNtCs7RDJCKiF9ex_7lb_quic18terminate_loopback18roundtrip_datagram0s_0B7_
FN:553,_RNCNCNvNtCs7RDJCKiF9ex_7lb_quic18terminate_loopback18server_stream_task00B7_
FN:526,_RNCNCNvNtCs7RDJCKiF9ex_7lb_quic18terminate_loopback20server_datagram_task00B7_
FN:213,_RNCNvMs_NtCs7RDJCKiF9ex_7lb_quic18terminate_loopbackNtB6_12QuicEndpoint18client_on_loopback0B8_
FN:190,_RNCNvMs_NtCs7RDJCKiF9ex_7lb_quic18terminate_loopbackNtB6_12QuicEndpoint18server_on_loopback0B8_
FN:509,_RNCNvNtCs7RDJCKiF9ex_7lb_quic18terminate_loopback14graceful_close0B5_
FN:669,_RNCNvNtCs7RDJCKiF9ex_7lb_quic18terminate_loopback16roundtrip_stream0B5_
FN:471,_RNCNvNtCs7RDJCKiF9ex_7lb_quic18terminate_loopback17server_accept_one0B5_
FN:597,_RNCNvNtCs7RDJCKiF9ex_7lb_quic18terminate_loopback18roundtrip_datagram0B5_
FN:551,_RNCNvNtCs7RDJCKiF9ex_7lb_quic18terminate_loopback18server_stream_task0B5_
FN:524,_RNCNvNtCs7RDJCKiF9ex_7lb_quic18terminate_loopback20server_datagram_task0B5_
FN:388,_RNCNvNtCs7RDJCKiF9ex_7lb_quic18terminate_loopback21flush_out_best_effort0B5_
FN:366,_RNCNvNtCs7RDJCKiF9ex_7lb_quic18terminate_loopback9flush_out0B5_
FN:346,_RNCNvNtCs7RDJCKiF9ex_7lb_quic18terminate_loopback11random_scid0B5_
FN:312,_RNCNvNtCs7RDJCKiF9ex_7lb_quic18terminate_loopback12build_config0B5_
FN:326,_RNCNvNtCs7RDJCKiF9ex_7lb_quic18terminate_loopback12build_configs0_0B5_
FN:315,_RNCNvNtCs7RDJCKiF9ex_7lb_quic18terminate_loopback12build_configs_0B5_
FN:228,_RNvMs_NtCs7RDJCKiF9ex_7lb_quic18terminate_loopbackNtB4_12QuicEndpoint10local_addr
FN:265,_RNvMs_NtCs7RDJCKiF9ex_7lb_quic18terminate_loopbackNtB4_12QuicEndpoint12retry_signer
FN:272,_RNvMs_NtCs7RDJCKiF9ex_7lb_quic18terminate_loopbackNtB4_12QuicEndpoint13replay_filter
FN:243,_RNvMs_NtCs7RDJCKiF9ex_7lb_quic18terminate_loopbackNtB4_12QuicEndpoint17with_retry_signer
FN:213,_RNvMs_NtCs7RDJCKiF9ex_7lb_quic18terminate_loopbackNtB4_12QuicEndpoint18client_on_loopback
FN:187,_RNvMs_NtCs7RDJCKiF9ex_7lb_quic18terminate_loopbackNtB4_12QuicEndpoint18server_on_loopback
FN:257,_RNvMs_NtCs7RDJCKiF9ex_7lb_quic18terminate_loopbackNtB4_12QuicEndpoint18with_replay_filter
FN:342,_RNvNtCs7RDJCKiF9ex_7lb_quic18terminate_loopback11random_scid
FN:291,_RNvNtCs7RDJCKiF9ex_7lb_quic18terminate_loopback12build_config
FN:129,_RNvNtCs7RDJCKiF9ex_7lb_quic18terminate_loopback14forward_stream
FN:509,_RNvNtCs7RDJCKiF9ex_7lb_quic18terminate_loopback14graceful_close
FN:116,_RNvNtCs7RDJCKiF9ex_7lb_quic18terminate_loopback16forward_datagram
FN:665,_RNvNtCs7RDJCKiF9ex_7lb_quic18terminate_loopback16roundtrip_stream
FN:467,_RNvNtCs7RDJCKiF9ex_7lb_quic18terminate_loopback17server_accept_one
FN:593,_RNvNtCs7RDJCKiF9ex_7lb_quic18terminate_loopback18roundtrip_datagram
FN:547,_RNvNtCs7RDJCKiF9ex_7lb_quic18terminate_loopback18server_stream_task
FN:520,_RNvNtCs7RDJCKiF9ex_7lb_quic18terminate_loopback20server_datagram_task
FN:384,_RNvNtCs7RDJCKiF9ex_7lb_quic18terminate_loopback21flush_out_best_effort
FN:41,_RNvNtCs7RDJCKiF9ex_7lb_quic18terminate_loopback6prefix
FN:362,_RNvNtCs7RDJCKiF9ex_7lb_quic18terminate_loopback9flush_out
FN:166,_RNvXNtCs7RDJCKiF9ex_7lb_quic18terminate_loopbackNtB2_12QuicEndpointNtNtCs1p5UDGgVI4d_4core3fmt5Debug3fmt
FN:407,_RINvNtCs48r2xzLZq6T_7lb_quic18terminate_loopback5driveppEB4_
FN:415,_RNCINvNtCs48r2xzLZq6T_7lb_quic18terminate_loopback5driveppE0B6_
FN:443,_RNCNCINvNtCs48r2xzLZq6T_7lb_quic18terminate_loopback5driveppE00B8_
FN:704,_RNCNCNvNtCs48r2xzLZq6T_7lb_quic18terminate_loopback16roundtrip_stream00B7_
FN:719,_RNCNCNvNtCs48r2xzLZq6T_7lb_quic18terminate_loopback16roundtrip_stream0s_0B7_
FN:628,_RNCNCNvNtCs48r2xzLZq6T_7lb_quic18terminate_loopback18roundtrip_datagram00B7_
FN:643,_RNCNCNvNtCs48r2xzLZq6T_7lb_quic18terminate_loopback18roundtrip_datagram0s_0B7_
FN:553,_RNCNCNvNtCs48r2xzLZq6T_7lb_quic18terminate_loopback18server_stream_task00B7_
FN:526,_RNCNCNvNtCs48r2xzLZq6T_7lb_quic18terminate_loopback20server_datagram_task00B7_
FN:213,_RNCNvMs_NtCs48r2xzLZq6T_7lb_quic18terminate_loopbackNtB6_12QuicEndpoint18client_on_loopback0B8_
FN:190,_RNCNvMs_NtCs48r2xzLZq6T_7lb_quic18terminate_loopbackNtB6_12QuicEndpoint18server_on_loopback0B8_
FN:346,_RNCNvNtCs48r2xzLZq6T_7lb_quic18terminate_loopback11random_scid0B5_
FN:312,_RNCNvNtCs48r2xzLZq6T_7lb_quic18terminate_loopback12build_config0B5_
FN:326,_RNCNvNtCs48r2xzLZq6T_7lb_quic18terminate_loopback12build_configs0_0B5_
FN:315,_RNCNvNtCs48r2xzLZq6T_7lb_quic18terminate_loopback12build_configs_0B5_
FN:509,_RNCNvNtCs48r2xzLZq6T_7lb_quic18terminate_loopback14graceful_close0B5_
FN:669,_RNCNvNtCs48r2xzLZq6T_7lb_quic18terminate_loopback16roundtrip_stream0B5_
FN:471,_RNCNvNtCs48r2xzLZq6T_7lb_quic18terminate_loopback17server_accept_one0B5_
FN:597,_RNCNvNtCs48r2xzLZq6T_7lb_quic18terminate_loopback18roundtrip_datagram0B5_
FN:551,_RNCNvNtCs48r2xzLZq6T_7lb_quic18terminate_loopback18server_stream_task0B5_
FN:524,_RNCNvNtCs48r2xzLZq6T_7lb_quic18terminate_loopback20server_datagram_task0B5_
FN:388,_RNCNvNtCs48r2xzLZq6T_7lb_quic18terminate_loopback21flush_out_best_effort0B5_
FN:366,_RNCNvNtCs48r2xzLZq6T_7lb_quic18terminate_loopback9flush_out0B5_
FN:228,_RNvMs_NtCs48r2xzLZq6T_7lb_quic18terminate_loopbackNtB4_12QuicEndpoint10local_addr
FN:265,_RNvMs_NtCs48r2xzLZq6T_7lb_quic18terminate_loopbackNtB4_12QuicEndpoint12retry_signer
FN:272,_RNvMs_NtCs48r2xzLZq6T_7lb_quic18terminate_loopbackNtB4_12QuicEndpoint13replay_filter
FN:243,_RNvMs_NtCs48r2xzLZq6T_7lb_quic18terminate_loopbackNtB4_12QuicEndpoint17with_retry_signer
FN:213,_RNvMs_NtCs48r2xzLZq6T_7lb_quic18terminate_loopbackNtB4_12QuicEndpoint18client_on_loopback
FN:187,_RNvMs_NtCs48r2xzLZq6T_7lb_quic18terminate_loopbackNtB4_12QuicEndpoint18server_on_loopback
FN:257,_RNvMs_NtCs48r2xzLZq6T_7lb_quic18terminate_loopbackNtB4_12QuicEndpoint18with_replay_filter
FN:342,_RNvNtCs48r2xzLZq6T_7lb_quic18terminate_loopback11random_scid
FN:291,_RNvNtCs48r2xzLZq6T_7lb_quic18terminate_loopback12build_config
FN:509,_RNvNtCs48r2xzLZq6T_7lb_quic18terminate_loopback14graceful_close
FN:665,_RNvNtCs48r2xzLZq6T_7lb_quic18terminate_loopback16roundtrip_stream
FN:467,_RNvNtCs48r2xzLZq6T_7lb_quic18terminate_loopback17server_accept_one
FN:593,_RNvNtCs48r2xzLZq6T_7lb_quic18terminate_loopback18roundtrip_datagram
FN:547,_RNvNtCs48r2xzLZq6T_7lb_quic18terminate_loopback18server_stream_task
FN:520,_RNvNtCs48r2xzLZq6T_7lb_quic18terminate_loopback20server_datagram_task
FN:384,_RNvNtCs48r2xzLZq6T_7lb_quic18terminate_loopback21flush_out_best_effort
FN:41,_RNvNtCs48r2xzLZq6T_7lb_quic18terminate_loopback6prefix
FN:362,_RNvNtCs48r2xzLZq6T_7lb_quic18terminate_loopback9flush_out
FN:166,_RNvXNtCs48r2xzLZq6T_7lb_quic18terminate_loopbackNtB2_12QuicEndpointNtNtCs1p5UDGgVI4d_4core3fmt5Debug3fmt
FN:754,_RNvNtNtCs48r2xzLZq6T_7lb_quic18terminate_loopback5testss_17stream_forward_ok
FN:734,_RNvNtNtCs48r2xzLZq6T_7lb_quic18terminate_loopback5testss_19datagram_forward_ok
FN:766,_RNvNtNtCs48r2xzLZq6T_7lb_quic18terminate_loopback5testss_21stream_empty_rejected
FN:745,_RNvNtNtCs48r2xzLZq6T_7lb_quic18terminate_loopback5testss_23datagram_empty_rejected
FN:129,_RNvNtCs48r2xzLZq6T_7lb_quic18terminate_loopback14forward_stream
FN:116,_RNvNtCs48r2xzLZq6T_7lb_quic18terminate_loopback16forward_datagram
FNDA:0,_RINvNtCs7RDJCKiF9ex_7lb_quic18terminate_loopback5driveppEB4_
FNDA:0,_RNCINvNtCs7RDJCKiF9ex_7lb_quic18terminate_loopback5driveppE0B6_
FNDA:0,_RNCNCINvNtCs7RDJCKiF9ex_7lb_quic18terminate_loopback5driveppE00B8_
FNDA:0,_RNCNCNvNtCs7RDJCKiF9ex_7lb_quic18terminate_loopback16roundtrip_stream00B7_
FNDA:0,_RNCNCNvNtCs7RDJCKiF9ex_7lb_quic18terminate_loopback16roundtrip_stream0s_0B7_
FNDA:0,_RNCNCNvNtCs7RDJCKiF9ex_7lb_quic18terminate_loopback18roundtrip_datagram00B7_
FNDA:0,_RNCNCNvNtCs7RDJCKiF9ex_7lb_quic18terminate_loopback18roundtrip_datagram0s_0B7_
FNDA:0,_RNCNCNvNtCs7RDJCKiF9ex_7lb_quic18terminate_loopback18server_stream_task00B7_
FNDA:0,_RNCNCNvNtCs7RDJCKiF9ex_7lb_quic18terminate_loopback20server_datagram_task00B7_
FNDA:0,_RNCNvMs_NtCs7RDJCKiF9ex_7lb_quic18terminate_loopbackNtB6_12QuicEndpoint18client_on_loopback0B8_
FNDA:0,_RNCNvMs_NtCs7RDJCKiF9ex_7lb_quic18terminate_loopbackNtB6_12QuicEndpoint18server_on_loopback0B8_
FNDA:0,_RNCNvNtCs7RDJCKiF9ex_7lb_quic18terminate_loopback14graceful_close0B5_
FNDA:0,_RNCNvNtCs7RDJCKiF9ex_7lb_quic18terminate_loopback16roundtrip_stream0B5_
FNDA:0,_RNCNvNtCs7RDJCKiF9ex_7lb_quic18terminate_loopback17server_accept_one0B5_
FNDA:0,_RNCNvNtCs7RDJCKiF9ex_7lb_quic18terminate_loopback18roundtrip_datagram0B5_
FNDA:0,_RNCNvNtCs7RDJCKiF9ex_7lb_quic18terminate_loopback18server_stream_task0B5_
FNDA:0,_RNCNvNtCs7RDJCKiF9ex_7lb_quic18terminate_loopback20server_datagram_task0B5_
FNDA:0,_RNCNvNtCs7RDJCKiF9ex_7lb_quic18terminate_loopback21flush_out_best_effort0B5_
FNDA:0,_RNCNvNtCs7RDJCKiF9ex_7lb_quic18terminate_loopback9flush_out0B5_
FNDA:0,_RNCNvNtCs7RDJCKiF9ex_7lb_quic18terminate_loopback11random_scid0B5_
FNDA:0,_RNCNvNtCs7RDJCKiF9ex_7lb_quic18terminate_loopback12build_config0B5_
FNDA:0,_RNCNvNtCs7RDJCKiF9ex_7lb_quic18terminate_loopback12build_configs0_0B5_
FNDA:0,_RNCNvNtCs7RDJCKiF9ex_7lb_quic18terminate_loopback12build_configs_0B5_
FNDA:0,_RNvMs_NtCs7RDJCKiF9ex_7lb_quic18terminate_loopbackNtB4_12QuicEndpoint10local_addr
FNDA:0,_RNvMs_NtCs7RDJCKiF9ex_7lb_quic18terminate_loopbackNtB4_12QuicEndpoint12retry_signer
FNDA:0,_RNvMs_NtCs7RDJCKiF9ex_7lb_quic18terminate_loopbackNtB4_12QuicEndpoint13replay_filter
FNDA:0,_RNvMs_NtCs7RDJCKiF9ex_7lb_quic18terminate_loopbackNtB4_12QuicEndpoint17with_retry_signer
FNDA:0,_RNvMs_NtCs7RDJCKiF9ex_7lb_quic18terminate_loopbackNtB4_12QuicEndpoint18client_on_loopback
FNDA:0,_RNvMs_NtCs7RDJCKiF9ex_7lb_quic18terminate_loopbackNtB4_12QuicEndpoint18server_on_loopback
FNDA:0,_RNvMs_NtCs7RDJCKiF9ex_7lb_quic18terminate_loopbackNtB4_12QuicEndpoint18with_replay_filter
FNDA:0,_RNvNtCs7RDJCKiF9ex_7lb_quic18terminate_loopback11random_scid
FNDA:0,_RNvNtCs7RDJCKiF9ex_7lb_quic18terminate_loopback12build_config
FNDA:0,_RNvNtCs7RDJCKiF9ex_7lb_quic18terminate_loopback14forward_stream
FNDA:0,_RNvNtCs7RDJCKiF9ex_7lb_quic18terminate_loopback14graceful_close
FNDA:0,_RNvNtCs7RDJCKiF9ex_7lb_quic18terminate_loopback16forward_datagram
FNDA:0,_RNvNtCs7RDJCKiF9ex_7lb_quic18terminate_loopback16roundtrip_stream
FNDA:0,_RNvNtCs7RDJCKiF9ex_7lb_quic18terminate_loopback17server_accept_one
FNDA:0,_RNvNtCs7RDJCKiF9ex_7lb_quic18terminate_loopback18roundtrip_datagram
FNDA:0,_RNvNtCs7RDJCKiF9ex_7lb_quic18terminate_loopback18server_stream_task
FNDA:0,_RNvNtCs7RDJCKiF9ex_7lb_quic18terminate_loopback20server_datagram_task
FNDA:0,_RNvNtCs7RDJCKiF9ex_7lb_quic18terminate_loopback21flush_out_best_effort
FNDA:0,_RNvNtCs7RDJCKiF9ex_7lb_quic18terminate_loopback6prefix
FNDA:0,_RNvNtCs7RDJCKiF9ex_7lb_quic18terminate_loopback9flush_out
FNDA:0,_RNvXNtCs7RDJCKiF9ex_7lb_quic18terminate_loopbackNtB2_12QuicEndpointNtNtCs1p5UDGgVI4d_4core3fmt5Debug3fmt
FNDA:0,_RINvNtCs48r2xzLZq6T_7lb_quic18terminate_loopback5driveppEB4_
FNDA:0,_RNCINvNtCs48r2xzLZq6T_7lb_quic18terminate_loopback5driveppE0B6_
FNDA:0,_RNCNCINvNtCs48r2xzLZq6T_7lb_quic18terminate_loopback5driveppE00B8_
FNDA:0,_RNCNCNvNtCs48r2xzLZq6T_7lb_quic18terminate_loopback16roundtrip_stream00B7_
FNDA:0,_RNCNCNvNtCs48r2xzLZq6T_7lb_quic18terminate_loopback16roundtrip_stream0s_0B7_
FNDA:0,_RNCNCNvNtCs48r2xzLZq6T_7lb_quic18terminate_loopback18roundtrip_datagram00B7_
FNDA:0,_RNCNCNvNtCs48r2xzLZq6T_7lb_quic18terminate_loopback18roundtrip_datagram0s_0B7_
FNDA:0,_RNCNCNvNtCs48r2xzLZq6T_7lb_quic18terminate_loopback18server_stream_task00B7_
FNDA:0,_RNCNCNvNtCs48r2xzLZq6T_7lb_quic18terminate_loopback20server_datagram_task00B7_
FNDA:0,_RNCNvMs_NtCs48r2xzLZq6T_7lb_quic18terminate_loopbackNtB6_12QuicEndpoint18client_on_loopback0B8_
FNDA:0,_RNCNvMs_NtCs48r2xzLZq6T_7lb_quic18terminate_loopbackNtB6_12QuicEndpoint18server_on_loopback0B8_
FNDA:0,_RNCNvNtCs48r2xzLZq6T_7lb_quic18terminate_loopback11random_scid0B5_
FNDA:0,_RNCNvNtCs48r2xzLZq6T_7lb_quic18terminate_loopback12build_config0B5_
FNDA:0,_RNCNvNtCs48r2xzLZq6T_7lb_quic18terminate_loopback12build_configs0_0B5_
FNDA:0,_RNCNvNtCs48r2xzLZq6T_7lb_quic18terminate_loopback12build_configs_0B5_
FNDA:0,_RNCNvNtCs48r2xzLZq6T_7lb_quic18terminate_loopback14graceful_close0B5_
FNDA:0,_RNCNvNtCs48r2xzLZq6T_7lb_quic18terminate_loopback16roundtrip_stream0B5_
FNDA:0,_RNCNvNtCs48r2xzLZq6T_7lb_quic18terminate_loopback17server_accept_one0B5_
FNDA:0,_RNCNvNtCs48r2xzLZq6T_7lb_quic18terminate_loopback18roundtrip_datagram0B5_
FNDA:0,_RNCNvNtCs48r2xzLZq6T_7lb_quic18terminate_loopback18server_stream_task0B5_
FNDA:0,_RNCNvNtCs48r2xzLZq6T_7lb_quic18terminate_loopback20server_datagram_task0B5_
FNDA:0,_RNCNvNtCs48r2xzLZq6T_7lb_quic18terminate_loopback21flush_out_best_effort0B5_
FNDA:0,_RNCNvNtCs48r2xzLZq6T_7lb_quic18terminate_loopback9flush_out0B5_
FNDA:0,_RNvMs_NtCs48r2xzLZq6T_7lb_quic18terminate_loopbackNtB4_12QuicEndpoint10local_addr
FNDA:0,_RNvMs_NtCs48r2xzLZq6T_7lb_quic18terminate_loopbackNtB4_12QuicEndpoint12retry_signer
FNDA:0,_RNvMs_NtCs48r2xzLZq6T_7lb_quic18terminate_loopbackNtB4_12QuicEndpoint13replay_filter
FNDA:0,_RNvMs_NtCs48r2xzLZq6T_7lb_quic18terminate_loopbackNtB4_12QuicEndpoint17with_retry_signer
FNDA:0,_RNvMs_NtCs48r2xzLZq6T_7lb_quic18terminate_loopbackNtB4_12QuicEndpoint18client_on_loopback
FNDA:0,_RNvMs_NtCs48r2xzLZq6T_7lb_quic18terminate_loopbackNtB4_12QuicEndpoint18server_on_loopback
FNDA:0,_RNvMs_NtCs48r2xzLZq6T_7lb_quic18terminate_loopbackNtB4_12QuicEndpoint18with_replay_filter
FNDA:0,_RNvNtCs48r2xzLZq6T_7lb_quic18terminate_loopback11random_scid
FNDA:0,_RNvNtCs48r2xzLZq6T_7lb_quic18terminate_loopback12build_config
FNDA:0,_RNvNtCs48r2xzLZq6T_7lb_quic18terminate_loopback14graceful_close
FNDA:0,_RNvNtCs48r2xzLZq6T_7lb_quic18terminate_loopback16roundtrip_stream
FNDA:0,_RNvNtCs48r2xzLZq6T_7lb_quic18terminate_loopback17server_accept_one
FNDA:0,_RNvNtCs48r2xzLZq6T_7lb_quic18terminate_loopback18roundtrip_datagram
FNDA:0,_RNvNtCs48r2xzLZq6T_7lb_quic18terminate_loopback18server_stream_task
FNDA:0,_RNvNtCs48r2xzLZq6T_7lb_quic18terminate_loopback20server_datagram_task
FNDA:0,_RNvNtCs48r2xzLZq6T_7lb_quic18terminate_loopback21flush_out_best_effort
FNDA:0,_RNvNtCs48r2xzLZq6T_7lb_quic18terminate_loopback6prefix
FNDA:0,_RNvNtCs48r2xzLZq6T_7lb_quic18terminate_loopback9flush_out
FNDA:0,_RNvXNtCs48r2xzLZq6T_7lb_quic18terminate_loopbackNtB2_12QuicEndpointNtNtCs1p5UDGgVI4d_4core3fmt5Debug3fmt
FNDA:1,_RNvNtNtCs48r2xzLZq6T_7lb_quic18terminate_loopback5testss_17stream_forward_ok
FNDA:1,_RNvNtNtCs48r2xzLZq6T_7lb_quic18terminate_loopback5testss_19datagram_forward_ok
FNDA:1,_RNvNtNtCs48r2xzLZq6T_7lb_quic18terminate_loopback5testss_21stream_empty_rejected
FNDA:1,_RNvNtNtCs48r2xzLZq6T_7lb_quic18terminate_loopback5testss_23datagram_empty_rejected
FNDA:2,_RNvNtCs48r2xzLZq6T_7lb_quic18terminate_loopback14forward_stream
FNDA:2,_RNvNtCs48r2xzLZq6T_7lb_quic18terminate_loopback16forward_datagram
FNF:48
FNH:6
DA:41,0
DA:42,0
DA:43,0
DA:116,2
DA:117,2
DA:118,1
DA:119,1
DA:120,1
DA:121,2
DA:129,2
DA:130,2
DA:131,1
DA:132,1
DA:133,1
DA:134,2
DA:166,0
DA:167,0
DA:168,0
DA:169,0
DA:171,0
DA:172,0
DA:173,0
DA:174,0
DA:175,0
DA:187,0
DA:188,0
DA:189,0
DA:190,0
DA:191,0
DA:192,0
DA:193,0
DA:194,0
DA:195,0
DA:196,0
DA:197,0
DA:198,0
DA:199,0
DA:200,0
DA:201,0
DA:202,0
DA:203,0
DA:204,0
DA:213,0
DA:214,0
DA:215,0
DA:216,0
DA:217,0
DA:218,0
DA:219,0
DA:220,0
DA:221,0
DA:222,0
DA:223,0
DA:224,0
DA:228,0
DA:229,0
DA:230,0
DA:243,0
DA:244,0
DA:245,0
DA:246,0
DA:257,0
DA:258,0
DA:259,0
DA:260,0
DA:265,0
DA:266,0
DA:267,0
DA:272,0
DA:273,0
DA:274,0
DA:291,0
DA:292,0
DA:293,0
DA:294,0
DA:295,0
DA:296,0
DA:297,0
DA:298,0
DA:299,0
DA:300,0
DA:301,0
DA:302,0
DA:303,0
DA:304,0
DA:305,0
DA:307,0
DA:308,0
DA:310,0
DA:311,0
DA:312,0
DA:313,0
DA:314,0
DA:315,0
DA:316,0
DA:317,0
DA:323,0
DA:324,0
DA:325,0
DA:326,0
DA:327,0
DA:333,0
DA:336,0
DA:337,0
DA:342,0
DA:343,0
DA:344,0
DA:345,0
DA:346,0
DA:347,0
DA:348,0
DA:349,0
DA:350,0
DA:351,0
DA:352,0
DA:353,0
DA:354,0
DA:355,0
DA:356,0
DA:357,0
DA:358,0
DA:359,0
DA:362,0
DA:363,0
DA:364,0
DA:365,0
DA:366,0
DA:368,0
DA:369,0
DA:370,0
DA:372,0
DA:373,0
DA:374,0
DA:376,0
DA:377,0
DA:380,0
DA:384,0
DA:385,0
DA:386,0
DA:387,0
DA:388,0
DA:390,0
DA:391,0
DA:392,0
DA:394,0
DA:395,0
DA:396,0
DA:398,0
DA:401,0
DA:407,0
DA:408,0
DA:409,0
DA:410,0
DA:411,0
DA:412,0
DA:413,0
DA:414,0
DA:415,0
DA:416,0
DA:417,0
DA:418,0
DA:421,0
DA:422,0
DA:423,0
DA:424,0
DA:427,0
DA:428,0
DA:429,0
DA:430,0
DA:431,0
DA:432,0
DA:433,0
DA:434,0
DA:435,0
DA:438,0
DA:439,0
DA:440,0
DA:442,0
DA:443,0
DA:445,0
DA:446,0
DA:447,0
DA:448,0
DA:449,0
DA:450,0
DA:451,0
DA:452,0
DA:453,0
DA:456,0
DA:457,0
DA:458,0
DA:462,0
DA:467,0
DA:468,0
DA:469,0
DA:470,0
DA:471,0
DA:472,0
DA:473,0
DA:474,0
DA:476,0
DA:477,0
DA:478,0
DA:479,0
DA:481,0
DA:482,0
DA:483,0
DA:484,0
DA:485,0
DA:486,0
DA:487,0
DA:488,0
DA:489,0
DA:490,0
DA:491,0
DA:495,0
DA:496,0
DA:497,0
DA:499,0
DA:500,0
DA:504,0
DA:505,0
DA:509,0
DA:511,0
DA:512,0
DA:514,0
DA:515,0
DA:516,0
DA:520,0
DA:521,0
DA:522,0
DA:523,0
DA:524,0
DA:525,0
DA:526,0
DA:527,0
DA:528,0
DA:529,0
DA:530,0
DA:531,0
DA:532,0
DA:533,0
DA:534,0
DA:536,0
DA:537,0
DA:539,0
DA:540,0
DA:541,0
DA:542,0
DA:543,0
DA:547,0
DA:548,0
DA:549,0
DA:550,0
DA:551,0
DA:552,0
DA:553,0
DA:554,0
DA:555,0
DA:556,0
DA:557,0
DA:558,0
DA:560,0
DA:561,0
DA:563,0
DA:564,0
DA:565,0
DA:566,0
DA:567,0
DA:568,0
DA:569,0
DA:571,0
DA:572,0
DA:575,0
DA:576,0
DA:577,0
DA:578,0
DA:579,0
DA:593,0
DA:594,0
DA:595,0
DA:596,0
DA:597,0
DA:598,0
DA:599,0
DA:600,0
DA:602,0
DA:603,0
DA:605,0
DA:606,0
DA:607,0
DA:608,0
DA:609,0
DA:610,0
DA:613,0
DA:614,0
DA:615,0
DA:616,0
DA:617,0
DA:618,0
DA:619,0
DA:620,0
DA:621,0
DA:622,0
DA:623,0
DA:624,0
DA:626,0
DA:627,0
DA:628,0
DA:629,0
DA:630,0
DA:631,0
DA:632,0
DA:633,0
DA:634,0
DA:635,0
DA:636,0
DA:637,0
DA:638,0
DA:639,0
DA:641,0
DA:642,0
DA:643,0
DA:644,0
DA:646,0
DA:647,0
DA:648,0
DA:649,0
DA:650,0
DA:665,0
DA:666,0
DA:667,0
DA:668,0
DA:669,0
DA:670,0
DA:671,0
DA:672,0
DA:674,0
DA:675,0
DA:677,0
DA:678,0
DA:679,0
DA:680,0
DA:681,0
DA:682,0
DA:685,0
DA:686,0
DA:687,0
DA:688,0
DA:689,0
DA:690,0
DA:691,0
DA:692,0
DA:693,0
DA:694,0
DA:695,0
DA:696,0
DA:701,0
DA:702,0
DA:703,0
DA:704,0
DA:705,0
DA:706,0
DA:707,0
DA:708,0
DA:709,0
DA:710,0
DA:711,0
DA:712,0
DA:713,0
DA:714,0
DA:715,0
DA:717,0
DA:718,0
DA:719,0
DA:720,0
DA:722,0
DA:723,0
DA:724,0
DA:725,0
DA:726,0
DA:727,0
DA:734,1
DA:735,1
DA:736,1
DA:737,1
DA:738,1
DA:739,1
DA:740,1
DA:741,1
DA:742,1
DA:745,1
DA:746,1
DA:747,1
DA:748,1
DA:749,1
DA:750,1
DA:751,1
DA:754,1
DA:755,1
DA:756,1
DA:757,1
DA:758,1
DA:759,1
DA:760,1
DA:761,1
DA:762,1
DA:763,1
DA:766,1
DA:767,1
DA:768,1
DA:769,1
DA:770,1
DA:771,1
DA:772,1
DA:773,1
BRF:0
BRH:0
LF:437
LH:46
end_of_record
SF:/home/ubuntu/Code/ExpressGateway/.claude/worktrees/s36-verify/crates/lb-quic/src/udp_dataplane.rs
FN:211,_RNCNvMNtCs7RDJCKiF9ex_7lb_quic13udp_dataplaneNtB4_8TokioUdp4bind0B6_
FN:164,_RNCNvNtCs7RDJCKiF9ex_7lb_quic13udp_dataplane16select_dataplane0B5_
FN:129,_RNvYpNtNtCs7RDJCKiF9ex_7lb_quic13udp_dataplane12UdpDataplane11dcid_map_fdB7_
FN:198,_RNvMNtCs7RDJCKiF9ex_7lb_quic13udp_dataplaneNtB2_8TokioUdp3new
FN:211,_RNvMNtCs7RDJCKiF9ex_7lb_quic13udp_dataplaneNtB2_8TokioUdp4bind
FN:219,_RNvMNtCs7RDJCKiF9ex_7lb_quic13udp_dataplaneNtB2_8TokioUdp6socket
FN:161,_RNvNtCs7RDJCKiF9ex_7lb_quic13udp_dataplane16select_dataplane
FN:225,_RNvXs_NtCs7RDJCKiF9ex_7lb_quic13udp_dataplaneNtB4_8TokioUdpNtB4_12UdpDataplane10local_addr
FN:261,_RNvXs_NtCs7RDJCKiF9ex_7lb_quic13udp_dataplaneNtB4_8TokioUdpNtB4_12UdpDataplane7send_to
FN:229,_RNvXs_NtCs7RDJCKiF9ex_7lb_quic13udp_dataplaneNtB4_8TokioUdpNtB4_12UdpDataplane9recv_loop
FN:274,_RNvXs_NtCs7RDJCKiF9ex_7lb_quic13udp_dataplaneNtB4_8TokioUdpNtB4_12UdpDataplane9tier_name
FN:266,_RNCNvXs_NtCs7RDJCKiF9ex_7lb_quic13udp_dataplaneNtB6_8TokioUdpNtB6_12UdpDataplane7send_to0B8_
FN:234,_RNCNvXs_NtCs7RDJCKiF9ex_7lb_quic13udp_dataplaneNtB6_8TokioUdpNtB6_12UdpDataplane9recv_loop0B8_
FN:219,_RNvMNtCs48r2xzLZq6T_7lb_quic13udp_dataplaneNtB2_8TokioUdp6socket
FN:285,_RNvNtNtCs48r2xzLZq6T_7lb_quic13udp_dataplane5testss_27tokio_udp_select_auto_binds
FN:322,_RNvNtNtCs48r2xzLZq6T_7lb_quic13udp_dataplane5testss_29tokio_udp_roundtrip_via_trait
FN:306,_RNvNtNtCs48r2xzLZq6T_7lb_quic13udp_dataplane5testss_29xdp_returns_unavailable_in_v1
FN:296,_RNvNtNtCs48r2xzLZq6T_7lb_quic13udp_dataplane5testss_33iouring_returns_unavailable_in_v1
FN:211,_RNCNvMNtCs48r2xzLZq6T_7lb_quic13udp_dataplaneNtB4_8TokioUdp4bind0B6_
FN:164,_RNCNvNtCs48r2xzLZq6T_7lb_quic13udp_dataplane16select_dataplane0B5_
FN:266,_RNCNvXs_NtCs48r2xzLZq6T_7lb_quic13udp_dataplaneNtB6_8TokioUdpNtB6_12UdpDataplane7send_to0B8_
FN:234,_RNCNvXs_NtCs48r2xzLZq6T_7lb_quic13udp_dataplaneNtB6_8TokioUdpNtB6_12UdpDataplane9recv_loop0B8_
FN:129,_RNvYNtNtCs48r2xzLZq6T_7lb_quic13udp_dataplane8TokioUdpNtB4_12UdpDataplane11dcid_map_fdB6_
FN:198,_RNvMNtCs48r2xzLZq6T_7lb_quic13udp_dataplaneNtB2_8TokioUdp3new
FN:211,_RNvMNtCs48r2xzLZq6T_7lb_quic13udp_dataplaneNtB2_8TokioUdp4bind
FN:161,_RNvNtCs48r2xzLZq6T_7lb_quic13udp_dataplane16select_dataplane
FN:225,_RNvXs_NtCs48r2xzLZq6T_7lb_quic13udp_dataplaneNtB4_8TokioUdpNtB4_12UdpDataplane10local_addr
FN:261,_RNvXs_NtCs48r2xzLZq6T_7lb_quic13udp_dataplaneNtB4_8TokioUdpNtB4_12UdpDataplane7send_to
FN:229,_RNvXs_NtCs48r2xzLZq6T_7lb_quic13udp_dataplaneNtB4_8TokioUdpNtB4_12UdpDataplane9recv_loop
FN:274,_RNvXs_NtCs48r2xzLZq6T_7lb_quic13udp_dataplaneNtB4_8TokioUdpNtB4_12UdpDataplane9tier_name
FN:351,_RNCNCNCNvNtNtCs48r2xzLZq6T_7lb_quic13udp_dataplane5testss_29tokio_udp_roundtrip_via_trait000Bb_
FN:347,_RNCNCNvNtNtCs48r2xzLZq6T_7lb_quic13udp_dataplane5testss_29tokio_udp_roundtrip_via_trait00B9_
FN:360,_RNCNCNvNtNtCs48r2xzLZq6T_7lb_quic13udp_dataplane5testss_29tokio_udp_roundtrip_via_trait0s_0B9_
FN:285,_RNCNvNtNtCs48r2xzLZq6T_7lb_quic13udp_dataplane5testss_27tokio_udp_select_auto_binds0B7_
FN:322,_RNCNvNtNtCs48r2xzLZq6T_7lb_quic13udp_dataplane5testss_29tokio_udp_roundtrip_via_trait0B7_
FN:306,_RNCNvNtNtCs48r2xzLZq6T_7lb_quic13udp_dataplane5testss_29xdp_returns_unavailable_in_v10B7_
FN:296,_RNCNvNtNtCs48r2xzLZq6T_7lb_quic13udp_dataplane5testss_33iouring_returns_unavailable_in_v10B7_
FNDA:0,_RNCNvMNtCs7RDJCKiF9ex_7lb_quic13udp_dataplaneNtB4_8TokioUdp4bind0B6_
FNDA:0,_RNCNvNtCs7RDJCKiF9ex_7lb_quic13udp_dataplane16select_dataplane0B5_
FNDA:0,_RNvYpNtNtCs7RDJCKiF9ex_7lb_quic13udp_dataplane12UdpDataplane11dcid_map_fdB7_
FNDA:0,_RNvMNtCs7RDJCKiF9ex_7lb_quic13udp_dataplaneNtB2_8TokioUdp3new
FNDA:0,_RNvMNtCs7RDJCKiF9ex_7lb_quic13udp_dataplaneNtB2_8TokioUdp4bind
FNDA:0,_RNvMNtCs7RDJCKiF9ex_7lb_quic13udp_dataplaneNtB2_8TokioUdp6socket
FNDA:0,_RNvNtCs7RDJCKiF9ex_7lb_quic13udp_dataplane16select_dataplane
FNDA:0,_RNvXs_NtCs7RDJCKiF9ex_7lb_quic13udp_dataplaneNtB4_8TokioUdpNtB4_12UdpDataplane10local_addr
FNDA:0,_RNvXs_NtCs7RDJCKiF9ex_7lb_quic13udp_dataplaneNtB4_8TokioUdpNtB4_12UdpDataplane7send_to
FNDA:0,_RNvXs_NtCs7RDJCKiF9ex_7lb_quic13udp_dataplaneNtB4_8TokioUdpNtB4_12UdpDataplane9recv_loop
FNDA:0,_RNvXs_NtCs7RDJCKiF9ex_7lb_quic13udp_dataplaneNtB4_8TokioUdpNtB4_12UdpDataplane9tier_name
FNDA:0,_RNCNvXs_NtCs7RDJCKiF9ex_7lb_quic13udp_dataplaneNtB6_8TokioUdpNtB6_12UdpDataplane7send_to0B8_
FNDA:0,_RNCNvXs_NtCs7RDJCKiF9ex_7lb_quic13udp_dataplaneNtB6_8TokioUdpNtB6_12UdpDataplane9recv_loop0B8_
FNDA:0,_RNvMNtCs48r2xzLZq6T_7lb_quic13udp_dataplaneNtB2_8TokioUdp6socket
FNDA:1,_RNvNtNtCs48r2xzLZq6T_7lb_quic13udp_dataplane5testss_27tokio_udp_select_auto_binds
FNDA:1,_RNvNtNtCs48r2xzLZq6T_7lb_quic13udp_dataplane5testss_29tokio_udp_roundtrip_via_trait
FNDA:1,_RNvNtNtCs48r2xzLZq6T_7lb_quic13udp_dataplane5testss_29xdp_returns_unavailable_in_v1
FNDA:1,_RNvNtNtCs48r2xzLZq6T_7lb_quic13udp_dataplane5testss_33iouring_returns_unavailable_in_v1
FNDA:2,_RNCNvMNtCs48r2xzLZq6T_7lb_quic13udp_dataplaneNtB4_8TokioUdp4bind0B6_
FNDA:22,_RNCNvNtCs48r2xzLZq6T_7lb_quic13udp_dataplane16select_dataplane0B5_
FNDA:2,_RNCNvXs_NtCs48r2xzLZq6T_7lb_quic13udp_dataplaneNtB6_8TokioUdpNtB6_12UdpDataplane7send_to0B8_
FNDA:1,_RNCNvXs_NtCs48r2xzLZq6T_7lb_quic13udp_dataplaneNtB6_8TokioUdpNtB6_12UdpDataplane9recv_loop0B8_
FNDA:1,_RNvYNtNtCs48r2xzLZq6T_7lb_quic13udp_dataplane8TokioUdpNtB4_12UdpDataplane11dcid_map_fdB6_
FNDA:22,_RNvMNtCs48r2xzLZq6T_7lb_quic13udp_dataplaneNtB2_8TokioUdp3new
FNDA:2,_RNvMNtCs48r2xzLZq6T_7lb_quic13udp_dataplaneNtB2_8TokioUdp4bind
FNDA:22,_RNvNtCs48r2xzLZq6T_7lb_quic13udp_dataplane16select_dataplane
FNDA:3,_RNvXs_NtCs48r2xzLZq6T_7lb_quic13udp_dataplaneNtB4_8TokioUdpNtB4_12UdpDataplane10local_addr
FNDA:2,_RNvXs_NtCs48r2xzLZq6T_7lb_quic13udp_dataplaneNtB4_8TokioUdpNtB4_12UdpDataplane7send_to
FNDA:1,_RNvXs_NtCs48r2xzLZq6T_7lb_quic13udp_dataplaneNtB4_8TokioUdpNtB4_12UdpDataplane9recv_loop
FNDA:1,_RNvXs_NtCs48r2xzLZq6T_7lb_quic13udp_dataplaneNtB4_8TokioUdpNtB4_12UdpDataplane9tier_name
FNDA:1,_RNCNCNCNvNtNtCs48r2xzLZq6T_7lb_quic13udp_dataplane5testss_29tokio_udp_roundtrip_via_trait000Bb_
FNDA:1,_RNCNCNvNtNtCs48r2xzLZq6T_7lb_quic13udp_dataplane5testss_29tokio_udp_roundtrip_via_trait00B9_
FNDA:1,_RNCNCNvNtNtCs48r2xzLZq6T_7lb_quic13udp_dataplane5testss_29tokio_udp_roundtrip_via_trait0s_0B9_
FNDA:1,_RNCNvNtNtCs48r2xzLZq6T_7lb_quic13udp_dataplane5testss_27tokio_udp_select_auto_binds0B7_
FNDA:1,_RNCNvNtNtCs48r2xzLZq6T_7lb_quic13udp_dataplane5testss_29tokio_udp_roundtrip_via_trait0B7_
FNDA:1,_RNCNvNtNtCs48r2xzLZq6T_7lb_quic13udp_dataplane5testss_29xdp_returns_unavailable_in_v10B7_
FNDA:1,_RNCNvNtNtCs48r2xzLZq6T_7lb_quic13udp_dataplane5testss_33iouring_returns_unavailable_in_v10B7_
FNF:24
FNH:23
DA:129,1
DA:130,1
DA:131,1
DA:161,22
DA:162,22
DA:163,22
DA:164,22
DA:165,22
DA:167,20
DA:168,20
DA:169,20
DA:171,1
DA:172,1
DA:173,1
DA:174,1
DA:175,1
DA:176,1
DA:178,22
DA:198,22
DA:199,22
DA:200,22
DA:201,22
DA:202,22
DA:203,22
DA:204,22
DA:211,2
DA:212,2
DA:213,2
DA:214,2
DA:219,0
DA:220,0
DA:221,0
DA:225,3
DA:226,3
DA:227,3
DA:229,1
DA:230,1
DA:231,1
DA:232,1
DA:233,1
DA:234,1
DA:235,1
DA:236,1
DA:238,2
DA:240,2
DA:241,2
DA:242,1
DA:243,1
DA:244,1
DA:245,1
DA:246,1
DA:248,0
DA:252,0
DA:258,1
DA:259,1
DA:261,2
DA:262,2
DA:263,2
DA:264,2
DA:265,2
DA:266,2
DA:267,2
DA:268,2
DA:269,2
DA:270,2
DA:271,2
DA:272,2
DA:274,1
DA:275,1
DA:276,1
DA:285,1
DA:286,1
DA:287,1
DA:288,1
DA:289,1
DA:290,1
DA:291,1
DA:292,1
DA:293,1
DA:296,1
DA:297,1
DA:298,1
DA:299,1
DA:300,1
DA:301,1
DA:302,1
DA:303,1
DA:306,1
DA:307,1
DA:308,1
DA:309,1
DA:310,1
DA:311,1
DA:312,1
DA:313,1
DA:314,1
DA:315,1
DA:316,1
DA:317,1
DA:318,1
DA:319,1
DA:322,1
DA:327,1
DA:328,1
DA:329,1
DA:330,1
DA:331,1
DA:332,1
DA:333,1
DA:334,1
DA:335,1
DA:336,1
DA:337,1
DA:338,1
DA:339,1
DA:340,1
DA:342,1
DA:343,1
DA:344,1
DA:345,1
DA:347,1
DA:348,1
DA:349,1
DA:350,1
DA:351,1
DA:352,1
DA:353,1
DA:354,1
DA:355,1
DA:356,1
DA:358,1
DA:359,1
DA:360,1
DA:361,1
DA:362,1
DA:365,1
DA:366,1
DA:368,1
DA:369,1
DA:370,1
DA:371,1
DA:372,1
DA:373,1
DA:375,1
DA:376,1
DA:377,1
BRF:0
BRH:0
LF:165
LH:158
end_of_record
SF:/home/ubuntu/Code/ExpressGateway/.claude/worktrees/s36-verify/crates/lb-quic/src/ws_tunnel.rs
FN:241,_RNvMs_NtCs7RDJCKiF9ex_7lb_quic9ws_tunnelNtB4_10H3WsTunnel14drain_leftover
FN:220,_RNvMs_NtCs7RDJCKiF9ex_7lb_quic9ws_tunnelNtB4_10H3WsTunnel3new
FN:205,_RNvXNtCs7RDJCKiF9ex_7lb_quic9ws_tunnelNtB2_10H3WsTunnelNtNtCs1p5UDGgVI4d_4core3fmt5Debug3fmt
FN:256,_RNvXs0_NtCs7RDJCKiF9ex_7lb_quic9ws_tunnelNtB5_10H3WsTunnelNtNtCs1p5UDGgVI4d_4core7default7Default7default
FN:262,_RNvXs1_NtCs7RDJCKiF9ex_7lb_quic9ws_tunnelNtB5_10H3WsTunnelNtNtNtCsfJ9qyBeLJna_5tokio2io10async_read9AsyncRead9poll_read
FN:359,_RNvXs2_NtCs7RDJCKiF9ex_7lb_quic9ws_tunnelNtB5_10H3WsTunnelNtNtNtCsfJ9qyBeLJna_5tokio2io11async_write10AsyncWrite10poll_flush
FN:313,_RNvXs2_NtCs7RDJCKiF9ex_7lb_quic9ws_tunnelNtB5_10H3WsTunnelNtNtNtCsfJ9qyBeLJna_5tokio2io11async_write10AsyncWrite10poll_write
FN:365,_RNvXs2_NtCs7RDJCKiF9ex_7lb_quic9ws_tunnelNtB5_10H3WsTunnelNtNtNtCsfJ9qyBeLJna_5tokio2io11async_write10AsyncWrite13poll_shutdown
FN:205,_RNvXNtCs48r2xzLZq6T_7lb_quic9ws_tunnelNtB2_10H3WsTunnelNtNtCs1p5UDGgVI4d_4core3fmt5Debug3fmt
FN:256,_RNvXs0_NtCs48r2xzLZq6T_7lb_quic9ws_tunnelNtB5_10H3WsTunnelNtNtCs1p5UDGgVI4d_4core7default7Default7default
FN:359,_RNvXs2_NtCs48r2xzLZq6T_7lb_quic9ws_tunnelNtB5_10H3WsTunnelNtNtNtCsfJ9qyBeLJna_5tokio2io11async_write10AsyncWrite10poll_flush
FN:412,_RNvNtNtCs48r2xzLZq6T_7lb_quic9ws_tunnel5testss_27dropped_sender_is_clean_eof
FN:566,_RNvNtNtCs48r2xzLZq6T_7lb_quic9ws_tunnel5testss_27empty_data_chunk_is_not_eof
FN:443,_RNvNtNtCs48r2xzLZq6T_7lb_quic9ws_tunnel5testss_31data_then_reset_preserves_order
FN:462,_RNvNtNtCs48r2xzLZq6T_7lb_quic9ws_tunnel5testss_33write_arrives_on_endpoint_chunked
FN:428,_RNvNtNtCs48r2xzLZq6T_7lb_quic9ws_tunnel5testss_36reset_maps_to_connection_reset_error
FN:552,_RNvNtNtCs48r2xzLZq6T_7lb_quic9ws_tunnel5testss_37write_after_actor_gone_is_broken_pipe
FN:386,_RNvNtNtCs48r2xzLZq6T_7lb_quic9ws_tunnel5testss_43read_chunk_byte_identical_with_small_buffer
FN:489,_RNvNtNtCs48r2xzLZq6T_7lb_quic9ws_tunnel5testss_43write_parks_under_backpressure_then_resumes
FN:534,_RNvNtNtCs48r2xzLZq6T_7lb_quic9ws_tunnel5testss_50shutdown_closes_endpoint_and_blocks_further_writes
FN:467,_RNCNCNvNtNtCs48r2xzLZq6T_7lb_quic9ws_tunnel5testss_33write_arrives_on_endpoint_chunked00B9_
FN:558,_RNCNCNvNtNtCs48r2xzLZq6T_7lb_quic9ws_tunnel5testss_37write_after_actor_gone_is_broken_pipe00B9_
FN:496,_RNCNCNvNtNtCs48r2xzLZq6T_7lb_quic9ws_tunnel5testss_43write_parks_under_backpressure_then_resumes00B9_
FN:412,_RNCNvNtNtCs48r2xzLZq6T_7lb_quic9ws_tunnel5testss_27dropped_sender_is_clean_eof0B7_
FN:566,_RNCNvNtNtCs48r2xzLZq6T_7lb_quic9ws_tunnel5testss_27empty_data_chunk_is_not_eof0B7_
FN:443,_RNCNvNtNtCs48r2xzLZq6T_7lb_quic9ws_tunnel5testss_31data_then_reset_preserves_order0B7_
FN:462,_RNCNvNtNtCs48r2xzLZq6T_7lb_quic9ws_tunnel5testss_33write_arrives_on_endpoint_chunked0B7_
FN:428,_RNCNvNtNtCs48r2xzLZq6T_7lb_quic9ws_tunnel5testss_36reset_maps_to_connection_reset_error0B7_
FN:552,_RNCNvNtNtCs48r2xzLZq6T_7lb_quic9ws_tunnel5testss_37write_after_actor_gone_is_broken_pipe0B7_
FN:386,_RNCNvNtNtCs48r2xzLZq6T_7lb_quic9ws_tunnel5testss_43read_chunk_byte_identical_with_small_buffer0B7_
FN:489,_RNCNvNtNtCs48r2xzLZq6T_7lb_quic9ws_tunnel5testss_43write_parks_under_backpressure_then_resumes0B7_
FN:534,_RNCNvNtNtCs48r2xzLZq6T_7lb_quic9ws_tunnel5testss_50shutdown_closes_endpoint_and_blocks_further_writes0B7_
FN:241,_RNvMs_NtCs48r2xzLZq6T_7lb_quic9ws_tunnelNtB4_10H3WsTunnel14drain_leftover
FN:220,_RNvMs_NtCs48r2xzLZq6T_7lb_quic9ws_tunnelNtB4_10H3WsTunnel3new
FN:262,_RNvXs1_NtCs48r2xzLZq6T_7lb_quic9ws_tunnelNtB5_10H3WsTunnelNtNtNtCsfJ9qyBeLJna_5tokio2io10async_read9AsyncRead9poll_read
FN:313,_RNvXs2_NtCs48r2xzLZq6T_7lb_quic9ws_tunnelNtB5_10H3WsTunnelNtNtNtCsfJ9qyBeLJna_5tokio2io11async_write10AsyncWrite10poll_write
FN:365,_RNvXs2_NtCs48r2xzLZq6T_7lb_quic9ws_tunnelNtB5_10H3WsTunnelNtNtNtCsfJ9qyBeLJna_5tokio2io11async_write10AsyncWrite13poll_shutdown
FNDA:0,_RNvMs_NtCs7RDJCKiF9ex_7lb_quic9ws_tunnelNtB4_10H3WsTunnel14drain_leftover
FNDA:0,_RNvMs_NtCs7RDJCKiF9ex_7lb_quic9ws_tunnelNtB4_10H3WsTunnel3new
FNDA:0,_RNvXNtCs7RDJCKiF9ex_7lb_quic9ws_tunnelNtB2_10H3WsTunnelNtNtCs1p5UDGgVI4d_4core3fmt5Debug3fmt
FNDA:0,_RNvXs0_NtCs7RDJCKiF9ex_7lb_quic9ws_tunnelNtB5_10H3WsTunnelNtNtCs1p5UDGgVI4d_4core7default7Default7default
FNDA:0,_RNvXs1_NtCs7RDJCKiF9ex_7lb_quic9ws_tunnelNtB5_10H3WsTunnelNtNtNtCsfJ9qyBeLJna_5tokio2io10async_read9AsyncRead9poll_read
FNDA:0,_RNvXs2_NtCs7RDJCKiF9ex_7lb_quic9ws_tunnelNtB5_10H3WsTunnelNtNtNtCsfJ9qyBeLJna_5tokio2io11async_write10AsyncWrite10poll_flush
FNDA:0,_RNvXs2_NtCs7RDJCKiF9ex_7lb_quic9ws_tunnelNtB5_10H3WsTunnelNtNtNtCsfJ9qyBeLJna_5tokio2io11async_write10AsyncWrite10poll_write
FNDA:0,_RNvXs2_NtCs7RDJCKiF9ex_7lb_quic9ws_tunnelNtB5_10H3WsTunnelNtNtNtCsfJ9qyBeLJna_5tokio2io11async_write10AsyncWrite13poll_shutdown
FNDA:0,_RNvXNtCs48r2xzLZq6T_7lb_quic9ws_tunnelNtB2_10H3WsTunnelNtNtCs1p5UDGgVI4d_4core3fmt5Debug3fmt
FNDA:0,_RNvXs0_NtCs48r2xzLZq6T_7lb_quic9ws_tunnelNtB5_10H3WsTunnelNtNtCs1p5UDGgVI4d_4core7default7Default7default
FNDA:0,_RNvXs2_NtCs48r2xzLZq6T_7lb_quic9ws_tunnelNtB5_10H3WsTunnelNtNtNtCsfJ9qyBeLJna_5tokio2io11async_write10AsyncWrite10poll_flush
FNDA:1,_RNvNtNtCs48r2xzLZq6T_7lb_quic9ws_tunnel5testss_27dropped_sender_is_clean_eof
FNDA:1,_RNvNtNtCs48r2xzLZq6T_7lb_quic9ws_tunnel5testss_27empty_data_chunk_is_not_eof
FNDA:1,_RNvNtNtCs48r2xzLZq6T_7lb_quic9ws_tunnel5testss_31data_then_reset_preserves_order
FNDA:1,_RNvNtNtCs48r2xzLZq6T_7lb_quic9ws_tunnel5testss_33write_arrives_on_endpoint_chunked
FNDA:1,_RNvNtNtCs48r2xzLZq6T_7lb_quic9ws_tunnel5testss_36reset_maps_to_connection_reset_error
FNDA:1,_RNvNtNtCs48r2xzLZq6T_7lb_quic9ws_tunnel5testss_37write_after_actor_gone_is_broken_pipe
FNDA:1,_RNvNtNtCs48r2xzLZq6T_7lb_quic9ws_tunnel5testss_43read_chunk_byte_identical_with_small_buffer
FNDA:1,_RNvNtNtCs48r2xzLZq6T_7lb_quic9ws_tunnel5testss_43write_parks_under_backpressure_then_resumes
FNDA:1,_RNvNtNtCs48r2xzLZq6T_7lb_quic9ws_tunnel5testss_50shutdown_closes_endpoint_and_blocks_further_writes
FNDA:1,_RNCNCNvNtNtCs48r2xzLZq6T_7lb_quic9ws_tunnel5testss_33write_arrives_on_endpoint_chunked00B9_
FNDA:1,_RNCNCNvNtNtCs48r2xzLZq6T_7lb_quic9ws_tunnel5testss_37write_after_actor_gone_is_broken_pipe00B9_
FNDA:1,_RNCNCNvNtNtCs48r2xzLZq6T_7lb_quic9ws_tunnel5testss_43write_parks_under_backpressure_then_resumes00B9_
FNDA:1,_RNCNvNtNtCs48r2xzLZq6T_7lb_quic9ws_tunnel5testss_27dropped_sender_is_clean_eof0B7_
FNDA:1,_RNCNvNtNtCs48r2xzLZq6T_7lb_quic9ws_tunnel5testss_27empty_data_chunk_is_not_eof0B7_
FNDA:1,_RNCNvNtNtCs48r2xzLZq6T_7lb_quic9ws_tunnel5testss_31data_then_reset_preserves_order0B7_
FNDA:1,_RNCNvNtNtCs48r2xzLZq6T_7lb_quic9ws_tunnel5testss_33write_arrives_on_endpoint_chunked0B7_
FNDA:1,_RNCNvNtNtCs48r2xzLZq6T_7lb_quic9ws_tunnel5testss_36reset_maps_to_connection_reset_error0B7_
FNDA:1,_RNCNvNtNtCs48r2xzLZq6T_7lb_quic9ws_tunnel5testss_37write_after_actor_gone_is_broken_pipe0B7_
FNDA:1,_RNCNvNtNtCs48r2xzLZq6T_7lb_quic9ws_tunnel5testss_43read_chunk_byte_identical_with_small_buffer0B7_
FNDA:1,_RNCNvNtNtCs48r2xzLZq6T_7lb_quic9ws_tunnel5testss_43write_parks_under_backpressure_then_resumes0B7_
FNDA:1,_RNCNvNtNtCs48r2xzLZq6T_7lb_quic9ws_tunnel5testss_50shutdown_closes_endpoint_and_blocks_further_writes0B7_
FNDA:16,_RNvMs_NtCs48r2xzLZq6T_7lb_quic9ws_tunnelNtB4_10H3WsTunnel14drain_leftover
FNDA:9,_RNvMs_NtCs48r2xzLZq6T_7lb_quic9ws_tunnelNtB4_10H3WsTunnel3new
FNDA:13,_RNvXs1_NtCs48r2xzLZq6T_7lb_quic9ws_tunnelNtB5_10H3WsTunnelNtNtNtCsfJ9qyBeLJna_5tokio2io10async_read9AsyncRead9poll_read
FNDA:18,_RNvXs2_NtCs48r2xzLZq6T_7lb_quic9ws_tunnelNtB5_10H3WsTunnelNtNtNtCsfJ9qyBeLJna_5tokio2io11async_write10AsyncWrite10poll_write
FNDA:3,_RNvXs2_NtCs48r2xzLZq6T_7lb_quic9ws_tunnelNtB5_10H3WsTunnelNtNtNtCsfJ9qyBeLJna_5tokio2io11async_write10AsyncWrite13poll_shutdown
FNF:29
FNH:26
DA:205,0
DA:206,0
DA:207,0
DA:208,0
DA:209,0
DA:210,0
DA:211,0
DA:220,9
DA:222,9
DA:224,9
DA:225,9
DA:226,9
DA:227,9
DA:228,9
DA:229,9
DA:230,9
DA:231,9
DA:232,9
DA:233,9
DA:234,9
DA:235,9
DA:236,9
DA:237,9
DA:241,16
DA:242,16
DA:243,10
DA:244,6
DA:245,6
DA:249,6
DA:250,6
DA:251,6
DA:252,16
DA:256,0
DA:257,0
DA:258,0
DA:262,13
DA:263,13
DA:264,13
DA:265,13
DA:266,13
DA:268,13
DA:269,1
DA:270,12
DA:272,12
DA:273,3
DA:274,9
DA:276,9
DA:277,4
DA:278,4
DA:285,4
DA:286,3
DA:291,1
DA:292,1
DA:296,2
DA:297,2
DA:298,2
DA:299,2
DA:300,2
DA:304,3
DA:305,3
DA:307,0
DA:309,13
DA:313,18
DA:314,18
DA:315,18
DA:316,18
DA:317,18
DA:318,18
DA:319,1
DA:320,1
DA:321,1
DA:322,1
DA:323,17
DA:324,17
DA:325,0
DA:326,17
DA:331,17
DA:333,15
DA:334,15
DA:335,15
DA:336,15
DA:340,0
DA:341,0
DA:342,0
DA:343,0
DA:344,0
DA:349,1
DA:350,1
DA:351,1
DA:352,1
DA:353,1
DA:355,1
DA:357,18
DA:359,0
DA:362,0
DA:363,0
DA:365,3
DA:368,3
DA:369,3
DA:370,3
DA:371,3
DA:386,1
DA:387,1
DA:388,1
DA:389,1
DA:390,1
DA:391,1
DA:392,1
DA:393,1
DA:395,1
DA:398,1
DA:399,1
DA:400,5
DA:401,5
DA:402,1
DA:403,4
DA:404,4
DA:405,1
DA:406,1
DA:407,1
DA:412,1
DA:413,1
DA:414,1
DA:415,1
DA:416,1
DA:418,1
DA:419,1
DA:420,1
DA:421,1
DA:422,1
DA:423,1
DA:428,1
DA:429,1
DA:430,1
DA:431,1
DA:432,1
DA:433,1
DA:434,1
DA:435,1
DA:436,1
DA:437,1
DA:443,1
DA:444,1
DA:445,1
DA:446,1
DA:447,1
DA:448,1
DA:449,1
DA:450,1
DA:451,1
DA:452,1
DA:453,1
DA:454,1
DA:455,1
DA:462,1
DA:463,1
DA:465,1
DA:467,1
DA:468,1
DA:469,3
DA:470,2
DA:471,2
DA:472,0
DA:474,2
DA:476,1
DA:477,1
DA:478,1
DA:479,1
DA:480,1
DA:481,1
DA:482,1
DA:489,1
DA:490,1
DA:493,1
DA:494,1
DA:496,1
DA:497,1
DA:498,12
DA:500,1
DA:501,1
DA:502,1
DA:507,1
DA:508,1
DA:509,1
DA:510,0
DA:515,1
DA:516,13
DA:517,12
DA:518,12
DA:519,1
DA:520,1
DA:521,1
DA:522,1
DA:523,1
DA:524,1
DA:525,1
DA:526,1
DA:527,1
DA:528,1
DA:534,1
DA:535,1
DA:536,1
DA:537,1
DA:539,1
DA:540,1
DA:541,1
DA:542,0
DA:544,1
DA:545,1
DA:546,1
DA:552,1
DA:553,1
DA:554,1
DA:556,1
DA:557,1
DA:558,1
DA:559,1
DA:560,1
DA:561,1
DA:566,1
DA:567,1
DA:568,1
DA:569,1
DA:570,1
DA:571,1
DA:572,1
DA:573,1
DA:574,1
DA:575,1
DA:576,1
DA:577,1
DA:578,1
DA:579,1
DA:580,2
DA:581,2
DA:582,1
DA:583,1
DA:584,1
DA:585,1
DA:586,1
DA:587,1
DA:588,1
DA:589,1
DA:590,1
BRF:0
BRH:0
LF:282
LH:255
end_of_record