SF:/home/ubuntu/Code/ExpressGateway/.claude/worktrees/s37-verify/crates/lb-config/src/lib.rs
FN:480,_RNvXs0_CsesgXpVFBluZ_9lb_configNtB5_21RuntimeWatchdogConfigNtNtCs1p5UDGgVI4d_4core7default7Default7default
FN:1303,_RNvCsesgXpVFBluZ_9lb_config12parse_config
FN:1294,_RNvCsesgXpVFBluZ_9lb_config14default_weight
FN:1313,_RNvCsesgXpVFBluZ_9lb_config15validate_config
FN:1372,_RNvCsesgXpVFBluZ_9lb_config16validate_runtime
FN:1527,_RNvCsesgXpVFBluZ_9lb_config17validate_listener
FN:584,_RNvCsesgXpVFBluZ_9lb_config18default_per_ip_cap
FN:830,_RNvCsesgXpVFBluZ_9lb_config18default_ws_enabled
FN:1629,_RNvCsesgXpVFBluZ_9lb_config19validate_grpc_block
FN:736,_RNvCsesgXpVFBluZ_9lb_config20default_grpc_enabled
FN:1911,_RNvCsesgXpVFBluZ_9lb_config20validate_passthrough
FN:1721,_RNvCsesgXpVFBluZ_9lb_config21validate_backend_list
FN:1805,_RNvCsesgXpVFBluZ_9lb_config21validate_h1s_listener
FN:1776,_RNvCsesgXpVFBluZ_9lb_config21validate_tls_listener
FN:991,_RNvCsesgXpVFBluZ_9lb_config22default_ticket_overlap
FN:1695,_RNvCsesgXpVFBluZ_9lb_config22validate_http_timeouts
FN:1355,_RNvCsesgXpVFBluZ_9lb_config22validate_observability
FN:1821,_RNvCsesgXpVFBluZ_9lb_config22validate_quic_listener
FN:909,_RNvCsesgXpVFBluZ_9lb_config23default_alt_svc_max_age
FN:951,_RNvCsesgXpVFBluZ_9lb_config23default_body_timeout_ms
FN:959,_RNvCsesgXpVFBluZ_9lb_config23default_head_timeout_ms
FN:987,_RNvCsesgXpVFBluZ_9lb_config23default_ticket_interval
FN:834,_RNvCsesgXpVFBluZ_9lb_config23default_ws_idle_timeout
FN:1745,_RNvCsesgXpVFBluZ_9lb_config23validate_backend_h3_tls
FN:1290,_RNvCsesgXpVFBluZ_9lb_config24default_backend_protocol
FN:532,_RNvCsesgXpVFBluZ_9lb_config24default_drain_timeout_ms
FN:955,_RNvCsesgXpVFBluZ_9lb_config24default_total_timeout_ms
FN:1286,_RNvCsesgXpVFBluZ_9lb_config24default_verify_peer_true
FN:1650,_RNvCsesgXpVFBluZ_9lb_config24validate_websocket_block
FN:740,_RNvCsesgXpVFBluZ_9lb_config25default_grpc_max_deadline
FN:947,_RNvCsesgXpVFBluZ_9lb_config25default_header_timeout_ms
FN:576,_RNvCsesgXpVFBluZ_9lb_config26default_connect_timeout_ms
FN:552,_RNvCsesgXpVFBluZ_9lb_config27default_readiness_settle_ms
FN:838,_RNvCsesgXpVFBluZ_9lb_config27default_ws_max_message_size
FN:561,_RNvCsesgXpVFBluZ_9lb_config28default_handshake_timeout_ms
FN:1040,_RNvCsesgXpVFBluZ_9lb_config28default_quic_idle_timeout_ms
FN:1044,_RNvCsesgXpVFBluZ_9lb_config29default_quic_recv_udp_payload
FN:372,_RNvCsesgXpVFBluZ_9lb_config30default_max_keepalive_requests
FN:1231,_RNvCsesgXpVFBluZ_9lb_config30default_passthrough_mint_retry
FN:744,_RNvCsesgXpVFBluZ_9lb_config31default_grpc_health_synthesized
FN:568,_RNvCsesgXpVFBluZ_9lb_config32default_max_inflight_connections
FN:1105,_RNvCsesgXpVFBluZ_9lb_config33default_raw_proxy_dgram_queue_cap
FN:503,_RNvCsesgXpVFBluZ_9lb_config34default_watchdog_sweep_interval_ms
FN:1111,_RNvCsesgXpVFBluZ_9lb_config35default_raw_proxy_max_relay_streams
FN:491,_RNvCsesgXpVFBluZ_9lb_config35default_watchdog_header_deadline_ms
FN:1210,_RNvCsesgXpVFBluZ_9lb_config36default_passthrough_per_flow_backlog
FN:842,_RNvCsesgXpVFBluZ_9lb_config37default_ws_ping_rate_limit_per_window
FN:850,_RNvCsesgXpVFBluZ_9lb_config37default_ws_read_frame_timeout_seconds
FN:383,_RNvCsesgXpVFBluZ_9lb_config38default_max_requests_per_h3_connection
FN:497,_RNvCsesgXpVFBluZ_9lb_config38default_watchdog_body_progress_min_bps
FN:1223,_RNvCsesgXpVFBluZ_9lb_config39default_passthrough_max_dcid_len_routed
FN:1203,_RNvCsesgXpVFBluZ_9lb_config39default_passthrough_min_client_dcid_len
FN:1238,_RNvCsesgXpVFBluZ_9lb_config40default_passthrough_flow_idle_timeout_ms
FN:1197,_RNvCsesgXpVFBluZ_9lb_config40default_passthrough_max_quic_connections
FN:366,_RNvCsesgXpVFBluZ_9lb_config40default_xdp_new_flow_cap_per_sec_per_cpu
FN:846,_RNvCsesgXpVFBluZ_9lb_config41default_ws_ping_rate_limit_window_seconds
FN:1217,_RNvCsesgXpVFBluZ_9lb_config46default_passthrough_audit_throttle_window_secs
FN:393,_RNvMCsesgXpVFBluZ_9lb_configNtB2_13RuntimeConfig25effective_drain_jitter_ms
FN:421,_RNvMs_CsesgXpVFBluZ_9lb_configNtB4_14ListenerConfig25effective_drain_jitter_ms
FN:408,_RNvMs_CsesgXpVFBluZ_9lb_configNtB4_14ListenerConfig26effective_drain_timeout_ms
FN:727,_RNvXs1_CsesgXpVFBluZ_9lb_configNtB5_18GrpcListenerConfigNtNtCs1p5UDGgVI4d_4core7default7Default7default
FN:814,_RNvXs2_CsesgXpVFBluZ_9lb_configNtB5_15WebsocketConfigNtNtCs1p5UDGgVI4d_4core7default7Default7default
FN:937,_RNvXs3_CsesgXpVFBluZ_9lb_configNtB5_18HttpTimeoutsConfigNtNtCs1p5UDGgVI4d_4core7default7Default7default
FN:3690,_RNCNvNtCsesgXpVFBluZ_9lb_config5testss_42shipped_example_configs_parse_and_validate0B5_
FN:3252,_RNvNtCsesgXpVFBluZ_9lb_config5tests12base_runtime
FN:3273,_RNvNtCsesgXpVFBluZ_9lb_config5tests12min_listener
FN:3649,_RNvNtCsesgXpVFBluZ_9lb_config5tests15repo_config_dir
FN:3662,_RNvNtCsesgXpVFBluZ_9lb_config5tests21assert_config_file_ok
FN:3424,_RNvNtCsesgXpVFBluZ_9lb_config5tests6pt_min
FN:2069,_RNvNtCsesgXpVFBluZ_9lb_config5testss_11validate_ok
FN:1966,_RNvNtCsesgXpVFBluZ_9lb_config5testss_16parse_valid_toml
FN:1979,_RNvNtCsesgXpVFBluZ_9lb_config5testss_18parse_invalid_toml
FN:2150,_RNvNtCsesgXpVFBluZ_9lb_config5testss_18parse_tls_listener
FN:2474,_RNvNtCsesgXpVFBluZ_9lb_config5testss_19parse_quic_listener
FN:2043,_RNvNtCsesgXpVFBluZ_9lb_config5testss_22validate_empty_address
FN:2030,_RNvNtCsesgXpVFBluZ_9lb_config5testss_24validate_empty_listeners
FN:2922,_RNvNtCsesgXpVFBluZ_9lb_config5testss_25parse_runtime_xdp_enabled
FN:2132,_RNvNtCsesgXpVFBluZ_9lb_config5testss_26parse_config_with_backends
FN:3199,_RNvNtCsesgXpVFBluZ_9lb_config5testss_28parse_h1s_listener_with_grpc
FN:2313,_RNvNtCsesgXpVFBluZ_9lb_config5testss_28unknown_runtime_key_rejected
FN:2340,_RNvNtCsesgXpVFBluZ_9lb_config5testss_29unknown_listener_key_rejected
FN:2292,_RNvNtCsesgXpVFBluZ_9lb_config5testss_30unknown_top_level_key_rejected
FN:2099,_RNvNtCsesgXpVFBluZ_9lb_config5testss_30validate_empty_backend_address
FN:2843,_RNvNtCsesgXpVFBluZ_9lb_config5testss_30validate_h1s_with_tls_block_ok
FN:3583,_RNvNtCsesgXpVFBluZ_9lb_config5testss_32h3_request_cap_in_range_is_valid
FN:3061,_RNvNtCsesgXpVFBluZ_9lb_config5testss_32parse_h1_listener_with_websocket
FN:3042,_RNvNtCsesgXpVFBluZ_9lb_config5testss_32parse_observability_metrics_bind
FN:3441,_RNvNtCsesgXpVFBluZ_9lb_config5testss_32passthrough_only_config_is_valid
FN:2525,_RNvNtCsesgXpVFBluZ_9lb_config5testss_32validate_quic_small_mtu_rejected
FN:2355,_RNvNtCsesgXpVFBluZ_9lb_config5testss_33unknown_nested_block_key_rejected
FN:3616,_RNvNtCsesgXpVFBluZ_9lb_config5testss_34keepalive_requests_range_validated
FN:3500,_RNvNtCsesgXpVFBluZ_9lb_config5testss_34parse_passthrough_block_round_trip
FN:2199,_RNvNtCsesgXpVFBluZ_9lb_config5testss_34validate_unknown_protocol_rejected
FN:3458,_RNvNtCsesgXpVFBluZ_9lb_config5testss_35passthrough_empty_backends_rejected
FN:2810,_RNvNtCsesgXpVFBluZ_9lb_config5testss_35validate_h1_with_tls_block_rejected
FN:2173,_RNvNtCsesgXpVFBluZ_9lb_config5testss_35validate_tls_without_block_rejected
FN:2884,_RNvNtCsesgXpVFBluZ_9lb_config5testss_35validate_zero_http_timeout_rejected
FN:3549,_RNvNtCsesgXpVFBluZ_9lb_config5testss_36h3_request_cap_explicit_value_parses
FN:1989,_RNvNtCsesgXpVFBluZ_9lb_config5testss_36raw_proxy_minimal_toml_defaults_caps
FN:2499,_RNvNtCsesgXpVFBluZ_9lb_config5testss_36validate_quic_without_block_rejected
FN:3599,_RNvNtCsesgXpVFBluZ_9lb_config5testss_37h3_request_cap_above_ceiling_rejected
FN:3569,_RNvNtCsesgXpVFBluZ_9lb_config5testss_37h3_request_cap_zero_is_valid_disabled
FN:2443,_RNvNtCsesgXpVFBluZ_9lb_config5testss_37validate_tls_empty_cert_path_rejected
FN:3142,_RNvNtCsesgXpVFBluZ_9lb_config5testss_38validate_websocket_on_quic_listener_ok
FN:2776,_RNvNtCsesgXpVFBluZ_9lb_config5testss_39validate_h1s_without_tls_block_rejected
FN:3491,_RNvNtCsesgXpVFBluZ_9lb_config5testss_40passthrough_defaults_match_owner_rulings
FN:3395,_RNvNtCsesgXpVFBluZ_9lb_config5testss_40validate_observability_bad_bind_rejected
FN:3315,_RNvNtCsesgXpVFBluZ_9lb_config5testss_41ops02_jitter_default_is_quarter_of_budget
FN:3332,_RNvNtCsesgXpVFBluZ_9lb_config5testss_41ops10_per_listener_timeout_range_rejected
FN:3090,_RNvNtCsesgXpVFBluZ_9lb_config5testss_42parse_websocket_h2_extended_connect_opt_in
FN:3171,_RNvNtCsesgXpVFBluZ_9lb_config5testss_42parse_websocket_h3_extended_connect_opt_in
FN:3683,_RNvNtCsesgXpVFBluZ_9lb_config5testss_42shipped_example_configs_parse_and_validate
FN:2714,_RNvNtCsesgXpVFBluZ_9lb_config5testss_42validate_backend_unknown_protocol_rejected
FN:3225,_RNvNtCsesgXpVFBluZ_9lb_config5testss_42validate_grpc_on_non_h1s_listener_rejected
FN:3525,_RNvNtCsesgXpVFBluZ_9lb_config5testss_43h3_request_cap_defaults_to_1000_when_absent
FN:2747,_RNvNtCsesgXpVFBluZ_9lb_config5testss_43parse_h1_listener_with_alt_svc_and_timeouts
FN:3678,_RNvNtCsesgXpVFBluZ_9lb_config5testss_43shipped_default_config_parses_and_validates
FN:3298,_RNvNtCsesgXpVFBluZ_9lb_config5testss_44ops10_override_takes_precedence_over_runtime
FN:2232,_RNvNtCsesgXpVFBluZ_9lb_config5testss_44validate_unserved_listener_protocol_rejected
FN:2562,_RNvNtCsesgXpVFBluZ_9lb_config5testss_45validate_quic_h3_terminate_with_h1_backend_ok
FN:3369,_RNvNtCsesgXpVFBluZ_9lb_config5testss_46ops02_gateway_jitter_exceeding_budget_rejected
FN:3030,_RNvNtCsesgXpVFBluZ_9lb_config5testss_46runtime_absent_keeps_parse_backward_compatible
FN:2943,_RNvNtCsesgXpVFBluZ_9lb_config5testss_46runtime_xdp_enabled_without_interface_rejected
FN:2607,_RNvNtCsesgXpVFBluZ_9lb_config5testss_46validate_quic_raw_proxy_with_backends_rejected
FN:2987,_RNvNtCsesgXpVFBluZ_9lb_config5testss_47runtime_xdp_disabled_does_not_require_interface
FN:3473,_RNvNtCsesgXpVFBluZ_9lb_config5testss_48passthrough_min_client_dcid_below_floor_rejected
FN:2412,_RNvNtCsesgXpVFBluZ_9lb_config5testss_48validate_tls_block_without_tls_protocol_rejected
FN:3113,_RNvNtCsesgXpVFBluZ_9lb_config5testss_48validate_websocket_on_non_http_listener_rejected
FN:3387,_RNvNtCsesgXpVFBluZ_9lb_config5testss_49ops11_readiness_settle_default_is_kubelet_aligned
FN:2375,_RNvNtCsesgXpVFBluZ_9lb_config5testss_51valid_config_still_parses_under_deny_unknown_fields
FN:3347,_RNvNtCsesgXpVFBluZ_9lb_config5testss_57ops02_listener_jitter_exceeding_inherited_budget_rejected
FN:2660,_RNvNtCsesgXpVFBluZ_9lb_config5testss_58validate_quic_h3_terminate_mixed_backend_families_rejected
FN:2256,_RNvNtCsesgXpVFBluZ_9lb_config5testss_58validate_served_listener_protocols_named_in_unserved_error
FN:424,_RNCNCNvMs_CsesgXpVFBluZ_9lb_configNtB8_14ListenerConfig25effective_drain_jitter_ms00B8_
FN:1378,_RNCNvCsesgXpVFBluZ_9lb_config16validate_runtime0B3_
FN:1777,_RNCNvCsesgXpVFBluZ_9lb_config21validate_tls_listener0B3_
FN:1363,_RNCNvCsesgXpVFBluZ_9lb_config22validate_observability0B3_
FN:1822,_RNCNvCsesgXpVFBluZ_9lb_config22validate_quic_listener0B3_
FN:422,_RNCNvMs_CsesgXpVFBluZ_9lb_configNtB6_14ListenerConfig25effective_drain_jitter_ms0B6_
FN:409,_RNCNvMs_CsesgXpVFBluZ_9lb_configNtB6_14ListenerConfig26effective_drain_timeout_ms0B6_
FNDA:0,_RNvXs0_CsesgXpVFBluZ_9lb_configNtB5_21RuntimeWatchdogConfigNtNtCs1p5UDGgVI4d_4core7default7Default7default
FNDA:36,_RNvCsesgXpVFBluZ_9lb_config12parse_config
FNDA:17,_RNvCsesgXpVFBluZ_9lb_config14default_weight
FNDA:57,_RNvCsesgXpVFBluZ_9lb_config15validate_config
FNDA:20,_RNvCsesgXpVFBluZ_9lb_config16validate_runtime
FNDA:52,_RNvCsesgXpVFBluZ_9lb_config17validate_listener
FNDA:3,_RNvCsesgXpVFBluZ_9lb_config18default_per_ip_cap
FNDA:5,_RNvCsesgXpVFBluZ_9lb_config18default_ws_enabled
FNDA:36,_RNvCsesgXpVFBluZ_9lb_config19validate_grpc_block
FNDA:2,_RNvCsesgXpVFBluZ_9lb_config20default_grpc_enabled
FNDA:5,_RNvCsesgXpVFBluZ_9lb_config20validate_passthrough
FNDA:34,_RNvCsesgXpVFBluZ_9lb_config21validate_backend_list
FNDA:6,_RNvCsesgXpVFBluZ_9lb_config21validate_h1s_listener
FNDA:9,_RNvCsesgXpVFBluZ_9lb_config21validate_tls_listener
FNDA:6,_RNvCsesgXpVFBluZ_9lb_config22default_ticket_overlap
FNDA:35,_RNvCsesgXpVFBluZ_9lb_config22validate_http_timeouts
FNDA:2,_RNvCsesgXpVFBluZ_9lb_config22validate_observability
FNDA:10,_RNvCsesgXpVFBluZ_9lb_config22validate_quic_listener
FNDA:1,_RNvCsesgXpVFBluZ_9lb_config23default_alt_svc_max_age
FNDA:2,_RNvCsesgXpVFBluZ_9lb_config23default_body_timeout_ms
FNDA:2,_RNvCsesgXpVFBluZ_9lb_config23default_head_timeout_ms
FNDA:6,_RNvCsesgXpVFBluZ_9lb_config23default_ticket_interval
FNDA:4,_RNvCsesgXpVFBluZ_9lb_config23default_ws_idle_timeout
FNDA:26,_RNvCsesgXpVFBluZ_9lb_config23validate_backend_h3_tls
FNDA:24,_RNvCsesgXpVFBluZ_9lb_config24default_backend_protocol
FNDA:48,_RNvCsesgXpVFBluZ_9lb_config24default_drain_timeout_ms
FNDA:2,_RNvCsesgXpVFBluZ_9lb_config24default_total_timeout_ms
FNDA:29,_RNvCsesgXpVFBluZ_9lb_config24default_verify_peer_true
FNDA:37,_RNvCsesgXpVFBluZ_9lb_config24validate_websocket_block
FNDA:1,_RNvCsesgXpVFBluZ_9lb_config25default_grpc_max_deadline
FNDA:1,_RNvCsesgXpVFBluZ_9lb_config25default_header_timeout_ms
FNDA:3,_RNvCsesgXpVFBluZ_9lb_config26default_connect_timeout_ms
FNDA:5,_RNvCsesgXpVFBluZ_9lb_config27default_readiness_settle_ms
FNDA:4,_RNvCsesgXpVFBluZ_9lb_config27default_ws_max_message_size
FNDA:3,_RNvCsesgXpVFBluZ_9lb_config28default_handshake_timeout_ms
FNDA:6,_RNvCsesgXpVFBluZ_9lb_config28default_quic_idle_timeout_ms
FNDA:6,_RNvCsesgXpVFBluZ_9lb_config29default_quic_recv_udp_payload
FNDA:3,_RNvCsesgXpVFBluZ_9lb_config30default_max_keepalive_requests
FNDA:5,_RNvCsesgXpVFBluZ_9lb_config30default_passthrough_mint_retry
FNDA:1,_RNvCsesgXpVFBluZ_9lb_config31default_grpc_health_synthesized
FNDA:3,_RNvCsesgXpVFBluZ_9lb_config32default_max_inflight_connections
FNDA:3,_RNvCsesgXpVFBluZ_9lb_config33default_raw_proxy_dgram_queue_cap
FNDA:0,_RNvCsesgXpVFBluZ_9lb_config34default_watchdog_sweep_interval_ms
FNDA:3,_RNvCsesgXpVFBluZ_9lb_config35default_raw_proxy_max_relay_streams
FNDA:0,_RNvCsesgXpVFBluZ_9lb_config35default_watchdog_header_deadline_ms
FNDA:6,_RNvCsesgXpVFBluZ_9lb_config36default_passthrough_per_flow_backlog
FNDA:6,_RNvCsesgXpVFBluZ_9lb_config37default_ws_ping_rate_limit_per_window
FNDA:5,_RNvCsesgXpVFBluZ_9lb_config37default_ws_read_frame_timeout_seconds
FNDA:2,_RNvCsesgXpVFBluZ_9lb_config38default_max_requests_per_h3_connection
FNDA:0,_RNvCsesgXpVFBluZ_9lb_config38default_watchdog_body_progress_min_bps
FNDA:6,_RNvCsesgXpVFBluZ_9lb_config39default_passthrough_max_dcid_len_routed
FNDA:6,_RNvCsesgXpVFBluZ_9lb_config39default_passthrough_min_client_dcid_len
FNDA:5,_RNvCsesgXpVFBluZ_9lb_config40default_passthrough_flow_idle_timeout_ms
FNDA:6,_RNvCsesgXpVFBluZ_9lb_config40default_passthrough_max_quic_connections
FNDA:4,_RNvCsesgXpVFBluZ_9lb_config40default_xdp_new_flow_cap_per_sec_per_cpu
FNDA:6,_RNvCsesgXpVFBluZ_9lb_config41default_ws_ping_rate_limit_window_seconds
FNDA:6,_RNvCsesgXpVFBluZ_9lb_config46default_passthrough_audit_throttle_window_secs
FNDA:7,_RNvMCsesgXpVFBluZ_9lb_configNtB2_13RuntimeConfig25effective_drain_jitter_ms
FNDA:31,_RNvMs_CsesgXpVFBluZ_9lb_configNtB4_14ListenerConfig25effective_drain_jitter_ms
FNDA:32,_RNvMs_CsesgXpVFBluZ_9lb_configNtB4_14ListenerConfig26effective_drain_timeout_ms
FNDA:1,_RNvXs1_CsesgXpVFBluZ_9lb_configNtB5_18GrpcListenerConfigNtNtCs1p5UDGgVI4d_4core7default7Default7default
FNDA:1,_RNvXs2_CsesgXpVFBluZ_9lb_configNtB5_15WebsocketConfigNtNtCs1p5UDGgVI4d_4core7default7Default7default
FNDA:1,_RNvXs3_CsesgXpVFBluZ_9lb_configNtB5_18HttpTimeoutsConfigNtNtCs1p5UDGgVI4d_4core7default7Default7default
FNDA:9,_RNCNvNtCsesgXpVFBluZ_9lb_config5testss_42shipped_example_configs_parse_and_validate0B5_
FNDA:16,_RNvNtCsesgXpVFBluZ_9lb_config5tests12base_runtime
FNDA:7,_RNvNtCsesgXpVFBluZ_9lb_config5tests12min_listener
FNDA:2,_RNvNtCsesgXpVFBluZ_9lb_config5tests15repo_config_dir
FNDA:10,_RNvNtCsesgXpVFBluZ_9lb_config5tests21assert_config_file_ok
FNDA:3,_RNvNtCsesgXpVFBluZ_9lb_config5tests6pt_min
FNDA:1,_RNvNtCsesgXpVFBluZ_9lb_config5testss_11validate_ok
FNDA:1,_RNvNtCsesgXpVFBluZ_9lb_config5testss_16parse_valid_toml
FNDA:1,_RNvNtCsesgXpVFBluZ_9lb_config5testss_18parse_invalid_toml
FNDA:1,_RNvNtCsesgXpVFBluZ_9lb_config5testss_18parse_tls_listener
FNDA:1,_RNvNtCsesgXpVFBluZ_9lb_config5testss_19parse_quic_listener
FNDA:1,_RNvNtCsesgXpVFBluZ_9lb_config5testss_22validate_empty_address
FNDA:1,_RNvNtCsesgXpVFBluZ_9lb_config5testss_24validate_empty_listeners
FNDA:1,_RNvNtCsesgXpVFBluZ_9lb_config5testss_25parse_runtime_xdp_enabled
FNDA:1,_RNvNtCsesgXpVFBluZ_9lb_config5testss_26parse_config_with_backends
FNDA:1,_RNvNtCsesgXpVFBluZ_9lb_config5testss_28parse_h1s_listener_with_grpc
FNDA:1,_RNvNtCsesgXpVFBluZ_9lb_config5testss_28unknown_runtime_key_rejected
FNDA:1,_RNvNtCsesgXpVFBluZ_9lb_config5testss_29unknown_listener_key_rejected
FNDA:1,_RNvNtCsesgXpVFBluZ_9lb_config5testss_30unknown_top_level_key_rejected
FNDA:1,_RNvNtCsesgXpVFBluZ_9lb_config5testss_30validate_empty_backend_address
FNDA:1,_RNvNtCsesgXpVFBluZ_9lb_config5testss_30validate_h1s_with_tls_block_ok
FNDA:1,_RNvNtCsesgXpVFBluZ_9lb_config5testss_32h3_request_cap_in_range_is_valid
FNDA:1,_RNvNtCsesgXpVFBluZ_9lb_config5testss_32parse_h1_listener_with_websocket
FNDA:1,_RNvNtCsesgXpVFBluZ_9lb_config5testss_32parse_observability_metrics_bind
FNDA:1,_RNvNtCsesgXpVFBluZ_9lb_config5testss_32passthrough_only_config_is_valid
FNDA:1,_RNvNtCsesgXpVFBluZ_9lb_config5testss_32validate_quic_small_mtu_rejected
FNDA:1,_RNvNtCsesgXpVFBluZ_9lb_config5testss_33unknown_nested_block_key_rejected
FNDA:1,_RNvNtCsesgXpVFBluZ_9lb_config5testss_34keepalive_requests_range_validated
FNDA:1,_RNvNtCsesgXpVFBluZ_9lb_config5testss_34parse_passthrough_block_round_trip
FNDA:1,_RNvNtCsesgXpVFBluZ_9lb_config5testss_34validate_unknown_protocol_rejected
FNDA:1,_RNvNtCsesgXpVFBluZ_9lb_config5testss_35passthrough_empty_backends_rejected
FNDA:1,_RNvNtCsesgXpVFBluZ_9lb_config5testss_35validate_h1_with_tls_block_rejected
FNDA:1,_RNvNtCsesgXpVFBluZ_9lb_config5testss_35validate_tls_without_block_rejected
FNDA:1,_RNvNtCsesgXpVFBluZ_9lb_config5testss_35validate_zero_http_timeout_rejected
FNDA:1,_RNvNtCsesgXpVFBluZ_9lb_config5testss_36h3_request_cap_explicit_value_parses
FNDA:1,_RNvNtCsesgXpVFBluZ_9lb_config5testss_36raw_proxy_minimal_toml_defaults_caps
FNDA:1,_RNvNtCsesgXpVFBluZ_9lb_config5testss_36validate_quic_without_block_rejected
FNDA:1,_RNvNtCsesgXpVFBluZ_9lb_config5testss_37h3_request_cap_above_ceiling_rejected
FNDA:1,_RNvNtCsesgXpVFBluZ_9lb_config5testss_37h3_request_cap_zero_is_valid_disabled
FNDA:1,_RNvNtCsesgXpVFBluZ_9lb_config5testss_37validate_tls_empty_cert_path_rejected
FNDA:1,_RNvNtCsesgXpVFBluZ_9lb_config5testss_38validate_websocket_on_quic_listener_ok
FNDA:1,_RNvNtCsesgXpVFBluZ_9lb_config5testss_39validate_h1s_without_tls_block_rejected
FNDA:1,_RNvNtCsesgXpVFBluZ_9lb_config5testss_40passthrough_defaults_match_owner_rulings
FNDA:1,_RNvNtCsesgXpVFBluZ_9lb_config5testss_40validate_observability_bad_bind_rejected
FNDA:1,_RNvNtCsesgXpVFBluZ_9lb_config5testss_41ops02_jitter_default_is_quarter_of_budget
FNDA:1,_RNvNtCsesgXpVFBluZ_9lb_config5testss_41ops10_per_listener_timeout_range_rejected
FNDA:1,_RNvNtCsesgXpVFBluZ_9lb_config5testss_42parse_websocket_h2_extended_connect_opt_in
FNDA:1,_RNvNtCsesgXpVFBluZ_9lb_config5testss_42parse_websocket_h3_extended_connect_opt_in
FNDA:1,_RNvNtCsesgXpVFBluZ_9lb_config5testss_42shipped_example_configs_parse_and_validate
FNDA:1,_RNvNtCsesgXpVFBluZ_9lb_config5testss_42validate_backend_unknown_protocol_rejected
FNDA:1,_RNvNtCsesgXpVFBluZ_9lb_config5testss_42validate_grpc_on_non_h1s_listener_rejected
FNDA:1,_RNvNtCsesgXpVFBluZ_9lb_config5testss_43h3_request_cap_defaults_to_1000_when_absent
FNDA:1,_RNvNtCsesgXpVFBluZ_9lb_config5testss_43parse_h1_listener_with_alt_svc_and_timeouts
FNDA:1,_RNvNtCsesgXpVFBluZ_9lb_config5testss_43shipped_default_config_parses_and_validates
FNDA:1,_RNvNtCsesgXpVFBluZ_9lb_config5testss_44ops10_override_takes_precedence_over_runtime
FNDA:1,_RNvNtCsesgXpVFBluZ_9lb_config5testss_44validate_unserved_listener_protocol_rejected
FNDA:1,_RNvNtCsesgXpVFBluZ_9lb_config5testss_45validate_quic_h3_terminate_with_h1_backend_ok
FNDA:1,_RNvNtCsesgXpVFBluZ_9lb_config5testss_46ops02_gateway_jitter_exceeding_budget_rejected
FNDA:1,_RNvNtCsesgXpVFBluZ_9lb_config5testss_46runtime_absent_keeps_parse_backward_compatible
FNDA:1,_RNvNtCsesgXpVFBluZ_9lb_config5testss_46runtime_xdp_enabled_without_interface_rejected
FNDA:1,_RNvNtCsesgXpVFBluZ_9lb_config5testss_46validate_quic_raw_proxy_with_backends_rejected
FNDA:1,_RNvNtCsesgXpVFBluZ_9lb_config5testss_47runtime_xdp_disabled_does_not_require_interface
FNDA:1,_RNvNtCsesgXpVFBluZ_9lb_config5testss_48passthrough_min_client_dcid_below_floor_rejected
FNDA:1,_RNvNtCsesgXpVFBluZ_9lb_config5testss_48validate_tls_block_without_tls_protocol_rejected
FNDA:1,_RNvNtCsesgXpVFBluZ_9lb_config5testss_48validate_websocket_on_non_http_listener_rejected
FNDA:1,_RNvNtCsesgXpVFBluZ_9lb_config5testss_49ops11_readiness_settle_default_is_kubelet_aligned
FNDA:1,_RNvNtCsesgXpVFBluZ_9lb_config5testss_51valid_config_still_parses_under_deny_unknown_fields
FNDA:1,_RNvNtCsesgXpVFBluZ_9lb_config5testss_57ops02_listener_jitter_exceeding_inherited_budget_rejected
FNDA:1,_RNvNtCsesgXpVFBluZ_9lb_config5testss_58validate_quic_h3_terminate_mixed_backend_families_rejected
FNDA:1,_RNvNtCsesgXpVFBluZ_9lb_config5testss_58validate_served_listener_protocols_named_in_unserved_error
FNDA:23,_RNCNCNvMs_CsesgXpVFBluZ_9lb_configNtB8_14ListenerConfig25effective_drain_jitter_ms00B8_
FNDA:1,_RNCNvCsesgXpVFBluZ_9lb_config16validate_runtime0B3_
FNDA:1,_RNCNvCsesgXpVFBluZ_9lb_config21validate_tls_listener0B3_
FNDA:1,_RNCNvCsesgXpVFBluZ_9lb_config22validate_observability0B3_
FNDA:1,_RNCNvCsesgXpVFBluZ_9lb_config22validate_quic_listener0B3_
FNDA:29,_RNCNvMs_CsesgXpVFBluZ_9lb_configNtB6_14ListenerConfig25effective_drain_jitter_ms0B6_
FNDA:31,_RNCNvMs_CsesgXpVFBluZ_9lb_configNtB6_14ListenerConfig26effective_drain_timeout_ms0B6_
FNF:140
FNH:136
DA:366,4
DA:367,4
DA:368,4
DA:372,3
DA:373,3
DA:374,3
DA:383,2
DA:384,2
DA:385,2
DA:393,7
DA:394,7
DA:395,0
DA:396,7
DA:398,7
DA:408,32
DA:409,32
DA:410,31
DA:411,31
DA:412,32
DA:421,31
DA:422,31
DA:423,29
DA:424,23
DA:427,29
DA:428,31
DA:480,0
DA:481,0
DA:482,0
DA:483,0
DA:484,0
DA:485,0
DA:486,0
DA:491,0
DA:492,0
DA:493,0
DA:497,0
DA:498,0
DA:499,0
DA:503,0
DA:504,0
DA:505,0
DA:532,48
DA:533,48
DA:534,48
DA:552,5
DA:553,5
DA:554,5
DA:561,3
DA:562,3
DA:563,3
DA:568,3
DA:569,3
DA:570,3
DA:576,3
DA:577,3
DA:578,3
DA:584,3
DA:585,3
DA:586,3
DA:727,1
DA:728,1
DA:729,1
DA:730,1
DA:731,1
DA:732,1
DA:733,1
DA:736,2
DA:737,2
DA:738,2
DA:740,1
DA:741,1
DA:742,1
DA:744,1
DA:745,1
DA:746,1
DA:814,1
DA:815,1
DA:816,1
DA:817,1
DA:818,1
DA:819,1
DA:820,1
DA:821,1
DA:822,1
DA:823,1
DA:824,1
DA:825,1
DA:826,1
DA:827,1
DA:830,5
DA:831,5
DA:832,5
DA:834,4
DA:835,4
DA:836,4
DA:838,4
DA:839,4
DA:840,4
DA:842,6
DA:843,6
DA:844,6
DA:846,6
DA:847,6
DA:848,6
DA:850,5
DA:851,5
DA:852,5
DA:909,1
DA:910,1
DA:911,1
DA:937,1
DA:938,1
DA:939,1
DA:940,1
DA:941,1
DA:942,1
DA:943,1
DA:944,1
DA:947,1
DA:948,1
DA:949,1
DA:951,2
DA:952,2
DA:953,2
DA:955,2
DA:956,2
DA:957,2
DA:959,2
DA:960,2
DA:961,2
DA:987,6
DA:988,6
DA:989,6
DA:991,6
DA:992,6
DA:993,6
DA:1040,6
DA:1041,6
DA:1042,6
DA:1044,6
DA:1045,6
DA:1046,6
DA:1105,3
DA:1106,3
DA:1107,3
DA:1111,3
DA:1112,3
DA:1113,3
DA:1197,6
DA:1198,6
DA:1199,6
DA:1203,6
DA:1204,6
DA:1205,6
DA:1210,6
DA:1211,6
DA:1212,6
DA:1217,6
DA:1218,6
DA:1219,6
DA:1223,6
DA:1224,6
DA:1225,6
DA:1231,5
DA:1232,5
DA:1233,5
DA:1238,5
DA:1239,5
DA:1240,5
DA:1286,29
DA:1287,29
DA:1288,29
DA:1290,24
DA:1291,24
DA:1292,24
DA:1294,17
DA:1295,17
DA:1296,17
DA:1303,36
DA:1304,36
DA:1305,31
DA:1306,36
DA:1313,57
DA:1318,57
DA:1319,1
DA:1320,1
DA:1321,1
DA:1322,56
DA:1323,56
DA:1324,5
DA:1325,51
DA:1326,54
DA:1327,52
DA:1329,33
DA:1330,8
DA:1331,25
DA:1338,31
DA:1339,29
DA:1340,29
DA:1341,29
DA:1342,1
DA:1343,1
DA:1344,1
DA:1345,1
DA:1346,1
DA:1347,28
DA:1349,30
DA:1350,2
DA:1351,28
DA:1352,29
DA:1353,57
DA:1355,2
DA:1356,2
DA:1357,2
DA:1358,2
DA:1359,0
DA:1360,0
DA:1361,0
DA:1362,2
DA:1363,2
DA:1364,1
DA:1365,1
DA:1366,1
DA:1367,1
DA:1368,0
DA:1369,1
DA:1370,2
DA:1372,20
DA:1373,20
DA:1374,2
DA:1375,2
DA:1376,2
DA:1377,2
DA:1378,2
DA:1379,2
DA:1380,1
DA:1381,1
DA:1382,1
DA:1383,1
DA:1384,18
DA:1392,19
DA:1393,0
DA:1394,0
DA:1395,0
DA:1396,0
DA:1397,19
DA:1402,19
DA:1403,1
DA:1404,1
DA:1405,1
DA:1406,1
DA:1407,1
DA:1408,1
DA:1409,0
DA:1410,18
DA:1414,18
DA:1415,0
DA:1416,0
DA:1417,0
DA:1418,0
DA:1419,18
DA:1423,18
DA:1424,0
DA:1425,0
DA:1426,0
DA:1427,0
DA:1428,18
DA:1433,18
DA:1434,0
DA:1435,0
DA:1436,0
DA:1437,0
DA:1438,18
DA:1442,18
DA:1443,0
DA:1444,0
DA:1445,0
DA:1446,0
DA:1447,18
DA:1450,18
DA:1451,0
DA:1452,0
DA:1453,0
DA:1454,0
DA:1455,18
DA:1461,18
DA:1462,0
DA:1463,0
DA:1464,0
DA:1465,0
DA:1466,0
DA:1467,0
DA:1468,0
DA:1469,0
DA:1470,0
DA:1471,0
DA:1472,0
DA:1473,0
DA:1474,0
DA:1475,0
DA:1476,0
DA:1477,0
DA:1478,0
DA:1479,0
DA:1480,18
DA:1489,18
DA:1490,18
DA:1491,0
DA:1492,0
DA:1493,0
DA:1494,0
DA:1495,18
DA:1505,18
DA:1506,1
DA:1507,1
DA:1508,1
DA:1509,1
DA:1510,1
DA:1511,17
DA:1517,17
DA:1518,1
DA:1519,1
DA:1520,1
DA:1521,1
DA:1522,1
DA:1523,16
DA:1524,16
DA:1525,20
DA:1527,52
DA:1528,52
DA:1529,1
DA:1530,1
DA:1531,1
DA:1532,51
DA:1533,51
DA:1534,51
DA:1535,0
DA:1536,0
DA:1537,0
DA:1538,51
DA:1539,51
DA:1540,51
DA:1541,47
DA:1542,37
DA:1543,31
DA:1545,7
DA:1546,1
DA:1547,1
DA:1548,1
DA:1549,1
DA:1550,6
DA:1551,6
DA:1552,0
DA:1553,0
DA:1554,0
DA:1555,6
DA:1557,24
DA:1558,19
DA:1559,1
DA:1560,1
DA:1561,1
DA:1562,1
DA:1563,18
DA:1564,18
DA:1565,0
DA:1566,0
DA:1567,0
DA:1568,0
DA:1569,18
DA:1581,5
DA:1582,4
DA:1583,4
DA:1584,4
DA:1585,4
DA:1586,4
DA:1587,4
DA:1588,4
DA:1589,4
DA:1591,1
DA:1592,1
DA:1593,1
DA:1594,1
DA:1595,1
DA:1598,37
DA:1599,36
DA:1600,35
DA:1601,34
DA:1604,32
DA:1605,1
DA:1606,1
DA:1607,1
DA:1608,1
DA:1609,0
DA:1610,31
DA:1617,31
DA:1618,1
DA:1619,1
DA:1620,0
DA:1621,0
DA:1622,0
DA:1623,0
DA:1624,1
DA:1625,30
DA:1626,31
DA:1627,52
DA:1629,36
DA:1630,36
DA:1631,36
DA:1632,36
DA:1633,36
DA:1634,36
DA:1635,1
DA:1636,1
DA:1637,1
DA:1638,1
DA:1639,35
DA:1640,35
DA:1641,2
DA:1642,0
DA:1643,0
DA:1644,0
DA:1645,2
DA:1646,33
DA:1647,35
DA:1648,36
DA:1650,37
DA:1651,37
DA:1652,37
DA:1653,37
DA:1654,37
DA:1659,37
DA:1660,1
DA:1661,1
DA:1662,1
DA:1663,1
DA:1664,36
DA:1665,36
DA:1666,5
DA:1667,0
DA:1668,0
DA:1669,0
DA:1670,5
DA:1671,5
DA:1672,0
DA:1673,0
DA:1674,0
DA:1675,5
DA:1676,5
DA:1677,0
DA:1678,0
DA:1679,0
DA:1680,5
DA:1681,5
DA:1682,0
DA:1683,0
DA:1684,0
DA:1685,5
DA:1686,5
DA:1687,0
DA:1688,0
DA:1689,0
DA:1690,5
DA:1691,31
DA:1692,36
DA:1693,37
DA:1695,35
DA:1696,35
DA:1697,3
DA:1698,1
DA:1699,1
DA:1700,1
DA:1701,2
DA:1702,2
DA:1703,0
DA:1704,0
DA:1705,0
DA:1706,2
DA:1707,2
DA:1708,0
DA:1709,0
DA:1710,0
DA:1711,2
DA:1712,2
DA:1713,0
DA:1714,0
DA:1715,0
DA:1716,2
DA:1717,32
DA:1718,34
DA:1719,35
DA:1721,34
DA:1722,34
DA:1723,28
DA:1724,1
DA:1725,1
DA:1726,1
DA:1727,27
DA:1728,27
DA:1729,27
DA:1730,1
DA:1731,1
DA:1732,1
DA:1733,1
DA:1734,1
DA:1737,26
DA:1739,32
DA:1740,34
DA:1745,26
DA:1746,26
DA:1747,26
DA:1748,26
DA:1749,26
DA:1751,0
DA:1752,0
DA:1753,0
DA:1754,0
DA:1755,0
DA:1756,26
DA:1757,26
DA:1758,0
DA:1759,0
DA:1760,0
DA:1761,0
DA:1762,0
DA:1763,0
DA:1764,0
DA:1765,0
DA:1766,0
DA:1767,0
DA:1768,0
DA:1769,0
DA:1770,0
DA:1771,0
DA:1772,0
DA:1773,0
DA:1774,26
DA:1776,9
DA:1777,9
DA:1778,1
DA:1779,1
DA:1780,1
DA:1781,1
DA:1782,8
DA:1783,1
DA:1784,1
DA:1785,1
DA:1786,7
DA:1787,7
DA:1788,0
DA:1789,0
DA:1790,0
DA:1791,7
DA:1792,7
DA:1793,0
DA:1794,0
DA:1795,0
DA:1796,7
DA:1797,7
DA:1798,0
DA:1799,0
DA:1800,0
DA:1801,7
DA:1802,7
DA:1803,9
DA:1805,6
DA:1807,6
DA:1808,1
DA:1809,1
DA:1810,1
DA:1811,5
DA:1812,5
DA:1813,0
DA:1814,0
DA:1815,0
DA:1816,5
DA:1818,5
DA:1819,6
DA:1821,10
DA:1822,10
DA:1823,1
DA:1824,1
DA:1825,1
DA:1826,1
DA:1827,9
DA:1828,0
DA:1829,0
DA:1830,0
DA:1831,9
DA:1832,9
DA:1833,0
DA:1834,0
DA:1835,0
DA:1836,9
DA:1837,9
DA:1838,0
DA:1839,0
DA:1840,0
DA:1841,9
DA:1842,9
DA:1843,0
DA:1844,0
DA:1845,0
DA:1846,9
DA:1847,9
DA:1848,1
DA:1849,1
DA:1850,1
DA:1851,8
DA:1852,8
DA:1853,0
DA:1854,0
DA:1855,0
DA:1856,8
DA:1864,8
DA:1865,1
DA:1866,1
DA:1867,1
DA:1868,1
DA:1869,1
DA:1870,7
DA:1878,7
DA:1879,3
DA:1880,3
DA:1881,3
DA:1882,7
DA:1883,4
DA:1884,4
DA:1885,1
DA:1886,0
DA:1889,0
DA:1892,3
DA:1893,3
DA:1894,1
DA:1895,1
DA:1896,1
DA:1897,1
DA:1898,1
DA:1899,2
DA:1900,4
DA:1901,6
DA:1902,10
DA:1911,5
DA:1912,5
DA:1913,1
DA:1914,1
DA:1915,1
DA:1916,4
DA:1921,4
DA:1922,0
DA:1923,0
DA:1924,0
DA:1925,0
DA:1926,4
DA:1930,4
DA:1931,1
DA:1932,1
DA:1933,1
DA:1934,1
DA:1935,3
DA:1936,3
DA:1937,0
DA:1938,0
DA:1939,0
DA:1940,0
DA:1941,3
DA:1942,3
DA:1943,0
DA:1944,0
DA:1945,0
DA:1946,3
DA:1947,3
DA:1948,0
DA:1949,0
DA:1950,0
DA:1951,0
DA:1952,3
DA:1953,3
DA:1954,0
DA:1955,0
DA:1956,0
DA:1957,3
DA:1958,3
DA:1959,5
DA:1966,1
DA:1967,1
DA:1968,1
DA:1969,1
DA:1970,1
DA:1971,1
DA:1972,1
DA:1973,1
DA:1974,1
DA:1975,1
DA:1976,1
DA:1979,1
DA:1980,1
DA:1981,1
DA:1982,1
DA:1989,1
DA:1994,1
DA:1995,1
DA:1996,1
DA:1997,1
DA:1998,1
DA:1999,1
DA:2000,1
DA:2001,1
DA:2002,1
DA:2003,1
DA:2004,1
DA:2005,1
DA:2006,1
DA:2007,1
DA:2008,1
DA:2009,1
DA:2010,1
DA:2012,1
DA:2013,0
DA:2015,1
DA:2016,1
DA:2018,1
DA:2019,0
DA:2021,1
DA:2023,1
DA:2024,1
DA:2025,0
DA:2027,1
DA:2030,1
DA:2031,1
DA:2032,1
DA:2033,1
DA:2034,1
DA:2035,1
DA:2036,1
DA:2037,1
DA:2038,1
DA:2039,1
DA:2040,1
DA:2043,1
DA:2044,1
DA:2045,1
DA:2046,1
DA:2047,1
DA:2048,1
DA:2049,1
DA:2050,1
DA:2051,1
DA:2052,1
DA:2053,1
DA:2054,1
DA:2055,1
DA:2056,1
DA:2057,1
DA:2058,1
DA:2059,1
DA:2060,1
DA:2061,1
DA:2062,1
DA:2063,1
DA:2064,1
DA:2065,1
DA:2066,1
DA:2069,1
DA:2074,1
DA:2075,1
DA:2076,1
DA:2077,1
DA:2078,1
DA:2079,1
DA:2080,1
DA:2081,1
DA:2082,1
DA:2083,1
DA:2084,1
DA:2085,1
DA:2086,1
DA:2087,1
DA:2088,1
DA:2089,1
DA:2090,1
DA:2091,1
DA:2092,1
DA:2093,1
DA:2094,1
DA:2095,1
DA:2096,1
DA:2099,1
DA:2100,1
DA:2101,1
DA:2102,1
DA:2103,1
DA:2104,1
DA:2105,1
DA:2106,1
DA:2107,1
DA:2108,1
DA:2109,1
DA:2110,1
DA:2111,1
DA:2112,1
DA:2113,1
DA:2114,1
DA:2115,1
DA:2116,1
DA:2117,1
DA:2118,1
DA:2119,1
DA:2120,1
DA:2121,1
DA:2122,1
DA:2123,1
DA:2124,1
DA:2125,1
DA:2126,1
DA:2127,1
DA:2128,1
DA:2129,1
DA:2132,1
DA:2133,1
DA:2134,1
DA:2135,1
DA:2136,1
DA:2137,1
DA:2138,1
DA:2139,1
DA:2140,1
DA:2141,1
DA:2142,1
DA:2143,1
DA:2144,1
DA:2145,1
DA:2146,1
DA:2147,1
DA:2150,1
DA:2151,1
DA:2152,1
DA:2153,1
DA:2154,1
DA:2155,1
DA:2156,1
DA:2157,1
DA:2158,1
DA:2159,1
DA:2160,1
DA:2161,1
DA:2162,1
DA:2163,1
DA:2164,1
DA:2165,1
DA:2166,1
DA:2167,1
DA:2168,1
DA:2169,1
DA:2170,1
DA:2173,1
DA:2174,1
DA:2175,1
DA:2176,1
DA:2177,1
DA:2178,1
DA:2179,1
DA:2180,1
DA:2181,1
DA:2182,1
DA:2183,1
DA:2184,1
DA:2185,1
DA:2186,1
DA:2187,1
DA:2188,1
DA:2189,1
DA:2190,1
DA:2191,1
DA:2192,1
DA:2193,1
DA:2194,1
DA:2195,1
DA:2196,1
DA:2199,1
DA:2200,1
DA:2201,1
DA:2202,1
DA:2203,1
DA:2204,1
DA:2205,1
DA:2206,1
DA:2207,1
DA:2208,1
DA:2209,1
DA:2210,1
DA:2211,1
DA:2212,1
DA:2213,1
DA:2214,1
DA:2215,1
DA:2216,1
DA:2217,1
DA:2218,1
DA:2219,1
DA:2220,1
DA:2221,1
DA:2222,1
DA:2232,1
DA:2233,3
DA:2234,3
DA:2235,3
DA:2236,3
DA:2237,3
DA:2238,3
DA:2239,3
DA:2240,3
DA:2241,3
DA:2242,3
DA:2245,3
DA:2246,3
DA:2247,3
DA:2248,3
DA:2249,3
DA:2250,0
DA:2253,1
DA:2256,1
DA:2258,1
DA:2259,1
DA:2260,1
DA:2261,1
DA:2262,1
DA:2263,1
DA:2264,1
DA:2265,1
DA:2266,1
DA:2267,1
DA:2268,1
DA:2269,1
DA:2270,0
DA:2272,1
DA:2273,1
DA:2274,0
DA:2276,5
DA:2277,5
DA:2278,5
DA:2279,0
DA:2283,1
DA:2284,1
DA:2285,0
DA:2287,1
DA:2292,1
DA:2295,1
DA:2296,1
DA:2297,1
DA:2298,1
DA:2299,1
DA:2300,1
DA:2301,1
DA:2302,1
DA:2303,1
DA:2304,1
DA:2305,1
DA:2306,1
DA:2307,1
DA:2308,0
DA:2310,1
DA:2313,1
DA:2316,1
DA:2317,1
DA:2318,1
DA:2319,1
DA:2320,1
DA:2321,1
DA:2322,1
DA:2323,1
DA:2324,1
DA:2325,1
DA:2326,1
DA:2327,1
DA:2328,1
DA:2329,1
DA:2330,0
DA:2332,1
DA:2333,1
DA:2334,1
DA:2335,0
DA:2337,1
DA:2340,1
DA:2341,1
DA:2342,1
DA:2343,1
DA:2344,1
DA:2345,1
DA:2346,1
DA:2347,1
DA:2348,1
DA:2349,1
DA:2350,1
DA:2351,1
DA:2352,1
DA:2355,1
DA:2357,1
DA:2358,1
DA:2359,1
DA:2360,1
DA:2361,1
DA:2362,1
DA:2363,1
DA:2364,1
DA:2365,1
DA:2366,1
DA:2367,1
DA:2368,1
DA:2369,1
DA:2370,1
DA:2371,1
DA:2372,1
DA:2375,1
DA:2380,1
DA:2381,1
DA:2382,1
DA:2383,1
DA:2384,1
DA:2385,1
DA:2386,1
DA:2387,1
DA:2388,1
DA:2389,1
DA:2390,1
DA:2391,1
DA:2392,1
DA:2393,1
DA:2394,1
DA:2395,1
DA:2396,1
DA:2397,1
DA:2398,1
DA:2399,1
DA:2400,1
DA:2401,1
DA:2402,1
DA:2403,1
DA:2404,1
DA:2405,1
DA:2406,1
DA:2407,1
DA:2408,1
DA:2409,1
DA:2412,1
DA:2413,1
DA:2414,1
DA:2415,1
DA:2416,1
DA:2417,1
DA:2418,1
DA:2419,1
DA:2420,1
DA:2421,1
DA:2422,1
DA:2423,1
DA:2424,1
DA:2425,1
DA:2426,1
DA:2427,1
DA:2428,1
DA:2429,1
DA:2430,1
DA:2431,1
DA:2432,1
DA:2433,1
DA:2434,1
DA:2435,1
DA:2436,1
DA:2437,1
DA:2438,1
DA:2439,1
DA:2440,1
DA:2443,1
DA:2444,1
DA:2445,1
DA:2446,1
DA:2447,1
DA:2448,1
DA:2449,1
DA:2450,1
DA:2451,1
DA:2452,1
DA:2453,1
DA:2454,1
DA:2455,1
DA:2456,1
DA:2457,1
DA:2458,1
DA:2459,1
DA:2460,1
DA:2461,1
DA:2462,1
DA:2463,1
DA:2464,1
DA:2465,1
DA:2466,1
DA:2467,1
DA:2468,1
DA:2469,1
DA:2470,1
DA:2471,1
DA:2474,1
DA:2475,1
DA:2476,1
DA:2477,1
DA:2478,1
DA:2479,1
DA:2480,1
DA:2481,1
DA:2482,1
DA:2483,1
DA:2484,1
DA:2485,1
DA:2486,1
DA:2487,1
DA:2488,1
DA:2489,1
DA:2490,1
DA:2491,1
DA:2492,1
DA:2493,1
DA:2494,1
DA:2495,1
DA:2496,1
DA:2499,1
DA:2500,1
DA:2501,1
DA:2502,1
DA:2503,1
DA:2504,1
DA:2505,1
DA:2506,1
DA:2507,1
DA:2508,1
DA:2509,1
DA:2510,1
DA:2511,1
DA:2512,1
DA:2513,1
DA:2514,1
DA:2515,1
DA:2516,1
DA:2517,1
DA:2518,1
DA:2519,1
DA:2520,1
DA:2521,1
DA:2522,1
DA:2525,1
DA:2526,1
DA:2527,1
DA:2528,1
DA:2529,1
DA:2530,1
DA:2531,1
DA:2532,1
DA:2533,1
DA:2534,1
DA:2535,1
DA:2536,1
DA:2537,1
DA:2538,1
DA:2539,1
DA:2540,1
DA:2541,1
DA:2542,1
DA:2543,1
DA:2544,1
DA:2545,1
DA:2546,1
DA:2547,1
DA:2548,1
DA:2549,1
DA:2550,1
DA:2551,1
DA:2552,1
DA:2553,1
DA:2554,1
DA:2555,1
DA:2562,1
DA:2563,1
DA:2564,1
DA:2565,1
DA:2566,1
DA:2567,1
DA:2568,1
DA:2569,1
DA:2570,1
DA:2571,1
DA:2572,1
DA:2573,1
DA:2574,1
DA:2575,1
DA:2576,1
DA:2577,1
DA:2578,1
DA:2579,1
DA:2580,1
DA:2581,1
DA:2582,1
DA:2583,1
DA:2584,1
DA:2585,1
DA:2586,1
DA:2587,1
DA:2588,1
DA:2589,1
DA:2590,1
DA:2591,1
DA:2592,1
DA:2593,1
DA:2594,1
DA:2595,1
DA:2596,1
DA:2597,1
DA:2598,1
DA:2599,1
DA:2600,0
DA:2602,1
DA:2607,1
DA:2608,1
DA:2609,1
DA:2610,1
DA:2611,1
DA:2612,1
DA:2613,1
DA:2614,1
DA:2615,1
DA:2616,1
DA:2617,1
DA:2618,1
DA:2619,1
DA:2620,1
DA:2621,1
DA:2622,1
DA:2623,1
DA:2624,1
DA:2625,1
DA:2626,1
DA:2627,1
DA:2628,1
DA:2629,1
DA:2630,1
DA:2631,1
DA:2632,1
DA:2633,1
DA:2634,1
DA:2635,1
DA:2636,1
DA:2637,1
DA:2638,1
DA:2639,1
DA:2640,1
DA:2641,1
DA:2642,1
DA:2643,1
DA:2644,1
DA:2645,1
DA:2646,1
DA:2647,1
DA:2648,1
DA:2649,1
DA:2650,1
DA:2651,1
DA:2652,0
DA:2654,1
DA:2660,1
DA:2661,1
DA:2662,1
DA:2663,1
DA:2664,1
DA:2665,1
DA:2666,1
DA:2667,1
DA:2668,1
DA:2669,1
DA:2670,1
DA:2671,1
DA:2672,1
DA:2673,1
DA:2674,1
DA:2675,1
DA:2676,1
DA:2677,1
DA:2678,1
DA:2679,1
DA:2680,1
DA:2681,1
DA:2682,1
DA:2683,1
DA:2684,1
DA:2685,1
DA:2686,1
DA:2687,1
DA:2688,1
DA:2689,1
DA:2690,1
DA:2691,1
DA:2692,1
DA:2693,1
DA:2694,1
DA:2695,1
DA:2696,1
DA:2697,1
DA:2698,1
DA:2699,1
DA:2700,1
DA:2701,1
DA:2702,1
DA:2703,1
DA:2704,1
DA:2705,1
DA:2706,1
DA:2707,1
DA:2708,1
DA:2709,0
DA:2711,1
DA:2714,1
DA:2715,1
DA:2716,1
DA:2717,1
DA:2718,1
DA:2719,1
DA:2720,1
DA:2721,1
DA:2722,1
DA:2723,1
DA:2724,1
DA:2725,1
DA:2726,1
DA:2727,1
DA:2728,1
DA:2729,1
DA:2730,1
DA:2731,1
DA:2732,1
DA:2733,1
DA:2734,1
DA:2735,1
DA:2736,1
DA:2737,1
DA:2738,1
DA:2739,1
DA:2740,1
DA:2741,1
DA:2742,1
DA:2743,1
DA:2744,1
DA:2747,1
DA:2748,1
DA:2749,1
DA:2750,1
DA:2751,1
DA:2752,1
DA:2753,1
DA:2754,1
DA:2755,1
DA:2756,1
DA:2757,1
DA:2758,1
DA:2759,1
DA:2760,1
DA:2761,1
DA:2762,1
DA:2763,1
DA:2764,1
DA:2765,1
DA:2766,1
DA:2767,1
DA:2768,1
DA:2769,1
DA:2770,1
DA:2771,1
DA:2772,1
DA:2773,1
DA:2776,1
DA:2777,1
DA:2778,1
DA:2779,1
DA:2780,1
DA:2781,1
DA:2782,1
DA:2783,1
DA:2784,1
DA:2785,1
DA:2786,1
DA:2787,1
DA:2788,1
DA:2789,1
DA:2790,1
DA:2791,1
DA:2792,1
DA:2793,1
DA:2794,1
DA:2795,1
DA:2796,1
DA:2797,1
DA:2798,1
DA:2799,1
DA:2800,1
DA:2801,1
DA:2802,1
DA:2803,1
DA:2804,1
DA:2805,1
DA:2806,1
DA:2807,1
DA:2810,1
DA:2813,1
DA:2814,1
DA:2815,1
DA:2816,1
DA:2817,1
DA:2818,1
DA:2819,1
DA:2820,1
DA:2821,1
DA:2822,1
DA:2823,1
DA:2824,1
DA:2825,1
DA:2826,1
DA:2827,1
DA:2828,1
DA:2829,1
DA:2830,1
DA:2831,1
DA:2832,1
DA:2833,1
DA:2834,1
DA:2835,1
DA:2836,1
DA:2837,1
DA:2838,1
DA:2839,1
DA:2840,1
DA:2843,1
DA:2844,1
DA:2845,1
DA:2846,1
DA:2847,1
DA:2848,1
DA:2849,1
DA:2850,1
DA:2851,1
DA:2852,1
DA:2853,1
DA:2854,1
DA:2855,1
DA:2856,1
DA:2857,1
DA:2858,1
DA:2859,1
DA:2860,1
DA:2861,1
DA:2862,1
DA:2863,1
DA:2864,1
DA:2865,1
DA:2866,1
DA:2867,1
DA:2868,1
DA:2869,1
DA:2870,1
DA:2871,1
DA:2872,1
DA:2873,1
DA:2874,1
DA:2875,1
DA:2876,1
DA:2877,1
DA:2878,1
DA:2879,1
DA:2880,1
DA:2881,1
DA:2884,1
DA:2885,1
DA:2886,1
DA:2887,1
DA:2888,1
DA:2889,1
DA:2890,1
DA:2891,1
DA:2892,1
DA:2893,1
DA:2894,1
DA:2895,1
DA:2896,1
DA:2897,1
DA:2898,1
DA:2899,1
DA:2900,1
DA:2901,1
DA:2902,1
DA:2903,1
DA:2904,1
DA:2905,1
DA:2906,1
DA:2907,1
DA:2908,1
DA:2909,1
DA:2910,1
DA:2911,1
DA:2912,1
DA:2913,1
DA:2914,1
DA:2915,1
DA:2916,1
DA:2917,1
DA:2918,1
DA:2919,1
DA:2922,1
DA:2923,1
DA:2924,1
DA:2925,1
DA:2926,1
DA:2927,1
DA:2928,1
DA:2929,1
DA:2930,1
DA:2931,1
DA:2932,1
DA:2933,1
DA:2934,1
DA:2935,1
DA:2936,1
DA:2937,1
DA:2938,1
DA:2939,1
DA:2940,1
DA:2943,1
DA:2944,1
DA:2945,1
DA:2946,1
DA:2947,1
DA:2948,1
DA:2949,1
DA:2950,1
DA:2951,1
DA:2952,1
DA:2953,1
DA:2954,1
DA:2955,1
DA:2956,1
DA:2957,1
DA:2958,1
DA:2959,1
DA:2960,1
DA:2961,1
DA:2962,1
DA:2963,1
DA:2964,1
DA:2965,1
DA:2966,1
DA:2967,1
DA:2968,1
DA:2969,1
DA:2970,1
DA:2971,1
DA:2972,1
DA:2973,1
DA:2974,1
DA:2975,1
DA:2976,1
DA:2977,1
DA:2978,1
DA:2979,1
DA:2980,1
DA:2981,1
DA:2982,1
DA:2983,1
DA:2984,1
DA:2987,1
DA:2988,1
DA:2989,1
DA:2990,1
DA:2991,1
DA:2992,1
DA:2993,1
DA:2994,1
DA:2995,1
DA:2996,1
DA:2997,1
DA:2998,1
DA:2999,1
DA:3000,1
DA:3001,1
DA:3002,1
DA:3003,1
DA:3004,1
DA:3005,1
DA:3006,1
DA:3007,1
DA:3008,1
DA:3009,1
DA:3010,1
DA:3011,1
DA:3012,1
DA:3013,1
DA:3014,1
DA:3015,1
DA:3016,1
DA:3017,1
DA:3018,1
DA:3019,1
DA:3020,1
DA:3021,1
DA:3022,1
DA:3023,1
DA:3024,1
DA:3025,1
DA:3026,1
DA:3027,1
DA:3030,1
DA:3031,1
DA:3032,1
DA:3033,1
DA:3034,1
DA:3035,1
DA:3036,1
DA:3037,1
DA:3038,1
DA:3039,1
DA:3042,1
DA:3043,1
DA:3044,1
DA:3045,1
DA:3046,1
DA:3047,1
DA:3048,1
DA:3049,1
DA:3050,1
DA:3051,1
DA:3052,1
DA:3053,1
DA:3054,1
DA:3055,1
DA:3056,1
DA:3057,1
DA:3058,1
DA:3061,1
DA:3062,1
DA:3063,1
DA:3064,1
DA:3065,1
DA:3066,1
DA:3067,1
DA:3068,1
DA:3069,1
DA:3070,1
DA:3071,1
DA:3072,1
DA:3073,1
DA:3074,1
DA:3075,1
DA:3076,1
DA:3077,1
DA:3078,1
DA:3082,1
DA:3083,1
DA:3084,0
DA:3086,1
DA:3087,1
DA:3090,1
DA:3092,1
DA:3093,1
DA:3094,1
DA:3095,1
DA:3096,1
DA:3097,1
DA:3098,1
DA:3099,1
DA:3100,1
DA:3101,1
DA:3102,1
DA:3103,1
DA:3104,1
DA:3105,1
DA:3106,1
DA:3107,0
DA:3109,1
DA:3110,1
DA:3113,1
DA:3114,1
DA:3115,1
DA:3116,1
DA:3117,1
DA:3118,1
DA:3119,1
DA:3120,1
DA:3121,1
DA:3122,1
DA:3123,1
DA:3124,1
DA:3125,1
DA:3126,1
DA:3127,1
DA:3128,1
DA:3129,1
DA:3130,1
DA:3131,1
DA:3132,1
DA:3133,1
DA:3134,1
DA:3135,1
DA:3136,1
DA:3142,1
DA:3143,1
DA:3144,1
DA:3145,1
DA:3146,1
DA:3147,1
DA:3148,1
DA:3149,1
DA:3150,1
DA:3151,1
DA:3152,1
DA:3153,1
DA:3154,1
DA:3155,1
DA:3156,1
DA:3157,1
DA:3158,1
DA:3159,1
DA:3160,1
DA:3161,1
DA:3162,0
DA:3164,1
DA:3165,1
DA:3166,1
DA:3171,1
DA:3172,1
DA:3173,1
DA:3174,1
DA:3175,1
DA:3176,1
DA:3177,1
DA:3178,1
DA:3179,1
DA:3180,1
DA:3181,1
DA:3182,1
DA:3183,1
DA:3184,1
DA:3185,1
DA:3186,1
DA:3187,1
DA:3188,1
DA:3189,0
DA:3191,1
DA:3192,1
DA:3193,0
DA:3195,1
DA:3196,1
DA:3199,1
DA:3200,1
DA:3201,1
DA:3202,1
DA:3203,1
DA:3204,1
DA:3205,1
DA:3206,1
DA:3207,1
DA:3208,1
DA:3209,1
DA:3210,1
DA:3211,1
DA:3212,1
DA:3213,1
DA:3214,1
DA:3215,1
DA:3216,1
DA:3217,1
DA:3218,1
DA:3219,1
DA:3220,1
DA:3221,1
DA:3222,1
DA:3225,1
DA:3226,1
DA:3227,1
DA:3228,1
DA:3229,1
DA:3230,1
DA:3231,1
DA:3232,1
DA:3233,1
DA:3234,1
DA:3235,1
DA:3236,1
DA:3237,1
DA:3238,1
DA:3239,1
DA:3240,1
DA:3241,1
DA:3242,1
DA:3243,1
DA:3244,1
DA:3245,1
DA:3246,1
DA:3247,1
DA:3248,1
DA:3252,16
DA:3253,16
DA:3254,16
DA:3255,16
DA:3256,16
DA:3257,16
DA:3258,16
DA:3259,16
DA:3260,16
DA:3261,16
DA:3262,16
DA:3263,16
DA:3264,16
DA:3265,16
DA:3266,16
DA:3267,16
DA:3268,16
DA:3269,16
DA:3270,16
DA:3271,16
DA:3273,7
DA:3274,7
DA:3275,7
DA:3276,7
DA:3277,7
DA:3278,7
DA:3279,7
DA:3280,7
DA:3281,7
DA:3282,7
DA:3283,7
DA:3284,7
DA:3285,7
DA:3286,7
DA:3287,7
DA:3288,7
DA:3289,7
DA:3290,7
DA:3291,7
DA:3292,7
DA:3293,7
DA:3294,7
DA:3295,7
DA:3298,1
DA:3299,1
DA:3300,1
DA:3301,1
DA:3302,1
DA:3303,1
DA:3304,1
DA:3306,1
DA:3308,1
DA:3309,1
DA:3311,1
DA:3312,1
DA:3315,1
DA:3316,1
DA:3317,1
DA:3318,1
DA:3319,1
DA:3320,1
DA:3321,1
DA:3323,1
DA:3324,1
DA:3326,1
DA:3327,1
DA:3328,1
DA:3329,1
DA:3332,1
DA:3333,1
DA:3334,1
DA:3335,1
DA:3336,1
DA:3337,1
DA:3338,1
DA:3339,1
DA:3340,1
DA:3341,1
DA:3342,1
DA:3343,1
DA:3344,1
DA:3347,1
DA:3350,1
DA:3351,1
DA:3352,1
DA:3353,1
DA:3354,1
DA:3355,1
DA:3356,1
DA:3357,1
DA:3358,1
DA:3359,1
DA:3360,1
DA:3361,1
DA:3362,1
DA:3363,1
DA:3364,1
DA:3365,1
DA:3366,1
DA:3369,1
DA:3370,1
DA:3371,1
DA:3372,1
DA:3373,1
DA:3374,1
DA:3375,1
DA:3376,1
DA:3377,1
DA:3378,1
DA:3379,1
DA:3380,1
DA:3381,1
DA:3382,1
DA:3383,1
DA:3384,1
DA:3387,1
DA:3390,1
DA:3391,1
DA:3392,1
DA:3395,1
DA:3396,1
DA:3397,1
DA:3398,1
DA:3399,1
DA:3400,1
DA:3401,1
DA:3402,1
DA:3403,1
DA:3404,1
DA:3405,1
DA:3406,1
DA:3407,1
DA:3408,1
DA:3409,1
DA:3410,1
DA:3411,1
DA:3412,1
DA:3413,1
DA:3414,1
DA:3415,1
DA:3416,1
DA:3417,1
DA:3418,1
DA:3419,1
DA:3420,1
DA:3421,1
DA:3424,3
DA:3425,3
DA:3426,3
DA:3427,3
DA:3428,3
DA:3429,3
DA:3430,3
DA:3431,3
DA:3432,3
DA:3433,3
DA:3434,3
DA:3435,3
DA:3436,3
DA:3437,3
DA:3438,3
DA:3441,1
DA:3446,1
DA:3447,1
DA:3448,1
DA:3449,1
DA:3450,1
DA:3451,1
DA:3452,1
DA:3453,1
DA:3454,1
DA:3455,1
DA:3458,1
DA:3459,1
DA:3460,1
DA:3461,1
DA:3462,1
DA:3463,1
DA:3464,1
DA:3465,1
DA:3466,1
DA:3467,1
DA:3468,1
DA:3469,1
DA:3470,1
DA:3473,1
DA:3477,1
DA:3478,1
DA:3479,1
DA:3480,1
DA:3481,1
DA:3482,1
DA:3483,1
DA:3484,1
DA:3485,1
DA:3486,1
DA:3487,1
DA:3488,1
DA:3491,1
DA:3492,1
DA:3493,1
DA:3494,1
DA:3495,1
DA:3496,1
DA:3497,1
DA:3500,1
DA:3501,1
DA:3502,1
DA:3503,1
DA:3504,1
DA:3505,1
DA:3506,1
DA:3507,1
DA:3508,1
DA:3509,1
DA:3510,1
DA:3511,1
DA:3512,1
DA:3513,1
DA:3514,1
DA:3515,1
DA:3517,1
DA:3518,1
DA:3519,1
DA:3520,1
DA:3525,1
DA:3528,1
DA:3529,1
DA:3530,1
DA:3531,1
DA:3532,1
DA:3533,1
DA:3534,1
DA:3535,1
DA:3536,1
DA:3537,1
DA:3538,1
DA:3539,1
DA:3540,1
DA:3541,1
DA:3543,0
DA:3545,1
DA:3546,1
DA:3549,1
DA:3550,1
DA:3551,1
DA:3552,1
DA:3553,1
DA:3554,1
DA:3555,1
DA:3556,1
DA:3557,1
DA:3558,1
DA:3559,1
DA:3560,1
DA:3561,1
DA:3562,1
DA:3563,1
DA:3564,1
DA:3565,1
DA:3566,1
DA:3569,1
DA:3572,1
DA:3573,1
DA:3574,1
DA:3575,1
DA:3576,1
DA:3577,1
DA:3578,0
DA:3580,1
DA:3583,1
DA:3586,6
DA:3587,5
DA:3588,5
DA:3589,5
DA:3590,5
DA:3591,5
DA:3592,5
DA:3593,0
DA:3596,1
DA:3599,1
DA:3603,1
DA:3604,1
DA:3605,1
DA:3606,1
DA:3607,1
DA:3608,1
DA:3609,1
DA:3610,1
DA:3611,0
DA:3613,1
DA:3616,1
DA:3619,5
DA:3620,4
DA:3621,4
DA:3622,4
DA:3623,4
DA:3624,4
DA:3625,4
DA:3626,0
DA:3629,1
DA:3630,1
DA:3631,1
DA:3632,1
DA:3633,1
DA:3634,1
DA:3635,1
DA:3636,1
DA:3637,0
DA:3639,1
DA:3649,2
DA:3651,2
DA:3652,2
DA:3653,2
DA:3654,2
DA:3655,2
DA:3662,10
DA:3663,10
DA:3664,10
DA:3665,10
DA:3666,10
DA:3667,10
DA:3668,10
DA:3669,10
DA:3670,0
DA:3672,10
DA:3673,10
DA:3674,10
DA:3675,10
DA:3678,1
DA:3679,1
DA:3680,1
DA:3683,1
DA:3684,1
DA:3685,1
DA:3686,1
DA:3687,1
DA:3688,10
DA:3689,9
DA:3690,9
DA:3691,0
DA:3692,9
DA:3693,9
DA:3694,9
DA:3697,1
DA:3698,1
DA:3699,0
DA:3701,1
BRF:0
BRH:0
LF:2160
LH:1954
end_of_record