SF:/home/ubuntu/Code/s8-verifier/crates/lb-core/src/authority.rs
FN:94,_RNvNtCsgdBts1zkGS4_7lb_core9authority11port_suffix
FN:57,_RNvNtCsgdBts1zkGS4_7lb_core9authority8validate
FN:102,_RNCNvNtCsgdBts1zkGS4_7lb_core9authority11port_suffix0B5_
FN:72,_RNCNvNtCsgdBts1zkGS4_7lb_core9authority8validate0B5_
FN:85,_RNCNvNtCsgdBts1zkGS4_7lb_core9authority8validates0_0B5_
FN:73,_RNCNvNtCsgdBts1zkGS4_7lb_core9authority8validates_0B5_
FNDA:12,_RNvNtCsgdBts1zkGS4_7lb_core9authority11port_suffix
FNDA:12,_RNvNtCsgdBts1zkGS4_7lb_core9authority8validate
FNDA:228,_RNCNvNtCsgdBts1zkGS4_7lb_core9authority11port_suffix0B5_
FNDA:228,_RNCNvNtCsgdBts1zkGS4_7lb_core9authority8validate0B5_
FNDA:0,_RNCNvNtCsgdBts1zkGS4_7lb_core9authority8validates0_0B5_
FNDA:228,_RNCNvNtCsgdBts1zkGS4_7lb_core9authority8validates_0B5_
FNF:6
FNH:5
DA:57,12
DA:58,12
DA:59,0
DA:60,12
DA:61,228
DA:62,228
DA:63,0
DA:64,0
DA:65,228
DA:66,228
DA:72,228
DA:73,228
DA:74,12
DA:75,0
DA:76,12
DA:81,12
DA:82,0
DA:83,0
DA:84,0
DA:85,0
DA:86,0
DA:87,0
DA:88,12
DA:89,12
DA:90,12
DA:94,12
DA:96,12
DA:97,0
DA:98,0
DA:99,12
DA:100,12
DA:101,12
DA:102,228
DA:103,12
DA:104,12
DA:105,0
DA:106,0
DA:107,0
DA:108,12
BRF:0
BRH:0
LF:43
LH:27
end_of_record
SF:/home/ubuntu/Code/s8-verifier/crates/lb-core/src/shutdown.rs
FN:722,_RNCNvNtCsgdBts1zkGS4_7lb_core8shutdown13jitter_millis0B5_
FNDA:0,_RNCNvNtCsgdBts1zkGS4_7lb_core8shutdown13jitter_millis0B5_
FNF:1
FNH:0
DA:722,0
BRF:0
BRH:0
LF:1
LH:0
end_of_record
SF:/home/ubuntu/Code/s8-verifier/crates/lb-grpc/src/deadline.rs
FN:29,_RNvMNtCs89ePBhylGLd_7lb_grpc8deadlineNtB2_12GrpcDeadline13parse_timeout
FN:66,_RNvMNtCs89ePBhylGLd_7lb_grpc8deadlineNtB2_12GrpcDeadline14format_timeout
FN:88,_RNvMNtCs89ePBhylGLd_7lb_grpc8deadlineNtB2_12GrpcDeadline9remaining
FN:43,_RNCNvMNtCs89ePBhylGLd_7lb_grpc8deadlineNtB4_12GrpcDeadline13parse_timeout0B6_
FNDA:0,_RNvMNtCs89ePBhylGLd_7lb_grpc8deadlineNtB2_12GrpcDeadline13parse_timeout
FNDA:0,_RNvMNtCs89ePBhylGLd_7lb_grpc8deadlineNtB2_12GrpcDeadline14format_timeout
FNDA:0,_RNvMNtCs89ePBhylGLd_7lb_grpc8deadlineNtB2_12GrpcDeadline9remaining
FNDA:0,_RNCNvMNtCs89ePBhylGLd_7lb_grpc8deadlineNtB4_12GrpcDeadline13parse_timeout0B6_
FNF:4
FNH:0
DA:29,0
DA:30,0
DA:31,0
DA:32,0
DA:33,0
DA:34,0
DA:35,0
DA:36,0
DA:37,0
DA:38,0
DA:39,0
DA:41,0
DA:42,0
DA:43,0
DA:48,0
DA:49,0
DA:50,0
DA:51,0
DA:52,0
DA:53,0
DA:54,0
DA:55,0
DA:58,0
DA:59,0
DA:66,0
DA:67,0
DA:68,0
DA:69,0
DA:70,0
DA:71,0
DA:72,0
DA:73,0
DA:74,0
DA:75,0
DA:76,0
DA:77,0
DA:78,0
DA:79,0
DA:80,0
DA:81,0
DA:82,0
DA:88,0
DA:89,0
DA:90,0
DA:91,0
DA:92,0
DA:93,0
BRF:0
BRH:0
LF:48
LH:0
end_of_record
SF:/home/ubuntu/Code/s8-verifier/crates/lb-grpc/src/frame.rs
FN:44,_RNvNtCs89ePBhylGLd_7lb_grpc5frame17decode_grpc_frame
FN:99,_RNvNtCs89ePBhylGLd_7lb_grpc5frame17encode_grpc_frame
FN:100,_RNCNvNtCs89ePBhylGLd_7lb_grpc5frame17encode_grpc_frame0B5_
FNDA:0,_RNvNtCs89ePBhylGLd_7lb_grpc5frame17decode_grpc_frame
FNDA:0,_RNvNtCs89ePBhylGLd_7lb_grpc5frame17encode_grpc_frame
FNDA:0,_RNCNvNtCs89ePBhylGLd_7lb_grpc5frame17encode_grpc_frame0B5_
FNF:3
FNH:0
DA:44,0
DA:45,0
DA:46,0
DA:47,0
DA:48,0
DA:49,0
DA:50,0
DA:53,0
DA:54,0
DA:55,0
DA:56,0
DA:57,0
DA:58,0
DA:59,0
DA:60,0
DA:65,0
DA:66,0
DA:67,0
DA:68,0
DA:69,0
DA:71,0
DA:72,0
DA:73,0
DA:74,0
DA:75,0
DA:76,0
DA:77,0
DA:78,0
DA:79,0
DA:80,0
DA:81,0
DA:82,0
DA:83,0
DA:84,0
DA:86,0
DA:87,0
DA:88,0
DA:91,0
DA:92,0
DA:99,0
DA:100,0
DA:101,0
DA:102,0
DA:104,0
DA:105,0
DA:106,0
DA:107,0
DA:108,0
DA:109,0
DA:110,0
BRF:0
BRH:0
LF:52
LH:0
end_of_record
SF:/home/ubuntu/Code/s8-verifier/crates/lb-grpc/src/status.rs
FN:81,_RNvMNtCs89ePBhylGLd_7lb_grpc6statusNtB2_10GrpcStatus14to_http_status
FN:102,_RNvMNtCs89ePBhylGLd_7lb_grpc6statusNtB2_10GrpcStatus16from_http_status
FN:54,_RNvMNtCs89ePBhylGLd_7lb_grpc6statusNtB2_10GrpcStatus9from_code
FNDA:0,_RNvMNtCs89ePBhylGLd_7lb_grpc6statusNtB2_10GrpcStatus14to_http_status
FNDA:0,_RNvMNtCs89ePBhylGLd_7lb_grpc6statusNtB2_10GrpcStatus16from_http_status
FNDA:0,_RNvMNtCs89ePBhylGLd_7lb_grpc6statusNtB2_10GrpcStatus9from_code
FNF:3
FNH:0
DA:54,0
DA:55,0
DA:56,0
DA:57,0
DA:58,0
DA:59,0
DA:60,0
DA:61,0
DA:62,0
DA:63,0
DA:64,0
DA:65,0
DA:66,0
DA:67,0
DA:68,0
DA:69,0
DA:70,0
DA:71,0
DA:72,0
DA:73,0
DA:75,0
DA:81,0
DA:82,0
DA:83,0
DA:84,0
DA:85,0
DA:86,0
DA:87,0
DA:88,0
DA:89,0
DA:90,0
DA:91,0
DA:92,0
DA:93,0
DA:94,0
DA:96,0
DA:102,0
DA:103,0
DA:104,0
DA:105,0
DA:106,0
DA:107,0
DA:108,0
DA:109,0
DA:110,0
DA:111,0
DA:112,0
DA:114,0
BRF:0
BRH:0
LF:48
LH:0
end_of_record
SF:/home/ubuntu/Code/s8-verifier/crates/lb-h2/src/frame.rs
FN:140,_RNCNvNtCseXyJWoI8AqR_5lb_h25frame13strip_padding0B5_
FN:153,_RNCNvNtCseXyJWoI8AqR_5lb_h25frame13strip_paddings_0B5_
FN:253,_RNCNvNtCseXyJWoI8AqR_5lb_h25frame16decode_frame_low0B5_
FNDA:0,_RNCNvNtCseXyJWoI8AqR_5lb_h25frame13strip_padding0B5_
FNDA:0,_RNCNvNtCseXyJWoI8AqR_5lb_h25frame13strip_paddings_0B5_
FNDA:0,_RNCNvNtCseXyJWoI8AqR_5lb_h25frame16decode_frame_low0B5_
FNF:3
FNH:0
DA:140,0
DA:153,0
DA:253,0
BRF:0
BRH:0
LF:3
LH:0
end_of_record
SF:/home/ubuntu/Code/s8-verifier/crates/lb-h2/src/hpack.rs
FN:192,_RNCNvMNtCseXyJWoI8AqR_5lb_h25hpackNtB4_12DynamicTable3get0B6_
FN:324,_RNCNvNtCseXyJWoI8AqR_5lb_h25hpack13decode_string0B5_
FN:257,_RNCNvNtCseXyJWoI8AqR_5lb_h25hpack14find_in_tables0B5_
FN:214,_RNCNvNtCseXyJWoI8AqR_5lb_h25hpack9table_get0B5_
FN:220,_RNCNvNtCseXyJWoI8AqR_5lb_h25hpack9table_gets_0B5_
FNDA:0,_RNCNvMNtCseXyJWoI8AqR_5lb_h25hpackNtB4_12DynamicTable3get0B6_
FNDA:0,_RNCNvNtCseXyJWoI8AqR_5lb_h25hpack13decode_string0B5_
FNDA:0,_RNCNvNtCseXyJWoI8AqR_5lb_h25hpack14find_in_tables0B5_
FNDA:0,_RNCNvNtCseXyJWoI8AqR_5lb_h25hpack9table_get0B5_
FNDA:0,_RNCNvNtCseXyJWoI8AqR_5lb_h25hpack9table_gets_0B5_
FNF:5
FNH:0
DA:192,0
DA:214,0
DA:220,0
DA:257,0
DA:324,0
BRF:0
BRH:0
LF:5
LH:0
end_of_record
SF:/home/ubuntu/Code/s8-verifier/crates/lb-h2/src/security.rs
FN:418,_RNCNvMs3_NtCseXyJWoI8AqR_5lb_h28securityNtB7_23ZeroWindowStallDetector13check_stalled0B9_
FNDA:0,_RNCNvMs3_NtCseXyJWoI8AqR_5lb_h28securityNtB7_23ZeroWindowStallDetector13check_stalled0B9_
FNF:1
FNH:0
DA:418,0
BRF:0
BRH:0
LF:1
LH:0
end_of_record
SF:/home/ubuntu/Code/s8-verifier/crates/lb-h3/src/frame.rs
FN:84,_RNvNtCs8yjlOoneUIw_5lb_h35frame12decode_frame
FN:159,_RNvNtCs8yjlOoneUIw_5lb_h35frame12encode_frame
FN:98,_RNCNvNtCs8yjlOoneUIw_5lb_h35frame12decode_frame0B5_
FNDA:0,_RNvNtCs8yjlOoneUIw_5lb_h35frame12decode_frame
FNDA:0,_RNvNtCs8yjlOoneUIw_5lb_h35frame12encode_frame
FNDA:0,_RNCNvNtCs8yjlOoneUIw_5lb_h35frame12decode_frame0B5_
FNF:3
FNH:0
DA:84,0
DA:85,0
DA:86,0
DA:87,0
DA:89,0
DA:90,0
DA:91,0
DA:92,0
DA:93,0
DA:94,0
DA:95,0
DA:96,0
DA:97,0
DA:98,0
DA:99,0
DA:101,0
DA:103,0
DA:104,0
DA:105,0
DA:106,0
DA:107,0
DA:108,0
DA:109,0
DA:111,0
DA:112,0
DA:115,0
DA:116,0
DA:117,0
DA:118,0
DA:119,0
DA:120,0
DA:121,0
DA:122,0
DA:123,0
DA:125,0
DA:128,0
DA:129,0
DA:130,0
DA:131,0
DA:132,0
DA:133,0
DA:136,0
DA:137,0
DA:140,0
DA:141,0
DA:144,0
DA:145,0
DA:146,0
DA:147,0
DA:150,0
DA:151,0
DA:159,0
DA:160,0
DA:161,0
DA:162,0
DA:163,0
DA:164,0
DA:165,0
DA:166,0
DA:168,0
DA:169,0
DA:170,0
DA:171,0
DA:173,0
DA:174,0
DA:175,0
DA:176,0
DA:177,0
DA:178,0
DA:180,0
DA:181,0
DA:182,0
DA:183,0
DA:184,0
DA:186,0
DA:187,0
DA:188,0
DA:191,0
DA:192,0
DA:193,0
DA:194,0
DA:195,0
DA:196,0
DA:197,0
DA:198,0
DA:199,0
DA:201,0
DA:202,0
DA:203,0
DA:204,0
DA:205,0
DA:206,0
DA:208,0
DA:209,0
DA:210,0
DA:211,0
DA:212,0
DA:213,0
DA:216,0
DA:217,0
DA:218,0
DA:219,0
DA:220,0
DA:221,0
DA:225,0
DA:226,0
BRF:0
BRH:0
LF:107
LH:0
end_of_record
SF:/home/ubuntu/Code/s8-verifier/crates/lb-h3/src/qpack.rs
FN:304,_RNCNvMs0_NtCs8yjlOoneUIw_5lb_h35qpackNtB7_12QpackDecoder6decode0B9_
FN:319,_RNCNvMs0_NtCs8yjlOoneUIw_5lb_h35qpackNtB7_12QpackDecoder6decodes_0B9_
FN:137,_RNCNvNtCs8yjlOoneUIw_5lb_h35qpack11find_static0B5_
FN:198,_RNCNvNtCs8yjlOoneUIw_5lb_h35qpack14decode_qstring0B5_
FN:211,_RNvMNtCs8yjlOoneUIw_5lb_h35qpackNtB2_12QpackEncoder3new
FN:223,_RNvMNtCs8yjlOoneUIw_5lb_h35qpackNtB2_12QpackEncoder6encode
FN:270,_RNvMs0_NtCs8yjlOoneUIw_5lb_h35qpackNtB5_12QpackDecoder3new
FN:279,_RNvMs0_NtCs8yjlOoneUIw_5lb_h35qpackNtB5_12QpackDecoder6decode
FN:161,_RNvNtCs8yjlOoneUIw_5lb_h35qpack11decode_qint
FN:142,_RNvNtCs8yjlOoneUIw_5lb_h35qpack11encode_qint
FN:125,_RNvNtCs8yjlOoneUIw_5lb_h35qpack11find_static
FN:192,_RNvNtCs8yjlOoneUIw_5lb_h35qpack14decode_qstring
FN:187,_RNvNtCs8yjlOoneUIw_5lb_h35qpack14encode_qstring
FN:356,_RNvXs1_NtCs8yjlOoneUIw_5lb_h35qpackNtB5_12QpackDecoderNtNtCs2va5m0jqTTM_4core7default7Default7default
FN:256,_RNvXs_NtCs8yjlOoneUIw_5lb_h35qpackNtB4_12QpackEncoderNtNtCs2va5m0jqTTM_4core7default7Default7default
FNDA:0,_RNCNvMs0_NtCs8yjlOoneUIw_5lb_h35qpackNtB7_12QpackDecoder6decode0B9_
FNDA:0,_RNCNvMs0_NtCs8yjlOoneUIw_5lb_h35qpackNtB7_12QpackDecoder6decodes_0B9_
FNDA:0,_RNCNvNtCs8yjlOoneUIw_5lb_h35qpack11find_static0B5_
FNDA:0,_RNCNvNtCs8yjlOoneUIw_5lb_h35qpack14decode_qstring0B5_
FNDA:0,_RNvMNtCs8yjlOoneUIw_5lb_h35qpackNtB2_12QpackEncoder3new
FNDA:0,_RNvMNtCs8yjlOoneUIw_5lb_h35qpackNtB2_12QpackEncoder6encode
FNDA:0,_RNvMs0_NtCs8yjlOoneUIw_5lb_h35qpackNtB5_12QpackDecoder3new
FNDA:0,_RNvMs0_NtCs8yjlOoneUIw_5lb_h35qpackNtB5_12QpackDecoder6decode
FNDA:0,_RNvNtCs8yjlOoneUIw_5lb_h35qpack11decode_qint
FNDA:0,_RNvNtCs8yjlOoneUIw_5lb_h35qpack11encode_qint
FNDA:0,_RNvNtCs8yjlOoneUIw_5lb_h35qpack11find_static
FNDA:0,_RNvNtCs8yjlOoneUIw_5lb_h35qpack14decode_qstring
FNDA:0,_RNvNtCs8yjlOoneUIw_5lb_h35qpack14encode_qstring
FNDA:0,_RNvXs1_NtCs8yjlOoneUIw_5lb_h35qpackNtB5_12QpackDecoderNtNtCs2va5m0jqTTM_4core7default7Default7default
FNDA:0,_RNvXs_NtCs8yjlOoneUIw_5lb_h35qpackNtB4_12QpackEncoderNtNtCs2va5m0jqTTM_4core7default7Default7default
FNF:15
FNH:0
DA:125,0
DA:126,0
DA:127,0
DA:128,0
DA:129,0
DA:130,0
DA:131,0
DA:132,0
DA:133,0
DA:134,0
DA:135,0
DA:137,0
DA:138,0
DA:142,0
DA:143,0
DA:144,0
DA:145,0
DA:146,0
DA:147,0
DA:149,0
DA:150,0
DA:151,0
DA:152,0
DA:153,0
DA:154,0
DA:155,0
DA:157,0
DA:159,0
DA:161,0
DA:162,0
DA:163,0
DA:164,0
DA:165,0
DA:166,0
DA:167,0
DA:168,0
DA:169,0
DA:170,0
DA:171,0
DA:173,0
DA:174,0
DA:175,0
DA:176,0
DA:177,0
DA:178,0
DA:179,0
DA:180,0
DA:181,0
DA:182,0
DA:184,0
DA:185,0
DA:187,0
DA:188,0
DA:189,0
DA:190,0
DA:192,0
DA:193,0
DA:194,0
DA:195,0
DA:196,0
DA:197,0
DA:198,0
DA:199,0
DA:200,0
DA:211,0
DA:212,0
DA:213,0
DA:223,0
DA:224,0
DA:225,0
DA:226,0
DA:227,0
DA:228,0
DA:229,0
DA:231,0
DA:232,0
DA:233,0
DA:234,0
DA:235,0
DA:236,0
DA:237,0
DA:238,0
DA:239,0
DA:240,0
DA:241,0
DA:242,0
DA:243,0
DA:244,0
DA:245,0
DA:246,0
DA:247,0
DA:251,0
DA:252,0
DA:256,0
DA:257,0
DA:258,0
DA:270,0
DA:271,0
DA:272,0
DA:279,0
DA:280,0
DA:281,0
DA:282,0
DA:284,0
DA:285,0
DA:286,0
DA:287,0
DA:288,0
DA:289,0
DA:290,0
DA:291,0
DA:293,0
DA:294,0
DA:296,0
DA:298,0
DA:299,0
DA:300,0
DA:302,0
DA:303,0
DA:304,0
DA:305,0
DA:306,0
DA:308,0
DA:309,0
DA:310,0
DA:311,0
DA:313,0
DA:314,0
DA:315,0
DA:317,0
DA:318,0
DA:319,0
DA:320,0
DA:322,0
DA:323,0
DA:324,0
DA:325,0
DA:326,0
DA:327,0
DA:329,0
DA:330,0
DA:331,0
DA:332,0
DA:334,0
DA:335,0
DA:336,0
DA:337,0
DA:339,0
DA:340,0
DA:341,0
DA:342,0
DA:343,0
DA:345,0
DA:346,0
DA:347,0
DA:351,0
DA:352,0
DA:356,0
DA:357,0
DA:358,0
BRF:0
BRH:0
LF:164
LH:0
end_of_record
SF:/home/ubuntu/Code/s8-verifier/crates/lb-h3/src/varint.rs
FN:27,_RNvNtCs8yjlOoneUIw_5lb_h36varint13decode_varint
FN:68,_RNvNtCs8yjlOoneUIw_5lb_h36varint13encode_varint
FNDA:0,_RNvNtCs8yjlOoneUIw_5lb_h36varint13decode_varint
FNDA:0,_RNvNtCs8yjlOoneUIw_5lb_h36varint13encode_varint
FNF:2
FNH:0
DA:27,0
DA:28,0
DA:29,0
DA:30,0
DA:31,0
DA:33,0
DA:34,0
DA:37,0
DA:38,0
DA:39,0
DA:42,0
DA:43,0
DA:44,0
DA:45,0
DA:46,0
DA:47,0
DA:48,0
DA:49,0
DA:52,0
DA:53,0
DA:54,0
DA:55,0
DA:57,0
DA:59,0
DA:61,0
DA:68,0
DA:69,0
DA:70,0
DA:71,0
DA:72,0
DA:73,0
DA:75,0
DA:76,0
DA:77,0
DA:79,0
DA:80,0
DA:81,0
DA:82,0
DA:84,0
DA:85,0
DA:86,0
DA:88,0
DA:89,0
DA:90,0
DA:92,0
BRF:0
BRH:0
LF:45
LH:0
end_of_record
SF:/home/ubuntu/Code/s8-verifier/crates/lb-io/src/dns.rs
FN:143,_RNvMs1_NtCs4GBZUaiPV4D_5lb_io3dnsNtB5_8CacheKey8from_ref
FN:219,_RNvMs4_NtCs4GBZUaiPV4D_5lb_io3dnsNtB5_11DnsResolver10cache_size
FN:311,_RNvMs4_NtCs4GBZUaiPV4D_5lb_io3dnsNtB5_11DnsResolver11materialize
FN:354,_RNvMs4_NtCs4GBZUaiPV4D_5lb_io3dnsNtB5_11DnsResolver11refresh_all
FN:206,_RNvMs4_NtCs4GBZUaiPV4D_5lb_io3dnsNtB5_11DnsResolver13with_resolver
FN:268,_RNvMs4_NtCs4GBZUaiPV4D_5lb_io3dnsNtB5_11DnsResolver15fill_and_return
FN:328,_RNvMs4_NtCs4GBZUaiPV4D_5lb_io3dnsNtB5_11DnsResolver24spawn_background_refresh
FN:193,_RNvMs4_NtCs4GBZUaiPV4D_5lb_io3dnsNtB5_11DnsResolver3new
FN:235,_RNvMs4_NtCs4GBZUaiPV4D_5lb_io3dnsNtB5_11DnsResolver7resolve
FN:118,_RNvMs_NtCs4GBZUaiPV4D_5lb_io3dnsNtB4_10CacheEntry10is_expired
FN:122,_RNvMs_NtCs4GBZUaiPV4D_5lb_io3dnsNtB4_10CacheEntry11set_expires
FN:111,_RNvMs_NtCs4GBZUaiPV4D_5lb_io3dnsNtB4_10CacheEntry3new
FN:367,_RNvNtCs4GBZUaiPV4D_5lb_io3dns13io_err_to_dns
FN:157,_RNvNtCs4GBZUaiPV4D_5lb_io3dns15system_resolver
FN:66,_RNvXNtCs4GBZUaiPV4D_5lb_io3dnsNtB2_14ResolverConfigNtNtCs2va5m0jqTTM_4core7default7Default7default
FN:176,_RNvXs2_NtCs4GBZUaiPV4D_5lb_io3dnsNtB5_11DnsResolverNtNtCs2va5m0jqTTM_4core3fmt5Debug3fmt
FN:185,_RNvXs3_NtCs4GBZUaiPV4D_5lb_io3dnsNtB5_11DnsResolverNtNtCs2va5m0jqTTM_4core7default7Default7default
FN:136,_RINvXs0_NtCs4GBZUaiPV4D_5lb_io3dnsNtB6_8CacheKeyNtNtCs2va5m0jqTTM_4core4hash4Hash4hashNtNtNtCs3kAxCWUtVg2_3std4hash6random13DefaultHasherEB8_
FN:283,_RNCNCNCNCNvMs4_NtCs4GBZUaiPV4D_5lb_io3dnsNtBd_11DnsResolver15fill_and_return0000Bf_
FN:281,_RNCNCNCNvMs4_NtCs4GBZUaiPV4D_5lb_io3dnsNtBb_11DnsResolver15fill_and_return000Bd_
FN:358,_RNCNCNvMs4_NtCs4GBZUaiPV4D_5lb_io3dnsNtB9_11DnsResolver11refresh_all00Bb_
FN:305,_RNCNCNvMs4_NtCs4GBZUaiPV4D_5lb_io3dnsNtB9_11DnsResolver15fill_and_return00Bb_
FN:354,_RNCNvMs4_NtCs4GBZUaiPV4D_5lb_io3dnsNtB7_11DnsResolver11refresh_all0B9_
FN:273,_RNCNvMs4_NtCs4GBZUaiPV4D_5lb_io3dnsNtB7_11DnsResolver15fill_and_return0B9_
FN:337,_RNCNvMs4_NtCs4GBZUaiPV4D_5lb_io3dnsNtB7_11DnsResolver24spawn_background_refresh0B9_
FN:340,_RNCNvMs4_NtCs4GBZUaiPV4D_5lb_io3dnsNtB7_11DnsResolver24spawn_background_refreshs_0B9_
FN:241,_RNCNCNvMs4_NtCs4GBZUaiPV4D_5lb_io3dnsNtB9_11DnsResolver7resolve00Bb_
FN:235,_RNCNvMs4_NtCs4GBZUaiPV4D_5lb_io3dnsNtB7_11DnsResolver7resolve0B9_
FNDA:0,_RNvMs1_NtCs4GBZUaiPV4D_5lb_io3dnsNtB5_8CacheKey8from_ref
FNDA:0,_RNvMs4_NtCs4GBZUaiPV4D_5lb_io3dnsNtB5_11DnsResolver10cache_size
FNDA:0,_RNvMs4_NtCs4GBZUaiPV4D_5lb_io3dnsNtB5_11DnsResolver11materialize
FNDA:0,_RNvMs4_NtCs4GBZUaiPV4D_5lb_io3dnsNtB5_11DnsResolver11refresh_all
FNDA:0,_RNvMs4_NtCs4GBZUaiPV4D_5lb_io3dnsNtB5_11DnsResolver13with_resolver
FNDA:0,_RNvMs4_NtCs4GBZUaiPV4D_5lb_io3dnsNtB5_11DnsResolver15fill_and_return
FNDA:0,_RNvMs4_NtCs4GBZUaiPV4D_5lb_io3dnsNtB5_11DnsResolver24spawn_background_refresh
FNDA:0,_RNvMs4_NtCs4GBZUaiPV4D_5lb_io3dnsNtB5_11DnsResolver3new
FNDA:0,_RNvMs4_NtCs4GBZUaiPV4D_5lb_io3dnsNtB5_11DnsResolver7resolve
FNDA:0,_RNvMs_NtCs4GBZUaiPV4D_5lb_io3dnsNtB4_10CacheEntry10is_expired
FNDA:0,_RNvMs_NtCs4GBZUaiPV4D_5lb_io3dnsNtB4_10CacheEntry11set_expires
FNDA:0,_RNvMs_NtCs4GBZUaiPV4D_5lb_io3dnsNtB4_10CacheEntry3new
FNDA:0,_RNvNtCs4GBZUaiPV4D_5lb_io3dns13io_err_to_dns
FNDA:0,_RNvNtCs4GBZUaiPV4D_5lb_io3dns15system_resolver
FNDA:0,_RNvXNtCs4GBZUaiPV4D_5lb_io3dnsNtB2_14ResolverConfigNtNtCs2va5m0jqTTM_4core7default7Default7default
FNDA:0,_RNvXs2_NtCs4GBZUaiPV4D_5lb_io3dnsNtB5_11DnsResolverNtNtCs2va5m0jqTTM_4core3fmt5Debug3fmt
FNDA:0,_RNvXs3_NtCs4GBZUaiPV4D_5lb_io3dnsNtB5_11DnsResolverNtNtCs2va5m0jqTTM_4core7default7Default7default
FNDA:0,_RINvXs0_NtCs4GBZUaiPV4D_5lb_io3dnsNtB6_8CacheKeyNtNtCs2va5m0jqTTM_4core4hash4Hash4hashNtNtNtCs3kAxCWUtVg2_3std4hash6random13DefaultHasherEB8_
FNDA:0,_RNCNCNCNCNvMs4_NtCs4GBZUaiPV4D_5lb_io3dnsNtBd_11DnsResolver15fill_and_return0000Bf_
FNDA:0,_RNCNCNCNvMs4_NtCs4GBZUaiPV4D_5lb_io3dnsNtBb_11DnsResolver15fill_and_return000Bd_
FNDA:0,_RNCNCNvMs4_NtCs4GBZUaiPV4D_5lb_io3dnsNtB9_11DnsResolver11refresh_all00Bb_
FNDA:0,_RNCNCNvMs4_NtCs4GBZUaiPV4D_5lb_io3dnsNtB9_11DnsResolver15fill_and_return00Bb_
FNDA:0,_RNCNvMs4_NtCs4GBZUaiPV4D_5lb_io3dnsNtB7_11DnsResolver11refresh_all0B9_
FNDA:0,_RNCNvMs4_NtCs4GBZUaiPV4D_5lb_io3dnsNtB7_11DnsResolver15fill_and_return0B9_
FNDA:0,_RNCNvMs4_NtCs4GBZUaiPV4D_5lb_io3dnsNtB7_11DnsResolver24spawn_background_refresh0B9_
FNDA:0,_RNCNvMs4_NtCs4GBZUaiPV4D_5lb_io3dnsNtB7_11DnsResolver24spawn_background_refreshs_0B9_
FNDA:0,_RNCNCNvMs4_NtCs4GBZUaiPV4D_5lb_io3dnsNtB9_11DnsResolver7resolve00Bb_
FNDA:0,_RNCNvMs4_NtCs4GBZUaiPV4D_5lb_io3dnsNtB7_11DnsResolver7resolve0B9_
FNF:28
FNH:0
DA:66,0
DA:67,0
DA:68,0
DA:69,0
DA:70,0
DA:71,0
DA:72,0
DA:111,0
DA:112,0
DA:113,0
DA:114,0
DA:115,0
DA:116,0
DA:118,0
DA:119,0
DA:120,0
DA:122,0
DA:123,0
DA:124,0
DA:136,0
DA:137,0
DA:138,0
DA:139,0
DA:143,0
DA:144,0
DA:145,0
DA:146,0
DA:147,0
DA:148,0
DA:157,0
DA:158,0
DA:159,0
DA:160,0
DA:176,0
DA:177,0
DA:178,0
DA:179,0
DA:180,0
DA:181,0
DA:185,0
DA:186,0
DA:187,0
DA:193,0
DA:194,0
DA:195,0
DA:196,0
DA:197,0
DA:198,0
DA:199,0
DA:200,0
DA:201,0
DA:202,0
DA:206,0
DA:207,0
DA:208,0
DA:209,0
DA:210,0
DA:211,0
DA:212,0
DA:213,0
DA:214,0
DA:215,0
DA:219,0
DA:220,0
DA:221,0
DA:235,0
DA:236,0
DA:237,0
DA:238,0
DA:239,0
DA:240,0
DA:241,0
DA:242,0
DA:243,0
DA:244,0
DA:245,0
DA:246,0
DA:247,0
DA:248,0
DA:249,0
DA:250,0
DA:251,0
DA:252,0
DA:253,0
DA:254,0
DA:260,0
DA:261,0
DA:262,0
DA:263,0
DA:264,0
DA:265,0
DA:266,0
DA:268,0
DA:269,0
DA:270,0
DA:271,0
DA:272,0
DA:273,0
DA:274,0
DA:275,0
DA:276,0
DA:277,0
DA:279,0
DA:280,0
DA:281,0
DA:282,0
DA:283,0
DA:285,0
DA:286,0
DA:287,0
DA:288,0
DA:289,0
DA:290,0
DA:291,0
DA:292,0
DA:293,0
DA:294,0
DA:296,0
DA:299,0
DA:300,0
DA:301,0
DA:303,0
DA:304,0
DA:305,0
DA:306,0
DA:308,0
DA:309,0
DA:311,0
DA:312,0
DA:313,0
DA:314,0
DA:315,0
DA:316,0
DA:317,0
DA:318,0
DA:320,0
DA:328,0
DA:329,0
DA:330,0
DA:331,0
DA:332,0
DA:333,0
DA:334,0
DA:335,0
DA:337,0
DA:338,0
DA:339,0
DA:340,0
DA:341,0
DA:342,0
DA:343,0
DA:344,0
DA:346,0
DA:347,0
DA:349,0
DA:350,0
DA:354,0
DA:355,0
DA:356,0
DA:357,0
DA:358,0
DA:359,0
DA:360,0
DA:361,0
DA:362,0
DA:364,0
DA:367,0
DA:368,0
DA:369,0
DA:370,0
DA:371,0
DA:372,0
DA:373,0
DA:374,0
DA:375,0
DA:376,0
DA:377,0
DA:378,0
DA:380,0
DA:381,0
DA:382,0
DA:383,0
DA:385,0
BRF:0
BRH:0
LF:194
LH:0
end_of_record
SF:/home/ubuntu/Code/s8-verifier/crates/lb-io/src/http2_pool.rs
FN:300,_RNCNCNvMs2_NtCs4GBZUaiPV4D_5lb_io10http2_poolNtB9_9Http2Pool18dial_and_handshake00Cs5ctNHRYimvA_7lb_quic
FN:318,_RNCNCNvMs2_NtCs4GBZUaiPV4D_5lb_io10http2_poolNtB9_9Http2Pool18dial_and_handshake0s0_0Cs5ctNHRYimvA_7lb_quic
FN:316,_RNCNCNvMs2_NtCs4GBZUaiPV4D_5lb_io10http2_poolNtB9_9Http2Pool18dial_and_handshake0s_0Cs5ctNHRYimvA_7lb_quic
FN:229,_RNCNvMs2_NtCs4GBZUaiPV4D_5lb_io10http2_poolNtB7_9Http2Pool12send_request0Cs5ctNHRYimvA_7lb_quic
FN:255,_RNCNvMs2_NtCs4GBZUaiPV4D_5lb_io10http2_poolNtB7_9Http2Pool14acquire_sender0Cs5ctNHRYimvA_7lb_quic
FN:293,_RNCNvMs2_NtCs4GBZUaiPV4D_5lb_io10http2_poolNtB7_9Http2Pool18dial_and_handshake0Cs5ctNHRYimvA_7lb_quic
FN:194,_RNvMs2_NtCs4GBZUaiPV4D_5lb_io10http2_poolNtB5_9Http2Pool10peer_count
FN:225,_RNvMs2_NtCs4GBZUaiPV4D_5lb_io10http2_poolNtB5_9Http2Pool12send_request
FN:280,_RNvMs2_NtCs4GBZUaiPV4D_5lb_io10http2_poolNtB5_9Http2Pool13replace_entry
FN:252,_RNvMs2_NtCs4GBZUaiPV4D_5lb_io10http2_poolNtB5_9Http2Pool14acquire_sender
FN:268,_RNvMs2_NtCs4GBZUaiPV4D_5lb_io10http2_poolNtB5_9Http2Pool17take_alive_sender
FN:290,_RNvMs2_NtCs4GBZUaiPV4D_5lb_io10http2_poolNtB5_9Http2Pool18dial_and_handshake
FN:182,_RNvMs2_NtCs4GBZUaiPV4D_5lb_io10http2_poolNtB5_9Http2Pool3new
FN:285,_RNvMs2_NtCs4GBZUaiPV4D_5lb_io10http2_poolNtB5_9Http2Pool5evict
FN:125,_RNvMs_NtCs4GBZUaiPV4D_5lb_io10http2_poolNtB4_9PeerEntry8is_alive
FN:333,_RNvNtCs4GBZUaiPV4D_5lb_io10http2_pool20collect_body_bounded
FN:107,_RNvXNtCs4GBZUaiPV4D_5lb_io10http2_poolNtB2_15Http2PoolConfigNtNtCs2va5m0jqTTM_4core7default7Default7default
FN:169,_RNvXs1_NtCs4GBZUaiPV4D_5lb_io10http2_poolNtB5_9Http2PoolNtNtCs2va5m0jqTTM_4core3fmt5Debug3fmt
FN:131,_RNvXs0_NtCs4GBZUaiPV4D_5lb_io10http2_poolNtB5_9PeerEntryNtNtNtCs2va5m0jqTTM_4core3ops4drop4Drop4drop
FN:300,_RNCNCNvMs2_NtCs4GBZUaiPV4D_5lb_io10http2_poolNtB9_9Http2Pool18dial_and_handshake00Bb_
FN:318,_RNCNCNvMs2_NtCs4GBZUaiPV4D_5lb_io10http2_poolNtB9_9Http2Pool18dial_and_handshake0s0_0Bb_
FN:316,_RNCNCNvMs2_NtCs4GBZUaiPV4D_5lb_io10http2_poolNtB9_9Http2Pool18dial_and_handshake0s_0Bb_
FN:337,_RNCNCNvNtCs4GBZUaiPV4D_5lb_io10http2_pool20collect_body_bounded00B7_
FN:229,_RNCNvMs2_NtCs4GBZUaiPV4D_5lb_io10http2_poolNtB7_9Http2Pool12send_request0B9_
FN:255,_RNCNvMs2_NtCs4GBZUaiPV4D_5lb_io10http2_poolNtB7_9Http2Pool14acquire_sender0B9_
FN:293,_RNCNvMs2_NtCs4GBZUaiPV4D_5lb_io10http2_poolNtB7_9Http2Pool18dial_and_handshake0B9_
FN:333,_RNCNvNtCs4GBZUaiPV4D_5lb_io10http2_pool20collect_body_bounded0B5_
FNDA:0,_RNCNCNvMs2_NtCs4GBZUaiPV4D_5lb_io10http2_poolNtB9_9Http2Pool18dial_and_handshake00Cs5ctNHRYimvA_7lb_quic
FNDA:0,_RNCNCNvMs2_NtCs4GBZUaiPV4D_5lb_io10http2_poolNtB9_9Http2Pool18dial_and_handshake0s0_0Cs5ctNHRYimvA_7lb_quic
FNDA:0,_RNCNCNvMs2_NtCs4GBZUaiPV4D_5lb_io10http2_poolNtB9_9Http2Pool18dial_and_handshake0s_0Cs5ctNHRYimvA_7lb_quic
FNDA:0,_RNCNvMs2_NtCs4GBZUaiPV4D_5lb_io10http2_poolNtB7_9Http2Pool12send_request0Cs5ctNHRYimvA_7lb_quic
FNDA:0,_RNCNvMs2_NtCs4GBZUaiPV4D_5lb_io10http2_poolNtB7_9Http2Pool14acquire_sender0Cs5ctNHRYimvA_7lb_quic
FNDA:0,_RNCNvMs2_NtCs4GBZUaiPV4D_5lb_io10http2_poolNtB7_9Http2Pool18dial_and_handshake0Cs5ctNHRYimvA_7lb_quic
FNDA:0,_RNvMs2_NtCs4GBZUaiPV4D_5lb_io10http2_poolNtB5_9Http2Pool10peer_count
FNDA:0,_RNvMs2_NtCs4GBZUaiPV4D_5lb_io10http2_poolNtB5_9Http2Pool12send_request
FNDA:0,_RNvMs2_NtCs4GBZUaiPV4D_5lb_io10http2_poolNtB5_9Http2Pool13replace_entry
FNDA:0,_RNvMs2_NtCs4GBZUaiPV4D_5lb_io10http2_poolNtB5_9Http2Pool14acquire_sender
FNDA:0,_RNvMs2_NtCs4GBZUaiPV4D_5lb_io10http2_poolNtB5_9Http2Pool17take_alive_sender
FNDA:0,_RNvMs2_NtCs4GBZUaiPV4D_5lb_io10http2_poolNtB5_9Http2Pool18dial_and_handshake
FNDA:0,_RNvMs2_NtCs4GBZUaiPV4D_5lb_io10http2_poolNtB5_9Http2Pool3new
FNDA:0,_RNvMs2_NtCs4GBZUaiPV4D_5lb_io10http2_poolNtB5_9Http2Pool5evict
FNDA:0,_RNvMs_NtCs4GBZUaiPV4D_5lb_io10http2_poolNtB4_9PeerEntry8is_alive
FNDA:0,_RNvNtCs4GBZUaiPV4D_5lb_io10http2_pool20collect_body_bounded
FNDA:0,_RNvXNtCs4GBZUaiPV4D_5lb_io10http2_poolNtB2_15Http2PoolConfigNtNtCs2va5m0jqTTM_4core7default7Default7default
FNDA:0,_RNvXs1_NtCs4GBZUaiPV4D_5lb_io10http2_poolNtB5_9Http2PoolNtNtCs2va5m0jqTTM_4core3fmt5Debug3fmt
FNDA:0,_RNvXs0_NtCs4GBZUaiPV4D_5lb_io10http2_poolNtB5_9PeerEntryNtNtNtCs2va5m0jqTTM_4core3ops4drop4Drop4drop
FNDA:0,_RNCNCNvMs2_NtCs4GBZUaiPV4D_5lb_io10http2_poolNtB9_9Http2Pool18dial_and_handshake00Bb_
FNDA:0,_RNCNCNvMs2_NtCs4GBZUaiPV4D_5lb_io10http2_poolNtB9_9Http2Pool18dial_and_handshake0s0_0Bb_
FNDA:0,_RNCNCNvMs2_NtCs4GBZUaiPV4D_5lb_io10http2_poolNtB9_9Http2Pool18dial_and_handshake0s_0Bb_
FNDA:0,_RNCNCNvNtCs4GBZUaiPV4D_5lb_io10http2_pool20collect_body_bounded00B7_
FNDA:0,_RNCNvMs2_NtCs4GBZUaiPV4D_5lb_io10http2_poolNtB7_9Http2Pool12send_request0B9_
FNDA:0,_RNCNvMs2_NtCs4GBZUaiPV4D_5lb_io10http2_poolNtB7_9Http2Pool14acquire_sender0B9_
FNDA:0,_RNCNvMs2_NtCs4GBZUaiPV4D_5lb_io10http2_poolNtB7_9Http2Pool18dial_and_handshake0B9_
FNDA:0,_RNCNvNtCs4GBZUaiPV4D_5lb_io10http2_pool20collect_body_bounded0B5_
FNF:21
FNH:0
DA:107,0
DA:108,0
DA:109,0
DA:110,0
DA:111,0
DA:112,0
DA:113,0
DA:114,0
DA:115,0
DA:125,0
DA:126,0
DA:127,0
DA:131,0
DA:132,0
DA:133,0
DA:169,0
DA:170,0
DA:171,0
DA:172,0
DA:173,0
DA:174,0
DA:175,0
DA:182,0
DA:183,0
DA:184,0
DA:185,0
DA:186,0
DA:187,0
DA:188,0
DA:189,0
DA:190,0
DA:194,0
DA:195,0
DA:196,0
DA:225,0
DA:226,0
DA:227,0
DA:228,0
DA:229,0
DA:230,0
DA:231,0
DA:232,0
DA:233,0
DA:234,0
DA:235,0
DA:236,0
DA:237,0
DA:238,0
DA:239,0
DA:240,0
DA:241,0
DA:244,0
DA:245,0
DA:248,0
DA:252,0
DA:253,0
DA:254,0
DA:255,0
DA:256,0
DA:257,0
DA:258,0
DA:259,0
DA:260,0
DA:261,0
DA:262,0
DA:263,0
DA:264,0
DA:265,0
DA:266,0
DA:268,0
DA:269,0
DA:270,0
DA:271,0
DA:273,0
DA:274,0
DA:276,0
DA:278,0
DA:280,0
DA:281,0
DA:282,0
DA:283,0
DA:285,0
DA:286,0
DA:287,0
DA:288,0
DA:290,0
DA:291,0
DA:292,0
DA:293,0
DA:297,0
DA:298,0
DA:299,0
DA:300,0
DA:302,0
DA:303,0
DA:304,0
DA:305,0
DA:306,0
DA:307,0
DA:308,0
DA:309,0
DA:310,0
DA:311,0
DA:312,0
DA:313,0
DA:314,0
DA:315,0
DA:316,0
DA:318,0
DA:319,0
DA:320,0
DA:321,0
DA:322,0
DA:333,0
DA:334,0
DA:335,0
DA:336,0
DA:337,0
DA:338,0
DA:339,0
DA:340,0
DA:341,0
DA:342,0
DA:343,0
DA:344,0
DA:345,0
DA:346,0
BRF:0
BRH:0
LF:136
LH:0
end_of_record
SF:/home/ubuntu/Code/s8-verifier/crates/lb-io/src/lib.rs
FN:78,_RNvCs4GBZUaiPV4D_5lb_io14detect_backend
FN:45,_RNvMCs4GBZUaiPV4D_5lb_ioNtB2_9IoBackend6as_str
FN:122,_RNvMs0_Cs4GBZUaiPV4D_5lb_ioNtB5_7Runtime12with_backend
FN:168,_RNvMs0_Cs4GBZUaiPV4D_5lb_ioNtB5_7Runtime14connect_socket
FN:142,_RNvMs0_Cs4GBZUaiPV4D_5lb_ioNtB5_7Runtime14low_water_mark
FN:135,_RNvMs0_Cs4GBZUaiPV4D_5lb_ioNtB5_7Runtime15high_water_mark
FN:152,_RNvMs0_Cs4GBZUaiPV4D_5lb_ioNtB5_7Runtime15listener_socket
FN:113,_RNvMs0_Cs4GBZUaiPV4D_5lb_ioNtB5_7Runtime3new
FN:186,_RNvMs0_Cs4GBZUaiPV4D_5lb_ioNtB5_7Runtime6listen
FN:128,_RNvMs0_Cs4GBZUaiPV4D_5lb_ioNtB5_7Runtime7backend
FN:202,_RNvMs0_Cs4GBZUaiPV4D_5lb_ioNtB5_7Runtime7connect
FN:212,_RNvXs1_Cs4GBZUaiPV4D_5lb_ioNtB5_7RuntimeNtNtCs2va5m0jqTTM_4core7default7Default7default
FN:54,_RNvXs_Cs4GBZUaiPV4D_5lb_ioNtB4_9IoBackendNtNtCs2va5m0jqTTM_4core3fmt7Display3fmt
FNDA:12,_RNvCs4GBZUaiPV4D_5lb_io14detect_backend
FNDA:0,_RNvMCs4GBZUaiPV4D_5lb_ioNtB2_9IoBackend6as_str
FNDA:0,_RNvMs0_Cs4GBZUaiPV4D_5lb_ioNtB5_7Runtime12with_backend
FNDA:0,_RNvMs0_Cs4GBZUaiPV4D_5lb_ioNtB5_7Runtime14connect_socket
FNDA:0,_RNvMs0_Cs4GBZUaiPV4D_5lb_ioNtB5_7Runtime14low_water_mark
FNDA:0,_RNvMs0_Cs4GBZUaiPV4D_5lb_ioNtB5_7Runtime15high_water_mark
FNDA:0,_RNvMs0_Cs4GBZUaiPV4D_5lb_ioNtB5_7Runtime15listener_socket
FNDA:12,_RNvMs0_Cs4GBZUaiPV4D_5lb_ioNtB5_7Runtime3new
FNDA:0,_RNvMs0_Cs4GBZUaiPV4D_5lb_ioNtB5_7Runtime6listen
FNDA:0,_RNvMs0_Cs4GBZUaiPV4D_5lb_ioNtB5_7Runtime7backend
FNDA:0,_RNvMs0_Cs4GBZUaiPV4D_5lb_ioNtB5_7Runtime7connect
FNDA:0,_RNvXs1_Cs4GBZUaiPV4D_5lb_ioNtB5_7RuntimeNtNtCs2va5m0jqTTM_4core7default7Default7default
FNDA:0,_RNvXs_Cs4GBZUaiPV4D_5lb_ioNtB4_9IoBackendNtNtCs2va5m0jqTTM_4core3fmt7Display3fmt
FNF:13
FNH:2
DA:45,0
DA:46,0
DA:47,0
DA:48,0
DA:50,0
DA:54,0
DA:55,0
DA:56,0
DA:78,12
DA:79,12
DA:80,12
DA:81,12
DA:82,12
DA:83,0
DA:84,0
DA:86,0
DA:88,0
DA:98,12
DA:113,12
DA:114,12
DA:115,12
DA:116,12
DA:117,12
DA:122,0
DA:123,0
DA:124,0
DA:128,0
DA:129,0
DA:130,0
DA:135,0
DA:136,0
DA:137,0
DA:142,0
DA:143,0
DA:144,0
DA:152,0
DA:153,0
DA:154,0
DA:155,0
DA:156,0
DA:157,0
DA:158,0
DA:159,0
DA:160,0
DA:168,0
DA:169,0
DA:170,0
DA:171,0
DA:172,0
DA:173,0
DA:174,0
DA:175,0
DA:176,0
DA:186,0
DA:187,0
DA:188,0
DA:189,0
DA:190,0
DA:191,0
DA:192,0
DA:202,0
DA:203,0
DA:204,0
DA:205,0
DA:206,0
DA:207,0
DA:208,0
DA:212,0
DA:213,0
DA:214,0
BRF:0
BRH:0
LF:70
LH:11
end_of_record
SF:/home/ubuntu/Code/s8-verifier/crates/lb-io/src/pool.rs
FN:210,_RNCNvMs0_NtCs4GBZUaiPV4D_5lb_io4poolNtB7_7TcpPool13acquire_async0Cs5ctNHRYimvA_7lb_quic
FN:283,_RNCNvMs0_NtCs4GBZUaiPV4D_5lb_io4poolNtB7_7TcpPool14dial_new_async0Cs5ctNHRYimvA_7lb_quic
FN:150,_RNvMs0_NtCs4GBZUaiPV4D_5lb_io4poolNtB5_7TcpPool10idle_count
FN:210,_RNvMs0_NtCs4GBZUaiPV4D_5lb_io4poolNtB5_7TcpPool13acquire_async
FN:283,_RNvMs0_NtCs4GBZUaiPV4D_5lb_io4poolNtB5_7TcpPool14dial_new_async
FN:156,_RNvMs0_NtCs4GBZUaiPV4D_5lb_io4poolNtB5_7TcpPool14idle_count_for
FN:236,_RNvMs0_NtCs4GBZUaiPV4D_5lb_io4poolNtB5_7TcpPool20validate_and_upgrade
FN:134,_RNvMs0_NtCs4GBZUaiPV4D_5lb_io4poolNtB5_7TcpPool3new
FN:181,_RNvMs0_NtCs4GBZUaiPV4D_5lb_io4poolNtB5_7TcpPool7acquire
FN:266,_RNvMs0_NtCs4GBZUaiPV4D_5lb_io4poolNtB5_7TcpPool8dial_new
FN:222,_RNvMs0_NtCs4GBZUaiPV4D_5lb_io4poolNtB5_7TcpPool8pop_idle
FN:362,_RNvMs2_NtCs4GBZUaiPV4D_5lb_io4poolNtB5_9PooledTcp10stream_mut
FN:412,_RNvMs2_NtCs4GBZUaiPV4D_5lb_io4poolNtB5_9PooledTcp11is_reusable
FN:421,_RNvMs2_NtCs4GBZUaiPV4D_5lb_io4poolNtB5_9PooledTcp11take_stream
FN:406,_RNvMs2_NtCs4GBZUaiPV4D_5lb_io4poolNtB5_9PooledTcp12set_reusable
FN:427,_RNvMs2_NtCs4GBZUaiPV4D_5lb_io4poolNtB5_9PooledTcp14return_to_pool
FN:380,_RNvMs2_NtCs4GBZUaiPV4D_5lb_io4poolNtB5_9PooledTcp3age
FN:342,_RNvMs2_NtCs4GBZUaiPV4D_5lb_io4poolNtB5_9PooledTcp3new
FN:368,_RNvMs2_NtCs4GBZUaiPV4D_5lb_io4poolNtB5_9PooledTcp6stream
FN:374,_RNvMs2_NtCs4GBZUaiPV4D_5lb_io4poolNtB5_9PooledTcp9peer_addr
FN:502,_RNvNtCs4GBZUaiPV4D_5lb_io4pool11probe_alive
FN:86,_RNvXNtCs4GBZUaiPV4D_5lb_io4poolNtB2_10PoolConfigNtNtCs2va5m0jqTTM_4core7default7Default7default
FN:330,_RNvXs1_NtCs4GBZUaiPV4D_5lb_io4poolNtB5_9PooledTcpNtNtCs2va5m0jqTTM_4core3fmt5Debug3fmt
FN:120,_RNvXs_NtCs4GBZUaiPV4D_5lb_io4poolNtB4_7TcpPoolNtNtCs2va5m0jqTTM_4core3fmt5Debug3fmt
FN:487,_RNvXs3_NtCs4GBZUaiPV4D_5lb_io4poolNtB5_9PooledTcpNtNtNtCs2va5m0jqTTM_4core3ops4drop4Drop4drop
FN:210,_RNCNvMs0_NtCs4GBZUaiPV4D_5lb_io4poolNtB7_7TcpPool13acquire_async0B9_
FN:283,_RNCNvMs0_NtCs4GBZUaiPV4D_5lb_io4poolNtB7_7TcpPool14dial_new_async0B9_
FN:157,_RNCNvMs0_NtCs4GBZUaiPV4D_5lb_io4poolNtB7_7TcpPool14idle_count_for0B9_
FN:470,_RNCNvMs2_NtCs4GBZUaiPV4D_5lb_io4poolNtB7_9PooledTcp14return_to_pool0B9_
FNDA:7,_RNCNvMs0_NtCs4GBZUaiPV4D_5lb_io4poolNtB7_7TcpPool13acquire_async0Cs5ctNHRYimvA_7lb_quic
FNDA:7,_RNCNvMs0_NtCs4GBZUaiPV4D_5lb_io4poolNtB7_7TcpPool14dial_new_async0Cs5ctNHRYimvA_7lb_quic
FNDA:0,_RNvMs0_NtCs4GBZUaiPV4D_5lb_io4poolNtB5_7TcpPool10idle_count
FNDA:7,_RNvMs0_NtCs4GBZUaiPV4D_5lb_io4poolNtB5_7TcpPool13acquire_async
FNDA:7,_RNvMs0_NtCs4GBZUaiPV4D_5lb_io4poolNtB5_7TcpPool14dial_new_async
FNDA:0,_RNvMs0_NtCs4GBZUaiPV4D_5lb_io4poolNtB5_7TcpPool14idle_count_for
FNDA:0,_RNvMs0_NtCs4GBZUaiPV4D_5lb_io4poolNtB5_7TcpPool20validate_and_upgrade
FNDA:12,_RNvMs0_NtCs4GBZUaiPV4D_5lb_io4poolNtB5_7TcpPool3new
FNDA:0,_RNvMs0_NtCs4GBZUaiPV4D_5lb_io4poolNtB5_7TcpPool7acquire
FNDA:0,_RNvMs0_NtCs4GBZUaiPV4D_5lb_io4poolNtB5_7TcpPool8dial_new
FNDA:7,_RNvMs0_NtCs4GBZUaiPV4D_5lb_io4poolNtB5_7TcpPool8pop_idle
FNDA:0,_RNvMs2_NtCs4GBZUaiPV4D_5lb_io4poolNtB5_9PooledTcp10stream_mut
FNDA:0,_RNvMs2_NtCs4GBZUaiPV4D_5lb_io4poolNtB5_9PooledTcp11is_reusable
FNDA:7,_RNvMs2_NtCs4GBZUaiPV4D_5lb_io4poolNtB5_9PooledTcp11take_stream
FNDA:0,_RNvMs2_NtCs4GBZUaiPV4D_5lb_io4poolNtB5_9PooledTcp12set_reusable
FNDA:7,_RNvMs2_NtCs4GBZUaiPV4D_5lb_io4poolNtB5_9PooledTcp14return_to_pool
FNDA:0,_RNvMs2_NtCs4GBZUaiPV4D_5lb_io4poolNtB5_9PooledTcp3age
FNDA:7,_RNvMs2_NtCs4GBZUaiPV4D_5lb_io4poolNtB5_9PooledTcp3new
FNDA:0,_RNvMs2_NtCs4GBZUaiPV4D_5lb_io4poolNtB5_9PooledTcp6stream
FNDA:0,_RNvMs2_NtCs4GBZUaiPV4D_5lb_io4poolNtB5_9PooledTcp9peer_addr
FNDA:0,_RNvNtCs4GBZUaiPV4D_5lb_io4pool11probe_alive
FNDA:12,_RNvXNtCs4GBZUaiPV4D_5lb_io4poolNtB2_10PoolConfigNtNtCs2va5m0jqTTM_4core7default7Default7default
FNDA:0,_RNvXs1_NtCs4GBZUaiPV4D_5lb_io4poolNtB5_9PooledTcpNtNtCs2va5m0jqTTM_4core3fmt5Debug3fmt
FNDA:0,_RNvXs_NtCs4GBZUaiPV4D_5lb_io4poolNtB4_7TcpPoolNtNtCs2va5m0jqTTM_4core3fmt5Debug3fmt
FNDA:7,_RNvXs3_NtCs4GBZUaiPV4D_5lb_io4poolNtB5_9PooledTcpNtNtNtCs2va5m0jqTTM_4core3ops4drop4Drop4drop
FNDA:0,_RNCNvMs0_NtCs4GBZUaiPV4D_5lb_io4poolNtB7_7TcpPool13acquire_async0B9_
FNDA:0,_RNCNvMs0_NtCs4GBZUaiPV4D_5lb_io4poolNtB7_7TcpPool14dial_new_async0B9_
FNDA:0,_RNCNvMs0_NtCs4GBZUaiPV4D_5lb_io4poolNtB7_7TcpPool14idle_count_for0B9_
FNDA:0,_RNCNvMs2_NtCs4GBZUaiPV4D_5lb_io4poolNtB7_9PooledTcp14return_to_pool0B9_
FNF:27
FNH:11
DA:86,12
DA:87,12
DA:88,12
DA:89,12
DA:90,12
DA:91,12
DA:92,12
DA:93,12
DA:94,12
DA:120,0
DA:121,0
DA:122,0
DA:123,0
DA:124,0
DA:125,0
DA:126,0
DA:134,12
DA:135,12
DA:136,12
DA:137,12
DA:138,12
DA:139,12
DA:140,12
DA:141,12
DA:142,12
DA:143,12
DA:144,12
DA:150,0
DA:151,0
DA:152,0
DA:156,0
DA:157,0
DA:158,0
DA:181,0
DA:182,0
DA:183,0
DA:184,0
DA:185,0
DA:186,0
DA:189,0
DA:190,0
DA:210,7
DA:211,7
DA:212,0
DA:213,0
DA:214,0
DA:215,0
DA:218,7
DA:219,7
DA:222,7
DA:223,0
DA:224,7
DA:225,0
DA:226,0
DA:227,0
DA:228,0
DA:229,0
DA:230,0
DA:231,7
DA:236,0
DA:237,0
DA:238,0
DA:239,0
DA:240,0
DA:241,0
DA:242,0
DA:243,0
DA:244,0
DA:245,0
DA:246,0
DA:247,0
DA:248,0
DA:249,0
DA:250,0
DA:251,0
DA:252,0
DA:253,0
DA:254,0
DA:255,0
DA:256,0
DA:257,0
DA:258,0
DA:259,0
DA:260,0
DA:261,0
DA:263,0
DA:266,0
DA:267,0
DA:268,0
DA:269,0
DA:270,0
DA:271,0
DA:272,0
DA:273,0
DA:274,0
DA:275,0
DA:276,0
DA:277,0
DA:283,7
DA:284,7
DA:285,7
DA:286,7
DA:287,7
DA:288,0
DA:289,0
DA:290,0
DA:291,0
DA:292,0
DA:293,0
DA:294,0
DA:295,0
DA:296,0
DA:299,7
DA:300,7
DA:301,7
DA:302,7
DA:330,0
DA:331,0
DA:332,0
DA:333,0
DA:334,0
DA:335,0
DA:336,0
DA:337,0
DA:338,0
DA:342,7
DA:343,7
DA:344,7
DA:345,7
DA:346,7
DA:347,7
DA:348,7
DA:349,7
DA:350,7
DA:351,7
DA:352,7
DA:353,7
DA:354,7
DA:355,7
DA:362,0
DA:363,0
DA:364,0
DA:368,0
DA:369,0
DA:370,0
DA:374,0
DA:375,0
DA:376,0
DA:380,0
DA:381,0
DA:382,0
DA:406,0
DA:407,0
DA:408,0
DA:412,0
DA:413,0
DA:414,0
DA:421,7
DA:422,7
DA:423,7
DA:424,7
DA:425,7
DA:427,7
DA:428,7
DA:429,7
DA:431,0
DA:432,0
DA:434,0
DA:435,0
DA:436,0
DA:437,0
DA:438,0
DA:439,0
DA:440,0
DA:441,0
DA:445,0
DA:446,0
DA:447,0
DA:448,0
DA:449,0
DA:452,0
DA:453,0
DA:454,0
DA:455,0
DA:456,0
DA:457,0
DA:458,0
DA:459,0
DA:460,0
DA:461,0
DA:462,0
DA:463,0
DA:464,0
DA:465,0
DA:466,0
DA:467,0
DA:468,0
DA:469,0
DA:470,0
DA:471,0
DA:472,0
DA:473,0
DA:474,0
DA:475,0
DA:476,0
DA:479,0
DA:480,0
DA:481,0
DA:482,0
DA:483,7
DA:487,7
DA:488,7
DA:489,7
DA:502,0
DA:505,0
DA:506,0
DA:507,0
DA:508,0
DA:509,0
DA:510,0
DA:511,0
DA:512,0
DA:513,0
DA:514,0
DA:515,0
BRF:0
BRH:0
LF:229
LH:64
end_of_record
SF:/home/ubuntu/Code/s8-verifier/crates/lb-io/src/quic_pool.rs
FN:364,_RNCNCNvMs1_NtCs4GBZUaiPV4D_5lb_io9quic_poolNtB9_16QuicUpstreamPool8dial_new00Cs5ctNHRYimvA_7lb_quic
FN:371,_RNCNCNvMs1_NtCs4GBZUaiPV4D_5lb_io9quic_poolNtB9_16QuicUpstreamPool8dial_new0s0_0Cs5ctNHRYimvA_7lb_quic
FN:368,_RNCNCNvMs1_NtCs4GBZUaiPV4D_5lb_io9quic_poolNtB9_16QuicUpstreamPool8dial_new0s_0Cs5ctNHRYimvA_7lb_quic
FN:306,_RNCNvMs1_NtCs4GBZUaiPV4D_5lb_io9quic_poolNtB7_16QuicUpstreamPool14probe_liveness0Cs5ctNHRYimvA_7lb_quic
FN:264,_RNCNvMs1_NtCs4GBZUaiPV4D_5lb_io9quic_poolNtB7_16QuicUpstreamPool7acquire0Cs5ctNHRYimvA_7lb_quic
FN:351,_RNCNvMs1_NtCs4GBZUaiPV4D_5lb_io9quic_poolNtB7_16QuicUpstreamPool8dial_new0Cs5ctNHRYimvA_7lb_quic
FN:230,_RNvMs1_NtCs4GBZUaiPV4D_5lb_io9quic_poolNtB5_16QuicUpstreamPool10idle_count
FN:249,_RNvMs1_NtCs4GBZUaiPV4D_5lb_io9quic_poolNtB5_16QuicUpstreamPool11fresh_dials
FN:236,_RNvMs1_NtCs4GBZUaiPV4D_5lb_io9quic_poolNtB5_16QuicUpstreamPool14idle_count_for
FN:243,_RNvMs1_NtCs4GBZUaiPV4D_5lb_io9quic_poolNtB5_16QuicUpstreamPool14probe_discards
FN:306,_RNvMs1_NtCs4GBZUaiPV4D_5lb_io9quic_poolNtB5_16QuicUpstreamPool14probe_liveness
FN:211,_RNvMs1_NtCs4GBZUaiPV4D_5lb_io9quic_poolNtB5_16QuicUpstreamPool3new
FN:264,_RNvMs1_NtCs4GBZUaiPV4D_5lb_io9quic_poolNtB5_16QuicUpstreamPool7acquire
FN:351,_RNvMs1_NtCs4GBZUaiPV4D_5lb_io9quic_poolNtB5_16QuicUpstreamPool8dial_new
FN:291,_RNvMs1_NtCs4GBZUaiPV4D_5lb_io9quic_poolNtB5_16QuicUpstreamPool8pop_idle
FN:475,_RNvMs3_NtCs4GBZUaiPV4D_5lb_io9quic_poolNtB5_10PooledQuic12set_reusable
FN:464,_RNvMs3_NtCs4GBZUaiPV4D_5lb_io9quic_poolNtB5_10PooledQuic3get
FN:469,_RNvMs3_NtCs4GBZUaiPV4D_5lb_io9quic_poolNtB5_10PooledQuic7get_mut
FN:483,_RNvMs3_NtCs4GBZUaiPV4D_5lb_io9quic_poolNtB5_10PooledQuic9take_conn
FN:131,_RNvMs_NtCs4GBZUaiPV4D_5lb_io9quic_poolNtB4_16UpstreamQuicConn10connection
FN:166,_RNvMs_NtCs4GBZUaiPV4D_5lb_io9quic_poolNtB4_16UpstreamQuicConn10created_at
FN:136,_RNvMs_NtCs4GBZUaiPV4D_5lb_io9quic_poolNtB4_16UpstreamQuicConn14connection_mut
FN:160,_RNvMs_NtCs4GBZUaiPV4D_5lb_io9quic_poolNtB4_16UpstreamQuicConn3cid
FN:148,_RNvMs_NtCs4GBZUaiPV4D_5lb_io9quic_poolNtB4_16UpstreamQuicConn4peer
FN:154,_RNvMs_NtCs4GBZUaiPV4D_5lb_io9quic_poolNtB4_16UpstreamQuicConn5local
FN:142,_RNvMs_NtCs4GBZUaiPV4D_5lb_io9quic_poolNtB4_16UpstreamQuicConn6socket
FN:89,_RNvXNtCs4GBZUaiPV4D_5lb_io9quic_poolNtB2_14QuicPoolConfigNtNtCs2va5m0jqTTM_4core7default7Default7default
FN:195,_RNvXs0_NtCs4GBZUaiPV4D_5lb_io9quic_poolNtB5_16QuicUpstreamPoolNtNtCs2va5m0jqTTM_4core3fmt5Debug3fmt
FN:451,_RNvXs2_NtCs4GBZUaiPV4D_5lb_io9quic_poolNtB5_10PooledQuicNtNtCs2va5m0jqTTM_4core3fmt5Debug3fmt
FN:494,_RNvXs4_NtCs4GBZUaiPV4D_5lb_io9quic_poolNtB5_10PooledQuicNtNtNtCs2va5m0jqTTM_4core3ops4drop4Drop4drop
FN:364,_RNCNCNvMs1_NtCs4GBZUaiPV4D_5lb_io9quic_poolNtB9_16QuicUpstreamPool8dial_new00Bb_
FN:371,_RNCNCNvMs1_NtCs4GBZUaiPV4D_5lb_io9quic_poolNtB9_16QuicUpstreamPool8dial_new0s0_0Bb_
FN:368,_RNCNCNvMs1_NtCs4GBZUaiPV4D_5lb_io9quic_poolNtB9_16QuicUpstreamPool8dial_new0s_0Bb_
FN:306,_RNCNvMs1_NtCs4GBZUaiPV4D_5lb_io9quic_poolNtB7_16QuicUpstreamPool14probe_liveness0B9_
FN:264,_RNCNvMs1_NtCs4GBZUaiPV4D_5lb_io9quic_poolNtB7_16QuicUpstreamPool7acquire0B9_
FN:351,_RNCNvMs1_NtCs4GBZUaiPV4D_5lb_io9quic_poolNtB7_16QuicUpstreamPool8dial_new0B9_
FN:237,_RNCNvMs1_NtCs4GBZUaiPV4D_5lb_io9quic_poolNtB7_16QuicUpstreamPool14idle_count_for0B9_
FN:522,_RNCNvXs4_NtCs4GBZUaiPV4D_5lb_io9quic_poolNtB7_10PooledQuicNtNtNtCs2va5m0jqTTM_4core3ops4drop4Drop4drop0B9_
FNDA:0,_RNCNCNvMs1_NtCs4GBZUaiPV4D_5lb_io9quic_poolNtB9_16QuicUpstreamPool8dial_new00Cs5ctNHRYimvA_7lb_quic
FNDA:0,_RNCNCNvMs1_NtCs4GBZUaiPV4D_5lb_io9quic_poolNtB9_16QuicUpstreamPool8dial_new0s0_0Cs5ctNHRYimvA_7lb_quic
FNDA:0,_RNCNCNvMs1_NtCs4GBZUaiPV4D_5lb_io9quic_poolNtB9_16QuicUpstreamPool8dial_new0s_0Cs5ctNHRYimvA_7lb_quic
FNDA:0,_RNCNvMs1_NtCs4GBZUaiPV4D_5lb_io9quic_poolNtB7_16QuicUpstreamPool14probe_liveness0Cs5ctNHRYimvA_7lb_quic
FNDA:0,_RNCNvMs1_NtCs4GBZUaiPV4D_5lb_io9quic_poolNtB7_16QuicUpstreamPool7acquire0Cs5ctNHRYimvA_7lb_quic
FNDA:0,_RNCNvMs1_NtCs4GBZUaiPV4D_5lb_io9quic_poolNtB7_16QuicUpstreamPool8dial_new0Cs5ctNHRYimvA_7lb_quic
FNDA:0,_RNvMs1_NtCs4GBZUaiPV4D_5lb_io9quic_poolNtB5_16QuicUpstreamPool10idle_count
FNDA:0,_RNvMs1_NtCs4GBZUaiPV4D_5lb_io9quic_poolNtB5_16QuicUpstreamPool11fresh_dials
FNDA:0,_RNvMs1_NtCs4GBZUaiPV4D_5lb_io9quic_poolNtB5_16QuicUpstreamPool14idle_count_for
FNDA:0,_RNvMs1_NtCs4GBZUaiPV4D_5lb_io9quic_poolNtB5_16QuicUpstreamPool14probe_discards
FNDA:0,_RNvMs1_NtCs4GBZUaiPV4D_5lb_io9quic_poolNtB5_16QuicUpstreamPool14probe_liveness
FNDA:0,_RNvMs1_NtCs4GBZUaiPV4D_5lb_io9quic_poolNtB5_16QuicUpstreamPool3new
FNDA:0,_RNvMs1_NtCs4GBZUaiPV4D_5lb_io9quic_poolNtB5_16QuicUpstreamPool7acquire
FNDA:0,_RNvMs1_NtCs4GBZUaiPV4D_5lb_io9quic_poolNtB5_16QuicUpstreamPool8dial_new
FNDA:0,_RNvMs1_NtCs4GBZUaiPV4D_5lb_io9quic_poolNtB5_16QuicUpstreamPool8pop_idle
FNDA:0,_RNvMs3_NtCs4GBZUaiPV4D_5lb_io9quic_poolNtB5_10PooledQuic12set_reusable
FNDA:0,_RNvMs3_NtCs4GBZUaiPV4D_5lb_io9quic_poolNtB5_10PooledQuic3get
FNDA:0,_RNvMs3_NtCs4GBZUaiPV4D_5lb_io9quic_poolNtB5_10PooledQuic7get_mut
FNDA:0,_RNvMs3_NtCs4GBZUaiPV4D_5lb_io9quic_poolNtB5_10PooledQuic9take_conn
FNDA:0,_RNvMs_NtCs4GBZUaiPV4D_5lb_io9quic_poolNtB4_16UpstreamQuicConn10connection
FNDA:0,_RNvMs_NtCs4GBZUaiPV4D_5lb_io9quic_poolNtB4_16UpstreamQuicConn10created_at
FNDA:0,_RNvMs_NtCs4GBZUaiPV4D_5lb_io9quic_poolNtB4_16UpstreamQuicConn14connection_mut
FNDA:0,_RNvMs_NtCs4GBZUaiPV4D_5lb_io9quic_poolNtB4_16UpstreamQuicConn3cid
FNDA:0,_RNvMs_NtCs4GBZUaiPV4D_5lb_io9quic_poolNtB4_16UpstreamQuicConn4peer
FNDA:0,_RNvMs_NtCs4GBZUaiPV4D_5lb_io9quic_poolNtB4_16UpstreamQuicConn5local
FNDA:0,_RNvMs_NtCs4GBZUaiPV4D_5lb_io9quic_poolNtB4_16UpstreamQuicConn6socket
FNDA:0,_RNvXNtCs4GBZUaiPV4D_5lb_io9quic_poolNtB2_14QuicPoolConfigNtNtCs2va5m0jqTTM_4core7default7Default7default
FNDA:0,_RNvXs0_NtCs4GBZUaiPV4D_5lb_io9quic_poolNtB5_16QuicUpstreamPoolNtNtCs2va5m0jqTTM_4core3fmt5Debug3fmt
FNDA:0,_RNvXs2_NtCs4GBZUaiPV4D_5lb_io9quic_poolNtB5_10PooledQuicNtNtCs2va5m0jqTTM_4core3fmt5Debug3fmt
FNDA:0,_RNvXs4_NtCs4GBZUaiPV4D_5lb_io9quic_poolNtB5_10PooledQuicNtNtNtCs2va5m0jqTTM_4core3ops4drop4Drop4drop
FNDA:0,_RNCNCNvMs1_NtCs4GBZUaiPV4D_5lb_io9quic_poolNtB9_16QuicUpstreamPool8dial_new00Bb_
FNDA:0,_RNCNCNvMs1_NtCs4GBZUaiPV4D_5lb_io9quic_poolNtB9_16QuicUpstreamPool8dial_new0s0_0Bb_
FNDA:0,_RNCNCNvMs1_NtCs4GBZUaiPV4D_5lb_io9quic_poolNtB9_16QuicUpstreamPool8dial_new0s_0Bb_
FNDA:0,_RNCNvMs1_NtCs4GBZUaiPV4D_5lb_io9quic_poolNtB7_16QuicUpstreamPool14probe_liveness0B9_
FNDA:0,_RNCNvMs1_NtCs4GBZUaiPV4D_5lb_io9quic_poolNtB7_16QuicUpstreamPool7acquire0B9_
FNDA:0,_RNCNvMs1_NtCs4GBZUaiPV4D_5lb_io9quic_poolNtB7_16QuicUpstreamPool8dial_new0B9_
FNDA:0,_RNCNvMs1_NtCs4GBZUaiPV4D_5lb_io9quic_poolNtB7_16QuicUpstreamPool14idle_count_for0B9_
FNDA:0,_RNCNvXs4_NtCs4GBZUaiPV4D_5lb_io9quic_poolNtB7_10PooledQuicNtNtNtCs2va5m0jqTTM_4core3ops4drop4Drop4drop0B9_
FNF:32
FNH:0
DA:89,0
DA:90,0
DA:91,0
DA:92,0
DA:93,0
DA:94,0
DA:95,0
DA:96,0
DA:97,0
DA:131,0
DA:132,0
DA:133,0
DA:136,0
DA:137,0
DA:138,0
DA:142,0
DA:143,0
DA:144,0
DA:148,0
DA:149,0
DA:150,0
DA:154,0
DA:155,0
DA:156,0
DA:160,0
DA:161,0
DA:162,0
DA:166,0
DA:167,0
DA:168,0
DA:195,0
DA:196,0
DA:197,0
DA:198,0
DA:199,0
DA:200,0
DA:201,0
DA:211,0
DA:212,0
DA:213,0
DA:214,0
DA:215,0
DA:216,0
DA:217,0
DA:218,0
DA:219,0
DA:220,0
DA:221,0
DA:222,0
DA:223,0
DA:224,0
DA:225,0
DA:226,0
DA:230,0
DA:231,0
DA:232,0
DA:236,0
DA:237,0
DA:238,0
DA:243,0
DA:244,0
DA:245,0
DA:249,0
DA:250,0
DA:251,0
DA:264,0
DA:267,0
DA:268,0
DA:269,0
DA:270,0
DA:271,0
DA:274,0
DA:275,0
DA:276,0
DA:277,0
DA:278,0
DA:279,0
DA:280,0
DA:281,0
DA:282,0
DA:283,0
DA:284,0
DA:285,0
DA:288,0
DA:289,0
DA:291,0
DA:292,0
DA:293,0
DA:294,0
DA:295,0
DA:296,0
DA:297,0
DA:298,0
DA:299,0
DA:300,0
DA:306,0
DA:307,0
DA:308,0
DA:310,0
DA:311,0
DA:312,0
DA:313,0
DA:314,0
DA:316,0
DA:317,0
DA:318,0
DA:319,0
DA:320,0
DA:321,0
DA:323,0
DA:324,0
DA:328,0
DA:329,0
DA:330,0
DA:331,0
DA:332,0
DA:333,0
DA:334,0
DA:335,0
DA:336,0
DA:337,0
DA:338,0
DA:339,0
DA:340,0
DA:341,0
DA:342,0
DA:343,0
DA:346,0
DA:348,0
DA:351,0
DA:352,0
DA:353,0
DA:354,0
DA:355,0
DA:356,0
DA:357,0
DA:358,0
DA:359,0
DA:361,0
DA:363,0
DA:364,0
DA:365,0
DA:366,0
DA:367,0
DA:368,0
DA:369,0
DA:370,0
DA:371,0
DA:374,0
DA:375,0
DA:376,0
DA:378,0
DA:379,0
DA:380,0
DA:381,0
DA:382,0
DA:383,0
DA:386,0
DA:387,0
DA:388,0
DA:389,0
DA:391,0
DA:392,0
DA:393,0
DA:397,0
DA:398,0
DA:399,0
DA:400,0
DA:401,0
DA:402,0
DA:403,0
DA:404,0
DA:405,0
DA:406,0
DA:407,0
DA:410,0
DA:411,0
DA:412,0
DA:413,0
DA:417,0
DA:418,0
DA:419,0
DA:420,0
DA:421,0
DA:422,0
DA:423,0
DA:424,0
DA:425,0
DA:426,0
DA:427,0
DA:428,0
DA:429,0
DA:430,0
DA:431,0
DA:432,0
DA:433,0
DA:434,0
DA:435,0
DA:436,0
DA:437,0
DA:451,0
DA:452,0
DA:453,0
DA:454,0
DA:455,0
DA:456,0
DA:457,0
DA:458,0
DA:464,0
DA:465,0
DA:466,0
DA:469,0
DA:470,0
DA:471,0
DA:475,0
DA:476,0
DA:477,0
DA:483,0
DA:484,0
DA:485,0
DA:494,0
DA:495,0
DA:496,0
DA:498,0
DA:499,0
DA:501,0
DA:502,0
DA:503,0
DA:504,0
DA:505,0
DA:507,0
DA:508,0
DA:509,0
DA:510,0
DA:511,0
DA:512,0
DA:513,0
DA:514,0
DA:515,0
DA:516,0
DA:517,0
DA:518,0
DA:519,0
DA:520,0
DA:521,0
DA:522,0
DA:523,0
DA:524,0
DA:525,0
DA:526,0
DA:527,0
DA:528,0
DA:529,0
DA:530,0
DA:531,0
DA:532,0
DA:533,0
BRF:0
BRH:0
LF:265
LH:0
end_of_record
SF:/home/ubuntu/Code/s8-verifier/crates/lb-io/src/ring.rs
FN:73,_RNvNtCs4GBZUaiPV4D_5lb_io4ring10accept_one
FN:43,_RNvNtCs4GBZUaiPV4D_5lb_io4ring13nop_roundtrip
FN:245,_RNvNtCs4GBZUaiPV4D_5lb_io4ring19u32_from_nonneg_i32B3_
FN:237,_RNvNtCs4GBZUaiPV4D_5lb_io4ring21usize_from_nonneg_i32B3_
FN:255,_RNvNtCs4GBZUaiPV4D_5lb_io4ring30sockaddr_storage_to_socketaddr
FN:121,_RNvNtCs4GBZUaiPV4D_5lb_io4ring4recv
FN:146,_RNvNtCs4GBZUaiPV4D_5lb_io4ring4send
FN:172,_RNvNtCs4GBZUaiPV4D_5lb_io4ring6splice
FN:200,_RNvNtCs4GBZUaiPV4D_5lb_io4ring8push_sqe
FN:212,_RNvNtCs4GBZUaiPV4D_5lb_io4ring8reap_cqe
FN:225,_RNvNtCs4GBZUaiPV4D_5lb_io4ring9check_cqe
FN:81,_RNCNvNtCs4GBZUaiPV4D_5lb_io4ring10accept_one0B5_
FN:215,_RNCNvNtCs4GBZUaiPV4D_5lb_io4ring8reap_cqe0B5_
FNDA:0,_RNvNtCs4GBZUaiPV4D_5lb_io4ring10accept_one
FNDA:12,_RNvNtCs4GBZUaiPV4D_5lb_io4ring13nop_roundtrip
FNDA:0,_RNvNtCs4GBZUaiPV4D_5lb_io4ring19u32_from_nonneg_i32B3_
FNDA:0,_RNvNtCs4GBZUaiPV4D_5lb_io4ring21usize_from_nonneg_i32B3_
FNDA:0,_RNvNtCs4GBZUaiPV4D_5lb_io4ring30sockaddr_storage_to_socketaddr
FNDA:0,_RNvNtCs4GBZUaiPV4D_5lb_io4ring4recv
FNDA:0,_RNvNtCs4GBZUaiPV4D_5lb_io4ring4send
FNDA:0,_RNvNtCs4GBZUaiPV4D_5lb_io4ring6splice
FNDA:12,_RNvNtCs4GBZUaiPV4D_5lb_io4ring8push_sqe
FNDA:12,_RNvNtCs4GBZUaiPV4D_5lb_io4ring8reap_cqe
FNDA:12,_RNvNtCs4GBZUaiPV4D_5lb_io4ring9check_cqe
FNDA:0,_RNCNvNtCs4GBZUaiPV4D_5lb_io4ring10accept_one0B5_
FNDA:0,_RNCNvNtCs4GBZUaiPV4D_5lb_io4ring8reap_cqe0B5_
FNF:13
FNH:4
DA:43,12
DA:44,12
DA:45,12
DA:46,12
DA:47,12
DA:48,12
DA:49,12
DA:50,12
DA:52,12
DA:54,12
DA:55,12
DA:56,12
DA:57,12
DA:58,12
DA:59,12
DA:73,0
DA:74,0
DA:78,0
DA:79,0
DA:80,0
DA:81,0
DA:82,0
DA:83,0
DA:84,0
DA:85,0
DA:86,0
DA:88,0
DA:89,0
DA:90,0
DA:91,0
DA:92,0
DA:93,0
DA:94,0
DA:95,0
DA:96,0
DA:97,0
DA:98,0
DA:99,0
DA:101,0
DA:102,0
DA:103,0
DA:110,0
DA:112,0
DA:113,0
DA:121,0
DA:122,0
DA:123,0
DA:125,0
DA:126,0
DA:127,0
DA:128,0
DA:129,0
DA:130,0
DA:131,0
DA:132,0
DA:133,0
DA:135,0
DA:136,0
DA:137,0
DA:138,0
DA:139,0
DA:146,0
DA:147,0
DA:148,0
DA:150,0
DA:151,0
DA:152,0
DA:153,0
DA:154,0
DA:155,0
DA:156,0
DA:157,0
DA:159,0
DA:160,0
DA:161,0
DA:162,0
DA:163,0
DA:172,0
DA:173,0
DA:175,0
DA:176,0
DA:177,0
DA:178,0
DA:179,0
DA:180,0
DA:181,0
DA:182,0
DA:184,0
DA:185,0
DA:186,0
DA:187,0
DA:188,0
DA:200,12
DA:201,12
DA:202,12
DA:203,12
DA:204,12
DA:205,0
DA:206,0
DA:207,0
DA:208,0
DA:210,12
DA:212,12
DA:213,12
DA:214,12
DA:215,12
DA:216,0
DA:217,0
DA:218,0
DA:219,0
DA:220,12
DA:221,12
DA:225,12
DA:226,12
DA:227,12
DA:228,0
DA:230,12
DA:232,12
DA:237,0
DA:238,0
DA:239,0
DA:240,0
DA:245,0
DA:246,0
DA:247,0
DA:255,0
DA:256,0
DA:257,0
DA:258,0
DA:259,0
DA:260,0
DA:261,0
DA:263,0
DA:264,0
DA:265,0
DA:266,0
DA:267,0
DA:268,0
DA:269,0
DA:270,0
DA:271,0
DA:272,0
DA:273,0
DA:274,0
DA:275,0
DA:276,0
DA:279,0
DA:280,0
DA:281,0
DA:282,0
DA:283,0
DA:284,0
DA:285,0
DA:286,0
DA:287,0
DA:288,0
DA:289,0
DA:290,0
DA:291,0
DA:292,0
DA:293,0
DA:294,0
DA:295,0
DA:296,0
DA:298,0
DA:299,0
DA:300,0
DA:301,0
DA:303,0
BRF:0
BRH:0
LF:173
LH:32
end_of_record
SF:/home/ubuntu/Code/s8-verifier/crates/lb-io/src/sockopts.rs
FN:81,_RNvNtCs4GBZUaiPV4D_5lb_io8sockopts14apply_listener
FN:147,_RNvNtCs4GBZUaiPV4D_5lb_io8sockopts15apply_connected
FN:200,_RNvNtCs4GBZUaiPV4D_5lb_io8sockopts21apply_connected_tokio
FN:280,_RNvNtCs4GBZUaiPV4D_5lb_io8sockopts7set_int
FN:245,_RNvNtCs4GBZUaiPV4D_5lb_io8sockopts9apply_udp
FN:111,_RNCNvNtCs4GBZUaiPV4D_5lb_io8sockopts14apply_listener0B5_
FN:287,_RNCNvNtCs4GBZUaiPV4D_5lb_io8sockopts7set_int0B5_
FNDA:0,_RNvNtCs4GBZUaiPV4D_5lb_io8sockopts14apply_listener
FNDA:0,_RNvNtCs4GBZUaiPV4D_5lb_io8sockopts15apply_connected
FNDA:7,_RNvNtCs4GBZUaiPV4D_5lb_io8sockopts21apply_connected_tokio
FNDA:0,_RNvNtCs4GBZUaiPV4D_5lb_io8sockopts7set_int
FNDA:0,_RNvNtCs4GBZUaiPV4D_5lb_io8sockopts9apply_udp
FNDA:0,_RNCNvNtCs4GBZUaiPV4D_5lb_io8sockopts14apply_listener0B5_
FNDA:0,_RNCNvNtCs4GBZUaiPV4D_5lb_io8sockopts7set_int0B5_
FNF:7
FNH:1
DA:81,0
DA:82,0
DA:83,0
DA:84,0
DA:85,0
DA:87,0
DA:88,0
DA:89,0
DA:90,0
DA:91,0
DA:92,0
DA:93,0
DA:94,0
DA:95,0
DA:96,0
DA:97,0
DA:98,0
DA:99,0
DA:100,0
DA:101,0
DA:106,0
DA:107,0
DA:108,0
DA:109,0
DA:110,0
DA:111,0
DA:112,0
DA:113,0
DA:114,0
DA:115,0
DA:116,0
DA:117,0
DA:118,0
DA:119,0
DA:124,0
DA:125,0
DA:126,0
DA:127,0
DA:128,0
DA:139,0
DA:140,0
DA:147,0
DA:148,0
DA:149,0
DA:150,0
DA:151,0
DA:152,0
DA:153,0
DA:154,0
DA:155,0
DA:156,0
DA:157,0
DA:158,0
DA:159,0
DA:160,0
DA:165,0
DA:166,0
DA:167,0
DA:168,0
DA:169,0
DA:170,0
DA:171,0
DA:172,0
DA:173,0
DA:174,0
DA:183,0
DA:184,0
DA:200,7
DA:201,7
DA:202,7
DA:203,7
DA:204,7
DA:205,7
DA:206,7
DA:207,0
DA:208,7
DA:209,0
DA:210,7
DA:211,7
DA:212,0
DA:213,7
DA:214,7
DA:215,0
DA:216,7
DA:221,7
DA:222,7
DA:223,0
DA:224,7
DA:225,7
DA:226,0
DA:227,0
DA:228,7
DA:237,7
DA:238,7
DA:245,0
DA:246,0
DA:247,0
DA:248,0
DA:249,0
DA:250,0
DA:251,0
DA:252,0
DA:253,0
DA:254,0
DA:255,0
DA:256,0
DA:261,0
DA:262,0
DA:263,0
DA:264,0
DA:265,0
DA:266,0
DA:275,0
DA:276,0
DA:280,0
DA:281,0
DA:282,0
DA:283,0
DA:284,0
DA:285,0
DA:286,0
DA:287,0
DA:292,0
DA:293,0
DA:294,0
DA:296,0
DA:298,0
BRF:0
BRH:0
LF:130
LH:20
end_of_record
SF:/home/ubuntu/Code/s8-verifier/crates/lb-l7/src/authority.rs
FN:66,_RINvNtCsiFMhfKJXoB5_5lb_l79authority16validate_requestNtNtNtCsgB3dp6qvXvn_5hyper4body8incoming8IncomingEB4_
FN:71,_RNCINvNtCsiFMhfKJXoB5_5lb_l79authority16validate_requestNtNtNtCsgB3dp6qvXvn_5hyper4body8incoming8IncomingE0B6_
FN:75,_RNCINvNtCsiFMhfKJXoB5_5lb_l79authority16validate_requestNtNtNtCsgB3dp6qvXvn_5hyper4body8incoming8IncomingEs_0B6_
FNDA:12,_RINvNtCsiFMhfKJXoB5_5lb_l79authority16validate_requestNtNtNtCsgB3dp6qvXvn_5hyper4body8incoming8IncomingEB4_
FNDA:0,_RNCINvNtCsiFMhfKJXoB5_5lb_l79authority16validate_requestNtNtNtCsgB3dp6qvXvn_5hyper4body8incoming8IncomingE0B6_
FNDA:12,_RNCINvNtCsiFMhfKJXoB5_5lb_l79authority16validate_requestNtNtNtCsgB3dp6qvXvn_5hyper4body8incoming8IncomingEs_0B6_
FNF:3
FNH:2
DA:66,12
DA:67,12
DA:68,12
DA:69,12
DA:70,12
DA:71,12
DA:72,12
DA:73,12
DA:74,12
DA:75,12
DA:77,12
DA:78,0
DA:79,12
DA:81,12
DA:82,12
BRF:0
BRH:0
LF:17
LH:15
end_of_record
SF:/home/ubuntu/Code/s8-verifier/crates/lb-l7/src/grpc_proxy.rs
FN:279,_RINvNtCsiFMhfKJXoB5_5lb_l710grpc_proxy15is_grpc_requestNtNtNtCsgB3dp6qvXvn_5hyper4body8incoming8IncomingEB4_
FN:282,_RNCINvNtCsiFMhfKJXoB5_5lb_l710grpc_proxy15is_grpc_requestNtNtNtCsgB3dp6qvXvn_5hyper4body8incoming8IncomingE0B6_
FN:283,_RNCINvNtCsiFMhfKJXoB5_5lb_l710grpc_proxy15is_grpc_requestNtNtNtCsgB3dp6qvXvn_5hyper4body8incoming8IncomingEs_0B6_
FN:292,_RNCNCINvNtCsiFMhfKJXoB5_5lb_l710grpc_proxy15is_grpc_requestNtNtNtCsgB3dp6qvXvn_5hyper4body8incoming8IncomingEs_00B8_
FN:247,_RNCNCNvMs_NtCsiFMhfKJXoB5_5lb_l710grpc_proxyNtB8_9GrpcProxy7forward00Ba_
FN:389,_RNCNCNvNtCsiFMhfKJXoB5_5lb_l710grpc_proxy19handle_health_check00B7_
FN:149,_RNCNvMs_NtCsiFMhfKJXoB5_5lb_l710grpc_proxyNtB6_9GrpcProxy6handle0B8_
FN:170,_RNCNvMs_NtCsiFMhfKJXoB5_5lb_l710grpc_proxyNtB6_9GrpcProxy7forward0B8_
FN:596,_RNCNvNtCsiFMhfKJXoB5_5lb_l710grpc_proxy17finalize_upstream0B5_
FN:576,_RNCNvNtCsiFMhfKJXoB5_5lb_l710grpc_proxy19grpc_error_response0B5_
FN:384,_RNCNvNtCsiFMhfKJXoB5_5lb_l710grpc_proxy19handle_health_check0B5_
FN:307,_RNCNvNtCsiFMhfKJXoB5_5lb_l710grpc_proxy24rewrite_uri_for_upstream0B5_
FN:428,_RNCNvNtCsiFMhfKJXoB5_5lb_l710grpc_proxy29health_check_serving_response0B5_
FN:130,_RNvMs_NtCsiFMhfKJXoB5_5lb_l710grpc_proxyNtB4_9GrpcProxy20max_header_list_size
FN:113,_RNvMs_NtCsiFMhfKJXoB5_5lb_l710grpc_proxyNtB4_9GrpcProxy25with_max_header_list_size
FN:98,_RNvMs_NtCsiFMhfKJXoB5_5lb_l710grpc_proxyNtB4_9GrpcProxy3new
FN:120,_RNvMs_NtCsiFMhfKJXoB5_5lb_l710grpc_proxyNtB4_9GrpcProxy6config
FN:145,_RNvMs_NtCsiFMhfKJXoB5_5lb_l710grpc_proxyNtB4_9GrpcProxy6handle
FN:166,_RNvMs_NtCsiFMhfKJXoB5_5lb_l710grpc_proxyNtB4_9GrpcProxy7forward
FN:530,_RNvNtCsiFMhfKJXoB5_5lb_l710grpc_proxy11read_varint
FN:547,_RNvNtCsiFMhfKJXoB5_5lb_l710grpc_proxy14empty_fallback
FN:586,_RNvNtCsiFMhfKJXoB5_5lb_l710grpc_proxy17finalize_upstream
FN:559,_RNvNtCsiFMhfKJXoB5_5lb_l710grpc_proxy19grpc_error_response
FN:384,_RNvNtCsiFMhfKJXoB5_5lb_l710grpc_proxy19handle_health_check
FN:301,_RNvNtCsiFMhfKJXoB5_5lb_l710grpc_proxy24rewrite_uri_for_upstream
FN:445,_RNvNtCsiFMhfKJXoB5_5lb_l710grpc_proxy27decode_health_check_service
FN:333,_RNvNtCsiFMhfKJXoB5_5lb_l710grpc_proxy28parse_and_clamp_grpc_timeout
FN:404,_RNvNtCsiFMhfKJXoB5_5lb_l710grpc_proxy29health_check_serving_response
FN:64,_RNvXNtCsiFMhfKJXoB5_5lb_l710grpc_proxyNtB2_10GrpcConfigNtNtCs2va5m0jqTTM_4core7default7Default7default
FNDA:0,_RINvNtCsiFMhfKJXoB5_5lb_l710grpc_proxy15is_grpc_requestNtNtNtCsgB3dp6qvXvn_5hyper4body8incoming8IncomingEB4_
FNDA:0,_RNCINvNtCsiFMhfKJXoB5_5lb_l710grpc_proxy15is_grpc_requestNtNtNtCsgB3dp6qvXvn_5hyper4body8incoming8IncomingE0B6_
FNDA:0,_RNCINvNtCsiFMhfKJXoB5_5lb_l710grpc_proxy15is_grpc_requestNtNtNtCsgB3dp6qvXvn_5hyper4body8incoming8IncomingEs_0B6_
FNDA:0,_RNCNCINvNtCsiFMhfKJXoB5_5lb_l710grpc_proxy15is_grpc_requestNtNtNtCsgB3dp6qvXvn_5hyper4body8incoming8IncomingEs_00B8_
FNDA:0,_RNCNCNvMs_NtCsiFMhfKJXoB5_5lb_l710grpc_proxyNtB8_9GrpcProxy7forward00Ba_
FNDA:0,_RNCNCNvNtCsiFMhfKJXoB5_5lb_l710grpc_proxy19handle_health_check00B7_
FNDA:0,_RNCNvMs_NtCsiFMhfKJXoB5_5lb_l710grpc_proxyNtB6_9GrpcProxy6handle0B8_
FNDA:0,_RNCNvMs_NtCsiFMhfKJXoB5_5lb_l710grpc_proxyNtB6_9GrpcProxy7forward0B8_
FNDA:0,_RNCNvNtCsiFMhfKJXoB5_5lb_l710grpc_proxy17finalize_upstream0B5_
FNDA:0,_RNCNvNtCsiFMhfKJXoB5_5lb_l710grpc_proxy19grpc_error_response0B5_
FNDA:0,_RNCNvNtCsiFMhfKJXoB5_5lb_l710grpc_proxy19handle_health_check0B5_
FNDA:0,_RNCNvNtCsiFMhfKJXoB5_5lb_l710grpc_proxy24rewrite_uri_for_upstream0B5_
FNDA:0,_RNCNvNtCsiFMhfKJXoB5_5lb_l710grpc_proxy29health_check_serving_response0B5_
FNDA:0,_RNvMs_NtCsiFMhfKJXoB5_5lb_l710grpc_proxyNtB4_9GrpcProxy20max_header_list_size
FNDA:0,_RNvMs_NtCsiFMhfKJXoB5_5lb_l710grpc_proxyNtB4_9GrpcProxy25with_max_header_list_size
FNDA:0,_RNvMs_NtCsiFMhfKJXoB5_5lb_l710grpc_proxyNtB4_9GrpcProxy3new
FNDA:0,_RNvMs_NtCsiFMhfKJXoB5_5lb_l710grpc_proxyNtB4_9GrpcProxy6config
FNDA:0,_RNvMs_NtCsiFMhfKJXoB5_5lb_l710grpc_proxyNtB4_9GrpcProxy6handle
FNDA:0,_RNvMs_NtCsiFMhfKJXoB5_5lb_l710grpc_proxyNtB4_9GrpcProxy7forward
FNDA:0,_RNvNtCsiFMhfKJXoB5_5lb_l710grpc_proxy11read_varint
FNDA:0,_RNvNtCsiFMhfKJXoB5_5lb_l710grpc_proxy14empty_fallback
FNDA:0,_RNvNtCsiFMhfKJXoB5_5lb_l710grpc_proxy17finalize_upstream
FNDA:0,_RNvNtCsiFMhfKJXoB5_5lb_l710grpc_proxy19grpc_error_response
FNDA:0,_RNvNtCsiFMhfKJXoB5_5lb_l710grpc_proxy19handle_health_check
FNDA:0,_RNvNtCsiFMhfKJXoB5_5lb_l710grpc_proxy24rewrite_uri_for_upstream
FNDA:0,_RNvNtCsiFMhfKJXoB5_5lb_l710grpc_proxy27decode_health_check_service
FNDA:0,_RNvNtCsiFMhfKJXoB5_5lb_l710grpc_proxy28parse_and_clamp_grpc_timeout
FNDA:0,_RNvNtCsiFMhfKJXoB5_5lb_l710grpc_proxy29health_check_serving_response
FNDA:0,_RNvXNtCsiFMhfKJXoB5_5lb_l710grpc_proxyNtB2_10GrpcConfigNtNtCs2va5m0jqTTM_4core7default7Default7default
FNF:29
FNH:0
DA:64,0
DA:65,0
DA:66,0
DA:67,0
DA:68,0
DA:69,0
DA:70,0
DA:98,0
DA:99,0
DA:100,0
DA:101,0
DA:102,0
DA:103,0
DA:104,0
DA:113,0
DA:114,0
DA:115,0
DA:116,0
DA:120,0
DA:121,0
DA:122,0
DA:130,0
DA:131,0
DA:132,0
DA:145,0
DA:146,0
DA:147,0
DA:148,0
DA:149,0
DA:150,0
DA:151,0
DA:152,0
DA:154,0
DA:155,0
DA:156,0
DA:157,0
DA:166,0
DA:167,0
DA:168,0
DA:169,0
DA:170,0
DA:171,0
DA:178,0
DA:179,0
DA:180,0
DA:181,0
DA:182,0
DA:183,0
DA:184,0
DA:185,0
DA:186,0
DA:194,0
DA:195,0
DA:196,0
DA:202,0
DA:203,0
DA:204,0
DA:210,0
DA:211,0
DA:215,0
DA:216,0
DA:217,0
DA:218,0
DA:219,0
DA:220,0
DA:221,0
DA:224,0
DA:225,0
DA:233,0
DA:234,0
DA:235,0
DA:236,0
DA:237,0
DA:239,0
DA:240,0
DA:241,0
DA:242,0
DA:243,0
DA:244,0
DA:247,0
DA:248,0
DA:249,0
DA:250,0
DA:251,0
DA:252,0
DA:253,0
DA:254,0
DA:255,0
DA:257,0
DA:258,0
DA:261,0
DA:264,0
DA:265,0
DA:266,0
DA:267,0
DA:268,0
DA:271,0
DA:272,0
DA:273,0
DA:274,0
DA:279,0
DA:280,0
DA:281,0
DA:282,0
DA:283,0
DA:284,0
DA:285,0
DA:286,0
DA:287,0
DA:288,0
DA:289,0
DA:290,0
DA:292,0
DA:293,0
DA:294,0
DA:301,0
DA:302,0
DA:303,0
DA:304,0
DA:305,0
DA:306,0
DA:307,0
DA:308,0
DA:309,0
DA:310,0
DA:333,0
DA:334,0
DA:335,0
DA:337,0
DA:339,0
DA:341,0
DA:342,0
DA:343,0
DA:345,0
DA:346,0
DA:347,0
DA:348,0
DA:349,0
DA:350,0
DA:351,0
DA:352,0
DA:384,0
DA:388,0
DA:389,0
DA:390,0
DA:391,0
DA:392,0
DA:393,0
DA:394,0
DA:395,0
DA:396,0
DA:397,0
DA:398,0
DA:399,0
DA:404,0
DA:405,0
DA:406,0
DA:407,0
DA:408,0
DA:409,0
DA:410,0
DA:411,0
DA:412,0
DA:413,0
DA:414,0
DA:415,0
DA:416,0
DA:417,0
DA:418,0
DA:419,0
DA:420,0
DA:421,0
DA:422,0
DA:423,0
DA:424,0
DA:425,0
DA:426,0
DA:427,0
DA:428,0
DA:429,0
DA:445,0
DA:446,0
DA:447,0
DA:448,0
DA:449,0
DA:451,0
DA:452,0
DA:456,0
DA:457,0
DA:458,0
DA:459,0
DA:460,0
DA:461,0
DA:462,0
DA:463,0
DA:464,0
DA:465,0
DA:466,0
DA:468,0
DA:469,0
DA:470,0
DA:471,0
DA:474,0
DA:475,0
DA:477,0
DA:478,0
DA:479,0
DA:481,0
DA:482,0
DA:484,0
DA:485,0
DA:486,0
DA:487,0
DA:488,0
DA:490,0
DA:491,0
DA:493,0
DA:497,0
DA:498,0
DA:500,0
DA:504,0
DA:505,0
DA:507,0
DA:508,0
DA:509,0
DA:511,0
DA:512,0
DA:514,0
DA:515,0
DA:516,0
DA:517,0
DA:519,0
DA:520,0
DA:521,0
DA:524,0
DA:525,0
DA:530,0
DA:531,0
DA:532,0
DA:533,0
DA:534,0
DA:535,0
DA:536,0
DA:537,0
DA:538,0
DA:539,0
DA:540,0
DA:541,0
DA:542,0
DA:544,0
DA:545,0
DA:547,0
DA:548,0
DA:549,0
DA:550,0
DA:551,0
DA:552,0
DA:553,0
DA:559,0
DA:560,0
DA:561,0
DA:562,0
DA:563,0
DA:564,0
DA:565,0
DA:566,0
DA:567,0
DA:568,0
DA:569,0
DA:570,0
DA:571,0
DA:572,0
DA:573,0
DA:574,0
DA:575,0
DA:576,0
DA:577,0
DA:586,0
DA:587,0
DA:588,0
DA:589,0
DA:590,0
DA:591,0
DA:592,0
DA:593,0
DA:594,0
DA:595,0
DA:596,0
DA:597,0
DA:598,0
DA:599,0
DA:600,0
BRF:0
BRH:0
LF:306
LH:0
end_of_record
SF:/home/ubuntu/Code/s8-verifier/crates/lb-l7/src/h1_proxy.rs
FN:480,_RINvMs2_NtCsiFMhfKJXoB5_5lb_l78h1_proxyNtB6_7H1Proxy16serve_connectionINtNtCs7m3feRqGqA4_12tokio_rustls6server9TlsStreamNtNtNtNtCsfWKKmeeA0Vo_5tokio3net3tcp6stream9TcpStreamEECs2gn4DoUa6Db_28h2_validation_before_forward
FN:515,_RINvMs2_NtCsiFMhfKJXoB5_5lb_l78h1_proxyNtB6_7H1Proxy28serve_connection_with_cancelINtNtCs7m3feRqGqA4_12tokio_rustls6server9TlsStreamNtNtNtNtCsfWKKmeeA0Vo_5tokio3net3tcp6stream9TcpStreamEECs2gn4DoUa6Db_28h2_validation_before_forward
FN:546,_RINvMs2_NtCsiFMhfKJXoB5_5lb_l78h1_proxyNtB6_7H1Proxy32serve_connection_with_cancel_sniINtNtCs7m3feRqGqA4_12tokio_rustls6server9TlsStreamNtNtNtNtCsfWKKmeeA0Vo_5tokio3net3tcp6stream9TcpStreamEECs2gn4DoUa6Db_28h2_validation_before_forward
FN:483,_RNCINvMs2_NtCsiFMhfKJXoB5_5lb_l78h1_proxyNtB8_7H1Proxy16serve_connectionINtNtCs7m3feRqGqA4_12tokio_rustls6server9TlsStreamNtNtNtNtCsfWKKmeeA0Vo_5tokio3net3tcp6stream9TcpStreamEE0Cs2gn4DoUa6Db_28h2_validation_before_forward
FN:523,_RNCINvMs2_NtCsiFMhfKJXoB5_5lb_l78h1_proxyNtB8_7H1Proxy28serve_connection_with_cancelINtNtCs7m3feRqGqA4_12tokio_rustls6server9TlsStreamNtNtNtNtCsfWKKmeeA0Vo_5tokio3net3tcp6stream9TcpStreamEE0Cs2gn4DoUa6Db_28h2_validation_before_forward
FN:555,_RNCINvMs2_NtCsiFMhfKJXoB5_5lb_l78h1_proxyNtB8_7H1Proxy32serve_connection_with_cancel_sniINtNtCs7m3feRqGqA4_12tokio_rustls6server9TlsStreamNtNtNtNtCsfWKKmeeA0Vo_5tokio3net3tcp6stream9TcpStreamEE0Cs2gn4DoUa6Db_28h2_validation_before_forward
FN:480,_RINvMs2_NtCsiFMhfKJXoB5_5lb_l78h1_proxyNtB6_7H1Proxy16serve_connectionpEB8_
FN:515,_RINvMs2_NtCsiFMhfKJXoB5_5lb_l78h1_proxyNtB6_7H1Proxy28serve_connection_with_cancelpEB8_
FN:546,_RINvMs2_NtCsiFMhfKJXoB5_5lb_l78h1_proxyNtB6_7H1Proxy32serve_connection_with_cancel_snipEB8_
FN:483,_RNCINvMs2_NtCsiFMhfKJXoB5_5lb_l78h1_proxyNtB8_7H1Proxy16serve_connectionpE0Ba_
FN:523,_RNCINvMs2_NtCsiFMhfKJXoB5_5lb_l78h1_proxyNtB8_7H1Proxy28serve_connection_with_cancelpE0Ba_
FN:555,_RNCINvMs2_NtCsiFMhfKJXoB5_5lb_l78h1_proxyNtB8_7H1Proxy32serve_connection_with_cancel_snipE0Ba_
FN:1751,_RNCNCNCNCNvNtCsiFMhfKJXoB5_5lb_l78h1_proxy23upstream_response_to_h10000Bb_
FN:1625,_RNCNCNCNCNvNtCsiFMhfKJXoB5_5lb_l78h1_proxy26translate_h1_request_to_h20s_000Bb_
FN:1891,_RNCNCNCNCNvNtCsiFMhfKJXoB5_5lb_l78h1_proxy34collect_h1_request_to_h3_fieldlist0s_000Bb_
FN:953,_RNCNCNCNvMs4_NtCsiFMhfKJXoB5_5lb_l78h1_proxyNtBb_7H1Proxy12handle_inner0s5_00Bd_
FN:987,_RNCNCNCNvMs4_NtCsiFMhfKJXoB5_5lb_l78h1_proxyNtBb_7H1Proxy12handle_inner0s6_00Bd_
FN:1748,_RNCNCNCNvNtCsiFMhfKJXoB5_5lb_l78h1_proxy23upstream_response_to_h1000B9_
FN:1765,_RNCNCNCNvNtCsiFMhfKJXoB5_5lb_l78h1_proxy23upstream_response_to_h10s_00B9_
FN:1643,_RNCNCNCNvNtCsiFMhfKJXoB5_5lb_l78h1_proxy26translate_h1_request_to_h20s1_00B9_
FN:1622,_RNCNCNCNvNtCsiFMhfKJXoB5_5lb_l78h1_proxy26translate_h1_request_to_h20s_00B9_
FN:1916,_RNCNCNCNvNtCsiFMhfKJXoB5_5lb_l78h1_proxy34collect_h1_request_to_h3_fieldlist0s3_00B9_
FN:1888,_RNCNCNCNvNtCsiFMhfKJXoB5_5lb_l78h1_proxy34collect_h1_request_to_h3_fieldlist0s_00B9_
FN:805,_RNCNCNvMs4_NtCsiFMhfKJXoB5_5lb_l78h1_proxyNtB9_7H1Proxy12handle_inner00Bb_
FN:828,_RNCNCNvMs4_NtCsiFMhfKJXoB5_5lb_l78h1_proxyNtB9_7H1Proxy12handle_inner0s0_0Bb_
FN:856,_RNCNCNvMs4_NtCsiFMhfKJXoB5_5lb_l78h1_proxyNtB9_7H1Proxy12handle_inner0s1_0Bb_
FN:868,_RNCNCNvMs4_NtCsiFMhfKJXoB5_5lb_l78h1_proxyNtB9_7H1Proxy12handle_inner0s2_0Bb_
FN:896,_RNCNCNvMs4_NtCsiFMhfKJXoB5_5lb_l78h1_proxyNtB9_7H1Proxy12handle_inner0s3_0Bb_
FN:923,_RNCNCNvMs4_NtCsiFMhfKJXoB5_5lb_l78h1_proxyNtB9_7H1Proxy12handle_inner0s4_0Bb_
FN:950,_RNCNCNvMs4_NtCsiFMhfKJXoB5_5lb_l78h1_proxyNtB9_7H1Proxy12handle_inner0s5_0Bb_
FN:971,_RNCNCNvMs4_NtCsiFMhfKJXoB5_5lb_l78h1_proxyNtB9_7H1Proxy12handle_inner0s6_0Bb_
FN:998,_RNCNCNvMs4_NtCsiFMhfKJXoB5_5lb_l78h1_proxyNtB9_7H1Proxy12handle_inner0s7_0Bb_
FN:806,_RNCNCNvMs4_NtCsiFMhfKJXoB5_5lb_l78h1_proxyNtB9_7H1Proxy12handle_inner0s_0Bb_
FN:1086,_RNCNCNvMs4_NtCsiFMhfKJXoB5_5lb_l78h1_proxyNtB9_7H1Proxy13proxy_request00Bb_
FN:1099,_RNCNCNvMs4_NtCsiFMhfKJXoB5_5lb_l78h1_proxyNtB9_7H1Proxy13proxy_request0s0_0Bb_
FN:1101,_RNCNCNvMs4_NtCsiFMhfKJXoB5_5lb_l78h1_proxyNtB9_7H1Proxy13proxy_request0s1_0Bb_
FN:1095,_RNCNCNvMs4_NtCsiFMhfKJXoB5_5lb_l78h1_proxyNtB9_7H1Proxy13proxy_request0s_0Bb_
FN:1258,_RNCNCNvMs4_NtCsiFMhfKJXoB5_5lb_l78h1_proxyNtB9_7H1Proxy17handle_ws_upgrade00Bb_
FN:1322,_RNCNCNvMs4_NtCsiFMhfKJXoB5_5lb_l78h1_proxyNtB9_7H1Proxy17handle_ws_upgrade0s0_0Bb_
FN:1323,_RNCNCNvMs4_NtCsiFMhfKJXoB5_5lb_l78h1_proxyNtB9_7H1Proxy17handle_ws_upgrade0s1_0Bb_
FN:1325,_RNCNCNvMs4_NtCsiFMhfKJXoB5_5lb_l78h1_proxyNtB9_7H1Proxy17handle_ws_upgrade0s2_0Bb_
FN:1326,_RNCNCNvMs4_NtCsiFMhfKJXoB5_5lb_l78h1_proxyNtB9_7H1Proxy17handle_ws_upgrade0s3_0Bb_
FN:1337,_RNCNCNvMs4_NtCsiFMhfKJXoB5_5lb_l78h1_proxyNtB9_7H1Proxy17handle_ws_upgrade0s5_0Bb_
FN:1262,_RNCNCNvMs4_NtCsiFMhfKJXoB5_5lb_l78h1_proxyNtB9_7H1Proxy17handle_ws_upgrade0s_0Bb_
FN:1389,_RNCNCNvNtCsiFMhfKJXoB5_5lb_l78h1_proxy16dial_upstream_ws00B7_
FN:1396,_RNCNCNvNtCsiFMhfKJXoB5_5lb_l78h1_proxy16dial_upstream_ws0s0_0B7_
FN:1424,_RNCNCNvNtCsiFMhfKJXoB5_5lb_l78h1_proxy16dial_upstream_ws0s1_0B7_
FN:1392,_RNCNCNvNtCsiFMhfKJXoB5_5lb_l78h1_proxy16dial_upstream_ws0s_0B7_
FN:1746,_RNCNCNvNtCsiFMhfKJXoB5_5lb_l78h1_proxy23upstream_response_to_h100B7_
FN:1762,_RNCNCNvNtCsiFMhfKJXoB5_5lb_l78h1_proxy23upstream_response_to_h10s_0B7_
FN:1615,_RNCNCNvNtCsiFMhfKJXoB5_5lb_l78h1_proxy26translate_h1_request_to_h200B7_
FN:1636,_RNCNCNvNtCsiFMhfKJXoB5_5lb_l78h1_proxy26translate_h1_request_to_h20s0_0B7_
FN:1640,_RNCNCNvNtCsiFMhfKJXoB5_5lb_l78h1_proxy26translate_h1_request_to_h20s1_0B7_
FN:1652,_RNCNCNvNtCsiFMhfKJXoB5_5lb_l78h1_proxy26translate_h1_request_to_h20s2_0B7_
FN:1658,_RNCNCNvNtCsiFMhfKJXoB5_5lb_l78h1_proxy26translate_h1_request_to_h20s3_0B7_
FN:1659,_RNCNCNvNtCsiFMhfKJXoB5_5lb_l78h1_proxy26translate_h1_request_to_h20s4_0B7_
FN:1660,_RNCNCNvNtCsiFMhfKJXoB5_5lb_l78h1_proxy26translate_h1_request_to_h20s5_0B7_
FN:1689,_RNCNCNvNtCsiFMhfKJXoB5_5lb_l78h1_proxy26translate_h1_request_to_h20s6_0B7_
FN:1620,_RNCNCNvNtCsiFMhfKJXoB5_5lb_l78h1_proxy26translate_h1_request_to_h20s_0B7_
FN:1881,_RNCNCNvNtCsiFMhfKJXoB5_5lb_l78h1_proxy34collect_h1_request_to_h3_fieldlist00B7_
FN:1899,_RNCNCNvNtCsiFMhfKJXoB5_5lb_l78h1_proxy34collect_h1_request_to_h3_fieldlist0s0_0B7_
FN:1900,_RNCNCNvNtCsiFMhfKJXoB5_5lb_l78h1_proxy34collect_h1_request_to_h3_fieldlist0s1_0B7_
FN:1908,_RNCNCNvNtCsiFMhfKJXoB5_5lb_l78h1_proxy34collect_h1_request_to_h3_fieldlist0s2_0B7_
FN:1913,_RNCNCNvNtCsiFMhfKJXoB5_5lb_l78h1_proxy34collect_h1_request_to_h3_fieldlist0s3_0B7_
FN:1920,_RNCNCNvNtCsiFMhfKJXoB5_5lb_l78h1_proxy34collect_h1_request_to_h3_fieldlist0s4_0B7_
FN:1934,_RNCNCNvNtCsiFMhfKJXoB5_5lb_l78h1_proxy34collect_h1_request_to_h3_fieldlist0s5_0B7_
FN:1938,_RNCNCNvNtCsiFMhfKJXoB5_5lb_l78h1_proxy34collect_h1_request_to_h3_fieldlist0s6_0B7_
FN:1886,_RNCNCNvNtCsiFMhfKJXoB5_5lb_l78h1_proxy34collect_h1_request_to_h3_fieldlist0s_0B7_
FN:766,_RNCNvMs4_NtCsiFMhfKJXoB5_5lb_l78h1_proxyNtB7_7H1Proxy12handle_inner0B9_
FN:1077,_RNCNvMs4_NtCsiFMhfKJXoB5_5lb_l78h1_proxyNtB7_7H1Proxy13proxy_request0B9_
FN:1140,_RNCNvMs4_NtCsiFMhfKJXoB5_5lb_l78h1_proxyNtB7_7H1Proxy14proxy_h1_to_h20B9_
FN:1169,_RNCNvMs4_NtCsiFMhfKJXoB5_5lb_l78h1_proxyNtB7_7H1Proxy14proxy_h1_to_h30B9_
FN:1235,_RNCNvMs4_NtCsiFMhfKJXoB5_5lb_l78h1_proxyNtB7_7H1Proxy17handle_ws_upgrade0B9_
FN:733,_RNCNvMs4_NtCsiFMhfKJXoB5_5lb_l78h1_proxyNtB7_7H1Proxy6handle0B9_
FN:1382,_RNCNvNtCsiFMhfKJXoB5_5lb_l78h1_proxy16dial_upstream_ws0B5_
FN:1504,_RNCNvNtCsiFMhfKJXoB5_5lb_l78h1_proxy16strip_hop_by_hop0B5_
FN:1507,_RNCNvNtCsiFMhfKJXoB5_5lb_l78h1_proxy16strip_hop_by_hops0_0B5_
FN:1508,_RNCNvNtCsiFMhfKJXoB5_5lb_l78h1_proxy16strip_hop_by_hops1_0B5_
FN:1505,_RNCNvNtCsiFMhfKJXoB5_5lb_l78h1_proxy16strip_hop_by_hops_0B5_
FN:1437,_RNCNvNtCsiFMhfKJXoB5_5lb_l78h1_proxy21run_h1_ws_splice_task0B5_
FN:1733,_RNCNvNtCsiFMhfKJXoB5_5lb_l78h1_proxy23upstream_response_to_h10B5_
FN:1608,_RNCNvNtCsiFMhfKJXoB5_5lb_l78h1_proxy26translate_h1_request_to_h20B5_
FN:1834,_RNCNvNtCsiFMhfKJXoB5_5lb_l78h1_proxy31build_h1_response_with_trailers0B5_
FN:1855,_RNCNvNtCsiFMhfKJXoB5_5lb_l78h1_proxy31build_h1_response_with_trailerss_0B5_
FN:1875,_RNCNvNtCsiFMhfKJXoB5_5lb_l78h1_proxy34collect_h1_request_to_h3_fieldlist0B5_
FN:692,_RNCNvXs3_NtCsiFMhfKJXoB5_5lb_l78h1_proxyNtB7_12ProxyServiceINtNtNtCsgB3dp6qvXvn_5hyper7service7service7ServiceINtNtCsjFxw70quGA5_4http7request7RequestNtNtNtB12_4body8incoming8IncomingEE4call0B9_
FN:93,_RNvMNtCsiFMhfKJXoB5_5lb_l78h1_proxyNtB2_12AltSvcConfig12header_value
FN:164,_RNvMs0_NtCsiFMhfKJXoB5_5lb_l78h1_proxyNtB5_15RoundRobinAddrs3new
FN:354,_RNvMs2_NtCsiFMhfKJXoB5_5lb_l78h1_proxyNtB5_7H1Proxy10with_hooks
FN:369,_RNvMs2_NtCsiFMhfKJXoB5_5lb_l78h1_proxyNtB5_7H1Proxy13with_watchdog
FN:462,_RNvMs2_NtCsiFMhfKJXoB5_5lb_l78h1_proxyNtB5_7H1Proxy14with_websocket
FN:427,_RNvMs2_NtCsiFMhfKJXoB5_5lb_l78h1_proxyNtB5_7H1Proxy15has_h2_upstream
FN:434,_RNvMs2_NtCsiFMhfKJXoB5_5lb_l78h1_proxyNtB5_7H1Proxy15has_h3_upstream
FN:410,_RNvMs2_NtCsiFMhfKJXoB5_5lb_l78h1_proxyNtB5_7H1Proxy16with_h2_upstream
FN:418,_RNvMs2_NtCsiFMhfKJXoB5_5lb_l78h1_proxyNtB5_7H1Proxy16with_h3_upstream
FN:317,_RNvMs2_NtCsiFMhfKJXoB5_5lb_l78h1_proxyNtB5_7H1Proxy16with_multi_proto
FN:402,_RNvMs2_NtCsiFMhfKJXoB5_5lb_l78h1_proxyNtB5_7H1Proxy17with_expected_sni
FN:379,_RNvMs2_NtCsiFMhfKJXoB5_5lb_l78h1_proxyNtB5_7H1Proxy19with_smuggle_strict
FN:443,_RNvMs2_NtCsiFMhfKJXoB5_5lb_l78h1_proxyNtB5_7H1Proxy27with_max_keepalive_requests
FN:390,_RNvMs2_NtCsiFMhfKJXoB5_5lb_l78h1_proxyNtB5_7H1Proxy29with_header_underscore_policy
FN:453,_RNvMs2_NtCsiFMhfKJXoB5_5lb_l78h1_proxyNtB5_7H1Proxy33keepalive_cap_termination_counter
FN:273,_RNvMs2_NtCsiFMhfKJXoB5_5lb_l78h1_proxyNtB5_7H1Proxy3new
FN:760,_RNvMs4_NtCsiFMhfKJXoB5_5lb_l78h1_proxyNtB5_7H1Proxy12handle_inner
FN:1073,_RNvMs4_NtCsiFMhfKJXoB5_5lb_l78h1_proxyNtB5_7H1Proxy13proxy_request
FN:1136,_RNvMs4_NtCsiFMhfKJXoB5_5lb_l78h1_proxyNtB5_7H1Proxy14proxy_h1_to_h2
FN:1165,_RNvMs4_NtCsiFMhfKJXoB5_5lb_l78h1_proxyNtB5_7H1Proxy14proxy_h1_to_h3
FN:1342,_RNvMs4_NtCsiFMhfKJXoB5_5lb_l78h1_proxyNtB5_7H1Proxy17finalize_response
FN:1231,_RNvMs4_NtCsiFMhfKJXoB5_5lb_l78h1_proxyNtB5_7H1Proxy17handle_ws_upgrade
FN:728,_RNvMs4_NtCsiFMhfKJXoB5_5lb_l78h1_proxyNtB5_7H1Proxy6handle
FN:1572,_RNvNtCsiFMhfKJXoB5_5lb_l78h1_proxy10append_via
FN:1532,_RNvNtCsiFMhfKJXoB5_5lb_l78h1_proxy10append_xff
FN:1454,_RNvNtCsiFMhfKJXoB5_5lb_l78h1_proxy14error_response
FN:1374,_RNvNtCsiFMhfKJXoB5_5lb_l78h1_proxy16dial_upstream_ws
FN:1498,_RNvNtCsiFMhfKJXoB5_5lb_l78h1_proxy16strip_hop_by_hop
FN:1947,_RNvNtCsiFMhfKJXoB5_5lb_l78h1_proxy17h3_response_to_h1
FN:1478,_RNvNtCsiFMhfKJXoB5_5lb_l78h1_proxy18reject_to_response
FN:1433,_RNvNtCsiFMhfKJXoB5_5lb_l78h1_proxy21run_h1_ws_splice_task
FN:1730,_RNvNtCsiFMhfKJXoB5_5lb_l78h1_proxy23upstream_response_to_h1
FN:1698,_RNvNtCsiFMhfKJXoB5_5lb_l78h1_proxy24build_body_with_trailers
FN:1606,_RNvNtCsiFMhfKJXoB5_5lb_l78h1_proxy26translate_h1_request_to_h2
FN:1798,_RNvNtCsiFMhfKJXoB5_5lb_l78h1_proxy31build_h1_response_with_trailers
FN:1871,_RNvNtCsiFMhfKJXoB5_5lb_l78h1_proxy34collect_h1_request_to_h3_fieldlist
FN:1561,_RNvNtCsiFMhfKJXoB5_5lb_l78h1_proxy7set_xfh
FN:1553,_RNvNtCsiFMhfKJXoB5_5lb_l78h1_proxy7set_xfp
FN:176,_RNvXs1_NtCsiFMhfKJXoB5_5lb_l78h1_proxyNtB5_15RoundRobinAddrsNtB5_13BackendPicker4pick
FN:677,_RNvXs3_NtCsiFMhfKJXoB5_5lb_l78h1_proxyNtB5_12ProxyServiceINtNtNtCsgB3dp6qvXvn_5hyper7service7service7ServiceINtNtCsjFxw70quGA5_4http7request7RequestNtNtNtB10_4body8incoming8IncomingEE4call
FN:114,_RNvXs_NtCsiFMhfKJXoB5_5lb_l78h1_proxyNtB4_12HttpTimeoutsNtNtCs2va5m0jqTTM_4core7default7Default7default
FN:480,_RINvMs2_NtCsiFMhfKJXoB5_5lb_l78h1_proxyNtB6_7H1Proxy16serve_connectionINtNtCs7m3feRqGqA4_12tokio_rustls6server9TlsStreamNtNtNtNtCsfWKKmeeA0Vo_5tokio3net3tcp6stream9TcpStreamEECsjqGwtXRutxH_23h2h1_md_coverage_driver
FN:515,_RINvMs2_NtCsiFMhfKJXoB5_5lb_l78h1_proxyNtB6_7H1Proxy28serve_connection_with_cancelINtNtCs7m3feRqGqA4_12tokio_rustls6server9TlsStreamNtNtNtNtCsfWKKmeeA0Vo_5tokio3net3tcp6stream9TcpStreamEECsjqGwtXRutxH_23h2h1_md_coverage_driver
FN:546,_RINvMs2_NtCsiFMhfKJXoB5_5lb_l78h1_proxyNtB6_7H1Proxy32serve_connection_with_cancel_sniINtNtCs7m3feRqGqA4_12tokio_rustls6server9TlsStreamNtNtNtNtCsfWKKmeeA0Vo_5tokio3net3tcp6stream9TcpStreamEECsjqGwtXRutxH_23h2h1_md_coverage_driver
FN:483,_RNCINvMs2_NtCsiFMhfKJXoB5_5lb_l78h1_proxyNtB8_7H1Proxy16serve_connectionINtNtCs7m3feRqGqA4_12tokio_rustls6server9TlsStreamNtNtNtNtCsfWKKmeeA0Vo_5tokio3net3tcp6stream9TcpStreamEE0CsjqGwtXRutxH_23h2h1_md_coverage_driver
FN:523,_RNCINvMs2_NtCsiFMhfKJXoB5_5lb_l78h1_proxyNtB8_7H1Proxy28serve_connection_with_cancelINtNtCs7m3feRqGqA4_12tokio_rustls6server9TlsStreamNtNtNtNtCsfWKKmeeA0Vo_5tokio3net3tcp6stream9TcpStreamEE0CsjqGwtXRutxH_23h2h1_md_coverage_driver
FN:555,_RNCINvMs2_NtCsiFMhfKJXoB5_5lb_l78h1_proxyNtB8_7H1Proxy32serve_connection_with_cancel_sniINtNtCs7m3feRqGqA4_12tokio_rustls6server9TlsStreamNtNtNtNtCsfWKKmeeA0Vo_5tokio3net3tcp6stream9TcpStreamEE0CsjqGwtXRutxH_23h2h1_md_coverage_driver
FNDA:0,_RINvMs2_NtCsiFMhfKJXoB5_5lb_l78h1_proxyNtB6_7H1Proxy16serve_connectionINtNtCs7m3feRqGqA4_12tokio_rustls6server9TlsStreamNtNtNtNtCsfWKKmeeA0Vo_5tokio3net3tcp6stream9TcpStreamEECs2gn4DoUa6Db_28h2_validation_before_forward
FNDA:0,_RINvMs2_NtCsiFMhfKJXoB5_5lb_l78h1_proxyNtB6_7H1Proxy28serve_connection_with_cancelINtNtCs7m3feRqGqA4_12tokio_rustls6server9TlsStreamNtNtNtNtCsfWKKmeeA0Vo_5tokio3net3tcp6stream9TcpStreamEECs2gn4DoUa6Db_28h2_validation_before_forward
FNDA:0,_RINvMs2_NtCsiFMhfKJXoB5_5lb_l78h1_proxyNtB6_7H1Proxy32serve_connection_with_cancel_sniINtNtCs7m3feRqGqA4_12tokio_rustls6server9TlsStreamNtNtNtNtCsfWKKmeeA0Vo_5tokio3net3tcp6stream9TcpStreamEECs2gn4DoUa6Db_28h2_validation_before_forward
FNDA:0,_RNCINvMs2_NtCsiFMhfKJXoB5_5lb_l78h1_proxyNtB8_7H1Proxy16serve_connectionINtNtCs7m3feRqGqA4_12tokio_rustls6server9TlsStreamNtNtNtNtCsfWKKmeeA0Vo_5tokio3net3tcp6stream9TcpStreamEE0Cs2gn4DoUa6Db_28h2_validation_before_forward
FNDA:0,_RNCINvMs2_NtCsiFMhfKJXoB5_5lb_l78h1_proxyNtB8_7H1Proxy28serve_connection_with_cancelINtNtCs7m3feRqGqA4_12tokio_rustls6server9TlsStreamNtNtNtNtCsfWKKmeeA0Vo_5tokio3net3tcp6stream9TcpStreamEE0Cs2gn4DoUa6Db_28h2_validation_before_forward
FNDA:0,_RNCINvMs2_NtCsiFMhfKJXoB5_5lb_l78h1_proxyNtB8_7H1Proxy32serve_connection_with_cancel_sniINtNtCs7m3feRqGqA4_12tokio_rustls6server9TlsStreamNtNtNtNtCsfWKKmeeA0Vo_5tokio3net3tcp6stream9TcpStreamEE0Cs2gn4DoUa6Db_28h2_validation_before_forward
FNDA:0,_RINvMs2_NtCsiFMhfKJXoB5_5lb_l78h1_proxyNtB6_7H1Proxy16serve_connectionpEB8_
FNDA:0,_RINvMs2_NtCsiFMhfKJXoB5_5lb_l78h1_proxyNtB6_7H1Proxy28serve_connection_with_cancelpEB8_
FNDA:0,_RINvMs2_NtCsiFMhfKJXoB5_5lb_l78h1_proxyNtB6_7H1Proxy32serve_connection_with_cancel_snipEB8_
FNDA:0,_RNCINvMs2_NtCsiFMhfKJXoB5_5lb_l78h1_proxyNtB8_7H1Proxy16serve_connectionpE0Ba_
FNDA:0,_RNCINvMs2_NtCsiFMhfKJXoB5_5lb_l78h1_proxyNtB8_7H1Proxy28serve_connection_with_cancelpE0Ba_
FNDA:0,_RNCINvMs2_NtCsiFMhfKJXoB5_5lb_l78h1_proxyNtB8_7H1Proxy32serve_connection_with_cancel_snipE0Ba_
FNDA:0,_RNCNCNCNCNvNtCsiFMhfKJXoB5_5lb_l78h1_proxy23upstream_response_to_h10000Bb_
FNDA:0,_RNCNCNCNCNvNtCsiFMhfKJXoB5_5lb_l78h1_proxy26translate_h1_request_to_h20s_000Bb_
FNDA:0,_RNCNCNCNCNvNtCsiFMhfKJXoB5_5lb_l78h1_proxy34collect_h1_request_to_h3_fieldlist0s_000Bb_
FNDA:0,_RNCNCNCNvMs4_NtCsiFMhfKJXoB5_5lb_l78h1_proxyNtBb_7H1Proxy12handle_inner0s5_00Bd_
FNDA:0,_RNCNCNCNvMs4_NtCsiFMhfKJXoB5_5lb_l78h1_proxyNtBb_7H1Proxy12handle_inner0s6_00Bd_
FNDA:0,_RNCNCNCNvNtCsiFMhfKJXoB5_5lb_l78h1_proxy23upstream_response_to_h1000B9_
FNDA:0,_RNCNCNCNvNtCsiFMhfKJXoB5_5lb_l78h1_proxy23upstream_response_to_h10s_00B9_
FNDA:0,_RNCNCNCNvNtCsiFMhfKJXoB5_5lb_l78h1_proxy26translate_h1_request_to_h20s1_00B9_
FNDA:0,_RNCNCNCNvNtCsiFMhfKJXoB5_5lb_l78h1_proxy26translate_h1_request_to_h20s_00B9_
FNDA:0,_RNCNCNCNvNtCsiFMhfKJXoB5_5lb_l78h1_proxy34collect_h1_request_to_h3_fieldlist0s3_00B9_
FNDA:0,_RNCNCNCNvNtCsiFMhfKJXoB5_5lb_l78h1_proxy34collect_h1_request_to_h3_fieldlist0s_00B9_
FNDA:0,_RNCNCNvMs4_NtCsiFMhfKJXoB5_5lb_l78h1_proxyNtB9_7H1Proxy12handle_inner00Bb_
FNDA:0,_RNCNCNvMs4_NtCsiFMhfKJXoB5_5lb_l78h1_proxyNtB9_7H1Proxy12handle_inner0s0_0Bb_
FNDA:0,_RNCNCNvMs4_NtCsiFMhfKJXoB5_5lb_l78h1_proxyNtB9_7H1Proxy12handle_inner0s1_0Bb_
FNDA:0,_RNCNCNvMs4_NtCsiFMhfKJXoB5_5lb_l78h1_proxyNtB9_7H1Proxy12handle_inner0s2_0Bb_
FNDA:0,_RNCNCNvMs4_NtCsiFMhfKJXoB5_5lb_l78h1_proxyNtB9_7H1Proxy12handle_inner0s3_0Bb_
FNDA:0,_RNCNCNvMs4_NtCsiFMhfKJXoB5_5lb_l78h1_proxyNtB9_7H1Proxy12handle_inner0s4_0Bb_
FNDA:0,_RNCNCNvMs4_NtCsiFMhfKJXoB5_5lb_l78h1_proxyNtB9_7H1Proxy12handle_inner0s5_0Bb_
FNDA:0,_RNCNCNvMs4_NtCsiFMhfKJXoB5_5lb_l78h1_proxyNtB9_7H1Proxy12handle_inner0s6_0Bb_
FNDA:0,_RNCNCNvMs4_NtCsiFMhfKJXoB5_5lb_l78h1_proxyNtB9_7H1Proxy12handle_inner0s7_0Bb_
FNDA:0,_RNCNCNvMs4_NtCsiFMhfKJXoB5_5lb_l78h1_proxyNtB9_7H1Proxy12handle_inner0s_0Bb_
FNDA:0,_RNCNCNvMs4_NtCsiFMhfKJXoB5_5lb_l78h1_proxyNtB9_7H1Proxy13proxy_request00Bb_
FNDA:0,_RNCNCNvMs4_NtCsiFMhfKJXoB5_5lb_l78h1_proxyNtB9_7H1Proxy13proxy_request0s0_0Bb_
FNDA:0,_RNCNCNvMs4_NtCsiFMhfKJXoB5_5lb_l78h1_proxyNtB9_7H1Proxy13proxy_request0s1_0Bb_
FNDA:0,_RNCNCNvMs4_NtCsiFMhfKJXoB5_5lb_l78h1_proxyNtB9_7H1Proxy13proxy_request0s_0Bb_
FNDA:0,_RNCNCNvMs4_NtCsiFMhfKJXoB5_5lb_l78h1_proxyNtB9_7H1Proxy17handle_ws_upgrade00Bb_
FNDA:0,_RNCNCNvMs4_NtCsiFMhfKJXoB5_5lb_l78h1_proxyNtB9_7H1Proxy17handle_ws_upgrade0s0_0Bb_
FNDA:0,_RNCNCNvMs4_NtCsiFMhfKJXoB5_5lb_l78h1_proxyNtB9_7H1Proxy17handle_ws_upgrade0s1_0Bb_
FNDA:0,_RNCNCNvMs4_NtCsiFMhfKJXoB5_5lb_l78h1_proxyNtB9_7H1Proxy17handle_ws_upgrade0s2_0Bb_
FNDA:0,_RNCNCNvMs4_NtCsiFMhfKJXoB5_5lb_l78h1_proxyNtB9_7H1Proxy17handle_ws_upgrade0s3_0Bb_
FNDA:0,_RNCNCNvMs4_NtCsiFMhfKJXoB5_5lb_l78h1_proxyNtB9_7H1Proxy17handle_ws_upgrade0s5_0Bb_
FNDA:0,_RNCNCNvMs4_NtCsiFMhfKJXoB5_5lb_l78h1_proxyNtB9_7H1Proxy17handle_ws_upgrade0s_0Bb_
FNDA:0,_RNCNCNvNtCsiFMhfKJXoB5_5lb_l78h1_proxy16dial_upstream_ws00B7_
FNDA:0,_RNCNCNvNtCsiFMhfKJXoB5_5lb_l78h1_proxy16dial_upstream_ws0s0_0B7_
FNDA:0,_RNCNCNvNtCsiFMhfKJXoB5_5lb_l78h1_proxy16dial_upstream_ws0s1_0B7_
FNDA:0,_RNCNCNvNtCsiFMhfKJXoB5_5lb_l78h1_proxy16dial_upstream_ws0s_0B7_
FNDA:0,_RNCNCNvNtCsiFMhfKJXoB5_5lb_l78h1_proxy23upstream_response_to_h100B7_
FNDA:0,_RNCNCNvNtCsiFMhfKJXoB5_5lb_l78h1_proxy23upstream_response_to_h10s_0B7_
FNDA:0,_RNCNCNvNtCsiFMhfKJXoB5_5lb_l78h1_proxy26translate_h1_request_to_h200B7_
FNDA:0,_RNCNCNvNtCsiFMhfKJXoB5_5lb_l78h1_proxy26translate_h1_request_to_h20s0_0B7_
FNDA:0,_RNCNCNvNtCsiFMhfKJXoB5_5lb_l78h1_proxy26translate_h1_request_to_h20s1_0B7_
FNDA:0,_RNCNCNvNtCsiFMhfKJXoB5_5lb_l78h1_proxy26translate_h1_request_to_h20s2_0B7_
FNDA:0,_RNCNCNvNtCsiFMhfKJXoB5_5lb_l78h1_proxy26translate_h1_request_to_h20s3_0B7_
FNDA:0,_RNCNCNvNtCsiFMhfKJXoB5_5lb_l78h1_proxy26translate_h1_request_to_h20s4_0B7_
FNDA:0,_RNCNCNvNtCsiFMhfKJXoB5_5lb_l78h1_proxy26translate_h1_request_to_h20s5_0B7_
FNDA:0,_RNCNCNvNtCsiFMhfKJXoB5_5lb_l78h1_proxy26translate_h1_request_to_h20s6_0B7_
FNDA:0,_RNCNCNvNtCsiFMhfKJXoB5_5lb_l78h1_proxy26translate_h1_request_to_h20s_0B7_
FNDA:0,_RNCNCNvNtCsiFMhfKJXoB5_5lb_l78h1_proxy34collect_h1_request_to_h3_fieldlist00B7_
FNDA:0,_RNCNCNvNtCsiFMhfKJXoB5_5lb_l78h1_proxy34collect_h1_request_to_h3_fieldlist0s0_0B7_
FNDA:0,_RNCNCNvNtCsiFMhfKJXoB5_5lb_l78h1_proxy34collect_h1_request_to_h3_fieldlist0s1_0B7_
FNDA:0,_RNCNCNvNtCsiFMhfKJXoB5_5lb_l78h1_proxy34collect_h1_request_to_h3_fieldlist0s2_0B7_
FNDA:0,_RNCNCNvNtCsiFMhfKJXoB5_5lb_l78h1_proxy34collect_h1_request_to_h3_fieldlist0s3_0B7_
FNDA:0,_RNCNCNvNtCsiFMhfKJXoB5_5lb_l78h1_proxy34collect_h1_request_to_h3_fieldlist0s4_0B7_
FNDA:0,_RNCNCNvNtCsiFMhfKJXoB5_5lb_l78h1_proxy34collect_h1_request_to_h3_fieldlist0s5_0B7_
FNDA:0,_RNCNCNvNtCsiFMhfKJXoB5_5lb_l78h1_proxy34collect_h1_request_to_h3_fieldlist0s6_0B7_
FNDA:0,_RNCNCNvNtCsiFMhfKJXoB5_5lb_l78h1_proxy34collect_h1_request_to_h3_fieldlist0s_0B7_
FNDA:0,_RNCNvMs4_NtCsiFMhfKJXoB5_5lb_l78h1_proxyNtB7_7H1Proxy12handle_inner0B9_
FNDA:0,_RNCNvMs4_NtCsiFMhfKJXoB5_5lb_l78h1_proxyNtB7_7H1Proxy13proxy_request0B9_
FNDA:0,_RNCNvMs4_NtCsiFMhfKJXoB5_5lb_l78h1_proxyNtB7_7H1Proxy14proxy_h1_to_h20B9_
FNDA:0,_RNCNvMs4_NtCsiFMhfKJXoB5_5lb_l78h1_proxyNtB7_7H1Proxy14proxy_h1_to_h30B9_
FNDA:0,_RNCNvMs4_NtCsiFMhfKJXoB5_5lb_l78h1_proxyNtB7_7H1Proxy17handle_ws_upgrade0B9_
FNDA:0,_RNCNvMs4_NtCsiFMhfKJXoB5_5lb_l78h1_proxyNtB7_7H1Proxy6handle0B9_
FNDA:0,_RNCNvNtCsiFMhfKJXoB5_5lb_l78h1_proxy16dial_upstream_ws0B5_
FNDA:0,_RNCNvNtCsiFMhfKJXoB5_5lb_l78h1_proxy16strip_hop_by_hop0B5_
FNDA:0,_RNCNvNtCsiFMhfKJXoB5_5lb_l78h1_proxy16strip_hop_by_hops0_0B5_
FNDA:0,_RNCNvNtCsiFMhfKJXoB5_5lb_l78h1_proxy16strip_hop_by_hops1_0B5_
FNDA:0,_RNCNvNtCsiFMhfKJXoB5_5lb_l78h1_proxy16strip_hop_by_hops_0B5_
FNDA:0,_RNCNvNtCsiFMhfKJXoB5_5lb_l78h1_proxy21run_h1_ws_splice_task0B5_
FNDA:0,_RNCNvNtCsiFMhfKJXoB5_5lb_l78h1_proxy23upstream_response_to_h10B5_
FNDA:0,_RNCNvNtCsiFMhfKJXoB5_5lb_l78h1_proxy26translate_h1_request_to_h20B5_
FNDA:0,_RNCNvNtCsiFMhfKJXoB5_5lb_l78h1_proxy31build_h1_response_with_trailers0B5_
FNDA:0,_RNCNvNtCsiFMhfKJXoB5_5lb_l78h1_proxy31build_h1_response_with_trailerss_0B5_
FNDA:0,_RNCNvNtCsiFMhfKJXoB5_5lb_l78h1_proxy34collect_h1_request_to_h3_fieldlist0B5_
FNDA:0,_RNCNvXs3_NtCsiFMhfKJXoB5_5lb_l78h1_proxyNtB7_12ProxyServiceINtNtNtCsgB3dp6qvXvn_5hyper7service7service7ServiceINtNtCsjFxw70quGA5_4http7request7RequestNtNtNtB12_4body8incoming8IncomingEE4call0B9_
FNDA:0,_RNvMNtCsiFMhfKJXoB5_5lb_l78h1_proxyNtB2_12AltSvcConfig12header_value
FNDA:12,_RNvMs0_NtCsiFMhfKJXoB5_5lb_l78h1_proxyNtB5_15RoundRobinAddrs3new
FNDA:0,_RNvMs2_NtCsiFMhfKJXoB5_5lb_l78h1_proxyNtB5_7H1Proxy10with_hooks
FNDA:0,_RNvMs2_NtCsiFMhfKJXoB5_5lb_l78h1_proxyNtB5_7H1Proxy13with_watchdog
FNDA:0,_RNvMs2_NtCsiFMhfKJXoB5_5lb_l78h1_proxyNtB5_7H1Proxy14with_websocket
FNDA:0,_RNvMs2_NtCsiFMhfKJXoB5_5lb_l78h1_proxyNtB5_7H1Proxy15has_h2_upstream
FNDA:0,_RNvMs2_NtCsiFMhfKJXoB5_5lb_l78h1_proxyNtB5_7H1Proxy15has_h3_upstream
FNDA:0,_RNvMs2_NtCsiFMhfKJXoB5_5lb_l78h1_proxyNtB5_7H1Proxy16with_h2_upstream
FNDA:0,_RNvMs2_NtCsiFMhfKJXoB5_5lb_l78h1_proxyNtB5_7H1Proxy16with_h3_upstream
FNDA:0,_RNvMs2_NtCsiFMhfKJXoB5_5lb_l78h1_proxyNtB5_7H1Proxy16with_multi_proto
FNDA:0,_RNvMs2_NtCsiFMhfKJXoB5_5lb_l78h1_proxyNtB5_7H1Proxy17with_expected_sni
FNDA:0,_RNvMs2_NtCsiFMhfKJXoB5_5lb_l78h1_proxyNtB5_7H1Proxy19with_smuggle_strict
FNDA:0,_RNvMs2_NtCsiFMhfKJXoB5_5lb_l78h1_proxyNtB5_7H1Proxy27with_max_keepalive_requests
FNDA:0,_RNvMs2_NtCsiFMhfKJXoB5_5lb_l78h1_proxyNtB5_7H1Proxy29with_header_underscore_policy
FNDA:0,_RNvMs2_NtCsiFMhfKJXoB5_5lb_l78h1_proxyNtB5_7H1Proxy33keepalive_cap_termination_counter
FNDA:12,_RNvMs2_NtCsiFMhfKJXoB5_5lb_l78h1_proxyNtB5_7H1Proxy3new
FNDA:0,_RNvMs4_NtCsiFMhfKJXoB5_5lb_l78h1_proxyNtB5_7H1Proxy12handle_inner
FNDA:0,_RNvMs4_NtCsiFMhfKJXoB5_5lb_l78h1_proxyNtB5_7H1Proxy13proxy_request
FNDA:0,_RNvMs4_NtCsiFMhfKJXoB5_5lb_l78h1_proxyNtB5_7H1Proxy14proxy_h1_to_h2
FNDA:0,_RNvMs4_NtCsiFMhfKJXoB5_5lb_l78h1_proxyNtB5_7H1Proxy14proxy_h1_to_h3
FNDA:0,_RNvMs4_NtCsiFMhfKJXoB5_5lb_l78h1_proxyNtB5_7H1Proxy17finalize_response
FNDA:0,_RNvMs4_NtCsiFMhfKJXoB5_5lb_l78h1_proxyNtB5_7H1Proxy17handle_ws_upgrade
FNDA:0,_RNvMs4_NtCsiFMhfKJXoB5_5lb_l78h1_proxyNtB5_7H1Proxy6handle
FNDA:12,_RNvNtCsiFMhfKJXoB5_5lb_l78h1_proxy10append_via
FNDA:12,_RNvNtCsiFMhfKJXoB5_5lb_l78h1_proxy10append_xff
FNDA:0,_RNvNtCsiFMhfKJXoB5_5lb_l78h1_proxy14error_response
FNDA:0,_RNvNtCsiFMhfKJXoB5_5lb_l78h1_proxy16dial_upstream_ws
FNDA:15,_RNvNtCsiFMhfKJXoB5_5lb_l78h1_proxy16strip_hop_by_hop
FNDA:0,_RNvNtCsiFMhfKJXoB5_5lb_l78h1_proxy17h3_response_to_h1
FNDA:0,_RNvNtCsiFMhfKJXoB5_5lb_l78h1_proxy18reject_to_response
FNDA:0,_RNvNtCsiFMhfKJXoB5_5lb_l78h1_proxy21run_h1_ws_splice_task
FNDA:0,_RNvNtCsiFMhfKJXoB5_5lb_l78h1_proxy23upstream_response_to_h1
FNDA:0,_RNvNtCsiFMhfKJXoB5_5lb_l78h1_proxy24build_body_with_trailers
FNDA:0,_RNvNtCsiFMhfKJXoB5_5lb_l78h1_proxy26translate_h1_request_to_h2
FNDA:0,_RNvNtCsiFMhfKJXoB5_5lb_l78h1_proxy31build_h1_response_with_trailers
FNDA:0,_RNvNtCsiFMhfKJXoB5_5lb_l78h1_proxy34collect_h1_request_to_h3_fieldlist
FNDA:12,_RNvNtCsiFMhfKJXoB5_5lb_l78h1_proxy7set_xfh
FNDA:12,_RNvNtCsiFMhfKJXoB5_5lb_l78h1_proxy7set_xfp
FNDA:12,_RNvXs1_NtCsiFMhfKJXoB5_5lb_l78h1_proxyNtB5_15RoundRobinAddrsNtB5_13BackendPicker4pick
FNDA:0,_RNvXs3_NtCsiFMhfKJXoB5_5lb_l78h1_proxyNtB5_12ProxyServiceINtNtNtCsgB3dp6qvXvn_5hyper7service7service7ServiceINtNtCsjFxw70quGA5_4http7request7RequestNtNtNtB10_4body8incoming8IncomingEE4call
FNDA:24,_RNvXs_NtCsiFMhfKJXoB5_5lb_l78h1_proxyNtB4_12HttpTimeoutsNtNtCs2va5m0jqTTM_4core7default7Default7default
FNDA:0,_RINvMs2_NtCsiFMhfKJXoB5_5lb_l78h1_proxyNtB6_7H1Proxy16serve_connectionINtNtCs7m3feRqGqA4_12tokio_rustls6server9TlsStreamNtNtNtNtCsfWKKmeeA0Vo_5tokio3net3tcp6stream9TcpStreamEECsjqGwtXRutxH_23h2h1_md_coverage_driver
FNDA:0,_RINvMs2_NtCsiFMhfKJXoB5_5lb_l78h1_proxyNtB6_7H1Proxy28serve_connection_with_cancelINtNtCs7m3feRqGqA4_12tokio_rustls6server9TlsStreamNtNtNtNtCsfWKKmeeA0Vo_5tokio3net3tcp6stream9TcpStreamEECsjqGwtXRutxH_23h2h1_md_coverage_driver
FNDA:0,_RINvMs2_NtCsiFMhfKJXoB5_5lb_l78h1_proxyNtB6_7H1Proxy32serve_connection_with_cancel_sniINtNtCs7m3feRqGqA4_12tokio_rustls6server9TlsStreamNtNtNtNtCsfWKKmeeA0Vo_5tokio3net3tcp6stream9TcpStreamEECsjqGwtXRutxH_23h2h1_md_coverage_driver
FNDA:0,_RNCINvMs2_NtCsiFMhfKJXoB5_5lb_l78h1_proxyNtB8_7H1Proxy16serve_connectionINtNtCs7m3feRqGqA4_12tokio_rustls6server9TlsStreamNtNtNtNtCsfWKKmeeA0Vo_5tokio3net3tcp6stream9TcpStreamEE0CsjqGwtXRutxH_23h2h1_md_coverage_driver
FNDA:0,_RNCINvMs2_NtCsiFMhfKJXoB5_5lb_l78h1_proxyNtB8_7H1Proxy28serve_connection_with_cancelINtNtCs7m3feRqGqA4_12tokio_rustls6server9TlsStreamNtNtNtNtCsfWKKmeeA0Vo_5tokio3net3tcp6stream9TcpStreamEE0CsjqGwtXRutxH_23h2h1_md_coverage_driver
FNDA:0,_RNCINvMs2_NtCsiFMhfKJXoB5_5lb_l78h1_proxyNtB8_7H1Proxy32serve_connection_with_cancel_sniINtNtCs7m3feRqGqA4_12tokio_rustls6server9TlsStreamNtNtNtNtCsfWKKmeeA0Vo_5tokio3net3tcp6stream9TcpStreamEE0CsjqGwtXRutxH_23h2h1_md_coverage_driver
FNF:121
FNH:9
DA:93,0
DA:94,0
DA:95,0
DA:114,24
DA:115,24
DA:116,24
DA:117,24
DA:118,24
DA:119,24
DA:120,24
DA:164,12
DA:165,12
DA:166,0
DA:167,12
DA:168,12
DA:169,12
DA:170,12
DA:171,12
DA:172,12
DA:176,12
DA:177,12
DA:178,0
DA:179,12
DA:180,12
DA:181,12
DA:182,12
DA:183,12
DA:184,12
DA:185,12
DA:186,12
DA:187,12
DA:273,12
DA:274,12
DA:275,12
DA:276,12
DA:277,12
DA:278,12
DA:279,12
DA:280,12
DA:281,12
DA:282,12
DA:283,12
DA:284,12
DA:285,12
DA:286,12
DA:287,12
DA:288,12
DA:289,12
DA:290,12
DA:291,12
DA:292,12
DA:293,12
DA:294,12
DA:295,12
DA:296,12
DA:297,12
DA:298,12
DA:299,12
DA:300,12
DA:301,12
DA:302,12
DA:317,0
DA:318,0
DA:319,0
DA:320,0
DA:321,0
DA:322,0
DA:323,0
DA:324,0
DA:325,0
DA:326,0
DA:327,0
DA:328,0
DA:329,0
DA:330,0
DA:331,0
DA:332,0
DA:333,0
DA:334,0
DA:335,0
DA:336,0
DA:337,0
DA:338,0
DA:339,0
DA:340,0
DA:341,0
DA:342,0
DA:343,0
DA:344,0
DA:345,0
DA:354,0
DA:355,0
DA:356,0
DA:357,0
DA:369,0
DA:370,0
DA:371,0
DA:372,0
DA:379,0
DA:380,0
DA:381,0
DA:382,0
DA:390,0
DA:391,0
DA:392,0
DA:393,0
DA:402,0
DA:403,0
DA:404,0
DA:405,0
DA:410,0
DA:411,0
DA:412,0
DA:413,0
DA:418,0
DA:419,0
DA:420,0
DA:421,0
DA:427,0
DA:428,0
DA:429,0
DA:434,0
DA:435,0
DA:436,0
DA:443,0
DA:444,0
DA:445,0
DA:446,0
DA:453,0
DA:454,0
DA:455,0
DA:462,0
DA:463,0
DA:464,0
DA:465,0
DA:480,0
DA:481,0
DA:482,0
DA:483,0
DA:484,0
DA:485,0
DA:486,0
DA:487,0
DA:488,0
DA:489,0
DA:515,0
DA:516,0
DA:517,0
DA:518,0
DA:519,0
DA:520,0
DA:521,0
DA:522,0
DA:523,0
DA:524,0
DA:525,0
DA:526,0
DA:527,0
DA:528,0
DA:529,0
DA:530,0
DA:531,0
DA:546,0
DA:547,0
DA:548,0
DA:549,0
DA:550,0
DA:551,0
DA:552,0
DA:553,0
DA:554,0
DA:555,0
DA:556,0
DA:557,0
DA:558,0
DA:559,0
DA:560,0
DA:561,0
DA:562,0
DA:563,0
DA:564,0
DA:565,0
DA:566,0
DA:567,0
DA:568,0
DA:569,0
DA:570,0
DA:571,0
DA:572,0
DA:573,0
DA:574,0
DA:575,0
DA:576,0
DA:577,0
DA:578,0
DA:579,0
DA:580,0
DA:581,0
DA:582,0
DA:583,0
DA:584,0
DA:585,0
DA:586,0
DA:587,0
DA:588,0
DA:592,0
DA:603,0
DA:604,0
DA:605,0
DA:606,0
DA:607,0
DA:608,0
DA:609,0
DA:610,0
DA:613,0
DA:614,0
DA:615,0
DA:617,0
DA:618,0
DA:619,0
DA:620,0
DA:629,0
DA:630,0
DA:631,0
DA:632,0
DA:633,0
DA:634,0
DA:635,0
DA:636,0
DA:637,0
DA:638,0
DA:639,0
DA:643,0
DA:677,0
DA:678,0
DA:679,0
DA:680,0
DA:681,0
DA:682,0
DA:683,0
DA:684,0
DA:685,0
DA:686,0
DA:687,0
DA:688,0
DA:689,0
DA:690,0
DA:691,0
DA:692,0
DA:693,0
DA:694,0
DA:701,0
DA:702,0
DA:703,0
DA:704,0
DA:705,0
DA:706,0
DA:707,0
DA:708,0
DA:709,0
DA:710,0
DA:728,0
DA:729,0
DA:730,0
DA:731,0
DA:732,0
DA:733,0
DA:738,0
DA:739,0
DA:740,0
DA:741,0
DA:742,0
DA:743,0
DA:744,0
DA:745,0
DA:746,0
DA:747,0
DA:748,0
DA:749,0
DA:750,0
DA:751,0
DA:752,0
DA:753,0
DA:756,0
DA:757,0
DA:758,0
DA:760,0
DA:761,0
DA:762,0
DA:763,0
DA:764,0
DA:765,0
DA:766,0
DA:779,0
DA:780,0
DA:784,0
DA:786,0
DA:787,0
DA:788,0
DA:789,0
DA:790,0
DA:791,0
DA:792,0
DA:793,0
DA:794,0
DA:795,0
DA:796,0
DA:797,0
DA:798,0
DA:799,0
DA:800,0
DA:801,0
DA:802,0
DA:803,0
DA:804,0
DA:805,0
DA:806,0
DA:807,0
DA:808,0
DA:809,0
DA:810,0
DA:811,0
DA:812,0
DA:813,0
DA:814,0
DA:816,0
DA:817,0
DA:818,0
DA:819,0
DA:820,0
DA:821,0
DA:822,0
DA:823,0
DA:824,0
DA:825,0
DA:826,0
DA:827,0
DA:828,0
DA:830,0
DA:831,0
DA:832,0
DA:833,0
DA:846,0
DA:847,0
DA:849,0
DA:851,0
DA:853,0
DA:854,0
DA:855,0
DA:856,0
DA:858,0
DA:859,0
DA:860,0
DA:861,0
DA:862,0
DA:865,0
DA:866,0
DA:867,0
DA:868,0
DA:869,0
DA:870,0
DA:872,0
DA:874,0
DA:875,0
DA:876,0
DA:877,0
DA:878,0
DA:880,0
DA:888,0
DA:889,0
DA:890,0
DA:891,0
DA:892,0
DA:893,0
DA:894,0
DA:895,0
DA:896,0
DA:898,0
DA:899,0
DA:900,0
DA:901,0
DA:902,0
DA:903,0
DA:904,0
DA:905,0
DA:906,0
DA:907,0
DA:908,0
DA:909,0
DA:910,0
DA:911,0
DA:912,0
DA:913,0
DA:914,0
DA:915,0
DA:916,0
DA:917,0
DA:918,0
DA:919,0
DA:920,0
DA:921,0
DA:922,0
DA:923,0
DA:924,0
DA:925,0
DA:926,0
DA:928,0
DA:932,0
DA:934,0
DA:935,0
DA:936,0
DA:937,0
DA:947,0
DA:948,0
DA:949,0
DA:950,0
DA:951,0
DA:952,0
DA:953,0
DA:954,0
DA:955,0
DA:956,0
DA:957,0
DA:959,0
DA:961,0
DA:962,0
DA:963,0
DA:964,0
DA:965,0
DA:966,0
DA:967,0
DA:968,0
DA:969,0
DA:970,0
DA:971,0
DA:972,0
DA:973,0
DA:974,0
DA:975,0
DA:976,0
DA:977,0
DA:978,0
DA:979,0
DA:980,0
DA:981,0
DA:982,0
DA:983,0
DA:984,0
DA:985,0
DA:986,0
DA:987,0
DA:988,0
DA:989,0
DA:990,0
DA:991,0
DA:992,0
DA:993,0
DA:994,0
DA:995,0
DA:996,0
DA:997,0
DA:998,0
DA:999,0
DA:1000,0
DA:1001,0
DA:1002,0
DA:1003,0
DA:1004,0
DA:1005,0
DA:1006,0
DA:1007,0
DA:1008,0
DA:1009,0
DA:1010,0
DA:1011,0
DA:1012,0
DA:1013,0
DA:1014,0
DA:1015,0
DA:1016,0
DA:1019,0
DA:1020,0
DA:1023,0
DA:1024,0
DA:1025,0
DA:1026,0
DA:1028,0
DA:1031,0
DA:1032,0
DA:1037,0
DA:1038,0
DA:1039,0
DA:1040,0
DA:1041,0
DA:1073,0
DA:1074,0
DA:1075,0
DA:1076,0
DA:1077,0
DA:1078,0
DA:1082,0
DA:1083,0
DA:1084,0
DA:1085,0
DA:1086,0
DA:1093,0
DA:1094,0
DA:1095,0
DA:1097,0
DA:1098,0
DA:1099,0
DA:1101,0
DA:1102,0
DA:1103,0
DA:1104,0
DA:1105,0
DA:1106,0
DA:1107,0
DA:1108,0
DA:1109,0
DA:1110,0
DA:1111,0
DA:1112,0
DA:1113,0
DA:1114,0
DA:1115,0
DA:1116,0
DA:1119,0
DA:1120,0
DA:1125,0
DA:1126,0
DA:1127,0
DA:1136,0
DA:1137,0
DA:1138,0
DA:1139,0
DA:1140,0
DA:1141,0
DA:1142,0
DA:1143,0
DA:1144,0
DA:1145,0
DA:1147,0
DA:1148,0
DA:1149,0
DA:1151,0
DA:1152,0
DA:1154,0
DA:1156,0
DA:1158,0
DA:1165,0
DA:1166,0
DA:1167,0
DA:1168,0
DA:1169,0
DA:1170,0
DA:1171,0
DA:1172,0
DA:1173,0
DA:1174,0
DA:1176,0
DA:1177,0
DA:1178,0
DA:1179,0
DA:1180,0
DA:1181,0
DA:1183,0
DA:1184,0
DA:1185,0
DA:1186,0
DA:1187,0
DA:1188,0
DA:1189,0
DA:1190,0
DA:1191,0
DA:1192,0
DA:1193,0
DA:1231,0
DA:1232,0
DA:1233,0
DA:1234,0
DA:1235,0
DA:1236,0
DA:1237,0
DA:1239,0
DA:1240,0
DA:1242,0
DA:1243,0
DA:1247,0
DA:1248,0
DA:1249,0
DA:1250,0
DA:1251,0
DA:1252,0
DA:1253,0
DA:1254,0
DA:1255,0
DA:1256,0
DA:1257,0
DA:1258,0
DA:1259,0
DA:1260,0
DA:1261,0
DA:1262,0
DA:1263,0
DA:1264,0
DA:1265,0
DA:1266,0
DA:1267,0
DA:1268,0
DA:1269,0
DA:1270,0
DA:1271,0
DA:1272,0
DA:1273,0
DA:1274,0
DA:1275,0
DA:1276,0
DA:1277,0
DA:1278,0
DA:1279,0
DA:1280,0
DA:1281,0
DA:1282,0
DA:1283,0
DA:1284,0
DA:1285,0
DA:1286,0
DA:1287,0
DA:1288,0
DA:1291,0
DA:1292,0
DA:1293,0
DA:1294,0
DA:1295,0
DA:1297,0
DA:1298,0
DA:1299,0
DA:1300,0
DA:1301,0
DA:1302,0
DA:1310,0
DA:1311,0
DA:1312,0
DA:1313,0
DA:1314,0
DA:1315,0
DA:1316,0
DA:1317,0
DA:1318,0
DA:1319,0
DA:1320,0
DA:1321,0
DA:1322,0
DA:1323,0
DA:1324,0
DA:1325,0
DA:1326,0
DA:1327,0
DA:1328,0
DA:1329,0
DA:1330,0
DA:1331,0
DA:1332,0
DA:1333,0
DA:1334,0
DA:1335,0
DA:1336,0
DA:1337,0
DA:1338,0
DA:1339,0
DA:1340,0
DA:1342,0
DA:1343,0
DA:1344,0
DA:1345,0
DA:1346,0
DA:1347,0
DA:1348,0
DA:1351,0
DA:1352,0
DA:1353,0
DA:1354,0
DA:1355,0
DA:1356,0
DA:1374,0
DA:1375,0
DA:1376,0
DA:1377,0
DA:1378,0
DA:1379,0
DA:1380,0
DA:1381,0
DA:1382,0
DA:1386,0
DA:1387,0
DA:1388,0
DA:1389,0
DA:1390,0
DA:1391,0
DA:1392,0
DA:1394,0
DA:1395,0
DA:1396,0
DA:1397,0
DA:1398,0
DA:1399,0
DA:1400,0
DA:1401,0
DA:1402,0
DA:1403,0
DA:1405,0
DA:1409,0
DA:1410,0
DA:1411,0
DA:1412,0
DA:1413,0
DA:1414,0
DA:1415,0
DA:1417,0
DA:1418,0
DA:1419,0
DA:1420,0
DA:1421,0
DA:1422,0
DA:1423,0
DA:1424,0
DA:1425,0
DA:1426,0
DA:1433,0
DA:1434,0
DA:1435,0
DA:1436,0
DA:1437,0
DA:1438,0
DA:1439,0
DA:1440,0
DA:1441,0
DA:1442,0
DA:1443,0
DA:1444,0
DA:1447,0
DA:1448,0
DA:1449,0
DA:1450,0
DA:1451,0
DA:1452,0
DA:1454,0
DA:1455,0
DA:1456,0
DA:1457,0
DA:1458,0
DA:1459,0
DA:1460,0
DA:1461,0
DA:1478,0
DA:1479,0
DA:1480,0
DA:1481,0
DA:1483,0
DA:1484,0
DA:1485,0
DA:1486,0
DA:1489,0
DA:1498,15
DA:1499,15
DA:1500,15
DA:1501,15
DA:1502,15
DA:1503,15
DA:1504,15
DA:1505,15
DA:1506,15
DA:1507,15
DA:1508,15
DA:1509,15
DA:1511,120
DA:1512,120
DA:1513,120
DA:1514,120
DA:1515,15
DA:1516,0
DA:1517,0
DA:1518,15
DA:1532,12
DA:1533,12
DA:1534,12
DA:1535,12
DA:1536,0
DA:1537,0
DA:1538,0
DA:1539,0
DA:1540,0
DA:1541,0
DA:1543,12
DA:1544,0
DA:1545,12
DA:1546,12
DA:1547,12
DA:1548,12
DA:1549,12
DA:1550,12
DA:1553,12
DA:1554,12
DA:1555,12
DA:1556,12
DA:1557,12
DA:1558,12
DA:1561,12
DA:1562,12
DA:1563,12
DA:1564,12
DA:1565,12
DA:1572,12
DA:1574,12
DA:1575,12
DA:1576,0
DA:1577,0
DA:1578,0
DA:1579,0
DA:1580,0
DA:1581,0
DA:1583,12
DA:1584,0
DA:1585,12
DA:1586,12
DA:1587,12
DA:1588,12
DA:1589,12
DA:1590,12
DA:1606,0
DA:1607,0
DA:1608,0
DA:1609,0
DA:1612,0
DA:1613,0
DA:1614,0
DA:1615,0
DA:1616,0
DA:1617,0
DA:1618,0
DA:1619,0
DA:1620,0
DA:1621,0
DA:1622,0
DA:1623,0
DA:1624,0
DA:1625,0
DA:1626,0
DA:1627,0
DA:1628,0
DA:1629,0
DA:1630,0
DA:1631,0
DA:1632,0
DA:1633,0
DA:1634,0
DA:1635,0
DA:1636,0
DA:1637,0
DA:1638,0
DA:1639,0
DA:1640,0
DA:1641,0
DA:1642,0
DA:1643,0
DA:1644,0
DA:1645,0
DA:1646,0
DA:1647,0
DA:1648,0
DA:1649,0
DA:1650,0
DA:1651,0
DA:1652,0
DA:1655,0
DA:1656,0
DA:1657,0
DA:1658,0
DA:1659,0
DA:1660,0
DA:1661,0
DA:1662,0
DA:1663,0
DA:1664,0
DA:1665,0
DA:1666,0
DA:1667,0
DA:1668,0
DA:1669,0
DA:1672,0
DA:1673,0
DA:1674,0
DA:1675,0
DA:1676,0
DA:1685,0
DA:1686,0
DA:1687,0
DA:1688,0
DA:1689,0
DA:1690,0
DA:1698,0
DA:1699,0
DA:1700,0
DA:1701,0
DA:1706,0
DA:1707,0
DA:1708,0
DA:1709,0
DA:1710,0
DA:1711,0
DA:1712,0
DA:1713,0
DA:1714,0
DA:1715,0
DA:1716,0
DA:1717,0
DA:1718,0
DA:1720,0
DA:1721,0
DA:1723,0
DA:1725,0
DA:1726,0
DA:1730,0
DA:1731,0
DA:1732,0
DA:1733,0
DA:1734,0
DA:1736,0
DA:1737,0
DA:1738,0
DA:1739,0
DA:1742,0
DA:1743,0
DA:1744,0
DA:1745,0
DA:1746,0
DA:1747,0
DA:1748,0
DA:1749,0
DA:1750,0
DA:1751,0
DA:1752,0
DA:1753,0
DA:1754,0
DA:1755,0
DA:1756,0
DA:1757,0
DA:1758,0
DA:1759,0
DA:1760,0
DA:1761,0
DA:1762,0
DA:1763,0
DA:1764,0
DA:1765,0
DA:1766,0
DA:1767,0
DA:1768,0
DA:1769,0
DA:1770,0
DA:1771,0
DA:1772,0
DA:1773,0
DA:1774,0
DA:1775,0
DA:1776,0
DA:1777,0
DA:1780,0
DA:1781,0
DA:1798,0
DA:1799,0
DA:1800,0
DA:1801,0
DA:1802,0
DA:1803,0
DA:1804,0
DA:1805,0
DA:1806,0
DA:1807,0
DA:1808,0
DA:1809,0
DA:1810,0
DA:1811,0
DA:1812,0
DA:1813,0
DA:1814,0
DA:1815,0
DA:1816,0
DA:1817,0
DA:1818,0
DA:1819,0
DA:1820,0
DA:1822,0
DA:1823,0
DA:1824,0
DA:1826,0
DA:1831,0
DA:1832,0
DA:1833,0
DA:1834,0
DA:1835,0
DA:1836,0
DA:1837,0
DA:1838,0
DA:1839,0
DA:1840,0
DA:1841,0
DA:1842,0
DA:1843,0
DA:1844,0
DA:1845,0
DA:1846,0
DA:1847,0
DA:1848,0
DA:1849,0
DA:1854,0
DA:1855,0
DA:1856,0
DA:1857,0
DA:1858,0
DA:1859,0
DA:1860,0
DA:1861,0
DA:1871,0
DA:1872,0
DA:1873,0
DA:1874,0
DA:1875,0
DA:1876,0
DA:1878,0
DA:1879,0
DA:1880,0
DA:1881,0
DA:1882,0
DA:1883,0
DA:1884,0
DA:1885,0
DA:1886,0
DA:1887,0
DA:1888,0
DA:1889,0
DA:1890,0
DA:1891,0
DA:1892,0
DA:1893,0
DA:1894,0
DA:1895,0
DA:1896,0
DA:1897,0
DA:1898,0
DA:1899,0
DA:1900,0
DA:1901,0
DA:1902,0
DA:1903,0
DA:1904,0
DA:1905,0
DA:1906,0
DA:1907,0
DA:1908,0
DA:1909,0
DA:1910,0
DA:1911,0
DA:1912,0
DA:1913,0
DA:1914,0
DA:1915,0
DA:1916,0
DA:1917,0
DA:1918,0
DA:1919,0
DA:1920,0
DA:1921,0
DA:1922,0
DA:1923,0
DA:1924,0
DA:1925,0
DA:1926,0
DA:1927,0
DA:1928,0
DA:1929,0
DA:1930,0
DA:1932,0
DA:1933,0
DA:1934,0
DA:1935,0
DA:1936,0
DA:1937,0
DA:1938,0
DA:1939,0
DA:1940,0
DA:1941,0
DA:1942,0
DA:1943,0
DA:1947,0
DA:1948,0
DA:1949,0
DA:1950,0
DA:1951,0
DA:1952,0
DA:1953,0
DA:1954,0
DA:1955,0
DA:1956,0
DA:1957,0
DA:1958,0
DA:1959,0
DA:1960,0
DA:1961,0
DA:1962,0
DA:1963,0
DA:1964,0
DA:1965,0
DA:1966,0
DA:1967,0
DA:1968,0
DA:1969,0
DA:1977,0
DA:1978,0
BRF:0
BRH:0
LF:1214
LH:106
end_of_record
SF:/home/ubuntu/Code/s8-verifier/crates/lb-l7/src/h1_to_h1.rs
FN:27,_RNCNCNvNtCsiFMhfKJXoB5_5lb_l78h1_to_h124connection_named_headerss_00B7_
FN:28,_RNCNCNvNtCsiFMhfKJXoB5_5lb_l78h1_to_h124connection_named_headerss_0s_0B7_
FN:60,_RNCNCNvXNtCsiFMhfKJXoB5_5lb_l78h1_to_h1NtB6_12H1ToH1BridgeNtB8_6Bridge14bridge_request00B8_
FN:63,_RNCNCNvXNtCsiFMhfKJXoB5_5lb_l78h1_to_h1NtB6_12H1ToH1BridgeNtB8_6Bridge14bridge_request0s_0B8_
FN:98,_RNCNCNvXNtCsiFMhfKJXoB5_5lb_l78h1_to_h1NtB6_12H1ToH1BridgeNtB8_6Bridge15bridge_response00B8_
FN:101,_RNCNCNvXNtCsiFMhfKJXoB5_5lb_l78h1_to_h1NtB6_12H1ToH1BridgeNtB8_6Bridge15bridge_response0s_0B8_
FN:24,_RNCNvNtCsiFMhfKJXoB5_5lb_l78h1_to_h124connection_named_headers0B5_
FN:25,_RNCNvNtCsiFMhfKJXoB5_5lb_l78h1_to_h124connection_named_headerss_0B5_
FN:50,_RNCNvXNtCsiFMhfKJXoB5_5lb_l78h1_to_h1NtB4_12H1ToH1BridgeNtB6_6Bridge14bridge_request0B6_
FN:96,_RNCNvXNtCsiFMhfKJXoB5_5lb_l78h1_to_h1NtB4_12H1ToH1BridgeNtB6_6Bridge15bridge_response0B6_
FN:34,_RNvNtCsiFMhfKJXoB5_5lb_l78h1_to_h114is_te_trailers
FN:21,_RNvNtCsiFMhfKJXoB5_5lb_l78h1_to_h124connection_named_headers
FN:123,_RNvXNtCsiFMhfKJXoB5_5lb_l78h1_to_h1NtB2_12H1ToH1BridgeNtB4_6Bridge13dest_protocol
FN:42,_RNvXNtCsiFMhfKJXoB5_5lb_l78h1_to_h1NtB2_12H1ToH1BridgeNtB4_6Bridge14bridge_request
FN:85,_RNvXNtCsiFMhfKJXoB5_5lb_l78h1_to_h1NtB2_12H1ToH1BridgeNtB4_6Bridge15bridge_response
FN:119,_RNvXNtCsiFMhfKJXoB5_5lb_l78h1_to_h1NtB2_12H1ToH1BridgeNtB4_6Bridge15source_protocol
FNDA:0,_RNCNCNvNtCsiFMhfKJXoB5_5lb_l78h1_to_h124connection_named_headerss_00B7_
FNDA:0,_RNCNCNvNtCsiFMhfKJXoB5_5lb_l78h1_to_h124connection_named_headerss_0s_0B7_
FNDA:0,_RNCNCNvXNtCsiFMhfKJXoB5_5lb_l78h1_to_h1NtB6_12H1ToH1BridgeNtB8_6Bridge14bridge_request00B8_
FNDA:0,_RNCNCNvXNtCsiFMhfKJXoB5_5lb_l78h1_to_h1NtB6_12H1ToH1BridgeNtB8_6Bridge14bridge_request0s_0B8_
FNDA:0,_RNCNCNvXNtCsiFMhfKJXoB5_5lb_l78h1_to_h1NtB6_12H1ToH1BridgeNtB8_6Bridge15bridge_response00B8_
FNDA:0,_RNCNCNvXNtCsiFMhfKJXoB5_5lb_l78h1_to_h1NtB6_12H1ToH1BridgeNtB8_6Bridge15bridge_response0s_0B8_
FNDA:0,_RNCNvNtCsiFMhfKJXoB5_5lb_l78h1_to_h124connection_named_headers0B5_
FNDA:0,_RNCNvNtCsiFMhfKJXoB5_5lb_l78h1_to_h124connection_named_headerss_0B5_
FNDA:0,_RNCNvXNtCsiFMhfKJXoB5_5lb_l78h1_to_h1NtB4_12H1ToH1BridgeNtB6_6Bridge14bridge_request0B6_
FNDA:0,_RNCNvXNtCsiFMhfKJXoB5_5lb_l78h1_to_h1NtB4_12H1ToH1BridgeNtB6_6Bridge15bridge_response0B6_
FNDA:0,_RNvNtCsiFMhfKJXoB5_5lb_l78h1_to_h114is_te_trailers
FNDA:0,_RNvNtCsiFMhfKJXoB5_5lb_l78h1_to_h124connection_named_headers
FNDA:0,_RNvXNtCsiFMhfKJXoB5_5lb_l78h1_to_h1NtB2_12H1ToH1BridgeNtB4_6Bridge13dest_protocol
FNDA:0,_RNvXNtCsiFMhfKJXoB5_5lb_l78h1_to_h1NtB2_12H1ToH1BridgeNtB4_6Bridge14bridge_request
FNDA:0,_RNvXNtCsiFMhfKJXoB5_5lb_l78h1_to_h1NtB2_12H1ToH1BridgeNtB4_6Bridge15bridge_response
FNDA:0,_RNvXNtCsiFMhfKJXoB5_5lb_l78h1_to_h1NtB2_12H1ToH1BridgeNtB4_6Bridge15source_protocol
FNF:16
FNH:0
DA:21,0
DA:22,0
DA:23,0
DA:24,0
DA:25,0
DA:26,0
DA:27,0
DA:28,0
DA:29,0
DA:30,0
DA:31,0
DA:34,0
DA:35,0
DA:36,0
DA:42,0
DA:43,0
DA:45,0
DA:46,0
DA:47,0
DA:48,0
DA:49,0
DA:50,0
DA:51,0
DA:52,0
DA:53,0
DA:54,0
DA:55,0
DA:57,0
DA:59,0
DA:60,0
DA:61,0
DA:62,0
DA:63,0
DA:64,0
DA:65,0
DA:66,0
DA:67,0
DA:68,0
DA:69,0
DA:70,0
DA:72,0
DA:73,0
DA:74,0
DA:75,0
DA:76,0
DA:77,0
DA:78,0
DA:79,0
DA:80,0
DA:81,0
DA:82,0
DA:83,0
DA:85,0
DA:86,0
DA:88,0
DA:89,0
DA:90,0
DA:91,0
DA:92,0
DA:93,0
DA:94,0
DA:95,0
DA:96,0
DA:97,0
DA:98,0
DA:99,0
DA:100,0
DA:101,0
DA:102,0
DA:103,0
DA:104,0
DA:105,0
DA:106,0
DA:107,0
DA:108,0
DA:110,0
DA:111,0
DA:112,0
DA:113,0
DA:114,0
DA:115,0
DA:116,0
DA:117,0
DA:119,0
DA:120,0
DA:121,0
DA:123,0
DA:124,0
DA:125,0
BRF:0
BRH:0
LF:102
LH:0
end_of_record
SF:/home/ubuntu/Code/s8-verifier/crates/lb-l7/src/h1_to_h2.rs
FN:27,_RNCNCNvNtCsiFMhfKJXoB5_5lb_l78h1_to_h224connection_named_headerss_00B7_
FN:28,_RNCNCNvNtCsiFMhfKJXoB5_5lb_l78h1_to_h224connection_named_headerss_0s_0B7_
FN:109,_RNCNCNvXNtCsiFMhfKJXoB5_5lb_l78h1_to_h2NtB6_12H1ToH2BridgeNtB8_6Bridge15bridge_response00B8_
FN:112,_RNCNCNvXNtCsiFMhfKJXoB5_5lb_l78h1_to_h2NtB6_12H1ToH2BridgeNtB8_6Bridge15bridge_response0s_0B8_
FN:24,_RNCNvNtCsiFMhfKJXoB5_5lb_l78h1_to_h224connection_named_headers0B5_
FN:25,_RNCNvNtCsiFMhfKJXoB5_5lb_l78h1_to_h224connection_named_headerss_0B5_
FN:49,_RNCNvXNtCsiFMhfKJXoB5_5lb_l78h1_to_h2NtB4_12H1ToH2BridgeNtB6_6Bridge14bridge_request0B6_
FN:76,_RNCNvXNtCsiFMhfKJXoB5_5lb_l78h1_to_h2NtB4_12H1ToH2BridgeNtB6_6Bridge14bridge_requests0_0B6_
FN:79,_RNCNvXNtCsiFMhfKJXoB5_5lb_l78h1_to_h2NtB4_12H1ToH2BridgeNtB6_6Bridge14bridge_requests1_0B6_
FN:50,_RNCNvXNtCsiFMhfKJXoB5_5lb_l78h1_to_h2NtB4_12H1ToH2BridgeNtB6_6Bridge14bridge_requests_0B6_
FN:107,_RNCNvXNtCsiFMhfKJXoB5_5lb_l78h1_to_h2NtB4_12H1ToH2BridgeNtB6_6Bridge15bridge_response0B6_
FN:117,_RNCNvXNtCsiFMhfKJXoB5_5lb_l78h1_to_h2NtB4_12H1ToH2BridgeNtB6_6Bridge15bridge_responses_0B6_
FN:21,_RNvNtCsiFMhfKJXoB5_5lb_l78h1_to_h224connection_named_headers
FN:135,_RNvXNtCsiFMhfKJXoB5_5lb_l78h1_to_h2NtB2_12H1ToH2BridgeNtB4_6Bridge13dest_protocol
FN:37,_RNvXNtCsiFMhfKJXoB5_5lb_l78h1_to_h2NtB2_12H1ToH2BridgeNtB4_6Bridge14bridge_request
FN:99,_RNvXNtCsiFMhfKJXoB5_5lb_l78h1_to_h2NtB2_12H1ToH2BridgeNtB4_6Bridge15bridge_response
FN:131,_RNvXNtCsiFMhfKJXoB5_5lb_l78h1_to_h2NtB2_12H1ToH2BridgeNtB4_6Bridge15source_protocol
FNDA:0,_RNCNCNvNtCsiFMhfKJXoB5_5lb_l78h1_to_h224connection_named_headerss_00B7_
FNDA:0,_RNCNCNvNtCsiFMhfKJXoB5_5lb_l78h1_to_h224connection_named_headerss_0s_0B7_
FNDA:0,_RNCNCNvXNtCsiFMhfKJXoB5_5lb_l78h1_to_h2NtB6_12H1ToH2BridgeNtB8_6Bridge15bridge_response00B8_
FNDA:0,_RNCNCNvXNtCsiFMhfKJXoB5_5lb_l78h1_to_h2NtB6_12H1ToH2BridgeNtB8_6Bridge15bridge_response0s_0B8_
FNDA:0,_RNCNvNtCsiFMhfKJXoB5_5lb_l78h1_to_h224connection_named_headers0B5_
FNDA:0,_RNCNvNtCsiFMhfKJXoB5_5lb_l78h1_to_h224connection_named_headerss_0B5_
FNDA:0,_RNCNvXNtCsiFMhfKJXoB5_5lb_l78h1_to_h2NtB4_12H1ToH2BridgeNtB6_6Bridge14bridge_request0B6_
FNDA:0,_RNCNvXNtCsiFMhfKJXoB5_5lb_l78h1_to_h2NtB4_12H1ToH2BridgeNtB6_6Bridge14bridge_requests0_0B6_
FNDA:0,_RNCNvXNtCsiFMhfKJXoB5_5lb_l78h1_to_h2NtB4_12H1ToH2BridgeNtB6_6Bridge14bridge_requests1_0B6_
FNDA:0,_RNCNvXNtCsiFMhfKJXoB5_5lb_l78h1_to_h2NtB4_12H1ToH2BridgeNtB6_6Bridge14bridge_requests_0B6_
FNDA:0,_RNCNvXNtCsiFMhfKJXoB5_5lb_l78h1_to_h2NtB4_12H1ToH2BridgeNtB6_6Bridge15bridge_response0B6_
FNDA:0,_RNCNvXNtCsiFMhfKJXoB5_5lb_l78h1_to_h2NtB4_12H1ToH2BridgeNtB6_6Bridge15bridge_responses_0B6_
FNDA:0,_RNvNtCsiFMhfKJXoB5_5lb_l78h1_to_h224connection_named_headers
FNDA:0,_RNvXNtCsiFMhfKJXoB5_5lb_l78h1_to_h2NtB2_12H1ToH2BridgeNtB4_6Bridge13dest_protocol
FNDA:0,_RNvXNtCsiFMhfKJXoB5_5lb_l78h1_to_h2NtB2_12H1ToH2BridgeNtB4_6Bridge14bridge_request
FNDA:0,_RNvXNtCsiFMhfKJXoB5_5lb_l78h1_to_h2NtB2_12H1ToH2BridgeNtB4_6Bridge15bridge_response
FNDA:0,_RNvXNtCsiFMhfKJXoB5_5lb_l78h1_to_h2NtB2_12H1ToH2BridgeNtB4_6Bridge15source_protocol
FNF:17
FNH:0
DA:21,0
DA:22,0
DA:23,0
DA:24,0
DA:25,0
DA:26,0
DA:27,0
DA:28,0
DA:29,0
DA:30,0
DA:31,0
DA:37,0
DA:38,0
DA:40,0
DA:41,0
DA:42,0
DA:43,0
DA:44,0
DA:45,0
DA:46,0
DA:47,0
DA:48,0
DA:49,0
DA:50,0
DA:51,0
DA:52,0
DA:53,0
DA:54,0
DA:55,0
DA:56,0
DA:58,0
DA:59,0
DA:60,0
DA:64,0
DA:65,0
DA:66,0
DA:67,0
DA:68,0
DA:69,0
DA:70,0
DA:71,0
DA:72,0
DA:73,0
DA:74,0
DA:75,0
DA:76,0
DA:77,0
DA:78,0
DA:79,0
DA:80,0
DA:81,0
DA:82,0
DA:85,0
DA:86,0
DA:88,0
DA:89,0
DA:90,0
DA:91,0
DA:92,0
DA:93,0
DA:94,0
DA:95,0
DA:96,0
DA:97,0
DA:99,0
DA:100,0
DA:102,0
DA:103,0
DA:104,0
DA:105,0
DA:106,0
DA:107,0
DA:108,0
DA:109,0
DA:110,0
DA:111,0
DA:112,0
DA:113,0
DA:114,0
DA:115,0
DA:116,0
DA:117,0
DA:118,0
DA:119,0
DA:120,0
DA:122,0
DA:123,0
DA:124,0
DA:125,0
DA:126,0
DA:127,0
DA:128,0
DA:129,0
DA:131,0
DA:132,0
DA:133,0
DA:135,0
DA:136,0
DA:137,0
BRF:0
BRH:0
LF:113
LH:0
end_of_record
SF:/home/ubuntu/Code/s8-verifier/crates/lb-l7/src/h1_to_h3.rs
FN:27,_RNCNCNvNtCsiFMhfKJXoB5_5lb_l78h1_to_h324connection_named_headerss_00B7_
FN:28,_RNCNCNvNtCsiFMhfKJXoB5_5lb_l78h1_to_h324connection_named_headerss_0s_0B7_
FN:109,_RNCNCNvXNtCsiFMhfKJXoB5_5lb_l78h1_to_h3NtB6_12H1ToH3BridgeNtB8_6Bridge15bridge_response00B8_
FN:112,_RNCNCNvXNtCsiFMhfKJXoB5_5lb_l78h1_to_h3NtB6_12H1ToH3BridgeNtB8_6Bridge15bridge_response0s_0B8_
FN:24,_RNCNvNtCsiFMhfKJXoB5_5lb_l78h1_to_h324connection_named_headers0B5_
FN:25,_RNCNvNtCsiFMhfKJXoB5_5lb_l78h1_to_h324connection_named_headerss_0B5_
FN:49,_RNCNvXNtCsiFMhfKJXoB5_5lb_l78h1_to_h3NtB4_12H1ToH3BridgeNtB6_6Bridge14bridge_request0B6_
FN:76,_RNCNvXNtCsiFMhfKJXoB5_5lb_l78h1_to_h3NtB4_12H1ToH3BridgeNtB6_6Bridge14bridge_requests0_0B6_
FN:79,_RNCNvXNtCsiFMhfKJXoB5_5lb_l78h1_to_h3NtB4_12H1ToH3BridgeNtB6_6Bridge14bridge_requests1_0B6_
FN:50,_RNCNvXNtCsiFMhfKJXoB5_5lb_l78h1_to_h3NtB4_12H1ToH3BridgeNtB6_6Bridge14bridge_requests_0B6_
FN:107,_RNCNvXNtCsiFMhfKJXoB5_5lb_l78h1_to_h3NtB4_12H1ToH3BridgeNtB6_6Bridge15bridge_response0B6_
FN:117,_RNCNvXNtCsiFMhfKJXoB5_5lb_l78h1_to_h3NtB4_12H1ToH3BridgeNtB6_6Bridge15bridge_responses_0B6_
FN:21,_RNvNtCsiFMhfKJXoB5_5lb_l78h1_to_h324connection_named_headers
FN:135,_RNvXNtCsiFMhfKJXoB5_5lb_l78h1_to_h3NtB2_12H1ToH3BridgeNtB4_6Bridge13dest_protocol
FN:37,_RNvXNtCsiFMhfKJXoB5_5lb_l78h1_to_h3NtB2_12H1ToH3BridgeNtB4_6Bridge14bridge_request
FN:99,_RNvXNtCsiFMhfKJXoB5_5lb_l78h1_to_h3NtB2_12H1ToH3BridgeNtB4_6Bridge15bridge_response
FN:131,_RNvXNtCsiFMhfKJXoB5_5lb_l78h1_to_h3NtB2_12H1ToH3BridgeNtB4_6Bridge15source_protocol
FNDA:0,_RNCNCNvNtCsiFMhfKJXoB5_5lb_l78h1_to_h324connection_named_headerss_00B7_
FNDA:0,_RNCNCNvNtCsiFMhfKJXoB5_5lb_l78h1_to_h324connection_named_headerss_0s_0B7_
FNDA:0,_RNCNCNvXNtCsiFMhfKJXoB5_5lb_l78h1_to_h3NtB6_12H1ToH3BridgeNtB8_6Bridge15bridge_response00B8_
FNDA:0,_RNCNCNvXNtCsiFMhfKJXoB5_5lb_l78h1_to_h3NtB6_12H1ToH3BridgeNtB8_6Bridge15bridge_response0s_0B8_
FNDA:0,_RNCNvNtCsiFMhfKJXoB5_5lb_l78h1_to_h324connection_named_headers0B5_
FNDA:0,_RNCNvNtCsiFMhfKJXoB5_5lb_l78h1_to_h324connection_named_headerss_0B5_
FNDA:0,_RNCNvXNtCsiFMhfKJXoB5_5lb_l78h1_to_h3NtB4_12H1ToH3BridgeNtB6_6Bridge14bridge_request0B6_
FNDA:0,_RNCNvXNtCsiFMhfKJXoB5_5lb_l78h1_to_h3NtB4_12H1ToH3BridgeNtB6_6Bridge14bridge_requests0_0B6_
FNDA:0,_RNCNvXNtCsiFMhfKJXoB5_5lb_l78h1_to_h3NtB4_12H1ToH3BridgeNtB6_6Bridge14bridge_requests1_0B6_
FNDA:0,_RNCNvXNtCsiFMhfKJXoB5_5lb_l78h1_to_h3NtB4_12H1ToH3BridgeNtB6_6Bridge14bridge_requests_0B6_
FNDA:0,_RNCNvXNtCsiFMhfKJXoB5_5lb_l78h1_to_h3NtB4_12H1ToH3BridgeNtB6_6Bridge15bridge_response0B6_
FNDA:0,_RNCNvXNtCsiFMhfKJXoB5_5lb_l78h1_to_h3NtB4_12H1ToH3BridgeNtB6_6Bridge15bridge_responses_0B6_
FNDA:0,_RNvNtCsiFMhfKJXoB5_5lb_l78h1_to_h324connection_named_headers
FNDA:0,_RNvXNtCsiFMhfKJXoB5_5lb_l78h1_to_h3NtB2_12H1ToH3BridgeNtB4_6Bridge13dest_protocol
FNDA:0,_RNvXNtCsiFMhfKJXoB5_5lb_l78h1_to_h3NtB2_12H1ToH3BridgeNtB4_6Bridge14bridge_request
FNDA:0,_RNvXNtCsiFMhfKJXoB5_5lb_l78h1_to_h3NtB2_12H1ToH3BridgeNtB4_6Bridge15bridge_response
FNDA:0,_RNvXNtCsiFMhfKJXoB5_5lb_l78h1_to_h3NtB2_12H1ToH3BridgeNtB4_6Bridge15source_protocol
FNF:17
FNH:0
DA:21,0
DA:22,0
DA:23,0
DA:24,0
DA:25,0
DA:26,0
DA:27,0
DA:28,0
DA:29,0
DA:30,0
DA:31,0
DA:37,0
DA:38,0
DA:40,0
DA:41,0
DA:42,0
DA:43,0
DA:44,0
DA:45,0
DA:46,0
DA:47,0
DA:48,0
DA:49,0
DA:50,0
DA:51,0
DA:52,0
DA:53,0
DA:54,0
DA:55,0
DA:56,0
DA:58,0
DA:59,0
DA:60,0
DA:64,0
DA:65,0
DA:66,0
DA:67,0
DA:68,0
DA:69,0
DA:70,0
DA:71,0
DA:72,0
DA:73,0
DA:74,0
DA:75,0
DA:76,0
DA:77,0
DA:78,0
DA:79,0
DA:80,0
DA:81,0
DA:82,0
DA:85,0
DA:86,0
DA:88,0
DA:89,0
DA:90,0
DA:91,0
DA:92,0
DA:93,0
DA:94,0
DA:95,0
DA:96,0
DA:97,0
DA:99,0
DA:100,0
DA:102,0
DA:103,0
DA:104,0
DA:105,0
DA:106,0
DA:107,0
DA:108,0
DA:109,0
DA:110,0
DA:111,0
DA:112,0
DA:113,0
DA:114,0
DA:115,0
DA:116,0
DA:117,0
DA:118,0
DA:119,0
DA:120,0
DA:122,0
DA:123,0
DA:124,0
DA:125,0
DA:126,0
DA:127,0
DA:128,0
DA:129,0
DA:131,0
DA:132,0
DA:133,0
DA:135,0
DA:136,0
DA:137,0
BRF:0
BRH:0
LF:113
LH:0
end_of_record
SF:/home/ubuntu/Code/s8-verifier/crates/lb-l7/src/h2_proxy.rs
FN:625,_RINvMs1_NtCsiFMhfKJXoB5_5lb_l78h2_proxyNtB6_7H2Proxy16serve_connectionINtNtCs7m3feRqGqA4_12tokio_rustls6server9TlsStreamNtNtNtNtCsfWKKmeeA0Vo_5tokio3net3tcp6stream9TcpStreamEECs2gn4DoUa6Db_28h2_validation_before_forward
FN:654,_RINvMs1_NtCsiFMhfKJXoB5_5lb_l78h2_proxyNtB6_7H2Proxy28serve_connection_with_cancelINtNtCs7m3feRqGqA4_12tokio_rustls6server9TlsStreamNtNtNtNtCsfWKKmeeA0Vo_5tokio3net3tcp6stream9TcpStreamEECs2gn4DoUa6Db_28h2_validation_before_forward
FN:677,_RINvMs1_NtCsiFMhfKJXoB5_5lb_l78h2_proxyNtB6_7H2Proxy32serve_connection_with_cancel_sniINtNtCs7m3feRqGqA4_12tokio_rustls6server9TlsStreamNtNtNtNtCsfWKKmeeA0Vo_5tokio3net3tcp6stream9TcpStreamEECs2gn4DoUa6Db_28h2_validation_before_forward
FN:628,_RNCINvMs1_NtCsiFMhfKJXoB5_5lb_l78h2_proxyNtB8_7H2Proxy16serve_connectionINtNtCs7m3feRqGqA4_12tokio_rustls6server9TlsStreamNtNtNtNtCsfWKKmeeA0Vo_5tokio3net3tcp6stream9TcpStreamEE0Cs2gn4DoUa6Db_28h2_validation_before_forward
FN:662,_RNCINvMs1_NtCsiFMhfKJXoB5_5lb_l78h2_proxyNtB8_7H2Proxy28serve_connection_with_cancelINtNtCs7m3feRqGqA4_12tokio_rustls6server9TlsStreamNtNtNtNtCsfWKKmeeA0Vo_5tokio3net3tcp6stream9TcpStreamEE0Cs2gn4DoUa6Db_28h2_validation_before_forward
FN:686,_RNCINvMs1_NtCsiFMhfKJXoB5_5lb_l78h2_proxyNtB8_7H2Proxy32serve_connection_with_cancel_sniINtNtCs7m3feRqGqA4_12tokio_rustls6server9TlsStreamNtNtNtNtCsfWKKmeeA0Vo_5tokio3net3tcp6stream9TcpStreamEE0Cs2gn4DoUa6Db_28h2_validation_before_forward
FN:698,_RNCNCINvMs1_NtCsiFMhfKJXoB5_5lb_l78h2_proxyNtBa_7H2Proxy32serve_connection_with_cancel_sniINtNtCs7m3feRqGqA4_12tokio_rustls6server9TlsStreamNtNtNtNtCsfWKKmeeA0Vo_5tokio3net3tcp6stream9TcpStreamEE00Cs2gn4DoUa6Db_28h2_validation_before_forward
FN:699,_RNCNCNCINvMs1_NtCsiFMhfKJXoB5_5lb_l78h2_proxyNtBc_7H2Proxy32serve_connection_with_cancel_sniINtNtCs7m3feRqGqA4_12tokio_rustls6server9TlsStreamNtNtNtNtCsfWKKmeeA0Vo_5tokio3net3tcp6stream9TcpStreamEE000Cs2gn4DoUa6Db_28h2_validation_before_forward
FN:270,_RNvMNtCsiFMhfKJXoB5_5lb_l78h2_proxyINtB2_12CleanCloseIoINtNtCs7m3feRqGqA4_12tokio_rustls6server9TlsStreamNtNtNtNtCsfWKKmeeA0Vo_5tokio3net3tcp6stream9TcpStreamEE3newCs2gn4DoUa6Db_28h2_validation_before_forward
FN:300,_RNvXs0_NtCsiFMhfKJXoB5_5lb_l78h2_proxyINtB5_12CleanCloseIoINtNtCs7m3feRqGqA4_12tokio_rustls6server9TlsStreamNtNtNtNtCsfWKKmeeA0Vo_5tokio3net3tcp6stream9TcpStreamEENtNtNtB1Q_2io11async_write10AsyncWrite10poll_flushCs2gn4DoUa6Db_28h2_validation_before_forward
FN:292,_RNvXs0_NtCsiFMhfKJXoB5_5lb_l78h2_proxyINtB5_12CleanCloseIoINtNtCs7m3feRqGqA4_12tokio_rustls6server9TlsStreamNtNtNtNtCsfWKKmeeA0Vo_5tokio3net3tcp6stream9TcpStreamEENtNtNtB1Q_2io11async_write10AsyncWrite10poll_writeCs2gn4DoUa6Db_28h2_validation_before_forward
FN:304,_RNvXs0_NtCsiFMhfKJXoB5_5lb_l78h2_proxyINtB5_12CleanCloseIoINtNtCs7m3feRqGqA4_12tokio_rustls6server9TlsStreamNtNtNtNtCsfWKKmeeA0Vo_5tokio3net3tcp6stream9TcpStreamEENtNtNtB1Q_2io11async_write10AsyncWrite13poll_shutdownCs2gn4DoUa6Db_28h2_validation_before_forward
FN:282,_RNvXs_NtCsiFMhfKJXoB5_5lb_l78h2_proxyINtB4_12CleanCloseIoINtNtCs7m3feRqGqA4_12tokio_rustls6server9TlsStreamNtNtNtNtCsfWKKmeeA0Vo_5tokio3net3tcp6stream9TcpStreamEENtNtNtB1P_2io10async_read9AsyncRead9poll_readCs2gn4DoUa6Db_28h2_validation_before_forward
FN:625,_RINvMs1_NtCsiFMhfKJXoB5_5lb_l78h2_proxyNtB6_7H2Proxy16serve_connectionpEB8_
FN:654,_RINvMs1_NtCsiFMhfKJXoB5_5lb_l78h2_proxyNtB6_7H2Proxy28serve_connection_with_cancelpEB8_
FN:677,_RINvMs1_NtCsiFMhfKJXoB5_5lb_l78h2_proxyNtB6_7H2Proxy32serve_connection_with_cancel_snipEB8_
FN:628,_RNCINvMs1_NtCsiFMhfKJXoB5_5lb_l78h2_proxyNtB8_7H2Proxy16serve_connectionpE0Ba_
FN:662,_RNCINvMs1_NtCsiFMhfKJXoB5_5lb_l78h2_proxyNtB8_7H2Proxy28serve_connection_with_cancelpE0Ba_
FN:686,_RNCINvMs1_NtCsiFMhfKJXoB5_5lb_l78h2_proxyNtB8_7H2Proxy32serve_connection_with_cancel_snipE0Ba_
FN:698,_RNCNCINvMs1_NtCsiFMhfKJXoB5_5lb_l78h2_proxyNtBa_7H2Proxy32serve_connection_with_cancel_snipE00Bc_
FN:699,_RNCNCNCINvMs1_NtCsiFMhfKJXoB5_5lb_l78h2_proxyNtBc_7H2Proxy32serve_connection_with_cancel_snipE000Be_
FN:270,_RNvMNtCsiFMhfKJXoB5_5lb_l78h2_proxyINtB2_12CleanCloseIopE3newB4_
FN:300,_RNvXININtCsiFMhfKJXoB5_5lb_l78h2_proxys0_0pEINtB5_12CleanCloseIopENtNtNtCsfWKKmeeA0Vo_5tokio2io11async_write10AsyncWrite10poll_flushB7_
FN:292,_RNvXININtCsiFMhfKJXoB5_5lb_l78h2_proxys0_0pEINtB5_12CleanCloseIopENtNtNtCsfWKKmeeA0Vo_5tokio2io11async_write10AsyncWrite10poll_writeB7_
FN:304,_RNvXININtCsiFMhfKJXoB5_5lb_l78h2_proxys0_0pEINtB5_12CleanCloseIopENtNtNtCsfWKKmeeA0Vo_5tokio2io11async_write10AsyncWrite13poll_shutdownB7_
FN:282,_RNvXININtCsiFMhfKJXoB5_5lb_l78h2_proxys_0pEINtB5_12CleanCloseIopENtNtNtCsfWKKmeeA0Vo_5tokio2io10async_read9AsyncRead9poll_readB7_
FN:1940,_RNCNCNCNCNvNtCsiFMhfKJXoB5_5lb_l78h2_proxy26upstream_h2_response_to_h20000Bb_
FN:1037,_RNCNCNCNvMs4_NtCsiFMhfKJXoB5_5lb_l78h2_proxyNtBb_7H2Proxy12handle_inner0s3_00Bd_
FN:1093,_RNCNCNCNvMs4_NtCsiFMhfKJXoB5_5lb_l78h2_proxyNtBb_7H2Proxy12handle_inner0s4_00Bd_
FN:1129,_RNCNCNCNvMs4_NtCsiFMhfKJXoB5_5lb_l78h2_proxyNtBb_7H2Proxy12handle_inner0s5_00Bd_
FN:1148,_RNCNCNCNvMs4_NtCsiFMhfKJXoB5_5lb_l78h2_proxyNtBb_7H2Proxy12handle_inner0s7_00Bd_
FN:1750,_RNCNCNCNvNtCsiFMhfKJXoB5_5lb_l78h2_proxy26translate_h2_request_to_h20s2_00B9_
FN:1765,_RNCNCNCNvNtCsiFMhfKJXoB5_5lb_l78h2_proxy26translate_h2_request_to_h20s4_00B9_
FN:1937,_RNCNCNCNvNtCsiFMhfKJXoB5_5lb_l78h2_proxy26upstream_h2_response_to_h2000B9_
FN:1954,_RNCNCNCNvNtCsiFMhfKJXoB5_5lb_l78h2_proxy26upstream_h2_response_to_h20s_00B9_
FN:2029,_RNCNCNCNvNtCsiFMhfKJXoB5_5lb_l78h2_proxy34collect_h2_request_to_h3_fieldlist0s2_00B9_
FN:2047,_RNCNCNCNvNtCsiFMhfKJXoB5_5lb_l78h2_proxy34collect_h2_request_to_h3_fieldlist0s5_00B9_
FN:936,_RNCNCNvMs4_NtCsiFMhfKJXoB5_5lb_l78h2_proxyNtB9_7H2Proxy12handle_inner00Bb_
FN:973,_RNCNCNvMs4_NtCsiFMhfKJXoB5_5lb_l78h2_proxyNtB9_7H2Proxy12handle_inner0s0_0Bb_
FN:992,_RNCNCNvMs4_NtCsiFMhfKJXoB5_5lb_l78h2_proxyNtB9_7H2Proxy12handle_inner0s1_0Bb_
FN:1019,_RNCNCNvMs4_NtCsiFMhfKJXoB5_5lb_l78h2_proxyNtB9_7H2Proxy12handle_inner0s2_0Bb_
FN:1034,_RNCNCNvMs4_NtCsiFMhfKJXoB5_5lb_l78h2_proxyNtB9_7H2Proxy12handle_inner0s3_0Bb_
FN:1089,_RNCNCNvMs4_NtCsiFMhfKJXoB5_5lb_l78h2_proxyNtB9_7H2Proxy12handle_inner0s4_0Bb_
FN:1117,_RNCNCNvMs4_NtCsiFMhfKJXoB5_5lb_l78h2_proxyNtB9_7H2Proxy12handle_inner0s5_0Bb_
FN:1143,_RNCNCNvMs4_NtCsiFMhfKJXoB5_5lb_l78h2_proxyNtB9_7H2Proxy12handle_inner0s6_0Bb_
FN:1144,_RNCNCNvMs4_NtCsiFMhfKJXoB5_5lb_l78h2_proxyNtB9_7H2Proxy12handle_inner0s7_0Bb_
FN:943,_RNCNCNvMs4_NtCsiFMhfKJXoB5_5lb_l78h2_proxyNtB9_7H2Proxy12handle_inner0s_0Bb_
FN:1413,_RNCNCNvMs4_NtCsiFMhfKJXoB5_5lb_l78h2_proxyNtB9_7H2Proxy13proxy_request00Bb_
FN:1424,_RNCNCNvMs4_NtCsiFMhfKJXoB5_5lb_l78h2_proxyNtB9_7H2Proxy13proxy_request0s0_0Bb_
FN:1425,_RNCNCNvMs4_NtCsiFMhfKJXoB5_5lb_l78h2_proxyNtB9_7H2Proxy13proxy_request0s1_0Bb_
FN:1455,_RNCNCNvMs4_NtCsiFMhfKJXoB5_5lb_l78h2_proxyNtB9_7H2Proxy13proxy_request0s2_0Bb_
FN:1458,_RNCNCNvMs4_NtCsiFMhfKJXoB5_5lb_l78h2_proxyNtB9_7H2Proxy13proxy_request0s3_0Bb_
FN:1464,_RNCNCNvMs4_NtCsiFMhfKJXoB5_5lb_l78h2_proxyNtB9_7H2Proxy13proxy_request0s4_0Bb_
FN:1465,_RNCNCNvMs4_NtCsiFMhfKJXoB5_5lb_l78h2_proxyNtB9_7H2Proxy13proxy_request0s5_0Bb_
FN:1478,_RNCNCNvMs4_NtCsiFMhfKJXoB5_5lb_l78h2_proxyNtB9_7H2Proxy13proxy_request0s6_0Bb_
FN:1489,_RNCNCNvMs4_NtCsiFMhfKJXoB5_5lb_l78h2_proxyNtB9_7H2Proxy13proxy_request0s7_0Bb_
FN:1418,_RNCNCNvMs4_NtCsiFMhfKJXoB5_5lb_l78h2_proxyNtB9_7H2Proxy13proxy_request0s_0Bb_
FN:1729,_RNCNCNvNtCsiFMhfKJXoB5_5lb_l78h2_proxy26translate_h2_request_to_h200B7_
FN:1741,_RNCNCNvNtCsiFMhfKJXoB5_5lb_l78h2_proxy26translate_h2_request_to_h20s0_0B7_
FN:1745,_RNCNCNvNtCsiFMhfKJXoB5_5lb_l78h2_proxy26translate_h2_request_to_h20s1_0B7_
FN:1746,_RNCNCNvNtCsiFMhfKJXoB5_5lb_l78h2_proxy26translate_h2_request_to_h20s2_0B7_
FN:1758,_RNCNCNvNtCsiFMhfKJXoB5_5lb_l78h2_proxy26translate_h2_request_to_h20s3_0B7_
FN:1762,_RNCNCNvNtCsiFMhfKJXoB5_5lb_l78h2_proxy26translate_h2_request_to_h20s4_0B7_
FN:1791,_RNCNCNvNtCsiFMhfKJXoB5_5lb_l78h2_proxy26translate_h2_request_to_h20s5_0B7_
FN:1798,_RNCNCNvNtCsiFMhfKJXoB5_5lb_l78h2_proxy26translate_h2_request_to_h20s6_0B7_
FN:1817,_RNCNCNvNtCsiFMhfKJXoB5_5lb_l78h2_proxy26translate_h2_request_to_h20s7_0B7_
FN:1741,_RNCNCNvNtCsiFMhfKJXoB5_5lb_l78h2_proxy26translate_h2_request_to_h20s_0B7_
FN:1935,_RNCNCNvNtCsiFMhfKJXoB5_5lb_l78h2_proxy26upstream_h2_response_to_h200B7_
FN:1984,_RNCNCNvNtCsiFMhfKJXoB5_5lb_l78h2_proxy26upstream_h2_response_to_h20s0_0B7_
FN:1951,_RNCNCNvNtCsiFMhfKJXoB5_5lb_l78h2_proxy26upstream_h2_response_to_h20s_0B7_
FN:2009,_RNCNCNvNtCsiFMhfKJXoB5_5lb_l78h2_proxy34collect_h2_request_to_h3_fieldlist00B7_
FN:2020,_RNCNCNvNtCsiFMhfKJXoB5_5lb_l78h2_proxy34collect_h2_request_to_h3_fieldlist0s0_0B7_
FN:2024,_RNCNCNvNtCsiFMhfKJXoB5_5lb_l78h2_proxy34collect_h2_request_to_h3_fieldlist0s1_0B7_
FN:2025,_RNCNCNvNtCsiFMhfKJXoB5_5lb_l78h2_proxy34collect_h2_request_to_h3_fieldlist0s2_0B7_
FN:2032,_RNCNCNvNtCsiFMhfKJXoB5_5lb_l78h2_proxy34collect_h2_request_to_h3_fieldlist0s3_0B7_
FN:2040,_RNCNCNvNtCsiFMhfKJXoB5_5lb_l78h2_proxy34collect_h2_request_to_h3_fieldlist0s4_0B7_
FN:2044,_RNCNCNvNtCsiFMhfKJXoB5_5lb_l78h2_proxy34collect_h2_request_to_h3_fieldlist0s5_0B7_
FN:2069,_RNCNCNvNtCsiFMhfKJXoB5_5lb_l78h2_proxy34collect_h2_request_to_h3_fieldlist0s6_0B7_
FN:2020,_RNCNCNvNtCsiFMhfKJXoB5_5lb_l78h2_proxy34collect_h2_request_to_h3_fieldlist0s_0B7_
FN:902,_RNCNvMs4_NtCsiFMhfKJXoB5_5lb_l78h2_proxyNtB7_7H2Proxy12handle_inner0B9_
FN:1310,_RNCNvMs4_NtCsiFMhfKJXoB5_5lb_l78h2_proxyNtB7_7H2Proxy13proxy_request0B9_
FN:1660,_RNCNvMs4_NtCsiFMhfKJXoB5_5lb_l78h2_proxyNtB7_7H2Proxy14proxy_h2_to_h20B9_
FN:1685,_RNCNvMs4_NtCsiFMhfKJXoB5_5lb_l78h2_proxyNtB7_7H2Proxy14proxy_h2_to_h30B9_
FN:1237,_RNCNvMs4_NtCsiFMhfKJXoB5_5lb_l78h2_proxyNtB7_7H2Proxy26handle_ws_extended_connect0B9_
FN:1301,_RNCNvMs4_NtCsiFMhfKJXoB5_5lb_l78h2_proxyNtB7_7H2Proxy26handle_ws_extended_connects1_0B9_
FN:1241,_RNCNvMs4_NtCsiFMhfKJXoB5_5lb_l78h2_proxyNtB7_7H2Proxy26handle_ws_extended_connects_0B9_
FN:870,_RNCNvMs4_NtCsiFMhfKJXoB5_5lb_l78h2_proxyNtB7_7H2Proxy6handle0B9_
FN:2225,_RNCNvNtCsiFMhfKJXoB5_5lb_l78h2_proxy15split_host_port0B5_
FN:2230,_RNCNvNtCsiFMhfKJXoB5_5lb_l78h2_proxy15split_host_ports_0B5_
FN:2116,_RNCNvNtCsiFMhfKJXoB5_5lb_l78h2_proxy17h3_response_to_h20B5_
FN:1723,_RNCNvNtCsiFMhfKJXoB5_5lb_l78h2_proxy26translate_h2_request_to_h20B5_
FN:1922,_RNCNvNtCsiFMhfKJXoB5_5lb_l78h2_proxy26upstream_h2_response_to_h20B5_
FN:2173,_RNCNvNtCsiFMhfKJXoB5_5lb_l78h2_proxy30check_authority_host_agreement0B5_
FN:2003,_RNCNvNtCsiFMhfKJXoB5_5lb_l78h2_proxy34collect_h2_request_to_h3_fieldlist0B5_
FN:849,_RNCNvXs3_NtCsiFMhfKJXoB5_5lb_l78h2_proxyNtB7_12ProxyServiceINtNtNtCsgB3dp6qvXvn_5hyper7service7service7ServiceINtNtCsjFxw70quGA5_4http7request7RequestNtNtNtB12_4body8incoming8IncomingEE4call0B9_
FN:485,_RNvMs1_NtCsiFMhfKJXoB5_5lb_l78h2_proxyNtB5_7H2Proxy10with_hooks
FN:520,_RNvMs1_NtCsiFMhfKJXoB5_5lb_l78h2_proxyNtB5_7H2Proxy13with_glitches
FN:413,_RNvMs1_NtCsiFMhfKJXoB5_5lb_l78h2_proxyNtB5_7H2Proxy13with_security
FN:496,_RNvMs1_NtCsiFMhfKJXoB5_5lb_l78h2_proxyNtB5_7H2Proxy13with_watchdog
FN:593,_RNvMs1_NtCsiFMhfKJXoB5_5lb_l78h2_proxyNtB5_7H2Proxy14with_websocket
FN:579,_RNvMs1_NtCsiFMhfKJXoB5_5lb_l78h2_proxyNtB5_7H2Proxy15has_h2_upstream
FN:586,_RNvMs1_NtCsiFMhfKJXoB5_5lb_l78h2_proxyNtB5_7H2Proxy15has_h3_upstream
FN:563,_RNvMs1_NtCsiFMhfKJXoB5_5lb_l78h2_proxyNtB5_7H2Proxy16with_h2_upstream
FN:571,_RNvMs1_NtCsiFMhfKJXoB5_5lb_l78h2_proxyNtB5_7H2Proxy16with_h3_upstream
FN:451,_RNvMs1_NtCsiFMhfKJXoB5_5lb_l78h2_proxyNtB5_7H2Proxy16with_multi_proto
FN:541,_RNvMs1_NtCsiFMhfKJXoB5_5lb_l78h2_proxyNtB5_7H2Proxy17with_expected_sni
FN:552,_RNvMs1_NtCsiFMhfKJXoB5_5lb_l78h2_proxyNtB5_7H2Proxy29with_header_underscore_policy
FN:391,_RNvMs1_NtCsiFMhfKJXoB5_5lb_l78h2_proxyNtB5_7H2Proxy3new
FN:607,_RNvMs1_NtCsiFMhfKJXoB5_5lb_l78h2_proxyNtB5_7H2Proxy9with_grpc
FN:809,_RNvMs2_NtCsiFMhfKJXoB5_5lb_l78h2_proxyNtB5_15GlitchConnState6record
FN:896,_RNvMs4_NtCsiFMhfKJXoB5_5lb_l78h2_proxyNtB5_7H2Proxy12handle_inner
FN:1306,_RNvMs4_NtCsiFMhfKJXoB5_5lb_l78h2_proxyNtB5_7H2Proxy13proxy_request
FN:1656,_RNvMs4_NtCsiFMhfKJXoB5_5lb_l78h2_proxyNtB5_7H2Proxy14proxy_h2_to_h2
FN:1681,_RNvMs4_NtCsiFMhfKJXoB5_5lb_l78h2_proxyNtB5_7H2Proxy14proxy_h2_to_h3
FN:1641,_RNvMs4_NtCsiFMhfKJXoB5_5lb_l78h2_proxyNtB5_7H2Proxy17finalize_response
FN:1215,_RNvMs4_NtCsiFMhfKJXoB5_5lb_l78h2_proxyNtB5_7H2Proxy26handle_ws_extended_connect
FN:864,_RNvMs4_NtCsiFMhfKJXoB5_5lb_l78h2_proxyNtB5_7H2Proxy6handle
FN:1876,_RNvNtCsiFMhfKJXoB5_5lb_l78h2_proxy13concat_chunks
FN:2142,_RNvNtCsiFMhfKJXoB5_5lb_l78h2_proxy14error_response
FN:2254,_RNvNtCsiFMhfKJXoB5_5lb_l78h2_proxy15record_retained
FN:2218,_RNvNtCsiFMhfKJXoB5_5lb_l78h2_proxy15split_host_port
FN:2075,_RNvNtCsiFMhfKJXoB5_5lb_l78h2_proxy17h3_response_to_h2
FN:2197,_RNvNtCsiFMhfKJXoB5_5lb_l78h2_proxy22authority_matches_host
FN:1854,_RNvNtCsiFMhfKJXoB5_5lb_l78h2_proxy25validate_request_trailers
FN:1721,_RNvNtCsiFMhfKJXoB5_5lb_l78h2_proxy26translate_h2_request_to_h2
FN:1919,_RNvNtCsiFMhfKJXoB5_5lb_l78h2_proxy26upstream_h2_response_to_h2
FN:1887,_RNvNtCsiFMhfKJXoB5_5lb_l78h2_proxy27build_h2_body_with_trailers
FN:2166,_RNvNtCsiFMhfKJXoB5_5lb_l78h2_proxy30check_authority_host_agreement
FN:2000,_RNvNtCsiFMhfKJXoB5_5lb_l78h2_proxy34collect_h2_request_to_h3_fieldlist
FN:1829,_RNvNtCsiFMhfKJXoB5_5lb_l78h2_proxy41capture_request_trailers_rejecting_pseudo
FN:844,_RNvXs3_NtCsiFMhfKJXoB5_5lb_l78h2_proxyNtB5_12ProxyServiceINtNtNtCsgB3dp6qvXvn_5hyper7service7service7ServiceINtNtCsjFxw70quGA5_4http7request7RequestNtNtNtB10_4body8incoming8IncomingEE4call
FN:625,_RINvMs1_NtCsiFMhfKJXoB5_5lb_l78h2_proxyNtB6_7H2Proxy16serve_connectionINtNtCs7m3feRqGqA4_12tokio_rustls6server9TlsStreamNtNtNtNtCsfWKKmeeA0Vo_5tokio3net3tcp6stream9TcpStreamEECsjqGwtXRutxH_23h2h1_md_coverage_driver
FN:654,_RINvMs1_NtCsiFMhfKJXoB5_5lb_l78h2_proxyNtB6_7H2Proxy28serve_connection_with_cancelINtNtCs7m3feRqGqA4_12tokio_rustls6server9TlsStreamNtNtNtNtCsfWKKmeeA0Vo_5tokio3net3tcp6stream9TcpStreamEECsjqGwtXRutxH_23h2h1_md_coverage_driver
FN:677,_RINvMs1_NtCsiFMhfKJXoB5_5lb_l78h2_proxyNtB6_7H2Proxy32serve_connection_with_cancel_sniINtNtCs7m3feRqGqA4_12tokio_rustls6server9TlsStreamNtNtNtNtCsfWKKmeeA0Vo_5tokio3net3tcp6stream9TcpStreamEECsjqGwtXRutxH_23h2h1_md_coverage_driver
FN:628,_RNCINvMs1_NtCsiFMhfKJXoB5_5lb_l78h2_proxyNtB8_7H2Proxy16serve_connectionINtNtCs7m3feRqGqA4_12tokio_rustls6server9TlsStreamNtNtNtNtCsfWKKmeeA0Vo_5tokio3net3tcp6stream9TcpStreamEE0CsjqGwtXRutxH_23h2h1_md_coverage_driver
FN:662,_RNCINvMs1_NtCsiFMhfKJXoB5_5lb_l78h2_proxyNtB8_7H2Proxy28serve_connection_with_cancelINtNtCs7m3feRqGqA4_12tokio_rustls6server9TlsStreamNtNtNtNtCsfWKKmeeA0Vo_5tokio3net3tcp6stream9TcpStreamEE0CsjqGwtXRutxH_23h2h1_md_coverage_driver
FN:686,_RNCINvMs1_NtCsiFMhfKJXoB5_5lb_l78h2_proxyNtB8_7H2Proxy32serve_connection_with_cancel_sniINtNtCs7m3feRqGqA4_12tokio_rustls6server9TlsStreamNtNtNtNtCsfWKKmeeA0Vo_5tokio3net3tcp6stream9TcpStreamEE0CsjqGwtXRutxH_23h2h1_md_coverage_driver
FN:698,_RNCNCINvMs1_NtCsiFMhfKJXoB5_5lb_l78h2_proxyNtBa_7H2Proxy32serve_connection_with_cancel_sniINtNtCs7m3feRqGqA4_12tokio_rustls6server9TlsStreamNtNtNtNtCsfWKKmeeA0Vo_5tokio3net3tcp6stream9TcpStreamEE00CsjqGwtXRutxH_23h2h1_md_coverage_driver
FN:699,_RNCNCNCINvMs1_NtCsiFMhfKJXoB5_5lb_l78h2_proxyNtBc_7H2Proxy32serve_connection_with_cancel_sniINtNtCs7m3feRqGqA4_12tokio_rustls6server9TlsStreamNtNtNtNtCsfWKKmeeA0Vo_5tokio3net3tcp6stream9TcpStreamEE000CsjqGwtXRutxH_23h2h1_md_coverage_driver
FN:270,_RNvMNtCsiFMhfKJXoB5_5lb_l78h2_proxyINtB2_12CleanCloseIoINtNtCs7m3feRqGqA4_12tokio_rustls6server9TlsStreamNtNtNtNtCsfWKKmeeA0Vo_5tokio3net3tcp6stream9TcpStreamEE3newCsjqGwtXRutxH_23h2h1_md_coverage_driver
FN:300,_RNvXs0_NtCsiFMhfKJXoB5_5lb_l78h2_proxyINtB5_12CleanCloseIoINtNtCs7m3feRqGqA4_12tokio_rustls6server9TlsStreamNtNtNtNtCsfWKKmeeA0Vo_5tokio3net3tcp6stream9TcpStreamEENtNtNtB1Q_2io11async_write10AsyncWrite10poll_flushCsjqGwtXRutxH_23h2h1_md_coverage_driver
FN:292,_RNvXs0_NtCsiFMhfKJXoB5_5lb_l78h2_proxyINtB5_12CleanCloseIoINtNtCs7m3feRqGqA4_12tokio_rustls6server9TlsStreamNtNtNtNtCsfWKKmeeA0Vo_5tokio3net3tcp6stream9TcpStreamEENtNtNtB1Q_2io11async_write10AsyncWrite10poll_writeCsjqGwtXRutxH_23h2h1_md_coverage_driver
FN:304,_RNvXs0_NtCsiFMhfKJXoB5_5lb_l78h2_proxyINtB5_12CleanCloseIoINtNtCs7m3feRqGqA4_12tokio_rustls6server9TlsStreamNtNtNtNtCsfWKKmeeA0Vo_5tokio3net3tcp6stream9TcpStreamEENtNtNtB1Q_2io11async_write10AsyncWrite13poll_shutdownCsjqGwtXRutxH_23h2h1_md_coverage_driver
FN:282,_RNvXs_NtCsiFMhfKJXoB5_5lb_l78h2_proxyINtB4_12CleanCloseIoINtNtCs7m3feRqGqA4_12tokio_rustls6server9TlsStreamNtNtNtNtCsfWKKmeeA0Vo_5tokio3net3tcp6stream9TcpStreamEENtNtNtB1P_2io10async_read9AsyncRead9poll_readCsjqGwtXRutxH_23h2h1_md_coverage_driver
FNDA:3,_RINvMs1_NtCsiFMhfKJXoB5_5lb_l78h2_proxyNtB6_7H2Proxy16serve_connectionINtNtCs7m3feRqGqA4_12tokio_rustls6server9TlsStreamNtNtNtNtCsfWKKmeeA0Vo_5tokio3net3tcp6stream9TcpStreamEECs2gn4DoUa6Db_28h2_validation_before_forward
FNDA:3,_RINvMs1_NtCsiFMhfKJXoB5_5lb_l78h2_proxyNtB6_7H2Proxy28serve_connection_with_cancelINtNtCs7m3feRqGqA4_12tokio_rustls6server9TlsStreamNtNtNtNtCsfWKKmeeA0Vo_5tokio3net3tcp6stream9TcpStreamEECs2gn4DoUa6Db_28h2_validation_before_forward
FNDA:3,_RINvMs1_NtCsiFMhfKJXoB5_5lb_l78h2_proxyNtB6_7H2Proxy32serve_connection_with_cancel_sniINtNtCs7m3feRqGqA4_12tokio_rustls6server9TlsStreamNtNtNtNtCsfWKKmeeA0Vo_5tokio3net3tcp6stream9TcpStreamEECs2gn4DoUa6Db_28h2_validation_before_forward
FNDA:3,_RNCINvMs1_NtCsiFMhfKJXoB5_5lb_l78h2_proxyNtB8_7H2Proxy16serve_connectionINtNtCs7m3feRqGqA4_12tokio_rustls6server9TlsStreamNtNtNtNtCsfWKKmeeA0Vo_5tokio3net3tcp6stream9TcpStreamEE0Cs2gn4DoUa6Db_28h2_validation_before_forward
FNDA:3,_RNCINvMs1_NtCsiFMhfKJXoB5_5lb_l78h2_proxyNtB8_7H2Proxy28serve_connection_with_cancelINtNtCs7m3feRqGqA4_12tokio_rustls6server9TlsStreamNtNtNtNtCsfWKKmeeA0Vo_5tokio3net3tcp6stream9TcpStreamEE0Cs2gn4DoUa6Db_28h2_validation_before_forward
FNDA:3,_RNCINvMs1_NtCsiFMhfKJXoB5_5lb_l78h2_proxyNtB8_7H2Proxy32serve_connection_with_cancel_sniINtNtCs7m3feRqGqA4_12tokio_rustls6server9TlsStreamNtNtNtNtCsfWKKmeeA0Vo_5tokio3net3tcp6stream9TcpStreamEE0Cs2gn4DoUa6Db_28h2_validation_before_forward
FNDA:0,_RNCNCINvMs1_NtCsiFMhfKJXoB5_5lb_l78h2_proxyNtBa_7H2Proxy32serve_connection_with_cancel_sniINtNtCs7m3feRqGqA4_12tokio_rustls6server9TlsStreamNtNtNtNtCsfWKKmeeA0Vo_5tokio3net3tcp6stream9TcpStreamEE00Cs2gn4DoUa6Db_28h2_validation_before_forward
FNDA:0,_RNCNCNCINvMs1_NtCsiFMhfKJXoB5_5lb_l78h2_proxyNtBc_7H2Proxy32serve_connection_with_cancel_sniINtNtCs7m3feRqGqA4_12tokio_rustls6server9TlsStreamNtNtNtNtCsfWKKmeeA0Vo_5tokio3net3tcp6stream9TcpStreamEE000Cs2gn4DoUa6Db_28h2_validation_before_forward
FNDA:3,_RNvMNtCsiFMhfKJXoB5_5lb_l78h2_proxyINtB2_12CleanCloseIoINtNtCs7m3feRqGqA4_12tokio_rustls6server9TlsStreamNtNtNtNtCsfWKKmeeA0Vo_5tokio3net3tcp6stream9TcpStreamEE3newCs2gn4DoUa6Db_28h2_validation_before_forward
FNDA:18,_RNvXs0_NtCsiFMhfKJXoB5_5lb_l78h2_proxyINtB5_12CleanCloseIoINtNtCs7m3feRqGqA4_12tokio_rustls6server9TlsStreamNtNtNtNtCsfWKKmeeA0Vo_5tokio3net3tcp6stream9TcpStreamEENtNtNtB1Q_2io11async_write10AsyncWrite10poll_flushCs2gn4DoUa6Db_28h2_validation_before_forward
FNDA:9,_RNvXs0_NtCsiFMhfKJXoB5_5lb_l78h2_proxyINtB5_12CleanCloseIoINtNtCs7m3feRqGqA4_12tokio_rustls6server9TlsStreamNtNtNtNtCsfWKKmeeA0Vo_5tokio3net3tcp6stream9TcpStreamEENtNtNtB1Q_2io11async_write10AsyncWrite10poll_writeCs2gn4DoUa6Db_28h2_validation_before_forward
FNDA:0,_RNvXs0_NtCsiFMhfKJXoB5_5lb_l78h2_proxyINtB5_12CleanCloseIoINtNtCs7m3feRqGqA4_12tokio_rustls6server9TlsStreamNtNtNtNtCsfWKKmeeA0Vo_5tokio3net3tcp6stream9TcpStreamEENtNtNtB1Q_2io11async_write10AsyncWrite13poll_shutdownCs2gn4DoUa6Db_28h2_validation_before_forward
FNDA:64,_RNvXs_NtCsiFMhfKJXoB5_5lb_l78h2_proxyINtB4_12CleanCloseIoINtNtCs7m3feRqGqA4_12tokio_rustls6server9TlsStreamNtNtNtNtCsfWKKmeeA0Vo_5tokio3net3tcp6stream9TcpStreamEENtNtNtB1P_2io10async_read9AsyncRead9poll_readCs2gn4DoUa6Db_28h2_validation_before_forward
FNDA:0,_RINvMs1_NtCsiFMhfKJXoB5_5lb_l78h2_proxyNtB6_7H2Proxy16serve_connectionpEB8_
FNDA:0,_RINvMs1_NtCsiFMhfKJXoB5_5lb_l78h2_proxyNtB6_7H2Proxy28serve_connection_with_cancelpEB8_
FNDA:0,_RINvMs1_NtCsiFMhfKJXoB5_5lb_l78h2_proxyNtB6_7H2Proxy32serve_connection_with_cancel_snipEB8_
FNDA:0,_RNCINvMs1_NtCsiFMhfKJXoB5_5lb_l78h2_proxyNtB8_7H2Proxy16serve_connectionpE0Ba_
FNDA:0,_RNCINvMs1_NtCsiFMhfKJXoB5_5lb_l78h2_proxyNtB8_7H2Proxy28serve_connection_with_cancelpE0Ba_
FNDA:0,_RNCINvMs1_NtCsiFMhfKJXoB5_5lb_l78h2_proxyNtB8_7H2Proxy32serve_connection_with_cancel_snipE0Ba_
FNDA:0,_RNCNCINvMs1_NtCsiFMhfKJXoB5_5lb_l78h2_proxyNtBa_7H2Proxy32serve_connection_with_cancel_snipE00Bc_
FNDA:0,_RNCNCNCINvMs1_NtCsiFMhfKJXoB5_5lb_l78h2_proxyNtBc_7H2Proxy32serve_connection_with_cancel_snipE000Be_
FNDA:0,_RNvMNtCsiFMhfKJXoB5_5lb_l78h2_proxyINtB2_12CleanCloseIopE3newB4_
FNDA:0,_RNvXININtCsiFMhfKJXoB5_5lb_l78h2_proxys0_0pEINtB5_12CleanCloseIopENtNtNtCsfWKKmeeA0Vo_5tokio2io11async_write10AsyncWrite10poll_flushB7_
FNDA:0,_RNvXININtCsiFMhfKJXoB5_5lb_l78h2_proxys0_0pEINtB5_12CleanCloseIopENtNtNtCsfWKKmeeA0Vo_5tokio2io11async_write10AsyncWrite10poll_writeB7_
FNDA:0,_RNvXININtCsiFMhfKJXoB5_5lb_l78h2_proxys0_0pEINtB5_12CleanCloseIopENtNtNtCsfWKKmeeA0Vo_5tokio2io11async_write10AsyncWrite13poll_shutdownB7_
FNDA:0,_RNvXININtCsiFMhfKJXoB5_5lb_l78h2_proxys_0pEINtB5_12CleanCloseIopENtNtNtCsfWKKmeeA0Vo_5tokio2io10async_read9AsyncRead9poll_readB7_
FNDA:0,_RNCNCNCNCNvNtCsiFMhfKJXoB5_5lb_l78h2_proxy26upstream_h2_response_to_h20000Bb_
FNDA:14,_RNCNCNCNvMs4_NtCsiFMhfKJXoB5_5lb_l78h2_proxyNtBb_7H2Proxy12handle_inner0s3_00Bd_
FNDA:0,_RNCNCNCNvMs4_NtCsiFMhfKJXoB5_5lb_l78h2_proxyNtBb_7H2Proxy12handle_inner0s4_00Bd_
FNDA:0,_RNCNCNCNvMs4_NtCsiFMhfKJXoB5_5lb_l78h2_proxyNtBb_7H2Proxy12handle_inner0s5_00Bd_
FNDA:0,_RNCNCNCNvMs4_NtCsiFMhfKJXoB5_5lb_l78h2_proxyNtBb_7H2Proxy12handle_inner0s7_00Bd_
FNDA:0,_RNCNCNCNvNtCsiFMhfKJXoB5_5lb_l78h2_proxy26translate_h2_request_to_h20s2_00B9_
FNDA:0,_RNCNCNCNvNtCsiFMhfKJXoB5_5lb_l78h2_proxy26translate_h2_request_to_h20s4_00B9_
FNDA:0,_RNCNCNCNvNtCsiFMhfKJXoB5_5lb_l78h2_proxy26upstream_h2_response_to_h2000B9_
FNDA:0,_RNCNCNCNvNtCsiFMhfKJXoB5_5lb_l78h2_proxy26upstream_h2_response_to_h20s_00B9_
FNDA:0,_RNCNCNCNvNtCsiFMhfKJXoB5_5lb_l78h2_proxy34collect_h2_request_to_h3_fieldlist0s2_00B9_
FNDA:0,_RNCNCNCNvNtCsiFMhfKJXoB5_5lb_l78h2_proxy34collect_h2_request_to_h3_fieldlist0s5_00B9_
FNDA:0,_RNCNCNvMs4_NtCsiFMhfKJXoB5_5lb_l78h2_proxyNtB9_7H2Proxy12handle_inner00Bb_
FNDA:14,_RNCNCNvMs4_NtCsiFMhfKJXoB5_5lb_l78h2_proxyNtB9_7H2Proxy12handle_inner0s0_0Bb_
FNDA:0,_RNCNCNvMs4_NtCsiFMhfKJXoB5_5lb_l78h2_proxyNtB9_7H2Proxy12handle_inner0s1_0Bb_
FNDA:0,_RNCNCNvMs4_NtCsiFMhfKJXoB5_5lb_l78h2_proxyNtB9_7H2Proxy12handle_inner0s2_0Bb_
FNDA:14,_RNCNCNvMs4_NtCsiFMhfKJXoB5_5lb_l78h2_proxyNtB9_7H2Proxy12handle_inner0s3_0Bb_
FNDA:0,_RNCNCNvMs4_NtCsiFMhfKJXoB5_5lb_l78h2_proxyNtB9_7H2Proxy12handle_inner0s4_0Bb_
FNDA:0,_RNCNCNvMs4_NtCsiFMhfKJXoB5_5lb_l78h2_proxyNtB9_7H2Proxy12handle_inner0s5_0Bb_
FNDA:12,_RNCNCNvMs4_NtCsiFMhfKJXoB5_5lb_l78h2_proxyNtB9_7H2Proxy12handle_inner0s6_0Bb_
FNDA:0,_RNCNCNvMs4_NtCsiFMhfKJXoB5_5lb_l78h2_proxyNtB9_7H2Proxy12handle_inner0s7_0Bb_
FNDA:0,_RNCNCNvMs4_NtCsiFMhfKJXoB5_5lb_l78h2_proxyNtB9_7H2Proxy12handle_inner0s_0Bb_
FNDA:0,_RNCNCNvMs4_NtCsiFMhfKJXoB5_5lb_l78h2_proxyNtB9_7H2Proxy13proxy_request00Bb_
FNDA:0,_RNCNCNvMs4_NtCsiFMhfKJXoB5_5lb_l78h2_proxyNtB9_7H2Proxy13proxy_request0s0_0Bb_
FNDA:3,_RNCNCNvMs4_NtCsiFMhfKJXoB5_5lb_l78h2_proxyNtB9_7H2Proxy13proxy_request0s1_0Bb_
FNDA:0,_RNCNCNvMs4_NtCsiFMhfKJXoB5_5lb_l78h2_proxyNtB9_7H2Proxy13proxy_request0s2_0Bb_
FNDA:0,_RNCNCNvMs4_NtCsiFMhfKJXoB5_5lb_l78h2_proxyNtB9_7H2Proxy13proxy_request0s3_0Bb_
FNDA:0,_RNCNCNvMs4_NtCsiFMhfKJXoB5_5lb_l78h2_proxyNtB9_7H2Proxy13proxy_request0s4_0Bb_
FNDA:4,_RNCNCNvMs4_NtCsiFMhfKJXoB5_5lb_l78h2_proxyNtB9_7H2Proxy13proxy_request0s5_0Bb_
FNDA:0,_RNCNCNvMs4_NtCsiFMhfKJXoB5_5lb_l78h2_proxyNtB9_7H2Proxy13proxy_request0s6_0Bb_
FNDA:4,_RNCNCNvMs4_NtCsiFMhfKJXoB5_5lb_l78h2_proxyNtB9_7H2Proxy13proxy_request0s7_0Bb_
FNDA:0,_RNCNCNvMs4_NtCsiFMhfKJXoB5_5lb_l78h2_proxyNtB9_7H2Proxy13proxy_request0s_0Bb_
FNDA:0,_RNCNCNvNtCsiFMhfKJXoB5_5lb_l78h2_proxy26translate_h2_request_to_h200B7_
FNDA:0,_RNCNCNvNtCsiFMhfKJXoB5_5lb_l78h2_proxy26translate_h2_request_to_h20s0_0B7_
FNDA:0,_RNCNCNvNtCsiFMhfKJXoB5_5lb_l78h2_proxy26translate_h2_request_to_h20s1_0B7_
FNDA:0,_RNCNCNvNtCsiFMhfKJXoB5_5lb_l78h2_proxy26translate_h2_request_to_h20s2_0B7_
FNDA:0,_RNCNCNvNtCsiFMhfKJXoB5_5lb_l78h2_proxy26translate_h2_request_to_h20s3_0B7_
FNDA:0,_RNCNCNvNtCsiFMhfKJXoB5_5lb_l78h2_proxy26translate_h2_request_to_h20s4_0B7_
FNDA:0,_RNCNCNvNtCsiFMhfKJXoB5_5lb_l78h2_proxy26translate_h2_request_to_h20s5_0B7_
FNDA:0,_RNCNCNvNtCsiFMhfKJXoB5_5lb_l78h2_proxy26translate_h2_request_to_h20s6_0B7_
FNDA:0,_RNCNCNvNtCsiFMhfKJXoB5_5lb_l78h2_proxy26translate_h2_request_to_h20s7_0B7_
FNDA:0,_RNCNCNvNtCsiFMhfKJXoB5_5lb_l78h2_proxy26translate_h2_request_to_h20s_0B7_
FNDA:0,_RNCNCNvNtCsiFMhfKJXoB5_5lb_l78h2_proxy26upstream_h2_response_to_h200B7_
FNDA:0,_RNCNCNvNtCsiFMhfKJXoB5_5lb_l78h2_proxy26upstream_h2_response_to_h20s0_0B7_
FNDA:0,_RNCNCNvNtCsiFMhfKJXoB5_5lb_l78h2_proxy26upstream_h2_response_to_h20s_0B7_
FNDA:0,_RNCNCNvNtCsiFMhfKJXoB5_5lb_l78h2_proxy34collect_h2_request_to_h3_fieldlist00B7_
FNDA:0,_RNCNCNvNtCsiFMhfKJXoB5_5lb_l78h2_proxy34collect_h2_request_to_h3_fieldlist0s0_0B7_
FNDA:0,_RNCNCNvNtCsiFMhfKJXoB5_5lb_l78h2_proxy34collect_h2_request_to_h3_fieldlist0s1_0B7_
FNDA:0,_RNCNCNvNtCsiFMhfKJXoB5_5lb_l78h2_proxy34collect_h2_request_to_h3_fieldlist0s2_0B7_
FNDA:0,_RNCNCNvNtCsiFMhfKJXoB5_5lb_l78h2_proxy34collect_h2_request_to_h3_fieldlist0s3_0B7_
FNDA:0,_RNCNCNvNtCsiFMhfKJXoB5_5lb_l78h2_proxy34collect_h2_request_to_h3_fieldlist0s4_0B7_
FNDA:0,_RNCNCNvNtCsiFMhfKJXoB5_5lb_l78h2_proxy34collect_h2_request_to_h3_fieldlist0s5_0B7_
FNDA:0,_RNCNCNvNtCsiFMhfKJXoB5_5lb_l78h2_proxy34collect_h2_request_to_h3_fieldlist0s6_0B7_
FNDA:0,_RNCNCNvNtCsiFMhfKJXoB5_5lb_l78h2_proxy34collect_h2_request_to_h3_fieldlist0s_0B7_
FNDA:12,_RNCNvMs4_NtCsiFMhfKJXoB5_5lb_l78h2_proxyNtB7_7H2Proxy12handle_inner0B9_
FNDA:12,_RNCNvMs4_NtCsiFMhfKJXoB5_5lb_l78h2_proxyNtB7_7H2Proxy13proxy_request0B9_
FNDA:0,_RNCNvMs4_NtCsiFMhfKJXoB5_5lb_l78h2_proxyNtB7_7H2Proxy14proxy_h2_to_h20B9_
FNDA:0,_RNCNvMs4_NtCsiFMhfKJXoB5_5lb_l78h2_proxyNtB7_7H2Proxy14proxy_h2_to_h30B9_
FNDA:0,_RNCNvMs4_NtCsiFMhfKJXoB5_5lb_l78h2_proxyNtB7_7H2Proxy26handle_ws_extended_connect0B9_
FNDA:0,_RNCNvMs4_NtCsiFMhfKJXoB5_5lb_l78h2_proxyNtB7_7H2Proxy26handle_ws_extended_connects1_0B9_
FNDA:0,_RNCNvMs4_NtCsiFMhfKJXoB5_5lb_l78h2_proxyNtB7_7H2Proxy26handle_ws_extended_connects_0B9_
FNDA:12,_RNCNvMs4_NtCsiFMhfKJXoB5_5lb_l78h2_proxyNtB7_7H2Proxy6handle0B9_
FNDA:0,_RNCNvNtCsiFMhfKJXoB5_5lb_l78h2_proxy15split_host_port0B5_
FNDA:0,_RNCNvNtCsiFMhfKJXoB5_5lb_l78h2_proxy15split_host_ports_0B5_
FNDA:0,_RNCNvNtCsiFMhfKJXoB5_5lb_l78h2_proxy17h3_response_to_h20B5_
FNDA:0,_RNCNvNtCsiFMhfKJXoB5_5lb_l78h2_proxy26translate_h2_request_to_h20B5_
FNDA:0,_RNCNvNtCsiFMhfKJXoB5_5lb_l78h2_proxy26upstream_h2_response_to_h20B5_
FNDA:0,_RNCNvNtCsiFMhfKJXoB5_5lb_l78h2_proxy30check_authority_host_agreement0B5_
FNDA:0,_RNCNvNtCsiFMhfKJXoB5_5lb_l78h2_proxy34collect_h2_request_to_h3_fieldlist0B5_
FNDA:12,_RNCNvXs3_NtCsiFMhfKJXoB5_5lb_l78h2_proxyNtB7_12ProxyServiceINtNtNtCsgB3dp6qvXvn_5hyper7service7service7ServiceINtNtCsjFxw70quGA5_4http7request7RequestNtNtNtB12_4body8incoming8IncomingEE4call0B9_
FNDA:0,_RNvMs1_NtCsiFMhfKJXoB5_5lb_l78h2_proxyNtB5_7H2Proxy10with_hooks
FNDA:0,_RNvMs1_NtCsiFMhfKJXoB5_5lb_l78h2_proxyNtB5_7H2Proxy13with_glitches
FNDA:12,_RNvMs1_NtCsiFMhfKJXoB5_5lb_l78h2_proxyNtB5_7H2Proxy13with_security
FNDA:0,_RNvMs1_NtCsiFMhfKJXoB5_5lb_l78h2_proxyNtB5_7H2Proxy13with_watchdog
FNDA:0,_RNvMs1_NtCsiFMhfKJXoB5_5lb_l78h2_proxyNtB5_7H2Proxy14with_websocket
FNDA:0,_RNvMs1_NtCsiFMhfKJXoB5_5lb_l78h2_proxyNtB5_7H2Proxy15has_h2_upstream
FNDA:0,_RNvMs1_NtCsiFMhfKJXoB5_5lb_l78h2_proxyNtB5_7H2Proxy15has_h3_upstream
FNDA:0,_RNvMs1_NtCsiFMhfKJXoB5_5lb_l78h2_proxyNtB5_7H2Proxy16with_h2_upstream
FNDA:0,_RNvMs1_NtCsiFMhfKJXoB5_5lb_l78h2_proxyNtB5_7H2Proxy16with_h3_upstream
FNDA:0,_RNvMs1_NtCsiFMhfKJXoB5_5lb_l78h2_proxyNtB5_7H2Proxy16with_multi_proto
FNDA:0,_RNvMs1_NtCsiFMhfKJXoB5_5lb_l78h2_proxyNtB5_7H2Proxy17with_expected_sni
FNDA:0,_RNvMs1_NtCsiFMhfKJXoB5_5lb_l78h2_proxyNtB5_7H2Proxy29with_header_underscore_policy
FNDA:0,_RNvMs1_NtCsiFMhfKJXoB5_5lb_l78h2_proxyNtB5_7H2Proxy3new
FNDA:0,_RNvMs1_NtCsiFMhfKJXoB5_5lb_l78h2_proxyNtB5_7H2Proxy9with_grpc
FNDA:0,_RNvMs2_NtCsiFMhfKJXoB5_5lb_l78h2_proxyNtB5_15GlitchConnState6record
FNDA:12,_RNvMs4_NtCsiFMhfKJXoB5_5lb_l78h2_proxyNtB5_7H2Proxy12handle_inner
FNDA:12,_RNvMs4_NtCsiFMhfKJXoB5_5lb_l78h2_proxyNtB5_7H2Proxy13proxy_request
FNDA:0,_RNvMs4_NtCsiFMhfKJXoB5_5lb_l78h2_proxyNtB5_7H2Proxy14proxy_h2_to_h2
FNDA:0,_RNvMs4_NtCsiFMhfKJXoB5_5lb_l78h2_proxyNtB5_7H2Proxy14proxy_h2_to_h3
FNDA:3,_RNvMs4_NtCsiFMhfKJXoB5_5lb_l78h2_proxyNtB5_7H2Proxy17finalize_response
FNDA:0,_RNvMs4_NtCsiFMhfKJXoB5_5lb_l78h2_proxyNtB5_7H2Proxy26handle_ws_extended_connect
FNDA:12,_RNvMs4_NtCsiFMhfKJXoB5_5lb_l78h2_proxyNtB5_7H2Proxy6handle
FNDA:3,_RNvNtCsiFMhfKJXoB5_5lb_l78h2_proxy13concat_chunks
FNDA:9,_RNvNtCsiFMhfKJXoB5_5lb_l78h2_proxy14error_response
FNDA:106,_RNvNtCsiFMhfKJXoB5_5lb_l78h2_proxy15record_retained
FNDA:0,_RNvNtCsiFMhfKJXoB5_5lb_l78h2_proxy15split_host_port
FNDA:0,_RNvNtCsiFMhfKJXoB5_5lb_l78h2_proxy17h3_response_to_h2
FNDA:0,_RNvNtCsiFMhfKJXoB5_5lb_l78h2_proxy22authority_matches_host
FNDA:3,_RNvNtCsiFMhfKJXoB5_5lb_l78h2_proxy25validate_request_trailers
FNDA:0,_RNvNtCsiFMhfKJXoB5_5lb_l78h2_proxy26translate_h2_request_to_h2
FNDA:0,_RNvNtCsiFMhfKJXoB5_5lb_l78h2_proxy26upstream_h2_response_to_h2
FNDA:3,_RNvNtCsiFMhfKJXoB5_5lb_l78h2_proxy27build_h2_body_with_trailers
FNDA:12,_RNvNtCsiFMhfKJXoB5_5lb_l78h2_proxy30check_authority_host_agreement
FNDA:0,_RNvNtCsiFMhfKJXoB5_5lb_l78h2_proxy34collect_h2_request_to_h3_fieldlist
FNDA:0,_RNvNtCsiFMhfKJXoB5_5lb_l78h2_proxy41capture_request_trailers_rejecting_pseudo
FNDA:12,_RNvXs3_NtCsiFMhfKJXoB5_5lb_l78h2_proxyNtB5_12ProxyServiceINtNtNtCsgB3dp6qvXvn_5hyper7service7service7ServiceINtNtCsjFxw70quGA5_4http7request7RequestNtNtNtB10_4body8incoming8IncomingEE4call
FNDA:9,_RINvMs1_NtCsiFMhfKJXoB5_5lb_l78h2_proxyNtB6_7H2Proxy16serve_connectionINtNtCs7m3feRqGqA4_12tokio_rustls6server9TlsStreamNtNtNtNtCsfWKKmeeA0Vo_5tokio3net3tcp6stream9TcpStreamEECsjqGwtXRutxH_23h2h1_md_coverage_driver
FNDA:9,_RINvMs1_NtCsiFMhfKJXoB5_5lb_l78h2_proxyNtB6_7H2Proxy28serve_connection_with_cancelINtNtCs7m3feRqGqA4_12tokio_rustls6server9TlsStreamNtNtNtNtCsfWKKmeeA0Vo_5tokio3net3tcp6stream9TcpStreamEECsjqGwtXRutxH_23h2h1_md_coverage_driver
FNDA:9,_RINvMs1_NtCsiFMhfKJXoB5_5lb_l78h2_proxyNtB6_7H2Proxy32serve_connection_with_cancel_sniINtNtCs7m3feRqGqA4_12tokio_rustls6server9TlsStreamNtNtNtNtCsfWKKmeeA0Vo_5tokio3net3tcp6stream9TcpStreamEECsjqGwtXRutxH_23h2h1_md_coverage_driver
FNDA:9,_RNCINvMs1_NtCsiFMhfKJXoB5_5lb_l78h2_proxyNtB8_7H2Proxy16serve_connectionINtNtCs7m3feRqGqA4_12tokio_rustls6server9TlsStreamNtNtNtNtCsfWKKmeeA0Vo_5tokio3net3tcp6stream9TcpStreamEE0CsjqGwtXRutxH_23h2h1_md_coverage_driver
FNDA:9,_RNCINvMs1_NtCsiFMhfKJXoB5_5lb_l78h2_proxyNtB8_7H2Proxy28serve_connection_with_cancelINtNtCs7m3feRqGqA4_12tokio_rustls6server9TlsStreamNtNtNtNtCsfWKKmeeA0Vo_5tokio3net3tcp6stream9TcpStreamEE0CsjqGwtXRutxH_23h2h1_md_coverage_driver
FNDA:9,_RNCINvMs1_NtCsiFMhfKJXoB5_5lb_l78h2_proxyNtB8_7H2Proxy32serve_connection_with_cancel_sniINtNtCs7m3feRqGqA4_12tokio_rustls6server9TlsStreamNtNtNtNtCsfWKKmeeA0Vo_5tokio3net3tcp6stream9TcpStreamEE0CsjqGwtXRutxH_23h2h1_md_coverage_driver
FNDA:0,_RNCNCINvMs1_NtCsiFMhfKJXoB5_5lb_l78h2_proxyNtBa_7H2Proxy32serve_connection_with_cancel_sniINtNtCs7m3feRqGqA4_12tokio_rustls6server9TlsStreamNtNtNtNtCsfWKKmeeA0Vo_5tokio3net3tcp6stream9TcpStreamEE00CsjqGwtXRutxH_23h2h1_md_coverage_driver
FNDA:0,_RNCNCNCINvMs1_NtCsiFMhfKJXoB5_5lb_l78h2_proxyNtBc_7H2Proxy32serve_connection_with_cancel_sniINtNtCs7m3feRqGqA4_12tokio_rustls6server9TlsStreamNtNtNtNtCsfWKKmeeA0Vo_5tokio3net3tcp6stream9TcpStreamEE000CsjqGwtXRutxH_23h2h1_md_coverage_driver
FNDA:9,_RNvMNtCsiFMhfKJXoB5_5lb_l78h2_proxyINtB2_12CleanCloseIoINtNtCs7m3feRqGqA4_12tokio_rustls6server9TlsStreamNtNtNtNtCsfWKKmeeA0Vo_5tokio3net3tcp6stream9TcpStreamEE3newCsjqGwtXRutxH_23h2h1_md_coverage_driver
FNDA:73,_RNvXs0_NtCsiFMhfKJXoB5_5lb_l78h2_proxyINtB5_12CleanCloseIoINtNtCs7m3feRqGqA4_12tokio_rustls6server9TlsStreamNtNtNtNtCsfWKKmeeA0Vo_5tokio3net3tcp6stream9TcpStreamEENtNtNtB1Q_2io11async_write10AsyncWrite10poll_flushCsjqGwtXRutxH_23h2h1_md_coverage_driver
FNDA:45,_RNvXs0_NtCsiFMhfKJXoB5_5lb_l78h2_proxyINtB5_12CleanCloseIoINtNtCs7m3feRqGqA4_12tokio_rustls6server9TlsStreamNtNtNtNtCsfWKKmeeA0Vo_5tokio3net3tcp6stream9TcpStreamEENtNtNtB1Q_2io11async_write10AsyncWrite10poll_writeCsjqGwtXRutxH_23h2h1_md_coverage_driver
FNDA:12,_RNvXs0_NtCsiFMhfKJXoB5_5lb_l78h2_proxyINtB5_12CleanCloseIoINtNtCs7m3feRqGqA4_12tokio_rustls6server9TlsStreamNtNtNtNtCsfWKKmeeA0Vo_5tokio3net3tcp6stream9TcpStreamEENtNtNtB1Q_2io11async_write10AsyncWrite13poll_shutdownCsjqGwtXRutxH_23h2h1_md_coverage_driver
FNDA:248,_RNvXs_NtCsiFMhfKJXoB5_5lb_l78h2_proxyINtB4_12CleanCloseIoINtNtCs7m3feRqGqA4_12tokio_rustls6server9TlsStreamNtNtNtNtCsfWKKmeeA0Vo_5tokio3net3tcp6stream9TcpStreamEENtNtNtB1P_2io10async_read9AsyncRead9poll_readCsjqGwtXRutxH_23h2h1_md_coverage_driver
FNF:118
FNH:34
DA:270,12
DA:271,12
DA:272,12
DA:273,12
DA:274,12
DA:275,12
DA:276,12
DA:277,12
DA:278,12
DA:282,312
DA:283,312
DA:284,312
DA:285,312
DA:286,312
DA:287,312
DA:288,312
DA:292,54
DA:293,54
DA:294,54
DA:295,54
DA:296,54
DA:297,54
DA:298,54
DA:300,91
DA:301,91
DA:302,91
DA:304,12
DA:305,12
DA:306,12
DA:307,12
DA:308,12
DA:309,12
DA:310,12
DA:311,12
DA:312,12
DA:313,12
DA:314,12
DA:315,12
DA:316,4
DA:317,4
DA:318,4
DA:319,4
DA:320,8
DA:330,12
DA:331,12
DA:333,66
DA:334,0
DA:335,66
DA:336,66
DA:337,66
DA:338,0
DA:340,66
DA:341,66
DA:343,55
DA:344,55
DA:348,1
DA:349,54
DA:350,54
DA:354,3
DA:365,8
DA:366,8
DA:367,0
DA:368,8
DA:370,0
DA:375,4
DA:376,0
DA:377,4
DA:378,12
DA:391,0
DA:392,0
DA:393,0
DA:394,0
DA:395,0
DA:396,0
DA:397,0
DA:398,0
DA:399,0
DA:400,0
DA:401,0
DA:402,0
DA:403,0
DA:404,0
DA:405,0
DA:406,0
DA:413,12
DA:414,12
DA:415,12
DA:416,12
DA:417,12
DA:418,12
DA:419,12
DA:420,12
DA:421,12
DA:422,12
DA:423,12
DA:424,12
DA:425,12
DA:426,12
DA:427,12
DA:428,12
DA:429,12
DA:430,12
DA:431,12
DA:432,12
DA:433,12
DA:434,12
DA:435,12
DA:436,12
DA:437,12
DA:438,12
DA:439,12
DA:440,12
DA:441,12
DA:451,0
DA:452,0
DA:453,0
DA:454,0
DA:455,0
DA:456,0
DA:457,0
DA:458,0
DA:459,0
DA:460,0
DA:461,0
DA:462,0
DA:463,0
DA:464,0
DA:465,0
DA:466,0
DA:467,0
DA:468,0
DA:469,0
DA:470,0
DA:471,0
DA:472,0
DA:473,0
DA:474,0
DA:475,0
DA:476,0
DA:477,0
DA:478,0
DA:485,0
DA:486,0
DA:487,0
DA:488,0
DA:496,0
DA:497,0
DA:498,0
DA:499,0
DA:520,0
DA:521,0
DA:522,0
DA:523,0
DA:524,0
DA:525,0
DA:526,0
DA:528,0
DA:530,0
DA:531,0
DA:532,0
DA:541,0
DA:542,0
DA:543,0
DA:544,0
DA:552,0
DA:553,0
DA:554,0
DA:555,0
DA:556,0
DA:557,0
DA:558,0
DA:563,0
DA:564,0
DA:565,0
DA:566,0
DA:571,0
DA:572,0
DA:573,0
DA:574,0
DA:579,0
DA:580,0
DA:581,0
DA:586,0
DA:587,0
DA:588,0
DA:593,0
DA:594,0
DA:595,0
DA:596,0
DA:607,0
DA:608,0
DA:609,0
DA:610,0
DA:611,0
DA:625,12
DA:626,12
DA:627,12
DA:628,12
DA:629,12
DA:630,12
DA:631,12
DA:632,12
DA:633,12
DA:634,6
DA:654,12
DA:655,12
DA:656,12
DA:657,12
DA:658,12
DA:659,12
DA:660,12
DA:661,12
DA:662,12
DA:663,12
DA:664,12
DA:665,12
DA:666,12
DA:667,12
DA:668,6
DA:677,12
DA:678,12
DA:679,12
DA:680,12
DA:681,12
DA:682,12
DA:683,12
DA:684,12
DA:685,12
DA:686,12
DA:687,12
DA:688,12
DA:689,12
DA:690,12
DA:691,12
DA:692,12
DA:693,12
DA:694,12
DA:695,12
DA:696,12
DA:697,12
DA:698,12
DA:699,0
DA:700,0
DA:701,0
DA:702,0
DA:703,0
DA:704,0
DA:705,0
DA:706,0
DA:707,0
DA:708,0
DA:709,0
DA:710,0
DA:711,0
DA:712,0
DA:713,0
DA:714,0
DA:715,12
DA:716,12
DA:717,12
DA:718,12
DA:719,12
DA:720,12
DA:721,12
DA:722,12
DA:723,12
DA:724,12
DA:725,12
DA:726,12
DA:727,12
DA:728,12
DA:729,12
DA:730,12
DA:731,12
DA:732,12
DA:733,12
DA:734,12
DA:735,12
DA:736,12
DA:737,12
DA:738,12
DA:739,12
DA:740,12
DA:741,12
DA:742,12
DA:743,12
DA:744,12
DA:745,12
DA:746,12
DA:747,12
DA:748,12
DA:749,12
DA:750,12
DA:751,12
DA:752,12
DA:753,12
DA:754,12
DA:755,12
DA:759,12
DA:763,0
DA:764,0
DA:765,0
DA:766,0
DA:767,0
DA:768,0
DA:769,0
DA:770,0
DA:771,0
DA:772,0
DA:773,0
DA:776,12
DA:777,3
DA:778,3
DA:780,12
DA:781,0
DA:782,0
DA:783,0
DA:785,6
DA:809,0
DA:810,0
DA:811,0
DA:812,0
DA:813,0
DA:814,0
DA:815,0
DA:816,0
DA:817,0
DA:818,0
DA:819,0
DA:821,0
DA:823,0
DA:844,12
DA:845,12
DA:846,12
DA:847,12
DA:848,12
DA:849,12
DA:850,12
DA:851,12
DA:852,12
DA:864,12
DA:865,12
DA:866,12
DA:867,12
DA:868,12
DA:869,12
DA:870,12
DA:872,12
DA:873,12
DA:874,12
DA:875,12
DA:876,12
DA:877,12
DA:878,12
DA:879,12
DA:880,12
DA:881,12
DA:882,12
DA:883,12
DA:884,12
DA:885,12
DA:886,12
DA:887,12
DA:888,12
DA:889,12
DA:890,12
DA:891,12
DA:892,12
DA:893,12
DA:894,12
DA:896,12
DA:897,12
DA:898,12
DA:899,12
DA:900,12
DA:901,12
DA:902,12
DA:915,12
DA:916,0
DA:920,0
DA:924,0
DA:925,0
DA:926,0
DA:927,0
DA:928,12
DA:929,12
DA:930,12
DA:931,12
DA:932,12
DA:933,12
DA:934,12
DA:935,12
DA:936,12
DA:938,0
DA:939,12
DA:940,12
DA:941,12
DA:942,12
DA:943,12
DA:950,0
DA:951,0
DA:953,0
DA:954,0
DA:955,0
DA:956,0
DA:957,0
DA:958,0
DA:959,0
DA:960,12
DA:961,12
DA:962,12
DA:963,12
DA:964,12
DA:965,12
DA:966,12
DA:967,12
DA:968,12
DA:970,12
DA:971,12
DA:972,12
DA:973,14
DA:979,0
DA:980,0
DA:981,0
DA:982,0
DA:983,0
DA:984,0
DA:985,0
DA:986,12
DA:989,0
DA:990,0
DA:991,0
DA:992,0
DA:993,0
DA:994,0
DA:996,0
DA:998,0
DA:999,0
DA:1000,0
DA:1001,0
DA:1002,0
DA:1004,0
DA:1011,12
DA:1012,12
DA:1013,12
DA:1014,12
DA:1015,12
DA:1016,26
DA:1017,14
DA:1018,14
DA:1019,12
DA:1021,12
DA:1022,0
DA:1023,12
DA:1024,12
DA:1025,12
DA:1026,12
DA:1027,12
DA:1028,12
DA:1029,12
DA:1030,12
DA:1031,12
DA:1032,12
DA:1033,12
DA:1034,14
DA:1035,14
DA:1036,14
DA:1037,14
DA:1038,14
DA:1039,12
DA:1040,12
DA:1041,0
DA:1046,0
DA:1047,0
DA:1048,0
DA:1049,0
DA:1050,12
DA:1063,12
DA:1064,0
DA:1067,0
DA:1068,0
DA:1069,0
DA:1070,0
DA:1071,12
DA:1072,12
DA:1073,12
DA:1074,12
DA:1075,12
DA:1076,12
DA:1077,12
DA:1078,12
DA:1079,12
DA:1080,12
DA:1081,12
DA:1082,12
DA:1083,12
DA:1084,12
DA:1085,0
DA:1086,0
DA:1087,0
DA:1088,0
DA:1089,0
DA:1090,0
DA:1091,0
DA:1092,0
DA:1093,0
DA:1094,0
DA:1095,0
DA:1096,0
DA:1097,0
DA:1099,0
DA:1103,0
DA:1107,0
DA:1108,0
DA:1109,0
DA:1110,0
DA:1111,0
DA:1112,0
DA:1113,12
DA:1117,12
DA:1118,0
DA:1119,0
DA:1120,0
DA:1121,0
DA:1122,0
DA:1123,0
DA:1124,0
DA:1125,0
DA:1126,0
DA:1127,0
DA:1128,0
DA:1129,0
DA:1130,0
DA:1131,0
DA:1132,0
DA:1133,0
DA:1134,0
DA:1135,12
DA:1136,12
DA:1137,12
DA:1138,12
DA:1139,12
DA:1140,12
DA:1141,12
DA:1142,12
DA:1143,12
DA:1144,12
DA:1145,0
DA:1146,0
DA:1147,0
DA:1148,0
DA:1149,0
DA:1150,12
DA:1151,12
DA:1152,12
DA:1153,12
DA:1154,12
DA:1155,12
DA:1156,12
DA:1157,12
DA:1158,12
DA:1159,12
DA:1160,12
DA:1161,12
DA:1162,12
DA:1163,12
DA:1164,12
DA:1165,12
DA:1166,12
DA:1167,12
DA:1168,12
DA:1169,0
DA:1170,0
DA:1171,12
DA:1174,12
DA:1175,0
DA:1178,12
DA:1179,12
DA:1180,3
DA:1181,0
DA:1183,0
DA:1187,4
DA:1188,4
DA:1189,4
DA:1190,4
DA:1195,5
DA:1197,0
DA:1198,0
DA:1202,12
DA:1203,0
DA:1204,12
DA:1205,12
DA:1206,12
DA:1215,0
DA:1216,0
DA:1217,0
DA:1218,0
DA:1219,0
DA:1220,0
DA:1222,0
DA:1223,0
DA:1225,0
DA:1226,0
DA:1227,0
DA:1228,0
DA:1229,0
DA:1230,0
DA:1231,0
DA:1232,0
DA:1233,0
DA:1234,0
DA:1235,0
DA:1236,0
DA:1237,0
DA:1238,0
DA:1239,0
DA:1240,0
DA:1241,0
DA:1242,0
DA:1243,0
DA:1244,0
DA:1245,0
DA:1246,0
DA:1255,0
DA:1256,0
DA:1257,0
DA:1258,0
DA:1259,0
DA:1262,0
DA:1263,0
DA:1264,0
DA:1267,0
DA:1268,0
DA:1269,0
DA:1270,0
DA:1271,0
DA:1274,0
DA:1275,0
DA:1276,0
DA:1277,0
DA:1278,0
DA:1279,0
DA:1280,0
DA:1282,0
DA:1283,0
DA:1284,0
DA:1285,0
DA:1289,0
DA:1290,0
DA:1291,0
DA:1292,0
DA:1293,0
DA:1294,0
DA:1295,0
DA:1296,0
DA:1297,0
DA:1298,0
DA:1299,0
DA:1300,0
DA:1301,0
DA:1302,0
DA:1303,0
DA:1304,0
DA:1306,12
DA:1307,12
DA:1308,12
DA:1309,12
DA:1310,12
DA:1311,12
DA:1312,12
DA:1343,12
DA:1344,12
DA:1345,12
DA:1346,12
DA:1347,12
DA:1348,12
DA:1349,12
DA:1356,66
DA:1357,66
DA:1358,66
DA:1359,66
DA:1360,66
DA:1361,66
DA:1362,4
DA:1363,62
DA:1364,62
DA:1365,62
DA:1367,3
DA:1368,3
DA:1370,54
DA:1371,54
DA:1375,54
DA:1376,54
DA:1377,0
DA:1378,54
DA:1379,0
DA:1380,54
DA:1381,54
DA:1382,54
DA:1383,54
DA:1386,0
DA:1387,0
DA:1388,0
DA:1389,0
DA:1391,5
DA:1392,5
DA:1393,5
DA:1394,5
DA:1395,5
DA:1396,5
DA:1397,5
DA:1398,5
DA:1399,5
DA:1404,7
DA:1410,3
DA:1412,3
DA:1413,3
DA:1414,0
DA:1415,3
DA:1416,3
DA:1417,3
DA:1418,3
DA:1419,3
DA:1420,3
DA:1421,3
DA:1422,3
DA:1423,3
DA:1424,3
DA:1425,3
DA:1426,3
DA:1427,3
DA:1428,3
DA:1429,3
DA:1430,3
DA:1431,3
DA:1432,3
DA:1433,3
DA:1434,3
DA:1435,3
DA:1436,0
DA:1437,0
DA:1438,0
DA:1441,0
DA:1442,0
DA:1445,3
DA:1446,3
DA:1447,4
DA:1451,4
DA:1452,4
DA:1453,4
DA:1454,4
DA:1455,4
DA:1456,4
DA:1457,4
DA:1458,4
DA:1459,4
DA:1460,4
DA:1461,4
DA:1462,4
DA:1463,4
DA:1464,4
DA:1465,4
DA:1466,4
DA:1467,4
DA:1468,4
DA:1469,4
DA:1470,4
DA:1471,4
DA:1472,4
DA:1473,4
DA:1474,4
DA:1475,4
DA:1476,4
DA:1477,4
DA:1478,4
DA:1479,0
DA:1480,4
DA:1481,4
DA:1482,4
DA:1483,4
DA:1484,4
DA:1485,4
DA:1486,4
DA:1487,4
DA:1488,4
DA:1489,4
DA:1490,4
DA:1491,4
DA:1492,4
DA:1493,4
DA:1494,4
DA:1495,4
DA:1496,4
DA:1497,4
DA:1498,4
DA:1499,4
DA:1500,4
DA:1501,4
DA:1502,4
DA:1527,20
DA:1528,20
DA:1538,4
DA:1539,4
DA:1540,16
DA:1544,0
DA:1546,0
DA:1547,0
DA:1549,0
DA:1550,0
DA:1553,0
DA:1555,0
DA:1556,0
DA:1557,0
DA:1559,0
DA:1560,0
DA:1561,0
DA:1564,0
DA:1565,0
DA:1566,0
DA:1567,0
DA:1573,0
DA:1574,0
DA:1575,0
DA:1576,0
DA:1579,0
DA:1580,0
DA:1581,0
DA:1582,0
DA:1584,0
DA:1585,0
DA:1586,0
DA:1587,0
DA:1588,0
DA:1589,0
DA:1590,0
DA:1591,0
DA:1592,0
DA:1593,0
DA:1597,4
DA:1598,4
DA:1599,4
DA:1600,4
DA:1601,4
DA:1602,4
DA:1603,4
DA:1604,4
DA:1605,0
DA:1606,0
DA:1607,0
DA:1608,0
DA:1611,0
DA:1612,0
DA:1613,0
DA:1619,4
DA:1621,0
DA:1622,0
DA:1624,4
DA:1625,4
DA:1626,4
DA:1627,4
DA:1628,4
DA:1633,0
DA:1634,0
DA:1635,0
DA:1636,0
DA:1639,12
DA:1641,3
DA:1642,3
DA:1643,3
DA:1644,3
DA:1645,3
DA:1646,3
DA:1647,3
DA:1648,0
DA:1649,0
DA:1650,0
DA:1651,3
DA:1652,3
DA:1653,3
DA:1656,0
DA:1657,0
DA:1658,0
DA:1659,0
DA:1660,0
DA:1661,0
DA:1662,0
DA:1663,0
DA:1664,0
DA:1665,0
DA:1667,0
DA:1668,0
DA:1669,0
DA:1671,0
DA:1672,0
DA:1674,0
DA:1676,0
DA:1678,0
DA:1681,0
DA:1682,0
DA:1683,0
DA:1684,0
DA:1685,0
DA:1686,0
DA:1687,0
DA:1688,0
DA:1689,0
DA:1690,0
DA:1692,0
DA:1693,0
DA:1694,0
DA:1695,0
DA:1696,0
DA:1698,0
DA:1699,0
DA:1700,0
DA:1701,0
DA:1702,0
DA:1703,0
DA:1704,0
DA:1705,0
DA:1706,0
DA:1707,0
DA:1708,0
DA:1721,0
DA:1722,0
DA:1723,0
DA:1724,0
DA:1726,0
DA:1727,0
DA:1728,0
DA:1729,0
DA:1730,0
DA:1731,0
DA:1735,0
DA:1736,0
DA:1737,0
DA:1738,0
DA:1739,0
DA:1740,0
DA:1741,0
DA:1742,0
DA:1743,0
DA:1744,0
DA:1745,0
DA:1746,0
DA:1747,0
DA:1748,0
DA:1749,0
DA:1750,0
DA:1751,0
DA:1752,0
DA:1753,0
DA:1754,0
DA:1755,0
DA:1756,0
DA:1757,0
DA:1758,0
DA:1759,0
DA:1760,0
DA:1761,0
DA:1762,0
DA:1763,0
DA:1764,0
DA:1765,0
DA:1766,0
DA:1767,0
DA:1768,0
DA:1769,0
DA:1770,0
DA:1771,0
DA:1772,0
DA:1773,0
DA:1774,0
DA:1775,0
DA:1776,0
DA:1777,0
DA:1778,0
DA:1779,0
DA:1780,0
DA:1781,0
DA:1782,0
DA:1783,0
DA:1784,0
DA:1785,0
DA:1786,0
DA:1787,0
DA:1789,0
DA:1790,0
DA:1791,0
DA:1793,0
DA:1794,0
DA:1795,0
DA:1796,0
DA:1797,0
DA:1798,0
DA:1799,0
DA:1800,0
DA:1801,0
DA:1802,0
DA:1803,0
DA:1804,0
DA:1805,0
DA:1806,0
DA:1807,0
DA:1808,0
DA:1813,0
DA:1814,0
DA:1815,0
DA:1816,0
DA:1817,0
DA:1818,0
DA:1829,0
DA:1830,0
DA:1831,0
DA:1832,0
DA:1833,0
DA:1834,0
DA:1835,0
DA:1836,0
DA:1837,0
DA:1838,0
DA:1839,0
DA:1840,0
DA:1842,0
DA:1843,0
DA:1844,0
DA:1854,3
DA:1855,3
DA:1856,3
DA:1857,3
DA:1858,3
DA:1859,0
DA:1860,0
DA:1861,0
DA:1862,0
DA:1863,0
DA:1864,0
DA:1865,0
DA:1866,0
DA:1867,0
DA:1869,3
DA:1870,3
DA:1871,3
DA:1876,3
DA:1877,3
DA:1878,1
DA:1879,2
DA:1880,2
DA:1881,10
DA:1882,8
DA:1883,8
DA:1884,2
DA:1885,3
DA:1887,3
DA:1888,3
DA:1889,3
DA:1890,3
DA:1895,3
DA:1896,3
DA:1897,3
DA:1898,3
DA:1899,0
DA:1900,0
DA:1901,0
DA:1902,0
DA:1903,0
DA:1904,0
DA:1905,0
DA:1906,0
DA:1907,0
DA:1909,0
DA:1910,0
DA:1912,0
DA:1914,0
DA:1915,3
DA:1919,0
DA:1920,0
DA:1921,0
DA:1922,0
DA:1923,0
DA:1925,0
DA:1926,0
DA:1927,0
DA:1928,0
DA:1931,0
DA:1932,0
DA:1933,0
DA:1934,0
DA:1935,0
DA:1936,0
DA:1937,0
DA:1938,0
DA:1939,0
DA:1940,0
DA:1941,0
DA:1942,0
DA:1943,0
DA:1944,0
DA:1945,0
DA:1946,0
DA:1947,0
DA:1948,0
DA:1949,0
DA:1950,0
DA:1951,0
DA:1952,0
DA:1953,0
DA:1954,0
DA:1955,0
DA:1956,0
DA:1957,0
DA:1958,0
DA:1959,0
DA:1960,0
DA:1961,0
DA:1962,0
DA:1963,0
DA:1964,0
DA:1965,0
DA:1966,0
DA:1969,0
DA:1970,0
DA:1971,0
DA:1972,0
DA:1973,0
DA:1974,0
DA:1975,0
DA:1977,0
DA:1978,0
DA:1979,0
DA:1980,0
DA:1981,0
DA:1983,0
DA:1984,0
DA:1985,0
DA:1986,0
DA:1987,0
DA:1988,0
DA:1989,0
DA:1990,0
DA:2000,0
DA:2001,0
DA:2002,0
DA:2003,0
DA:2004,0
DA:2006,0
DA:2007,0
DA:2008,0
DA:2009,0
DA:2010,0
DA:2011,0
DA:2015,0
DA:2016,0
DA:2017,0
DA:2018,0
DA:2019,0
DA:2020,0
DA:2021,0
DA:2022,0
DA:2023,0
DA:2024,0
DA:2025,0
DA:2026,0
DA:2027,0
DA:2028,0
DA:2029,0
DA:2030,0
DA:2031,0
DA:2032,0
DA:2033,0
DA:2034,0
DA:2035,0
DA:2036,0
DA:2037,0
DA:2038,0
DA:2039,0
DA:2040,0
DA:2041,0
DA:2042,0
DA:2043,0
DA:2044,0
DA:2045,0
DA:2046,0
DA:2047,0
DA:2048,0
DA:2049,0
DA:2050,0
DA:2051,0
DA:2052,0
DA:2053,0
DA:2054,0
DA:2055,0
DA:2056,0
DA:2057,0
DA:2058,0
DA:2059,0
DA:2060,0
DA:2061,0
DA:2062,0
DA:2063,0
DA:2064,0
DA:2065,0
DA:2066,0
DA:2067,0
DA:2068,0
DA:2069,0
DA:2070,0
DA:2071,0
DA:2075,0
DA:2076,0
DA:2077,0
DA:2078,0
DA:2079,0
DA:2080,0
DA:2081,0
DA:2082,0
DA:2083,0
DA:2084,0
DA:2085,0
DA:2086,0
DA:2087,0
DA:2088,0
DA:2089,0
DA:2090,0
DA:2091,0
DA:2092,0
DA:2093,0
DA:2094,0
DA:2095,0
DA:2096,0
DA:2097,0
DA:2100,0
DA:2101,0
DA:2102,0
DA:2103,0
DA:2104,0
DA:2105,0
DA:2106,0
DA:2108,0
DA:2109,0
DA:2110,0
DA:2111,0
DA:2112,0
DA:2115,0
DA:2116,0
DA:2117,0
DA:2118,0
DA:2119,0
DA:2120,0
DA:2121,0
DA:2122,0
DA:2142,9
DA:2143,9
DA:2144,9
DA:2145,9
DA:2146,9
DA:2147,9
DA:2148,9
DA:2149,9
DA:2166,12
DA:2167,12
DA:2168,12
DA:2169,12
DA:2170,12
DA:2171,12
DA:2172,12
DA:2173,12
DA:2174,12
DA:2175,0
DA:2176,0
DA:2177,0
DA:2179,0
DA:2182,12
DA:2184,12
DA:2197,0
DA:2198,0
DA:2199,0
DA:2200,0
DA:2201,0
DA:2202,0
DA:2203,0
DA:2204,0
DA:2205,0
DA:2206,0
DA:2207,0
DA:2209,0
DA:2211,0
DA:2218,0
DA:2219,0
DA:2221,0
DA:2222,0
DA:2223,0
DA:2224,0
DA:2225,0
DA:2226,0
DA:2227,0
DA:2228,0
DA:2229,0
DA:2230,0
DA:2231,0
DA:2233,0
DA:2254,106
DA:2256,106
DA:2257,106
DA:2258,11
DA:2259,11
DA:2260,11
DA:2261,11
DA:2262,11
DA:2263,11
DA:2264,11
DA:2265,0
DA:2268,106
BRF:0
BRH:0
LF:1411
LH:579
end_of_record
SF:/home/ubuntu/Code/s8-verifier/crates/lb-l7/src/h2_security.rs
FN:111,_RINvMs_NtCsiFMhfKJXoB5_5lb_l711h2_securityNtB5_20H2SecurityThresholds5applyNtNtNtCs86YdmMopYMP_10hyper_util2rt5tokio13TokioExecutorECs2gn4DoUa6Db_28h2_validation_before_forward
FN:111,_RINvMs_NtCsiFMhfKJXoB5_5lb_l711h2_securityNtB5_20H2SecurityThresholds5applypEB7_
FN:104,_RNvMs_NtCsiFMhfKJXoB5_5lb_l711h2_securityNtB4_20H2SecurityThresholds22from_detector_defaults
FN:73,_RNvXNtCsiFMhfKJXoB5_5lb_l711h2_securityNtB2_20H2SecurityThresholdsNtNtCs2va5m0jqTTM_4core7default7Default7default
FN:111,_RINvMs_NtCsiFMhfKJXoB5_5lb_l711h2_securityNtB5_20H2SecurityThresholds5applyNtNtNtCs86YdmMopYMP_10hyper_util2rt5tokio13TokioExecutorECsjqGwtXRutxH_23h2h1_md_coverage_driver
FNDA:3,_RINvMs_NtCsiFMhfKJXoB5_5lb_l711h2_securityNtB5_20H2SecurityThresholds5applyNtNtNtCs86YdmMopYMP_10hyper_util2rt5tokio13TokioExecutorECs2gn4DoUa6Db_28h2_validation_before_forward
FNDA:0,_RINvMs_NtCsiFMhfKJXoB5_5lb_l711h2_securityNtB5_20H2SecurityThresholds5applypEB7_
FNDA:0,_RNvMs_NtCsiFMhfKJXoB5_5lb_l711h2_securityNtB4_20H2SecurityThresholds22from_detector_defaults
FNDA:12,_RNvXNtCsiFMhfKJXoB5_5lb_l711h2_securityNtB2_20H2SecurityThresholdsNtNtCs2va5m0jqTTM_4core7default7Default7default
FNDA:9,_RINvMs_NtCsiFMhfKJXoB5_5lb_l711h2_securityNtB5_20H2SecurityThresholds5applyNtNtNtCs86YdmMopYMP_10hyper_util2rt5tokio13TokioExecutorECsjqGwtXRutxH_23h2h1_md_coverage_driver
FNF:3
FNH:2
DA:73,12
DA:74,12
DA:75,12
DA:76,12
DA:77,12
DA:78,12
DA:79,12
DA:80,12
DA:81,12
DA:82,12
DA:83,12
DA:84,12
DA:85,12
DA:86,12
DA:87,12
DA:88,12
DA:89,12
DA:90,12
DA:91,12
DA:92,12
DA:93,12
DA:94,12
DA:95,12
DA:96,12
DA:104,0
DA:105,0
DA:106,0
DA:111,12
DA:112,12
DA:113,12
DA:114,12
DA:115,12
DA:116,12
DA:117,12
DA:118,12
DA:119,12
DA:120,12
DA:121,12
DA:122,12
BRF:0
BRH:0
LF:39
LH:36
end_of_record
SF:/home/ubuntu/Code/s8-verifier/crates/lb-l7/src/h2_to_h1.rs
FN:139,_RNCNCNvXNtCsiFMhfKJXoB5_5lb_l78h2_to_h1NtB6_12H2ToH1BridgeNtB8_6Bridge15bridge_response00B8_
FN:195,_RNCNvNtCsiFMhfKJXoB5_5lb_l78h2_to_h115split_host_port0B5_
FN:200,_RNCNvNtCsiFMhfKJXoB5_5lb_l78h2_to_h115split_host_ports_0B5_
FN:79,_RNCNvXNtCsiFMhfKJXoB5_5lb_l78h2_to_h1NtB4_12H2ToH1BridgeNtB6_6Bridge14bridge_request0B6_
FN:86,_RNCNvXNtCsiFMhfKJXoB5_5lb_l78h2_to_h1NtB4_12H2ToH1BridgeNtB6_6Bridge14bridge_requests0_0B6_
FN:101,_RNCNvXNtCsiFMhfKJXoB5_5lb_l78h2_to_h1NtB4_12H2ToH1BridgeNtB6_6Bridge14bridge_requests1_0B6_
FN:85,_RNCNvXNtCsiFMhfKJXoB5_5lb_l78h2_to_h1NtB4_12H2ToH1BridgeNtB6_6Bridge14bridge_requests_0B6_
FN:134,_RNCNvXNtCsiFMhfKJXoB5_5lb_l78h2_to_h1NtB4_12H2ToH1BridgeNtB6_6Bridge15bridge_response0B6_
FN:141,_RNCNvXNtCsiFMhfKJXoB5_5lb_l78h2_to_h1NtB4_12H2ToH1BridgeNtB6_6Bridge15bridge_responses_0B6_
FN:189,_RNvNtCsiFMhfKJXoB5_5lb_l78h2_to_h115split_host_port
FN:170,_RNvNtCsiFMhfKJXoB5_5lb_l78h2_to_h131authority_host_components_agree
FN:159,_RNvXNtCsiFMhfKJXoB5_5lb_l78h2_to_h1NtB2_12H2ToH1BridgeNtB4_6Bridge13dest_protocol
FN:39,_RNvXNtCsiFMhfKJXoB5_5lb_l78h2_to_h1NtB2_12H2ToH1BridgeNtB4_6Bridge14bridge_request
FN:128,_RNvXNtCsiFMhfKJXoB5_5lb_l78h2_to_h1NtB2_12H2ToH1BridgeNtB4_6Bridge15bridge_response
FN:155,_RNvXNtCsiFMhfKJXoB5_5lb_l78h2_to_h1NtB2_12H2ToH1BridgeNtB4_6Bridge15source_protocol
FNDA:0,_RNCNCNvXNtCsiFMhfKJXoB5_5lb_l78h2_to_h1NtB6_12H2ToH1BridgeNtB8_6Bridge15bridge_response00B8_
FNDA:0,_RNCNvNtCsiFMhfKJXoB5_5lb_l78h2_to_h115split_host_port0B5_
FNDA:0,_RNCNvNtCsiFMhfKJXoB5_5lb_l78h2_to_h115split_host_ports_0B5_
FNDA:0,_RNCNvXNtCsiFMhfKJXoB5_5lb_l78h2_to_h1NtB4_12H2ToH1BridgeNtB6_6Bridge14bridge_request0B6_
FNDA:0,_RNCNvXNtCsiFMhfKJXoB5_5lb_l78h2_to_h1NtB4_12H2ToH1BridgeNtB6_6Bridge14bridge_requests0_0B6_
FNDA:0,_RNCNvXNtCsiFMhfKJXoB5_5lb_l78h2_to_h1NtB4_12H2ToH1BridgeNtB6_6Bridge14bridge_requests1_0B6_
FNDA:0,_RNCNvXNtCsiFMhfKJXoB5_5lb_l78h2_to_h1NtB4_12H2ToH1BridgeNtB6_6Bridge14bridge_requests_0B6_
FNDA:0,_RNCNvXNtCsiFMhfKJXoB5_5lb_l78h2_to_h1NtB4_12H2ToH1BridgeNtB6_6Bridge15bridge_response0B6_
FNDA:0,_RNCNvXNtCsiFMhfKJXoB5_5lb_l78h2_to_h1NtB4_12H2ToH1BridgeNtB6_6Bridge15bridge_responses_0B6_
FNDA:0,_RNvNtCsiFMhfKJXoB5_5lb_l78h2_to_h115split_host_port
FNDA:0,_RNvNtCsiFMhfKJXoB5_5lb_l78h2_to_h131authority_host_components_agree
FNDA:0,_RNvXNtCsiFMhfKJXoB5_5lb_l78h2_to_h1NtB2_12H2ToH1BridgeNtB4_6Bridge13dest_protocol
FNDA:0,_RNvXNtCsiFMhfKJXoB5_5lb_l78h2_to_h1NtB2_12H2ToH1BridgeNtB4_6Bridge14bridge_request
FNDA:0,_RNvXNtCsiFMhfKJXoB5_5lb_l78h2_to_h1NtB2_12H2ToH1BridgeNtB4_6Bridge15bridge_response
FNDA:0,_RNvXNtCsiFMhfKJXoB5_5lb_l78h2_to_h1NtB2_12H2ToH1BridgeNtB4_6Bridge15source_protocol
FNF:15
FNH:0
DA:39,0
DA:40,0
DA:42,0
DA:43,0
DA:44,0
DA:45,0
DA:48,0
DA:49,0
DA:50,0
DA:51,0
DA:52,0
DA:53,0
DA:54,0
DA:55,0
DA:56,0
DA:57,0
DA:58,0
DA:59,0
DA:78,0
DA:79,0
DA:84,0
DA:85,0
DA:86,0
DA:98,0
DA:99,0
DA:100,0
DA:101,0
DA:103,0
DA:104,0
DA:105,0
DA:106,0
DA:107,0
DA:108,0
DA:109,0
DA:110,0
DA:111,0
DA:113,0
DA:114,0
DA:115,0
DA:117,0
DA:118,0
DA:119,0
DA:120,0
DA:121,0
DA:122,0
DA:123,0
DA:124,0
DA:125,0
DA:126,0
DA:128,0
DA:129,0
DA:131,0
DA:132,0
DA:133,0
DA:134,0
DA:135,0
DA:136,0
DA:137,0
DA:138,0
DA:139,0
DA:140,0
DA:141,0
DA:142,0
DA:143,0
DA:144,0
DA:146,0
DA:147,0
DA:148,0
DA:149,0
DA:150,0
DA:151,0
DA:152,0
DA:153,0
DA:155,0
DA:156,0
DA:157,0
DA:159,0
DA:160,0
DA:161,0
DA:170,0
DA:171,0
DA:172,0
DA:173,0
DA:174,0
DA:175,0
DA:176,0
DA:177,0
DA:178,0
DA:179,0
DA:180,0
DA:181,0
DA:183,0
DA:189,0
DA:190,0
DA:191,0
DA:192,0
DA:193,0
DA:194,0
DA:195,0
DA:196,0
DA:197,0
DA:198,0
DA:199,0
DA:200,0
DA:201,0
DA:203,0
BRF:0
BRH:0
LF:116
LH:0
end_of_record
SF:/home/ubuntu/Code/s8-verifier/crates/lb-l7/src/h2_to_h2.rs
FN:18,_RNCNvXNtCsiFMhfKJXoB5_5lb_l78h2_to_h2NtB4_12H2ToH2BridgeNtB6_6Bridge14bridge_request0B6_
FN:44,_RNCNvXNtCsiFMhfKJXoB5_5lb_l78h2_to_h2NtB4_12H2ToH2BridgeNtB6_6Bridge15bridge_response0B6_
FN:60,_RNvXNtCsiFMhfKJXoB5_5lb_l78h2_to_h2NtB2_12H2ToH2BridgeNtB4_6Bridge13dest_protocol
FN:12,_RNvXNtCsiFMhfKJXoB5_5lb_l78h2_to_h2NtB2_12H2ToH2BridgeNtB4_6Bridge14bridge_request
FN:38,_RNvXNtCsiFMhfKJXoB5_5lb_l78h2_to_h2NtB2_12H2ToH2BridgeNtB4_6Bridge15bridge_response
FN:56,_RNvXNtCsiFMhfKJXoB5_5lb_l78h2_to_h2NtB2_12H2ToH2BridgeNtB4_6Bridge15source_protocol
FNDA:0,_RNCNvXNtCsiFMhfKJXoB5_5lb_l78h2_to_h2NtB4_12H2ToH2BridgeNtB6_6Bridge14bridge_request0B6_
FNDA:0,_RNCNvXNtCsiFMhfKJXoB5_5lb_l78h2_to_h2NtB4_12H2ToH2BridgeNtB6_6Bridge15bridge_response0B6_
FNDA:0,_RNvXNtCsiFMhfKJXoB5_5lb_l78h2_to_h2NtB2_12H2ToH2BridgeNtB4_6Bridge13dest_protocol
FNDA:0,_RNvXNtCsiFMhfKJXoB5_5lb_l78h2_to_h2NtB2_12H2ToH2BridgeNtB4_6Bridge14bridge_request
FNDA:0,_RNvXNtCsiFMhfKJXoB5_5lb_l78h2_to_h2NtB2_12H2ToH2BridgeNtB4_6Bridge15bridge_response
FNDA:0,_RNvXNtCsiFMhfKJXoB5_5lb_l78h2_to_h2NtB2_12H2ToH2BridgeNtB4_6Bridge15source_protocol
FNF:6
FNH:0
DA:12,0
DA:13,0
DA:15,0
DA:16,0
DA:17,0
DA:18,0
DA:19,0
DA:20,0
DA:22,0
DA:24,0
DA:25,0
DA:26,0
DA:27,0
DA:28,0
DA:29,0
DA:30,0
DA:31,0
DA:32,0
DA:33,0
DA:34,0
DA:35,0
DA:36,0
DA:38,0
DA:39,0
DA:41,0
DA:42,0
DA:43,0
DA:44,0
DA:45,0
DA:46,0
DA:47,0
DA:48,0
DA:49,0
DA:50,0
DA:51,0
DA:52,0
DA:53,0
DA:54,0
DA:56,0
DA:57,0
DA:58,0
DA:60,0
DA:61,0
DA:62,0
BRF:0
BRH:0
LF:47
LH:0
end_of_record
SF:/home/ubuntu/Code/s8-verifier/crates/lb-l7/src/h2_to_h3.rs
FN:18,_RNCNvXNtCsiFMhfKJXoB5_5lb_l78h2_to_h3NtB4_12H2ToH3BridgeNtB6_6Bridge14bridge_request0B6_
FN:44,_RNCNvXNtCsiFMhfKJXoB5_5lb_l78h2_to_h3NtB4_12H2ToH3BridgeNtB6_6Bridge15bridge_response0B6_
FN:60,_RNvXNtCsiFMhfKJXoB5_5lb_l78h2_to_h3NtB2_12H2ToH3BridgeNtB4_6Bridge13dest_protocol
FN:12,_RNvXNtCsiFMhfKJXoB5_5lb_l78h2_to_h3NtB2_12H2ToH3BridgeNtB4_6Bridge14bridge_request
FN:38,_RNvXNtCsiFMhfKJXoB5_5lb_l78h2_to_h3NtB2_12H2ToH3BridgeNtB4_6Bridge15bridge_response
FN:56,_RNvXNtCsiFMhfKJXoB5_5lb_l78h2_to_h3NtB2_12H2ToH3BridgeNtB4_6Bridge15source_protocol
FNDA:0,_RNCNvXNtCsiFMhfKJXoB5_5lb_l78h2_to_h3NtB4_12H2ToH3BridgeNtB6_6Bridge14bridge_request0B6_
FNDA:0,_RNCNvXNtCsiFMhfKJXoB5_5lb_l78h2_to_h3NtB4_12H2ToH3BridgeNtB6_6Bridge15bridge_response0B6_
FNDA:0,_RNvXNtCsiFMhfKJXoB5_5lb_l78h2_to_h3NtB2_12H2ToH3BridgeNtB4_6Bridge13dest_protocol
FNDA:0,_RNvXNtCsiFMhfKJXoB5_5lb_l78h2_to_h3NtB2_12H2ToH3BridgeNtB4_6Bridge14bridge_request
FNDA:0,_RNvXNtCsiFMhfKJXoB5_5lb_l78h2_to_h3NtB2_12H2ToH3BridgeNtB4_6Bridge15bridge_response
FNDA:0,_RNvXNtCsiFMhfKJXoB5_5lb_l78h2_to_h3NtB2_12H2ToH3BridgeNtB4_6Bridge15source_protocol
FNF:6
FNH:0
DA:12,0
DA:13,0
DA:15,0
DA:16,0
DA:17,0
DA:18,0
DA:19,0
DA:20,0
DA:22,0
DA:24,0
DA:25,0
DA:26,0
DA:27,0
DA:28,0
DA:29,0
DA:30,0
DA:31,0
DA:32,0
DA:33,0
DA:34,0
DA:35,0
DA:36,0
DA:38,0
DA:39,0
DA:41,0
DA:42,0
DA:43,0
DA:44,0
DA:45,0
DA:46,0
DA:47,0
DA:48,0
DA:49,0
DA:50,0
DA:51,0
DA:52,0
DA:53,0
DA:54,0
DA:56,0
DA:57,0
DA:58,0
DA:60,0
DA:61,0
DA:62,0
BRF:0
BRH:0
LF:47
LH:0
end_of_record
SF:/home/ubuntu/Code/s8-verifier/crates/lb-l7/src/h3_to_h1.rs
FN:81,_RNCNCNvXNtCsiFMhfKJXoB5_5lb_l78h3_to_h1NtB6_12H3ToH1BridgeNtB8_6Bridge15bridge_response00B8_
FN:53,_RNCNvXNtCsiFMhfKJXoB5_5lb_l78h3_to_h1NtB4_12H3ToH1BridgeNtB6_6Bridge14bridge_request0B6_
FN:54,_RNCNvXNtCsiFMhfKJXoB5_5lb_l78h3_to_h1NtB4_12H3ToH1BridgeNtB6_6Bridge14bridge_requests_0B6_
FN:76,_RNCNvXNtCsiFMhfKJXoB5_5lb_l78h3_to_h1NtB4_12H3ToH1BridgeNtB6_6Bridge15bridge_response0B6_
FN:83,_RNCNvXNtCsiFMhfKJXoB5_5lb_l78h3_to_h1NtB4_12H3ToH1BridgeNtB6_6Bridge15bridge_responses_0B6_
FN:101,_RNvXNtCsiFMhfKJXoB5_5lb_l78h3_to_h1NtB2_12H3ToH1BridgeNtB4_6Bridge13dest_protocol
FN:25,_RNvXNtCsiFMhfKJXoB5_5lb_l78h3_to_h1NtB2_12H3ToH1BridgeNtB4_6Bridge14bridge_request
FN:70,_RNvXNtCsiFMhfKJXoB5_5lb_l78h3_to_h1NtB2_12H3ToH1BridgeNtB4_6Bridge15bridge_response
FN:97,_RNvXNtCsiFMhfKJXoB5_5lb_l78h3_to_h1NtB2_12H3ToH1BridgeNtB4_6Bridge15source_protocol
FNDA:0,_RNCNCNvXNtCsiFMhfKJXoB5_5lb_l78h3_to_h1NtB6_12H3ToH1BridgeNtB8_6Bridge15bridge_response00B8_
FNDA:0,_RNCNvXNtCsiFMhfKJXoB5_5lb_l78h3_to_h1NtB4_12H3ToH1BridgeNtB6_6Bridge14bridge_request0B6_
FNDA:0,_RNCNvXNtCsiFMhfKJXoB5_5lb_l78h3_to_h1NtB4_12H3ToH1BridgeNtB6_6Bridge14bridge_requests_0B6_
FNDA:0,_RNCNvXNtCsiFMhfKJXoB5_5lb_l78h3_to_h1NtB4_12H3ToH1BridgeNtB6_6Bridge15bridge_response0B6_
FNDA:0,_RNCNvXNtCsiFMhfKJXoB5_5lb_l78h3_to_h1NtB4_12H3ToH1BridgeNtB6_6Bridge15bridge_responses_0B6_
FNDA:0,_RNvXNtCsiFMhfKJXoB5_5lb_l78h3_to_h1NtB2_12H3ToH1BridgeNtB4_6Bridge13dest_protocol
FNDA:0,_RNvXNtCsiFMhfKJXoB5_5lb_l78h3_to_h1NtB2_12H3ToH1BridgeNtB4_6Bridge14bridge_request
FNDA:0,_RNvXNtCsiFMhfKJXoB5_5lb_l78h3_to_h1NtB2_12H3ToH1BridgeNtB4_6Bridge15bridge_response
FNDA:0,_RNvXNtCsiFMhfKJXoB5_5lb_l78h3_to_h1NtB2_12H3ToH1BridgeNtB4_6Bridge15source_protocol
FNF:9
FNH:0
DA:25,0
DA:26,0
DA:28,0
DA:29,0
DA:30,0
DA:31,0
DA:34,0
DA:35,0
DA:36,0
DA:37,0
DA:38,0
DA:39,0
DA:40,0
DA:41,0
DA:42,0
DA:43,0
DA:44,0
DA:45,0
DA:52,0
DA:53,0
DA:54,0
DA:55,0
DA:56,0
DA:57,0
DA:59,0
DA:60,0
DA:61,0
DA:62,0
DA:63,0
DA:64,0
DA:65,0
DA:66,0
DA:67,0
DA:68,0
DA:70,0
DA:71,0
DA:73,0
DA:74,0
DA:75,0
DA:76,0
DA:77,0
DA:78,0
DA:79,0
DA:80,0
DA:81,0
DA:82,0
DA:83,0
DA:84,0
DA:85,0
DA:86,0
DA:88,0
DA:89,0
DA:90,0
DA:91,0
DA:92,0
DA:93,0
DA:94,0
DA:95,0
DA:97,0
DA:98,0
DA:99,0
DA:101,0
DA:102,0
DA:103,0
BRF:0
BRH:0
LF:70
LH:0
end_of_record
SF:/home/ubuntu/Code/s8-verifier/crates/lb-l7/src/h3_to_h2.rs
FN:60,_RNvXNtCsiFMhfKJXoB5_5lb_l78h3_to_h2NtB2_12H3ToH2BridgeNtB4_6Bridge13dest_protocol
FN:12,_RNvXNtCsiFMhfKJXoB5_5lb_l78h3_to_h2NtB2_12H3ToH2BridgeNtB4_6Bridge14bridge_request
FN:38,_RNvXNtCsiFMhfKJXoB5_5lb_l78h3_to_h2NtB2_12H3ToH2BridgeNtB4_6Bridge15bridge_response
FN:56,_RNvXNtCsiFMhfKJXoB5_5lb_l78h3_to_h2NtB2_12H3ToH2BridgeNtB4_6Bridge15source_protocol
FN:18,_RNCNvXNtCsiFMhfKJXoB5_5lb_l78h3_to_h2NtB4_12H3ToH2BridgeNtB6_6Bridge14bridge_request0B6_
FN:44,_RNCNvXNtCsiFMhfKJXoB5_5lb_l78h3_to_h2NtB4_12H3ToH2BridgeNtB6_6Bridge15bridge_response0B6_
FNDA:0,_RNvXNtCsiFMhfKJXoB5_5lb_l78h3_to_h2NtB2_12H3ToH2BridgeNtB4_6Bridge13dest_protocol
FNDA:0,_RNvXNtCsiFMhfKJXoB5_5lb_l78h3_to_h2NtB2_12H3ToH2BridgeNtB4_6Bridge14bridge_request
FNDA:0,_RNvXNtCsiFMhfKJXoB5_5lb_l78h3_to_h2NtB2_12H3ToH2BridgeNtB4_6Bridge15bridge_response
FNDA:0,_RNvXNtCsiFMhfKJXoB5_5lb_l78h3_to_h2NtB2_12H3ToH2BridgeNtB4_6Bridge15source_protocol
FNDA:0,_RNCNvXNtCsiFMhfKJXoB5_5lb_l78h3_to_h2NtB4_12H3ToH2BridgeNtB6_6Bridge14bridge_request0B6_
FNDA:0,_RNCNvXNtCsiFMhfKJXoB5_5lb_l78h3_to_h2NtB4_12H3ToH2BridgeNtB6_6Bridge15bridge_response0B6_
FNF:6
FNH:0
DA:12,0
DA:13,0
DA:15,0
DA:16,0
DA:17,0
DA:18,0
DA:19,0
DA:20,0
DA:22,0
DA:24,0
DA:25,0
DA:26,0
DA:27,0
DA:28,0
DA:29,0
DA:30,0
DA:31,0
DA:32,0
DA:33,0
DA:34,0
DA:35,0
DA:36,0
DA:38,0
DA:39,0
DA:41,0
DA:42,0
DA:43,0
DA:44,0
DA:45,0
DA:46,0
DA:47,0
DA:48,0
DA:49,0
DA:50,0
DA:51,0
DA:52,0
DA:53,0
DA:54,0
DA:56,0
DA:57,0
DA:58,0
DA:60,0
DA:61,0
DA:62,0
BRF:0
BRH:0
LF:47
LH:0
end_of_record
SF:/home/ubuntu/Code/s8-verifier/crates/lb-l7/src/h3_to_h3.rs
FN:60,_RNvXNtCsiFMhfKJXoB5_5lb_l78h3_to_h3NtB2_12H3ToH3BridgeNtB4_6Bridge13dest_protocol
FN:12,_RNvXNtCsiFMhfKJXoB5_5lb_l78h3_to_h3NtB2_12H3ToH3BridgeNtB4_6Bridge14bridge_request
FN:38,_RNvXNtCsiFMhfKJXoB5_5lb_l78h3_to_h3NtB2_12H3ToH3BridgeNtB4_6Bridge15bridge_response
FN:56,_RNvXNtCsiFMhfKJXoB5_5lb_l78h3_to_h3NtB2_12H3ToH3BridgeNtB4_6Bridge15source_protocol
FN:18,_RNCNvXNtCsiFMhfKJXoB5_5lb_l78h3_to_h3NtB4_12H3ToH3BridgeNtB6_6Bridge14bridge_request0B6_
FN:44,_RNCNvXNtCsiFMhfKJXoB5_5lb_l78h3_to_h3NtB4_12H3ToH3BridgeNtB6_6Bridge15bridge_response0B6_
FNDA:0,_RNvXNtCsiFMhfKJXoB5_5lb_l78h3_to_h3NtB2_12H3ToH3BridgeNtB4_6Bridge13dest_protocol
FNDA:0,_RNvXNtCsiFMhfKJXoB5_5lb_l78h3_to_h3NtB2_12H3ToH3BridgeNtB4_6Bridge14bridge_request
FNDA:0,_RNvXNtCsiFMhfKJXoB5_5lb_l78h3_to_h3NtB2_12H3ToH3BridgeNtB4_6Bridge15bridge_response
FNDA:0,_RNvXNtCsiFMhfKJXoB5_5lb_l78h3_to_h3NtB2_12H3ToH3BridgeNtB4_6Bridge15source_protocol
FNDA:0,_RNCNvXNtCsiFMhfKJXoB5_5lb_l78h3_to_h3NtB4_12H3ToH3BridgeNtB6_6Bridge14bridge_request0B6_
FNDA:0,_RNCNvXNtCsiFMhfKJXoB5_5lb_l78h3_to_h3NtB4_12H3ToH3BridgeNtB6_6Bridge15bridge_response0B6_
FNF:6
FNH:0
DA:12,0
DA:13,0
DA:15,0
DA:16,0
DA:17,0
DA:18,0
DA:19,0
DA:20,0
DA:22,0
DA:24,0
DA:25,0
DA:26,0
DA:27,0
DA:28,0
DA:29,0
DA:30,0
DA:31,0
DA:32,0
DA:33,0
DA:34,0
DA:35,0
DA:36,0
DA:38,0
DA:39,0
DA:41,0
DA:42,0
DA:43,0
DA:44,0
DA:45,0
DA:46,0
DA:47,0
DA:48,0
DA:49,0
DA:50,0
DA:51,0
DA:52,0
DA:53,0
DA:54,0
DA:56,0
DA:57,0
DA:58,0
DA:60,0
DA:61,0
DA:62,0
BRF:0
BRH:0
LF:47
LH:0
end_of_record
SF:/home/ubuntu/Code/s8-verifier/crates/lb-l7/src/lib.rs
FN:219,_RNvCsiFMhfKJXoB5_5lb_l713create_bridge
FN:173,_RNvCsiFMhfKJXoB5_5lb_l718check_header_count
FN:103,_RNvXCsiFMhfKJXoB5_5lb_l7NtB2_13BridgeRequestNtNtCs2va5m0jqTTM_4core7default7Default7default
FN:130,_RNvXs_CsiFMhfKJXoB5_5lb_l7NtB4_14BridgeResponseNtNtCs2va5m0jqTTM_4core7default7Default7default
FNDA:0,_RNvCsiFMhfKJXoB5_5lb_l713create_bridge
FNDA:0,_RNvCsiFMhfKJXoB5_5lb_l718check_header_count
FNDA:0,_RNvXCsiFMhfKJXoB5_5lb_l7NtB2_13BridgeRequestNtNtCs2va5m0jqTTM_4core7default7Default7default
FNDA:0,_RNvXs_CsiFMhfKJXoB5_5lb_l7NtB4_14BridgeResponseNtNtCs2va5m0jqTTM_4core7default7Default7default
FNF:4
FNH:0
DA:103,0
DA:104,0
DA:105,0
DA:106,0
DA:107,0
DA:108,0
DA:109,0
DA:110,0
DA:111,0
DA:112,0
DA:130,0
DA:131,0
DA:132,0
DA:133,0
DA:134,0
DA:135,0
DA:136,0
DA:137,0
DA:173,0
DA:174,0
DA:175,0
DA:176,0
DA:177,0
DA:178,0
DA:179,0
DA:180,0
DA:181,0
DA:219,0
DA:220,0
DA:221,0
DA:222,0
DA:223,0
DA:224,0
DA:225,0
DA:226,0
DA:227,0
DA:228,0
DA:229,0
DA:231,0
BRF:0
BRH:0
LF:39
LH:0
end_of_record
SF:/home/ubuntu/Code/s8-verifier/crates/lb-l7/src/security_hooks.rs
FN:113,_RNvMs1_NtCsiFMhfKJXoB5_5lb_l714security_hooksNtB5_9NoopHooks3new
FN:138,_RNvNtCsiFMhfKJXoB5_5lb_l714security_hooks13default_hooks
FN:103,_RNvXs0_NtCsiFMhfKJXoB5_5lb_l714security_hooksNtB5_9NoopHooksNtNtCs2va5m0jqTTM_4core3fmt5Debug3fmt
FN:129,_RNvXs2_NtCsiFMhfKJXoB5_5lb_l714security_hooksNtB5_9NoopHooksNtNtCsgphuHPmxLkZ_11lb_security5hooks13SecurityHooks16admit_connection
FN:97,_RNvXs_NtCsiFMhfKJXoB5_5lb_l714security_hooksNtB4_9NoopHooksNtNtCs2va5m0jqTTM_4core7default7Default7default
FN:121,_RINvXs2_NtCsiFMhfKJXoB5_5lb_l714security_hooksNtB6_9NoopHooksNtNtCsgphuHPmxLkZ_11lb_security5hooks13SecurityHooks15inspect_requestuEB8_
FN:74,_RNvXNtCsiFMhfKJXoB5_5lb_l714security_hooksNtB2_9NoopHooksNtB2_16DynSecurityHooks15inspect_requestB4_
FN:78,_RNvXNtCsiFMhfKJXoB5_5lb_l714security_hooksNtB2_9NoopHooksNtB2_16DynSecurityHooks16admit_connectionB4_
FNDA:24,_RNvMs1_NtCsiFMhfKJXoB5_5lb_l714security_hooksNtB5_9NoopHooks3new
FNDA:0,_RNvNtCsiFMhfKJXoB5_5lb_l714security_hooks13default_hooks
FNDA:0,_RNvXs0_NtCsiFMhfKJXoB5_5lb_l714security_hooksNtB5_9NoopHooksNtNtCs2va5m0jqTTM_4core3fmt5Debug3fmt
FNDA:0,_RNvXs2_NtCsiFMhfKJXoB5_5lb_l714security_hooksNtB5_9NoopHooksNtNtCsgphuHPmxLkZ_11lb_security5hooks13SecurityHooks16admit_connection
FNDA:0,_RNvXs_NtCsiFMhfKJXoB5_5lb_l714security_hooksNtB4_9NoopHooksNtNtCs2va5m0jqTTM_4core7default7Default7default
FNDA:12,_RINvXs2_NtCsiFMhfKJXoB5_5lb_l714security_hooksNtB6_9NoopHooksNtNtCsgphuHPmxLkZ_11lb_security5hooks13SecurityHooks15inspect_requestuEB8_
FNDA:12,_RNvXNtCsiFMhfKJXoB5_5lb_l714security_hooksNtB2_9NoopHooksNtB2_16DynSecurityHooks15inspect_requestB4_
FNDA:0,_RNvXNtCsiFMhfKJXoB5_5lb_l714security_hooksNtB2_9NoopHooksNtB2_16DynSecurityHooks16admit_connectionB4_
FNF:8
FNH:3
DA:74,12
DA:75,12
DA:76,12
DA:78,0
DA:79,0
DA:80,0
DA:97,0
DA:98,0
DA:99,0
DA:103,0
DA:104,0
DA:105,0
DA:113,24
DA:114,24
DA:115,24
DA:116,24
DA:117,24
DA:121,12
DA:122,12
DA:123,12
DA:124,12
DA:125,12
DA:126,12
DA:127,12
DA:129,0
DA:130,0
DA:131,0
DA:138,0
DA:139,0
DA:140,0
BRF:0
BRH:0
LF:30
LH:15
end_of_record
SF:/home/ubuntu/Code/s8-verifier/crates/lb-l7/src/sni_authority.rs
FN:144,_RNCNvNtCsiFMhfKJXoB5_5lb_l713sni_authority15split_host_port0B5_
FN:149,_RNCNvNtCsiFMhfKJXoB5_5lb_l713sni_authority15split_host_ports_0B5_
FN:131,_RNvNtCsiFMhfKJXoB5_5lb_l713sni_authority14normalise_host
FN:138,_RNvNtCsiFMhfKJXoB5_5lb_l713sni_authority15split_host_port
FN:95,_RNvNtCsiFMhfKJXoB5_5lb_l713sni_authority19check_sni_authority
FN:123,_RNvNtCsiFMhfKJXoB5_5lb_l713sni_authority20misdirected_response
FN:55,_RNvXNtCsiFMhfKJXoB5_5lb_l713sni_authorityNtB2_11SniMismatchNtNtCs2va5m0jqTTM_4core3fmt7Display3fmt
FNDA:0,_RNCNvNtCsiFMhfKJXoB5_5lb_l713sni_authority15split_host_port0B5_
FNDA:0,_RNCNvNtCsiFMhfKJXoB5_5lb_l713sni_authority15split_host_ports_0B5_
FNDA:0,_RNvNtCsiFMhfKJXoB5_5lb_l713sni_authority14normalise_host
FNDA:0,_RNvNtCsiFMhfKJXoB5_5lb_l713sni_authority15split_host_port
FNDA:0,_RNvNtCsiFMhfKJXoB5_5lb_l713sni_authority19check_sni_authority
FNDA:0,_RNvNtCsiFMhfKJXoB5_5lb_l713sni_authority20misdirected_response
FNDA:0,_RNvXNtCsiFMhfKJXoB5_5lb_l713sni_authorityNtB2_11SniMismatchNtNtCs2va5m0jqTTM_4core3fmt7Display3fmt
FNF:7
FNH:0
DA:55,0
DA:56,0
DA:57,0
DA:58,0
DA:59,0
DA:60,0
DA:61,0
DA:95,0
DA:96,0
DA:97,0
DA:99,0
DA:100,0
DA:101,0
DA:102,0
DA:103,0
DA:104,0
DA:105,0
DA:106,0
DA:108,0
DA:109,0
DA:110,0
DA:111,0
DA:113,0
DA:123,0
DA:124,0
DA:125,0
DA:126,0
DA:127,0
DA:128,0
DA:131,0
DA:132,0
DA:133,0
DA:138,0
DA:139,0
DA:140,0
DA:141,0
DA:142,0
DA:143,0
DA:144,0
DA:145,0
DA:146,0
DA:147,0
DA:148,0
DA:149,0
DA:150,0
DA:152,0
BRF:0
BRH:0
LF:48
LH:0
end_of_record
SF:/home/ubuntu/Code/s8-verifier/crates/lb-l7/src/stripped_request.rs
FN:126,_RINvNtCsiFMhfKJXoB5_5lb_l716stripped_request14strip_for_testpEB4_
FN:72,_RNvMNtCsiFMhfKJXoB5_5lb_l716stripped_requestINtB2_15StrippedRequestpE10into_partsB4_
FN:45,_RNvMNtCsiFMhfKJXoB5_5lb_l716stripped_requestINtB2_15StrippedRequestpE5innerB4_
FN:88,_RINvNtCsiFMhfKJXoB5_5lb_l716stripped_request16strip_hop_by_hopNtNtNtCsgB3dp6qvXvn_5hyper4body8incoming8IncomingEB4_
FN:65,_RNvMNtCsiFMhfKJXoB5_5lb_l716stripped_requestINtB2_15StrippedRequestNtNtNtCsgB3dp6qvXvn_5hyper4body8incoming8IncomingE10into_innerB4_
FN:55,_RNvMNtCsiFMhfKJXoB5_5lb_l716stripped_requestINtB2_15StrippedRequestNtNtNtCsgB3dp6qvXvn_5hyper4body8incoming8IncomingE11headers_mutB4_
FNDA:0,_RINvNtCsiFMhfKJXoB5_5lb_l716stripped_request14strip_for_testpEB4_
FNDA:0,_RNvMNtCsiFMhfKJXoB5_5lb_l716stripped_requestINtB2_15StrippedRequestpE10into_partsB4_
FNDA:0,_RNvMNtCsiFMhfKJXoB5_5lb_l716stripped_requestINtB2_15StrippedRequestpE5innerB4_
FNDA:12,_RINvNtCsiFMhfKJXoB5_5lb_l716stripped_request16strip_hop_by_hopNtNtNtCsgB3dp6qvXvn_5hyper4body8incoming8IncomingEB4_
FNDA:12,_RNvMNtCsiFMhfKJXoB5_5lb_l716stripped_requestINtB2_15StrippedRequestNtNtNtCsgB3dp6qvXvn_5hyper4body8incoming8IncomingE10into_innerB4_
FNDA:12,_RNvMNtCsiFMhfKJXoB5_5lb_l716stripped_requestINtB2_15StrippedRequestNtNtNtCsgB3dp6qvXvn_5hyper4body8incoming8IncomingE11headers_mutB4_
FNF:6
FNH:3
DA:45,0
DA:46,0
DA:47,0
DA:55,12
DA:56,12
DA:57,12
DA:65,12
DA:66,12
DA:67,12
DA:72,0
DA:73,0
DA:74,0
DA:88,12
DA:89,12
DA:90,12
DA:91,12
DA:126,0
DA:127,0
DA:128,0
BRF:0
BRH:0
LF:19
LH:10
end_of_record
SF:/home/ubuntu/Code/s8-verifier/crates/lb-l7/src/trace_ctx.rs
FN:238,_RNvMs0_NtCsiFMhfKJXoB5_5lb_l79trace_ctxNtB5_12RequestTrace15inject_upstream
FN:248,_RNvMs0_NtCsiFMhfKJXoB5_5lb_l79trace_ctxNtB5_12RequestTrace17child_traceparent
FN:177,_RNvMs0_NtCsiFMhfKJXoB5_5lb_l79trace_ctxNtB5_12RequestTrace4open
FN:115,_RNvNtCsiFMhfKJXoB5_5lb_l79trace_ctx12mint_span_id
FN:92,_RNvNtCsiFMhfKJXoB5_5lb_l79trace_ctx13startup_nonce
FN:127,_RNvNtCsiFMhfKJXoB5_5lb_l79trace_ctx14synth_trace_id
FN:141,_RNvNtCsiFMhfKJXoB5_5lb_l79trace_ctx3hex
FN:55,_RNvXNtCsiFMhfKJXoB5_5lb_l79trace_ctxNtB2_12HyperHeadersNtNtCsjqkoZuoA1pp_16lb_observability19tracing_propagation9HeaderBag6append
FN:64,_RNvXNtCsiFMhfKJXoB5_5lb_l79trace_ctxNtB2_12HyperHeadersNtNtCsjqkoZuoA1pp_16lb_observability19tracing_propagation9HeaderBag6remove
FN:49,_RNvXNtCsiFMhfKJXoB5_5lb_l79trace_ctxNtB2_12HyperHeadersNtNtCsjqkoZuoA1pp_16lb_observability19tracing_propagation9HeaderBag9get_first
FN:84,_RNvXs_NtCsiFMhfKJXoB5_5lb_l79trace_ctxNtB4_15HyperHeadersRefNtNtCsjqkoZuoA1pp_16lb_observability19tracing_propagation9HeaderBag6append
FN:85,_RNvXs_NtCsiFMhfKJXoB5_5lb_l79trace_ctxNtB4_15HyperHeadersRefNtNtCsjqkoZuoA1pp_16lb_observability19tracing_propagation9HeaderBag6remove
FN:75,_RNvXs_NtCsiFMhfKJXoB5_5lb_l79trace_ctxNtB4_15HyperHeadersRefNtNtCsjqkoZuoA1pp_16lb_observability19tracing_propagation9HeaderBag9get_first
FN:99,_RNCNCNvNtCsiFMhfKJXoB5_5lb_l79trace_ctx13startup_nonce00B7_
FN:202,_RNCNvMs0_NtCsiFMhfKJXoB5_5lb_l79trace_ctxNtB7_12RequestTrace4open0B9_
FN:95,_RNCNvNtCsiFMhfKJXoB5_5lb_l79trace_ctx13startup_nonce0B5_
FN:133,_RNCNvNtCsiFMhfKJXoB5_5lb_l79trace_ctx14synth_trace_id0B5_
FN:52,_RNCNvXNtCsiFMhfKJXoB5_5lb_l79trace_ctxNtB4_12HyperHeadersNtNtCsjqkoZuoA1pp_16lb_observability19tracing_propagation9HeaderBag9get_first0B6_
FN:78,_RNCNvXs_NtCsiFMhfKJXoB5_5lb_l79trace_ctxNtB6_15HyperHeadersRefNtNtCsjqkoZuoA1pp_16lb_observability19tracing_propagation9HeaderBag9get_first0B8_
FNDA:12,_RNvMs0_NtCsiFMhfKJXoB5_5lb_l79trace_ctxNtB5_12RequestTrace15inject_upstream
FNDA:0,_RNvMs0_NtCsiFMhfKJXoB5_5lb_l79trace_ctxNtB5_12RequestTrace17child_traceparent
FNDA:12,_RNvMs0_NtCsiFMhfKJXoB5_5lb_l79trace_ctxNtB5_12RequestTrace4open
FNDA:12,_RNvNtCsiFMhfKJXoB5_5lb_l79trace_ctx12mint_span_id
FNDA:36,_RNvNtCsiFMhfKJXoB5_5lb_l79trace_ctx13startup_nonce
FNDA:12,_RNvNtCsiFMhfKJXoB5_5lb_l79trace_ctx14synth_trace_id
FNDA:24,_RNvNtCsiFMhfKJXoB5_5lb_l79trace_ctx3hex
FNDA:12,_RNvXNtCsiFMhfKJXoB5_5lb_l79trace_ctxNtB2_12HyperHeadersNtNtCsjqkoZuoA1pp_16lb_observability19tracing_propagation9HeaderBag6append
FNDA:12,_RNvXNtCsiFMhfKJXoB5_5lb_l79trace_ctxNtB2_12HyperHeadersNtNtCsjqkoZuoA1pp_16lb_observability19tracing_propagation9HeaderBag6remove
FNDA:0,_RNvXNtCsiFMhfKJXoB5_5lb_l79trace_ctxNtB2_12HyperHeadersNtNtCsjqkoZuoA1pp_16lb_observability19tracing_propagation9HeaderBag9get_first
FNDA:0,_RNvXs_NtCsiFMhfKJXoB5_5lb_l79trace_ctxNtB4_15HyperHeadersRefNtNtCsjqkoZuoA1pp_16lb_observability19tracing_propagation9HeaderBag6append
FNDA:0,_RNvXs_NtCsiFMhfKJXoB5_5lb_l79trace_ctxNtB4_15HyperHeadersRefNtNtCsjqkoZuoA1pp_16lb_observability19tracing_propagation9HeaderBag6remove
FNDA:24,_RNvXs_NtCsiFMhfKJXoB5_5lb_l79trace_ctxNtB4_15HyperHeadersRefNtNtCsjqkoZuoA1pp_16lb_observability19tracing_propagation9HeaderBag9get_first
FNDA:2,_RNCNCNvNtCsiFMhfKJXoB5_5lb_l79trace_ctx13startup_nonce00B7_
FNDA:0,_RNCNvMs0_NtCsiFMhfKJXoB5_5lb_l79trace_ctxNtB7_12RequestTrace4open0B9_
FNDA:2,_RNCNvNtCsiFMhfKJXoB5_5lb_l79trace_ctx13startup_nonce0B5_
FNDA:12,_RNCNvNtCsiFMhfKJXoB5_5lb_l79trace_ctx14synth_trace_id0B5_
FNDA:0,_RNCNvXNtCsiFMhfKJXoB5_5lb_l79trace_ctxNtB4_12HyperHeadersNtNtCsjqkoZuoA1pp_16lb_observability19tracing_propagation9HeaderBag9get_first0B6_
FNDA:0,_RNCNvXs_NtCsiFMhfKJXoB5_5lb_l79trace_ctxNtB6_15HyperHeadersRefNtNtCsjqkoZuoA1pp_16lb_observability19tracing_propagation9HeaderBag9get_first0B8_
FNF:19
FNH:12
DA:49,0
DA:50,0
DA:51,0
DA:52,0
DA:53,0
DA:55,12
DA:56,12
DA:57,12
DA:58,12
DA:59,12
DA:60,12
DA:61,12
DA:62,12
DA:64,12
DA:65,12
DA:66,12
DA:67,12
DA:68,12
DA:75,24
DA:76,24
DA:77,24
DA:78,24
DA:79,24
DA:84,0
DA:85,0
DA:92,36
DA:95,36
DA:96,2
DA:97,2
DA:98,2
DA:99,2
DA:100,2
DA:101,2
DA:102,2
DA:103,2
DA:104,2
DA:105,2
DA:106,2
DA:107,2
DA:108,36
DA:109,36
DA:115,12
DA:116,12
DA:117,12
DA:118,12
DA:119,0
DA:120,12
DA:121,12
DA:122,12
DA:127,12
DA:128,12
DA:129,12
DA:130,12
DA:131,12
DA:132,12
DA:133,12
DA:134,0
DA:135,12
DA:136,12
DA:137,12
DA:141,24
DA:142,24
DA:143,312
DA:144,288
DA:145,288
DA:146,288
DA:147,24
DA:148,24
DA:177,12
DA:178,12
DA:179,12
DA:180,12
DA:181,12
DA:182,12
DA:183,12
DA:184,12
DA:185,12
DA:186,12
DA:187,12
DA:188,12
DA:189,12
DA:190,12
DA:191,12
DA:192,12
DA:193,12
DA:194,0
DA:197,12
DA:199,12
DA:200,12
DA:201,12
DA:202,12
DA:203,12
DA:205,12
DA:207,0
DA:208,0
DA:209,0
DA:210,0
DA:211,0
DA:212,0
DA:213,0
DA:221,12
DA:222,12
DA:223,12
DA:224,12
DA:225,12
DA:226,12
DA:227,12
DA:228,12
DA:229,12
DA:230,12
DA:231,12
DA:232,12
DA:238,12
DA:239,12
DA:240,12
DA:241,12
DA:248,0
DA:249,0
DA:250,0
BRF:0
BRH:0
LF:126
LH:103
end_of_record
SF:/home/ubuntu/Code/s8-verifier/crates/lb-l7/src/upstream.rs
FN:88,_RINvMNtCsiFMhfKJXoB5_5lb_l78upstreamNtB3_15UpstreamBackend2h3pEB5_
FN:68,_RNvMNtCsiFMhfKJXoB5_5lb_l78upstreamNtB2_15UpstreamBackend2h1
FN:78,_RNvMNtCsiFMhfKJXoB5_5lb_l78upstreamNtB2_15UpstreamBackend2h2
FN:153,_RNvMs1_NtCsiFMhfKJXoB5_5lb_l78upstreamNtB5_19RoundRobinUpstreams3new
FN:119,_RNvMs_NtCsiFMhfKJXoB5_5lb_l78upstreamNtB4_17SingleProtoPicker3new
FN:133,_RNvXs0_NtCsiFMhfKJXoB5_5lb_l78upstreamNtB5_17SingleProtoPickerNtB5_17BackendInfoPicker9pick_info
FN:165,_RNvXs2_NtCsiFMhfKJXoB5_5lb_l78upstreamNtB5_19RoundRobinUpstreamsNtB5_17BackendInfoPicker9pick_info
FNDA:0,_RINvMNtCsiFMhfKJXoB5_5lb_l78upstreamNtB3_15UpstreamBackend2h3pEB5_
FNDA:0,_RNvMNtCsiFMhfKJXoB5_5lb_l78upstreamNtB2_15UpstreamBackend2h1
FNDA:0,_RNvMNtCsiFMhfKJXoB5_5lb_l78upstreamNtB2_15UpstreamBackend2h2
FNDA:0,_RNvMs1_NtCsiFMhfKJXoB5_5lb_l78upstreamNtB5_19RoundRobinUpstreams3new
FNDA:24,_RNvMs_NtCsiFMhfKJXoB5_5lb_l78upstreamNtB4_17SingleProtoPicker3new
FNDA:12,_RNvXs0_NtCsiFMhfKJXoB5_5lb_l78upstreamNtB5_17SingleProtoPickerNtB5_17BackendInfoPicker9pick_info
FNDA:0,_RNvXs2_NtCsiFMhfKJXoB5_5lb_l78upstreamNtB5_19RoundRobinUpstreamsNtB5_17BackendInfoPicker9pick_info
FNF:7
FNH:2
DA:68,0
DA:69,0
DA:70,0
DA:71,0
DA:72,0
DA:73,0
DA:74,0
DA:78,0
DA:79,0
DA:80,0
DA:81,0
DA:82,0
DA:83,0
DA:84,0
DA:88,0
DA:89,0
DA:90,0
DA:91,0
DA:92,0
DA:93,0
DA:94,0
DA:119,24
DA:120,24
DA:121,24
DA:122,24
DA:123,24
DA:124,24
DA:125,24
DA:126,24
DA:127,24
DA:128,24
DA:129,24
DA:133,12
DA:134,12
DA:135,12
DA:136,12
DA:137,12
DA:138,12
DA:139,12
DA:140,12
DA:153,0
DA:154,0
DA:155,0
DA:156,0
DA:157,0
DA:158,0
DA:159,0
DA:160,0
DA:161,0
DA:165,0
DA:166,0
DA:167,0
DA:168,0
DA:169,0
DA:170,0
DA:171,0
DA:172,0
DA:173,0
DA:174,0
DA:175,0
DA:176,0
BRF:0
BRH:0
LF:61
LH:19
end_of_record
SF:/home/ubuntu/Code/s8-verifier/crates/lb-l7/src/ws_proxy.rs
FN:382,_RINvNtCsiFMhfKJXoB5_5lb_l78ws_proxy9client_wspEB4_
FN:385,_RNCINvNtCsiFMhfKJXoB5_5lb_l78ws_proxy9client_wspE0B6_
FN:194,_RNvMs0_NtCsiFMhfKJXoB5_5lb_l78ws_proxyNtB5_7WsProxy3new
FN:200,_RNvMs0_NtCsiFMhfKJXoB5_5lb_l78ws_proxyNtB5_7WsProxy6config
FN:130,_RNvMs_NtCsiFMhfKJXoB5_5lb_l78ws_proxyNtB4_8WsConfig18tungstenite_config
FN:397,_RNvNtCsiFMhfKJXoB5_5lb_l78ws_proxy21header_contains_token
FN:112,_RNvXNtCsiFMhfKJXoB5_5lb_l78ws_proxyNtB2_8WsConfigNtNtCs2va5m0jqTTM_4core7default7Default7default
FN:217,_RINvMs0_NtCsiFMhfKJXoB5_5lb_l78ws_proxyNtB6_7WsProxy12proxy_framesINtNtNtCs86YdmMopYMP_10hyper_util2rt5tokio7TokioIoNtNtCsgB3dp6qvXvn_5hyper7upgrade8UpgradedENtNtNtNtCsfWKKmeeA0Vo_5tokio3net3tcp6stream9TcpStreamEB8_
FN:144,_RINvNtCsiFMhfKJXoB5_5lb_l78ws_proxy21is_h1_upgrade_requestNtNtNtCsgB3dp6qvXvn_5hyper4body8incoming8IncomingEB4_
FN:174,_RINvNtCsiFMhfKJXoB5_5lb_l78ws_proxy22is_h2_extended_connectNtNtNtCsgB3dp6qvXvn_5hyper4body8incoming8IncomingEB4_
FN:419,_RINvNtCsiFMhfKJXoB5_5lb_l78ws_proxy32build_handshake_response_headersNtNtNtCsgB3dp6qvXvn_5hyper4body8incoming8IncomingEB4_
FN:370,_RINvNtCsiFMhfKJXoB5_5lb_l78ws_proxy9server_wsINtNtNtCs86YdmMopYMP_10hyper_util2rt5tokio7TokioIoNtNtCsgB3dp6qvXvn_5hyper7upgrade8UpgradedEEB4_
FN:225,_RNCINvMs0_NtCsiFMhfKJXoB5_5lb_l78ws_proxyNtB8_7WsProxy12proxy_framesINtNtNtCs86YdmMopYMP_10hyper_util2rt5tokio7TokioIoNtNtCsgB3dp6qvXvn_5hyper7upgrade8UpgradedENtNtNtNtCsfWKKmeeA0Vo_5tokio3net3tcp6stream9TcpStreamE0Ba_
FN:158,_RNCINvNtCsiFMhfKJXoB5_5lb_l78ws_proxy21is_h1_upgrade_requestNtNtNtCsgB3dp6qvXvn_5hyper4body8incoming8IncomingE0B6_
FN:164,_RNCINvNtCsiFMhfKJXoB5_5lb_l78ws_proxy21is_h1_upgrade_requestNtNtNtCsgB3dp6qvXvn_5hyper4body8incoming8IncomingEs0_0B6_
FN:165,_RNCINvNtCsiFMhfKJXoB5_5lb_l78ws_proxy21is_h1_upgrade_requestNtNtNtCsgB3dp6qvXvn_5hyper4body8incoming8IncomingEs1_0B6_
FN:159,_RNCINvNtCsiFMhfKJXoB5_5lb_l78ws_proxy21is_h1_upgrade_requestNtNtNtCsgB3dp6qvXvn_5hyper4body8incoming8IncomingEs_0B6_
FN:183,_RNCINvNtCsiFMhfKJXoB5_5lb_l78ws_proxy22is_h2_extended_connectNtNtNtCsgB3dp6qvXvn_5hyper4body8incoming8IncomingE0B6_
FN:373,_RNCINvNtCsiFMhfKJXoB5_5lb_l78ws_proxy9server_wsINtNtNtCs86YdmMopYMP_10hyper_util2rt5tokio7TokioIoNtNtCsgB3dp6qvXvn_5hyper7upgrade8UpgradedEE0B6_
FN:247,_RNCNCINvMs0_NtCsiFMhfKJXoB5_5lb_l78ws_proxyNtBa_7WsProxy12proxy_framesINtNtNtCs86YdmMopYMP_10hyper_util2rt5tokio7TokioIoNtNtCsgB3dp6qvXvn_5hyper7upgrade8UpgradedENtNtNtNtCsfWKKmeeA0Vo_5tokio3net3tcp6stream9TcpStreamE00Bc_
FN:257,_RNCNCNCINvMs0_NtCsiFMhfKJXoB5_5lb_l78ws_proxyNtBc_7WsProxy12proxy_framesINtNtNtCs86YdmMopYMP_10hyper_util2rt5tokio7TokioIoNtNtCsgB3dp6qvXvn_5hyper7upgrade8UpgradedENtNtNtNtCsfWKKmeeA0Vo_5tokio3net3tcp6stream9TcpStreamE00s0_0Be_
FN:252,_RNCNCNCINvMs0_NtCsiFMhfKJXoB5_5lb_l78ws_proxyNtBc_7WsProxy12proxy_framesINtNtNtCs86YdmMopYMP_10hyper_util2rt5tokio7TokioIoNtNtCsgB3dp6qvXvn_5hyper7upgrade8UpgradedENtNtNtNtCsfWKKmeeA0Vo_5tokio3net3tcp6stream9TcpStreamE00s_0Be_
FNDA:0,_RINvNtCsiFMhfKJXoB5_5lb_l78ws_proxy9client_wspEB4_
FNDA:0,_RNCINvNtCsiFMhfKJXoB5_5lb_l78ws_proxy9client_wspE0B6_
FNDA:0,_RNvMs0_NtCsiFMhfKJXoB5_5lb_l78ws_proxyNtB5_7WsProxy3new
FNDA:0,_RNvMs0_NtCsiFMhfKJXoB5_5lb_l78ws_proxyNtB5_7WsProxy6config
FNDA:0,_RNvMs_NtCsiFMhfKJXoB5_5lb_l78ws_proxyNtB4_8WsConfig18tungstenite_config
FNDA:0,_RNvNtCsiFMhfKJXoB5_5lb_l78ws_proxy21header_contains_token
FNDA:0,_RNvXNtCsiFMhfKJXoB5_5lb_l78ws_proxyNtB2_8WsConfigNtNtCs2va5m0jqTTM_4core7default7Default7default
FNDA:0,_RINvMs0_NtCsiFMhfKJXoB5_5lb_l78ws_proxyNtB6_7WsProxy12proxy_framesINtNtNtCs86YdmMopYMP_10hyper_util2rt5tokio7TokioIoNtNtCsgB3dp6qvXvn_5hyper7upgrade8UpgradedENtNtNtNtCsfWKKmeeA0Vo_5tokio3net3tcp6stream9TcpStreamEB8_
FNDA:0,_RINvNtCsiFMhfKJXoB5_5lb_l78ws_proxy21is_h1_upgrade_requestNtNtNtCsgB3dp6qvXvn_5hyper4body8incoming8IncomingEB4_
FNDA:0,_RINvNtCsiFMhfKJXoB5_5lb_l78ws_proxy22is_h2_extended_connectNtNtNtCsgB3dp6qvXvn_5hyper4body8incoming8IncomingEB4_
FNDA:0,_RINvNtCsiFMhfKJXoB5_5lb_l78ws_proxy32build_handshake_response_headersNtNtNtCsgB3dp6qvXvn_5hyper4body8incoming8IncomingEB4_
FNDA:0,_RINvNtCsiFMhfKJXoB5_5lb_l78ws_proxy9server_wsINtNtNtCs86YdmMopYMP_10hyper_util2rt5tokio7TokioIoNtNtCsgB3dp6qvXvn_5hyper7upgrade8UpgradedEEB4_
FNDA:0,_RNCINvMs0_NtCsiFMhfKJXoB5_5lb_l78ws_proxyNtB8_7WsProxy12proxy_framesINtNtNtCs86YdmMopYMP_10hyper_util2rt5tokio7TokioIoNtNtCsgB3dp6qvXvn_5hyper7upgrade8UpgradedENtNtNtNtCsfWKKmeeA0Vo_5tokio3net3tcp6stream9TcpStreamE0Ba_
FNDA:0,_RNCINvNtCsiFMhfKJXoB5_5lb_l78ws_proxy21is_h1_upgrade_requestNtNtNtCsgB3dp6qvXvn_5hyper4body8incoming8IncomingE0B6_
FNDA:0,_RNCINvNtCsiFMhfKJXoB5_5lb_l78ws_proxy21is_h1_upgrade_requestNtNtNtCsgB3dp6qvXvn_5hyper4body8incoming8IncomingEs0_0B6_
FNDA:0,_RNCINvNtCsiFMhfKJXoB5_5lb_l78ws_proxy21is_h1_upgrade_requestNtNtNtCsgB3dp6qvXvn_5hyper4body8incoming8IncomingEs1_0B6_
FNDA:0,_RNCINvNtCsiFMhfKJXoB5_5lb_l78ws_proxy21is_h1_upgrade_requestNtNtNtCsgB3dp6qvXvn_5hyper4body8incoming8IncomingEs_0B6_
FNDA:0,_RNCINvNtCsiFMhfKJXoB5_5lb_l78ws_proxy22is_h2_extended_connectNtNtNtCsgB3dp6qvXvn_5hyper4body8incoming8IncomingE0B6_
FNDA:0,_RNCINvNtCsiFMhfKJXoB5_5lb_l78ws_proxy9server_wsINtNtNtCs86YdmMopYMP_10hyper_util2rt5tokio7TokioIoNtNtCsgB3dp6qvXvn_5hyper7upgrade8UpgradedEE0B6_
FNDA:0,_RNCNCINvMs0_NtCsiFMhfKJXoB5_5lb_l78ws_proxyNtBa_7WsProxy12proxy_framesINtNtNtCs86YdmMopYMP_10hyper_util2rt5tokio7TokioIoNtNtCsgB3dp6qvXvn_5hyper7upgrade8UpgradedENtNtNtNtCsfWKKmeeA0Vo_5tokio3net3tcp6stream9TcpStreamE00Bc_
FNDA:0,_RNCNCNCINvMs0_NtCsiFMhfKJXoB5_5lb_l78ws_proxyNtBc_7WsProxy12proxy_framesINtNtNtCs86YdmMopYMP_10hyper_util2rt5tokio7TokioIoNtNtCsgB3dp6qvXvn_5hyper7upgrade8UpgradedENtNtNtNtCsfWKKmeeA0Vo_5tokio3net3tcp6stream9TcpStreamE00s0_0Be_
FNDA:0,_RNCNCNCINvMs0_NtCsiFMhfKJXoB5_5lb_l78ws_proxyNtBc_7WsProxy12proxy_framesINtNtNtCs86YdmMopYMP_10hyper_util2rt5tokio7TokioIoNtNtCsgB3dp6qvXvn_5hyper7upgrade8UpgradedENtNtNtNtCsfWKKmeeA0Vo_5tokio3net3tcp6stream9TcpStreamE00s_0Be_
FNF:22
FNH:0
DA:112,0
DA:113,0
DA:114,0
DA:115,0
DA:116,0
DA:117,0
DA:118,0
DA:119,0
DA:120,0
DA:121,0
DA:130,0
DA:131,0
DA:132,0
DA:133,0
DA:134,0
DA:135,0
DA:136,0
DA:144,0
DA:145,0
DA:146,0
DA:147,0
DA:148,0
DA:149,0
DA:150,0
DA:151,0
DA:152,0
DA:153,0
DA:154,0
DA:155,0
DA:156,0
DA:157,0
DA:158,0
DA:159,0
DA:160,0
DA:161,0
DA:162,0
DA:163,0
DA:164,0
DA:165,0
DA:166,0
DA:174,0
DA:175,0
DA:176,0
DA:177,0
DA:178,0
DA:179,0
DA:180,0
DA:181,0
DA:182,0
DA:183,0
DA:184,0
DA:194,0
DA:195,0
DA:196,0
DA:200,0
DA:201,0
DA:202,0
DA:217,0
DA:218,0
DA:219,0
DA:220,0
DA:221,0
DA:222,0
DA:223,0
DA:224,0
DA:225,0
DA:226,0
DA:227,0
DA:228,0
DA:229,0
DA:230,0
DA:231,0
DA:232,0
DA:233,0
DA:234,0
DA:235,0
DA:236,0
DA:237,0
DA:238,0
DA:247,0
DA:248,0
DA:250,0
DA:251,0
DA:252,0
DA:253,0
DA:254,0
DA:255,0
DA:256,0
DA:257,0
DA:258,0
DA:259,0
DA:261,0
DA:262,0
DA:264,0
DA:267,0
DA:268,0
DA:269,0
DA:270,0
DA:271,0
DA:272,0
DA:273,0
DA:279,0
DA:280,0
DA:281,0
DA:282,0
DA:283,0
DA:284,0
DA:285,0
DA:286,0
DA:287,0
DA:289,0
DA:295,0
DA:296,0
DA:297,0
DA:298,0
DA:299,0
DA:300,0
DA:301,0
DA:302,0
DA:305,0
DA:306,0
DA:307,0
DA:308,0
DA:309,0
DA:310,0
DA:311,0
DA:312,0
DA:313,0
DA:314,0
DA:315,0
DA:316,0
DA:317,0
DA:318,0
DA:319,0
DA:320,0
DA:321,0
DA:327,0
DA:328,0
DA:329,0
DA:331,0
DA:332,0
DA:333,0
DA:334,0
DA:335,0
DA:336,0
DA:337,0
DA:343,0
DA:344,0
DA:347,0
DA:348,0
DA:350,0
DA:351,0
DA:355,0
DA:370,0
DA:371,0
DA:372,0
DA:373,0
DA:374,0
DA:375,0
DA:382,0
DA:383,0
DA:384,0
DA:385,0
DA:386,0
DA:387,0
DA:397,0
DA:398,0
DA:399,0
DA:400,0
DA:401,0
DA:402,0
DA:403,0
DA:406,0
DA:407,0
DA:419,0
DA:420,0
DA:421,0
DA:422,0
DA:423,0
DA:424,0
DA:425,0
DA:426,0
DA:427,0
DA:428,0
DA:429,0
DA:430,0
DA:431,0
DA:432,0
DA:433,0
DA:434,0
DA:435,0
DA:436,0
BRF:0
BRH:0
LF:204
LH:0
end_of_record
SF:/home/ubuntu/Code/s8-verifier/crates/lb-observability/src/admin_http.rs
FN:159,_RNCNvNtCsjqkoZuoA1pp_16lb_observability10admin_http11json_status0B5_
FN:167,_RNCNvNtCsjqkoZuoA1pp_16lb_observability10admin_http5plain0B5_
FN:89,_RNCNvNtCsjqkoZuoA1pp_16lb_observability10admin_http5route0B5_
FN:102,_RNCNvNtCsjqkoZuoA1pp_16lb_observability10admin_http5routes_0B5_
FN:61,_RNCNvXNtCsjqkoZuoA1pp_16lb_observability10admin_httpNtB4_12AdminServiceINtNtNtCsgB3dp6qvXvn_5hyper7service7service7ServiceINtNtCsjFxw70quGA5_4http7request7RequestNtNtNtB1e_4body8incoming8IncomingEE4call0B6_
FN:146,_RNvNtCsjqkoZuoA1pp_16lb_observability10admin_http11json_status
FN:170,_RNvNtCsjqkoZuoA1pp_16lb_observability10admin_http12fallback_500
FN:68,_RNvNtCsjqkoZuoA1pp_16lb_observability10admin_http13is_probe_path
FN:113,_RNvNtCsjqkoZuoA1pp_16lb_observability10admin_http14livez_response
FN:124,_RNvNtCsjqkoZuoA1pp_16lb_observability10admin_http15readyz_response
FN:223,_RNvNtCsjqkoZuoA1pp_16lb_observability10admin_http15serve_with_auth
FN:198,_RNvNtCsjqkoZuoA1pp_16lb_observability10admin_http17serve_with_probes
FN:136,_RNvNtCsjqkoZuoA1pp_16lb_observability10admin_http17startupz_response
FN:162,_RNvNtCsjqkoZuoA1pp_16lb_observability10admin_http5plain
FN:72,_RNvNtCsjqkoZuoA1pp_16lb_observability10admin_http5route
FN:290,_RNvNtCsjqkoZuoA1pp_16lb_observability10admin_http5serve
FN:57,_RNvXNtCsjqkoZuoA1pp_16lb_observability10admin_httpNtB2_12AdminServiceINtNtNtCsgB3dp6qvXvn_5hyper7service7service7ServiceINtNtCsjFxw70quGA5_4http7request7RequestNtNtNtB1c_4body8incoming8IncomingEE4call
FN:262,_RNCNCNCNvNtCsjqkoZuoA1pp_16lb_observability10admin_http15serve_with_auth0s_00B9_
FN:232,_RNCNCNvNtCsjqkoZuoA1pp_16lb_observability10admin_http15serve_with_auth00B7_
FN:244,_RNCNCNvNtCsjqkoZuoA1pp_16lb_observability10admin_http15serve_with_auth0s_0B7_
FN:229,_RNCNvNtCsjqkoZuoA1pp_16lb_observability10admin_http15serve_with_auth0B5_
FN:203,_RNCNvNtCsjqkoZuoA1pp_16lb_observability10admin_http17serve_with_probes0B5_
FN:294,_RNCNvNtCsjqkoZuoA1pp_16lb_observability10admin_http5serve0B5_
FNDA:0,_RNCNvNtCsjqkoZuoA1pp_16lb_observability10admin_http11json_status0B5_
FNDA:0,_RNCNvNtCsjqkoZuoA1pp_16lb_observability10admin_http5plain0B5_
FNDA:0,_RNCNvNtCsjqkoZuoA1pp_16lb_observability10admin_http5route0B5_
FNDA:0,_RNCNvNtCsjqkoZuoA1pp_16lb_observability10admin_http5routes_0B5_
FNDA:0,_RNCNvXNtCsjqkoZuoA1pp_16lb_observability10admin_httpNtB4_12AdminServiceINtNtNtCsgB3dp6qvXvn_5hyper7service7service7ServiceINtNtCsjFxw70quGA5_4http7request7RequestNtNtNtB1e_4body8incoming8IncomingEE4call0B6_
FNDA:0,_RNvNtCsjqkoZuoA1pp_16lb_observability10admin_http11json_status
FNDA:0,_RNvNtCsjqkoZuoA1pp_16lb_observability10admin_http12fallback_500
FNDA:0,_RNvNtCsjqkoZuoA1pp_16lb_observability10admin_http13is_probe_path
FNDA:0,_RNvNtCsjqkoZuoA1pp_16lb_observability10admin_http14livez_response
FNDA:0,_RNvNtCsjqkoZuoA1pp_16lb_observability10admin_http15readyz_response
FNDA:0,_RNvNtCsjqkoZuoA1pp_16lb_observability10admin_http15serve_with_auth
FNDA:0,_RNvNtCsjqkoZuoA1pp_16lb_observability10admin_http17serve_with_probes
FNDA:0,_RNvNtCsjqkoZuoA1pp_16lb_observability10admin_http17startupz_response
FNDA:0,_RNvNtCsjqkoZuoA1pp_16lb_observability10admin_http5plain
FNDA:0,_RNvNtCsjqkoZuoA1pp_16lb_observability10admin_http5route
FNDA:0,_RNvNtCsjqkoZuoA1pp_16lb_observability10admin_http5serve
FNDA:0,_RNvXNtCsjqkoZuoA1pp_16lb_observability10admin_httpNtB2_12AdminServiceINtNtNtCsgB3dp6qvXvn_5hyper7service7service7ServiceINtNtCsjFxw70quGA5_4http7request7RequestNtNtNtB1c_4body8incoming8IncomingEE4call
FNDA:0,_RNCNCNCNvNtCsjqkoZuoA1pp_16lb_observability10admin_http15serve_with_auth0s_00B9_
FNDA:0,_RNCNCNvNtCsjqkoZuoA1pp_16lb_observability10admin_http15serve_with_auth00B7_
FNDA:0,_RNCNCNvNtCsjqkoZuoA1pp_16lb_observability10admin_http15serve_with_auth0s_0B7_
FNDA:0,_RNCNvNtCsjqkoZuoA1pp_16lb_observability10admin_http15serve_with_auth0B5_
FNDA:0,_RNCNvNtCsjqkoZuoA1pp_16lb_observability10admin_http17serve_with_probes0B5_
FNDA:0,_RNCNvNtCsjqkoZuoA1pp_16lb_observability10admin_http5serve0B5_
FNF:23
FNH:0
DA:57,0
DA:58,0
DA:59,0
DA:60,0
DA:61,0
DA:62,0
DA:68,0
DA:69,0
DA:70,0
DA:72,0
DA:73,0
DA:74,0
DA:75,0
DA:76,0
DA:77,0
DA:78,0
DA:79,0
DA:80,0
DA:84,0
DA:85,0
DA:86,0
DA:87,0
DA:88,0
DA:89,0
DA:90,0
DA:91,0
DA:92,0
DA:93,0
DA:94,0
DA:95,0
DA:96,0
DA:97,0
DA:98,0
DA:99,0
DA:100,0
DA:101,0
DA:102,0
DA:104,0
DA:105,0
DA:106,0
DA:107,0
DA:109,0
DA:113,0
DA:114,0
DA:115,0
DA:117,0
DA:119,0
DA:120,0
DA:124,0
DA:125,0
DA:126,0
DA:127,0
DA:129,0
DA:131,0
DA:132,0
DA:136,0
DA:137,0
DA:138,0
DA:139,0
DA:141,0
DA:143,0
DA:144,0
DA:146,0
DA:147,0
DA:148,0
DA:149,0
DA:150,0
DA:151,0
DA:152,0
DA:153,0
DA:154,0
DA:155,0
DA:156,0
DA:157,0
DA:158,0
DA:159,0
DA:160,0
DA:162,0
DA:163,0
DA:164,0
DA:165,0
DA:166,0
DA:167,0
DA:168,0
DA:170,0
DA:171,0
DA:172,0
DA:173,0
DA:174,0
DA:175,0
DA:176,0
DA:177,0
DA:178,0
DA:179,0
DA:180,0
DA:198,0
DA:199,0
DA:200,0
DA:201,0
DA:202,0
DA:203,0
DA:204,0
DA:205,0
DA:223,0
DA:224,0
DA:225,0
DA:226,0
DA:227,0
DA:228,0
DA:229,0
DA:230,0
DA:231,0
DA:232,0
DA:233,0
DA:236,0
DA:238,0
DA:239,0
DA:240,0
DA:241,0
DA:242,0
DA:243,0
DA:244,0
DA:246,0
DA:248,0
DA:249,0
DA:250,0
DA:252,0
DA:254,0
DA:255,0
DA:256,0
DA:257,0
DA:258,0
DA:261,0
DA:262,0
DA:263,0
DA:264,0
DA:265,0
DA:266,0
DA:267,0
DA:269,0
DA:270,0
DA:271,0
DA:273,0
DA:274,0
DA:275,0
DA:276,0
DA:290,0
DA:291,0
DA:292,0
DA:293,0
DA:294,0
DA:295,0
DA:296,0
DA:297,0
DA:298,0
DA:299,0
DA:300,0
DA:301,0
DA:302,0
BRF:0
BRH:0
LF:172
LH:0
end_of_record
SF:/home/ubuntu/Code/s8-verifier/crates/lb-observability/src/label_budget.rs
FN:332,_RNCNvMs4_NtCsjqkoZuoA1pp_16lb_observability12label_budgetNtB7_19EnforcedLabelBudget8observed0B9_
FN:240,_RNCNvXs1_NtCsjqkoZuoA1pp_16lb_observability12label_budgetNtB7_19EnforcedLabelBudgetNtNtCs2va5m0jqTTM_4core3fmt5Debug3fmt0B9_
FNDA:0,_RNCNvMs4_NtCsjqkoZuoA1pp_16lb_observability12label_budgetNtB7_19EnforcedLabelBudget8observed0B9_
FNDA:0,_RNCNvXs1_NtCsjqkoZuoA1pp_16lb_observability12label_budgetNtB7_19EnforcedLabelBudgetNtNtCs2va5m0jqTTM_4core3fmt5Debug3fmt0B9_
FNF:2
FNH:0
DA:240,0
DA:332,0
BRF:0
BRH:0
LF:2
LH:0
end_of_record
SF:/home/ubuntu/Code/s8-verifier/crates/lb-observability/src/lib.rs
FN:499,_RNvCsjqkoZuoA1pp_16lb_observability20http_latency_buckets
FN:183,_RNvMs0_CsjqkoZuoA1pp_16lb_observabilityNtB5_15MetricsRegistry11counter_vec
FN:257,_RNvMs0_CsjqkoZuoA1pp_16lb_observabilityNtB5_15MetricsRegistry13histogram_vec
FN:478,_RNvMs0_CsjqkoZuoA1pp_16lb_observabilityNtB5_15MetricsRegistry17check_cardinality
FN:393,_RNvMs0_CsjqkoZuoA1pp_16lb_observabilityNtB5_15MetricsRegistry19accept_inflight_dec
FN:382,_RNvMs0_CsjqkoZuoA1pp_16lb_observabilityNtB5_15MetricsRegistry19accept_inflight_inc
FN:417,_RNvMs0_CsjqkoZuoA1pp_16lb_observabilityNtB5_15MetricsRegistry19panic_total_counter
FN:370,_RNvMs0_CsjqkoZuoA1pp_16lb_observabilityNtB5_15MetricsRegistry21accept_inflight_gauge
FN:457,_RNvMs0_CsjqkoZuoA1pp_16lb_observabilityNtB5_15MetricsRegistry3get
FN:468,_RNvMs0_CsjqkoZuoA1pp_16lb_observabilityNtB5_15MetricsRegistry3len
FN:125,_RNvMs0_CsjqkoZuoA1pp_16lb_observabilityNtB5_15MetricsRegistry3new
FN:335,_RNvMs0_CsjqkoZuoA1pp_16lb_observabilityNtB5_15MetricsRegistry5gauge
FN:435,_RNvMs0_CsjqkoZuoA1pp_16lb_observabilityNtB5_15MetricsRegistry5inner
FN:427,_RNvMs0_CsjqkoZuoA1pp_16lb_observabilityNtB5_15MetricsRegistry6gather
FN:144,_RNvMs0_CsjqkoZuoA1pp_16lb_observabilityNtB5_15MetricsRegistry7counter
FN:474,_RNvMs0_CsjqkoZuoA1pp_16lb_observabilityNtB5_15MetricsRegistry8is_empty
FN:299,_RNvMs0_CsjqkoZuoA1pp_16lb_observabilityNtB5_15MetricsRegistry9gauge_vec
FN:219,_RNvMs0_CsjqkoZuoA1pp_16lb_observabilityNtB5_15MetricsRegistry9histogram
FN:443,_RNvMs0_CsjqkoZuoA1pp_16lb_observabilityNtB5_15MetricsRegistry9increment
FN:104,_RNvXCsjqkoZuoA1pp_16lb_observabilityNtB2_15MetricsRegistryNtNtCs2va5m0jqTTM_4core7default7Default7default
FN:110,_RNvXs_CsjqkoZuoA1pp_16lb_observabilityNtB4_6HandleNtNtCs2va5m0jqTTM_4core3fmt5Debug3fmt
FN:483,_RNCNvMs0_CsjqkoZuoA1pp_16lb_observabilityNtB7_15MetricsRegistry17check_cardinality0B7_
FN:512,_RNvCsjqkoZuoA1pp_16lb_observability24__force_collector_linkage
FNDA:0,_RNvCsjqkoZuoA1pp_16lb_observability20http_latency_buckets
FNDA:0,_RNvMs0_CsjqkoZuoA1pp_16lb_observabilityNtB5_15MetricsRegistry11counter_vec
FNDA:0,_RNvMs0_CsjqkoZuoA1pp_16lb_observabilityNtB5_15MetricsRegistry13histogram_vec
FNDA:0,_RNvMs0_CsjqkoZuoA1pp_16lb_observabilityNtB5_15MetricsRegistry17check_cardinality
FNDA:0,_RNvMs0_CsjqkoZuoA1pp_16lb_observabilityNtB5_15MetricsRegistry19accept_inflight_dec
FNDA:0,_RNvMs0_CsjqkoZuoA1pp_16lb_observabilityNtB5_15MetricsRegistry19accept_inflight_inc
FNDA:0,_RNvMs0_CsjqkoZuoA1pp_16lb_observabilityNtB5_15MetricsRegistry19panic_total_counter
FNDA:0,_RNvMs0_CsjqkoZuoA1pp_16lb_observabilityNtB5_15MetricsRegistry21accept_inflight_gauge
FNDA:0,_RNvMs0_CsjqkoZuoA1pp_16lb_observabilityNtB5_15MetricsRegistry3get
FNDA:0,_RNvMs0_CsjqkoZuoA1pp_16lb_observabilityNtB5_15MetricsRegistry3len
FNDA:0,_RNvMs0_CsjqkoZuoA1pp_16lb_observabilityNtB5_15MetricsRegistry3new
FNDA:0,_RNvMs0_CsjqkoZuoA1pp_16lb_observabilityNtB5_15MetricsRegistry5gauge
FNDA:0,_RNvMs0_CsjqkoZuoA1pp_16lb_observabilityNtB5_15MetricsRegistry5inner
FNDA:0,_RNvMs0_CsjqkoZuoA1pp_16lb_observabilityNtB5_15MetricsRegistry6gather
FNDA:0,_RNvMs0_CsjqkoZuoA1pp_16lb_observabilityNtB5_15MetricsRegistry7counter
FNDA:0,_RNvMs0_CsjqkoZuoA1pp_16lb_observabilityNtB5_15MetricsRegistry8is_empty
FNDA:0,_RNvMs0_CsjqkoZuoA1pp_16lb_observabilityNtB5_15MetricsRegistry9gauge_vec
FNDA:0,_RNvMs0_CsjqkoZuoA1pp_16lb_observabilityNtB5_15MetricsRegistry9histogram
FNDA:0,_RNvMs0_CsjqkoZuoA1pp_16lb_observabilityNtB5_15MetricsRegistry9increment
FNDA:0,_RNvXCsjqkoZuoA1pp_16lb_observabilityNtB2_15MetricsRegistryNtNtCs2va5m0jqTTM_4core7default7Default7default
FNDA:0,_RNvXs_CsjqkoZuoA1pp_16lb_observabilityNtB4_6HandleNtNtCs2va5m0jqTTM_4core3fmt5Debug3fmt
FNDA:0,_RNCNvMs0_CsjqkoZuoA1pp_16lb_observabilityNtB7_15MetricsRegistry17check_cardinality0B7_
FNDA:0,_RNvCsjqkoZuoA1pp_16lb_observability24__force_collector_linkage
FNF:23
FNH:0
DA:104,0
DA:105,0
DA:106,0
DA:110,0
DA:111,0
DA:112,0
DA:113,0
DA:114,0
DA:115,0
DA:116,0
DA:117,0
DA:119,0
DA:125,0
DA:126,0
DA:127,0
DA:128,0
DA:129,0
DA:130,0
DA:144,0
DA:146,0
DA:147,0
DA:148,0
DA:149,0
DA:150,0
DA:151,0
DA:152,0
DA:153,0
DA:154,0
DA:155,0
DA:156,0
DA:157,0
DA:158,0
DA:159,0
DA:160,0
DA:161,0
DA:162,0
DA:163,0
DA:164,0
DA:166,0
DA:167,0
DA:168,0
DA:169,0
DA:170,0
DA:171,0
DA:174,0
DA:183,0
DA:184,0
DA:185,0
DA:186,0
DA:187,0
DA:188,0
DA:189,0
DA:190,0
DA:191,0
DA:192,0
DA:193,0
DA:194,0
DA:195,0
DA:196,0
DA:197,0
DA:198,0
DA:199,0
DA:200,0
DA:201,0
DA:202,0
DA:204,0
DA:205,0
DA:206,0
DA:207,0
DA:208,0
DA:209,0
DA:212,0
DA:219,0
DA:220,0
DA:221,0
DA:222,0
DA:223,0
DA:224,0
DA:225,0
DA:226,0
DA:227,0
DA:228,0
DA:229,0
DA:230,0
DA:231,0
DA:232,0
DA:233,0
DA:234,0
DA:235,0
DA:236,0
DA:237,0
DA:238,0
DA:240,0
DA:241,0
DA:242,0
DA:243,0
DA:244,0
DA:245,0
DA:246,0
DA:247,0
DA:250,0
DA:257,0
DA:258,0
DA:259,0
DA:260,0
DA:261,0
DA:262,0
DA:263,0
DA:264,0
DA:265,0
DA:266,0
DA:267,0
DA:268,0
DA:269,0
DA:270,0
DA:271,0
DA:272,0
DA:273,0
DA:274,0
DA:275,0
DA:276,0
DA:277,0
DA:279,0
DA:280,0
DA:281,0
DA:282,0
DA:283,0
DA:284,0
DA:285,0
DA:286,0
DA:287,0
DA:290,0
DA:299,0
DA:300,0
DA:301,0
DA:302,0
DA:303,0
DA:304,0
DA:305,0
DA:306,0
DA:307,0
DA:308,0
DA:309,0
DA:310,0
DA:311,0
DA:312,0
DA:313,0
DA:314,0
DA:315,0
DA:316,0
DA:317,0
DA:318,0
DA:320,0
DA:321,0
DA:322,0
DA:323,0
DA:324,0
DA:325,0
DA:328,0
DA:335,0
DA:336,0
DA:337,0
DA:338,0
DA:339,0
DA:340,0
DA:341,0
DA:342,0
DA:343,0
DA:344,0
DA:345,0
DA:346,0
DA:347,0
DA:348,0
DA:349,0
DA:351,0
DA:352,0
DA:353,0
DA:354,0
DA:355,0
DA:356,0
DA:359,0
DA:370,0
DA:371,0
DA:372,0
DA:373,0
DA:374,0
DA:375,0
DA:376,0
DA:382,0
DA:383,0
DA:384,0
DA:385,0
DA:386,0
DA:389,0
DA:393,0
DA:394,0
DA:395,0
DA:396,0
DA:397,0
DA:400,0
DA:417,0
DA:418,0
DA:419,0
DA:420,0
DA:421,0
DA:422,0
DA:427,0
DA:428,0
DA:429,0
DA:435,0
DA:436,0
DA:437,0
DA:443,0
DA:444,0
DA:445,0
DA:446,0
DA:447,0
DA:450,0
DA:457,0
DA:458,0
DA:459,0
DA:460,0
DA:461,0
DA:462,0
DA:463,0
DA:468,0
DA:469,0
DA:470,0
DA:474,0
DA:475,0
DA:476,0
DA:478,0
DA:479,0
DA:480,0
DA:481,0
DA:482,0
DA:483,0
DA:484,0
DA:485,0
DA:486,0
DA:489,0
DA:491,0
DA:492,0
DA:499,0
DA:500,0
DA:501,0
DA:502,0
DA:503,0
DA:512,0
BRF:0
BRH:0
LF:250
LH:0
end_of_record
SF:/home/ubuntu/Code/s8-verifier/crates/lb-observability/src/log.rs
FN:106,_RNCNvNtCsjqkoZuoA1pp_16lb_observability3log12init_tracing0B5_
FN:110,_RNCNvNtCsjqkoZuoA1pp_16lb_observability3log12init_tracings_0B5_
FN:45,_RNvMNtCsjqkoZuoA1pp_16lb_observability3logNtB2_9LogFormat5parse
FN:103,_RNvNtCsjqkoZuoA1pp_16lb_observability3log12init_tracing
FN:143,_RNvNtCsjqkoZuoA1pp_16lb_observability3log14current_format
FN:64,_RNvXs_NtCsjqkoZuoA1pp_16lb_observability3logNtB4_13TracingConfigNtNtCs2va5m0jqTTM_4core7default7Default7default
FNDA:0,_RNCNvNtCsjqkoZuoA1pp_16lb_observability3log12init_tracing0B5_
FNDA:0,_RNCNvNtCsjqkoZuoA1pp_16lb_observability3log12init_tracings_0B5_
FNDA:0,_RNvMNtCsjqkoZuoA1pp_16lb_observability3logNtB2_9LogFormat5parse
FNDA:0,_RNvNtCsjqkoZuoA1pp_16lb_observability3log12init_tracing
FNDA:0,_RNvNtCsjqkoZuoA1pp_16lb_observability3log14current_format
FNDA:0,_RNvXs_NtCsjqkoZuoA1pp_16lb_observability3logNtB4_13TracingConfigNtNtCs2va5m0jqTTM_4core7default7Default7default
FNF:6
FNH:0
DA:45,0
DA:46,0
DA:47,0
DA:48,0
DA:49,0
DA:51,0
DA:64,0
DA:65,0
DA:66,0
DA:67,0
DA:68,0
DA:69,0
DA:103,0
DA:104,0
DA:105,0
DA:106,0
DA:107,0
DA:108,0
DA:109,0
DA:110,0
DA:114,0
DA:115,0
DA:116,0
DA:117,0
DA:118,0
DA:119,0
DA:120,0
DA:121,0
DA:122,0
DA:123,0
DA:124,0
DA:125,0
DA:126,0
DA:127,0
DA:130,0
DA:133,0
DA:134,0
DA:136,0
DA:138,0
DA:143,0
DA:144,0
DA:145,0
BRF:0
BRH:0
LF:44
LH:0
end_of_record
SF:/home/ubuntu/Code/s8-verifier/crates/lb-observability/src/probes.rs
FN:54,_RNvMNtCsjqkoZuoA1pp_16lb_observability6probesNtB2_10ProbeState10body_token
FN:40,_RNvMNtCsjqkoZuoA1pp_16lb_observability6probesNtB2_10ProbeState7as_byte
FN:44,_RNvMNtCsjqkoZuoA1pp_16lb_observability6probesNtB2_10ProbeState9from_byte
FN:143,_RNvMs0_NtCsjqkoZuoA1pp_16lb_observability6probesNtB5_13ProbeRegistry10is_started
FN:118,_RNvMs0_NtCsjqkoZuoA1pp_16lb_observability6probesNtB5_13ProbeRegistry12set_draining
FN:83,_RNvMs0_NtCsjqkoZuoA1pp_16lb_observability6probesNtB5_13ProbeRegistry3new
FN:98,_RNvMs0_NtCsjqkoZuoA1pp_16lb_observability6probesNtB5_13ProbeRegistry5state
FN:92,_RNvMs0_NtCsjqkoZuoA1pp_16lb_observability6probesNtB5_13ProbeRegistry6shared
FN:132,_RNvMs0_NtCsjqkoZuoA1pp_16lb_observability6probesNtB5_13ProbeRegistry7is_live
FN:125,_RNvMs0_NtCsjqkoZuoA1pp_16lb_observability6probesNtB5_13ProbeRegistry8is_ready
FN:105,_RNvMs0_NtCsjqkoZuoA1pp_16lb_observability6probesNtB5_13ProbeRegistry9set_ready
FN:75,_RNvXs_NtCsjqkoZuoA1pp_16lb_observability6probesNtB4_13ProbeRegistryNtNtCs2va5m0jqTTM_4core7default7Default7default
FNDA:0,_RNvMNtCsjqkoZuoA1pp_16lb_observability6probesNtB2_10ProbeState10body_token
FNDA:0,_RNvMNtCsjqkoZuoA1pp_16lb_observability6probesNtB2_10ProbeState7as_byte
FNDA:0,_RNvMNtCsjqkoZuoA1pp_16lb_observability6probesNtB2_10ProbeState9from_byte
FNDA:0,_RNvMs0_NtCsjqkoZuoA1pp_16lb_observability6probesNtB5_13ProbeRegistry10is_started
FNDA:0,_RNvMs0_NtCsjqkoZuoA1pp_16lb_observability6probesNtB5_13ProbeRegistry12set_draining
FNDA:0,_RNvMs0_NtCsjqkoZuoA1pp_16lb_observability6probesNtB5_13ProbeRegistry3new
FNDA:0,_RNvMs0_NtCsjqkoZuoA1pp_16lb_observability6probesNtB5_13ProbeRegistry5state
FNDA:0,_RNvMs0_NtCsjqkoZuoA1pp_16lb_observability6probesNtB5_13ProbeRegistry6shared
FNDA:0,_RNvMs0_NtCsjqkoZuoA1pp_16lb_observability6probesNtB5_13ProbeRegistry7is_live
FNDA:0,_RNvMs0_NtCsjqkoZuoA1pp_16lb_observability6probesNtB5_13ProbeRegistry8is_ready
FNDA:0,_RNvMs0_NtCsjqkoZuoA1pp_16lb_observability6probesNtB5_13ProbeRegistry9set_ready
FNDA:0,_RNvXs_NtCsjqkoZuoA1pp_16lb_observability6probesNtB4_13ProbeRegistryNtNtCs2va5m0jqTTM_4core7default7Default7default
FNF:12
FNH:0
DA:40,0
DA:41,0
DA:42,0
DA:44,0
DA:45,0
DA:46,0
DA:47,0
DA:48,0
DA:50,0
DA:54,0
DA:55,0
DA:56,0
DA:57,0
DA:58,0
DA:60,0
DA:75,0
DA:76,0
DA:77,0
DA:83,0
DA:84,0
DA:85,0
DA:86,0
DA:87,0
DA:92,0
DA:93,0
DA:94,0
DA:98,0
DA:99,0
DA:100,0
DA:105,0
DA:106,0
DA:107,0
DA:108,0
DA:109,0
DA:110,0
DA:111,0
DA:112,0
DA:113,0
DA:114,0
DA:118,0
DA:119,0
DA:120,0
DA:121,0
DA:125,0
DA:126,0
DA:127,0
DA:132,0
DA:133,0
DA:134,0
DA:135,0
DA:136,0
DA:137,0
DA:143,0
DA:144,0
DA:145,0
BRF:0
BRH:0
LF:55
LH:0
end_of_record
SF:/home/ubuntu/Code/s8-verifier/crates/lb-observability/src/prometheus_exposition.rs
FN:33,_RNCNvNtCsjqkoZuoA1pp_16lb_observability21prometheus_exposition11render_text0B5_
FN:22,_RNvNtCsjqkoZuoA1pp_16lb_observability21prometheus_exposition11render_text
FNDA:0,_RNCNvNtCsjqkoZuoA1pp_16lb_observability21prometheus_exposition11render_text0B5_
FNDA:0,_RNvNtCsjqkoZuoA1pp_16lb_observability21prometheus_exposition11render_text
FNF:2
FNH:0
DA:22,0
DA:23,0
DA:24,0
DA:25,0
DA:29,0
DA:30,0
DA:31,0
DA:32,0
DA:33,0
DA:34,0
DA:35,0
DA:36,0
DA:37,0
BRF:0
BRH:0
LF:15
LH:0
end_of_record
SF:/home/ubuntu/Code/s8-verifier/crates/lb-observability/src/tracing_propagation.rs
FN:239,_RINvNtCsjqkoZuoA1pp_16lb_observability19tracing_propagation11inject_intoNtNtCsiFMhfKJXoB5_5lb_l79trace_ctx12HyperHeadersEB1c_
FN:210,_RINvNtCsjqkoZuoA1pp_16lb_observability19tracing_propagation14extract_parentNtNtCsiFMhfKJXoB5_5lb_l79trace_ctx15HyperHeadersRefEB1f_
FN:214,_RNCINvNtCsjqkoZuoA1pp_16lb_observability19tracing_propagation14extract_parentNtNtCsiFMhfKJXoB5_5lb_l79trace_ctx15HyperHeadersRefE0B1h_
FN:53,_RNvMNtCsjqkoZuoA1pp_16lb_observability19tracing_propagationNtB2_10OtlpConfig8disabled
FN:76,_RNvMs_NtCsjqkoZuoA1pp_16lb_observability19tracing_propagationNtB4_12TraceContext7sampled
FN:83,_RNvMs_NtCsjqkoZuoA1pp_16lb_observability19tracing_propagationNtB4_12TraceContext9to_header
FN:103,_RNvNtCsjqkoZuoA1pp_16lb_observability19tracing_propagation10hex_nibble
FN:177,_RNvNtCsjqkoZuoA1pp_16lb_observability19tracing_propagation15decode_hex_byte
FN:183,_RNvNtCsjqkoZuoA1pp_16lb_observability19tracing_propagation17decode_hex_nibble
FN:129,_RNvNtCsjqkoZuoA1pp_16lb_observability19tracing_propagation17parse_traceparent
FN:262,_RNvNtCsjqkoZuoA1pp_16lb_observability19tracing_propagation9span_name
FN:157,_RNCNvNtCsjqkoZuoA1pp_16lb_observability19tracing_propagation17parse_traceparent0B5_
FN:166,_RNCNvNtCsjqkoZuoA1pp_16lb_observability19tracing_propagation17parse_traceparents_0B5_
FN:239,_RINvNtCsjqkoZuoA1pp_16lb_observability19tracing_propagation11inject_intopEB4_
FN:210,_RINvNtCsjqkoZuoA1pp_16lb_observability19tracing_propagation14extract_parentpEB4_
FN:214,_RNCINvNtCsjqkoZuoA1pp_16lb_observability19tracing_propagation14extract_parentpE0B6_
FNDA:12,_RINvNtCsjqkoZuoA1pp_16lb_observability19tracing_propagation11inject_intoNtNtCsiFMhfKJXoB5_5lb_l79trace_ctx12HyperHeadersEB1c_
FNDA:12,_RINvNtCsjqkoZuoA1pp_16lb_observability19tracing_propagation14extract_parentNtNtCsiFMhfKJXoB5_5lb_l79trace_ctx15HyperHeadersRefEB1f_
FNDA:0,_RNCINvNtCsjqkoZuoA1pp_16lb_observability19tracing_propagation14extract_parentNtNtCsiFMhfKJXoB5_5lb_l79trace_ctx15HyperHeadersRefE0B1h_
FNDA:0,_RNvMNtCsjqkoZuoA1pp_16lb_observability19tracing_propagationNtB2_10OtlpConfig8disabled
FNDA:0,_RNvMs_NtCsjqkoZuoA1pp_16lb_observability19tracing_propagationNtB4_12TraceContext7sampled
FNDA:12,_RNvMs_NtCsjqkoZuoA1pp_16lb_observability19tracing_propagationNtB4_12TraceContext9to_header
FNDA:600,_RNvNtCsjqkoZuoA1pp_16lb_observability19tracing_propagation10hex_nibble
FNDA:0,_RNvNtCsjqkoZuoA1pp_16lb_observability19tracing_propagation15decode_hex_byte
FNDA:0,_RNvNtCsjqkoZuoA1pp_16lb_observability19tracing_propagation17decode_hex_nibble
FNDA:0,_RNvNtCsjqkoZuoA1pp_16lb_observability19tracing_propagation17parse_traceparent
FNDA:0,_RNvNtCsjqkoZuoA1pp_16lb_observability19tracing_propagation9span_name
FNDA:0,_RNCNvNtCsjqkoZuoA1pp_16lb_observability19tracing_propagation17parse_traceparent0B5_
FNDA:0,_RNCNvNtCsjqkoZuoA1pp_16lb_observability19tracing_propagation17parse_traceparents_0B5_
FNDA:0,_RINvNtCsjqkoZuoA1pp_16lb_observability19tracing_propagation11inject_intopEB4_
FNDA:0,_RINvNtCsjqkoZuoA1pp_16lb_observability19tracing_propagation14extract_parentpEB4_
FNDA:0,_RNCINvNtCsjqkoZuoA1pp_16lb_observability19tracing_propagation14extract_parentpE0B6_
FNF:13
FNH:4
DA:53,0
DA:54,0
DA:55,0
DA:56,0
DA:57,0
DA:58,0
DA:76,0
DA:77,0
DA:78,0
DA:83,12
DA:84,12
DA:85,12
DA:86,204
DA:87,192
DA:88,192
DA:89,192
DA:90,192
DA:91,12
DA:92,108
DA:93,96
DA:94,96
DA:95,96
DA:96,12
DA:97,12
DA:98,12
DA:99,12
DA:100,12
DA:103,600
DA:104,600
DA:105,49
DA:106,41
DA:107,56
DA:108,32
DA:109,29
DA:110,46
DA:111,38
DA:112,28
DA:113,26
DA:114,25
DA:115,30
DA:116,21
DA:117,48
DA:118,58
DA:119,35
DA:120,38
DA:122,600
DA:129,0
DA:130,0
DA:131,0
DA:132,0
DA:133,0
DA:134,0
DA:135,0
DA:136,0
DA:137,0
DA:138,0
DA:139,0
DA:140,0
DA:141,0
DA:142,0
DA:144,0
DA:145,0
DA:146,0
DA:149,0
DA:150,0
DA:151,0
DA:152,0
DA:153,0
DA:154,0
DA:155,0
DA:157,0
DA:158,0
DA:159,0
DA:160,0
DA:161,0
DA:162,0
DA:163,0
DA:164,0
DA:166,0
DA:167,0
DA:168,0
DA:169,0
DA:170,0
DA:171,0
DA:172,0
DA:173,0
DA:174,0
DA:175,0
DA:177,0
DA:178,0
DA:179,0
DA:180,0
DA:181,0
DA:183,0
DA:184,0
DA:185,0
DA:186,0
DA:187,0
DA:188,0
DA:190,0
DA:210,12
DA:211,12
DA:212,12
DA:213,12
DA:214,12
DA:215,12
DA:216,12
DA:217,12
DA:218,12
DA:219,12
DA:220,12
DA:221,12
DA:239,12
DA:240,12
DA:241,12
DA:242,12
DA:243,12
DA:244,12
DA:245,12
DA:246,12
DA:247,0
DA:248,0
DA:249,0
DA:250,0
DA:251,12
DA:252,12
DA:262,0
DA:263,0
DA:264,0
BRF:0
BRH:0
LF:132
LH:59
end_of_record
SF:/home/ubuntu/Code/s8-verifier/crates/lb-observability/src/xdp_metrics.rs
FN:226,_RNvNtCsjqkoZuoA1pp_16lb_observability11xdp_metrics17__gauge_vec_anchor
FNDA:0,_RNvNtCsjqkoZuoA1pp_16lb_observability11xdp_metrics17__gauge_vec_anchor
FNF:1
FNH:0
DA:226,0
BRF:0
BRH:0
LF:1
LH:0
end_of_record
SF:/home/ubuntu/Code/s8-verifier/crates/lb-quic/src/cleanup_guard.rs
FN:59,_RNvMNtCs5ctNHRYimvA_7lb_quic13cleanup_guardINtB2_13CidEntryGuardppE6disarmB4_
FN:50,_RNvMNtCs5ctNHRYimvA_7lb_quic13cleanup_guardINtB2_13CidEntryGuardINtNtCs8GO9KFlE3Dq_5alloc3vec3VechEINtNtNtNtCsfWKKmeeA0Vo_5tokio4sync4mpsc7bounded6SenderNtNtB4_10conn_actor13InboundPacketEE3newB4_
FN:68,_RNvXs_NtCs5ctNHRYimvA_7lb_quic13cleanup_guardINtB4_13CidEntryGuardINtNtCs8GO9KFlE3Dq_5alloc3vec3VechEINtNtNtNtCsfWKKmeeA0Vo_5tokio4sync4mpsc7bounded6SenderNtNtB6_10conn_actor13InboundPacketEENtNtNtCs2va5m0jqTTM_4core3ops4drop4Drop4dropB6_
FNDA:0,_RNvMNtCs5ctNHRYimvA_7lb_quic13cleanup_guardINtB2_13CidEntryGuardppE6disarmB4_
FNDA:0,_RNvMNtCs5ctNHRYimvA_7lb_quic13cleanup_guardINtB2_13CidEntryGuardINtNtCs8GO9KFlE3Dq_5alloc3vec3VechEINtNtNtNtCsfWKKmeeA0Vo_5tokio4sync4mpsc7bounded6SenderNtNtB4_10conn_actor13InboundPacketEE3newB4_
FNDA:0,_RNvXs_NtCs5ctNHRYimvA_7lb_quic13cleanup_guardINtB4_13CidEntryGuardINtNtCs8GO9KFlE3Dq_5alloc3vec3VechEINtNtNtNtCsfWKKmeeA0Vo_5tokio4sync4mpsc7bounded6SenderNtNtB6_10conn_actor13InboundPacketEENtNtNtCs2va5m0jqTTM_4core3ops4drop4Drop4dropB6_
FNF:3
FNH:0
DA:50,0
DA:51,0
DA:52,0
DA:53,0
DA:54,0
DA:55,0
DA:59,0
DA:60,0
DA:61,0
DA:68,0
DA:69,0
DA:70,0
DA:71,0
DA:72,0
DA:73,0
DA:74,0
DA:75,0
DA:77,0
BRF:0
BRH:0
LF:18
LH:0
end_of_record
SF:/home/ubuntu/Code/s8-verifier/crates/lb-quic/src/conn_actor.rs
FN:1226,_RNCNCNvNtCs5ctNHRYimvA_7lb_quic10conn_actor26record_retained_for_stream00B7_
FN:210,_RNCNCNvNtCs5ctNHRYimvA_7lb_quic10conn_actor9run_actor00B7_
FN:300,_RNCNCNvNtCs5ctNHRYimvA_7lb_quic10conn_actor9run_actor0s_0B7_
FN:680,_RNCNvNtCs5ctNHRYimvA_7lb_quic10conn_actor15drain_conn_send0B5_
FN:648,_RNCNvNtCs5ctNHRYimvA_7lb_quic10conn_actor20graceful_h3_shutdown0B5_
FN:615,_RNCNvNtCs5ctNHRYimvA_7lb_quic10conn_actor21drain_streams_to_conn0B5_
FN:1224,_RNCNvNtCs5ctNHRYimvA_7lb_quic10conn_actor26record_retained_for_stream0B5_
FN:1237,_RNCNvNtCs5ctNHRYimvA_7lb_quic10conn_actor26record_retained_for_streams_0B5_
FN:789,_RNCNvNtCs5ctNHRYimvA_7lb_quic10conn_actor7poll_h30B5_
FN:894,_RNCNvNtCs5ctNHRYimvA_7lb_quic10conn_actor7poll_h3s0_0B5_
FN:970,_RNCNvNtCs5ctNHRYimvA_7lb_quic10conn_actor7poll_h3s1_0B5_
FN:818,_RNCNvNtCs5ctNHRYimvA_7lb_quic10conn_actor7poll_h3s_0B5_
FN:139,_RNCNvNtCs5ctNHRYimvA_7lb_quic10conn_actor9run_actor0B5_
FN:491,_RNvMNtCs5ctNHRYimvA_7lb_quic10conn_actorNtB2_8StreamTx11progressive
FN:482,_RNvMNtCs5ctNHRYimvA_7lb_quic10conn_actorNtB2_8StreamTx3new
FN:1247,_RNvNtCs5ctNHRYimvA_7lb_quic10conn_actor13flush_pending
FN:1290,_RNvNtCs5ctNHRYimvA_7lb_quic10conn_actor14select_backend
FN:680,_RNvNtCs5ctNHRYimvA_7lb_quic10conn_actor15drain_conn_send
FN:1065,_RNvNtCs5ctNHRYimvA_7lb_quic10conn_actor17drain_body_stream
FN:1154,_RNvNtCs5ctNHRYimvA_7lb_quic10conn_actor19decode_into_pending
FN:365,_RNvNtCs5ctNHRYimvA_7lb_quic10conn_actor19drain_resp_channels
FN:644,_RNvNtCs5ctNHRYimvA_7lb_quic10conn_actor20graceful_h3_shutdown
FN:504,_RNvNtCs5ctNHRYimvA_7lb_quic10conn_actor21drain_streams_to_conn
FN:1215,_RNvNtCs5ctNHRYimvA_7lb_quic10conn_actor26record_retained_for_stream
FN:318,_RNvNtCs5ctNHRYimvA_7lb_quic10conn_actor31reap_client_cancelled_responses
FN:703,_RNvNtCs5ctNHRYimvA_7lb_quic10conn_actor7poll_h3
FN:139,_RNvNtCs5ctNHRYimvA_7lb_quic10conn_actor9run_actor
FNDA:0,_RNCNCNvNtCs5ctNHRYimvA_7lb_quic10conn_actor26record_retained_for_stream00B7_
FNDA:0,_RNCNCNvNtCs5ctNHRYimvA_7lb_quic10conn_actor9run_actor00B7_
FNDA:0,_RNCNCNvNtCs5ctNHRYimvA_7lb_quic10conn_actor9run_actor0s_0B7_
FNDA:0,_RNCNvNtCs5ctNHRYimvA_7lb_quic10conn_actor15drain_conn_send0B5_
FNDA:0,_RNCNvNtCs5ctNHRYimvA_7lb_quic10conn_actor20graceful_h3_shutdown0B5_
FNDA:0,_RNCNvNtCs5ctNHRYimvA_7lb_quic10conn_actor21drain_streams_to_conn0B5_
FNDA:0,_RNCNvNtCs5ctNHRYimvA_7lb_quic10conn_actor26record_retained_for_stream0B5_
FNDA:0,_RNCNvNtCs5ctNHRYimvA_7lb_quic10conn_actor26record_retained_for_streams_0B5_
FNDA:0,_RNCNvNtCs5ctNHRYimvA_7lb_quic10conn_actor7poll_h30B5_
FNDA:0,_RNCNvNtCs5ctNHRYimvA_7lb_quic10conn_actor7poll_h3s0_0B5_
FNDA:0,_RNCNvNtCs5ctNHRYimvA_7lb_quic10conn_actor7poll_h3s1_0B5_
FNDA:0,_RNCNvNtCs5ctNHRYimvA_7lb_quic10conn_actor7poll_h3s_0B5_
FNDA:0,_RNCNvNtCs5ctNHRYimvA_7lb_quic10conn_actor9run_actor0B5_
FNDA:0,_RNvMNtCs5ctNHRYimvA_7lb_quic10conn_actorNtB2_8StreamTx11progressive
FNDA:0,_RNvMNtCs5ctNHRYimvA_7lb_quic10conn_actorNtB2_8StreamTx3new
FNDA:0,_RNvNtCs5ctNHRYimvA_7lb_quic10conn_actor13flush_pending
FNDA:0,_RNvNtCs5ctNHRYimvA_7lb_quic10conn_actor14select_backend
FNDA:0,_RNvNtCs5ctNHRYimvA_7lb_quic10conn_actor15drain_conn_send
FNDA:0,_RNvNtCs5ctNHRYimvA_7lb_quic10conn_actor17drain_body_stream
FNDA:0,_RNvNtCs5ctNHRYimvA_7lb_quic10conn_actor19decode_into_pending
FNDA:0,_RNvNtCs5ctNHRYimvA_7lb_quic10conn_actor19drain_resp_channels
FNDA:0,_RNvNtCs5ctNHRYimvA_7lb_quic10conn_actor20graceful_h3_shutdown
FNDA:0,_RNvNtCs5ctNHRYimvA_7lb_quic10conn_actor21drain_streams_to_conn
FNDA:0,_RNvNtCs5ctNHRYimvA_7lb_quic10conn_actor26record_retained_for_stream
FNDA:0,_RNvNtCs5ctNHRYimvA_7lb_quic10conn_actor31reap_client_cancelled_responses
FNDA:0,_RNvNtCs5ctNHRYimvA_7lb_quic10conn_actor7poll_h3
FNDA:0,_RNvNtCs5ctNHRYimvA_7lb_quic10conn_actor9run_actor
FNF:27
FNH:0
DA:139,0
DA:140,0
DA:141,0
DA:142,0
DA:143,0
DA:144,0
DA:145,0
DA:146,0
DA:147,0
DA:148,0
DA:149,0
DA:150,0
DA:151,0
DA:152,0
DA:153,0
DA:154,0
DA:155,0
DA:156,0
DA:157,0
DA:158,0
DA:159,0
DA:160,0
DA:161,0
DA:162,0
DA:163,0
DA:164,0
DA:165,0
DA:166,0
DA:167,0
DA:168,0
DA:169,0
DA:170,0
DA:171,0
DA:176,0
DA:177,0
DA:179,0
DA:180,0
DA:181,0
DA:182,0
DA:183,0
DA:184,0
DA:185,0
DA:186,0
DA:187,0
DA:188,0
DA:189,0
DA:190,0
DA:191,0
DA:192,0
DA:193,0
DA:194,0
DA:195,0
DA:196,0
DA:197,0
DA:198,0
DA:199,0
DA:200,0
DA:201,0
DA:202,0
DA:203,0
DA:204,0
DA:205,0
DA:210,0
DA:211,0
DA:212,0
DA:217,0
DA:218,0
DA:219,0
DA:220,0
DA:222,0
DA:223,0
DA:224,0
DA:225,0
DA:226,0
DA:227,0
DA:230,0
DA:233,0
DA:235,0
DA:237,0
DA:238,0
DA:239,0
DA:241,0
DA:242,0
DA:243,0
DA:244,0
DA:245,0
DA:246,0
DA:247,0
DA:251,0
DA:252,0
DA:253,0
DA:254,0
DA:256,0
DA:257,0
DA:258,0
DA:262,0
DA:263,0
DA:264,0
DA:265,0
DA:266,0
DA:267,0
DA:268,0
DA:269,0
DA:270,0
DA:271,0
DA:272,0
DA:273,0
DA:274,0
DA:275,0
DA:276,0
DA:277,0
DA:283,0
DA:284,0
DA:285,0
DA:286,0
DA:287,0
DA:288,0
DA:289,0
DA:290,0
DA:291,0
DA:292,0
DA:293,0
DA:294,0
DA:295,0
DA:296,0
DA:297,0
DA:298,0
DA:299,0
DA:300,0
DA:302,0
DA:303,0
DA:318,0
DA:319,0
DA:320,0
DA:321,0
DA:322,0
DA:323,0
DA:324,0
DA:325,0
DA:326,0
DA:327,0
DA:330,0
DA:331,0
DA:333,0
DA:335,0
DA:338,0
DA:339,0
DA:340,0
DA:341,0
DA:342,0
DA:343,0
DA:344,0
DA:345,0
DA:365,0
DA:366,0
DA:367,0
DA:368,0
DA:369,0
DA:370,0
DA:374,0
DA:375,0
DA:376,0
DA:378,0
DA:379,0
DA:380,0
DA:381,0
DA:382,0
DA:384,0
DA:386,0
DA:390,0
DA:391,0
DA:392,0
DA:393,0
DA:394,0
DA:395,0
DA:396,0
DA:397,0
DA:404,0
DA:405,0
DA:406,0
DA:407,0
DA:408,0
DA:409,0
DA:410,0
DA:411,0
DA:412,0
DA:413,0
DA:414,0
DA:428,0
DA:429,0
DA:430,0
DA:431,0
DA:432,0
DA:434,0
DA:435,0
DA:436,0
DA:437,0
DA:438,0
DA:439,0
DA:440,0
DA:441,0
DA:442,0
DA:482,0
DA:483,0
DA:484,0
DA:485,0
DA:486,0
DA:487,0
DA:488,0
DA:491,0
DA:492,0
DA:493,0
DA:494,0
DA:495,0
DA:496,0
DA:497,0
DA:498,0
DA:504,0
DA:505,0
DA:506,0
DA:507,0
DA:511,0
DA:512,0
DA:513,0
DA:514,0
DA:515,0
DA:516,0
DA:517,0
DA:519,0
DA:520,0
DA:523,0
DA:524,0
DA:525,0
DA:526,0
DA:527,0
DA:528,0
DA:529,0
DA:532,0
DA:533,0
DA:534,0
DA:535,0
DA:536,0
DA:537,0
DA:538,0
DA:539,0
DA:540,0
DA:541,0
DA:542,0
DA:549,0
DA:550,0
DA:551,0
DA:552,0
DA:553,0
DA:554,0
DA:555,0
DA:556,0
DA:560,0
DA:561,0
DA:562,0
DA:563,0
DA:564,0
DA:565,0
DA:566,0
DA:567,0
DA:568,0
DA:569,0
DA:570,0
DA:572,0
DA:573,0
DA:574,0
DA:578,0
DA:582,0
DA:583,0
DA:584,0
DA:585,0
DA:588,0
DA:589,0
DA:590,0
DA:593,0
DA:594,0
DA:595,0
DA:596,0
DA:599,0
DA:600,0
DA:601,0
DA:605,0
DA:608,0
DA:609,0
DA:610,0
DA:611,0
DA:613,0
DA:615,0
DA:616,0
DA:617,0
DA:618,0
DA:619,0
DA:644,0
DA:645,0
DA:646,0
DA:647,0
DA:648,0
DA:649,0
DA:650,0
DA:651,0
DA:652,0
DA:655,0
DA:657,0
DA:658,0
DA:659,0
DA:660,0
DA:661,0
DA:662,0
DA:663,0
DA:665,0
DA:666,0
DA:667,0
DA:668,0
DA:669,0
DA:670,0
DA:671,0
DA:672,0
DA:673,0
DA:674,0
DA:676,0
DA:680,0
DA:682,0
DA:683,0
DA:684,0
DA:685,0
DA:686,0
DA:687,0
DA:688,0
DA:690,0
DA:691,0
DA:692,0
DA:693,0
DA:697,0
DA:703,0
DA:704,0
DA:705,0
DA:706,0
DA:707,0
DA:708,0
DA:709,0
DA:710,0
DA:711,0
DA:712,0
DA:713,0
DA:714,0
DA:715,0
DA:716,0
DA:717,0
DA:718,0
DA:719,0
DA:720,0
DA:721,0
DA:722,0
DA:723,0
DA:724,0
DA:725,0
DA:726,0
DA:727,0
DA:728,0
DA:729,0
DA:730,0
DA:731,0
DA:732,0
DA:733,0
DA:734,0
DA:735,0
DA:736,0
DA:738,0
DA:739,0
DA:748,0
DA:749,0
DA:750,0
DA:751,0
DA:752,0
DA:754,0
DA:755,0
DA:756,0
DA:757,0
DA:758,0
DA:759,0
DA:760,0
DA:761,0
DA:762,0
DA:763,0
DA:764,0
DA:765,0
DA:766,0
DA:767,0
DA:768,0
DA:769,0
DA:770,0
DA:771,0
DA:772,0
DA:773,0
DA:774,0
DA:775,0
DA:776,0
DA:777,0
DA:778,0
DA:779,0
DA:780,0
DA:784,0
DA:785,0
DA:787,0
DA:788,0
DA:789,0
DA:790,0
DA:791,0
DA:792,0
DA:809,0
DA:810,0
DA:811,0
DA:812,0
DA:813,0
DA:814,0
DA:815,0
DA:816,0
DA:817,0
DA:818,0
DA:819,0
DA:820,0
DA:821,0
DA:822,0
DA:823,0
DA:824,0
DA:825,0
DA:826,0
DA:827,0
DA:829,0
DA:832,0
DA:834,0
DA:835,0
DA:836,0
DA:837,0
DA:838,0
DA:839,0
DA:840,0
DA:841,0
DA:842,0
DA:843,0
DA:844,0
DA:845,0
DA:846,0
DA:847,0
DA:848,0
DA:849,0
DA:850,0
DA:851,0
DA:852,0
DA:853,0
DA:854,0
DA:855,0
DA:856,0
DA:857,0
DA:858,0
DA:859,0
DA:862,0
DA:863,0
DA:884,0
DA:885,0
DA:886,0
DA:887,0
DA:888,0
DA:889,0
DA:890,0
DA:891,0
DA:892,0
DA:893,0
DA:894,0
DA:895,0
DA:896,0
DA:897,0
DA:898,0
DA:899,0
DA:900,0
DA:901,0
DA:902,0
DA:903,0
DA:904,0
DA:906,0
DA:909,0
DA:911,0
DA:912,0
DA:913,0
DA:914,0
DA:915,0
DA:916,0
DA:917,0
DA:918,0
DA:919,0
DA:920,0
DA:921,0
DA:922,0
DA:923,0
DA:924,0
DA:925,0
DA:926,0
DA:927,0
DA:928,0
DA:929,0
DA:930,0
DA:931,0
DA:932,0
DA:933,0
DA:934,0
DA:935,0
DA:936,0
DA:939,0
DA:940,0
DA:941,0
DA:942,0
DA:943,0
DA:964,0
DA:965,0
DA:966,0
DA:967,0
DA:968,0
DA:969,0
DA:970,0
DA:971,0
DA:972,0
DA:973,0
DA:974,0
DA:975,0
DA:976,0
DA:977,0
DA:978,0
DA:979,0
DA:981,0
DA:984,0
DA:986,0
DA:987,0
DA:988,0
DA:989,0
DA:990,0
DA:991,0
DA:992,0
DA:993,0
DA:994,0
DA:995,0
DA:996,0
DA:997,0
DA:998,0
DA:999,0
DA:1000,0
DA:1001,0
DA:1002,0
DA:1003,0
DA:1004,0
DA:1005,0
DA:1006,0
DA:1007,0
DA:1008,0
DA:1009,0
DA:1010,0
DA:1011,0
DA:1012,0
DA:1015,0
DA:1018,0
DA:1022,0
DA:1023,0
DA:1024,0
DA:1026,0
DA:1027,0
DA:1031,0
DA:1038,0
DA:1039,0
DA:1042,0
DA:1043,0
DA:1045,0
DA:1046,0
DA:1048,0
DA:1049,0
DA:1050,0
DA:1051,0
DA:1056,0
DA:1065,0
DA:1066,0
DA:1067,0
DA:1068,0
DA:1069,0
DA:1070,0
DA:1071,0
DA:1072,0
DA:1075,0
DA:1076,0
DA:1078,0
DA:1079,0
DA:1080,0
DA:1081,0
DA:1082,0
DA:1083,0
DA:1084,0
DA:1085,0
DA:1086,0
DA:1087,0
DA:1088,0
DA:1089,0
DA:1090,0
DA:1091,0
DA:1092,0
DA:1093,0
DA:1094,0
DA:1095,0
DA:1096,0
DA:1097,0
DA:1098,0
DA:1099,0
DA:1102,0
DA:1103,0
DA:1121,0
DA:1122,0
DA:1125,0
DA:1126,0
DA:1128,0
DA:1129,0
DA:1130,0
DA:1131,0
DA:1132,0
DA:1133,0
DA:1135,0
DA:1136,0
DA:1137,0
DA:1138,0
DA:1139,0
DA:1140,0
DA:1141,0
DA:1142,0
DA:1146,0
DA:1154,0
DA:1155,0
DA:1156,0
DA:1157,0
DA:1158,0
DA:1159,0
DA:1160,0
DA:1161,0
DA:1162,0
DA:1163,0
DA:1165,0
DA:1166,0
DA:1167,0
DA:1168,0
DA:1169,0
DA:1170,0
DA:1171,0
DA:1172,0
DA:1173,0
DA:1174,0
DA:1177,0
DA:1178,0
DA:1179,0
DA:1180,0
DA:1181,0
DA:1182,0
DA:1186,0
DA:1187,0
DA:1188,0
DA:1189,0
DA:1190,0
DA:1191,0
DA:1195,0
DA:1196,0
DA:1197,0
DA:1198,0
DA:1199,0
DA:1200,0
DA:1201,0
DA:1209,0
DA:1210,0
DA:1215,0
DA:1216,0
DA:1217,0
DA:1218,0
DA:1219,0
DA:1220,0
DA:1221,0
DA:1222,0
DA:1223,0
DA:1224,0
DA:1225,0
DA:1226,0
DA:1227,0
DA:1228,0
DA:1229,0
DA:1230,0
DA:1231,0
DA:1232,0
DA:1233,0
DA:1234,0
DA:1235,0
DA:1236,0
DA:1237,0
DA:1238,0
DA:1239,0
DA:1240,0
DA:1247,0
DA:1248,0
DA:1249,0
DA:1250,0
DA:1251,0
DA:1252,0
DA:1253,0
DA:1254,0
DA:1256,0
DA:1257,0
DA:1259,0
DA:1260,0
DA:1261,0
DA:1262,0
DA:1265,0
DA:1266,0
DA:1267,0
DA:1268,0
DA:1269,0
DA:1270,0
DA:1271,0
DA:1273,0
DA:1276,0
DA:1277,0
DA:1281,0
DA:1282,0
DA:1283,0
DA:1284,0
DA:1285,0
DA:1290,0
DA:1291,0
DA:1292,0
BRF:0
BRH:0
LF:751
LH:0
end_of_record
SF:/home/ubuntu/Code/s8-verifier/crates/lb-quic/src/h3_bridge.rs
FN:2489,_RNCNvNtCs5ctNHRYimvA_7lb_quic9h3_bridge19request_h3_upstream0CsiFMhfKJXoB5_5lb_l7
FN:707,_RNvMs1_NtCs5ctNHRYimvA_7lb_quic9h3_bridgeNtB5_9H3Request12from_headers
FN:1050,_RNvMs2_NtCs5ctNHRYimvA_7lb_quic9h3_bridgeNtB5_12ChunkDecoder13take_trailers
FN:1160,_RNvMs2_NtCs5ctNHRYimvA_7lb_quic9h3_bridgeNtB5_12ChunkDecoder21parse_trailer_section
FN:1036,_RNvMs2_NtCs5ctNHRYimvA_7lb_quic9h3_bridgeNtB5_12ChunkDecoder3new
FN:1058,_RNvMs2_NtCs5ctNHRYimvA_7lb_quic9h3_bridgeNtB5_12ChunkDecoder4feed
FN:571,_RNvMs_NtCs5ctNHRYimvA_7lb_quic9h3_bridgeNtB4_11StreamRxBuf12is_too_large
FN:584,_RNvMs_NtCs5ctNHRYimvA_7lb_quic9h3_bridgeNtB4_11StreamRxBuf14retained_bytes
FN:553,_RNvMs_NtCs5ctNHRYimvA_7lb_quic9h3_bridgeNtB4_11StreamRxBuf22try_parse_frame_header
FN:326,_RNvMs_NtCs5ctNHRYimvA_7lb_quic9h3_bridgeNtB4_11StreamRxBuf4feed
FN:377,_RNvMs_NtCs5ctNHRYimvA_7lb_quic9h3_bridgeNtB4_11StreamRxBuf9feed_body
FN:2131,_RNvNCNvNtCs5ctNHRYimvA_7lb_quic9h3_bridge20h3_to_h1_stream_resp06inline
FN:2388,_RNvNCNvNtCs5ctNHRYimvA_7lb_quic9h3_bridge20h3_to_h2_stream_resp06inline
FN:2785,_RNvNCNvNtCs5ctNHRYimvA_7lb_quic9h3_bridge20h3_to_h3_stream_resp06inline
FN:1737,_RNvNtCs5ctNHRYimvA_7lb_quic9h3_bridge13build_h1_head
FN:3558,_RNvNtCs5ctNHRYimvA_7lb_quic9h3_bridge15check_block_len
FN:865,_RNvNtCs5ctNHRYimvA_7lb_quic9h3_bridge15find_header_sep
FN:2039,_RNvNtCs5ctNHRYimvA_7lb_quic9h3_bridge15h3_to_h1_stream
FN:1782,_RNvNtCs5ctNHRYimvA_7lb_quic9h3_bridge15record_inflight
FN:611,_RNvNtCs5ctNHRYimvA_7lb_quic9h3_bridge15record_retained
FN:754,_RNvNtCs5ctNHRYimvA_7lb_quic9h3_bridge16build_h1_request
FN:801,_RNvNtCs5ctNHRYimvA_7lb_quic9h3_bridge16read_h1_response
FN:1806,_RNvNtCs5ctNHRYimvA_7lb_quic9h3_bridge16write_body_chunk
FN:1877,_RNvNtCs5ctNHRYimvA_7lb_quic9h3_bridge16write_h1_request
FN:3609,_RNvNtCs5ctNHRYimvA_7lb_quic9h3_bridge17classify_recv_err
FN:869,_RNvNtCs5ctNHRYimvA_7lb_quic9h3_bridge17parse_status_line
FN:892,_RNvNtCs5ctNHRYimvA_7lb_quic9h3_bridge18encode_h3_response
FN:1685,_RNvNtCs5ctNHRYimvA_7lb_quic9h3_bridge18h3_to_h1_roundtrip
FN:3623,_RNvNtCs5ctNHRYimvA_7lb_quic9h3_bridge18parse_frame_header
FN:1239,_RNvNtCs5ctNHRYimvA_7lb_quic9h3_bridge18stream_h1_response
FN:1549,_RNvNtCs5ctNHRYimvA_7lb_quic9h3_bridge18stream_h2_response
FN:3541,_RNvNtCs5ctNHRYimvA_7lb_quic9h3_bridge19j2_req_event_action
FN:2482,_RNvNtCs5ctNHRYimvA_7lb_quic9h3_bridge19request_h3_upstream
FN:942,_RNvNtCs5ctNHRYimvA_7lb_quic9h3_bridge20encode_h3_data_frame
FN:2120,_RNvNtCs5ctNHRYimvA_7lb_quic9h3_bridge20h3_to_h1_stream_resp
FN:2377,_RNvNtCs5ctNHRYimvA_7lb_quic9h3_bridge20h3_to_h2_stream_resp
FN:2773,_RNvNtCs5ctNHRYimvA_7lb_quic9h3_bridge20h3_to_h3_stream_resp
FN:648,_RNvNtCs5ctNHRYimvA_7lb_quic9h3_bridge20record_resp_retained
FN:919,_RNvNtCs5ctNHRYimvA_7lb_quic9h3_bridge23encode_h3_headers_frame
FN:2309,_RNvNtCs5ctNHRYimvA_7lb_quic9h3_bridge23h2_request_body_from_rx
FN:818,_RNvNtCs5ctNHRYimvA_7lb_quic9h3_bridge23read_h1_response_capped
FN:965,_RNvNtCs5ctNHRYimvA_7lb_quic9h3_bridge24encode_h3_trailers_frame
FN:279,_RNvXNtCs5ctNHRYimvA_7lb_quic9h3_bridgeNtB2_9BodyParseNtNtCs2va5m0jqTTM_4core7default7Default7default
FN:690,_RNvXs0_NtCs5ctNHRYimvA_7lb_quic9h3_bridgeNtB5_9H3RequestNtNtCs2va5m0jqTTM_4core7default7Default7default
FN:2198,_RNvXs3_NtCs5ctNHRYimvA_7lb_quic9h3_bridgeNtB5_10H3ReqAbortNtNtCs2va5m0jqTTM_4core3fmt7Display3fmt
FN:2231,_RNvXs5_NtCs5ctNHRYimvA_7lb_quic9h3_bridgeNtB5_15H3ReqStreamBodyNtCsl5a7MsEZ2mF_9http_body4Body10poll_frame
FN:2454,_RNvXs6_NtCs5ctNHRYimvA_7lb_quic9h3_bridgeNtB5_18H3UpstreamResponseNtNtCs2va5m0jqTTM_4core7default7Default7default
FN:2058,_RNCNCNvNtCs5ctNHRYimvA_7lb_quic9h3_bridge15h3_to_h1_stream00B7_
FN:1702,_RNCNCNvNtCs5ctNHRYimvA_7lb_quic9h3_bridge18h3_to_h1_roundtrip00B7_
FN:825,_RNCNCNvNtCs5ctNHRYimvA_7lb_quic9h3_bridge23read_h1_response_capped00B7_
FN:848,_RNCNCNvNtCs5ctNHRYimvA_7lb_quic9h3_bridge23read_h1_response_capped0s0_0B7_
FN:845,_RNCNCNvNtCs5ctNHRYimvA_7lb_quic9h3_bridge23read_h1_response_capped0s_0B7_
FN:2045,_RNCNvNtCs5ctNHRYimvA_7lb_quic9h3_bridge15h3_to_h1_stream0B5_
FN:801,_RNCNvNtCs5ctNHRYimvA_7lb_quic9h3_bridge16read_h1_response0B5_
FN:1690,_RNCNvNtCs5ctNHRYimvA_7lb_quic9h3_bridge18h3_to_h1_roundtrip0B5_
FN:2489,_RNCNvNtCs5ctNHRYimvA_7lb_quic9h3_bridge19request_h3_upstream0B5_
FN:818,_RNCNvNtCs5ctNHRYimvA_7lb_quic9h3_bridge23read_h1_response_capped0B5_
FN:1298,_RNCNCNCNvNtCs5ctNHRYimvA_7lb_quic9h3_bridge18stream_h1_response0s_00B9_
FN:1634,_RNCNCNCNvNtCs5ctNHRYimvA_7lb_quic9h3_bridge18stream_h2_response0s1_00B9_
FN:1812,_RNCNCNvNtCs5ctNHRYimvA_7lb_quic9h3_bridge16write_body_chunk00B7_
FN:1814,_RNCNCNvNtCs5ctNHRYimvA_7lb_quic9h3_bridge16write_body_chunk0s0_0B7_
FN:1816,_RNCNCNvNtCs5ctNHRYimvA_7lb_quic9h3_bridge16write_body_chunk0s1_0B7_
FN:1813,_RNCNCNvNtCs5ctNHRYimvA_7lb_quic9h3_bridge16write_body_chunk0s_0B7_
FN:1895,_RNCNCNvNtCs5ctNHRYimvA_7lb_quic9h3_bridge16write_h1_request00B7_
FN:1283,_RNCNCNvNtCs5ctNHRYimvA_7lb_quic9h3_bridge18stream_h1_response00B7_
FN:1248,_RNCNCNvNtCs5ctNHRYimvA_7lb_quic9h3_bridge18stream_h1_response0s0_0B7_
FN:1248,_RNCNCNvNtCs5ctNHRYimvA_7lb_quic9h3_bridge18stream_h1_response0s1_0B7_
FN:1248,_RNCNCNvNtCs5ctNHRYimvA_7lb_quic9h3_bridge18stream_h1_response0s2_0B7_
FN:1248,_RNCNCNvNtCs5ctNHRYimvA_7lb_quic9h3_bridge18stream_h1_response0s3_0B7_
FN:1248,_RNCNCNvNtCs5ctNHRYimvA_7lb_quic9h3_bridge18stream_h1_response0s4_0B7_
FN:1248,_RNCNCNvNtCs5ctNHRYimvA_7lb_quic9h3_bridge18stream_h1_response0s5_0B7_
FN:1248,_RNCNCNvNtCs5ctNHRYimvA_7lb_quic9h3_bridge18stream_h1_response0s6_0B7_
FN:1248,_RNCNCNvNtCs5ctNHRYimvA_7lb_quic9h3_bridge18stream_h1_response0s7_0B7_
FN:1248,_RNCNCNvNtCs5ctNHRYimvA_7lb_quic9h3_bridge18stream_h1_response0s8_0B7_
FN:1298,_RNCNCNvNtCs5ctNHRYimvA_7lb_quic9h3_bridge18stream_h1_response0s_0B7_
FN:1569,_RNCNCNvNtCs5ctNHRYimvA_7lb_quic9h3_bridge18stream_h2_response00B7_
FN:1630,_RNCNCNvNtCs5ctNHRYimvA_7lb_quic9h3_bridge18stream_h2_response0s0_0B7_
FN:1631,_RNCNCNvNtCs5ctNHRYimvA_7lb_quic9h3_bridge18stream_h2_response0s1_0B7_
FN:1556,_RNCNCNvNtCs5ctNHRYimvA_7lb_quic9h3_bridge18stream_h2_response0s2_0B7_
FN:1556,_RNCNCNvNtCs5ctNHRYimvA_7lb_quic9h3_bridge18stream_h2_response0s3_0B7_
FN:1556,_RNCNCNvNtCs5ctNHRYimvA_7lb_quic9h3_bridge18stream_h2_response0s4_0B7_
FN:1556,_RNCNCNvNtCs5ctNHRYimvA_7lb_quic9h3_bridge18stream_h2_response0s5_0B7_
FN:1570,_RNCNCNvNtCs5ctNHRYimvA_7lb_quic9h3_bridge18stream_h2_response0s_0B7_
FN:3290,_RNCNCNvNtCs5ctNHRYimvA_7lb_quic9h3_bridge20h3_to_h3_stream_resp00B7_
FN:2806,_RNCNCNvNtCs5ctNHRYimvA_7lb_quic9h3_bridge20h3_to_h3_stream_resp0s4_0B7_
FN:2806,_RNCNCNvNtCs5ctNHRYimvA_7lb_quic9h3_bridge20h3_to_h3_stream_resp0s5_0B7_
FN:2806,_RNCNCNvNtCs5ctNHRYimvA_7lb_quic9h3_bridge20h3_to_h3_stream_resp0s6_0B7_
FN:2806,_RNCNCNvNtCs5ctNHRYimvA_7lb_quic9h3_bridge20h3_to_h3_stream_resp0sa_0B7_
FN:724,_RNCNvMs1_NtCs5ctNHRYimvA_7lb_quic9h3_bridgeNtB7_9H3Request12from_headers0B9_
FN:725,_RNCNvMs1_NtCs5ctNHRYimvA_7lb_quic9h3_bridgeNtB7_9H3Request12from_headerss_0B9_
FN:1169,_RNCNvMs2_NtCs5ctNHRYimvA_7lb_quic9h3_bridgeNtB7_12ChunkDecoder21parse_trailer_section0B9_
FN:1184,_RNCNvMs2_NtCs5ctNHRYimvA_7lb_quic9h3_bridgeNtB7_12ChunkDecoder21parse_trailer_sections_0B9_
FN:1102,_RNCNvMs2_NtCs5ctNHRYimvA_7lb_quic9h3_bridgeNtB7_12ChunkDecoder4feed0B9_
FN:1118,_RNCNvMs2_NtCs5ctNHRYimvA_7lb_quic9h3_bridgeNtB7_12ChunkDecoder4feeds0_0B9_
FN:1124,_RNCNvMs2_NtCs5ctNHRYimvA_7lb_quic9h3_bridgeNtB7_12ChunkDecoder4feeds1_0B9_
FN:1116,_RNCNvMs2_NtCs5ctNHRYimvA_7lb_quic9h3_bridgeNtB7_12ChunkDecoder4feeds_0B9_
FN:342,_RNCNvMs_NtCs5ctNHRYimvA_7lb_quic9h3_bridgeNtB6_11StreamRxBuf4feed0B8_
FN:435,_RNCNvMs_NtCs5ctNHRYimvA_7lb_quic9h3_bridgeNtB6_11StreamRxBuf9feed_body0B8_
FN:518,_RNCNvMs_NtCs5ctNHRYimvA_7lb_quic9h3_bridgeNtB6_11StreamRxBuf9feed_bodys0_0B8_
FN:508,_RNCNvMs_NtCs5ctNHRYimvA_7lb_quic9h3_bridgeNtB6_11StreamRxBuf9feed_bodys_0B8_
FN:2131,_RNCNvNCNvNtCs5ctNHRYimvA_7lb_quic9h3_bridge20h3_to_h1_stream_resp06inline0B9_
FN:2388,_RNCNvNCNvNtCs5ctNHRYimvA_7lb_quic9h3_bridge20h3_to_h2_stream_resp06inline0B9_
FN:2785,_RNCNvNCNvNtCs5ctNHRYimvA_7lb_quic9h3_bridge20h3_to_h3_stream_resp06inline0B9_
FN:866,_RNCNvNtCs5ctNHRYimvA_7lb_quic9h3_bridge15find_header_sep0B5_
FN:1806,_RNCNvNtCs5ctNHRYimvA_7lb_quic9h3_bridge16write_body_chunk0B5_
FN:1881,_RNCNvNtCs5ctNHRYimvA_7lb_quic9h3_bridge16write_h1_request0B5_
FN:874,_RNCNvNtCs5ctNHRYimvA_7lb_quic9h3_bridge17parse_status_line0B5_
FN:1243,_RNCNvNtCs5ctNHRYimvA_7lb_quic9h3_bridge18stream_h1_response0B5_
FN:1553,_RNCNvNtCs5ctNHRYimvA_7lb_quic9h3_bridge18stream_h2_response0B5_
FN:946,_RNCNvNtCs5ctNHRYimvA_7lb_quic9h3_bridge20encode_h3_data_frame0B5_
FN:2127,_RNCNvNtCs5ctNHRYimvA_7lb_quic9h3_bridge20h3_to_h1_stream_resp0B5_
FN:2384,_RNCNvNtCs5ctNHRYimvA_7lb_quic9h3_bridge20h3_to_h2_stream_resp0B5_
FN:2781,_RNCNvNtCs5ctNHRYimvA_7lb_quic9h3_bridge20h3_to_h3_stream_resp0B5_
FN:930,_RNCNvNtCs5ctNHRYimvA_7lb_quic9h3_bridge23encode_h3_headers_frame0B5_
FN:931,_RNCNvNtCs5ctNHRYimvA_7lb_quic9h3_bridge23encode_h3_headers_frames_0B5_
FN:2354,_RNCNvNtCs5ctNHRYimvA_7lb_quic9h3_bridge23h2_request_body_from_rxs_0B5_
FN:968,_RNCNvNtCs5ctNHRYimvA_7lb_quic9h3_bridge24encode_h3_trailers_frame0B5_
FN:969,_RNCNvNtCs5ctNHRYimvA_7lb_quic9h3_bridge24encode_h3_trailers_frames_0B5_
FNDA:0,_RNCNvNtCs5ctNHRYimvA_7lb_quic9h3_bridge19request_h3_upstream0CsiFMhfKJXoB5_5lb_l7
FNDA:0,_RNvMs1_NtCs5ctNHRYimvA_7lb_quic9h3_bridgeNtB5_9H3Request12from_headers
FNDA:0,_RNvMs2_NtCs5ctNHRYimvA_7lb_quic9h3_bridgeNtB5_12ChunkDecoder13take_trailers
FNDA:0,_RNvMs2_NtCs5ctNHRYimvA_7lb_quic9h3_bridgeNtB5_12ChunkDecoder21parse_trailer_section
FNDA:0,_RNvMs2_NtCs5ctNHRYimvA_7lb_quic9h3_bridgeNtB5_12ChunkDecoder3new
FNDA:0,_RNvMs2_NtCs5ctNHRYimvA_7lb_quic9h3_bridgeNtB5_12ChunkDecoder4feed
FNDA:0,_RNvMs_NtCs5ctNHRYimvA_7lb_quic9h3_bridgeNtB4_11StreamRxBuf12is_too_large
FNDA:0,_RNvMs_NtCs5ctNHRYimvA_7lb_quic9h3_bridgeNtB4_11StreamRxBuf14retained_bytes
FNDA:0,_RNvMs_NtCs5ctNHRYimvA_7lb_quic9h3_bridgeNtB4_11StreamRxBuf22try_parse_frame_header
FNDA:0,_RNvMs_NtCs5ctNHRYimvA_7lb_quic9h3_bridgeNtB4_11StreamRxBuf4feed
FNDA:0,_RNvMs_NtCs5ctNHRYimvA_7lb_quic9h3_bridgeNtB4_11StreamRxBuf9feed_body
FNDA:0,_RNvNCNvNtCs5ctNHRYimvA_7lb_quic9h3_bridge20h3_to_h1_stream_resp06inline
FNDA:0,_RNvNCNvNtCs5ctNHRYimvA_7lb_quic9h3_bridge20h3_to_h2_stream_resp06inline
FNDA:0,_RNvNCNvNtCs5ctNHRYimvA_7lb_quic9h3_bridge20h3_to_h3_stream_resp06inline
FNDA:0,_RNvNtCs5ctNHRYimvA_7lb_quic9h3_bridge13build_h1_head
FNDA:0,_RNvNtCs5ctNHRYimvA_7lb_quic9h3_bridge15check_block_len
FNDA:0,_RNvNtCs5ctNHRYimvA_7lb_quic9h3_bridge15find_header_sep
FNDA:0,_RNvNtCs5ctNHRYimvA_7lb_quic9h3_bridge15h3_to_h1_stream
FNDA:0,_RNvNtCs5ctNHRYimvA_7lb_quic9h3_bridge15record_inflight
FNDA:0,_RNvNtCs5ctNHRYimvA_7lb_quic9h3_bridge15record_retained
FNDA:0,_RNvNtCs5ctNHRYimvA_7lb_quic9h3_bridge16build_h1_request
FNDA:0,_RNvNtCs5ctNHRYimvA_7lb_quic9h3_bridge16read_h1_response
FNDA:0,_RNvNtCs5ctNHRYimvA_7lb_quic9h3_bridge16write_body_chunk
FNDA:0,_RNvNtCs5ctNHRYimvA_7lb_quic9h3_bridge16write_h1_request
FNDA:0,_RNvNtCs5ctNHRYimvA_7lb_quic9h3_bridge17classify_recv_err
FNDA:0,_RNvNtCs5ctNHRYimvA_7lb_quic9h3_bridge17parse_status_line
FNDA:0,_RNvNtCs5ctNHRYimvA_7lb_quic9h3_bridge18encode_h3_response
FNDA:0,_RNvNtCs5ctNHRYimvA_7lb_quic9h3_bridge18h3_to_h1_roundtrip
FNDA:0,_RNvNtCs5ctNHRYimvA_7lb_quic9h3_bridge18parse_frame_header
FNDA:0,_RNvNtCs5ctNHRYimvA_7lb_quic9h3_bridge18stream_h1_response
FNDA:0,_RNvNtCs5ctNHRYimvA_7lb_quic9h3_bridge18stream_h2_response
FNDA:0,_RNvNtCs5ctNHRYimvA_7lb_quic9h3_bridge19j2_req_event_action
FNDA:0,_RNvNtCs5ctNHRYimvA_7lb_quic9h3_bridge19request_h3_upstream
FNDA:0,_RNvNtCs5ctNHRYimvA_7lb_quic9h3_bridge20encode_h3_data_frame
FNDA:0,_RNvNtCs5ctNHRYimvA_7lb_quic9h3_bridge20h3_to_h1_stream_resp
FNDA:0,_RNvNtCs5ctNHRYimvA_7lb_quic9h3_bridge20h3_to_h2_stream_resp
FNDA:0,_RNvNtCs5ctNHRYimvA_7lb_quic9h3_bridge20h3_to_h3_stream_resp
FNDA:0,_RNvNtCs5ctNHRYimvA_7lb_quic9h3_bridge20record_resp_retained
FNDA:0,_RNvNtCs5ctNHRYimvA_7lb_quic9h3_bridge23encode_h3_headers_frame
FNDA:0,_RNvNtCs5ctNHRYimvA_7lb_quic9h3_bridge23h2_request_body_from_rx
FNDA:0,_RNvNtCs5ctNHRYimvA_7lb_quic9h3_bridge23read_h1_response_capped
FNDA:0,_RNvNtCs5ctNHRYimvA_7lb_quic9h3_bridge24encode_h3_trailers_frame
FNDA:0,_RNvXNtCs5ctNHRYimvA_7lb_quic9h3_bridgeNtB2_9BodyParseNtNtCs2va5m0jqTTM_4core7default7Default7default
FNDA:0,_RNvXs0_NtCs5ctNHRYimvA_7lb_quic9h3_bridgeNtB5_9H3RequestNtNtCs2va5m0jqTTM_4core7default7Default7default
FNDA:0,_RNvXs3_NtCs5ctNHRYimvA_7lb_quic9h3_bridgeNtB5_10H3ReqAbortNtNtCs2va5m0jqTTM_4core3fmt7Display3fmt
FNDA:0,_RNvXs5_NtCs5ctNHRYimvA_7lb_quic9h3_bridgeNtB5_15H3ReqStreamBodyNtCsl5a7MsEZ2mF_9http_body4Body10poll_frame
FNDA:0,_RNvXs6_NtCs5ctNHRYimvA_7lb_quic9h3_bridgeNtB5_18H3UpstreamResponseNtNtCs2va5m0jqTTM_4core7default7Default7default
FNDA:0,_RNCNCNvNtCs5ctNHRYimvA_7lb_quic9h3_bridge15h3_to_h1_stream00B7_
FNDA:0,_RNCNCNvNtCs5ctNHRYimvA_7lb_quic9h3_bridge18h3_to_h1_roundtrip00B7_
FNDA:0,_RNCNCNvNtCs5ctNHRYimvA_7lb_quic9h3_bridge23read_h1_response_capped00B7_
FNDA:0,_RNCNCNvNtCs5ctNHRYimvA_7lb_quic9h3_bridge23read_h1_response_capped0s0_0B7_
FNDA:0,_RNCNCNvNtCs5ctNHRYimvA_7lb_quic9h3_bridge23read_h1_response_capped0s_0B7_
FNDA:0,_RNCNvNtCs5ctNHRYimvA_7lb_quic9h3_bridge15h3_to_h1_stream0B5_
FNDA:0,_RNCNvNtCs5ctNHRYimvA_7lb_quic9h3_bridge16read_h1_response0B5_
FNDA:0,_RNCNvNtCs5ctNHRYimvA_7lb_quic9h3_bridge18h3_to_h1_roundtrip0B5_
FNDA:0,_RNCNvNtCs5ctNHRYimvA_7lb_quic9h3_bridge19request_h3_upstream0B5_
FNDA:0,_RNCNvNtCs5ctNHRYimvA_7lb_quic9h3_bridge23read_h1_response_capped0B5_
FNDA:0,_RNCNCNCNvNtCs5ctNHRYimvA_7lb_quic9h3_bridge18stream_h1_response0s_00B9_
FNDA:0,_RNCNCNCNvNtCs5ctNHRYimvA_7lb_quic9h3_bridge18stream_h2_response0s1_00B9_
FNDA:0,_RNCNCNvNtCs5ctNHRYimvA_7lb_quic9h3_bridge16write_body_chunk00B7_
FNDA:0,_RNCNCNvNtCs5ctNHRYimvA_7lb_quic9h3_bridge16write_body_chunk0s0_0B7_
FNDA:0,_RNCNCNvNtCs5ctNHRYimvA_7lb_quic9h3_bridge16write_body_chunk0s1_0B7_
FNDA:0,_RNCNCNvNtCs5ctNHRYimvA_7lb_quic9h3_bridge16write_body_chunk0s_0B7_
FNDA:0,_RNCNCNvNtCs5ctNHRYimvA_7lb_quic9h3_bridge16write_h1_request00B7_
FNDA:0,_RNCNCNvNtCs5ctNHRYimvA_7lb_quic9h3_bridge18stream_h1_response00B7_
FNDA:0,_RNCNCNvNtCs5ctNHRYimvA_7lb_quic9h3_bridge18stream_h1_response0s0_0B7_
FNDA:0,_RNCNCNvNtCs5ctNHRYimvA_7lb_quic9h3_bridge18stream_h1_response0s1_0B7_
FNDA:0,_RNCNCNvNtCs5ctNHRYimvA_7lb_quic9h3_bridge18stream_h1_response0s2_0B7_
FNDA:0,_RNCNCNvNtCs5ctNHRYimvA_7lb_quic9h3_bridge18stream_h1_response0s3_0B7_
FNDA:0,_RNCNCNvNtCs5ctNHRYimvA_7lb_quic9h3_bridge18stream_h1_response0s4_0B7_
FNDA:0,_RNCNCNvNtCs5ctNHRYimvA_7lb_quic9h3_bridge18stream_h1_response0s5_0B7_
FNDA:0,_RNCNCNvNtCs5ctNHRYimvA_7lb_quic9h3_bridge18stream_h1_response0s6_0B7_
FNDA:0,_RNCNCNvNtCs5ctNHRYimvA_7lb_quic9h3_bridge18stream_h1_response0s7_0B7_
FNDA:0,_RNCNCNvNtCs5ctNHRYimvA_7lb_quic9h3_bridge18stream_h1_response0s8_0B7_
FNDA:0,_RNCNCNvNtCs5ctNHRYimvA_7lb_quic9h3_bridge18stream_h1_response0s_0B7_
FNDA:0,_RNCNCNvNtCs5ctNHRYimvA_7lb_quic9h3_bridge18stream_h2_response00B7_
FNDA:0,_RNCNCNvNtCs5ctNHRYimvA_7lb_quic9h3_bridge18stream_h2_response0s0_0B7_
FNDA:0,_RNCNCNvNtCs5ctNHRYimvA_7lb_quic9h3_bridge18stream_h2_response0s1_0B7_
FNDA:0,_RNCNCNvNtCs5ctNHRYimvA_7lb_quic9h3_bridge18stream_h2_response0s2_0B7_
FNDA:0,_RNCNCNvNtCs5ctNHRYimvA_7lb_quic9h3_bridge18stream_h2_response0s3_0B7_
FNDA:0,_RNCNCNvNtCs5ctNHRYimvA_7lb_quic9h3_bridge18stream_h2_response0s4_0B7_
FNDA:0,_RNCNCNvNtCs5ctNHRYimvA_7lb_quic9h3_bridge18stream_h2_response0s5_0B7_
FNDA:0,_RNCNCNvNtCs5ctNHRYimvA_7lb_quic9h3_bridge18stream_h2_response0s_0B7_
FNDA:0,_RNCNCNvNtCs5ctNHRYimvA_7lb_quic9h3_bridge20h3_to_h3_stream_resp00B7_
FNDA:0,_RNCNCNvNtCs5ctNHRYimvA_7lb_quic9h3_bridge20h3_to_h3_stream_resp0s4_0B7_
FNDA:0,_RNCNCNvNtCs5ctNHRYimvA_7lb_quic9h3_bridge20h3_to_h3_stream_resp0s5_0B7_
FNDA:0,_RNCNCNvNtCs5ctNHRYimvA_7lb_quic9h3_bridge20h3_to_h3_stream_resp0s6_0B7_
FNDA:0,_RNCNCNvNtCs5ctNHRYimvA_7lb_quic9h3_bridge20h3_to_h3_stream_resp0sa_0B7_
FNDA:0,_RNCNvMs1_NtCs5ctNHRYimvA_7lb_quic9h3_bridgeNtB7_9H3Request12from_headers0B9_
FNDA:0,_RNCNvMs1_NtCs5ctNHRYimvA_7lb_quic9h3_bridgeNtB7_9H3Request12from_headerss_0B9_
FNDA:0,_RNCNvMs2_NtCs5ctNHRYimvA_7lb_quic9h3_bridgeNtB7_12ChunkDecoder21parse_trailer_section0B9_
FNDA:0,_RNCNvMs2_NtCs5ctNHRYimvA_7lb_quic9h3_bridgeNtB7_12ChunkDecoder21parse_trailer_sections_0B9_
FNDA:0,_RNCNvMs2_NtCs5ctNHRYimvA_7lb_quic9h3_bridgeNtB7_12ChunkDecoder4feed0B9_
FNDA:0,_RNCNvMs2_NtCs5ctNHRYimvA_7lb_quic9h3_bridgeNtB7_12ChunkDecoder4feeds0_0B9_
FNDA:0,_RNCNvMs2_NtCs5ctNHRYimvA_7lb_quic9h3_bridgeNtB7_12ChunkDecoder4feeds1_0B9_
FNDA:0,_RNCNvMs2_NtCs5ctNHRYimvA_7lb_quic9h3_bridgeNtB7_12ChunkDecoder4feeds_0B9_
FNDA:0,_RNCNvMs_NtCs5ctNHRYimvA_7lb_quic9h3_bridgeNtB6_11StreamRxBuf4feed0B8_
FNDA:0,_RNCNvMs_NtCs5ctNHRYimvA_7lb_quic9h3_bridgeNtB6_11StreamRxBuf9feed_body0B8_
FNDA:0,_RNCNvMs_NtCs5ctNHRYimvA_7lb_quic9h3_bridgeNtB6_11StreamRxBuf9feed_bodys0_0B8_
FNDA:0,_RNCNvMs_NtCs5ctNHRYimvA_7lb_quic9h3_bridgeNtB6_11StreamRxBuf9feed_bodys_0B8_
FNDA:0,_RNCNvNCNvNtCs5ctNHRYimvA_7lb_quic9h3_bridge20h3_to_h1_stream_resp06inline0B9_
FNDA:0,_RNCNvNCNvNtCs5ctNHRYimvA_7lb_quic9h3_bridge20h3_to_h2_stream_resp06inline0B9_
FNDA:0,_RNCNvNCNvNtCs5ctNHRYimvA_7lb_quic9h3_bridge20h3_to_h3_stream_resp06inline0B9_
FNDA:0,_RNCNvNtCs5ctNHRYimvA_7lb_quic9h3_bridge15find_header_sep0B5_
FNDA:0,_RNCNvNtCs5ctNHRYimvA_7lb_quic9h3_bridge16write_body_chunk0B5_
FNDA:0,_RNCNvNtCs5ctNHRYimvA_7lb_quic9h3_bridge16write_h1_request0B5_
FNDA:0,_RNCNvNtCs5ctNHRYimvA_7lb_quic9h3_bridge17parse_status_line0B5_
FNDA:0,_RNCNvNtCs5ctNHRYimvA_7lb_quic9h3_bridge18stream_h1_response0B5_
FNDA:0,_RNCNvNtCs5ctNHRYimvA_7lb_quic9h3_bridge18stream_h2_response0B5_
FNDA:0,_RNCNvNtCs5ctNHRYimvA_7lb_quic9h3_bridge20encode_h3_data_frame0B5_
FNDA:0,_RNCNvNtCs5ctNHRYimvA_7lb_quic9h3_bridge20h3_to_h1_stream_resp0B5_
FNDA:0,_RNCNvNtCs5ctNHRYimvA_7lb_quic9h3_bridge20h3_to_h2_stream_resp0B5_
FNDA:0,_RNCNvNtCs5ctNHRYimvA_7lb_quic9h3_bridge20h3_to_h3_stream_resp0B5_
FNDA:0,_RNCNvNtCs5ctNHRYimvA_7lb_quic9h3_bridge23encode_h3_headers_frame0B5_
FNDA:0,_RNCNvNtCs5ctNHRYimvA_7lb_quic9h3_bridge23encode_h3_headers_frames_0B5_
FNDA:0,_RNCNvNtCs5ctNHRYimvA_7lb_quic9h3_bridge23h2_request_body_from_rxs_0B5_
FNDA:0,_RNCNvNtCs5ctNHRYimvA_7lb_quic9h3_bridge24encode_h3_trailers_frame0B5_
FNDA:0,_RNCNvNtCs5ctNHRYimvA_7lb_quic9h3_bridge24encode_h3_trailers_frames_0B5_
FNF:103
FNH:0
DA:279,0
DA:280,0
DA:281,0
DA:326,0
DA:327,0
DA:330,0
DA:331,0
DA:332,0
DA:333,0
DA:335,0
DA:336,0
DA:337,0
DA:338,0
DA:339,0
DA:340,0
DA:341,0
DA:342,0
DA:343,0
DA:345,0
DA:346,0
DA:347,0
DA:348,0
DA:349,0
DA:350,0
DA:351,0
DA:352,0
DA:355,0
DA:377,0
DA:378,0
DA:379,0
DA:380,0
DA:381,0
DA:382,0
DA:383,0
DA:384,0
DA:385,0
DA:386,0
DA:387,0
DA:388,0
DA:389,0
DA:390,0
DA:391,0
DA:392,0
DA:393,0
DA:394,0
DA:395,0
DA:396,0
DA:397,0
DA:398,0
DA:399,0
DA:400,0
DA:401,0
DA:402,0
DA:403,0
DA:404,0
DA:405,0
DA:406,0
DA:407,0
DA:408,0
DA:409,0
DA:411,0
DA:412,0
DA:414,0
DA:415,0
DA:416,0
DA:417,0
DA:418,0
DA:419,0
DA:420,0
DA:421,0
DA:425,0
DA:426,0
DA:430,0
DA:431,0
DA:433,0
DA:434,0
DA:435,0
DA:436,0
DA:437,0
DA:438,0
DA:439,0
DA:440,0
DA:441,0
DA:444,0
DA:449,0
DA:450,0
DA:452,0
DA:453,0
DA:454,0
DA:455,0
DA:456,0
DA:457,0
DA:458,0
DA:459,0
DA:460,0
DA:461,0
DA:462,0
DA:463,0
DA:464,0
DA:465,0
DA:466,0
DA:467,0
DA:468,0
DA:469,0
DA:470,0
DA:471,0
DA:472,0
DA:473,0
DA:474,0
DA:475,0
DA:476,0
DA:477,0
DA:478,0
DA:479,0
DA:480,0
DA:481,0
DA:483,0
DA:487,0
DA:488,0
DA:489,0
DA:490,0
DA:491,0
DA:492,0
DA:493,0
DA:494,0
DA:495,0
DA:496,0
DA:497,0
DA:498,0
DA:499,0
DA:500,0
DA:501,0
DA:502,0
DA:503,0
DA:504,0
DA:505,0
DA:506,0
DA:507,0
DA:508,0
DA:518,0
DA:519,0
DA:520,0
DA:521,0
DA:522,0
DA:523,0
DA:524,0
DA:525,0
DA:526,0
DA:527,0
DA:528,0
DA:530,0
DA:531,0
DA:532,0
DA:533,0
DA:534,0
DA:535,0
DA:536,0
DA:537,0
DA:539,0
DA:544,0
DA:545,0
DA:553,0
DA:554,0
DA:555,0
DA:556,0
DA:557,0
DA:559,0
DA:560,0
DA:561,0
DA:562,0
DA:563,0
DA:565,0
DA:566,0
DA:571,0
DA:572,0
DA:573,0
DA:584,0
DA:585,0
DA:586,0
DA:587,0
DA:588,0
DA:590,0
DA:591,0
DA:611,0
DA:613,0
DA:614,0
DA:615,0
DA:616,0
DA:617,0
DA:618,0
DA:619,0
DA:620,0
DA:621,0
DA:622,0
DA:625,0
DA:648,0
DA:650,0
DA:651,0
DA:652,0
DA:653,0
DA:654,0
DA:655,0
DA:656,0
DA:657,0
DA:658,0
DA:659,0
DA:662,0
DA:690,0
DA:691,0
DA:692,0
DA:693,0
DA:694,0
DA:695,0
DA:696,0
DA:697,0
DA:698,0
DA:707,0
DA:708,0
DA:709,0
DA:710,0
DA:711,0
DA:712,0
DA:713,0
DA:714,0
DA:715,0
DA:716,0
DA:717,0
DA:718,0
DA:719,0
DA:720,0
DA:723,0
DA:724,0
DA:725,0
DA:726,0
DA:727,0
DA:728,0
DA:729,0
DA:730,0
DA:731,0
DA:732,0
DA:733,0
DA:734,0
DA:735,0
DA:754,0
DA:755,0
DA:756,0
DA:757,0
DA:758,0
DA:759,0
DA:760,0
DA:761,0
DA:762,0
DA:763,0
DA:764,0
DA:765,0
DA:766,0
DA:767,0
DA:768,0
DA:769,0
DA:770,0
DA:773,0
DA:774,0
DA:775,0
DA:776,0
DA:777,0
DA:778,0
DA:779,0
DA:780,0
DA:781,0
DA:782,0
DA:783,0
DA:784,0
DA:785,0
DA:786,0
DA:801,0
DA:802,0
DA:803,0
DA:804,0
DA:805,0
DA:806,0
DA:807,0
DA:808,0
DA:809,0
DA:810,0
DA:818,0
DA:819,0
DA:820,0
DA:822,0
DA:823,0
DA:824,0
DA:825,0
DA:826,0
DA:827,0
DA:828,0
DA:829,0
DA:830,0
DA:831,0
DA:832,0
DA:833,0
DA:834,0
DA:835,0
DA:836,0
DA:837,0
DA:838,0
DA:839,0
DA:844,0
DA:845,0
DA:846,0
DA:847,0
DA:848,0
DA:849,0
DA:850,0
DA:851,0
DA:852,0
DA:853,0
DA:854,0
DA:855,0
DA:856,0
DA:858,0
DA:859,0
DA:860,0
DA:861,0
DA:862,0
DA:863,0
DA:865,0
DA:866,0
DA:867,0
DA:869,0
DA:870,0
DA:871,0
DA:872,0
DA:873,0
DA:874,0
DA:875,0
DA:892,0
DA:893,0
DA:894,0
DA:895,0
DA:896,0
DA:897,0
DA:898,0
DA:899,0
DA:919,0
DA:920,0
DA:921,0
DA:922,0
DA:923,0
DA:924,0
DA:925,0
DA:926,0
DA:927,0
DA:928,0
DA:929,0
DA:930,0
DA:931,0
DA:932,0
DA:942,0
DA:943,0
DA:944,0
DA:945,0
DA:946,0
DA:947,0
DA:965,0
DA:966,0
DA:967,0
DA:968,0
DA:969,0
DA:970,0
DA:1036,0
DA:1037,0
DA:1038,0
DA:1039,0
DA:1040,0
DA:1041,0
DA:1042,0
DA:1043,0
DA:1044,0
DA:1045,0
DA:1050,0
DA:1051,0
DA:1052,0
DA:1058,0
DA:1059,0
DA:1061,0
DA:1065,0
DA:1066,0
DA:1067,0
DA:1074,0
DA:1075,0
DA:1076,0
DA:1079,0
DA:1080,0
DA:1082,0
DA:1083,0
DA:1084,0
DA:1085,0
DA:1086,0
DA:1088,0
DA:1089,0
DA:1090,0
DA:1091,0
DA:1092,0
DA:1093,0
DA:1094,0
DA:1096,0
DA:1097,0
DA:1098,0
DA:1102,0
DA:1103,0
DA:1104,0
DA:1105,0
DA:1106,0
DA:1108,0
DA:1109,0
DA:1110,0
DA:1111,0
DA:1112,0
DA:1116,0
DA:1117,0
DA:1118,0
DA:1119,0
DA:1120,0
DA:1121,0
DA:1122,0
DA:1123,0
DA:1124,0
DA:1125,0
DA:1126,0
DA:1135,0
DA:1136,0
DA:1137,0
DA:1138,0
DA:1142,0
DA:1160,0
DA:1163,0
DA:1164,0
DA:1165,0
DA:1166,0
DA:1167,0
DA:1168,0
DA:1169,0
DA:1172,0
DA:1173,0
DA:1174,0
DA:1175,0
DA:1177,0
DA:1179,0
DA:1180,0
DA:1181,0
DA:1182,0
DA:1183,0
DA:1184,0
DA:1188,0
DA:1189,0
DA:1190,0
DA:1191,0
DA:1192,0
DA:1193,0
DA:1194,0
DA:1195,0
DA:1196,0
DA:1197,0
DA:1198,0
DA:1199,0
DA:1200,0
DA:1202,0
DA:1239,0
DA:1240,0
DA:1241,0
DA:1242,0
DA:1243,0
DA:1248,0
DA:1254,0
DA:1255,0
DA:1256,0
DA:1257,0
DA:1258,0
DA:1259,0
DA:1260,0
DA:1261,0
DA:1262,0
DA:1263,0
DA:1264,0
DA:1265,0
DA:1267,0
DA:1268,0
DA:1271,0
DA:1273,0
DA:1274,0
DA:1275,0
DA:1276,0
DA:1280,0
DA:1281,0
DA:1282,0
DA:1283,0
DA:1284,0
DA:1285,0
DA:1286,0
DA:1287,0
DA:1288,0
DA:1289,0
DA:1290,0
DA:1291,0
DA:1294,0
DA:1295,0
DA:1296,0
DA:1297,0
DA:1298,0
DA:1300,0
DA:1301,0
DA:1302,0
DA:1303,0
DA:1306,0
DA:1307,0
DA:1308,0
DA:1309,0
DA:1310,0
DA:1312,0
DA:1313,0
DA:1314,0
DA:1315,0
DA:1317,0
DA:1318,0
DA:1321,0
DA:1322,0
DA:1323,0
DA:1327,0
DA:1328,0
DA:1329,0
DA:1330,0
DA:1331,0
DA:1332,0
DA:1333,0
DA:1334,0
DA:1336,0
DA:1340,0
DA:1341,0
DA:1342,0
DA:1344,0
DA:1345,0
DA:1347,0
DA:1348,0
DA:1351,0
DA:1352,0
DA:1353,0
DA:1354,0
DA:1355,0
DA:1356,0
DA:1357,0
DA:1381,0
DA:1382,0
DA:1383,0
DA:1384,0
DA:1385,0
DA:1386,0
DA:1388,0
DA:1389,0
DA:1390,0
DA:1391,0
DA:1392,0
DA:1393,0
DA:1394,0
DA:1395,0
DA:1396,0
DA:1397,0
DA:1398,0
DA:1399,0
DA:1401,0
DA:1402,0
DA:1405,0
DA:1407,0
DA:1408,0
DA:1409,0
DA:1410,0
DA:1411,0
DA:1412,0
DA:1416,0
DA:1417,0
DA:1418,0
DA:1419,0
DA:1420,0
DA:1421,0
DA:1422,0
DA:1423,0
DA:1424,0
DA:1425,0
DA:1426,0
DA:1427,0
DA:1428,0
DA:1435,0
DA:1436,0
DA:1437,0
DA:1439,0
DA:1440,0
DA:1443,0
DA:1446,0
DA:1447,0
DA:1448,0
DA:1449,0
DA:1450,0
DA:1451,0
DA:1452,0
DA:1453,0
DA:1454,0
DA:1455,0
DA:1456,0
DA:1466,0
DA:1467,0
DA:1468,0
DA:1469,0
DA:1471,0
DA:1472,0
DA:1475,0
DA:1476,0
DA:1477,0
DA:1478,0
DA:1479,0
DA:1480,0
DA:1481,0
DA:1484,0
DA:1485,0
DA:1486,0
DA:1487,0
DA:1489,0
DA:1490,0
DA:1492,0
DA:1493,0
DA:1496,0
DA:1497,0
DA:1498,0
DA:1499,0
DA:1500,0
DA:1506,0
DA:1507,0
DA:1508,0
DA:1549,0
DA:1550,0
DA:1551,0
DA:1552,0
DA:1553,0
DA:1556,0
DA:1560,0
DA:1561,0
DA:1562,0
DA:1563,0
DA:1564,0
DA:1565,0
DA:1566,0
DA:1567,0
DA:1568,0
DA:1569,0
DA:1570,0
DA:1571,0
DA:1572,0
DA:1574,0
DA:1575,0
DA:1578,0
DA:1579,0
DA:1580,0
DA:1581,0
DA:1582,0
DA:1583,0
DA:1608,0
DA:1609,0
DA:1610,0
DA:1614,0
DA:1615,0
DA:1618,0
DA:1620,0
DA:1621,0
DA:1622,0
DA:1623,0
DA:1624,0
DA:1628,0
DA:1629,0
DA:1630,0
DA:1631,0
DA:1632,0
DA:1633,0
DA:1634,0
DA:1635,0
DA:1636,0
DA:1637,0
DA:1638,0
DA:1639,0
DA:1641,0
DA:1642,0
DA:1645,0
DA:1646,0
DA:1647,0
DA:1648,0
DA:1649,0
DA:1650,0
DA:1651,0
DA:1652,0
DA:1658,0
DA:1659,0
DA:1660,0
DA:1685,0
DA:1686,0
DA:1687,0
DA:1688,0
DA:1689,0
DA:1690,0
DA:1691,0
DA:1692,0
DA:1693,0
DA:1694,0
DA:1695,0
DA:1698,0
DA:1699,0
DA:1700,0
DA:1701,0
DA:1702,0
DA:1703,0
DA:1704,0
DA:1705,0
DA:1706,0
DA:1707,0
DA:1708,0
DA:1709,0
DA:1710,0
DA:1711,0
DA:1712,0
DA:1713,0
DA:1714,0
DA:1715,0
DA:1716,0
DA:1717,0
DA:1718,0
DA:1723,0
DA:1724,0
DA:1725,0
DA:1737,0
DA:1738,0
DA:1739,0
DA:1740,0
DA:1741,0
DA:1742,0
DA:1743,0
DA:1744,0
DA:1745,0
DA:1746,0
DA:1747,0
DA:1748,0
DA:1749,0
DA:1750,0
DA:1751,0
DA:1752,0
DA:1753,0
DA:1754,0
DA:1755,0
DA:1757,0
DA:1758,0
DA:1759,0
DA:1760,0
DA:1782,0
DA:1784,0
DA:1785,0
DA:1786,0
DA:1787,0
DA:1788,0
DA:1789,0
DA:1790,0
DA:1791,0
DA:1792,0
DA:1793,0
DA:1796,0
DA:1806,0
DA:1807,0
DA:1808,0
DA:1809,0
DA:1810,0
DA:1811,0
DA:1812,0
DA:1813,0
DA:1814,0
DA:1816,0
DA:1818,0
DA:1819,0
DA:1877,0
DA:1878,0
DA:1879,0
DA:1880,0
DA:1881,0
DA:1884,0
DA:1885,0
DA:1887,0
DA:1892,0
DA:1894,0
DA:1895,0
DA:1896,0
DA:1897,0
DA:1899,0
DA:1901,0
DA:1902,0
DA:1903,0
DA:1904,0
DA:1908,0
DA:1909,0
DA:1910,0
DA:1911,0
DA:1913,0
DA:1914,0
DA:1915,0
DA:1916,0
DA:1918,0
DA:1919,0
DA:1920,0
DA:1921,0
DA:1922,0
DA:1923,0
DA:1930,0
DA:1931,0
DA:1932,0
DA:1933,0
DA:1934,0
DA:1935,0
DA:1936,0
DA:1937,0
DA:1938,0
DA:1966,0
DA:1967,0
DA:1988,0
DA:1989,0
DA:1990,0
DA:1992,0
DA:1996,0
DA:2000,0
DA:2001,0
DA:2002,0
DA:2003,0
DA:2004,0
DA:2005,0
DA:2006,0
DA:2007,0
DA:2008,0
DA:2010,0
DA:2011,0
DA:2012,0
DA:2013,0
DA:2014,0
DA:2015,0
DA:2039,0
DA:2040,0
DA:2041,0
DA:2042,0
DA:2043,0
DA:2044,0
DA:2045,0
DA:2046,0
DA:2047,0
DA:2048,0
DA:2049,0
DA:2050,0
DA:2055,0
DA:2056,0
DA:2057,0
DA:2058,0
DA:2060,0
DA:2061,0
DA:2062,0
DA:2063,0
DA:2064,0
DA:2065,0
DA:2066,0
DA:2069,0
DA:2070,0
DA:2071,0
DA:2072,0
DA:2073,0
DA:2074,0
DA:2075,0
DA:2076,0
DA:2081,0
DA:2082,0
DA:2087,0
DA:2088,0
DA:2089,0
DA:2120,0
DA:2121,0
DA:2122,0
DA:2123,0
DA:2124,0
DA:2125,0
DA:2126,0
DA:2127,0
DA:2131,0
DA:2132,0
DA:2133,0
DA:2134,0
DA:2136,0
DA:2138,0
DA:2140,0
DA:2141,0
DA:2142,0
DA:2143,0
DA:2144,0
DA:2146,0
DA:2150,0
DA:2151,0
DA:2152,0
DA:2153,0
DA:2154,0
DA:2157,0
DA:2163,0
DA:2165,0
DA:2166,0
DA:2168,0
DA:2169,0
DA:2172,0
DA:2173,0
DA:2174,0
DA:2185,0
DA:2186,0
DA:2187,0
DA:2198,0
DA:2199,0
DA:2200,0
DA:2231,0
DA:2232,0
DA:2233,0
DA:2234,0
DA:2236,0
DA:2237,0
DA:2238,0
DA:2239,0
DA:2240,0
DA:2244,0
DA:2245,0
DA:2246,0
DA:2247,0
DA:2248,0
DA:2249,0
DA:2255,0
DA:2256,0
DA:2266,0
DA:2267,0
DA:2270,0
DA:2309,0
DA:2310,0
DA:2311,0
DA:2312,0
DA:2313,0
DA:2314,0
DA:2315,0
DA:2316,0
DA:2317,0
DA:2318,0
DA:2319,0
DA:2320,0
DA:2322,0
DA:2324,0
DA:2325,0
DA:2326,0
DA:2327,0
DA:2328,0
DA:2329,0
DA:2330,0
DA:2333,0
DA:2336,0
DA:2337,0
DA:2338,0
DA:2341,0
DA:2347,0
DA:2348,0
DA:2349,0
DA:2350,0
DA:2351,0
DA:2354,0
DA:2355,0
DA:2377,0
DA:2378,0
DA:2379,0
DA:2380,0
DA:2381,0
DA:2382,0
DA:2383,0
DA:2384,0
DA:2388,0
DA:2389,0
DA:2390,0
DA:2391,0
DA:2393,0
DA:2395,0
DA:2399,0
DA:2401,0
DA:2402,0
DA:2404,0
DA:2405,0
DA:2408,0
DA:2409,0
DA:2413,0
DA:2414,0
DA:2415,0
DA:2416,0
DA:2417,0
DA:2418,0
DA:2422,0
DA:2423,0
DA:2454,0
DA:2455,0
DA:2456,0
DA:2457,0
DA:2458,0
DA:2459,0
DA:2460,0
DA:2461,0
DA:2482,0
DA:2483,0
DA:2484,0
DA:2485,0
DA:2486,0
DA:2487,0
DA:2488,0
DA:2489,0
DA:2490,0
DA:2492,0
DA:2493,0
DA:2494,0
DA:2495,0
DA:2496,0
DA:2499,0
DA:2500,0
DA:2501,0
DA:2504,0
DA:2505,0
DA:2506,0
DA:2508,0
DA:2509,0
DA:2511,0
DA:2512,0
DA:2514,0
DA:2515,0
DA:2516,0
DA:2517,0
DA:2518,0
DA:2525,0
DA:2526,0
DA:2528,0
DA:2529,0
DA:2531,0
DA:2532,0
DA:2533,0
DA:2534,0
DA:2535,0
DA:2538,0
DA:2539,0
DA:2540,0
DA:2541,0
DA:2542,0
DA:2543,0
DA:2544,0
DA:2545,0
DA:2546,0
DA:2547,0
DA:2548,0
DA:2549,0
DA:2550,0
DA:2553,0
DA:2554,0
DA:2555,0
DA:2556,0
DA:2557,0
DA:2558,0
DA:2559,0
DA:2560,0
DA:2561,0
DA:2562,0
DA:2564,0
DA:2565,0
DA:2566,0
DA:2567,0
DA:2568,0
DA:2573,0
DA:2574,0
DA:2575,0
DA:2576,0
DA:2577,0
DA:2578,0
DA:2579,0
DA:2580,0
DA:2581,0
DA:2582,0
DA:2583,0
DA:2585,0
DA:2586,0
DA:2587,0
DA:2588,0
DA:2589,0
DA:2590,0
DA:2593,0
DA:2594,0
DA:2595,0
DA:2596,0
DA:2597,0
DA:2598,0
DA:2599,0
DA:2600,0
DA:2601,0
DA:2602,0
DA:2603,0
DA:2608,0
DA:2609,0
DA:2610,0
DA:2611,0
DA:2612,0
DA:2613,0
DA:2614,0
DA:2615,0
DA:2616,0
DA:2617,0
DA:2618,0
DA:2619,0
DA:2620,0
DA:2621,0
DA:2622,0
DA:2623,0
DA:2624,0
DA:2625,0
DA:2626,0
DA:2627,0
DA:2628,0
DA:2629,0
DA:2630,0
DA:2632,0
DA:2634,0
DA:2635,0
DA:2636,0
DA:2637,0
DA:2638,0
DA:2639,0
DA:2640,0
DA:2641,0
DA:2643,0
DA:2644,0
DA:2645,0
DA:2646,0
DA:2647,0
DA:2648,0
DA:2649,0
DA:2650,0
DA:2651,0
DA:2652,0
DA:2653,0
DA:2654,0
DA:2655,0
DA:2656,0
DA:2657,0
DA:2658,0
DA:2659,0
DA:2660,0
DA:2661,0
DA:2662,0
DA:2663,0
DA:2666,0
DA:2667,0
DA:2668,0
DA:2672,0
DA:2673,0
DA:2674,0
DA:2675,0
DA:2676,0
DA:2677,0
DA:2678,0
DA:2679,0
DA:2680,0
DA:2773,0
DA:2774,0
DA:2775,0
DA:2776,0
DA:2777,0
DA:2778,0
DA:2779,0
DA:2780,0
DA:2781,0
DA:2785,0
DA:2786,0
DA:2787,0
DA:2788,0
DA:2790,0
DA:2792,0
DA:2802,0
DA:2806,0
DA:2832,0
DA:2833,0
DA:2834,0
DA:2835,0
DA:2836,0
DA:2837,0
DA:2838,0
DA:2843,0
DA:2844,0
DA:2846,0
DA:2847,0
DA:2848,0
DA:2849,0
DA:2850,0
DA:2851,0
DA:2852,0
DA:2856,0
DA:2857,0
DA:2858,0
DA:2859,0
DA:2860,0
DA:2861,0
DA:2864,0
DA:2865,0
DA:2866,0
DA:2867,0
DA:2872,0
DA:2873,0
DA:2874,0
DA:2875,0
DA:2876,0
DA:2877,0
DA:2879,0
DA:2881,0
DA:2882,0
DA:2883,0
DA:2884,0
DA:2885,0
DA:2886,0
DA:2888,0
DA:2889,0
DA:2890,0
DA:2891,0
DA:2894,0
DA:2895,0
DA:2896,0
DA:2897,0
DA:2898,0
DA:2899,0
DA:2901,0
DA:2902,0
DA:2903,0
DA:2914,0
DA:2915,0
DA:2916,0
DA:2917,0
DA:2918,0
DA:2919,0
DA:2920,0
DA:2921,0
DA:2922,0
DA:2923,0
DA:2924,0
DA:2925,0
DA:2927,0
DA:2928,0
DA:2929,0
DA:2930,0
DA:2931,0
DA:2932,0
DA:2967,0
DA:2968,0
DA:2969,0
DA:2970,0
DA:2971,0
DA:2972,0
DA:2973,0
DA:2974,0
DA:2975,0
DA:2976,0
DA:2977,0
DA:2978,0
DA:2979,0
DA:2980,0
DA:2981,0
DA:2982,0
DA:3004,0
DA:3005,0
DA:3006,0
DA:3007,0
DA:3012,0
DA:3013,0
DA:3014,0
DA:3015,0
DA:3016,0
DA:3017,0
DA:3018,0
DA:3019,0
DA:3022,0
DA:3025,0
DA:3028,0
DA:3036,0
DA:3037,0
DA:3038,0
DA:3039,0
DA:3040,0
DA:3041,0
DA:3042,0
DA:3043,0
DA:3044,0
DA:3045,0
DA:3046,0
DA:3047,0
DA:3048,0
DA:3049,0
DA:3050,0
DA:3051,0
DA:3052,0
DA:3053,0
DA:3054,0
DA:3055,0
DA:3056,0
DA:3058,0
DA:3059,0
DA:3060,0
DA:3061,0
DA:3062,0
DA:3063,0
DA:3067,0
DA:3068,0
DA:3069,0
DA:3070,0
DA:3071,0
DA:3072,0
DA:3073,0
DA:3077,0
DA:3078,0
DA:3080,0
DA:3083,0
DA:3084,0
DA:3085,0
DA:3086,0
DA:3087,0
DA:3091,0
DA:3092,0
DA:3093,0
DA:3094,0
DA:3095,0
DA:3096,0
DA:3097,0
DA:3099,0
DA:3100,0
DA:3101,0
DA:3102,0
DA:3103,0
DA:3104,0
DA:3109,0
DA:3110,0
DA:3111,0
DA:3113,0
DA:3116,0
DA:3127,0
DA:3134,0
DA:3136,0
DA:3138,0
DA:3139,0
DA:3149,0
DA:3151,0
DA:3152,0
DA:3157,0
DA:3158,0
DA:3159,0
DA:3161,0
DA:3162,0
DA:3165,0
DA:3166,0
DA:3168,0
DA:3169,0
DA:3170,0
DA:3171,0
DA:3172,0
DA:3173,0
DA:3177,0
DA:3178,0
DA:3179,0
DA:3180,0
DA:3181,0
DA:3183,0
DA:3184,0
DA:3187,0
DA:3188,0
DA:3190,0
DA:3191,0
DA:3192,0
DA:3193,0
DA:3194,0
DA:3195,0
DA:3196,0
DA:3197,0
DA:3198,0
DA:3204,0
DA:3205,0
DA:3206,0
DA:3207,0
DA:3208,0
DA:3214,0
DA:3215,0
DA:3216,0
DA:3217,0
DA:3218,0
DA:3219,0
DA:3220,0
DA:3221,0
DA:3222,0
DA:3223,0
DA:3224,0
DA:3225,0
DA:3226,0
DA:3227,0
DA:3228,0
DA:3229,0
DA:3230,0
DA:3231,0
DA:3232,0
DA:3233,0
DA:3234,0
DA:3236,0
DA:3237,0
DA:3238,0
DA:3241,0
DA:3242,0
DA:3243,0
DA:3244,0
DA:3245,0
DA:3246,0
DA:3247,0
DA:3248,0
DA:3250,0
DA:3251,0
DA:3252,0
DA:3253,0
DA:3254,0
DA:3257,0
DA:3258,0
DA:3259,0
DA:3260,0
DA:3261,0
DA:3262,0
DA:3263,0
DA:3264,0
DA:3265,0
DA:3266,0
DA:3267,0
DA:3268,0
DA:3269,0
DA:3270,0
DA:3271,0
DA:3272,0
DA:3273,0
DA:3274,0
DA:3275,0
DA:3276,0
DA:3277,0
DA:3279,0
DA:3280,0
DA:3281,0
DA:3284,0
DA:3290,0
DA:3291,0
DA:3292,0
DA:3293,0
DA:3294,0
DA:3295,0
DA:3296,0
DA:3297,0
DA:3298,0
DA:3300,0
DA:3301,0
DA:3302,0
DA:3305,0
DA:3306,0
DA:3307,0
DA:3308,0
DA:3309,0
DA:3310,0
DA:3311,0
DA:3312,0
DA:3318,0
DA:3319,0
DA:3320,0
DA:3321,0
DA:3322,0
DA:3323,0
DA:3324,0
DA:3325,0
DA:3326,0
DA:3327,0
DA:3329,0
DA:3330,0
DA:3332,0
DA:3333,0
DA:3334,0
DA:3337,0
DA:3338,0
DA:3339,0
DA:3340,0
DA:3341,0
DA:3342,0
DA:3343,0
DA:3344,0
DA:3346,0
DA:3347,0
DA:3349,0
DA:3350,0
DA:3351,0
DA:3352,0
DA:3353,0
DA:3354,0
DA:3355,0
DA:3356,0
DA:3357,0
DA:3358,0
DA:3359,0
DA:3365,0
DA:3366,0
DA:3367,0
DA:3369,0
DA:3375,0
DA:3376,0
DA:3377,0
DA:3379,0
DA:3380,0
DA:3381,0
DA:3382,0
DA:3383,0
DA:3384,0
DA:3385,0
DA:3386,0
DA:3387,0
DA:3388,0
DA:3389,0
DA:3390,0
DA:3391,0
DA:3392,0
DA:3393,0
DA:3394,0
DA:3395,0
DA:3396,0
DA:3397,0
DA:3398,0
DA:3399,0
DA:3400,0
DA:3401,0
DA:3405,0
DA:3406,0
DA:3407,0
DA:3408,0
DA:3409,0
DA:3410,0
DA:3411,0
DA:3412,0
DA:3413,0
DA:3414,0
DA:3415,0
DA:3419,0
DA:3420,0
DA:3421,0
DA:3429,0
DA:3430,0
DA:3431,0
DA:3432,0
DA:3433,0
DA:3434,0
DA:3435,0
DA:3436,0
DA:3449,0
DA:3450,0
DA:3451,0
DA:3452,0
DA:3453,0
DA:3454,0
DA:3455,0
DA:3456,0
DA:3457,0
DA:3458,0
DA:3459,0
DA:3460,0
DA:3461,0
DA:3464,0
DA:3477,0
DA:3478,0
DA:3479,0
DA:3480,0
DA:3481,0
DA:3482,0
DA:3483,0
DA:3488,0
DA:3494,0
DA:3495,0
DA:3496,0
DA:3498,0
DA:3499,0
DA:3500,0
DA:3501,0
DA:3504,0
DA:3505,0
DA:3506,0
DA:3507,0
DA:3508,0
DA:3509,0
DA:3510,0
DA:3511,0
DA:3512,0
DA:3541,0
DA:3542,0
DA:3543,0
DA:3544,0
DA:3545,0
DA:3547,0
DA:3548,0
DA:3550,0
DA:3558,0
DA:3559,0
DA:3560,0
DA:3561,0
DA:3562,0
DA:3563,0
DA:3609,0
DA:3610,0
DA:3611,0
DA:3612,0
DA:3613,0
DA:3615,0
DA:3623,0
DA:3624,0
DA:3625,0
DA:3626,0
DA:3627,0
DA:3629,0
DA:3630,0
DA:3631,0
DA:3632,0
DA:3633,0
DA:3635,0
DA:3636,0
BRF:0
BRH:0
LF:1686
LH:0
end_of_record
SF:/home/ubuntu/Code/s8-verifier/crates/lb-quic/src/lib.rs
FN:542,_RINvCs5ctNHRYimvA_7lb_quic5driveppEB2_
FN:550,_RNCINvCs5ctNHRYimvA_7lb_quic5driveppE0B4_
FN:578,_RNCNCINvCs5ctNHRYimvA_7lb_quic5driveppE00B6_
FN:839,_RNCNCNvCs5ctNHRYimvA_7lb_quic16roundtrip_stream00B5_
FN:854,_RNCNCNvCs5ctNHRYimvA_7lb_quic16roundtrip_stream0s_0B5_
FN:614,_RNCNCNvCs5ctNHRYimvA_7lb_quic17server_accept_one00B5_
FN:763,_RNCNCNvCs5ctNHRYimvA_7lb_quic18roundtrip_datagram00B5_
FN:778,_RNCNCNvCs5ctNHRYimvA_7lb_quic18roundtrip_datagram0s_0B5_
FN:688,_RNCNCNvCs5ctNHRYimvA_7lb_quic18server_stream_task00B5_
FN:661,_RNCNCNvCs5ctNHRYimvA_7lb_quic20server_datagram_task00B5_
FN:644,_RNCNvCs5ctNHRYimvA_7lb_quic14graceful_close0B3_
FN:804,_RNCNvCs5ctNHRYimvA_7lb_quic16roundtrip_stream0B3_
FN:606,_RNCNvCs5ctNHRYimvA_7lb_quic17server_accept_one0B3_
FN:732,_RNCNvCs5ctNHRYimvA_7lb_quic18roundtrip_datagram0B3_
FN:686,_RNCNvCs5ctNHRYimvA_7lb_quic18server_stream_task0B3_
FN:659,_RNCNvCs5ctNHRYimvA_7lb_quic20server_datagram_task0B3_
FN:523,_RNCNvCs5ctNHRYimvA_7lb_quic21flush_out_best_effort0B3_
FN:501,_RNCNvCs5ctNHRYimvA_7lb_quic9flush_out0B3_
FN:348,_RNCNvMs_Cs5ctNHRYimvA_7lb_quicNtB6_12QuicEndpoint18client_on_loopback0B6_
FN:325,_RNCNvMs_Cs5ctNHRYimvA_7lb_quicNtB6_12QuicEndpoint18server_on_loopback0B6_
FN:481,_RNCNvCs5ctNHRYimvA_7lb_quic11random_scid0B3_
FN:447,_RNCNvCs5ctNHRYimvA_7lb_quic12build_config0B3_
FN:461,_RNCNvCs5ctNHRYimvA_7lb_quic12build_configs0_0B3_
FN:450,_RNCNvCs5ctNHRYimvA_7lb_quic12build_configs_0B3_
FN:477,_RNvCs5ctNHRYimvA_7lb_quic11random_scid
FN:426,_RNvCs5ctNHRYimvA_7lb_quic12build_config
FN:264,_RNvCs5ctNHRYimvA_7lb_quic14forward_stream
FN:644,_RNvCs5ctNHRYimvA_7lb_quic14graceful_close
FN:251,_RNvCs5ctNHRYimvA_7lb_quic16forward_datagram
FN:800,_RNvCs5ctNHRYimvA_7lb_quic16roundtrip_stream
FN:602,_RNvCs5ctNHRYimvA_7lb_quic17server_accept_one
FN:728,_RNvCs5ctNHRYimvA_7lb_quic18roundtrip_datagram
FN:682,_RNvCs5ctNHRYimvA_7lb_quic18server_stream_task
FN:655,_RNvCs5ctNHRYimvA_7lb_quic20server_datagram_task
FN:519,_RNvCs5ctNHRYimvA_7lb_quic21flush_out_best_effort
FN:176,_RNvCs5ctNHRYimvA_7lb_quic6prefix
FN:497,_RNvCs5ctNHRYimvA_7lb_quic9flush_out
FN:363,_RNvMs_Cs5ctNHRYimvA_7lb_quicNtB4_12QuicEndpoint10local_addr
FN:400,_RNvMs_Cs5ctNHRYimvA_7lb_quicNtB4_12QuicEndpoint12retry_signer
FN:407,_RNvMs_Cs5ctNHRYimvA_7lb_quicNtB4_12QuicEndpoint13replay_filter
FN:378,_RNvMs_Cs5ctNHRYimvA_7lb_quicNtB4_12QuicEndpoint17with_retry_signer
FN:348,_RNvMs_Cs5ctNHRYimvA_7lb_quicNtB4_12QuicEndpoint18client_on_loopback
FN:322,_RNvMs_Cs5ctNHRYimvA_7lb_quicNtB4_12QuicEndpoint18server_on_loopback
FN:392,_RNvMs_Cs5ctNHRYimvA_7lb_quicNtB4_12QuicEndpoint18with_replay_filter
FN:301,_RNvXCs5ctNHRYimvA_7lb_quicNtB2_12QuicEndpointNtNtCs2va5m0jqTTM_4core3fmt5Debug3fmt
FNDA:0,_RINvCs5ctNHRYimvA_7lb_quic5driveppEB2_
FNDA:0,_RNCINvCs5ctNHRYimvA_7lb_quic5driveppE0B4_
FNDA:0,_RNCNCINvCs5ctNHRYimvA_7lb_quic5driveppE00B6_
FNDA:0,_RNCNCNvCs5ctNHRYimvA_7lb_quic16roundtrip_stream00B5_
FNDA:0,_RNCNCNvCs5ctNHRYimvA_7lb_quic16roundtrip_stream0s_0B5_
FNDA:0,_RNCNCNvCs5ctNHRYimvA_7lb_quic17server_accept_one00B5_
FNDA:0,_RNCNCNvCs5ctNHRYimvA_7lb_quic18roundtrip_datagram00B5_
FNDA:0,_RNCNCNvCs5ctNHRYimvA_7lb_quic18roundtrip_datagram0s_0B5_
FNDA:0,_RNCNCNvCs5ctNHRYimvA_7lb_quic18server_stream_task00B5_
FNDA:0,_RNCNCNvCs5ctNHRYimvA_7lb_quic20server_datagram_task00B5_
FNDA:0,_RNCNvCs5ctNHRYimvA_7lb_quic14graceful_close0B3_
FNDA:0,_RNCNvCs5ctNHRYimvA_7lb_quic16roundtrip_stream0B3_
FNDA:0,_RNCNvCs5ctNHRYimvA_7lb_quic17server_accept_one0B3_
FNDA:0,_RNCNvCs5ctNHRYimvA_7lb_quic18roundtrip_datagram0B3_
FNDA:0,_RNCNvCs5ctNHRYimvA_7lb_quic18server_stream_task0B3_
FNDA:0,_RNCNvCs5ctNHRYimvA_7lb_quic20server_datagram_task0B3_
FNDA:0,_RNCNvCs5ctNHRYimvA_7lb_quic21flush_out_best_effort0B3_
FNDA:0,_RNCNvCs5ctNHRYimvA_7lb_quic9flush_out0B3_
FNDA:0,_RNCNvMs_Cs5ctNHRYimvA_7lb_quicNtB6_12QuicEndpoint18client_on_loopback0B6_
FNDA:0,_RNCNvMs_Cs5ctNHRYimvA_7lb_quicNtB6_12QuicEndpoint18server_on_loopback0B6_
FNDA:0,_RNCNvCs5ctNHRYimvA_7lb_quic11random_scid0B3_
FNDA:0,_RNCNvCs5ctNHRYimvA_7lb_quic12build_config0B3_
FNDA:0,_RNCNvCs5ctNHRYimvA_7lb_quic12build_configs0_0B3_
FNDA:0,_RNCNvCs5ctNHRYimvA_7lb_quic12build_configs_0B3_
FNDA:0,_RNvCs5ctNHRYimvA_7lb_quic11random_scid
FNDA:0,_RNvCs5ctNHRYimvA_7lb_quic12build_config
FNDA:0,_RNvCs5ctNHRYimvA_7lb_quic14forward_stream
FNDA:0,_RNvCs5ctNHRYimvA_7lb_quic14graceful_close
FNDA:0,_RNvCs5ctNHRYimvA_7lb_quic16forward_datagram
FNDA:0,_RNvCs5ctNHRYimvA_7lb_quic16roundtrip_stream
FNDA:0,_RNvCs5ctNHRYimvA_7lb_quic17server_accept_one
FNDA:0,_RNvCs5ctNHRYimvA_7lb_quic18roundtrip_datagram
FNDA:0,_RNvCs5ctNHRYimvA_7lb_quic18server_stream_task
FNDA:0,_RNvCs5ctNHRYimvA_7lb_quic20server_datagram_task
FNDA:0,_RNvCs5ctNHRYimvA_7lb_quic21flush_out_best_effort
FNDA:0,_RNvCs5ctNHRYimvA_7lb_quic6prefix
FNDA:0,_RNvCs5ctNHRYimvA_7lb_quic9flush_out
FNDA:0,_RNvMs_Cs5ctNHRYimvA_7lb_quicNtB4_12QuicEndpoint10local_addr
FNDA:0,_RNvMs_Cs5ctNHRYimvA_7lb_quicNtB4_12QuicEndpoint12retry_signer
FNDA:0,_RNvMs_Cs5ctNHRYimvA_7lb_quicNtB4_12QuicEndpoint13replay_filter
FNDA:0,_RNvMs_Cs5ctNHRYimvA_7lb_quicNtB4_12QuicEndpoint17with_retry_signer
FNDA:0,_RNvMs_Cs5ctNHRYimvA_7lb_quicNtB4_12QuicEndpoint18client_on_loopback
FNDA:0,_RNvMs_Cs5ctNHRYimvA_7lb_quicNtB4_12QuicEndpoint18server_on_loopback
FNDA:0,_RNvMs_Cs5ctNHRYimvA_7lb_quicNtB4_12QuicEndpoint18with_replay_filter
FNDA:0,_RNvXCs5ctNHRYimvA_7lb_quicNtB2_12QuicEndpointNtNtCs2va5m0jqTTM_4core3fmt5Debug3fmt
FNF:45
FNH:0
DA:176,0
DA:177,0
DA:178,0
DA:251,0
DA:252,0
DA:253,0
DA:254,0
DA:255,0
DA:256,0
DA:264,0
DA:265,0
DA:266,0
DA:267,0
DA:268,0
DA:269,0
DA:301,0
DA:302,0
DA:303,0
DA:304,0
DA:306,0
DA:307,0
DA:308,0
DA:309,0
DA:310,0
DA:322,0
DA:323,0
DA:324,0
DA:325,0
DA:326,0
DA:327,0
DA:328,0
DA:329,0
DA:330,0
DA:331,0
DA:332,0
DA:333,0
DA:334,0
DA:335,0
DA:336,0
DA:337,0
DA:338,0
DA:339,0
DA:348,0
DA:349,0
DA:350,0
DA:351,0
DA:352,0
DA:353,0
DA:354,0
DA:355,0
DA:356,0
DA:357,0
DA:358,0
DA:359,0
DA:363,0
DA:364,0
DA:365,0
DA:378,0
DA:379,0
DA:380,0
DA:381,0
DA:392,0
DA:393,0
DA:394,0
DA:395,0
DA:400,0
DA:401,0
DA:402,0
DA:407,0
DA:408,0
DA:409,0
DA:426,0
DA:427,0
DA:428,0
DA:429,0
DA:430,0
DA:431,0
DA:432,0
DA:433,0
DA:434,0
DA:435,0
DA:436,0
DA:437,0
DA:438,0
DA:439,0
DA:440,0
DA:442,0
DA:443,0
DA:445,0
DA:446,0
DA:447,0
DA:448,0
DA:449,0
DA:450,0
DA:451,0
DA:452,0
DA:458,0
DA:459,0
DA:460,0
DA:461,0
DA:462,0
DA:468,0
DA:471,0
DA:472,0
DA:477,0
DA:478,0
DA:479,0
DA:480,0
DA:481,0
DA:482,0
DA:483,0
DA:484,0
DA:485,0
DA:486,0
DA:487,0
DA:488,0
DA:489,0
DA:490,0
DA:491,0
DA:492,0
DA:493,0
DA:494,0
DA:497,0
DA:498,0
DA:499,0
DA:500,0
DA:501,0
DA:503,0
DA:504,0
DA:505,0
DA:507,0
DA:508,0
DA:509,0
DA:511,0
DA:512,0
DA:515,0
DA:519,0
DA:520,0
DA:521,0
DA:522,0
DA:523,0
DA:525,0
DA:526,0
DA:527,0
DA:528,0
DA:529,0
DA:530,0
DA:531,0
DA:533,0
DA:534,0
DA:535,0
DA:536,0
DA:542,0
DA:543,0
DA:544,0
DA:545,0
DA:546,0
DA:547,0
DA:548,0
DA:549,0
DA:550,0
DA:551,0
DA:552,0
DA:553,0
DA:556,0
DA:557,0
DA:558,0
DA:559,0
DA:562,0
DA:563,0
DA:564,0
DA:565,0
DA:566,0
DA:567,0
DA:568,0
DA:569,0
DA:570,0
DA:573,0
DA:574,0
DA:575,0
DA:576,0
DA:577,0
DA:578,0
DA:579,0
DA:580,0
DA:581,0
DA:582,0
DA:583,0
DA:584,0
DA:585,0
DA:586,0
DA:587,0
DA:588,0
DA:591,0
DA:592,0
DA:593,0
DA:597,0
DA:602,0
DA:603,0
DA:604,0
DA:605,0
DA:606,0
DA:607,0
DA:608,0
DA:609,0
DA:610,0
DA:611,0
DA:612,0
DA:613,0
DA:614,0
DA:616,0
DA:617,0
DA:618,0
DA:619,0
DA:620,0
DA:621,0
DA:622,0
DA:623,0
DA:624,0
DA:625,0
DA:626,0
DA:630,0
DA:631,0
DA:632,0
DA:634,0
DA:635,0
DA:639,0
DA:640,0
DA:644,0
DA:646,0
DA:647,0
DA:648,0
DA:649,0
DA:650,0
DA:651,0
DA:655,0
DA:656,0
DA:657,0
DA:658,0
DA:659,0
DA:660,0
DA:661,0
DA:662,0
DA:663,0
DA:664,0
DA:665,0
DA:666,0
DA:667,0
DA:668,0
DA:669,0
DA:671,0
DA:672,0
DA:674,0
DA:675,0
DA:676,0
DA:677,0
DA:678,0
DA:682,0
DA:683,0
DA:684,0
DA:685,0
DA:686,0
DA:687,0
DA:688,0
DA:689,0
DA:690,0
DA:691,0
DA:692,0
DA:693,0
DA:695,0
DA:696,0
DA:698,0
DA:699,0
DA:700,0
DA:701,0
DA:702,0
DA:703,0
DA:704,0
DA:706,0
DA:707,0
DA:710,0
DA:711,0
DA:712,0
DA:713,0
DA:714,0
DA:728,0
DA:729,0
DA:730,0
DA:731,0
DA:732,0
DA:733,0
DA:734,0
DA:735,0
DA:737,0
DA:738,0
DA:740,0
DA:741,0
DA:742,0
DA:743,0
DA:744,0
DA:745,0
DA:746,0
DA:747,0
DA:748,0
DA:749,0
DA:750,0
DA:751,0
DA:752,0
DA:753,0
DA:754,0
DA:755,0
DA:756,0
DA:757,0
DA:758,0
DA:759,0
DA:760,0
DA:761,0
DA:762,0
DA:763,0
DA:764,0
DA:765,0
DA:766,0
DA:767,0
DA:768,0
DA:769,0
DA:770,0
DA:771,0
DA:772,0
DA:773,0
DA:774,0
DA:776,0
DA:777,0
DA:778,0
DA:779,0
DA:781,0
DA:782,0
DA:783,0
DA:784,0
DA:785,0
DA:800,0
DA:801,0
DA:802,0
DA:803,0
DA:804,0
DA:805,0
DA:806,0
DA:807,0
DA:809,0
DA:810,0
DA:812,0
DA:813,0
DA:814,0
DA:815,0
DA:816,0
DA:817,0
DA:818,0
DA:819,0
DA:820,0
DA:821,0
DA:822,0
DA:823,0
DA:824,0
DA:825,0
DA:826,0
DA:827,0
DA:828,0
DA:829,0
DA:830,0
DA:831,0
DA:832,0
DA:833,0
DA:834,0
DA:835,0
DA:836,0
DA:837,0
DA:838,0
DA:839,0
DA:840,0
DA:841,0
DA:842,0
DA:843,0
DA:844,0
DA:845,0
DA:846,0
DA:847,0
DA:848,0
DA:849,0
DA:850,0
DA:852,0
DA:853,0
DA:854,0
DA:855,0
DA:857,0
DA:858,0
DA:859,0
DA:860,0
DA:861,0
DA:862,0
BRF:0
BRH:0
LF:425
LH:0
end_of_record
SF:/home/ubuntu/Code/s8-verifier/crates/lb-quic/src/listener.rs
FN:137,_RINvMs_NtCs5ctNHRYimvA_7lb_quic8listenerNtB5_18QuicListenerParams15with_h3_backendpEB7_
FN:209,_RNCNCNvMs0_NtCs5ctNHRYimvA_7lb_quic8listenerNtB9_12QuicListener5spawn00Bb_
FN:230,_RNCNCNvMs0_NtCs5ctNHRYimvA_7lb_quic8listenerNtB9_12QuicListener5spawn0s0_0Bb_
FN:249,_RNCNCNvMs0_NtCs5ctNHRYimvA_7lb_quic8listenerNtB9_12QuicListener5spawn0s1_0Bb_
FN:215,_RNCNCNvMs0_NtCs5ctNHRYimvA_7lb_quic8listenerNtB9_12QuicListener5spawn0s_0Bb_
FN:180,_RNCNvMs0_NtCs5ctNHRYimvA_7lb_quic8listenerNtB7_12QuicListener5spawn0B9_
FN:318,_RNCNvNtCs5ctNHRYimvA_7lb_quic8listener29load_or_generate_retry_secret0B5_
FNDA:0,_RINvMs_NtCs5ctNHRYimvA_7lb_quic8listenerNtB5_18QuicListenerParams15with_h3_backendpEB7_
FNDA:0,_RNCNCNvMs0_NtCs5ctNHRYimvA_7lb_quic8listenerNtB9_12QuicListener5spawn00Bb_
FNDA:0,_RNCNCNvMs0_NtCs5ctNHRYimvA_7lb_quic8listenerNtB9_12QuicListener5spawn0s0_0Bb_
FNDA:0,_RNCNCNvMs0_NtCs5ctNHRYimvA_7lb_quic8listenerNtB9_12QuicListener5spawn0s1_0Bb_
FNDA:0,_RNCNCNvMs0_NtCs5ctNHRYimvA_7lb_quic8listenerNtB9_12QuicListener5spawn0s_0Bb_
FNDA:0,_RNCNvMs0_NtCs5ctNHRYimvA_7lb_quic8listenerNtB7_12QuicListener5spawn0B9_
FNDA:0,_RNCNvNtCs5ctNHRYimvA_7lb_quic8listener29load_or_generate_retry_secret0B5_
FNF:7
FNH:0
DA:137,0
DA:138,0
DA:139,0
DA:140,0
DA:141,0
DA:142,0
DA:143,0
DA:144,0
DA:145,0
DA:180,0
DA:181,0
DA:182,0
DA:183,0
DA:185,0
DA:186,0
DA:187,0
DA:188,0
DA:189,0
DA:190,0
DA:193,0
DA:194,0
DA:195,0
DA:196,0
DA:204,0
DA:205,0
DA:206,0
DA:207,0
DA:208,0
DA:209,0
DA:210,0
DA:211,0
DA:212,0
DA:213,0
DA:214,0
DA:215,0
DA:216,0
DA:217,0
DA:218,0
DA:219,0
DA:220,0
DA:221,0
DA:222,0
DA:223,0
DA:224,0
DA:225,0
DA:226,0
DA:227,0
DA:228,0
DA:229,0
DA:230,0
DA:231,0
DA:232,0
DA:233,0
DA:234,0
DA:235,0
DA:236,0
DA:237,0
DA:238,0
DA:239,0
DA:240,0
DA:241,0
DA:242,0
DA:243,0
DA:244,0
DA:245,0
DA:246,0
DA:247,0
DA:248,0
DA:249,0
DA:250,0
DA:251,0
DA:252,0
DA:253,0
DA:254,0
DA:255,0
DA:256,0
DA:257,0
DA:258,0
DA:259,0
DA:260,0
DA:261,0
DA:262,0
DA:263,0
DA:318,0
BRF:0
BRH:0
LF:90
LH:0
end_of_record
SF:/home/ubuntu/Code/s8-verifier/crates/lb-quic/src/router.rs
FN:105,_RNCNvMNtCs5ctNHRYimvA_7lb_quic6routerNtB4_12RouterHandle4join0B6_
FN:189,_RNCNCNvNtCs5ctNHRYimvA_7lb_quic6router15dispatch_packet00B7_
FN:265,_RNCNvNtCs5ctNHRYimvA_7lb_quic6router10send_retry0B5_
FN:121,_RNCNvNtCs5ctNHRYimvA_7lb_quic6router11router_main0B5_
FN:403,_RNCNvNtCs5ctNHRYimvA_7lb_quic6router14sample_conn_id0B5_
FN:166,_RNCNvNtCs5ctNHRYimvA_7lb_quic6router15dispatch_packet0B5_
FN:330,_RNCNvNtCs5ctNHRYimvA_7lb_quic6router20spawn_new_connection0B5_
FN:387,_RNCNvNtCs5ctNHRYimvA_7lb_quic6router20spawn_new_connections0_0B5_
FN:341,_RNCNvNtCs5ctNHRYimvA_7lb_quic6router20spawn_new_connections_0B5_
FN:113,_RNCNvNtCs5ctNHRYimvA_7lb_quic6router5spawn0B5_
FN:105,_RNvMNtCs5ctNHRYimvA_7lb_quic6routerNtB2_12RouterHandle4join
FN:260,_RNvNtCs5ctNHRYimvA_7lb_quic6router10send_retry
FN:121,_RNvNtCs5ctNHRYimvA_7lb_quic6router11router_main
FN:397,_RNvNtCs5ctNHRYimvA_7lb_quic6router14sample_conn_id
FN:160,_RNvNtCs5ctNHRYimvA_7lb_quic6router15dispatch_packet
FN:229,_RNvNtCs5ctNHRYimvA_7lb_quic6router16build_replay_key
FN:238,_RNvNtCs5ctNHRYimvA_7lb_quic6router16forward_to_actor
FN:296,_RNvNtCs5ctNHRYimvA_7lb_quic6router20spawn_new_connection
FN:112,_RNvNtCs5ctNHRYimvA_7lb_quic6router5spawn
FNDA:0,_RNCNvMNtCs5ctNHRYimvA_7lb_quic6routerNtB4_12RouterHandle4join0B6_
FNDA:0,_RNCNCNvNtCs5ctNHRYimvA_7lb_quic6router15dispatch_packet00B7_
FNDA:0,_RNCNvNtCs5ctNHRYimvA_7lb_quic6router10send_retry0B5_
FNDA:0,_RNCNvNtCs5ctNHRYimvA_7lb_quic6router11router_main0B5_
FNDA:0,_RNCNvNtCs5ctNHRYimvA_7lb_quic6router14sample_conn_id0B5_
FNDA:0,_RNCNvNtCs5ctNHRYimvA_7lb_quic6router15dispatch_packet0B5_
FNDA:0,_RNCNvNtCs5ctNHRYimvA_7lb_quic6router20spawn_new_connection0B5_
FNDA:0,_RNCNvNtCs5ctNHRYimvA_7lb_quic6router20spawn_new_connections0_0B5_
FNDA:0,_RNCNvNtCs5ctNHRYimvA_7lb_quic6router20spawn_new_connections_0B5_
FNDA:0,_RNCNvNtCs5ctNHRYimvA_7lb_quic6router5spawn0B5_
FNDA:0,_RNvMNtCs5ctNHRYimvA_7lb_quic6routerNtB2_12RouterHandle4join
FNDA:0,_RNvNtCs5ctNHRYimvA_7lb_quic6router10send_retry
FNDA:0,_RNvNtCs5ctNHRYimvA_7lb_quic6router11router_main
FNDA:0,_RNvNtCs5ctNHRYimvA_7lb_quic6router14sample_conn_id
FNDA:0,_RNvNtCs5ctNHRYimvA_7lb_quic6router15dispatch_packet
FNDA:0,_RNvNtCs5ctNHRYimvA_7lb_quic6router16build_replay_key
FNDA:0,_RNvNtCs5ctNHRYimvA_7lb_quic6router16forward_to_actor
FNDA:0,_RNvNtCs5ctNHRYimvA_7lb_quic6router20spawn_new_connection
FNDA:0,_RNvNtCs5ctNHRYimvA_7lb_quic6router5spawn
FNF:19
FNH:0
DA:105,0
DA:106,0
DA:107,0
DA:112,0
DA:113,0
DA:114,0
DA:115,0
DA:116,0
DA:117,0
DA:118,0
DA:119,0
DA:121,0
DA:122,0
DA:124,0
DA:125,0
DA:126,0
DA:127,0
DA:130,0
DA:132,0
DA:133,0
DA:134,0
DA:136,0
DA:137,0
DA:138,0
DA:139,0
DA:140,0
DA:141,0
DA:144,0
DA:145,0
DA:146,0
DA:147,0
DA:148,0
DA:149,0
DA:150,0
DA:151,0
DA:153,0
DA:154,0
DA:158,0
DA:160,0
DA:161,0
DA:162,0
DA:163,0
DA:164,0
DA:165,0
DA:166,0
DA:170,0
DA:171,0
DA:172,0
DA:174,0
DA:177,0
DA:178,0
DA:179,0
DA:180,0
DA:181,0
DA:182,0
DA:183,0
DA:184,0
DA:185,0
DA:186,0
DA:187,0
DA:188,0
DA:189,0
DA:190,0
DA:191,0
DA:192,0
DA:193,0
DA:195,0
DA:196,0
DA:197,0
DA:198,0
DA:199,0
DA:206,0
DA:207,0
DA:208,0
DA:209,0
DA:210,0
DA:211,0
DA:212,0
DA:213,0
DA:214,0
DA:215,0
DA:216,0
DA:217,0
DA:218,0
DA:219,0
DA:220,0
DA:221,0
DA:229,0
DA:230,0
DA:231,0
DA:232,0
DA:233,0
DA:234,0
DA:235,0
DA:238,0
DA:239,0
DA:240,0
DA:241,0
DA:242,0
DA:243,0
DA:244,0
DA:245,0
DA:246,0
DA:247,0
DA:248,0
DA:250,0
DA:252,0
DA:253,0
DA:254,0
DA:256,0
DA:260,0
DA:261,0
DA:262,0
DA:263,0
DA:264,0
DA:265,0
DA:266,0
DA:267,0
DA:268,0
DA:269,0
DA:270,0
DA:271,0
DA:272,0
DA:273,0
DA:274,0
DA:275,0
DA:276,0
DA:277,0
DA:278,0
DA:279,0
DA:280,0
DA:281,0
DA:282,0
DA:283,0
DA:284,0
DA:285,0
DA:286,0
DA:287,0
DA:289,0
DA:290,0
DA:291,0
DA:292,0
DA:293,0
DA:294,0
DA:296,0
DA:297,0
DA:298,0
DA:299,0
DA:300,0
DA:301,0
DA:302,0
DA:303,0
DA:304,0
DA:305,0
DA:306,0
DA:307,0
DA:308,0
DA:309,0
DA:310,0
DA:311,0
DA:312,0
DA:313,0
DA:314,0
DA:315,0
DA:316,0
DA:318,0
DA:319,0
DA:320,0
DA:321,0
DA:322,0
DA:323,0
DA:324,0
DA:325,0
DA:326,0
DA:327,0
DA:328,0
DA:330,0
DA:331,0
DA:332,0
DA:333,0
DA:334,0
DA:335,0
DA:336,0
DA:337,0
DA:338,0
DA:339,0
DA:340,0
DA:341,0
DA:343,0
DA:344,0
DA:345,0
DA:346,0
DA:347,0
DA:348,0
DA:349,0
DA:350,0
DA:351,0
DA:352,0
DA:353,0
DA:354,0
DA:355,0
DA:356,0
DA:357,0
DA:358,0
DA:359,0
DA:360,0
DA:361,0
DA:362,0
DA:363,0
DA:364,0
DA:365,0
DA:366,0
DA:367,0
DA:368,0
DA:369,0
DA:370,0
DA:371,0
DA:372,0
DA:373,0
DA:374,0
DA:375,0
DA:376,0
DA:377,0
DA:378,0
DA:379,0
DA:380,0
DA:381,0
DA:382,0
DA:383,0
DA:384,0
DA:385,0
DA:386,0
DA:387,0
DA:388,0
DA:389,0
DA:390,0
DA:391,0
DA:393,0
DA:394,0
DA:395,0
DA:397,0
DA:399,0
DA:400,0
DA:401,0
DA:402,0
DA:403,0
DA:404,0
DA:405,0
DA:406,0
DA:407,0
DA:408,0
DA:409,0
DA:410,0
DA:411,0
DA:412,0
DA:413,0
DA:415,0
DA:416,0
DA:417,0
BRF:0
BRH:0
LF:271
LH:0
end_of_record
SF:/home/ubuntu/Code/s8-verifier/crates/lb-security/src/admin_auth.rs
FN:96,_RNvMNtCsgphuHPmxLkZ_11lb_security10admin_authNtB2_14AdminTokenHash14from_plaintext
FN:130,_RNvMNtCsgphuHPmxLkZ_11lb_security10admin_authNtB2_14AdminTokenHash5ct_eq
FN:114,_RNvMNtCsgphuHPmxLkZ_11lb_security10admin_authNtB2_14AdminTokenHash8from_hex
FN:229,_RNvMs0_NtCsgphuHPmxLkZ_11lb_security10admin_authNtB5_13AdminAuthGate13validate_bind
FN:169,_RNvMs0_NtCsgphuHPmxLkZ_11lb_security10admin_authNtB5_13AdminAuthGate3new
FN:175,_RNvMs0_NtCsgphuHPmxLkZ_11lb_security10admin_authNtB5_13AdminAuthGate8enforced
FN:192,_RNvMs0_NtCsgphuHPmxLkZ_11lb_security10admin_authNtB5_13AdminAuthGate9authorize
FN:144,_RNvNtCsgphuHPmxLkZ_11lb_security10admin_auth13decode_nibble
FN:136,_RNvXs_NtCsgphuHPmxLkZ_11lb_security10admin_authNtB4_14AdminTokenHashNtNtCs2va5m0jqTTM_4core3fmt5Debug3fmt
FN:199,_RNCNvMs0_NtCsgphuHPmxLkZ_11lb_security10admin_authNtB7_13AdminAuthGate9authorize0B9_
FNDA:0,_RNvMNtCsgphuHPmxLkZ_11lb_security10admin_authNtB2_14AdminTokenHash14from_plaintext
FNDA:0,_RNvMNtCsgphuHPmxLkZ_11lb_security10admin_authNtB2_14AdminTokenHash5ct_eq
FNDA:0,_RNvMNtCsgphuHPmxLkZ_11lb_security10admin_authNtB2_14AdminTokenHash8from_hex
FNDA:0,_RNvMs0_NtCsgphuHPmxLkZ_11lb_security10admin_authNtB5_13AdminAuthGate13validate_bind
FNDA:0,_RNvMs0_NtCsgphuHPmxLkZ_11lb_security10admin_authNtB5_13AdminAuthGate3new
FNDA:0,_RNvMs0_NtCsgphuHPmxLkZ_11lb_security10admin_authNtB5_13AdminAuthGate8enforced
FNDA:0,_RNvMs0_NtCsgphuHPmxLkZ_11lb_security10admin_authNtB5_13AdminAuthGate9authorize
FNDA:0,_RNvNtCsgphuHPmxLkZ_11lb_security10admin_auth13decode_nibble
FNDA:0,_RNvXs_NtCsgphuHPmxLkZ_11lb_security10admin_authNtB4_14AdminTokenHashNtNtCs2va5m0jqTTM_4core3fmt5Debug3fmt
FNDA:0,_RNCNvMs0_NtCsgphuHPmxLkZ_11lb_security10admin_authNtB7_13AdminAuthGate9authorize0B9_
FNF:10
FNH:0
DA:96,0
DA:97,0
DA:98,0
DA:99,0
DA:100,0
DA:101,0
DA:102,0
DA:103,0
DA:114,0
DA:115,0
DA:116,0
DA:117,0
DA:118,0
DA:119,0
DA:120,0
DA:121,0
DA:122,0
DA:123,0
DA:125,0
DA:126,0
DA:130,0
DA:131,0
DA:132,0
DA:136,0
DA:137,0
DA:138,0
DA:139,0
DA:140,0
DA:141,0
DA:144,0
DA:145,0
DA:146,0
DA:147,0
DA:148,0
DA:149,0
DA:151,0
DA:169,0
DA:170,0
DA:171,0
DA:175,0
DA:176,0
DA:177,0
DA:192,0
DA:193,0
DA:194,0
DA:196,0
DA:197,0
DA:198,0
DA:199,0
DA:200,0
DA:201,0
DA:202,0
DA:203,0
DA:204,0
DA:205,0
DA:206,0
DA:207,0
DA:208,0
DA:210,0
DA:212,0
DA:229,0
DA:230,0
DA:231,0
DA:232,0
DA:233,0
DA:234,0
DA:235,0
DA:236,0
DA:237,0
DA:238,0
DA:239,0
DA:240,0
DA:241,0
DA:242,0
DA:243,0
DA:244,0
BRF:0
BRH:0
LF:77
LH:0
end_of_record
SF:/home/ubuntu/Code/s8-verifier/crates/lb-security/src/conn_gate.rs
FN:213,_RNvXs1_NtCsgphuHPmxLkZ_11lb_security9conn_gateNtB5_10ConnPermitNtNtNtCs2va5m0jqTTM_4core3ops4drop4Drop4drop
FN:78,_RNvMNtCsgphuHPmxLkZ_11lb_security9conn_gateNtB2_5IpNet3new
FN:145,_RNvMs0_NtCsgphuHPmxLkZ_11lb_security9conn_gateNtB5_8ConnGate10per_ip_cap
FN:139,_RNvMs0_NtCsgphuHPmxLkZ_11lb_security9conn_gateNtB5_8ConnGate12listener_cap
FN:164,_RNvMs0_NtCsgphuHPmxLkZ_11lb_security9conn_gateNtB5_8ConnGate13trusted_cidrs
FN:158,_RNvMs0_NtCsgphuHPmxLkZ_11lb_security9conn_gateNtB5_8ConnGate18current_peer_count
FN:152,_RNvMs0_NtCsgphuHPmxLkZ_11lb_security9conn_gateNtB5_8ConnGate22current_listener_count
FN:125,_RNvMs0_NtCsgphuHPmxLkZ_11lb_security9conn_gateNtB5_8ConnGate3new
FN:178,_RNvMs0_NtCsgphuHPmxLkZ_11lb_security9conn_gateNtB5_8ConnGate5admit
FN:110,_RNvXs_NtCsgphuHPmxLkZ_11lb_security9conn_gateNtB4_10ConnPermitNtNtCs2va5m0jqTTM_4core3fmt5Debug3fmt
FN:159,_RNCNvMs0_NtCsgphuHPmxLkZ_11lb_security9conn_gateNtB7_8ConnGate18current_peer_count0B9_
FN:226,_RNCNvXs1_NtCsgphuHPmxLkZ_11lb_security9conn_gateNtB7_10ConnPermitNtNtNtCs2va5m0jqTTM_4core3ops4drop4Drop4drop0B9_
FNDA:0,_RNvXs1_NtCsgphuHPmxLkZ_11lb_security9conn_gateNtB5_10ConnPermitNtNtNtCs2va5m0jqTTM_4core3ops4drop4Drop4drop
FNDA:0,_RNvMNtCsgphuHPmxLkZ_11lb_security9conn_gateNtB2_5IpNet3new
FNDA:0,_RNvMs0_NtCsgphuHPmxLkZ_11lb_security9conn_gateNtB5_8ConnGate10per_ip_cap
FNDA:0,_RNvMs0_NtCsgphuHPmxLkZ_11lb_security9conn_gateNtB5_8ConnGate12listener_cap
FNDA:0,_RNvMs0_NtCsgphuHPmxLkZ_11lb_security9conn_gateNtB5_8ConnGate13trusted_cidrs
FNDA:0,_RNvMs0_NtCsgphuHPmxLkZ_11lb_security9conn_gateNtB5_8ConnGate18current_peer_count
FNDA:0,_RNvMs0_NtCsgphuHPmxLkZ_11lb_security9conn_gateNtB5_8ConnGate22current_listener_count
FNDA:24,_RNvMs0_NtCsgphuHPmxLkZ_11lb_security9conn_gateNtB5_8ConnGate3new
FNDA:0,_RNvMs0_NtCsgphuHPmxLkZ_11lb_security9conn_gateNtB5_8ConnGate5admit
FNDA:0,_RNvXs_NtCsgphuHPmxLkZ_11lb_security9conn_gateNtB4_10ConnPermitNtNtCs2va5m0jqTTM_4core3fmt5Debug3fmt
FNDA:0,_RNCNvMs0_NtCsgphuHPmxLkZ_11lb_security9conn_gateNtB7_8ConnGate18current_peer_count0B9_
FNDA:0,_RNCNvXs1_NtCsgphuHPmxLkZ_11lb_security9conn_gateNtB7_10ConnPermitNtNtNtCs2va5m0jqTTM_4core3ops4drop4Drop4drop0B9_
FNF:12
FNH:1
DA:78,0
DA:79,0
DA:80,0
DA:110,0
DA:111,0
DA:112,0
DA:113,0
DA:114,0
DA:125,24
DA:126,24
DA:127,24
DA:128,24
DA:129,24
DA:130,24
DA:131,24
DA:132,24
DA:133,24
DA:134,24
DA:135,24
DA:139,0
DA:140,0
DA:141,0
DA:145,0
DA:146,0
DA:147,0
DA:152,0
DA:153,0
DA:154,0
DA:158,0
DA:159,0
DA:160,0
DA:164,0
DA:165,0
DA:166,0
DA:178,0
DA:179,0
DA:181,0
DA:182,0
DA:183,0
DA:184,0
DA:185,0
DA:186,0
DA:187,0
DA:188,0
DA:189,0
DA:190,0
DA:191,0
DA:195,0
DA:196,0
DA:197,0
DA:198,0
DA:199,0
DA:200,0
DA:201,0
DA:202,0
DA:203,0
DA:204,0
DA:205,0
DA:206,0
DA:207,0
DA:208,0
DA:209,0
DA:213,0
DA:214,0
DA:215,0
DA:216,0
DA:217,0
DA:218,0
DA:219,0
DA:220,0
DA:221,0
DA:222,0
DA:223,0
DA:224,0
DA:225,0
DA:226,0
DA:227,0
DA:228,0
DA:229,0
DA:230,0
BRF:0
BRH:0
LF:82
LH:11
end_of_record
SF:/home/ubuntu/Code/s8-verifier/crates/lb-security/src/glitches.rs
FN:64,_RNvMNtCsgphuHPmxLkZ_11lb_security8glitchesNtB2_10GlitchKind6weight
FN:110,_RNvMs_NtCsgphuHPmxLkZ_11lb_security8glitchesNtB4_15GlitchesCounter13with_defaults
FN:99,_RNvMs_NtCsgphuHPmxLkZ_11lb_security8glitchesNtB4_15GlitchesCounter3new
FN:153,_RNvMs_NtCsgphuHPmxLkZ_11lb_security8glitchesNtB4_15GlitchesCounter5prune
FN:128,_RNvMs_NtCsgphuHPmxLkZ_11lb_security8glitchesNtB4_15GlitchesCounter5score
FN:137,_RNvMs_NtCsgphuHPmxLkZ_11lb_security8glitchesNtB4_15GlitchesCounter6record
FN:122,_RNvMs_NtCsgphuHPmxLkZ_11lb_security8glitchesNtB4_15GlitchesCounter6window
FN:116,_RNvMs_NtCsgphuHPmxLkZ_11lb_security8glitchesNtB4_15GlitchesCounter9threshold
FN:169,_RNvXs0_NtCsgphuHPmxLkZ_11lb_security8glitchesNtB5_15GlitchesCounterNtNtCs2va5m0jqTTM_4core7default7Default7default
FNDA:0,_RNvMNtCsgphuHPmxLkZ_11lb_security8glitchesNtB2_10GlitchKind6weight
FNDA:0,_RNvMs_NtCsgphuHPmxLkZ_11lb_security8glitchesNtB4_15GlitchesCounter13with_defaults
FNDA:0,_RNvMs_NtCsgphuHPmxLkZ_11lb_security8glitchesNtB4_15GlitchesCounter3new
FNDA:0,_RNvMs_NtCsgphuHPmxLkZ_11lb_security8glitchesNtB4_15GlitchesCounter5prune
FNDA:0,_RNvMs_NtCsgphuHPmxLkZ_11lb_security8glitchesNtB4_15GlitchesCounter5score
FNDA:0,_RNvMs_NtCsgphuHPmxLkZ_11lb_security8glitchesNtB4_15GlitchesCounter6record
FNDA:0,_RNvMs_NtCsgphuHPmxLkZ_11lb_security8glitchesNtB4_15GlitchesCounter6window
FNDA:0,_RNvMs_NtCsgphuHPmxLkZ_11lb_security8glitchesNtB4_15GlitchesCounter9threshold
FNDA:0,_RNvXs0_NtCsgphuHPmxLkZ_11lb_security8glitchesNtB5_15GlitchesCounterNtNtCs2va5m0jqTTM_4core7default7Default7default
FNF:9
FNH:0
DA:64,0
DA:65,0
DA:66,0
DA:67,0
DA:68,0
DA:69,0
DA:70,0
DA:72,0
DA:99,0
DA:100,0
DA:101,0
DA:102,0
DA:103,0
DA:104,0
DA:105,0
DA:106,0
DA:110,0
DA:111,0
DA:112,0
DA:116,0
DA:117,0
DA:118,0
DA:122,0
DA:123,0
DA:124,0
DA:128,0
DA:129,0
DA:130,0
DA:137,0
DA:138,0
DA:139,0
DA:140,0
DA:141,0
DA:142,0
DA:143,0
DA:144,0
DA:145,0
DA:147,0
DA:149,0
DA:153,0
DA:154,0
DA:155,0
DA:156,0
DA:157,0
DA:158,0
DA:159,0
DA:160,0
DA:161,0
DA:164,0
DA:165,0
DA:169,0
DA:170,0
DA:171,0
BRF:0
BRH:0
LF:53
LH:0
end_of_record
SF:/home/ubuntu/Code/s8-verifier/crates/lb-security/src/handshake.rs
FN:60,_RINvNtCsgphuHPmxLkZ_11lb_security9handshake14timeout_acceptpEB4_
FN:67,_RNCINvNtCsgphuHPmxLkZ_11lb_security9handshake14timeout_acceptpE0B6_
FNDA:0,_RINvNtCsgphuHPmxLkZ_11lb_security9handshake14timeout_acceptpEB4_
FNDA:0,_RNCINvNtCsgphuHPmxLkZ_11lb_security9handshake14timeout_acceptpE0B6_
FNF:2
FNH:0
DA:60,0
DA:61,0
DA:62,0
DA:63,0
DA:64,0
DA:65,0
DA:66,0
DA:67,0
DA:68,0
DA:69,0
DA:70,0
DA:72,0
DA:74,0
DA:75,0
DA:76,0
DA:77,0
DA:78,0
DA:79,0
DA:80,0
DA:81,0
DA:84,0
BRF:0
BRH:0
LF:22
LH:0
end_of_record
SF:/home/ubuntu/Code/s8-verifier/crates/lb-security/src/hooks.rs
FN:114,_RNvMNtCsgphuHPmxLkZ_11lb_security5hooksNtB2_11HooksBundle3new
FN:121,_RNvMNtCsgphuHPmxLkZ_11lb_security5hooksNtB2_11HooksBundle4gate
FN:148,_RNvXs_NtCsgphuHPmxLkZ_11lb_security5hooksNtB4_11HooksBundleNtB4_13SecurityHooks16admit_connection
FN:127,_RINvXs_NtCsgphuHPmxLkZ_11lb_security5hooksNtB5_11HooksBundleNtB5_13SecurityHooks15inspect_requestpEB7_
FNDA:0,_RNvMNtCsgphuHPmxLkZ_11lb_security5hooksNtB2_11HooksBundle3new
FNDA:0,_RNvMNtCsgphuHPmxLkZ_11lb_security5hooksNtB2_11HooksBundle4gate
FNDA:0,_RNvXs_NtCsgphuHPmxLkZ_11lb_security5hooksNtB4_11HooksBundleNtB4_13SecurityHooks16admit_connection
FNDA:0,_RINvXs_NtCsgphuHPmxLkZ_11lb_security5hooksNtB5_11HooksBundleNtB5_13SecurityHooks15inspect_requestpEB7_
FNF:4
FNH:0
DA:114,0
DA:115,0
DA:116,0
DA:121,0
DA:122,0
DA:123,0
DA:127,0
DA:128,0
DA:129,0
DA:130,0
DA:131,0
DA:132,0
DA:133,0
DA:134,0
DA:135,0
DA:136,0
DA:137,0
DA:138,0
DA:139,0
DA:140,0
DA:142,0
DA:144,0
DA:145,0
DA:146,0
DA:148,0
DA:149,0
DA:150,0
BRF:0
BRH:0
LF:27
LH:0
end_of_record
SF:/home/ubuntu/Code/s8-verifier/crates/lb-security/src/key.rs
FN:97,_RINvNtCsgphuHPmxLkZ_11lb_security3key17assert_owner_onlypEB4_
FN:105,_RNCINvNtCsgphuHPmxLkZ_11lb_security3key17assert_owner_onlypE0B6_
FNDA:0,_RINvNtCsgphuHPmxLkZ_11lb_security3key17assert_owner_onlypEB4_
FNDA:0,_RNCINvNtCsgphuHPmxLkZ_11lb_security3key17assert_owner_onlypE0B6_
FNF:2
FNH:0
DA:97,0
DA:98,0
DA:99,0
DA:100,0
DA:101,0
DA:105,0
DA:106,0
DA:107,0
DA:108,0
DA:109,0
DA:110,0
DA:111,0
DA:112,0
DA:113,0
DA:114,0
DA:115,0
DA:116,0
DA:117,0
DA:119,0
DA:127,0
BRF:0
BRH:0
LF:22
LH:0
end_of_record
SF:/home/ubuntu/Code/s8-verifier/crates/lb-security/src/retry.rs
FN:139,_RNvMs_NtCsgphuHPmxLkZ_11lb_security5retryNtB4_16RetryTokenSigner10new_random
FN:160,_RNvMs_NtCsgphuHPmxLkZ_11lb_security5retryNtB4_16RetryTokenSigner12with_max_age
FN:150,_RNvMs_NtCsgphuHPmxLkZ_11lb_security5retryNtB4_16RetryTokenSigner15new_with_secret
FN:186,_RNvMs_NtCsgphuHPmxLkZ_11lb_security5retryNtB4_16RetryTokenSigner4mint
FN:219,_RNvMs_NtCsgphuHPmxLkZ_11lb_security5retryNtB4_16RetryTokenSigner6verify
FN:167,_RNvMs_NtCsgphuHPmxLkZ_11lb_security5retryNtB4_16RetryTokenSigner7max_age
FN:193,_RNvMs_NtCsgphuHPmxLkZ_11lb_security5retryNtB4_16RetryTokenSigner7mint_at
FN:297,_RNvNtCsgphuHPmxLkZ_11lb_security5retry11decode_peer
FN:283,_RNvNtCsgphuHPmxLkZ_11lb_security5retry11encode_peer
FN:123,_RNvXNtCsgphuHPmxLkZ_11lb_security5retryNtB2_16RetryTokenSignerNtNtCs2va5m0jqTTM_4core3fmt5Debug3fmt
FN:143,_RNCNvMs_NtCsgphuHPmxLkZ_11lb_security5retryNtB6_16RetryTokenSigner10new_random0B8_
FNDA:0,_RNvMs_NtCsgphuHPmxLkZ_11lb_security5retryNtB4_16RetryTokenSigner10new_random
FNDA:0,_RNvMs_NtCsgphuHPmxLkZ_11lb_security5retryNtB4_16RetryTokenSigner12with_max_age
FNDA:0,_RNvMs_NtCsgphuHPmxLkZ_11lb_security5retryNtB4_16RetryTokenSigner15new_with_secret
FNDA:0,_RNvMs_NtCsgphuHPmxLkZ_11lb_security5retryNtB4_16RetryTokenSigner4mint
FNDA:0,_RNvMs_NtCsgphuHPmxLkZ_11lb_security5retryNtB4_16RetryTokenSigner6verify
FNDA:0,_RNvMs_NtCsgphuHPmxLkZ_11lb_security5retryNtB4_16RetryTokenSigner7max_age
FNDA:0,_RNvMs_NtCsgphuHPmxLkZ_11lb_security5retryNtB4_16RetryTokenSigner7mint_at
FNDA:0,_RNvNtCsgphuHPmxLkZ_11lb_security5retry11decode_peer
FNDA:0,_RNvNtCsgphuHPmxLkZ_11lb_security5retry11encode_peer
FNDA:0,_RNvXNtCsgphuHPmxLkZ_11lb_security5retryNtB2_16RetryTokenSignerNtNtCs2va5m0jqTTM_4core3fmt5Debug3fmt
FNDA:0,_RNCNvMs_NtCsgphuHPmxLkZ_11lb_security5retryNtB6_16RetryTokenSigner10new_random0B8_
FNF:11
FNH:0
DA:123,0
DA:124,0
DA:125,0
DA:126,0
DA:127,0
DA:128,0
DA:139,0
DA:140,0
DA:141,0
DA:142,0
DA:143,0
DA:144,0
DA:145,0
DA:150,0
DA:151,0
DA:152,0
DA:153,0
DA:154,0
DA:155,0
DA:156,0
DA:160,0
DA:161,0
DA:162,0
DA:163,0
DA:167,0
DA:168,0
DA:169,0
DA:186,0
DA:187,0
DA:188,0
DA:193,0
DA:194,0
DA:195,0
DA:196,0
DA:197,0
DA:198,0
DA:199,0
DA:200,0
DA:201,0
DA:202,0
DA:203,0
DA:204,0
DA:205,0
DA:206,0
DA:207,0
DA:208,0
DA:209,0
DA:210,0
DA:219,0
DA:220,0
DA:221,0
DA:222,0
DA:223,0
DA:224,0
DA:225,0
DA:226,0
DA:227,0
DA:228,0
DA:229,0
DA:230,0
DA:231,0
DA:232,0
DA:233,0
DA:234,0
DA:235,0
DA:236,0
DA:237,0
DA:238,0
DA:239,0
DA:240,0
DA:245,0
DA:246,0
DA:247,0
DA:248,0
DA:249,0
DA:250,0
DA:251,0
DA:252,0
DA:253,0
DA:254,0
DA:255,0
DA:256,0
DA:258,0
DA:259,0
DA:261,0
DA:262,0
DA:263,0
DA:264,0
DA:265,0
DA:268,0
DA:269,0
DA:270,0
DA:271,0
DA:272,0
DA:273,0
DA:274,0
DA:275,0
DA:276,0
DA:277,0
DA:278,0
DA:279,0
DA:280,0
DA:283,0
DA:284,0
DA:285,0
DA:286,0
DA:287,0
DA:288,0
DA:289,0
DA:290,0
DA:291,0
DA:292,0
DA:294,0
DA:295,0
DA:297,0
DA:298,0
DA:299,0
DA:300,0
DA:301,0
DA:302,0
DA:304,0
DA:305,0
DA:306,0
DA:307,0
DA:308,0
DA:309,0
DA:310,0
DA:311,0
DA:312,0
DA:313,0
DA:314,0
DA:315,0
DA:316,0
DA:318,0
DA:319,0
DA:320,0
DA:322,0
DA:323,0
BRF:0
BRH:0
LF:139
LH:0
end_of_record
SF:/home/ubuntu/Code/s8-verifier/crates/lb-security/src/smuggle.rs
FN:78,_RNvMNtCsgphuHPmxLkZ_11lb_security7smuggleNtB2_15SmuggleDetector11check_cl_te
FN:103,_RNvMNtCsgphuHPmxLkZ_11lb_security7smuggleNtB2_15SmuggleDetector11check_te_cl
FN:148,_RNvMNtCsgphuHPmxLkZ_11lb_security7smuggleNtB2_15SmuggleDetector14check_all_mode
FN:190,_RNvMNtCsgphuHPmxLkZ_11lb_security7smuggleNtB2_15SmuggleDetector15check_te_strict
FN:52,_RNvMNtCsgphuHPmxLkZ_11lb_security7smuggleNtB2_15SmuggleDetector18check_duplicate_cl
FN:220,_RNvMNtCsgphuHPmxLkZ_11lb_security7smuggleNtB2_15SmuggleDetector18check_h2_downgrade
FN:125,_RNvMNtCsgphuHPmxLkZ_11lb_security7smuggleNtB2_15SmuggleDetector9check_all
FN:81,_RNCNvMNtCsgphuHPmxLkZ_11lb_security7smuggleNtB4_15SmuggleDetector11check_cl_te0B6_
FN:84,_RNCNvMNtCsgphuHPmxLkZ_11lb_security7smuggleNtB4_15SmuggleDetector11check_cl_tes_0B6_
FN:240,_RNCNvMNtCsgphuHPmxLkZ_11lb_security7smuggleNtB4_15SmuggleDetector18check_h2_downgrade0B6_
FNDA:12,_RNvMNtCsgphuHPmxLkZ_11lb_security7smuggleNtB2_15SmuggleDetector11check_cl_te
FNDA:12,_RNvMNtCsgphuHPmxLkZ_11lb_security7smuggleNtB2_15SmuggleDetector11check_te_cl
FNDA:12,_RNvMNtCsgphuHPmxLkZ_11lb_security7smuggleNtB2_15SmuggleDetector14check_all_mode
FNDA:0,_RNvMNtCsgphuHPmxLkZ_11lb_security7smuggleNtB2_15SmuggleDetector15check_te_strict
FNDA:12,_RNvMNtCsgphuHPmxLkZ_11lb_security7smuggleNtB2_15SmuggleDetector18check_duplicate_cl
FNDA:12,_RNvMNtCsgphuHPmxLkZ_11lb_security7smuggleNtB2_15SmuggleDetector18check_h2_downgrade
FNDA:0,_RNvMNtCsgphuHPmxLkZ_11lb_security7smuggleNtB2_15SmuggleDetector9check_all
FNDA:12,_RNCNvMNtCsgphuHPmxLkZ_11lb_security7smuggleNtB4_15SmuggleDetector11check_cl_te0B6_
FNDA:14,_RNCNvMNtCsgphuHPmxLkZ_11lb_security7smuggleNtB4_15SmuggleDetector11check_cl_tes_0B6_
FNDA:70,_RNCNvMNtCsgphuHPmxLkZ_11lb_security7smuggleNtB4_15SmuggleDetector18check_h2_downgrade0B6_
FNF:10
FNH:8
DA:52,12
DA:53,12
DA:54,26
DA:55,14
DA:56,2
DA:57,2
DA:58,0
DA:59,0
DA:60,0
DA:61,0
DA:64,12
DA:66,12
DA:67,12
DA:78,12
DA:79,12
DA:80,12
DA:81,12
DA:82,12
DA:83,12
DA:84,14
DA:85,12
DA:86,12
DA:87,0
DA:88,12
DA:89,12
DA:90,12
DA:103,12
DA:104,26
DA:105,14
DA:107,0
DA:108,0
DA:109,0
DA:110,0
DA:111,0
DA:112,14
DA:114,12
DA:115,12
DA:125,0
DA:126,0
DA:127,0
DA:128,0
DA:129,0
DA:130,0
DA:131,0
DA:132,0
DA:133,0
DA:134,0
DA:135,0
DA:136,0
DA:148,12
DA:149,12
DA:150,12
DA:151,12
DA:152,12
DA:153,12
DA:154,12
DA:155,12
DA:156,0
DA:158,0
DA:161,12
DA:164,12
DA:165,12
DA:190,0
DA:191,0
DA:192,0
DA:193,0
DA:194,0
DA:195,0
DA:198,0
DA:199,0
DA:200,0
DA:201,0
DA:202,0
DA:204,0
DA:206,0
DA:207,0
DA:220,12
DA:221,12
DA:222,12
DA:223,12
DA:232,12
DA:233,0
DA:234,12
DA:236,26
DA:237,14
DA:238,14
DA:239,14
DA:240,70
DA:241,0
DA:242,14
DA:243,14
DA:244,14
DA:245,14
DA:246,14
DA:247,0
DA:248,14
DA:249,14
DA:250,14
DA:251,14
DA:252,0
DA:253,14
DA:256,12
DA:257,12
BRF:0
BRH:0
LF:106
LH:64
end_of_record
SF:/home/ubuntu/Code/s8-verifier/crates/lb-security/src/ticket.rs
FN:91,_RNvMNtCsgphuHPmxLkZ_11lb_security6ticketNtB2_9TicketKey7decrypt
FN:83,_RNvMNtCsgphuHPmxLkZ_11lb_security6ticketNtB2_9TicketKey7encrypt
FN:73,_RNvMNtCsgphuHPmxLkZ_11lb_security6ticketNtB2_9TicketKey8generate
FN:167,_RNvMs0_NtCsgphuHPmxLkZ_11lb_security6ticketNtB5_13TicketRotator10rotated_at
FN:190,_RNvMs0_NtCsgphuHPmxLkZ_11lb_security6ticketNtB5_13TicketRotator13rotate_if_due
FN:142,_RNvMs0_NtCsgphuHPmxLkZ_11lb_security6ticketNtB5_13TicketRotator17rotation_interval
FN:232,_RNvMs0_NtCsgphuHPmxLkZ_11lb_security6ticketNtB5_13TicketRotator18as_rustls_ticketer
FN:221,_RNvMs0_NtCsgphuHPmxLkZ_11lb_security6ticketNtB5_13TicketRotator20into_rustls_ticketer
FN:128,_RNvMs0_NtCsgphuHPmxLkZ_11lb_security6ticketNtB5_13TicketRotator3new
FN:155,_RNvMs0_NtCsgphuHPmxLkZ_11lb_security6ticketNtB5_13TicketRotator7current
FN:149,_RNvMs0_NtCsgphuHPmxLkZ_11lb_security6ticketNtB5_13TicketRotator7overlap
FN:161,_RNvMs0_NtCsgphuHPmxLkZ_11lb_security6ticketNtB5_13TicketRotator8previous
FN:262,_RNvMs2_NtCsgphuHPmxLkZ_11lb_security6ticketNtB5_16RotatingTicketer13lifetime_secs
FN:272,_RNvMs2_NtCsgphuHPmxLkZ_11lb_security6ticketNtB5_16RotatingTicketer13ticketer_from
FN:453,_RNvMs5_NtCsgphuHPmxLkZ_11lb_security6ticketNtB5_14TlsBundleError6reason
FN:623,_RNvMs7_NtCsgphuHPmxLkZ_11lb_security6ticketNtB5_15TlsConfigBundle11into_shared
FN:611,_RNvMs7_NtCsgphuHPmxLkZ_11lb_security6ticketNtB5_15TlsConfigBundle14loaded_at_wall
FN:522,_RNvMs7_NtCsgphuHPmxLkZ_11lb_security6ticketNtB5_15TlsConfigBundle15load_from_paths
FN:538,_RNvMs7_NtCsgphuHPmxLkZ_11lb_security6ticketNtB5_15TlsConfigBundle20load_from_paths_with
FN:617,_RNvMs7_NtCsgphuHPmxLkZ_11lb_security6ticketNtB5_15TlsConfigBundle9loaded_at
FN:644,_RNvNtCsgphuHPmxLkZ_11lb_security6ticket17reload_tls_bundle
FN:331,_RNvNtCsgphuHPmxLkZ_11lb_security6ticket19build_server_config
FN:353,_RNvNtCsgphuHPmxLkZ_11lb_security6ticket31build_server_config_with_policy
FN:242,_RNvXs1_NtCsgphuHPmxLkZ_11lb_security6ticketNtB5_13TicketRotatorNtNtCs2va5m0jqTTM_4core3fmt5Debug3fmt
FN:278,_RNvXs3_NtCsgphuHPmxLkZ_11lb_security6ticketNtB5_16RotatingTicketerNtNtCs2va5m0jqTTM_4core3fmt5Debug3fmt
FN:298,_RNvXs4_NtCsgphuHPmxLkZ_11lb_security6ticketNtB5_16RotatingTicketerNtNtNtCs7pS0JuyG8rH_6rustls6server11server_conn15ProducesTickets7decrypt
FN:284,_RNvXs4_NtCsgphuHPmxLkZ_11lb_security6ticketNtB5_16RotatingTicketerNtNtNtCs7pS0JuyG8rH_6rustls6server11server_conn15ProducesTickets7enabled
FN:293,_RNvXs4_NtCsgphuHPmxLkZ_11lb_security6ticketNtB5_16RotatingTicketerNtNtNtCs7pS0JuyG8rH_6rustls6server11server_conn15ProducesTickets7encrypt
FN:288,_RNvXs4_NtCsgphuHPmxLkZ_11lb_security6ticketNtB5_16RotatingTicketerNtNtNtCs7pS0JuyG8rH_6rustls6server11server_conn15ProducesTickets8lifetime
FN:495,_RNvXs6_NtCsgphuHPmxLkZ_11lb_security6ticketNtB5_15TlsConfigBundleNtNtCs2va5m0jqTTM_4core3fmt5Debug3fmt
FN:97,_RNvXs_NtCsgphuHPmxLkZ_11lb_security6ticketNtB4_9TicketKeyNtNtCs2va5m0jqTTM_4core3fmt5Debug3fmt
FN:75,_RNCNvMNtCsgphuHPmxLkZ_11lb_security6ticketNtB4_9TicketKey8generate0B6_
FN:546,_RNCNvMs7_NtCsgphuHPmxLkZ_11lb_security6ticketNtB7_15TlsConfigBundle20load_from_paths_with0B9_
FN:565,_RNCNvMs7_NtCsgphuHPmxLkZ_11lb_security6ticketNtB7_15TlsConfigBundle20load_from_paths_withs0_0B9_
FN:571,_RNCNvMs7_NtCsgphuHPmxLkZ_11lb_security6ticketNtB7_15TlsConfigBundle20load_from_paths_withs1_0B9_
FN:575,_RNCNvMs7_NtCsgphuHPmxLkZ_11lb_security6ticketNtB7_15TlsConfigBundle20load_from_paths_withs2_0B9_
FN:587,_RNCNvMs7_NtCsgphuHPmxLkZ_11lb_security6ticketNtB7_15TlsConfigBundle20load_from_paths_withs3_0B9_
FN:591,_RNCNvMs7_NtCsgphuHPmxLkZ_11lb_security6ticketNtB7_15TlsConfigBundle20load_from_paths_withs4_0B9_
FN:596,_RNCNvMs7_NtCsgphuHPmxLkZ_11lb_security6ticketNtB7_15TlsConfigBundle20load_from_paths_withs5_0B9_
FN:553,_RNCNvMs7_NtCsgphuHPmxLkZ_11lb_security6ticketNtB7_15TlsConfigBundle20load_from_paths_withs_0B9_
FN:364,_RNCNvNtCsgphuHPmxLkZ_11lb_security6ticket31build_server_config_with_policy0B5_
FN:373,_RNCNvNtCsgphuHPmxLkZ_11lb_security6ticket31build_server_config_with_policys0_0B5_
FN:376,_RNCNvNtCsgphuHPmxLkZ_11lb_security6ticket31build_server_config_with_policys1_0B5_
FN:368,_RNCNvNtCsgphuHPmxLkZ_11lb_security6ticket31build_server_config_with_policys_0B5_
FN:303,_RNCNvXs4_NtCsgphuHPmxLkZ_11lb_security6ticketNtB7_16RotatingTicketerNtNtNtCs7pS0JuyG8rH_6rustls6server11server_conn15ProducesTickets7decrypt0B9_
FNDA:0,_RNvMNtCsgphuHPmxLkZ_11lb_security6ticketNtB2_9TicketKey7decrypt
FNDA:24,_RNvMNtCsgphuHPmxLkZ_11lb_security6ticketNtB2_9TicketKey7encrypt
FNDA:12,_RNvMNtCsgphuHPmxLkZ_11lb_security6ticketNtB2_9TicketKey8generate
FNDA:0,_RNvMs0_NtCsgphuHPmxLkZ_11lb_security6ticketNtB5_13TicketRotator10rotated_at
FNDA:0,_RNvMs0_NtCsgphuHPmxLkZ_11lb_security6ticketNtB5_13TicketRotator13rotate_if_due
FNDA:0,_RNvMs0_NtCsgphuHPmxLkZ_11lb_security6ticketNtB5_13TicketRotator17rotation_interval
FNDA:0,_RNvMs0_NtCsgphuHPmxLkZ_11lb_security6ticketNtB5_13TicketRotator18as_rustls_ticketer
FNDA:0,_RNvMs0_NtCsgphuHPmxLkZ_11lb_security6ticketNtB5_13TicketRotator20into_rustls_ticketer
FNDA:12,_RNvMs0_NtCsgphuHPmxLkZ_11lb_security6ticketNtB5_13TicketRotator3new
FNDA:0,_RNvMs0_NtCsgphuHPmxLkZ_11lb_security6ticketNtB5_13TicketRotator7current
FNDA:0,_RNvMs0_NtCsgphuHPmxLkZ_11lb_security6ticketNtB5_13TicketRotator7overlap
FNDA:0,_RNvMs0_NtCsgphuHPmxLkZ_11lb_security6ticketNtB5_13TicketRotator8previous
FNDA:24,_RNvMs2_NtCsgphuHPmxLkZ_11lb_security6ticketNtB5_16RotatingTicketer13lifetime_secs
FNDA:0,_RNvMs2_NtCsgphuHPmxLkZ_11lb_security6ticketNtB5_16RotatingTicketer13ticketer_from
FNDA:0,_RNvMs5_NtCsgphuHPmxLkZ_11lb_security6ticketNtB5_14TlsBundleError6reason
FNDA:0,_RNvMs7_NtCsgphuHPmxLkZ_11lb_security6ticketNtB5_15TlsConfigBundle11into_shared
FNDA:0,_RNvMs7_NtCsgphuHPmxLkZ_11lb_security6ticketNtB5_15TlsConfigBundle14loaded_at_wall
FNDA:0,_RNvMs7_NtCsgphuHPmxLkZ_11lb_security6ticketNtB5_15TlsConfigBundle15load_from_paths
FNDA:0,_RNvMs7_NtCsgphuHPmxLkZ_11lb_security6ticketNtB5_15TlsConfigBundle20load_from_paths_with
FNDA:0,_RNvMs7_NtCsgphuHPmxLkZ_11lb_security6ticketNtB5_15TlsConfigBundle9loaded_at
FNDA:0,_RNvNtCsgphuHPmxLkZ_11lb_security6ticket17reload_tls_bundle
FNDA:12,_RNvNtCsgphuHPmxLkZ_11lb_security6ticket19build_server_config
FNDA:12,_RNvNtCsgphuHPmxLkZ_11lb_security6ticket31build_server_config_with_policy
FNDA:0,_RNvXs1_NtCsgphuHPmxLkZ_11lb_security6ticketNtB5_13TicketRotatorNtNtCs2va5m0jqTTM_4core3fmt5Debug3fmt
FNDA:0,_RNvXs3_NtCsgphuHPmxLkZ_11lb_security6ticketNtB5_16RotatingTicketerNtNtCs2va5m0jqTTM_4core3fmt5Debug3fmt
FNDA:0,_RNvXs4_NtCsgphuHPmxLkZ_11lb_security6ticketNtB5_16RotatingTicketerNtNtNtCs7pS0JuyG8rH_6rustls6server11server_conn15ProducesTickets7decrypt
FNDA:24,_RNvXs4_NtCsgphuHPmxLkZ_11lb_security6ticketNtB5_16RotatingTicketerNtNtNtCs7pS0JuyG8rH_6rustls6server11server_conn15ProducesTickets7enabled
FNDA:24,_RNvXs4_NtCsgphuHPmxLkZ_11lb_security6ticketNtB5_16RotatingTicketerNtNtNtCs7pS0JuyG8rH_6rustls6server11server_conn15ProducesTickets7encrypt
FNDA:24,_RNvXs4_NtCsgphuHPmxLkZ_11lb_security6ticketNtB5_16RotatingTicketerNtNtNtCs7pS0JuyG8rH_6rustls6server11server_conn15ProducesTickets8lifetime
FNDA:0,_RNvXs6_NtCsgphuHPmxLkZ_11lb_security6ticketNtB5_15TlsConfigBundleNtNtCs2va5m0jqTTM_4core3fmt5Debug3fmt
FNDA:0,_RNvXs_NtCsgphuHPmxLkZ_11lb_security6ticketNtB4_9TicketKeyNtNtCs2va5m0jqTTM_4core3fmt5Debug3fmt
FNDA:0,_RNCNvMNtCsgphuHPmxLkZ_11lb_security6ticketNtB4_9TicketKey8generate0B6_
FNDA:0,_RNCNvMs7_NtCsgphuHPmxLkZ_11lb_security6ticketNtB7_15TlsConfigBundle20load_from_paths_with0B9_
FNDA:0,_RNCNvMs7_NtCsgphuHPmxLkZ_11lb_security6ticketNtB7_15TlsConfigBundle20load_from_paths_withs0_0B9_
FNDA:0,_RNCNvMs7_NtCsgphuHPmxLkZ_11lb_security6ticketNtB7_15TlsConfigBundle20load_from_paths_withs1_0B9_
FNDA:0,_RNCNvMs7_NtCsgphuHPmxLkZ_11lb_security6ticketNtB7_15TlsConfigBundle20load_from_paths_withs2_0B9_
FNDA:0,_RNCNvMs7_NtCsgphuHPmxLkZ_11lb_security6ticketNtB7_15TlsConfigBundle20load_from_paths_withs3_0B9_
FNDA:0,_RNCNvMs7_NtCsgphuHPmxLkZ_11lb_security6ticketNtB7_15TlsConfigBundle20load_from_paths_withs4_0B9_
FNDA:0,_RNCNvMs7_NtCsgphuHPmxLkZ_11lb_security6ticketNtB7_15TlsConfigBundle20load_from_paths_withs5_0B9_
FNDA:0,_RNCNvMs7_NtCsgphuHPmxLkZ_11lb_security6ticketNtB7_15TlsConfigBundle20load_from_paths_withs_0B9_
FNDA:0,_RNCNvNtCsgphuHPmxLkZ_11lb_security6ticket31build_server_config_with_policy0B5_
FNDA:0,_RNCNvNtCsgphuHPmxLkZ_11lb_security6ticket31build_server_config_with_policys0_0B5_
FNDA:24,_RNCNvNtCsgphuHPmxLkZ_11lb_security6ticket31build_server_config_with_policys1_0B5_
FNDA:0,_RNCNvNtCsgphuHPmxLkZ_11lb_security6ticket31build_server_config_with_policys_0B5_
FNDA:0,_RNCNvXs4_NtCsgphuHPmxLkZ_11lb_security6ticketNtB7_16RotatingTicketerNtNtNtCs7pS0JuyG8rH_6rustls6server11server_conn15ProducesTickets7decrypt0B9_
FNF:45
FNH:10
DA:73,12
DA:74,12
DA:75,12
DA:76,12
DA:77,12
DA:83,24
DA:84,24
DA:85,24
DA:91,0
DA:92,0
DA:93,0
DA:97,0
DA:98,0
DA:99,0
DA:100,0
DA:128,12
DA:129,12
DA:130,12
DA:131,12
DA:132,12
DA:133,12
DA:134,12
DA:135,12
DA:136,12
DA:137,12
DA:142,0
DA:143,0
DA:144,0
DA:149,0
DA:150,0
DA:151,0
DA:155,0
DA:156,0
DA:157,0
DA:161,0
DA:162,0
DA:163,0
DA:167,0
DA:168,0
DA:169,0
DA:190,0
DA:191,0
DA:192,0
DA:193,0
DA:194,0
DA:195,0
DA:196,0
DA:197,0
DA:199,0
DA:207,0
DA:208,0
DA:209,0
DA:210,0
DA:211,0
DA:212,0
DA:214,0
DA:215,0
DA:221,0
DA:222,0
DA:223,0
DA:224,0
DA:225,0
DA:232,0
DA:233,0
DA:234,0
DA:235,0
DA:236,0
DA:237,0
DA:238,0
DA:242,0
DA:243,0
DA:244,0
DA:245,0
DA:246,0
DA:247,0
DA:248,0
DA:262,24
DA:263,24
DA:264,24
DA:265,24
DA:272,0
DA:273,0
DA:274,0
DA:278,0
DA:279,0
DA:280,0
DA:284,24
DA:285,24
DA:286,24
DA:288,24
DA:289,24
DA:290,24
DA:291,24
DA:293,24
DA:294,24
DA:295,24
DA:296,24
DA:298,0
DA:299,0
DA:300,0
DA:301,0
DA:302,0
DA:303,0
DA:304,0
DA:331,12
DA:332,12
DA:333,12
DA:334,12
DA:335,12
DA:336,12
DA:337,12
DA:338,12
DA:353,12
DA:354,12
DA:355,12
DA:356,12
DA:357,12
DA:358,12
DA:359,12
DA:360,12
DA:361,12
DA:362,0
DA:363,0
DA:364,0
DA:366,12
DA:367,12
DA:368,12
DA:370,12
DA:371,12
DA:372,12
DA:373,12
DA:374,12
DA:375,12
DA:376,24
DA:377,12
DA:378,12
DA:379,12
DA:453,0
DA:454,0
DA:455,0
DA:456,0
DA:457,0
DA:458,0
DA:459,0
DA:460,0
DA:461,0
DA:463,0
DA:495,0
DA:496,0
DA:497,0
DA:498,0
DA:499,0
DA:500,0
DA:501,0
DA:522,0
DA:523,0
DA:524,0
DA:525,0
DA:526,0
DA:527,0
DA:528,0
DA:538,0
DA:539,0
DA:540,0
DA:541,0
DA:542,0
DA:543,0
DA:544,0
DA:546,0
DA:547,0
DA:548,0
DA:549,0
DA:550,0
DA:551,0
DA:552,0
DA:553,0
DA:554,0
DA:555,0
DA:556,0
DA:557,0
DA:558,0
DA:559,0
DA:560,0
DA:561,0
DA:562,0
DA:565,0
DA:566,0
DA:567,0
DA:568,0
DA:569,0
DA:570,0
DA:571,0
DA:572,0
DA:573,0
DA:574,0
DA:575,0
DA:581,0
DA:582,0
DA:583,0
DA:584,0
DA:585,0
DA:586,0
DA:587,0
DA:588,0
DA:589,0
DA:590,0
DA:591,0
DA:592,0
DA:593,0
DA:594,0
DA:595,0
DA:596,0
DA:597,0
DA:599,0
DA:600,0
DA:601,0
DA:602,0
DA:603,0
DA:604,0
DA:605,0
DA:606,0
DA:607,0
DA:611,0
DA:612,0
DA:613,0
DA:617,0
DA:618,0
DA:619,0
DA:623,0
DA:624,0
DA:625,0
DA:644,0
DA:645,0
DA:646,0
DA:647,0
DA:648,0
DA:649,0
DA:650,0
DA:651,0
DA:652,0
DA:653,0
DA:654,0
DA:655,0
BRF:0
BRH:0
LF:260
LH:64
end_of_record
SF:/home/ubuntu/Code/s8-verifier/crates/lb-security/src/watchdog.rs
FN:66,_RNvMNtCsgphuHPmxLkZ_11lb_security8watchdogNtB2_6ConnId3new
FN:265,_RNvMs0_NtCsgphuHPmxLkZ_11lb_security8watchdogNtB5_8Watchdog10deregister
FN:279,_RNvMs0_NtCsgphuHPmxLkZ_11lb_security8watchdogNtB5_8Watchdog13sweep_expired
FN:171,_RNvMs0_NtCsgphuHPmxLkZ_11lb_security8watchdogNtB5_8Watchdog3len
FN:154,_RNvMs0_NtCsgphuHPmxLkZ_11lb_security8watchdogNtB5_8Watchdog3new
FN:165,_RNvMs0_NtCsgphuHPmxLkZ_11lb_security8watchdogNtB5_8Watchdog6config
FN:177,_RNvMs0_NtCsgphuHPmxLkZ_11lb_security8watchdogNtB5_8Watchdog8is_empty
FN:212,_RNvMs0_NtCsgphuHPmxLkZ_11lb_security8watchdogNtB5_8Watchdog8progress
FN:187,_RNvMs0_NtCsgphuHPmxLkZ_11lb_security8watchdogNtB5_8Watchdog8register
FN:114,_RNvXs_NtCsgphuHPmxLkZ_11lb_security8watchdogNtB4_14WatchdogConfigNtNtCs2va5m0jqTTM_4core7default7Default7default
FN:282,_RNCNvMs0_NtCsgphuHPmxLkZ_11lb_security8watchdogNtB7_8Watchdog13sweep_expired0B9_
FNDA:0,_RNvMNtCsgphuHPmxLkZ_11lb_security8watchdogNtB2_6ConnId3new
FNDA:0,_RNvMs0_NtCsgphuHPmxLkZ_11lb_security8watchdogNtB5_8Watchdog10deregister
FNDA:0,_RNvMs0_NtCsgphuHPmxLkZ_11lb_security8watchdogNtB5_8Watchdog13sweep_expired
FNDA:0,_RNvMs0_NtCsgphuHPmxLkZ_11lb_security8watchdogNtB5_8Watchdog3len
FNDA:0,_RNvMs0_NtCsgphuHPmxLkZ_11lb_security8watchdogNtB5_8Watchdog3new
FNDA:0,_RNvMs0_NtCsgphuHPmxLkZ_11lb_security8watchdogNtB5_8Watchdog6config
FNDA:0,_RNvMs0_NtCsgphuHPmxLkZ_11lb_security8watchdogNtB5_8Watchdog8is_empty
FNDA:0,_RNvMs0_NtCsgphuHPmxLkZ_11lb_security8watchdogNtB5_8Watchdog8progress
FNDA:0,_RNvMs0_NtCsgphuHPmxLkZ_11lb_security8watchdogNtB5_8Watchdog8register
FNDA:0,_RNvXs_NtCsgphuHPmxLkZ_11lb_security8watchdogNtB4_14WatchdogConfigNtNtCs2va5m0jqTTM_4core7default7Default7default
FNDA:0,_RNCNvMs0_NtCsgphuHPmxLkZ_11lb_security8watchdogNtB7_8Watchdog13sweep_expired0B9_
FNF:11
FNH:0
DA:66,0
DA:67,0
DA:68,0
DA:114,0
DA:115,0
DA:116,0
DA:117,0
DA:118,0
DA:119,0
DA:120,0
DA:121,0
DA:122,0
DA:123,0
DA:124,0
DA:125,0
DA:154,0
DA:155,0
DA:156,0
DA:157,0
DA:158,0
DA:159,0
DA:160,0
DA:161,0
DA:165,0
DA:166,0
DA:167,0
DA:171,0
DA:172,0
DA:173,0
DA:177,0
DA:178,0
DA:179,0
DA:187,0
DA:188,0
DA:189,0
DA:190,0
DA:191,0
DA:192,0
DA:193,0
DA:194,0
DA:195,0
DA:196,0
DA:197,0
DA:198,0
DA:199,0
DA:200,0
DA:201,0
DA:212,0
DA:213,0
DA:214,0
DA:215,0
DA:216,0
DA:218,0
DA:219,0
DA:220,0
DA:223,0
DA:224,0
DA:225,0
DA:227,0
DA:228,0
DA:229,0
DA:230,0
DA:231,0
DA:232,0
DA:233,0
DA:234,0
DA:235,0
DA:236,0
DA:237,0
DA:238,0
DA:239,0
DA:240,0
DA:241,0
DA:242,0
DA:244,0
DA:245,0
DA:246,0
DA:247,0
DA:249,0
DA:250,0
DA:253,0
DA:256,0
DA:257,0
DA:258,0
DA:259,0
DA:260,0
DA:265,0
DA:266,0
DA:267,0
DA:279,0
DA:280,0
DA:281,0
DA:282,0
DA:283,0
DA:284,0
DA:285,0
DA:287,0
DA:289,0
DA:290,0
DA:291,0
BRF:0
BRH:0
LF:102
LH:0
end_of_record
SF:/home/ubuntu/Code/s8-verifier/crates/lb-security/src/zero_rtt.rs
FN:232,_RNvMNtCsgphuHPmxLkZ_11lb_security8zero_rttNtB2_18ZeroRttReplayGuard10alloc_node
FN:312,_RNvMNtCsgphuHPmxLkZ_11lb_security8zero_rttNtB2_18ZeroRttReplayGuard12move_to_back
FN:163,_RNvMNtCsgphuHPmxLkZ_11lb_security8zero_rttNtB2_18ZeroRttReplayGuard15new_with_secret
FN:346,_RNvMNtCsgphuHPmxLkZ_11lb_security8zero_rttNtB2_18ZeroRttReplayGuard16check_0rtt_token
FN:207,_RNvMNtCsgphuHPmxLkZ_11lb_security8zero_rttNtB2_18ZeroRttReplayGuard16check_and_record
FN:154,_RNvMNtCsgphuHPmxLkZ_11lb_security8zero_rttNtB2_18ZeroRttReplayGuard19with_default_window
FN:179,_RNvMNtCsgphuHPmxLkZ_11lb_security8zero_rttNtB2_18ZeroRttReplayGuard3len
FN:147,_RNvMNtCsgphuHPmxLkZ_11lb_security8zero_rttNtB2_18ZeroRttReplayGuard3new
FN:298,_RNvMNtCsgphuHPmxLkZ_11lb_security8zero_rttNtB2_18ZeroRttReplayGuard6unlink
FN:191,_RNvMNtCsgphuHPmxLkZ_11lb_security8zero_rttNtB2_18ZeroRttReplayGuard8capacity
FN:185,_RNvMNtCsgphuHPmxLkZ_11lb_security8zero_rttNtB2_18ZeroRttReplayGuard8is_empty
FN:322,_RNvMNtCsgphuHPmxLkZ_11lb_security8zero_rttNtB2_18ZeroRttReplayGuard9evict_lru
FN:272,_RNvMNtCsgphuHPmxLkZ_11lb_security8zero_rttNtB2_18ZeroRttReplayGuard9free_node
FN:281,_RNvMNtCsgphuHPmxLkZ_11lb_security8zero_rttNtB2_18ZeroRttReplayGuard9push_back
FN:51,_RNvNtCsgphuHPmxLkZ_11lb_security8zero_rtt10hash_token
FN:73,_RNvNtCsgphuHPmxLkZ_11lb_security8zero_rtt12fresh_secret
FN:299,_RNCNvMNtCsgphuHPmxLkZ_11lb_security8zero_rttNtB4_18ZeroRttReplayGuard6unlink0B6_
FN:327,_RNCNvMNtCsgphuHPmxLkZ_11lb_security8zero_rttNtB4_18ZeroRttReplayGuard9evict_lru0B6_
FN:79,_RNCNvNtCsgphuHPmxLkZ_11lb_security8zero_rtt12fresh_secret0B5_
FNDA:0,_RNvMNtCsgphuHPmxLkZ_11lb_security8zero_rttNtB2_18ZeroRttReplayGuard10alloc_node
FNDA:0,_RNvMNtCsgphuHPmxLkZ_11lb_security8zero_rttNtB2_18ZeroRttReplayGuard12move_to_back
FNDA:0,_RNvMNtCsgphuHPmxLkZ_11lb_security8zero_rttNtB2_18ZeroRttReplayGuard15new_with_secret
FNDA:0,_RNvMNtCsgphuHPmxLkZ_11lb_security8zero_rttNtB2_18ZeroRttReplayGuard16check_0rtt_token
FNDA:0,_RNvMNtCsgphuHPmxLkZ_11lb_security8zero_rttNtB2_18ZeroRttReplayGuard16check_and_record
FNDA:0,_RNvMNtCsgphuHPmxLkZ_11lb_security8zero_rttNtB2_18ZeroRttReplayGuard19with_default_window
FNDA:0,_RNvMNtCsgphuHPmxLkZ_11lb_security8zero_rttNtB2_18ZeroRttReplayGuard3len
FNDA:0,_RNvMNtCsgphuHPmxLkZ_11lb_security8zero_rttNtB2_18ZeroRttReplayGuard3new
FNDA:0,_RNvMNtCsgphuHPmxLkZ_11lb_security8zero_rttNtB2_18ZeroRttReplayGuard6unlink
FNDA:0,_RNvMNtCsgphuHPmxLkZ_11lb_security8zero_rttNtB2_18ZeroRttReplayGuard8capacity
FNDA:0,_RNvMNtCsgphuHPmxLkZ_11lb_security8zero_rttNtB2_18ZeroRttReplayGuard8is_empty
FNDA:0,_RNvMNtCsgphuHPmxLkZ_11lb_security8zero_rttNtB2_18ZeroRttReplayGuard9evict_lru
FNDA:0,_RNvMNtCsgphuHPmxLkZ_11lb_security8zero_rttNtB2_18ZeroRttReplayGuard9free_node
FNDA:0,_RNvMNtCsgphuHPmxLkZ_11lb_security8zero_rttNtB2_18ZeroRttReplayGuard9push_back
FNDA:0,_RNvNtCsgphuHPmxLkZ_11lb_security8zero_rtt10hash_token
FNDA:0,_RNvNtCsgphuHPmxLkZ_11lb_security8zero_rtt12fresh_secret
FNDA:0,_RNCNvMNtCsgphuHPmxLkZ_11lb_security8zero_rttNtB4_18ZeroRttReplayGuard6unlink0B6_
FNDA:0,_RNCNvMNtCsgphuHPmxLkZ_11lb_security8zero_rttNtB4_18ZeroRttReplayGuard9evict_lru0B6_
FNDA:0,_RNCNvNtCsgphuHPmxLkZ_11lb_security8zero_rtt12fresh_secret0B5_
FNF:19
FNH:0
DA:51,0
DA:52,0
DA:53,0
DA:54,0
DA:55,0
DA:56,0
DA:57,0
DA:58,0
DA:59,0
DA:60,0
DA:61,0
DA:62,0
DA:73,0
DA:74,0
DA:75,0
DA:76,0
DA:77,0
DA:78,0
DA:79,0
DA:80,0
DA:81,0
DA:82,0
DA:83,0
DA:84,0
DA:85,0
DA:86,0
DA:87,0
DA:88,0
DA:147,0
DA:148,0
DA:149,0
DA:154,0
DA:155,0
DA:156,0
DA:163,0
DA:164,0
DA:165,0
DA:166,0
DA:167,0
DA:168,0
DA:169,0
DA:170,0
DA:171,0
DA:172,0
DA:173,0
DA:174,0
DA:175,0
DA:179,0
DA:180,0
DA:181,0
DA:185,0
DA:186,0
DA:187,0
DA:191,0
DA:192,0
DA:193,0
DA:207,0
DA:208,0
DA:210,0
DA:213,0
DA:214,0
DA:215,0
DA:216,0
DA:217,0
DA:218,0
DA:219,0
DA:220,0
DA:223,0
DA:224,0
DA:225,0
DA:226,0
DA:227,0
DA:228,0
DA:232,0
DA:233,0
DA:234,0
DA:235,0
DA:236,0
DA:237,0
DA:238,0
DA:239,0
DA:240,0
DA:242,0
DA:243,0
DA:244,0
DA:245,0
DA:246,0
DA:247,0
DA:248,0
DA:249,0
DA:250,0
DA:251,0
DA:252,0
DA:253,0
DA:254,0
DA:255,0
DA:258,0
DA:259,0
DA:260,0
DA:261,0
DA:262,0
DA:263,0
DA:264,0
DA:265,0
DA:269,0
DA:272,0
DA:273,0
DA:274,0
DA:275,0
DA:276,0
DA:277,0
DA:278,0
DA:281,0
DA:282,0
DA:283,0
DA:284,0
DA:285,0
DA:286,0
DA:287,0
DA:288,0
DA:289,0
DA:290,0
DA:291,0
DA:292,0
DA:293,0
DA:298,0
DA:299,0
DA:300,0
DA:301,0
DA:302,0
DA:303,0
DA:304,0
DA:305,0
DA:306,0
DA:307,0
DA:308,0
DA:309,0
DA:310,0
DA:312,0
DA:313,0
DA:314,0
DA:315,0
DA:316,0
DA:317,0
DA:318,0
DA:322,0
DA:323,0
DA:324,0
DA:325,0
DA:326,0
DA:327,0
DA:328,0
DA:329,0
DA:330,0
DA:331,0
DA:332,0
DA:333,0
DA:346,0
DA:347,0
DA:348,0
BRF:0
BRH:0
LF:163
LH:0
end_of_record