SF:/home/ubuntu/Code/ExpressGateway/crates/lb-quic/src/cleanup_guard.rs
FN:59,_RNvMNtCsjkTxOr1VN5_7lb_quic13cleanup_guardINtB2_13CidEntryGuardppE6disarmB4_
FN:50,_RNvMNtCsjkTxOr1VN5_7lb_quic13cleanup_guardINtB2_13CidEntryGuardINtNtCs2TrN21NlPz_5alloc3vec3VechEINtNtNtNtCsf7MfGBIAUjR_5tokio4sync4mpsc7bounded6SenderNtNtB4_10conn_actor13InboundPacketEE3newB4_
FN:68,_RNvXs_NtCsjkTxOr1VN5_7lb_quic13cleanup_guardINtB4_13CidEntryGuardINtNtCs2TrN21NlPz_5alloc3vec3VechEINtNtNtNtCsf7MfGBIAUjR_5tokio4sync4mpsc7bounded6SenderNtNtB6_10conn_actor13InboundPacketEENtNtNtCslfAf2Mv2Tp5_4core3ops4drop4Drop4dropB6_
FNDA:0,_RNvMNtCsjkTxOr1VN5_7lb_quic13cleanup_guardINtB2_13CidEntryGuardppE6disarmB4_
FNDA:0,_RNvMNtCsjkTxOr1VN5_7lb_quic13cleanup_guardINtB2_13CidEntryGuardINtNtCs2TrN21NlPz_5alloc3vec3VechEINtNtNtNtCsf7MfGBIAUjR_5tokio4sync4mpsc7bounded6SenderNtNtB4_10conn_actor13InboundPacketEE3newB4_
FNDA:0,_RNvXs_NtCsjkTxOr1VN5_7lb_quic13cleanup_guardINtB4_13CidEntryGuardINtNtCs2TrN21NlPz_5alloc3vec3VechEINtNtNtNtCsf7MfGBIAUjR_5tokio4sync4mpsc7bounded6SenderNtNtB6_10conn_actor13InboundPacketEENtNtNtCslfAf2Mv2Tp5_4core3ops4drop4Drop4dropB6_
FNF:3
FNH:0
DA:50,0
DA:51,0
DA:52,0
DA:53,0
DA:54,0
DA:55,0
DA:59,0
DA:60,0
DA:61,0
DA:68,0
DA:69,0
DA:70,0
DA:71,0
DA:72,0
DA:73,0
DA:74,0
DA:75,0
DA:77,0
BRF:0
BRH:0
LF:18
LH:0
end_of_record
SF:/home/ubuntu/Code/ExpressGateway/crates/lb-quic/src/conn_actor.rs
FN:491,_RNvMNtCsjkTxOr1VN5_7lb_quic10conn_actorNtB2_8StreamTx11progressive
FN:482,_RNvMNtCsjkTxOr1VN5_7lb_quic10conn_actorNtB2_8StreamTx3new
FN:1247,_RNvNtCsjkTxOr1VN5_7lb_quic10conn_actor13flush_pending
FN:1290,_RNvNtCsjkTxOr1VN5_7lb_quic10conn_actor14select_backend
FN:680,_RNvNtCsjkTxOr1VN5_7lb_quic10conn_actor15drain_conn_send
FN:1065,_RNvNtCsjkTxOr1VN5_7lb_quic10conn_actor17drain_body_stream
FN:1154,_RNvNtCsjkTxOr1VN5_7lb_quic10conn_actor19decode_into_pending
FN:365,_RNvNtCsjkTxOr1VN5_7lb_quic10conn_actor19drain_resp_channels
FN:644,_RNvNtCsjkTxOr1VN5_7lb_quic10conn_actor20graceful_h3_shutdown
FN:504,_RNvNtCsjkTxOr1VN5_7lb_quic10conn_actor21drain_streams_to_conn
FN:1215,_RNvNtCsjkTxOr1VN5_7lb_quic10conn_actor26record_retained_for_stream
FN:318,_RNvNtCsjkTxOr1VN5_7lb_quic10conn_actor31reap_client_cancelled_responses
FN:703,_RNvNtCsjkTxOr1VN5_7lb_quic10conn_actor7poll_h3
FN:139,_RNvNtCsjkTxOr1VN5_7lb_quic10conn_actor9run_actor
FN:1226,_RNCNCNvNtCsjkTxOr1VN5_7lb_quic10conn_actor26record_retained_for_stream00B7_
FN:210,_RNCNCNvNtCsjkTxOr1VN5_7lb_quic10conn_actor9run_actor00B7_
FN:300,_RNCNCNvNtCsjkTxOr1VN5_7lb_quic10conn_actor9run_actor0s_0B7_
FN:680,_RNCNvNtCsjkTxOr1VN5_7lb_quic10conn_actor15drain_conn_send0B5_
FN:648,_RNCNvNtCsjkTxOr1VN5_7lb_quic10conn_actor20graceful_h3_shutdown0B5_
FN:615,_RNCNvNtCsjkTxOr1VN5_7lb_quic10conn_actor21drain_streams_to_conn0B5_
FN:1224,_RNCNvNtCsjkTxOr1VN5_7lb_quic10conn_actor26record_retained_for_stream0B5_
FN:1237,_RNCNvNtCsjkTxOr1VN5_7lb_quic10conn_actor26record_retained_for_streams_0B5_
FN:789,_RNCNvNtCsjkTxOr1VN5_7lb_quic10conn_actor7poll_h30B5_
FN:894,_RNCNvNtCsjkTxOr1VN5_7lb_quic10conn_actor7poll_h3s0_0B5_
FN:970,_RNCNvNtCsjkTxOr1VN5_7lb_quic10conn_actor7poll_h3s1_0B5_
FN:818,_RNCNvNtCsjkTxOr1VN5_7lb_quic10conn_actor7poll_h3s_0B5_
FN:139,_RNCNvNtCsjkTxOr1VN5_7lb_quic10conn_actor9run_actor0B5_
FNDA:0,_RNvMNtCsjkTxOr1VN5_7lb_quic10conn_actorNtB2_8StreamTx11progressive
FNDA:0,_RNvMNtCsjkTxOr1VN5_7lb_quic10conn_actorNtB2_8StreamTx3new
FNDA:0,_RNvNtCsjkTxOr1VN5_7lb_quic10conn_actor13flush_pending
FNDA:0,_RNvNtCsjkTxOr1VN5_7lb_quic10conn_actor14select_backend
FNDA:0,_RNvNtCsjkTxOr1VN5_7lb_quic10conn_actor15drain_conn_send
FNDA:0,_RNvNtCsjkTxOr1VN5_7lb_quic10conn_actor17drain_body_stream
FNDA:0,_RNvNtCsjkTxOr1VN5_7lb_quic10conn_actor19decode_into_pending
FNDA:0,_RNvNtCsjkTxOr1VN5_7lb_quic10conn_actor19drain_resp_channels
FNDA:0,_RNvNtCsjkTxOr1VN5_7lb_quic10conn_actor20graceful_h3_shutdown
FNDA:0,_RNvNtCsjkTxOr1VN5_7lb_quic10conn_actor21drain_streams_to_conn
FNDA:0,_RNvNtCsjkTxOr1VN5_7lb_quic10conn_actor26record_retained_for_stream
FNDA:0,_RNvNtCsjkTxOr1VN5_7lb_quic10conn_actor31reap_client_cancelled_responses
FNDA:0,_RNvNtCsjkTxOr1VN5_7lb_quic10conn_actor7poll_h3
FNDA:0,_RNvNtCsjkTxOr1VN5_7lb_quic10conn_actor9run_actor
FNDA:0,_RNCNCNvNtCsjkTxOr1VN5_7lb_quic10conn_actor26record_retained_for_stream00B7_
FNDA:0,_RNCNCNvNtCsjkTxOr1VN5_7lb_quic10conn_actor9run_actor00B7_
FNDA:0,_RNCNCNvNtCsjkTxOr1VN5_7lb_quic10conn_actor9run_actor0s_0B7_
FNDA:0,_RNCNvNtCsjkTxOr1VN5_7lb_quic10conn_actor15drain_conn_send0B5_
FNDA:0,_RNCNvNtCsjkTxOr1VN5_7lb_quic10conn_actor20graceful_h3_shutdown0B5_
FNDA:0,_RNCNvNtCsjkTxOr1VN5_7lb_quic10conn_actor21drain_streams_to_conn0B5_
FNDA:0,_RNCNvNtCsjkTxOr1VN5_7lb_quic10conn_actor26record_retained_for_stream0B5_
FNDA:0,_RNCNvNtCsjkTxOr1VN5_7lb_quic10conn_actor26record_retained_for_streams_0B5_
FNDA:0,_RNCNvNtCsjkTxOr1VN5_7lb_quic10conn_actor7poll_h30B5_
FNDA:0,_RNCNvNtCsjkTxOr1VN5_7lb_quic10conn_actor7poll_h3s0_0B5_
FNDA:0,_RNCNvNtCsjkTxOr1VN5_7lb_quic10conn_actor7poll_h3s1_0B5_
FNDA:0,_RNCNvNtCsjkTxOr1VN5_7lb_quic10conn_actor7poll_h3s_0B5_
FNDA:0,_RNCNvNtCsjkTxOr1VN5_7lb_quic10conn_actor9run_actor0B5_
FNF:27
FNH:0
DA:139,0
DA:140,0
DA:141,0
DA:142,0
DA:148,0
DA:153,0
DA:158,0
DA:166,0
DA:171,0
DA:176,0
DA:177,0
DA:179,0
DA:180,0
DA:181,0
DA:183,0
DA:200,0
DA:201,0
DA:202,0
DA:203,0
DA:204,0
DA:205,0
DA:210,0
DA:211,0
DA:212,0
DA:217,0
DA:218,0
DA:219,0
DA:220,0
DA:222,0
DA:223,0
DA:224,0
DA:225,0
DA:226,0
DA:227,0
DA:230,0
DA:233,0
DA:235,0
DA:237,0
DA:238,0
DA:239,0
DA:241,0
DA:242,0
DA:243,0
DA:244,0
DA:245,0
DA:246,0
DA:247,0
DA:251,0
DA:252,0
DA:253,0
DA:254,0
DA:256,0
DA:257,0
DA:258,0
DA:262,0
DA:263,0
DA:264,0
DA:265,0
DA:266,0
DA:267,0
DA:268,0
DA:269,0
DA:270,0
DA:271,0
DA:272,0
DA:273,0
DA:274,0
DA:275,0
DA:276,0
DA:277,0
DA:283,0
DA:284,0
DA:285,0
DA:286,0
DA:296,0
DA:300,0
DA:302,0
DA:303,0
DA:318,0
DA:319,0
DA:320,0
DA:321,0
DA:322,0
DA:323,0
DA:324,0
DA:325,0
DA:326,0
DA:327,0
DA:333,0
DA:335,0
DA:338,0
DA:339,0
DA:340,0
DA:341,0
DA:342,0
DA:343,0
DA:344,0
DA:345,0
DA:365,0
DA:366,0
DA:367,0
DA:368,0
DA:369,0
DA:370,0
DA:374,0
DA:375,0
DA:376,0
DA:378,0
DA:379,0
DA:380,0
DA:381,0
DA:382,0
DA:384,0
DA:386,0
DA:390,0
DA:391,0
DA:393,0
DA:394,0
DA:395,0
DA:396,0
DA:397,0
DA:404,0
DA:405,0
DA:406,0
DA:407,0
DA:408,0
DA:409,0
DA:410,0
DA:411,0
DA:412,0
DA:413,0
DA:414,0
DA:428,0
DA:429,0
DA:430,0
DA:431,0
DA:432,0
DA:434,0
DA:435,0
DA:436,0
DA:437,0
DA:438,0
DA:439,0
DA:440,0
DA:442,0
DA:482,0
DA:483,0
DA:484,0
DA:485,0
DA:486,0
DA:487,0
DA:488,0
DA:491,0
DA:492,0
DA:493,0
DA:494,0
DA:495,0
DA:496,0
DA:497,0
DA:498,0
DA:504,0
DA:505,0
DA:506,0
DA:507,0
DA:511,0
DA:512,0
DA:513,0
DA:515,0
DA:516,0
DA:517,0
DA:519,0
DA:520,0
DA:523,0
DA:524,0
DA:525,0
DA:526,0
DA:527,0
DA:528,0
DA:529,0
DA:532,0
DA:533,0
DA:534,0
DA:535,0
DA:536,0
DA:537,0
DA:538,0
DA:539,0
DA:540,0
DA:541,0
DA:542,0
DA:549,0
DA:550,0
DA:551,0
DA:552,0
DA:554,0
DA:555,0
DA:556,0
DA:560,0
DA:561,0
DA:562,0
DA:563,0
DA:564,0
DA:565,0
DA:566,0
DA:569,0
DA:570,0
DA:572,0
DA:573,0
DA:574,0
DA:578,0
DA:582,0
DA:583,0
DA:584,0
DA:585,0
DA:588,0
DA:589,0
DA:590,0
DA:593,0
DA:594,0
DA:595,0
DA:596,0
DA:599,0
DA:600,0
DA:601,0
DA:605,0
DA:608,0
DA:609,0
DA:610,0
DA:611,0
DA:613,0
DA:615,0
DA:616,0
DA:617,0
DA:618,0
DA:619,0
DA:644,0
DA:645,0
DA:646,0
DA:647,0
DA:648,0
DA:649,0
DA:650,0
DA:651,0
DA:652,0
DA:655,0
DA:657,0
DA:658,0
DA:659,0
DA:660,0
DA:661,0
DA:662,0
DA:665,0
DA:666,0
DA:670,0
DA:671,0
DA:672,0
DA:673,0
DA:674,0
DA:676,0
DA:680,0
DA:682,0
DA:683,0
DA:684,0
DA:685,0
DA:686,0
DA:687,0
DA:688,0
DA:690,0
DA:691,0
DA:692,0
DA:693,0
DA:697,0
DA:703,0
DA:704,0
DA:705,0
DA:706,0
DA:707,0
DA:708,0
DA:709,0
DA:710,0
DA:711,0
DA:712,0
DA:713,0
DA:714,0
DA:715,0
DA:716,0
DA:717,0
DA:718,0
DA:719,0
DA:720,0
DA:721,0
DA:722,0
DA:723,0
DA:733,0
DA:734,0
DA:735,0
DA:736,0
DA:738,0
DA:739,0
DA:748,0
DA:749,0
DA:750,0
DA:751,0
DA:752,0
DA:754,0
DA:755,0
DA:756,0
DA:757,0
DA:758,0
DA:759,0
DA:778,0
DA:779,0
DA:780,0
DA:787,0
DA:788,0
DA:789,0
DA:790,0
DA:791,0
DA:792,0
DA:809,0
DA:810,0
DA:811,0
DA:812,0
DA:813,0
DA:814,0
DA:815,0
DA:816,0
DA:817,0
DA:818,0
DA:819,0
DA:820,0
DA:821,0
DA:822,0
DA:823,0
DA:824,0
DA:827,0
DA:829,0
DA:834,0
DA:835,0
DA:836,0
DA:837,0
DA:838,0
DA:839,0
DA:840,0
DA:841,0
DA:842,0
DA:843,0
DA:844,0
DA:845,0
DA:846,0
DA:847,0
DA:848,0
DA:849,0
DA:850,0
DA:851,0
DA:852,0
DA:853,0
DA:854,0
DA:855,0
DA:856,0
DA:857,0
DA:858,0
DA:859,0
DA:862,0
DA:863,0
DA:884,0
DA:885,0
DA:886,0
DA:887,0
DA:888,0
DA:889,0
DA:890,0
DA:891,0
DA:892,0
DA:893,0
DA:894,0
DA:895,0
DA:896,0
DA:897,0
DA:898,0
DA:899,0
DA:900,0
DA:901,0
DA:904,0
DA:906,0
DA:911,0
DA:912,0
DA:913,0
DA:914,0
DA:915,0
DA:916,0
DA:917,0
DA:918,0
DA:919,0
DA:920,0
DA:921,0
DA:922,0
DA:923,0
DA:924,0
DA:925,0
DA:926,0
DA:927,0
DA:928,0
DA:929,0
DA:930,0
DA:931,0
DA:932,0
DA:933,0
DA:934,0
DA:935,0
DA:936,0
DA:939,0
DA:940,0
DA:941,0
DA:942,0
DA:943,0
DA:964,0
DA:965,0
DA:966,0
DA:967,0
DA:968,0
DA:969,0
DA:970,0
DA:971,0
DA:972,0
DA:973,0
DA:974,0
DA:975,0
DA:976,0
DA:979,0
DA:981,0
DA:986,0
DA:987,0
DA:988,0
DA:989,0
DA:990,0
DA:991,0
DA:992,0
DA:993,0
DA:994,0
DA:995,0
DA:996,0
DA:997,0
DA:998,0
DA:999,0
DA:1000,0
DA:1001,0
DA:1002,0
DA:1003,0
DA:1004,0
DA:1005,0
DA:1006,0
DA:1007,0
DA:1008,0
DA:1009,0
DA:1010,0
DA:1011,0
DA:1012,0
DA:1015,0
DA:1018,0
DA:1022,0
DA:1023,0
DA:1024,0
DA:1026,0
DA:1027,0
DA:1031,0
DA:1038,0
DA:1039,0
DA:1045,0
DA:1046,0
DA:1048,0
DA:1049,0
DA:1050,0
DA:1051,0
DA:1056,0
DA:1065,0
DA:1066,0
DA:1067,0
DA:1068,0
DA:1069,0
DA:1070,0
DA:1071,0
DA:1072,0
DA:1075,0
DA:1076,0
DA:1078,0
DA:1079,0
DA:1082,0
DA:1083,0
DA:1084,0
DA:1085,0
DA:1086,0
DA:1087,0
DA:1088,0
DA:1089,0
DA:1090,0
DA:1091,0
DA:1092,0
DA:1093,0
DA:1094,0
DA:1096,0
DA:1097,0
DA:1098,0
DA:1099,0
DA:1102,0
DA:1103,0
DA:1121,0
DA:1122,0
DA:1128,0
DA:1129,0
DA:1130,0
DA:1131,0
DA:1132,0
DA:1133,0
DA:1135,0
DA:1136,0
DA:1137,0
DA:1138,0
DA:1139,0
DA:1140,0
DA:1141,0
DA:1142,0
DA:1146,0
DA:1154,0
DA:1155,0
DA:1156,0
DA:1157,0
DA:1158,0
DA:1159,0
DA:1160,0
DA:1161,0
DA:1162,0
DA:1163,0
DA:1165,0
DA:1166,0
DA:1167,0
DA:1168,0
DA:1169,0
DA:1170,0
DA:1171,0
DA:1172,0
DA:1173,0
DA:1174,0
DA:1177,0
DA:1178,0
DA:1179,0
DA:1180,0
DA:1181,0
DA:1182,0
DA:1186,0
DA:1187,0
DA:1188,0
DA:1189,0
DA:1190,0
DA:1191,0
DA:1195,0
DA:1196,0
DA:1197,0
DA:1198,0
DA:1199,0
DA:1200,0
DA:1201,0
DA:1209,0
DA:1210,0
DA:1215,0
DA:1216,0
DA:1217,0
DA:1218,0
DA:1219,0
DA:1220,0
DA:1221,0
DA:1222,0
DA:1223,0
DA:1224,0
DA:1225,0
DA:1226,0
DA:1227,0
DA:1228,0
DA:1229,0
DA:1230,0
DA:1231,0
DA:1235,0
DA:1236,0
DA:1237,0
DA:1238,0
DA:1239,0
DA:1240,0
DA:1247,0
DA:1248,0
DA:1249,0
DA:1250,0
DA:1251,0
DA:1252,0
DA:1253,0
DA:1254,0
DA:1256,0
DA:1257,0
DA:1259,0
DA:1260,0
DA:1261,0
DA:1262,0
DA:1265,0
DA:1266,0
DA:1267,0
DA:1268,0
DA:1269,0
DA:1270,0
DA:1271,0
DA:1273,0
DA:1276,0
DA:1277,0
DA:1281,0
DA:1282,0
DA:1283,0
DA:1284,0
DA:1285,0
DA:1290,0
DA:1291,0
DA:1292,0
BRF:0
BRH:0
LF:632
LH:0
end_of_record
SF:/home/ubuntu/Code/ExpressGateway/crates/lb-quic/src/h3_bridge.rs
FN:620,_RNvMs_NtCsjkTxOr1VN5_7lb_quic9h3_bridgeNtB4_11StreamRxBuf12is_too_large
FN:2198,_RNvNtCsjkTxOr1VN5_7lb_quic9h3_bridge15h3_to_h1_stream
FN:1844,_RNvNtCsjkTxOr1VN5_7lb_quic9h3_bridge18h3_to_h1_roundtrip
FN:2641,_RNvNtCsjkTxOr1VN5_7lb_quic9h3_bridge19request_h3_upstream
FN:739,_RNvXs0_NtCsjkTxOr1VN5_7lb_quic9h3_bridgeNtB5_9H3RequestNtNtCslfAf2Mv2Tp5_4core7default7Default7default
FN:1793,_RNCNCNCNvNtCsjkTxOr1VN5_7lb_quic9h3_bridge18stream_h2_response0s1_00B9_
FN:2217,_RNCNCNvNtCsjkTxOr1VN5_7lb_quic9h3_bridge15h3_to_h1_stream00B7_
FN:2054,_RNCNCNvNtCsjkTxOr1VN5_7lb_quic9h3_bridge16write_h1_request00B7_
FN:1861,_RNCNCNvNtCsjkTxOr1VN5_7lb_quic9h3_bridge18h3_to_h1_roundtrip00B7_
FN:1407,_RNCNCNvNtCsjkTxOr1VN5_7lb_quic9h3_bridge18stream_h1_response00B7_
FN:1422,_RNCNCNvNtCsjkTxOr1VN5_7lb_quic9h3_bridge18stream_h1_response0s_0B7_
FN:1706,_RNCNCNvNtCsjkTxOr1VN5_7lb_quic9h3_bridge18stream_h2_response00B7_
FN:1789,_RNCNCNvNtCsjkTxOr1VN5_7lb_quic9h3_bridge18stream_h2_response0s0_0B7_
FN:1790,_RNCNCNvNtCsjkTxOr1VN5_7lb_quic9h3_bridge18stream_h2_response0s1_0B7_
FN:1707,_RNCNCNvNtCsjkTxOr1VN5_7lb_quic9h3_bridge18stream_h2_response0s_0B7_
FN:874,_RNCNCNvNtCsjkTxOr1VN5_7lb_quic9h3_bridge23read_h1_response_capped00B7_
FN:897,_RNCNCNvNtCsjkTxOr1VN5_7lb_quic9h3_bridge23read_h1_response_capped0s0_0B7_
FN:894,_RNCNCNvNtCsjkTxOr1VN5_7lb_quic9h3_bridge23read_h1_response_capped0s_0B7_
FN:3817,_RNCNCNvNtCsjkTxOr1VN5_7lb_quic9h3_bridge29stream_request_to_h3_upstream00B7_
FN:773,_RNCNvMs1_NtCsjkTxOr1VN5_7lb_quic9h3_bridgeNtB7_9H3Request12from_headers0B9_
FN:774,_RNCNvMs1_NtCsjkTxOr1VN5_7lb_quic9h3_bridgeNtB7_9H3Request12from_headerss_0B9_
FN:1293,_RNCNvMs2_NtCsjkTxOr1VN5_7lb_quic9h3_bridgeNtB7_12ChunkDecoder21parse_trailer_section0B9_
FN:1226,_RNCNvMs2_NtCsjkTxOr1VN5_7lb_quic9h3_bridgeNtB7_12ChunkDecoder4feed0B9_
FN:1240,_RNCNvMs2_NtCsjkTxOr1VN5_7lb_quic9h3_bridgeNtB7_12ChunkDecoder4feeds_0B9_
FN:3048,_RNCNvMs7_NtCsjkTxOr1VN5_7lb_quic9h3_bridgeNtB7_9H3RespOut11on_trailers0B9_
FN:2905,_RNCNvMs7_NtCsjkTxOr1VN5_7lb_quic9h3_bridgeNtB7_9H3RespOut6inline0B9_
FN:3075,_RNCNvMs7_NtCsjkTxOr1VN5_7lb_quic9h3_bridgeNtB7_9H3RespOut6on_end0B9_
FN:3012,_RNCNvMs7_NtCsjkTxOr1VN5_7lb_quic9h3_bridgeNtB7_9H3RespOut7on_data0B9_
FN:2945,_RNCNvMs7_NtCsjkTxOr1VN5_7lb_quic9h3_bridgeNtB7_9H3RespOut7on_head0B9_
FN:3091,_RNCNvMs7_NtCsjkTxOr1VN5_7lb_quic9h3_bridgeNtB7_9H3RespOut8on_reset0B9_
FN:392,_RNCNvMs_NtCsjkTxOr1VN5_7lb_quic9h3_bridgeNtB6_11StreamRxBuf4feed0B8_
FN:484,_RNCNvMs_NtCsjkTxOr1VN5_7lb_quic9h3_bridgeNtB6_11StreamRxBuf9feed_body0B8_
FN:567,_RNCNvMs_NtCsjkTxOr1VN5_7lb_quic9h3_bridgeNtB6_11StreamRxBuf9feed_bodys0_0B8_
FN:557,_RNCNvMs_NtCsjkTxOr1VN5_7lb_quic9h3_bridgeNtB6_11StreamRxBuf9feed_bodys_0B8_
FN:2290,_RNCNvNCNvNtCsjkTxOr1VN5_7lb_quic9h3_bridge20h3_to_h1_stream_resp06inline0B9_
FN:2547,_RNCNvNCNvNtCsjkTxOr1VN5_7lb_quic9h3_bridge20h3_to_h2_stream_resp06inline0B9_
FN:915,_RNCNvNtCsjkTxOr1VN5_7lb_quic9h3_bridge15find_header_sep0B5_
FN:2204,_RNCNvNtCsjkTxOr1VN5_7lb_quic9h3_bridge15h3_to_h1_stream0B5_
FN:850,_RNCNvNtCsjkTxOr1VN5_7lb_quic9h3_bridge16read_h1_response0B5_
FN:1965,_RNCNvNtCsjkTxOr1VN5_7lb_quic9h3_bridge16write_body_chunk0B5_
FN:2040,_RNCNvNtCsjkTxOr1VN5_7lb_quic9h3_bridge16write_h1_request0B5_
FN:923,_RNCNvNtCsjkTxOr1VN5_7lb_quic9h3_bridge17parse_status_line0B5_
FN:1849,_RNCNvNtCsjkTxOr1VN5_7lb_quic9h3_bridge18h3_to_h1_roundtrip0B5_
FN:1367,_RNCNvNtCsjkTxOr1VN5_7lb_quic9h3_bridge18stream_h1_response0B5_
FN:1690,_RNCNvNtCsjkTxOr1VN5_7lb_quic9h3_bridge18stream_h2_response0B5_
FN:2648,_RNCNvNtCsjkTxOr1VN5_7lb_quic9h3_bridge19request_h3_upstream0B5_
FN:1070,_RNCNvNtCsjkTxOr1VN5_7lb_quic9h3_bridge20encode_h3_data_frame0B5_
FN:2286,_RNCNvNtCsjkTxOr1VN5_7lb_quic9h3_bridge20h3_to_h1_stream_resp0B5_
FN:2543,_RNCNvNtCsjkTxOr1VN5_7lb_quic9h3_bridge20h3_to_h2_stream_resp0B5_
FN:3123,_RNCNvNtCsjkTxOr1VN5_7lb_quic9h3_bridge20h3_to_h3_stream_resp0B5_
FN:979,_RNCNvNtCsjkTxOr1VN5_7lb_quic9h3_bridge23encode_h3_headers_frame0B5_
FN:980,_RNCNvNtCsjkTxOr1VN5_7lb_quic9h3_bridge23encode_h3_headers_frames_0B5_
FN:867,_RNCNvNtCsjkTxOr1VN5_7lb_quic9h3_bridge23read_h1_response_capped0B5_
FN:1092,_RNCNvNtCsjkTxOr1VN5_7lb_quic9h3_bridge24encode_h3_trailers_frame0B5_
FN:1093,_RNCNvNtCsjkTxOr1VN5_7lb_quic9h3_bridge24encode_h3_trailers_frames_0B5_
FN:1020,_RNCNvNtCsjkTxOr1VN5_7lb_quic9h3_bridge28encode_h3_headers_frame_full0B5_
FN:1021,_RNCNvNtCsjkTxOr1VN5_7lb_quic9h3_bridge28encode_h3_headers_frame_fulls_0B5_
FN:3259,_RNCNvNtCsjkTxOr1VN5_7lb_quic9h3_bridge29stream_request_to_h3_upstream0B5_
FN:756,_RNvMs1_NtCsjkTxOr1VN5_7lb_quic9h3_bridgeNtB5_9H3Request12from_headers
FN:1174,_RNvMs2_NtCsjkTxOr1VN5_7lb_quic9h3_bridgeNtB5_12ChunkDecoder13take_trailers
FN:1284,_RNvMs2_NtCsjkTxOr1VN5_7lb_quic9h3_bridgeNtB5_12ChunkDecoder21parse_trailer_section
FN:1160,_RNvMs2_NtCsjkTxOr1VN5_7lb_quic9h3_bridgeNtB5_12ChunkDecoder3new
FN:1182,_RNvMs2_NtCsjkTxOr1VN5_7lb_quic9h3_bridgeNtB5_12ChunkDecoder4feed
FN:3048,_RNvMs7_NtCsjkTxOr1VN5_7lb_quic9h3_bridgeNtB5_9H3RespOut11on_trailers
FN:2905,_RNvMs7_NtCsjkTxOr1VN5_7lb_quic9h3_bridgeNtB5_9H3RespOut6inline
FN:3075,_RNvMs7_NtCsjkTxOr1VN5_7lb_quic9h3_bridgeNtB5_9H3RespOut6on_end
FN:3012,_RNvMs7_NtCsjkTxOr1VN5_7lb_quic9h3_bridgeNtB5_9H3RespOut7on_data
FN:2945,_RNvMs7_NtCsjkTxOr1VN5_7lb_quic9h3_bridgeNtB5_9H3RespOut7on_head
FN:3091,_RNvMs7_NtCsjkTxOr1VN5_7lb_quic9h3_bridgeNtB5_9H3RespOut8on_reset
FN:633,_RNvMs_NtCsjkTxOr1VN5_7lb_quic9h3_bridgeNtB4_11StreamRxBuf14retained_bytes
FN:602,_RNvMs_NtCsjkTxOr1VN5_7lb_quic9h3_bridgeNtB4_11StreamRxBuf22try_parse_frame_header
FN:376,_RNvMs_NtCsjkTxOr1VN5_7lb_quic9h3_bridgeNtB4_11StreamRxBuf4feed
FN:426,_RNvMs_NtCsjkTxOr1VN5_7lb_quic9h3_bridgeNtB4_11StreamRxBuf9feed_body
FN:2290,_RNvNCNvNtCsjkTxOr1VN5_7lb_quic9h3_bridge20h3_to_h1_stream_resp06inline
FN:2547,_RNvNCNvNtCsjkTxOr1VN5_7lb_quic9h3_bridge20h3_to_h2_stream_resp06inline
FN:1896,_RNvNtCsjkTxOr1VN5_7lb_quic9h3_bridge13build_h1_head
FN:4138,_RNvNtCsjkTxOr1VN5_7lb_quic9h3_bridge15check_block_len
FN:914,_RNvNtCsjkTxOr1VN5_7lb_quic9h3_bridge15find_header_sep
FN:1941,_RNvNtCsjkTxOr1VN5_7lb_quic9h3_bridge15record_inflight
FN:660,_RNvNtCsjkTxOr1VN5_7lb_quic9h3_bridge15record_retained
FN:803,_RNvNtCsjkTxOr1VN5_7lb_quic9h3_bridge16build_h1_request
FN:850,_RNvNtCsjkTxOr1VN5_7lb_quic9h3_bridge16read_h1_response
FN:1965,_RNvNtCsjkTxOr1VN5_7lb_quic9h3_bridge16write_body_chunk
FN:2036,_RNvNtCsjkTxOr1VN5_7lb_quic9h3_bridge16write_h1_request
FN:4189,_RNvNtCsjkTxOr1VN5_7lb_quic9h3_bridge17classify_recv_err
FN:918,_RNvNtCsjkTxOr1VN5_7lb_quic9h3_bridge17parse_status_line
FN:941,_RNvNtCsjkTxOr1VN5_7lb_quic9h3_bridge18encode_h3_response
FN:4203,_RNvNtCsjkTxOr1VN5_7lb_quic9h3_bridge18parse_frame_header
FN:1363,_RNvNtCsjkTxOr1VN5_7lb_quic9h3_bridge18stream_h1_response
FN:1686,_RNvNtCsjkTxOr1VN5_7lb_quic9h3_bridge18stream_h2_response
FN:4115,_RNvNtCsjkTxOr1VN5_7lb_quic9h3_bridge19j2_req_event_action
FN:1066,_RNvNtCsjkTxOr1VN5_7lb_quic9h3_bridge20encode_h3_data_frame
FN:2279,_RNvNtCsjkTxOr1VN5_7lb_quic9h3_bridge20h3_to_h1_stream_resp
FN:2536,_RNvNtCsjkTxOr1VN5_7lb_quic9h3_bridge20h3_to_h2_stream_resp
FN:3115,_RNvNtCsjkTxOr1VN5_7lb_quic9h3_bridge20h3_to_h3_stream_resp
FN:697,_RNvNtCsjkTxOr1VN5_7lb_quic9h3_bridge20record_resp_retained
FN:1054,_RNvNtCsjkTxOr1VN5_7lb_quic9h3_bridge22is_response_hop_by_hop
FN:968,_RNvNtCsjkTxOr1VN5_7lb_quic9h3_bridge23encode_h3_headers_frame
FN:2468,_RNvNtCsjkTxOr1VN5_7lb_quic9h3_bridge23h2_request_body_from_rx
FN:867,_RNvNtCsjkTxOr1VN5_7lb_quic9h3_bridge23read_h1_response_capped
FN:1089,_RNvNtCsjkTxOr1VN5_7lb_quic9h3_bridge24encode_h3_trailers_frame
FN:1011,_RNvNtCsjkTxOr1VN5_7lb_quic9h3_bridge28encode_h3_headers_frame_full
FN:3251,_RNvNtCsjkTxOr1VN5_7lb_quic9h3_bridge29stream_request_to_h3_upstream
FN:329,_RNvXNtCsjkTxOr1VN5_7lb_quic9h3_bridgeNtB2_9BodyParseNtNtCslfAf2Mv2Tp5_4core7default7Default7default
FN:2357,_RNvXs3_NtCsjkTxOr1VN5_7lb_quic9h3_bridgeNtB5_10H3ReqAbortNtNtCslfAf2Mv2Tp5_4core3fmt7Display3fmt
FN:2390,_RNvXs5_NtCsjkTxOr1VN5_7lb_quic9h3_bridgeNtB5_15H3ReqStreamBodyNtCsizreEjZgwgt_9http_body4Body10poll_frame
FN:2613,_RNvXs6_NtCsjkTxOr1VN5_7lb_quic9h3_bridgeNtB5_18H3UpstreamResponseNtNtCslfAf2Mv2Tp5_4core7default7Default7default
FN:5075,_RNvNtNtCsjkTxOr1VN5_7lb_quic9h3_bridge5testss_27s7_j2_request_send_decision
FN:5006,_RNvNtNtCsjkTxOr1VN5_7lb_quic9h3_bridge5testss_31s7_j1_recv_half_frame_machinery
FN:4865,_RNvNtNtCsjkTxOr1VN5_7lb_quic9h3_bridge5testss_34chunk_decoder_decodes_split_chunks
FN:4422,_RNvNtNtCsjkTxOr1VN5_7lb_quic9h3_bridge5testss_35feed_body_accepts_valid_h3_trailers
FN:4672,_RNvNtNtCsjkTxOr1VN5_7lb_quic9h3_bridge5testss_36g5_h3reqabort_display_and_error_impl
FN:5181,_RNvNtNtCsjkTxOr1VN5_7lb_quic9h3_bridge5testss_36s7_j5_recv_stream_err_classification
FN:4927,_RNvNtNtCsjkTxOr1VN5_7lb_quic9h3_bridge5testss_39chunk_decoder_parses_trailer_section_c4
FN:4911,_RNvNtNtCsjkTxOr1VN5_7lb_quic9h3_bridge5testss_39chunk_decoder_tolerates_chunk_extension
FN:4449,_RNvNtNtCsjkTxOr1VN5_7lb_quic9h3_bridge5testss_41stream_rx_buf_accumulates_partial_headers
FN:4881,_RNvNtNtCsjkTxOr1VN5_7lb_quic9h3_bridge5testss_42chunk_decoder_rejects_malformed_framing_c3
FN:4223,_RNvNtNtCsjkTxOr1VN5_7lb_quic9h3_bridge5testss_43encode_h3_response_includes_status_and_body
FN:4389,_RNvNtNtCsjkTxOr1VN5_7lb_quic9h3_bridge5testss_46feed_body_rejects_pseudo_header_in_h3_trailers
FN:4848,_RNvNtNtCsjkTxOr1VN5_7lb_quic9h3_bridge5testss_49encode_h3_headers_frame_none_omits_content_length
FN:4692,_RNvNtNtCsjkTxOr1VN5_7lb_quic9h3_bridge5testss_49g5_h2_request_body_from_rx_head_construction_arms
FN:4582,_RNvNtNtCsjkTxOr1VN5_7lb_quic9h3_bridge5testss_49s6_i2_h3_req_stream_body_frame_and_abort_contract
FN:4757,_RNvNtNtCsjkTxOr1VN5_7lb_quic9h3_bridge5testss_50g5_h3_to_h2_stream_resp_inline_413_and_502_no_dial
FN:4506,_RNvNtNtCsjkTxOr1VN5_7lb_quic9h3_bridge5testss_50s6_i1_stream_h2_response_reencode_framing_contract
FN:5264,_RNvNtNtCsjkTxOr1VN5_7lb_quic9h3_bridge5testss_52s12_decoded_sink_on_head_forwards_full_nonpseudo_set
FN:4476,_RNvNtNtCsjkTxOr1VN5_7lb_quic9h3_bridge5testss_53encode_h3_response_is_byte_identical_to_split_helpers
FN:5234,_RNvNtNtCsjkTxOr1VN5_7lb_quic9h3_bridge5testss_55s12_decoded_sink_on_trailers_emits_h3respevent_trailers
FN:4323,_RNvNtNtCsjkTxOr1VN5_7lb_quic9h3_bridge5testss_61read_h1_response_capped_rejects_over_cap_and_passes_under_cap
FN:4246,_RNvNtNtCsjkTxOr1VN5_7lb_quic9h3_bridge5testss_63build_h1_request_none_body_is_byte_identical_to_legacy_bodyless
FN:4287,_RNvNtNtCsjkTxOr1VN5_7lb_quic9h3_bridge5testss_76s2_target_build_h1_request_with_body_sets_content_length_and_appends_payload
FN:4443,_RNCNCNvNtNtCsjkTxOr1VN5_7lb_quic9h3_bridge5testss_35feed_body_accepts_valid_h3_trailers00B9_
FN:4724,_RNCNCNvNtNtCsjkTxOr1VN5_7lb_quic9h3_bridge5testss_49g5_h2_request_body_from_rx_head_construction_arms00B9_
FN:4799,_RNCNCNvNtNtCsjkTxOr1VN5_7lb_quic9h3_bridge5testss_50g5_h3_to_h2_stream_resp_inline_413_and_502_no_dial00B9_
FN:4839,_RNCNCNvNtNtCsjkTxOr1VN5_7lb_quic9h3_bridge5testss_50g5_h3_to_h2_stream_resp_inline_413_and_502_no_dial0s_0B9_
FN:4338,_RNCNCNvNtNtCsjkTxOr1VN5_7lb_quic9h3_bridge5testss_61read_h1_response_capped_rejects_over_cap_and_passes_under_cap00B9_
FN:4364,_RNCNCNvNtNtCsjkTxOr1VN5_7lb_quic9h3_bridge5testss_61read_h1_response_capped_rejects_over_cap_and_passes_under_cap0s_0B9_
FN:4442,_RNCNvNtNtCsjkTxOr1VN5_7lb_quic9h3_bridge5testss_35feed_body_accepts_valid_h3_trailers0B7_
FN:4233,_RNCNvNtNtCsjkTxOr1VN5_7lb_quic9h3_bridge5testss_43encode_h3_response_includes_status_and_body0B7_
FN:4237,_RNCNvNtNtCsjkTxOr1VN5_7lb_quic9h3_bridge5testss_43encode_h3_response_includes_status_and_bodys_0B7_
FN:4855,_RNCNvNtNtCsjkTxOr1VN5_7lb_quic9h3_bridge5testss_49encode_h3_headers_frame_none_omits_content_length0B7_
FN:4857,_RNCNvNtNtCsjkTxOr1VN5_7lb_quic9h3_bridge5testss_49encode_h3_headers_frame_none_omits_content_lengths_0B7_
FN:4692,_RNCNvNtNtCsjkTxOr1VN5_7lb_quic9h3_bridge5testss_49g5_h2_request_body_from_rx_head_construction_arms0B7_
FN:4582,_RNCNvNtNtCsjkTxOr1VN5_7lb_quic9h3_bridge5testss_49s6_i2_h3_req_stream_body_frame_and_abort_contract0B7_
FN:4757,_RNCNvNtNtCsjkTxOr1VN5_7lb_quic9h3_bridge5testss_50g5_h3_to_h2_stream_resp_inline_413_and_502_no_dial0B7_
FN:4558,_RNCNvNtNtCsjkTxOr1VN5_7lb_quic9h3_bridge5testss_50s6_i1_stream_h2_response_reencode_framing_contract0B7_
FN:4516,_RNCNvNtNtCsjkTxOr1VN5_7lb_quic9h3_bridge5testss_50s6_i1_stream_h2_response_reencode_framing_contracts0_0B7_
FN:4526,_RNCNvNtNtCsjkTxOr1VN5_7lb_quic9h3_bridge5testss_50s6_i1_stream_h2_response_reencode_framing_contracts1_0B7_
FN:4568,_RNCNvNtNtCsjkTxOr1VN5_7lb_quic9h3_bridge5testss_50s6_i1_stream_h2_response_reencode_framing_contracts2_0B7_
FN:4570,_RNCNvNtNtCsjkTxOr1VN5_7lb_quic9h3_bridge5testss_50s6_i1_stream_h2_response_reencode_framing_contracts3_0B7_
FN:4514,_RNCNvNtNtCsjkTxOr1VN5_7lb_quic9h3_bridge5testss_50s6_i1_stream_h2_response_reencode_framing_contracts_0B7_
FN:5264,_RNCNvNtNtCsjkTxOr1VN5_7lb_quic9h3_bridge5testss_52s12_decoded_sink_on_head_forwards_full_nonpseudo_set0B7_
FN:5234,_RNCNvNtNtCsjkTxOr1VN5_7lb_quic9h3_bridge5testss_55s12_decoded_sink_on_trailers_emits_h3respevent_trailers0B7_
FN:4323,_RNCNvNtNtCsjkTxOr1VN5_7lb_quic9h3_bridge5testss_61read_h1_response_capped_rejects_over_cap_and_passes_under_cap0B7_
FNDA:0,_RNvMs_NtCsjkTxOr1VN5_7lb_quic9h3_bridgeNtB4_11StreamRxBuf12is_too_large
FNDA:0,_RNvNtCsjkTxOr1VN5_7lb_quic9h3_bridge15h3_to_h1_stream
FNDA:0,_RNvNtCsjkTxOr1VN5_7lb_quic9h3_bridge18h3_to_h1_roundtrip
FNDA:0,_RNvNtCsjkTxOr1VN5_7lb_quic9h3_bridge19request_h3_upstream
FNDA:0,_RNvXs0_NtCsjkTxOr1VN5_7lb_quic9h3_bridgeNtB5_9H3RequestNtNtCslfAf2Mv2Tp5_4core7default7Default7default
FNDA:0,_RNCNCNCNvNtCsjkTxOr1VN5_7lb_quic9h3_bridge18stream_h2_response0s1_00B9_
FNDA:0,_RNCNCNvNtCsjkTxOr1VN5_7lb_quic9h3_bridge15h3_to_h1_stream00B7_
FNDA:0,_RNCNCNvNtCsjkTxOr1VN5_7lb_quic9h3_bridge16write_h1_request00B7_
FNDA:0,_RNCNCNvNtCsjkTxOr1VN5_7lb_quic9h3_bridge18h3_to_h1_roundtrip00B7_
FNDA:0,_RNCNCNvNtCsjkTxOr1VN5_7lb_quic9h3_bridge18stream_h1_response00B7_
FNDA:0,_RNCNCNvNtCsjkTxOr1VN5_7lb_quic9h3_bridge18stream_h1_response0s_0B7_
FNDA:0,_RNCNCNvNtCsjkTxOr1VN5_7lb_quic9h3_bridge18stream_h2_response00B7_
FNDA:0,_RNCNCNvNtCsjkTxOr1VN5_7lb_quic9h3_bridge18stream_h2_response0s0_0B7_
FNDA:0,_RNCNCNvNtCsjkTxOr1VN5_7lb_quic9h3_bridge18stream_h2_response0s1_0B7_
FNDA:0,_RNCNCNvNtCsjkTxOr1VN5_7lb_quic9h3_bridge18stream_h2_response0s_0B7_
FNDA:0,_RNCNCNvNtCsjkTxOr1VN5_7lb_quic9h3_bridge23read_h1_response_capped00B7_
FNDA:0,_RNCNCNvNtCsjkTxOr1VN5_7lb_quic9h3_bridge23read_h1_response_capped0s0_0B7_
FNDA:0,_RNCNCNvNtCsjkTxOr1VN5_7lb_quic9h3_bridge23read_h1_response_capped0s_0B7_
FNDA:0,_RNCNCNvNtCsjkTxOr1VN5_7lb_quic9h3_bridge29stream_request_to_h3_upstream00B7_
FNDA:0,_RNCNvMs1_NtCsjkTxOr1VN5_7lb_quic9h3_bridgeNtB7_9H3Request12from_headers0B9_
FNDA:0,_RNCNvMs1_NtCsjkTxOr1VN5_7lb_quic9h3_bridgeNtB7_9H3Request12from_headerss_0B9_
FNDA:96,_RNCNvMs2_NtCsjkTxOr1VN5_7lb_quic9h3_bridgeNtB7_12ChunkDecoder21parse_trailer_section0B9_
FNDA:312,_RNCNvMs2_NtCsjkTxOr1VN5_7lb_quic9h3_bridgeNtB7_12ChunkDecoder4feed0B9_
FNDA:19,_RNCNvMs2_NtCsjkTxOr1VN5_7lb_quic9h3_bridgeNtB7_12ChunkDecoder4feeds_0B9_
FNDA:1,_RNCNvMs7_NtCsjkTxOr1VN5_7lb_quic9h3_bridgeNtB7_9H3RespOut11on_trailers0B9_
FNDA:0,_RNCNvMs7_NtCsjkTxOr1VN5_7lb_quic9h3_bridgeNtB7_9H3RespOut6inline0B9_
FNDA:0,_RNCNvMs7_NtCsjkTxOr1VN5_7lb_quic9h3_bridgeNtB7_9H3RespOut6on_end0B9_
FNDA:0,_RNCNvMs7_NtCsjkTxOr1VN5_7lb_quic9h3_bridgeNtB7_9H3RespOut7on_data0B9_
FNDA:1,_RNCNvMs7_NtCsjkTxOr1VN5_7lb_quic9h3_bridgeNtB7_9H3RespOut7on_head0B9_
FNDA:0,_RNCNvMs7_NtCsjkTxOr1VN5_7lb_quic9h3_bridgeNtB7_9H3RespOut8on_reset0B9_
FNDA:0,_RNCNvMs_NtCsjkTxOr1VN5_7lb_quic9h3_bridgeNtB6_11StreamRxBuf4feed0B8_
FNDA:0,_RNCNvMs_NtCsjkTxOr1VN5_7lb_quic9h3_bridgeNtB6_11StreamRxBuf9feed_body0B8_
FNDA:3,_RNCNvMs_NtCsjkTxOr1VN5_7lb_quic9h3_bridgeNtB6_11StreamRxBuf9feed_bodys0_0B8_
FNDA:0,_RNCNvMs_NtCsjkTxOr1VN5_7lb_quic9h3_bridgeNtB6_11StreamRxBuf9feed_bodys_0B8_
FNDA:0,_RNCNvNCNvNtCsjkTxOr1VN5_7lb_quic9h3_bridge20h3_to_h1_stream_resp06inline0B9_
FNDA:2,_RNCNvNCNvNtCsjkTxOr1VN5_7lb_quic9h3_bridge20h3_to_h2_stream_resp06inline0B9_
FNDA:34,_RNCNvNtCsjkTxOr1VN5_7lb_quic9h3_bridge15find_header_sep0B5_
FNDA:0,_RNCNvNtCsjkTxOr1VN5_7lb_quic9h3_bridge15h3_to_h1_stream0B5_
FNDA:0,_RNCNvNtCsjkTxOr1VN5_7lb_quic9h3_bridge16read_h1_response0B5_
FNDA:0,_RNCNvNtCsjkTxOr1VN5_7lb_quic9h3_bridge16write_body_chunk0B5_
FNDA:0,_RNCNvNtCsjkTxOr1VN5_7lb_quic9h3_bridge16write_h1_request0B5_
FNDA:0,_RNCNvNtCsjkTxOr1VN5_7lb_quic9h3_bridge17parse_status_line0B5_
FNDA:0,_RNCNvNtCsjkTxOr1VN5_7lb_quic9h3_bridge18h3_to_h1_roundtrip0B5_
FNDA:0,_RNCNvNtCsjkTxOr1VN5_7lb_quic9h3_bridge18stream_h1_response0B5_
FNDA:0,_RNCNvNtCsjkTxOr1VN5_7lb_quic9h3_bridge18stream_h2_response0B5_
FNDA:0,_RNCNvNtCsjkTxOr1VN5_7lb_quic9h3_bridge19request_h3_upstream0B5_
FNDA:0,_RNCNvNtCsjkTxOr1VN5_7lb_quic9h3_bridge20encode_h3_data_frame0B5_
FNDA:0,_RNCNvNtCsjkTxOr1VN5_7lb_quic9h3_bridge20h3_to_h1_stream_resp0B5_
FNDA:2,_RNCNvNtCsjkTxOr1VN5_7lb_quic9h3_bridge20h3_to_h2_stream_resp0B5_
FNDA:0,_RNCNvNtCsjkTxOr1VN5_7lb_quic9h3_bridge20h3_to_h3_stream_resp0B5_
FNDA:0,_RNCNvNtCsjkTxOr1VN5_7lb_quic9h3_bridge23encode_h3_headers_frame0B5_
FNDA:0,_RNCNvNtCsjkTxOr1VN5_7lb_quic9h3_bridge23encode_h3_headers_frames_0B5_
FNDA:2,_RNCNvNtCsjkTxOr1VN5_7lb_quic9h3_bridge23read_h1_response_capped0B5_
FNDA:0,_RNCNvNtCsjkTxOr1VN5_7lb_quic9h3_bridge24encode_h3_trailers_frame0B5_
FNDA:0,_RNCNvNtCsjkTxOr1VN5_7lb_quic9h3_bridge24encode_h3_trailers_frames_0B5_
FNDA:0,_RNCNvNtCsjkTxOr1VN5_7lb_quic9h3_bridge28encode_h3_headers_frame_full0B5_
FNDA:0,_RNCNvNtCsjkTxOr1VN5_7lb_quic9h3_bridge28encode_h3_headers_frame_fulls_0B5_
FNDA:0,_RNCNvNtCsjkTxOr1VN5_7lb_quic9h3_bridge29stream_request_to_h3_upstream0B5_
FNDA:0,_RNvMs1_NtCsjkTxOr1VN5_7lb_quic9h3_bridgeNtB5_9H3Request12from_headers
FNDA:3,_RNvMs2_NtCsjkTxOr1VN5_7lb_quic9h3_bridgeNtB5_12ChunkDecoder13take_trailers
FNDA:11,_RNvMs2_NtCsjkTxOr1VN5_7lb_quic9h3_bridgeNtB5_12ChunkDecoder21parse_trailer_section
FNDA:12,_RNvMs2_NtCsjkTxOr1VN5_7lb_quic9h3_bridgeNtB5_12ChunkDecoder3new
FNDA:17,_RNvMs2_NtCsjkTxOr1VN5_7lb_quic9h3_bridgeNtB5_12ChunkDecoder4feed
FNDA:1,_RNvMs7_NtCsjkTxOr1VN5_7lb_quic9h3_bridgeNtB5_9H3RespOut11on_trailers
FNDA:0,_RNvMs7_NtCsjkTxOr1VN5_7lb_quic9h3_bridgeNtB5_9H3RespOut6inline
FNDA:0,_RNvMs7_NtCsjkTxOr1VN5_7lb_quic9h3_bridgeNtB5_9H3RespOut6on_end
FNDA:0,_RNvMs7_NtCsjkTxOr1VN5_7lb_quic9h3_bridgeNtB5_9H3RespOut7on_data
FNDA:1,_RNvMs7_NtCsjkTxOr1VN5_7lb_quic9h3_bridgeNtB5_9H3RespOut7on_head
FNDA:0,_RNvMs7_NtCsjkTxOr1VN5_7lb_quic9h3_bridgeNtB5_9H3RespOut8on_reset
FNDA:0,_RNvMs_NtCsjkTxOr1VN5_7lb_quic9h3_bridgeNtB4_11StreamRxBuf14retained_bytes
FNDA:12,_RNvMs_NtCsjkTxOr1VN5_7lb_quic9h3_bridgeNtB4_11StreamRxBuf22try_parse_frame_header
FNDA:2,_RNvMs_NtCsjkTxOr1VN5_7lb_quic9h3_bridgeNtB4_11StreamRxBuf4feed
FNDA:2,_RNvMs_NtCsjkTxOr1VN5_7lb_quic9h3_bridgeNtB4_11StreamRxBuf9feed_body
FNDA:0,_RNvNCNvNtCsjkTxOr1VN5_7lb_quic9h3_bridge20h3_to_h1_stream_resp06inline
FNDA:2,_RNvNCNvNtCsjkTxOr1VN5_7lb_quic9h3_bridge20h3_to_h2_stream_resp06inline
FNDA:0,_RNvNtCsjkTxOr1VN5_7lb_quic9h3_bridge13build_h1_head
FNDA:2,_RNvNtCsjkTxOr1VN5_7lb_quic9h3_bridge15check_block_len
FNDA:1,_RNvNtCsjkTxOr1VN5_7lb_quic9h3_bridge15find_header_sep
FNDA:0,_RNvNtCsjkTxOr1VN5_7lb_quic9h3_bridge15record_inflight
FNDA:0,_RNvNtCsjkTxOr1VN5_7lb_quic9h3_bridge15record_retained
FNDA:2,_RNvNtCsjkTxOr1VN5_7lb_quic9h3_bridge16build_h1_request
FNDA:0,_RNvNtCsjkTxOr1VN5_7lb_quic9h3_bridge16read_h1_response
FNDA:0,_RNvNtCsjkTxOr1VN5_7lb_quic9h3_bridge16write_body_chunk
FNDA:0,_RNvNtCsjkTxOr1VN5_7lb_quic9h3_bridge16write_h1_request
FNDA:6,_RNvNtCsjkTxOr1VN5_7lb_quic9h3_bridge17classify_recv_err
FNDA:1,_RNvNtCsjkTxOr1VN5_7lb_quic9h3_bridge17parse_status_line
FNDA:7,_RNvNtCsjkTxOr1VN5_7lb_quic9h3_bridge18encode_h3_response
FNDA:4,_RNvNtCsjkTxOr1VN5_7lb_quic9h3_bridge18parse_frame_header
FNDA:0,_RNvNtCsjkTxOr1VN5_7lb_quic9h3_bridge18stream_h1_response
FNDA:0,_RNvNtCsjkTxOr1VN5_7lb_quic9h3_bridge18stream_h2_response
FNDA:9,_RNvNtCsjkTxOr1VN5_7lb_quic9h3_bridge19j2_req_event_action
FNDA:21,_RNvNtCsjkTxOr1VN5_7lb_quic9h3_bridge20encode_h3_data_frame
FNDA:0,_RNvNtCsjkTxOr1VN5_7lb_quic9h3_bridge20h3_to_h1_stream_resp
FNDA:2,_RNvNtCsjkTxOr1VN5_7lb_quic9h3_bridge20h3_to_h2_stream_resp
FNDA:0,_RNvNtCsjkTxOr1VN5_7lb_quic9h3_bridge20h3_to_h3_stream_resp
FNDA:0,_RNvNtCsjkTxOr1VN5_7lb_quic9h3_bridge20record_resp_retained
FNDA:0,_RNvNtCsjkTxOr1VN5_7lb_quic9h3_bridge22is_response_hop_by_hop
FNDA:15,_RNvNtCsjkTxOr1VN5_7lb_quic9h3_bridge23encode_h3_headers_frame
FNDA:6,_RNvNtCsjkTxOr1VN5_7lb_quic9h3_bridge23h2_request_body_from_rx
FNDA:2,_RNvNtCsjkTxOr1VN5_7lb_quic9h3_bridge23read_h1_response_capped
FNDA:1,_RNvNtCsjkTxOr1VN5_7lb_quic9h3_bridge24encode_h3_trailers_frame
FNDA:0,_RNvNtCsjkTxOr1VN5_7lb_quic9h3_bridge28encode_h3_headers_frame_full
FNDA:0,_RNvNtCsjkTxOr1VN5_7lb_quic9h3_bridge29stream_request_to_h3_upstream
FNDA:14,_RNvXNtCsjkTxOr1VN5_7lb_quic9h3_bridgeNtB2_9BodyParseNtNtCslfAf2Mv2Tp5_4core7default7Default7default
FNDA:2,_RNvXs3_NtCsjkTxOr1VN5_7lb_quic9h3_bridgeNtB5_10H3ReqAbortNtNtCslfAf2Mv2Tp5_4core3fmt7Display3fmt
FNDA:9,_RNvXs5_NtCsjkTxOr1VN5_7lb_quic9h3_bridgeNtB5_15H3ReqStreamBodyNtCsizreEjZgwgt_9http_body4Body10poll_frame
FNDA:0,_RNvXs6_NtCsjkTxOr1VN5_7lb_quic9h3_bridgeNtB5_18H3UpstreamResponseNtNtCslfAf2Mv2Tp5_4core7default7Default7default
FNDA:1,_RNvNtNtCsjkTxOr1VN5_7lb_quic9h3_bridge5testss_27s7_j2_request_send_decision
FNDA:1,_RNvNtNtCsjkTxOr1VN5_7lb_quic9h3_bridge5testss_31s7_j1_recv_half_frame_machinery
FNDA:1,_RNvNtNtCsjkTxOr1VN5_7lb_quic9h3_bridge5testss_34chunk_decoder_decodes_split_chunks
FNDA:1,_RNvNtNtCsjkTxOr1VN5_7lb_quic9h3_bridge5testss_35feed_body_accepts_valid_h3_trailers
FNDA:1,_RNvNtNtCsjkTxOr1VN5_7lb_quic9h3_bridge5testss_36g5_h3reqabort_display_and_error_impl
FNDA:1,_RNvNtNtCsjkTxOr1VN5_7lb_quic9h3_bridge5testss_36s7_j5_recv_stream_err_classification
FNDA:1,_RNvNtNtCsjkTxOr1VN5_7lb_quic9h3_bridge5testss_39chunk_decoder_parses_trailer_section_c4
FNDA:1,_RNvNtNtCsjkTxOr1VN5_7lb_quic9h3_bridge5testss_39chunk_decoder_tolerates_chunk_extension
FNDA:1,_RNvNtNtCsjkTxOr1VN5_7lb_quic9h3_bridge5testss_41stream_rx_buf_accumulates_partial_headers
FNDA:1,_RNvNtNtCsjkTxOr1VN5_7lb_quic9h3_bridge5testss_42chunk_decoder_rejects_malformed_framing_c3
FNDA:1,_RNvNtNtCsjkTxOr1VN5_7lb_quic9h3_bridge5testss_43encode_h3_response_includes_status_and_body
FNDA:1,_RNvNtNtCsjkTxOr1VN5_7lb_quic9h3_bridge5testss_46feed_body_rejects_pseudo_header_in_h3_trailers
FNDA:1,_RNvNtNtCsjkTxOr1VN5_7lb_quic9h3_bridge5testss_49encode_h3_headers_frame_none_omits_content_length
FNDA:1,_RNvNtNtCsjkTxOr1VN5_7lb_quic9h3_bridge5testss_49g5_h2_request_body_from_rx_head_construction_arms
FNDA:1,_RNvNtNtCsjkTxOr1VN5_7lb_quic9h3_bridge5testss_49s6_i2_h3_req_stream_body_frame_and_abort_contract
FNDA:1,_RNvNtNtCsjkTxOr1VN5_7lb_quic9h3_bridge5testss_50g5_h3_to_h2_stream_resp_inline_413_and_502_no_dial
FNDA:1,_RNvNtNtCsjkTxOr1VN5_7lb_quic9h3_bridge5testss_50s6_i1_stream_h2_response_reencode_framing_contract
FNDA:1,_RNvNtNtCsjkTxOr1VN5_7lb_quic9h3_bridge5testss_52s12_decoded_sink_on_head_forwards_full_nonpseudo_set
FNDA:1,_RNvNtNtCsjkTxOr1VN5_7lb_quic9h3_bridge5testss_53encode_h3_response_is_byte_identical_to_split_helpers
FNDA:1,_RNvNtNtCsjkTxOr1VN5_7lb_quic9h3_bridge5testss_55s12_decoded_sink_on_trailers_emits_h3respevent_trailers
FNDA:1,_RNvNtNtCsjkTxOr1VN5_7lb_quic9h3_bridge5testss_61read_h1_response_capped_rejects_over_cap_and_passes_under_cap
FNDA:1,_RNvNtNtCsjkTxOr1VN5_7lb_quic9h3_bridge5testss_63build_h1_request_none_body_is_byte_identical_to_legacy_bodyless
FNDA:1,_RNvNtNtCsjkTxOr1VN5_7lb_quic9h3_bridge5testss_76s2_target_build_h1_request_with_body_sets_content_length_and_appends_payload
FNDA:1,_RNCNCNvNtNtCsjkTxOr1VN5_7lb_quic9h3_bridge5testss_35feed_body_accepts_valid_h3_trailers00B9_
FNDA:1,_RNCNCNvNtNtCsjkTxOr1VN5_7lb_quic9h3_bridge5testss_49g5_h2_request_body_from_rx_head_construction_arms00B9_
FNDA:1,_RNCNCNvNtNtCsjkTxOr1VN5_7lb_quic9h3_bridge5testss_50g5_h3_to_h2_stream_resp_inline_413_and_502_no_dial00B9_
FNDA:1,_RNCNCNvNtNtCsjkTxOr1VN5_7lb_quic9h3_bridge5testss_50g5_h3_to_h2_stream_resp_inline_413_and_502_no_dial0s_0B9_
FNDA:1,_RNCNCNvNtNtCsjkTxOr1VN5_7lb_quic9h3_bridge5testss_61read_h1_response_capped_rejects_over_cap_and_passes_under_cap00B9_
FNDA:1,_RNCNCNvNtNtCsjkTxOr1VN5_7lb_quic9h3_bridge5testss_61read_h1_response_capped_rejects_over_cap_and_passes_under_cap0s_0B9_
FNDA:1,_RNCNvNtNtCsjkTxOr1VN5_7lb_quic9h3_bridge5testss_35feed_body_accepts_valid_h3_trailers0B7_
FNDA:1,_RNCNvNtNtCsjkTxOr1VN5_7lb_quic9h3_bridge5testss_43encode_h3_response_includes_status_and_body0B7_
FNDA:2,_RNCNvNtNtCsjkTxOr1VN5_7lb_quic9h3_bridge5testss_43encode_h3_response_includes_status_and_bodys_0B7_
FNDA:1,_RNCNvNtNtCsjkTxOr1VN5_7lb_quic9h3_bridge5testss_49encode_h3_headers_frame_none_omits_content_length0B7_
FNDA:1,_RNCNvNtNtCsjkTxOr1VN5_7lb_quic9h3_bridge5testss_49encode_h3_headers_frame_none_omits_content_lengths_0B7_
FNDA:1,_RNCNvNtNtCsjkTxOr1VN5_7lb_quic9h3_bridge5testss_49g5_h2_request_body_from_rx_head_construction_arms0B7_
FNDA:1,_RNCNvNtNtCsjkTxOr1VN5_7lb_quic9h3_bridge5testss_49s6_i2_h3_req_stream_body_frame_and_abort_contract0B7_
FNDA:1,_RNCNvNtNtCsjkTxOr1VN5_7lb_quic9h3_bridge5testss_50g5_h3_to_h2_stream_resp_inline_413_and_502_no_dial0B7_
FNDA:2,_RNCNvNtNtCsjkTxOr1VN5_7lb_quic9h3_bridge5testss_50s6_i1_stream_h2_response_reencode_framing_contract0B7_
FNDA:2,_RNCNvNtNtCsjkTxOr1VN5_7lb_quic9h3_bridge5testss_50s6_i1_stream_h2_response_reencode_framing_contracts0_0B7_
FNDA:1,_RNCNvNtNtCsjkTxOr1VN5_7lb_quic9h3_bridge5testss_50s6_i1_stream_h2_response_reencode_framing_contracts1_0B7_
FNDA:1,_RNCNvNtNtCsjkTxOr1VN5_7lb_quic9h3_bridge5testss_50s6_i1_stream_h2_response_reencode_framing_contracts2_0B7_
FNDA:1,_RNCNvNtNtCsjkTxOr1VN5_7lb_quic9h3_bridge5testss_50s6_i1_stream_h2_response_reencode_framing_contracts3_0B7_
FNDA:1,_RNCNvNtNtCsjkTxOr1VN5_7lb_quic9h3_bridge5testss_50s6_i1_stream_h2_response_reencode_framing_contracts_0B7_
FNDA:1,_RNCNvNtNtCsjkTxOr1VN5_7lb_quic9h3_bridge5testss_52s12_decoded_sink_on_head_forwards_full_nonpseudo_set0B7_
FNDA:1,_RNCNvNtNtCsjkTxOr1VN5_7lb_quic9h3_bridge5testss_55s12_decoded_sink_on_trailers_emits_h3respevent_trailers0B7_
FNDA:1,_RNCNvNtNtCsjkTxOr1VN5_7lb_quic9h3_bridge5testss_61read_h1_response_capped_rejects_over_cap_and_passes_under_cap0B7_
FNF:153
FNH:83
DA:329,14
DA:330,14
DA:331,14
DA:376,2
DA:377,2
DA:380,0
DA:381,0
DA:382,2
DA:383,2
DA:385,2
DA:386,1
DA:387,1
DA:388,1
DA:389,1
DA:390,1
DA:391,1
DA:392,1
DA:393,1
DA:395,0
DA:396,0
DA:397,0
DA:398,0
DA:399,0
DA:400,0
DA:401,1
DA:402,0
DA:405,2
DA:426,2
DA:427,2
DA:428,2
DA:429,0
DA:430,0
DA:431,2
DA:439,2
DA:440,2
DA:441,0
DA:442,2
DA:443,2
DA:445,2
DA:446,9
DA:447,8
DA:448,8
DA:449,4
DA:454,4
DA:455,4
DA:456,12
DA:457,4
DA:458,0
DA:460,8
DA:461,0
DA:463,8
DA:464,8
DA:465,8
DA:466,0
DA:467,0
DA:468,0
DA:469,0
DA:470,8
DA:474,4
DA:475,4
DA:479,0
DA:480,0
DA:482,4
DA:483,4
DA:484,4
DA:485,4
DA:486,2
DA:487,2
DA:488,2
DA:489,2
DA:490,2
DA:493,0
DA:498,2
DA:499,2
DA:501,0
DA:502,0
DA:503,2
DA:504,2
DA:505,2
DA:510,2
DA:511,2
DA:512,0
DA:513,0
DA:514,0
DA:515,2
DA:519,2
DA:520,4
DA:521,2
DA:522,2
DA:523,2
DA:524,2
DA:525,2
DA:526,2
DA:527,2
DA:528,2
DA:529,2
DA:530,2
DA:532,0
DA:536,2
DA:537,2
DA:542,2
DA:543,2
DA:544,2
DA:545,2
DA:546,0
DA:547,0
DA:548,0
DA:549,0
DA:550,2
DA:551,2
DA:552,2
DA:553,2
DA:554,2
DA:555,2
DA:556,2
DA:557,2
DA:567,3
DA:568,1
DA:569,1
DA:570,1
DA:571,1
DA:572,0
DA:573,0
DA:574,0
DA:575,0
DA:576,0
DA:577,0
DA:579,0
DA:582,0
DA:583,0
DA:584,0
DA:585,0
DA:586,0
DA:588,0
DA:593,1
DA:594,2
DA:602,12
DA:603,12
DA:604,8
DA:605,4
DA:606,0
DA:608,8
DA:609,8
DA:610,4
DA:611,4
DA:612,0
DA:614,4
DA:615,12
DA:620,0
DA:621,0
DA:622,0
DA:633,0
DA:634,0
DA:635,0
DA:636,0
DA:637,0
DA:639,0
DA:640,0
DA:660,0
DA:662,0
DA:663,0
DA:664,0
DA:665,0
DA:666,0
DA:667,0
DA:668,0
DA:669,0
DA:670,0
DA:671,0
DA:674,0
DA:697,0
DA:699,0
DA:700,0
DA:701,0
DA:702,0
DA:703,0
DA:704,0
DA:705,0
DA:706,0
DA:707,0
DA:708,0
DA:711,0
DA:739,0
DA:740,0
DA:741,0
DA:742,0
DA:743,0
DA:744,0
DA:745,0
DA:746,0
DA:747,0
DA:756,0
DA:757,0
DA:758,0
DA:759,0
DA:760,0
DA:761,0
DA:762,0
DA:763,0
DA:764,0
DA:765,0
DA:766,0
DA:767,0
DA:768,0
DA:769,0
DA:773,0
DA:774,0
DA:775,0
DA:776,0
DA:782,0
DA:784,0
DA:803,2
DA:804,2
DA:810,2
DA:811,2
DA:812,2
DA:813,2
DA:814,2
DA:815,2
DA:816,2
DA:817,2
DA:818,2
DA:819,2
DA:822,2
DA:823,2
DA:824,2
DA:825,2
DA:826,2
DA:827,2
DA:828,2
DA:829,2
DA:830,1
DA:831,1
DA:832,1
DA:833,1
DA:834,2
DA:835,2
DA:850,0
DA:858,0
DA:859,0
DA:867,2
DA:868,2
DA:869,2
DA:871,19
DA:872,19
DA:873,19
DA:874,19
DA:875,19
DA:876,1
DA:877,18
DA:878,18
DA:883,18
DA:884,1
DA:885,1
DA:886,1
DA:887,1
DA:888,17
DA:893,1
DA:894,1
DA:895,1
DA:896,1
DA:897,1
DA:898,1
DA:899,1
DA:900,1
DA:901,1
DA:902,1
DA:903,1
DA:904,1
DA:905,1
DA:907,1
DA:908,1
DA:909,1
DA:910,1
DA:911,1
DA:912,2
DA:914,1
DA:915,34
DA:916,1
DA:918,1
DA:919,1
DA:920,1
DA:921,1
DA:922,1
DA:923,1
DA:924,1
DA:941,7
DA:942,7
DA:943,7
DA:944,7
DA:945,7
DA:946,7
DA:947,7
DA:948,7
DA:968,15
DA:969,15
DA:970,15
DA:971,15
DA:972,15
DA:973,15
DA:974,15
DA:975,13
DA:976,13
DA:977,15
DA:978,15
DA:979,15
DA:980,15
DA:981,15
DA:1011,0
DA:1012,0
DA:1013,0
DA:1014,0
DA:1015,0
DA:1016,0
DA:1017,0
DA:1018,0
DA:1019,0
DA:1020,0
DA:1021,0
DA:1022,0
DA:1054,0
DA:1055,0
DA:1056,0
DA:1066,21
DA:1067,21
DA:1068,21
DA:1069,21
DA:1070,21
DA:1071,21
DA:1089,1
DA:1090,1
DA:1091,1
DA:1092,1
DA:1093,1
DA:1094,1
DA:1160,12
DA:1161,12
DA:1162,12
DA:1163,12
DA:1164,12
DA:1165,12
DA:1166,12
DA:1167,12
DA:1168,12
DA:1169,12
DA:1174,3
DA:1175,3
DA:1176,3
DA:1182,17
DA:1183,17
DA:1185,49
DA:1189,0
DA:1190,49
DA:1191,49
DA:1198,11
DA:1199,38
DA:1200,38
DA:1203,8
DA:1204,0
DA:1206,8
DA:1207,1
DA:1208,7
DA:1209,7
DA:1210,7
DA:1212,10
DA:1213,10
DA:1214,1
DA:1215,9
DA:1216,9
DA:1217,9
DA:1218,0
DA:1220,9
DA:1221,9
DA:1222,9
DA:1226,312
DA:1227,1
DA:1228,0
DA:1229,1
DA:1230,1
DA:1232,19
DA:1233,1
DA:1234,18
DA:1235,18
DA:1236,0
DA:1240,19
DA:1241,18
DA:1242,18
DA:1243,18
DA:1244,18
DA:1245,1
DA:1246,17
DA:1247,16
DA:1248,17
DA:1249,16
DA:1250,16
DA:1259,8
DA:1260,8
DA:1261,8
DA:1262,8
DA:1266,17
DA:1284,11
DA:1287,14
DA:1288,8
DA:1289,1
DA:1290,7
DA:1291,7
DA:1292,6
DA:1293,96
DA:1296,5
DA:1297,0
DA:1298,5
DA:1299,5
DA:1301,8
DA:1303,3
DA:1304,3
DA:1305,3
DA:1306,5
DA:1307,5
DA:1308,5
DA:1312,5
DA:1313,4
DA:1314,4
DA:1315,1
DA:1316,3
DA:1320,3
DA:1321,0
DA:1322,3
DA:1323,3
DA:1324,3
DA:1326,11
DA:1363,0
DA:1364,0
DA:1365,0
DA:1366,0
DA:1367,0
DA:1378,0
DA:1379,0
DA:1380,0
DA:1381,0
DA:1382,0
DA:1383,0
DA:1384,0
DA:1385,0
DA:1386,0
DA:1387,0
DA:1388,0
DA:1389,0
DA:1391,0
DA:1392,0
DA:1395,0
DA:1397,0
DA:1398,0
DA:1399,0
DA:1400,0
DA:1404,0
DA:1405,0
DA:1407,0
DA:1409,0
DA:1410,0
DA:1411,0
DA:1412,0
DA:1413,0
DA:1414,0
DA:1415,0
DA:1418,0
DA:1419,0
DA:1420,0
DA:1421,0
DA:1422,0
DA:1424,0
DA:1425,0
DA:1426,0
DA:1427,0
DA:1430,0
DA:1431,0
DA:1439,0
DA:1440,0
DA:1441,0
DA:1442,0
DA:1444,0
DA:1445,0
DA:1446,0
DA:1447,0
DA:1449,0
DA:1450,0
DA:1453,0
DA:1454,0
DA:1455,0
DA:1456,0
DA:1457,0
DA:1461,0
DA:1462,0
DA:1463,0
DA:1464,0
DA:1465,0
DA:1466,0
DA:1467,0
DA:1468,0
DA:1470,0
DA:1478,0
DA:1479,0
DA:1480,0
DA:1481,0
DA:1482,0
DA:1484,0
DA:1485,0
DA:1488,0
DA:1489,0
DA:1490,0
DA:1491,0
DA:1492,0
DA:1493,0
DA:1494,0
DA:1518,0
DA:1519,0
DA:1520,0
DA:1522,0
DA:1523,0
DA:1525,0
DA:1526,0
DA:1527,0
DA:1528,0
DA:1529,0
DA:1530,0
DA:1531,0
DA:1532,0
DA:1533,0
DA:1534,0
DA:1535,0
DA:1536,0
DA:1538,0
DA:1539,0
DA:1542,0
DA:1544,0
DA:1545,0
DA:1546,0
DA:1547,0
DA:1548,0
DA:1549,0
DA:1553,0
DA:1554,0
DA:1555,0
DA:1556,0
DA:1557,0
DA:1558,0
DA:1559,0
DA:1560,0
DA:1561,0
DA:1562,0
DA:1563,0
DA:1564,0
DA:1565,0
DA:1572,0
DA:1573,0
DA:1574,0
DA:1576,0
DA:1577,0
DA:1580,0
DA:1583,0
DA:1584,0
DA:1585,0
DA:1586,0
DA:1587,0
DA:1588,0
DA:1589,0
DA:1590,0
DA:1591,0
DA:1592,0
DA:1593,0
DA:1603,0
DA:1604,0
DA:1605,0
DA:1606,0
DA:1608,0
DA:1609,0
DA:1612,0
DA:1613,0
DA:1614,0
DA:1615,0
DA:1616,0
DA:1617,0
DA:1618,0
DA:1621,0
DA:1622,0
DA:1623,0
DA:1624,0
DA:1626,0
DA:1627,0
DA:1629,0
DA:1630,0
DA:1633,0
DA:1634,0
DA:1635,0
DA:1636,0
DA:1637,0
DA:1643,0
DA:1644,0
DA:1645,0
DA:1686,0
DA:1687,0
DA:1688,0
DA:1689,0
DA:1690,0
DA:1697,0
DA:1703,0
DA:1704,0
DA:1705,0
DA:1706,0
DA:1707,0
DA:1717,0
DA:1718,0
DA:1719,0
DA:1720,0
DA:1721,0
DA:1722,0
DA:1723,0
DA:1724,0
DA:1725,0
DA:1727,0
DA:1728,0
DA:1729,0
DA:1730,0
DA:1731,0
DA:1733,0
DA:1734,0
DA:1737,0
DA:1738,0
DA:1739,0
DA:1740,0
DA:1741,0
DA:1742,0
DA:1767,0
DA:1768,0
DA:1769,0
DA:1773,0
DA:1774,0
DA:1777,0
DA:1779,0
DA:1780,0
DA:1781,0
DA:1782,0
DA:1783,0
DA:1787,0
DA:1788,0
DA:1789,0
DA:1790,0
DA:1791,0
DA:1792,0
DA:1793,0
DA:1794,0
DA:1795,0
DA:1796,0
DA:1797,0
DA:1798,0
DA:1800,0
DA:1801,0
DA:1804,0
DA:1805,0
DA:1806,0
DA:1807,0
DA:1808,0
DA:1809,0
DA:1810,0
DA:1811,0
DA:1817,0
DA:1818,0
DA:1819,0
DA:1844,0
DA:1845,0
DA:1846,0
DA:1847,0
DA:1848,0
DA:1849,0
DA:1850,0
DA:1851,0
DA:1852,0
DA:1853,0
DA:1854,0
DA:1857,0
DA:1858,0
DA:1859,0
DA:1860,0
DA:1861,0
DA:1862,0
DA:1863,0
DA:1864,0
DA:1865,0
DA:1866,0
DA:1867,0
DA:1868,0
DA:1869,0
DA:1870,0
DA:1871,0
DA:1872,0
DA:1873,0
DA:1874,0
DA:1875,0
DA:1876,0
DA:1877,0
DA:1882,0
DA:1883,0
DA:1884,0
DA:1896,0
DA:1897,0
DA:1898,0
DA:1899,0
DA:1900,0
DA:1901,0
DA:1902,0
DA:1903,0
DA:1904,0
DA:1905,0
DA:1906,0
DA:1907,0
DA:1908,0
DA:1909,0
DA:1910,0
DA:1911,0
DA:1912,0
DA:1913,0
DA:1914,0
DA:1916,0
DA:1917,0
DA:1918,0
DA:1919,0
DA:1941,0
DA:1943,0
DA:1944,0
DA:1945,0
DA:1946,0
DA:1947,0
DA:1948,0
DA:1949,0
DA:1950,0
DA:1951,0
DA:1952,0
DA:1955,0
DA:1965,0
DA:1966,0
DA:1967,0
DA:1968,0
DA:1969,0
DA:1970,0
DA:1971,0
DA:1972,0
DA:1973,0
DA:1975,0
DA:1977,0
DA:1978,0
DA:2036,0
DA:2037,0
DA:2038,0
DA:2039,0
DA:2040,0
DA:2043,0
DA:2044,0
DA:2046,0
DA:2051,0
DA:2053,0
DA:2054,0
DA:2055,0
DA:2056,0
DA:2058,0
DA:2060,0
DA:2061,0
DA:2062,0
DA:2063,0
DA:2067,0
DA:2069,0
DA:2070,0
DA:2072,0
DA:2073,0
DA:2074,0
DA:2075,0
DA:2077,0
DA:2078,0
DA:2079,0
DA:2080,0
DA:2081,0
DA:2082,0
DA:2089,0
DA:2090,0
DA:2091,0
DA:2092,0
DA:2093,0
DA:2094,0
DA:2095,0
DA:2096,0
DA:2097,0
DA:2125,0
DA:2126,0
DA:2147,0
DA:2151,0
DA:2155,0
DA:2159,0
DA:2160,0
DA:2161,0
DA:2162,0
DA:2163,0
DA:2164,0
DA:2165,0
DA:2166,0
DA:2167,0
DA:2169,0
DA:2170,0
DA:2171,0
DA:2172,0
DA:2173,0
DA:2174,0
DA:2198,0
DA:2199,0
DA:2200,0
DA:2201,0
DA:2202,0
DA:2203,0
DA:2204,0
DA:2205,0
DA:2206,0
DA:2207,0
DA:2208,0
DA:2209,0
DA:2214,0
DA:2215,0
DA:2216,0
DA:2217,0
DA:2219,0
DA:2220,0
DA:2221,0
DA:2222,0
DA:2223,0
DA:2224,0
DA:2225,0
DA:2228,0
DA:2234,0
DA:2235,0
DA:2240,0
DA:2241,0
DA:2246,0
DA:2247,0
DA:2248,0
DA:2279,0
DA:2280,0
DA:2281,0
DA:2282,0
DA:2283,0
DA:2284,0
DA:2285,0
DA:2286,0
DA:2290,0
DA:2291,0
DA:2292,0
DA:2293,0
DA:2295,0
DA:2297,0
DA:2299,0
DA:2300,0
DA:2301,0
DA:2302,0
DA:2303,0
DA:2305,0
DA:2309,0
DA:2310,0
DA:2311,0
DA:2312,0
DA:2313,0
DA:2316,0
DA:2322,0
DA:2324,0
DA:2325,0
DA:2327,0
DA:2328,0
DA:2331,0
DA:2332,0
DA:2333,0
DA:2344,0
DA:2345,0
DA:2346,0
DA:2357,2
DA:2358,2
DA:2359,2
DA:2390,9
DA:2391,9
DA:2392,9
DA:2393,9
DA:2395,9
DA:2396,9
DA:2397,2
DA:2398,7
DA:2399,7
DA:2403,3
DA:2404,4
DA:2405,4
DA:2406,0
DA:2407,1
DA:2408,1
DA:2414,1
DA:2415,1
DA:2425,2
DA:2426,2
DA:2429,9
DA:2468,6
DA:2469,6
DA:2470,6
DA:2471,6
DA:2472,6
DA:2473,6
DA:2477,6
DA:2478,6
DA:2479,1
DA:2481,5
DA:2483,6
DA:2484,6
DA:2485,6
DA:2486,2
DA:2487,1
DA:2488,1
DA:2489,1
DA:2492,5
DA:2495,4
DA:2496,4
DA:2497,4
DA:2500,2
DA:2506,0
DA:2507,0
DA:2508,0
DA:2509,0
DA:2510,0
DA:2513,4
DA:2514,6
DA:2536,2
DA:2537,2
DA:2538,2
DA:2539,2
DA:2540,2
DA:2541,2
DA:2542,2
DA:2543,2
DA:2547,2
DA:2548,2
DA:2549,2
DA:2550,2
DA:2552,0
DA:2554,2
DA:2558,2
DA:2560,2
DA:2561,0
DA:2563,1
DA:2564,1
DA:2567,1
DA:2568,1
DA:2572,0
DA:2573,0
DA:2574,0
DA:2575,0
DA:2576,0
DA:2577,0
DA:2581,0
DA:2582,2
DA:2613,0
DA:2614,0
DA:2615,0
DA:2616,0
DA:2617,0
DA:2618,0
DA:2619,0
DA:2620,0
DA:2641,0
DA:2642,0
DA:2643,0
DA:2644,0
DA:2645,0
DA:2646,0
DA:2647,0
DA:2648,0
DA:2649,0
DA:2651,0
DA:2652,0
DA:2653,0
DA:2654,0
DA:2655,0
DA:2658,0
DA:2659,0
DA:2660,0
DA:2663,0
DA:2664,0
DA:2665,0
DA:2667,0
DA:2668,0
DA:2670,0
DA:2671,0
DA:2673,0
DA:2674,0
DA:2675,0
DA:2676,0
DA:2677,0
DA:2684,0
DA:2685,0
DA:2687,0
DA:2688,0
DA:2690,0
DA:2691,0
DA:2692,0
DA:2693,0
DA:2694,0
DA:2697,0
DA:2698,0
DA:2700,0
DA:2701,0
DA:2702,0
DA:2704,0
DA:2705,0
DA:2706,0
DA:2707,0
DA:2708,0
DA:2709,0
DA:2712,0
DA:2713,0
DA:2714,0
DA:2715,0
DA:2716,0
DA:2717,0
DA:2718,0
DA:2719,0
DA:2720,0
DA:2721,0
DA:2723,0
DA:2724,0
DA:2725,0
DA:2726,0
DA:2727,0
DA:2732,0
DA:2733,0
DA:2734,0
DA:2735,0
DA:2736,0
DA:2737,0
DA:2738,0
DA:2739,0
DA:2740,0
DA:2741,0
DA:2742,0
DA:2744,0
DA:2745,0
DA:2746,0
DA:2747,0
DA:2748,0
DA:2749,0
DA:2752,0
DA:2753,0
DA:2754,0
DA:2755,0
DA:2756,0
DA:2757,0
DA:2758,0
DA:2759,0
DA:2760,0
DA:2761,0
DA:2762,0
DA:2767,0
DA:2768,0
DA:2769,0
DA:2775,0
DA:2776,0
DA:2777,0
DA:2778,0
DA:2779,0
DA:2780,0
DA:2781,0
DA:2782,0
DA:2783,0
DA:2784,0
DA:2785,0
DA:2786,0
DA:2787,0
DA:2788,0
DA:2789,0
DA:2791,0
DA:2793,0
DA:2794,0
DA:2795,0
DA:2796,0
DA:2797,0
DA:2798,0
DA:2799,0
DA:2800,0
DA:2802,0
DA:2803,0
DA:2804,0
DA:2805,0
DA:2809,0
DA:2810,0
DA:2811,0
DA:2813,0
DA:2814,0
DA:2815,0
DA:2816,0
DA:2817,0
DA:2818,0
DA:2819,0
DA:2820,0
DA:2821,0
DA:2822,0
DA:2825,0
DA:2826,0
DA:2827,0
DA:2831,0
DA:2833,0
DA:2834,0
DA:2835,0
DA:2836,0
DA:2837,0
DA:2838,0
DA:2839,0
DA:2905,0
DA:2906,0
DA:2907,0
DA:2908,0
DA:2909,0
DA:2910,0
DA:2912,0
DA:2915,0
DA:2916,0
DA:2917,0
DA:2918,0
DA:2919,0
DA:2920,0
DA:2921,0
DA:2922,0
DA:2923,0
DA:2924,0
DA:2925,0
DA:2926,0
DA:2927,0
DA:2930,0
DA:2945,1
DA:2946,1
DA:2947,0
DA:2962,0
DA:2963,0
DA:2964,0
DA:2965,0
DA:2966,0
DA:2967,0
DA:2968,0
DA:2969,0
DA:2970,0
DA:2971,0
DA:2973,0
DA:2974,0
DA:2976,0
DA:2977,0
DA:2980,0
DA:2981,0
DA:2982,0
DA:2983,0
DA:2984,0
DA:2985,0
DA:2986,0
DA:2987,0
DA:2989,1
DA:2990,1
DA:2991,1
DA:2992,4
DA:2993,4
DA:2994,1
DA:2995,1
DA:2996,1
DA:2997,3
DA:2998,3
DA:2999,3
DA:3001,1
DA:3002,1
DA:3003,1
DA:3006,1
DA:3012,0
DA:3013,0
DA:3014,0
DA:3015,0
DA:3016,0
DA:3018,0
DA:3019,0
DA:3022,0
DA:3023,0
DA:3024,0
DA:3025,0
DA:3026,0
DA:3027,0
DA:3028,0
DA:3029,0
DA:3031,0
DA:3032,0
DA:3033,0
DA:3034,0
DA:3035,0
DA:3036,0
DA:3037,0
DA:3038,0
DA:3039,0
DA:3042,0
DA:3048,1
DA:3049,1
DA:3050,0
DA:3051,0
DA:3052,0
DA:3054,0
DA:3055,0
DA:3058,0
DA:3059,0
DA:3060,0
DA:3061,0
DA:3062,0
DA:3063,0
DA:3064,0
DA:3065,0
DA:3067,1
DA:3068,1
DA:3069,1
DA:3070,1
DA:3072,1
DA:3075,0
DA:3076,0
DA:3077,0
DA:3078,0
DA:3079,0
DA:3080,0
DA:3081,0
DA:3082,0
DA:3083,0
DA:3084,0
DA:3086,0
DA:3091,0
DA:3092,0
DA:3093,0
DA:3094,0
DA:3096,0
DA:3097,0
DA:3100,0
DA:3115,0
DA:3116,0
DA:3117,0
DA:3118,0
DA:3119,0
DA:3120,0
DA:3121,0
DA:3122,0
DA:3123,0
DA:3128,0
DA:3129,0
DA:3131,0
DA:3133,0
DA:3134,0
DA:3135,0
DA:3136,0
DA:3137,0
DA:3139,0
DA:3140,0
DA:3141,0
DA:3142,0
DA:3143,0
DA:3144,0
DA:3145,0
DA:3251,0
DA:3252,0
DA:3253,0
DA:3254,0
DA:3255,0
DA:3256,0
DA:3257,0
DA:3258,0
DA:3259,0
DA:3266,0
DA:3299,0
DA:3300,0
DA:3307,0
DA:3308,0
DA:3309,0
DA:3310,0
DA:3311,0
DA:3312,0
DA:3313,0
DA:3314,0
DA:3315,0
DA:3316,0
DA:3317,0
DA:3318,0
DA:3319,0
DA:3320,0
DA:3321,0
DA:3322,0
DA:3327,0
DA:3328,0
DA:3330,0
DA:3331,0
DA:3332,0
DA:3333,0
DA:3334,0
DA:3335,0
DA:3336,0
DA:3340,0
DA:3341,0
DA:3342,0
DA:3343,0
DA:3344,0
DA:3345,0
DA:3348,0
DA:3349,0
DA:3350,0
DA:3351,0
DA:3358,0
DA:3359,0
DA:3360,0
DA:3361,0
DA:3362,0
DA:3364,0
DA:3365,0
DA:3366,0
DA:3367,0
DA:3370,0
DA:3371,0
DA:3372,0
DA:3373,0
DA:3374,0
DA:3375,0
DA:3377,0
DA:3378,0
DA:3379,0
DA:3392,0
DA:3393,0
DA:3394,0
DA:3395,0
DA:3396,0
DA:3397,0
DA:3398,0
DA:3399,0
DA:3400,0
DA:3401,0
DA:3402,0
DA:3403,0
DA:3404,0
DA:3406,0
DA:3407,0
DA:3408,0
DA:3409,0
DA:3410,0
DA:3411,0
DA:3423,0
DA:3424,0
DA:3425,0
DA:3429,0
DA:3430,0
DA:3431,0
DA:3432,0
DA:3433,0
DA:3434,0
DA:3435,0
DA:3436,0
DA:3439,0
DA:3440,0
DA:3441,0
DA:3442,0
DA:3443,0
DA:3444,0
DA:3445,0
DA:3446,0
DA:3447,0
DA:3448,0
DA:3450,0
DA:3451,0
DA:3452,0
DA:3453,0
DA:3454,0
DA:3455,0
DA:3459,0
DA:3491,0
DA:3492,0
DA:3497,0
DA:3498,0
DA:3499,0
DA:3503,0
DA:3508,0
DA:3530,0
DA:3531,0
DA:3532,0
DA:3533,0
DA:3538,0
DA:3539,0
DA:3540,0
DA:3541,0
DA:3542,0
DA:3543,0
DA:3544,0
DA:3545,0
DA:3548,0
DA:3551,0
DA:3554,0
DA:3562,0
DA:3563,0
DA:3564,0
DA:3565,0
DA:3566,0
DA:3567,0
DA:3568,0
DA:3575,0
DA:3576,0
DA:3577,0
DA:3578,0
DA:3579,0
DA:3580,0
DA:3581,0
DA:3582,0
DA:3584,0
DA:3585,0
DA:3586,0
DA:3587,0
DA:3588,0
DA:3589,0
DA:3593,0
DA:3594,0
DA:3595,0
DA:3596,0
DA:3597,0
DA:3598,0
DA:3599,0
DA:3603,0
DA:3604,0
DA:3606,0
DA:3609,0
DA:3610,0
DA:3611,0
DA:3612,0
DA:3613,0
DA:3617,0
DA:3618,0
DA:3619,0
DA:3620,0
DA:3621,0
DA:3622,0
DA:3623,0
DA:3625,0
DA:3626,0
DA:3627,0
DA:3628,0
DA:3629,0
DA:3630,0
DA:3635,0
DA:3636,0
DA:3637,0
DA:3639,0
DA:3642,0
DA:3653,0
DA:3660,0
DA:3664,0
DA:3665,0
DA:3675,0
DA:3677,0
DA:3678,0
DA:3683,0
DA:3684,0
DA:3685,0
DA:3687,0
DA:3688,0
DA:3691,0
DA:3692,0
DA:3694,0
DA:3695,0
DA:3696,0
DA:3697,0
DA:3698,0
DA:3699,0
DA:3703,0
DA:3704,0
DA:3705,0
DA:3706,0
DA:3707,0
DA:3709,0
DA:3710,0
DA:3713,0
DA:3714,0
DA:3716,0
DA:3717,0
DA:3718,0
DA:3719,0
DA:3720,0
DA:3721,0
DA:3722,0
DA:3723,0
DA:3724,0
DA:3730,0
DA:3731,0
DA:3732,0
DA:3733,0
DA:3734,0
DA:3740,0
DA:3741,0
DA:3742,0
DA:3743,0
DA:3744,0
DA:3745,0
DA:3746,0
DA:3747,0
DA:3748,0
DA:3749,0
DA:3750,0
DA:3755,0
DA:3756,0
DA:3757,0
DA:3758,0
DA:3764,0
DA:3765,0
DA:3766,0
DA:3767,0
DA:3768,0
DA:3769,0
DA:3770,0
DA:3773,0
DA:3775,0
DA:3776,0
DA:3777,0
DA:3778,0
DA:3779,0
DA:3782,0
DA:3783,0
DA:3784,0
DA:3789,0
DA:3790,0
DA:3791,0
DA:3792,0
DA:3793,0
DA:3794,0
DA:3795,0
DA:3796,0
DA:3797,0
DA:3798,0
DA:3799,0
DA:3800,0
DA:3801,0
DA:3802,0
DA:3804,0
DA:3805,0
DA:3806,0
DA:3809,0
DA:3817,0
DA:3818,0
DA:3819,0
DA:3820,0
DA:3821,0
DA:3822,0
DA:3823,0
DA:3827,0
DA:3828,0
DA:3829,0
DA:3830,0
DA:3831,0
DA:3832,0
DA:3833,0
DA:3834,0
DA:3837,0
DA:3845,0
DA:3846,0
DA:3848,0
DA:3849,0
DA:3851,0
DA:3852,0
DA:3853,0
DA:3854,0
DA:3855,0
DA:3856,0
DA:3857,0
DA:3858,0
DA:3859,0
DA:3860,0
DA:3861,0
DA:3867,0
DA:3868,0
DA:3869,0
DA:3871,0
DA:3877,0
DA:3878,0
DA:3879,0
DA:3881,0
DA:3882,0
DA:3883,0
DA:3884,0
DA:3885,0
DA:3886,0
DA:3887,0
DA:3899,0
DA:3900,0
DA:3901,0
DA:3902,0
DA:3903,0
DA:3907,0
DA:3908,0
DA:3909,0
DA:3910,0
DA:3911,0
DA:3912,0
DA:3913,0
DA:3914,0
DA:3915,0
DA:3916,0
DA:3917,0
DA:3921,0
DA:3922,0
DA:3923,0
DA:3931,0
DA:3932,0
DA:3933,0
DA:3934,0
DA:3935,0
DA:3936,0
DA:3937,0
DA:3938,0
DA:3939,0
DA:3948,0
DA:3949,0
DA:3951,0
DA:3952,0
DA:3953,0
DA:3954,0
DA:3955,0
DA:3956,0
DA:3957,0
DA:3960,0
DA:3961,0
DA:3962,0
DA:3963,0
DA:3964,0
DA:3965,0
DA:3966,0
DA:3967,0
DA:3968,0
DA:3969,0
DA:3970,0
DA:3971,0
DA:3972,0
DA:3974,0
DA:3975,0
DA:3976,0
DA:3980,0
DA:3981,0
DA:3985,0
DA:3986,0
DA:3987,0
DA:3988,0
DA:3989,0
DA:3990,0
DA:3991,0
DA:3992,0
DA:3993,0
DA:3994,0
DA:4008,0
DA:4009,0
DA:4010,0
DA:4011,0
DA:4012,0
DA:4013,0
DA:4014,0
DA:4015,0
DA:4016,0
DA:4017,0
DA:4018,0
DA:4019,0
DA:4020,0
DA:4023,0
DA:4036,0
DA:4037,0
DA:4038,0
DA:4039,0
DA:4040,0
DA:4041,0
DA:4042,0
DA:4047,0
DA:4053,0
DA:4055,0
DA:4058,0
DA:4059,0
DA:4060,0
DA:4061,0
DA:4064,0
DA:4065,0
DA:4066,0
DA:4070,0
DA:4071,0
DA:4072,0
DA:4115,9
DA:4116,7
DA:4117,2
DA:4118,2
DA:4119,0
DA:4121,3
DA:4122,3
DA:4123,1
DA:4125,2
DA:4128,4
DA:4130,9
DA:4138,2
DA:4139,2
DA:4140,1
DA:4141,1
DA:4142,1
DA:4143,2
DA:4189,6
DA:4190,6
DA:4191,1
DA:4192,2
DA:4193,3
DA:4195,6
DA:4203,4
DA:4204,4
DA:4205,3
DA:4206,1
DA:4207,0
DA:4209,3
DA:4210,3
DA:4211,2
DA:4212,1
DA:4213,0
DA:4215,2
DA:4216,4
DA:4223,1
DA:4224,1
DA:4226,1
DA:4227,1
DA:4228,1
DA:4229,1
DA:4230,0
DA:4232,1
DA:4233,1
DA:4234,1
DA:4235,1
DA:4236,1
DA:4237,2
DA:4239,1
DA:4240,1
DA:4241,0
DA:4243,1
DA:4246,1
DA:4251,1
DA:4252,1
DA:4253,1
DA:4254,1
DA:4255,1
DA:4256,1
DA:4257,1
DA:4258,1
DA:4259,1
DA:4260,1
DA:4261,1
DA:4262,1
DA:4263,1
DA:4264,1
DA:4287,1
DA:4288,1
DA:4289,1
DA:4290,1
DA:4291,1
DA:4292,1
DA:4293,1
DA:4294,1
DA:4295,1
DA:4296,1
DA:4297,1
DA:4303,1
DA:4305,1
DA:4306,1
DA:4323,1
DA:4329,1
DA:4333,1
DA:4334,1
DA:4335,1
DA:4336,1
DA:4337,1
DA:4338,1
DA:4339,1
DA:4340,1
DA:4341,1
DA:4342,1
DA:4343,1
DA:4344,1
DA:4345,1
DA:4346,1
DA:4347,1
DA:4348,1
DA:4349,1
DA:4350,1
DA:4351,1
DA:4352,1
DA:4353,1
DA:4354,1
DA:4360,1
DA:4361,1
DA:4362,1
DA:4363,1
DA:4364,1
DA:4365,1
DA:4366,1
DA:4367,1
DA:4368,1
DA:4369,1
DA:4370,1
DA:4371,1
DA:4372,1
DA:4373,1
DA:4374,1
DA:4375,1
DA:4376,1
DA:4377,1
DA:4378,1
DA:4379,1
DA:4380,1
DA:4381,1
DA:4389,1
DA:4392,1
DA:4393,1
DA:4394,1
DA:4395,1
DA:4396,1
DA:4397,1
DA:4398,1
DA:4400,1
DA:4401,1
DA:4402,1
DA:4403,1
DA:4404,1
DA:4405,1
DA:4406,1
DA:4407,1
DA:4409,1
DA:4410,1
DA:4411,1
DA:4412,1
DA:4413,1
DA:4416,1
DA:4422,1
DA:4423,1
DA:4424,1
DA:4425,1
DA:4426,1
DA:4427,1
DA:4428,1
DA:4429,1
DA:4430,1
DA:4431,1
DA:4432,1
DA:4433,1
DA:4434,1
DA:4435,1
DA:4437,1
DA:4438,1
DA:4439,1
DA:4440,1
DA:4441,1
DA:4442,1
DA:4443,1
DA:4446,1
DA:4449,1
DA:4450,1
DA:4451,1
DA:4452,1
DA:4453,1
DA:4455,1
DA:4456,1
DA:4457,1
DA:4458,1
DA:4459,1
DA:4461,1
DA:4463,1
DA:4464,1
DA:4465,1
DA:4467,1
DA:4468,1
DA:4469,1
DA:4476,1
DA:4477,4
DA:4478,1
DA:4479,1
DA:4480,1
DA:4481,1
DA:4482,1
DA:4483,4
DA:4484,4
DA:4485,4
DA:4486,4
DA:4487,4
DA:4489,1
DA:4506,1
DA:4508,1
DA:4509,1
DA:4510,1
DA:4511,0
DA:4513,1
DA:4514,1
DA:4515,1
DA:4516,2
DA:4519,1
DA:4520,1
DA:4521,1
DA:4522,0
DA:4524,1
DA:4525,1
DA:4526,1
DA:4533,1
DA:4534,1
DA:4535,1
DA:4536,3
DA:4537,3
DA:4538,3
DA:4539,3
DA:4540,3
DA:4541,0
DA:4543,3
DA:4544,3
DA:4546,1
DA:4547,1
DA:4552,1
DA:4553,1
DA:4554,1
DA:4555,1
DA:4556,1
DA:4557,1
DA:4558,2
DA:4559,1
DA:4560,1
DA:4561,1
DA:4562,1
DA:4563,1
DA:4564,1
DA:4565,0
DA:4567,1
DA:4568,1
DA:4569,1
DA:4570,1
DA:4573,1
DA:4582,1
DA:4587,1
DA:4588,1
DA:4589,1
DA:4590,1
DA:4591,1
DA:4592,1
DA:4593,1
DA:4594,1
DA:4595,1
DA:4596,1
DA:4597,1
DA:4598,1
DA:4599,1
DA:4600,1
DA:4601,1
DA:4602,1
DA:4603,1
DA:4604,1
DA:4605,1
DA:4606,1
DA:4607,1
DA:4610,1
DA:4611,1
DA:4612,1
DA:4613,1
DA:4614,1
DA:4615,1
DA:4616,1
DA:4617,1
DA:4618,1
DA:4619,1
DA:4620,1
DA:4621,1
DA:4627,1
DA:4628,1
DA:4629,1
DA:4630,1
DA:4631,1
DA:4632,1
DA:4633,1
DA:4634,1
DA:4635,1
DA:4636,1
DA:4642,1
DA:4643,1
DA:4644,1
DA:4645,1
DA:4646,1
DA:4647,1
DA:4648,1
DA:4649,1
DA:4650,1
DA:4651,1
DA:4652,1
DA:4656,1
DA:4657,1
DA:4658,1
DA:4659,1
DA:4660,1
DA:4661,1
DA:4662,1
DA:4663,1
DA:4665,1
DA:4666,1
DA:4672,1
DA:4673,1
DA:4674,1
DA:4675,1
DA:4676,1
DA:4680,1
DA:4681,1
DA:4683,1
DA:4684,1
DA:4685,1
DA:4692,1
DA:4696,1
DA:4697,1
DA:4698,1
DA:4699,1
DA:4700,1
DA:4701,1
DA:4702,1
DA:4703,1
DA:4704,1
DA:4705,1
DA:4706,1
DA:4707,1
DA:4708,1
DA:4709,1
DA:4710,1
DA:4711,1
DA:4712,1
DA:4713,1
DA:4714,1
DA:4716,1
DA:4718,1
DA:4719,1
DA:4720,1
DA:4723,1
DA:4724,1
DA:4728,1
DA:4729,1
DA:4734,1
DA:4735,1
DA:4736,1
DA:4737,1
DA:4738,1
DA:4739,1
DA:4740,1
DA:4741,1
DA:4742,1
DA:4743,1
DA:4744,1
DA:4745,1
DA:4746,1
DA:4747,1
DA:4748,1
DA:4757,1
DA:4758,1
DA:4759,1
DA:4760,1
DA:4761,1
DA:4762,1
DA:4763,1
DA:4766,1
DA:4769,1
DA:4770,1
DA:4771,1
DA:4772,1
DA:4773,1
DA:4774,1
DA:4775,1
DA:4776,1
DA:4777,1
DA:4778,1
DA:4779,1
DA:4780,1
DA:4782,1
DA:4783,1
DA:4784,3
DA:4785,2
DA:4786,1
DA:4787,1
DA:4788,0
DA:4791,1
DA:4793,1
DA:4794,1
DA:4795,0
DA:4797,1
DA:4798,1
DA:4799,1
DA:4807,1
DA:4808,1
DA:4809,1
DA:4810,1
DA:4811,1
DA:4812,1
DA:4813,1
DA:4814,1
DA:4815,1
DA:4816,1
DA:4817,1
DA:4818,1
DA:4819,1
DA:4820,1
DA:4821,1
DA:4822,1
DA:4823,1
DA:4824,1
DA:4825,3
DA:4826,2
DA:4827,1
DA:4828,1
DA:4829,0
DA:4832,1
DA:4833,1
DA:4834,1
DA:4835,0
DA:4837,1
DA:4838,1
DA:4839,1
DA:4843,1
DA:4844,1
DA:4848,1
DA:4849,1
DA:4850,1
DA:4851,1
DA:4852,0
DA:4854,1
DA:4855,1
DA:4856,1
DA:4857,1
DA:4860,1
DA:4865,1
DA:4866,1
DA:4867,1
DA:4869,1
DA:4870,1
DA:4871,1
DA:4872,1
DA:4873,1
DA:4874,1
DA:4875,1
DA:4881,1
DA:4883,1
DA:4884,1
DA:4885,1
DA:4889,1
DA:4890,1
DA:4891,1
DA:4895,1
DA:4896,1
DA:4897,1
DA:4899,1
DA:4900,1
DA:4901,1
DA:4902,1
DA:4905,1
DA:4911,1
DA:4912,1
DA:4913,1
DA:4914,1
DA:4915,1
DA:4916,1
DA:4917,1
DA:4918,1
DA:4927,1
DA:4929,1
DA:4930,1
DA:4931,1
DA:4932,1
DA:4933,1
DA:4935,1
DA:4936,1
DA:4937,1
DA:4938,1
DA:4939,1
DA:4940,1
DA:4941,1
DA:4942,1
DA:4948,1
DA:4949,1
DA:4950,1
DA:4951,1
DA:4952,1
DA:4953,1
DA:4954,1
DA:4955,1
DA:4956,1
DA:4957,1
DA:4958,1
DA:4959,1
DA:4960,1
DA:4964,1
DA:4965,1
DA:4966,1
DA:4967,1
DA:4968,1
DA:4969,1
DA:4974,1
DA:4975,1
DA:4976,1
DA:4982,1
DA:4983,1
DA:4984,1
DA:4990,1
DA:4991,1
DA:4992,1
DA:4993,1
DA:4994,1
DA:4995,1
DA:4998,1
DA:5006,1
DA:5010,1
DA:5011,1
DA:5012,1
DA:5013,1
DA:5016,1
DA:5017,1
DA:5018,1
DA:5019,1
DA:5021,1
DA:5022,1
DA:5024,1
DA:5025,1
DA:5026,1
DA:5027,1
DA:5028,1
DA:5032,1
DA:5039,1
DA:5040,1
DA:5046,1
DA:5047,3
DA:5048,3
DA:5049,3
DA:5050,3
DA:5051,3
DA:5052,0
DA:5055,1
DA:5062,1
DA:5063,1
DA:5066,1
DA:5067,1
DA:5075,1
DA:5081,1
DA:5082,1
DA:5083,1
DA:5086,1
DA:5087,1
DA:5089,1
DA:5091,1
DA:5092,1
DA:5093,1
DA:5094,0
DA:5097,0
DA:5101,1
DA:5102,1
DA:5109,1
DA:5110,1
DA:5111,1
DA:5112,1
DA:5113,1
DA:5122,1
DA:5123,1
DA:5131,1
DA:5132,1
DA:5144,1
DA:5145,1
DA:5146,1
DA:5147,1
DA:5148,1
DA:5151,1
DA:5154,1
DA:5155,1
DA:5159,1
DA:5160,1
DA:5164,1
DA:5165,1
DA:5169,1
DA:5181,1
DA:5183,1
DA:5190,1
DA:5191,1
DA:5198,1
DA:5199,1
DA:5203,1
DA:5204,1
DA:5212,1
DA:5213,1
DA:5216,1
DA:5217,1
DA:5220,1
DA:5234,1
DA:5235,1
DA:5236,1
DA:5237,1
DA:5238,1
DA:5239,1
DA:5240,1
DA:5241,1
DA:5242,1
DA:5243,1
DA:5245,1
DA:5246,1
DA:5247,1
DA:5248,1
DA:5249,1
DA:5250,1
DA:5251,1
DA:5252,1
DA:5253,1
DA:5254,1
DA:5255,1
DA:5264,1
DA:5265,1
DA:5266,1
DA:5267,1
DA:5268,1
DA:5269,1
DA:5270,1
DA:5271,1
DA:5272,1
DA:5273,1
DA:5274,1
DA:5275,1
DA:5277,1
DA:5278,1
DA:5279,1
DA:5280,1
DA:5281,1
DA:5282,1
DA:5283,1
DA:5284,1
DA:5285,1
DA:5286,1
DA:5287,1
DA:5288,1
DA:5289,1
DA:5290,1
DA:5291,1
DA:5292,1
DA:5293,1
DA:5294,1
DA:5295,1
DA:5296,1
BRF:0
BRH:0
LF:2434
LH:1073
end_of_record
SF:/home/ubuntu/Code/ExpressGateway/crates/lb-quic/src/lib.rs
FN:552,_RINvCsjkTxOr1VN5_7lb_quic5driveNCNCNvB2_16roundtrip_stream00uEB2_
FN:552,_RINvCsjkTxOr1VN5_7lb_quic5driveNCNCNvB2_18roundtrip_datagram00uEB2_
FN:552,_RINvCsjkTxOr1VN5_7lb_quic5driveNCNCNvB2_18server_stream_task00TyINtNtCs2TrN21NlPz_5alloc3vec3VechEEEB2_
FN:552,_RINvCsjkTxOr1VN5_7lb_quic5driveNCNCNvB2_20server_datagram_task00INtNtCs2TrN21NlPz_5alloc3vec3VechEEB2_
FN:560,_RNCINvCsjkTxOr1VN5_7lb_quic5driveNCNCNvB4_16roundtrip_stream00uE0B4_
FN:560,_RNCINvCsjkTxOr1VN5_7lb_quic5driveNCNCNvB4_18roundtrip_datagram00uE0B4_
FN:560,_RNCINvCsjkTxOr1VN5_7lb_quic5driveNCNCNvB4_18server_stream_task00TyINtNtCs2TrN21NlPz_5alloc3vec3VechEEE0B4_
FN:560,_RNCINvCsjkTxOr1VN5_7lb_quic5driveNCNCNvB4_20server_datagram_task00INtNtCs2TrN21NlPz_5alloc3vec3VechEE0B4_
FN:588,_RNCNCINvCsjkTxOr1VN5_7lb_quic5driveNCNCNvB6_16roundtrip_stream00uE00B6_
FN:588,_RNCNCINvCsjkTxOr1VN5_7lb_quic5driveNCNCNvB6_18roundtrip_datagram00uE00B6_
FN:588,_RNCNCINvCsjkTxOr1VN5_7lb_quic5driveNCNCNvB6_18server_stream_task00TyINtNtCs2TrN21NlPz_5alloc3vec3VechEEE00B6_
FN:588,_RNCNCINvCsjkTxOr1VN5_7lb_quic5driveNCNCNvB6_20server_datagram_task00INtNtCs2TrN21NlPz_5alloc3vec3VechEE00B6_
FN:849,_RNCNCNvCsjkTxOr1VN5_7lb_quic16roundtrip_stream00B5_
FN:864,_RNCNCNvCsjkTxOr1VN5_7lb_quic16roundtrip_stream0s_0B5_
FN:773,_RNCNCNvCsjkTxOr1VN5_7lb_quic18roundtrip_datagram00B5_
FN:788,_RNCNCNvCsjkTxOr1VN5_7lb_quic18roundtrip_datagram0s_0B5_
FN:698,_RNCNCNvCsjkTxOr1VN5_7lb_quic18server_stream_task00B5_
FN:671,_RNCNCNvCsjkTxOr1VN5_7lb_quic20server_datagram_task00B5_
FN:491,_RNCNvCsjkTxOr1VN5_7lb_quic11random_scid0B3_
FN:457,_RNCNvCsjkTxOr1VN5_7lb_quic12build_config0B3_
FN:471,_RNCNvCsjkTxOr1VN5_7lb_quic12build_configs0_0B3_
FN:460,_RNCNvCsjkTxOr1VN5_7lb_quic12build_configs_0B3_
FN:654,_RNCNvCsjkTxOr1VN5_7lb_quic14graceful_close0B3_
FN:814,_RNCNvCsjkTxOr1VN5_7lb_quic16roundtrip_stream0B3_
FN:616,_RNCNvCsjkTxOr1VN5_7lb_quic17server_accept_one0B3_
FN:742,_RNCNvCsjkTxOr1VN5_7lb_quic18roundtrip_datagram0B3_
FN:696,_RNCNvCsjkTxOr1VN5_7lb_quic18server_stream_task0B3_
FN:669,_RNCNvCsjkTxOr1VN5_7lb_quic20server_datagram_task0B3_
FN:533,_RNCNvCsjkTxOr1VN5_7lb_quic21flush_out_best_effort0B3_
FN:511,_RNCNvCsjkTxOr1VN5_7lb_quic9flush_out0B3_
FN:358,_RNCNvMs_CsjkTxOr1VN5_7lb_quicNtB6_12QuicEndpoint18client_on_loopback0B6_
FN:335,_RNCNvMs_CsjkTxOr1VN5_7lb_quicNtB6_12QuicEndpoint18server_on_loopback0B6_
FN:810,_RNvCsjkTxOr1VN5_7lb_quic16roundtrip_stream
FN:738,_RNvCsjkTxOr1VN5_7lb_quic18roundtrip_datagram
FN:373,_RNvMs_CsjkTxOr1VN5_7lb_quicNtB4_12QuicEndpoint10local_addr
FN:410,_RNvMs_CsjkTxOr1VN5_7lb_quicNtB4_12QuicEndpoint12retry_signer
FN:417,_RNvMs_CsjkTxOr1VN5_7lb_quicNtB4_12QuicEndpoint13replay_filter
FN:388,_RNvMs_CsjkTxOr1VN5_7lb_quicNtB4_12QuicEndpoint17with_retry_signer
FN:358,_RNvMs_CsjkTxOr1VN5_7lb_quicNtB4_12QuicEndpoint18client_on_loopback
FN:332,_RNvMs_CsjkTxOr1VN5_7lb_quicNtB4_12QuicEndpoint18server_on_loopback
FN:402,_RNvMs_CsjkTxOr1VN5_7lb_quicNtB4_12QuicEndpoint18with_replay_filter
FN:311,_RNvXCsjkTxOr1VN5_7lb_quicNtB2_12QuicEndpointNtNtCslfAf2Mv2Tp5_4core3fmt5Debug3fmt
FN:899,_RNvNtCsjkTxOr1VN5_7lb_quic5testss_17stream_forward_ok
FN:879,_RNvNtCsjkTxOr1VN5_7lb_quic5testss_19datagram_forward_ok
FN:911,_RNvNtCsjkTxOr1VN5_7lb_quic5testss_21stream_empty_rejected
FN:890,_RNvNtCsjkTxOr1VN5_7lb_quic5testss_23datagram_empty_rejected
FN:487,_RNvCsjkTxOr1VN5_7lb_quic11random_scid
FN:436,_RNvCsjkTxOr1VN5_7lb_quic12build_config
FN:274,_RNvCsjkTxOr1VN5_7lb_quic14forward_stream
FN:654,_RNvCsjkTxOr1VN5_7lb_quic14graceful_close
FN:261,_RNvCsjkTxOr1VN5_7lb_quic16forward_datagram
FN:612,_RNvCsjkTxOr1VN5_7lb_quic17server_accept_one
FN:692,_RNvCsjkTxOr1VN5_7lb_quic18server_stream_task
FN:665,_RNvCsjkTxOr1VN5_7lb_quic20server_datagram_task
FN:529,_RNvCsjkTxOr1VN5_7lb_quic21flush_out_best_effort
FN:186,_RNvCsjkTxOr1VN5_7lb_quic6prefix
FN:507,_RNvCsjkTxOr1VN5_7lb_quic9flush_out
FNDA:0,_RINvCsjkTxOr1VN5_7lb_quic5driveNCNCNvB2_16roundtrip_stream00uEB2_
FNDA:0,_RINvCsjkTxOr1VN5_7lb_quic5driveNCNCNvB2_18roundtrip_datagram00uEB2_
FNDA:0,_RINvCsjkTxOr1VN5_7lb_quic5driveNCNCNvB2_18server_stream_task00TyINtNtCs2TrN21NlPz_5alloc3vec3VechEEEB2_
FNDA:0,_RINvCsjkTxOr1VN5_7lb_quic5driveNCNCNvB2_20server_datagram_task00INtNtCs2TrN21NlPz_5alloc3vec3VechEEB2_
FNDA:0,_RNCINvCsjkTxOr1VN5_7lb_quic5driveNCNCNvB4_16roundtrip_stream00uE0B4_
FNDA:0,_RNCINvCsjkTxOr1VN5_7lb_quic5driveNCNCNvB4_18roundtrip_datagram00uE0B4_
FNDA:0,_RNCINvCsjkTxOr1VN5_7lb_quic5driveNCNCNvB4_18server_stream_task00TyINtNtCs2TrN21NlPz_5alloc3vec3VechEEE0B4_
FNDA:0,_RNCINvCsjkTxOr1VN5_7lb_quic5driveNCNCNvB4_20server_datagram_task00INtNtCs2TrN21NlPz_5alloc3vec3VechEE0B4_
FNDA:0,_RNCNCINvCsjkTxOr1VN5_7lb_quic5driveNCNCNvB6_16roundtrip_stream00uE00B6_
FNDA:0,_RNCNCINvCsjkTxOr1VN5_7lb_quic5driveNCNCNvB6_18roundtrip_datagram00uE00B6_
FNDA:0,_RNCNCINvCsjkTxOr1VN5_7lb_quic5driveNCNCNvB6_18server_stream_task00TyINtNtCs2TrN21NlPz_5alloc3vec3VechEEE00B6_
FNDA:0,_RNCNCINvCsjkTxOr1VN5_7lb_quic5driveNCNCNvB6_20server_datagram_task00INtNtCs2TrN21NlPz_5alloc3vec3VechEE00B6_
FNDA:0,_RNCNCNvCsjkTxOr1VN5_7lb_quic16roundtrip_stream00B5_
FNDA:0,_RNCNCNvCsjkTxOr1VN5_7lb_quic16roundtrip_stream0s_0B5_
FNDA:0,_RNCNCNvCsjkTxOr1VN5_7lb_quic18roundtrip_datagram00B5_
FNDA:0,_RNCNCNvCsjkTxOr1VN5_7lb_quic18roundtrip_datagram0s_0B5_
FNDA:0,_RNCNCNvCsjkTxOr1VN5_7lb_quic18server_stream_task00B5_
FNDA:0,_RNCNCNvCsjkTxOr1VN5_7lb_quic20server_datagram_task00B5_
FNDA:0,_RNCNvCsjkTxOr1VN5_7lb_quic11random_scid0B3_
FNDA:0,_RNCNvCsjkTxOr1VN5_7lb_quic12build_config0B3_
FNDA:0,_RNCNvCsjkTxOr1VN5_7lb_quic12build_configs0_0B3_
FNDA:0,_RNCNvCsjkTxOr1VN5_7lb_quic12build_configs_0B3_
FNDA:0,_RNCNvCsjkTxOr1VN5_7lb_quic14graceful_close0B3_
FNDA:0,_RNCNvCsjkTxOr1VN5_7lb_quic16roundtrip_stream0B3_
FNDA:0,_RNCNvCsjkTxOr1VN5_7lb_quic17server_accept_one0B3_
FNDA:0,_RNCNvCsjkTxOr1VN5_7lb_quic18roundtrip_datagram0B3_
FNDA:0,_RNCNvCsjkTxOr1VN5_7lb_quic18server_stream_task0B3_
FNDA:0,_RNCNvCsjkTxOr1VN5_7lb_quic20server_datagram_task0B3_
FNDA:0,_RNCNvCsjkTxOr1VN5_7lb_quic21flush_out_best_effort0B3_
FNDA:0,_RNCNvCsjkTxOr1VN5_7lb_quic9flush_out0B3_
FNDA:0,_RNCNvMs_CsjkTxOr1VN5_7lb_quicNtB6_12QuicEndpoint18client_on_loopback0B6_
FNDA:0,_RNCNvMs_CsjkTxOr1VN5_7lb_quicNtB6_12QuicEndpoint18server_on_loopback0B6_
FNDA:0,_RNvCsjkTxOr1VN5_7lb_quic16roundtrip_stream
FNDA:0,_RNvCsjkTxOr1VN5_7lb_quic18roundtrip_datagram
FNDA:0,_RNvMs_CsjkTxOr1VN5_7lb_quicNtB4_12QuicEndpoint10local_addr
FNDA:0,_RNvMs_CsjkTxOr1VN5_7lb_quicNtB4_12QuicEndpoint12retry_signer
FNDA:0,_RNvMs_CsjkTxOr1VN5_7lb_quicNtB4_12QuicEndpoint13replay_filter
FNDA:0,_RNvMs_CsjkTxOr1VN5_7lb_quicNtB4_12QuicEndpoint17with_retry_signer
FNDA:0,_RNvMs_CsjkTxOr1VN5_7lb_quicNtB4_12QuicEndpoint18client_on_loopback
FNDA:0,_RNvMs_CsjkTxOr1VN5_7lb_quicNtB4_12QuicEndpoint18server_on_loopback
FNDA:0,_RNvMs_CsjkTxOr1VN5_7lb_quicNtB4_12QuicEndpoint18with_replay_filter
FNDA:0,_RNvXCsjkTxOr1VN5_7lb_quicNtB2_12QuicEndpointNtNtCslfAf2Mv2Tp5_4core3fmt5Debug3fmt
FNDA:1,_RNvNtCsjkTxOr1VN5_7lb_quic5testss_17stream_forward_ok
FNDA:1,_RNvNtCsjkTxOr1VN5_7lb_quic5testss_19datagram_forward_ok
FNDA:1,_RNvNtCsjkTxOr1VN5_7lb_quic5testss_21stream_empty_rejected
FNDA:1,_RNvNtCsjkTxOr1VN5_7lb_quic5testss_23datagram_empty_rejected
FNDA:0,_RNvCsjkTxOr1VN5_7lb_quic11random_scid
FNDA:0,_RNvCsjkTxOr1VN5_7lb_quic12build_config
FNDA:2,_RNvCsjkTxOr1VN5_7lb_quic14forward_stream
FNDA:0,_RNvCsjkTxOr1VN5_7lb_quic14graceful_close
FNDA:2,_RNvCsjkTxOr1VN5_7lb_quic16forward_datagram
FNDA:0,_RNvCsjkTxOr1VN5_7lb_quic17server_accept_one
FNDA:0,_RNvCsjkTxOr1VN5_7lb_quic18server_stream_task
FNDA:0,_RNvCsjkTxOr1VN5_7lb_quic20server_datagram_task
FNDA:0,_RNvCsjkTxOr1VN5_7lb_quic21flush_out_best_effort
FNDA:0,_RNvCsjkTxOr1VN5_7lb_quic6prefix
FNDA:0,_RNvCsjkTxOr1VN5_7lb_quic9flush_out
FNF:48
FNH:6
DA:186,0
DA:187,0
DA:188,0
DA:261,2
DA:262,2
DA:263,1
DA:264,1
DA:265,1
DA:266,2
DA:274,2
DA:275,2
DA:276,1
DA:277,1
DA:278,1
DA:279,2
DA:311,0
DA:312,0
DA:313,0
DA:314,0
DA:316,0
DA:317,0
DA:318,0
DA:319,0
DA:320,0
DA:332,0
DA:333,0
DA:334,0
DA:335,0
DA:336,0
DA:337,0
DA:338,0
DA:339,0
DA:340,0
DA:341,0
DA:342,0
DA:343,0
DA:344,0
DA:345,0
DA:346,0
DA:347,0
DA:348,0
DA:349,0
DA:358,0
DA:359,0
DA:360,0
DA:361,0
DA:362,0
DA:363,0
DA:364,0
DA:365,0
DA:366,0
DA:367,0
DA:368,0
DA:369,0
DA:373,0
DA:374,0
DA:375,0
DA:388,0
DA:389,0
DA:390,0
DA:391,0
DA:402,0
DA:403,0
DA:404,0
DA:405,0
DA:410,0
DA:411,0
DA:412,0
DA:417,0
DA:418,0
DA:419,0
DA:436,0
DA:437,0
DA:438,0
DA:439,0
DA:440,0
DA:441,0
DA:442,0
DA:443,0
DA:444,0
DA:445,0
DA:446,0
DA:447,0
DA:448,0
DA:449,0
DA:450,0
DA:452,0
DA:453,0
DA:455,0
DA:456,0
DA:457,0
DA:458,0
DA:459,0
DA:460,0
DA:461,0
DA:462,0
DA:468,0
DA:469,0
DA:470,0
DA:471,0
DA:472,0
DA:478,0
DA:481,0
DA:482,0
DA:487,0
DA:488,0
DA:489,0
DA:490,0
DA:491,0
DA:492,0
DA:493,0
DA:494,0
DA:495,0
DA:496,0
DA:497,0
DA:498,0
DA:499,0
DA:500,0
DA:501,0
DA:502,0
DA:503,0
DA:504,0
DA:507,0
DA:508,0
DA:509,0
DA:510,0
DA:511,0
DA:513,0
DA:514,0
DA:515,0
DA:517,0
DA:518,0
DA:519,0
DA:521,0
DA:522,0
DA:525,0
DA:529,0
DA:530,0
DA:531,0
DA:532,0
DA:533,0
DA:535,0
DA:536,0
DA:537,0
DA:539,0
DA:540,0
DA:541,0
DA:543,0
DA:546,0
DA:552,0
DA:553,0
DA:554,0
DA:555,0
DA:556,0
DA:557,0
DA:558,0
DA:559,0
DA:560,0
DA:561,0
DA:562,0
DA:563,0
DA:566,0
DA:567,0
DA:568,0
DA:569,0
DA:572,0
DA:573,0
DA:574,0
DA:575,0
DA:576,0
DA:577,0
DA:578,0
DA:579,0
DA:580,0
DA:583,0
DA:584,0
DA:585,0
DA:587,0
DA:588,0
DA:590,0
DA:591,0
DA:592,0
DA:593,0
DA:594,0
DA:595,0
DA:596,0
DA:597,0
DA:598,0
DA:601,0
DA:602,0
DA:603,0
DA:607,0
DA:612,0
DA:613,0
DA:614,0
DA:615,0
DA:616,0
DA:617,0
DA:618,0
DA:619,0
DA:621,0
DA:622,0
DA:623,0
DA:624,0
DA:626,0
DA:627,0
DA:628,0
DA:629,0
DA:630,0
DA:631,0
DA:632,0
DA:633,0
DA:634,0
DA:635,0
DA:636,0
DA:640,0
DA:641,0
DA:642,0
DA:644,0
DA:645,0
DA:649,0
DA:650,0
DA:654,0
DA:656,0
DA:657,0
DA:659,0
DA:660,0
DA:661,0
DA:665,0
DA:666,0
DA:667,0
DA:668,0
DA:669,0
DA:670,0
DA:671,0
DA:672,0
DA:673,0
DA:674,0
DA:675,0
DA:676,0
DA:677,0
DA:678,0
DA:679,0
DA:681,0
DA:682,0
DA:684,0
DA:685,0
DA:686,0
DA:687,0
DA:688,0
DA:692,0
DA:693,0
DA:694,0
DA:695,0
DA:696,0
DA:697,0
DA:698,0
DA:699,0
DA:700,0
DA:701,0
DA:702,0
DA:703,0
DA:705,0
DA:706,0
DA:708,0
DA:709,0
DA:710,0
DA:711,0
DA:712,0
DA:713,0
DA:714,0
DA:716,0
DA:717,0
DA:720,0
DA:721,0
DA:722,0
DA:723,0
DA:724,0
DA:738,0
DA:739,0
DA:740,0
DA:741,0
DA:742,0
DA:743,0
DA:744,0
DA:745,0
DA:747,0
DA:748,0
DA:750,0
DA:751,0
DA:752,0
DA:753,0
DA:754,0
DA:755,0
DA:758,0
DA:759,0
DA:760,0
DA:761,0
DA:762,0
DA:763,0
DA:764,0
DA:765,0
DA:766,0
DA:767,0
DA:768,0
DA:769,0
DA:771,0
DA:772,0
DA:773,0
DA:774,0
DA:775,0
DA:776,0
DA:777,0
DA:778,0
DA:779,0
DA:780,0
DA:781,0
DA:782,0
DA:783,0
DA:784,0
DA:786,0
DA:787,0
DA:788,0
DA:789,0
DA:791,0
DA:792,0
DA:793,0
DA:794,0
DA:795,0
DA:810,0
DA:811,0
DA:812,0
DA:813,0
DA:814,0
DA:815,0
DA:816,0
DA:817,0
DA:819,0
DA:820,0
DA:822,0
DA:823,0
DA:824,0
DA:825,0
DA:826,0
DA:827,0
DA:830,0
DA:831,0
DA:832,0
DA:833,0
DA:834,0
DA:835,0
DA:836,0
DA:837,0
DA:838,0
DA:839,0
DA:840,0
DA:841,0
DA:846,0
DA:847,0
DA:848,0
DA:849,0
DA:850,0
DA:851,0
DA:852,0
DA:853,0
DA:854,0
DA:855,0
DA:856,0
DA:857,0
DA:858,0
DA:859,0
DA:860,0
DA:862,0
DA:863,0
DA:864,0
DA:865,0
DA:867,0
DA:868,0
DA:869,0
DA:870,0
DA:871,0
DA:872,0
DA:879,1
DA:880,1
DA:881,1
DA:882,1
DA:883,1
DA:884,1
DA:885,1
DA:886,1
DA:887,1
DA:890,1
DA:891,1
DA:892,1
DA:893,1
DA:894,1
DA:895,1
DA:896,1
DA:899,1
DA:900,1
DA:901,1
DA:902,1
DA:903,1
DA:904,1
DA:905,1
DA:906,1
DA:907,1
DA:908,1
DA:911,1
DA:912,1
DA:913,1
DA:914,1
DA:915,1
DA:916,1
DA:917,1
DA:918,1
BRF:0
BRH:0
LF:437
LH:46
end_of_record
SF:/home/ubuntu/Code/ExpressGateway/crates/lb-quic/src/listener.rs
FN:137,_RINvMs_NtCsjkTxOr1VN5_7lb_quic8listenerNtB5_18QuicListenerParams15with_h3_backendpEB7_
FN:209,_RNCNCNvMs0_NtCsjkTxOr1VN5_7lb_quic8listenerNtB9_12QuicListener5spawn00Bb_
FN:246,_RNCNCNvMs0_NtCsjkTxOr1VN5_7lb_quic8listenerNtB9_12QuicListener5spawn0s0_0Bb_
FN:214,_RNCNCNvMs0_NtCsjkTxOr1VN5_7lb_quic8listenerNtB9_12QuicListener5spawn0s_0Bb_
FN:180,_RNCNvMs0_NtCsjkTxOr1VN5_7lb_quic8listenerNtB7_12QuicListener5spawn0B9_
FN:315,_RNCNvNtCsjkTxOr1VN5_7lb_quic8listener29load_or_generate_retry_secret0B5_
FN:264,_RNvMs0_NtCsjkTxOr1VN5_7lb_quic8listenerNtB5_12QuicListener10local_addr
FN:276,_RNvMs0_NtCsjkTxOr1VN5_7lb_quic8listenerNtB5_12QuicListener12replay_guard
FN:270,_RNvMs0_NtCsjkTxOr1VN5_7lb_quic8listenerNtB5_12QuicListener12retry_signer
FN:177,_RNvMs0_NtCsjkTxOr1VN5_7lb_quic8listenerNtB5_12QuicListener5spawn
FN:282,_RNvMs0_NtCsjkTxOr1VN5_7lb_quic8listenerNtB5_12QuicListener8shutdown
FN:127,_RNvMs_NtCsjkTxOr1VN5_7lb_quic8listenerNtB4_18QuicListenerParams13with_backends
FN:151,_RNvMs_NtCsjkTxOr1VN5_7lb_quic8listenerNtB4_18QuicListenerParams15with_h2_backend
FN:103,_RNvMs_NtCsjkTxOr1VN5_7lb_quic8listenerNtB4_18QuicListenerParams3new
FN:324,_RNvNtCsjkTxOr1VN5_7lb_quic8listener17write_secret_file
FN:342,_RNvNtCsjkTxOr1VN5_7lb_quic8listener19build_server_config
FN:288,_RNvNtCsjkTxOr1VN5_7lb_quic8listener29load_or_generate_retry_secret
FN:82,_RNvXNtCsjkTxOr1VN5_7lb_quic8listenerNtB2_18QuicListenerParamsNtNtCslfAf2Mv2Tp5_4core3fmt5Debug3fmt
FNDA:0,_RINvMs_NtCsjkTxOr1VN5_7lb_quic8listenerNtB5_18QuicListenerParams15with_h3_backendpEB7_
FNDA:0,_RNCNCNvMs0_NtCsjkTxOr1VN5_7lb_quic8listenerNtB9_12QuicListener5spawn00Bb_
FNDA:0,_RNCNCNvMs0_NtCsjkTxOr1VN5_7lb_quic8listenerNtB9_12QuicListener5spawn0s0_0Bb_
FNDA:0,_RNCNCNvMs0_NtCsjkTxOr1VN5_7lb_quic8listenerNtB9_12QuicListener5spawn0s_0Bb_
FNDA:0,_RNCNvMs0_NtCsjkTxOr1VN5_7lb_quic8listenerNtB7_12QuicListener5spawn0B9_
FNDA:0,_RNCNvNtCsjkTxOr1VN5_7lb_quic8listener29load_or_generate_retry_secret0B5_
FNDA:0,_RNvMs0_NtCsjkTxOr1VN5_7lb_quic8listenerNtB5_12QuicListener10local_addr
FNDA:0,_RNvMs0_NtCsjkTxOr1VN5_7lb_quic8listenerNtB5_12QuicListener12replay_guard
FNDA:0,_RNvMs0_NtCsjkTxOr1VN5_7lb_quic8listenerNtB5_12QuicListener12retry_signer
FNDA:0,_RNvMs0_NtCsjkTxOr1VN5_7lb_quic8listenerNtB5_12QuicListener5spawn
FNDA:0,_RNvMs0_NtCsjkTxOr1VN5_7lb_quic8listenerNtB5_12QuicListener8shutdown
FNDA:0,_RNvMs_NtCsjkTxOr1VN5_7lb_quic8listenerNtB4_18QuicListenerParams13with_backends
FNDA:0,_RNvMs_NtCsjkTxOr1VN5_7lb_quic8listenerNtB4_18QuicListenerParams15with_h2_backend
FNDA:0,_RNvMs_NtCsjkTxOr1VN5_7lb_quic8listenerNtB4_18QuicListenerParams3new
FNDA:0,_RNvNtCsjkTxOr1VN5_7lb_quic8listener17write_secret_file
FNDA:0,_RNvNtCsjkTxOr1VN5_7lb_quic8listener19build_server_config
FNDA:0,_RNvNtCsjkTxOr1VN5_7lb_quic8listener29load_or_generate_retry_secret
FNDA:0,_RNvXNtCsjkTxOr1VN5_7lb_quic8listenerNtB2_18QuicListenerParamsNtNtCslfAf2Mv2Tp5_4core3fmt5Debug3fmt
FNF:18
FNH:0
DA:82,0
DA:83,0
DA:84,0
DA:85,0
DA:86,0
DA:87,0
DA:88,0
DA:89,0
DA:90,0
DA:91,0
DA:92,0
DA:93,0
DA:94,0
DA:95,0
DA:96,0
DA:103,0
DA:104,0
DA:105,0
DA:106,0
DA:107,0
DA:108,0
DA:109,0
DA:110,0
DA:111,0
DA:112,0
DA:113,0
DA:114,0
DA:115,0
DA:116,0
DA:117,0
DA:118,0
DA:119,0
DA:120,0
DA:121,0
DA:122,0
DA:127,0
DA:128,0
DA:129,0
DA:130,0
DA:131,0
DA:137,0
DA:138,0
DA:139,0
DA:140,0
DA:141,0
DA:142,0
DA:143,0
DA:144,0
DA:145,0
DA:151,0
DA:152,0
DA:153,0
DA:154,0
DA:177,0
DA:178,0
DA:179,0
DA:180,0
DA:181,0
DA:182,0
DA:183,0
DA:185,0
DA:186,0
DA:187,0
DA:190,0
DA:193,0
DA:194,0
DA:195,0
DA:204,0
DA:205,0
DA:206,0
DA:207,0
DA:208,0
DA:209,0
DA:214,0
DA:215,0
DA:216,0
DA:217,0
DA:218,0
DA:219,0
DA:220,0
DA:221,0
DA:222,0
DA:223,0
DA:224,0
DA:225,0
DA:226,0
DA:228,0
DA:230,0
DA:231,0
DA:232,0
DA:233,0
DA:234,0
DA:235,0
DA:236,0
DA:237,0
DA:238,0
DA:239,0
DA:240,0
DA:241,0
DA:242,0
DA:243,0
DA:244,0
DA:245,0
DA:246,0
DA:247,0
DA:248,0
DA:249,0
DA:250,0
DA:251,0
DA:253,0
DA:254,0
DA:255,0
DA:256,0
DA:257,0
DA:258,0
DA:259,0
DA:260,0
DA:264,0
DA:265,0
DA:266,0
DA:270,0
DA:271,0
DA:272,0
DA:276,0
DA:277,0
DA:278,0
DA:282,0
DA:283,0
DA:284,0
DA:285,0
DA:288,0
DA:289,0
DA:290,0
DA:291,0
DA:292,0
DA:293,0
DA:294,0
DA:295,0
DA:296,0
DA:297,0
DA:298,0
DA:299,0
DA:300,0
DA:301,0
DA:302,0
DA:303,0
DA:305,0
DA:307,0
DA:308,0
DA:309,0
DA:310,0
DA:311,0
DA:312,0
DA:313,0
DA:314,0
DA:315,0
DA:316,0
DA:317,0
DA:319,0
DA:321,0
DA:324,0
DA:327,0
DA:328,0
DA:329,0
DA:330,0
DA:331,0
DA:332,0
DA:333,0
DA:334,0
DA:335,0
DA:342,0
DA:343,0
DA:344,0
DA:345,0
DA:346,0
DA:347,0
DA:348,0
DA:349,0
DA:350,0
DA:351,0
DA:352,0
DA:353,0
DA:354,0
DA:355,0
DA:356,0
DA:357,0
DA:358,0
DA:359,0
DA:360,0
DA:361,0
DA:362,0
DA:363,0
DA:364,0
DA:365,0
BRF:0
BRH:0
LF:199
LH:0
end_of_record
SF:/home/ubuntu/Code/ExpressGateway/crates/lb-quic/src/public_header.rs
FN:277,_RNCNvNtCsjkTxOr1VN5_7lb_quic13public_header10parse_long0B5_
FN:184,_RNvNtCsjkTxOr1VN5_7lb_quic13public_header10parse_long
FN:338,_RNvNtCsjkTxOr1VN5_7lb_quic13public_header11parse_short
FN:135,_RNvNtCsjkTxOr1VN5_7lb_quic13public_header13decode_varint
FN:166,_RNvNtCsjkTxOr1VN5_7lb_quic13public_header19parse_public_header
FN:396,_RNvNtNtCsjkTxOr1VN5_7lb_quic13public_header5tests18rfc9001_a2_initial
FN:443,_RNvNtNtCsjkTxOr1VN5_7lb_quic13public_header5tests21handcrafted_handshake
FN:650,_RNvNtNtCsjkTxOr1VN5_7lb_quic13public_header5testss_15varint_one_byte
FN:658,_RNvNtNtCsjkTxOr1VN5_7lb_quic13public_header5testss_15varint_two_byte
FN:457,_RNvNtNtCsjkTxOr1VN5_7lb_quic13public_header5testss_16handshake_parses
FN:666,_RNvNtNtCsjkTxOr1VN5_7lb_quic13public_header5testss_16varint_four_byte
FN:672,_RNvNtNtCsjkTxOr1VN5_7lb_quic13public_header5testss_17varint_eight_byte
FN:678,_RNvNtNtCsjkTxOr1VN5_7lb_quic13public_header5testss_17varint_incomplete
FN:566,_RNvNtNtCsjkTxOr1VN5_7lb_quic13public_header5testss_21short_header_positive
FN:509,_RNvNtNtCsjkTxOr1VN5_7lb_quic13public_header5testss_22dcid_too_long_rejected
FN:521,_RNvNtNtCsjkTxOr1VN5_7lb_quic13public_header5testss_22scid_too_long_rejected
FN:481,_RNvNtNtCsjkTxOr1VN5_7lb_quic13public_header5testss_25empty_buffer_is_too_short
FN:411,_RNvNtNtCsjkTxOr1VN5_7lb_quic13public_header5testss_25rfc9001_a2_initial_parses
FN:626,_RNvNtNtCsjkTxOr1VN5_7lb_quic13public_header5testss_26retry_classified_no_length
FN:489,_RNvNtNtCsjkTxOr1VN5_7lb_quic13public_header5testss_29fixed_bit_clear_long_rejected
FN:499,_RNvNtNtCsjkTxOr1VN5_7lb_quic13public_header5testss_30fixed_bit_clear_short_rejected
FN:580,_RNvNtNtCsjkTxOr1VN5_7lb_quic13public_header5testss_30short_header_zero_len_rejected
FN:589,_RNvNtNtCsjkTxOr1VN5_7lb_quic13public_header5testss_31short_header_too_short_for_dcid
FN:545,_RNvNtNtCsjkTxOr1VN5_7lb_quic13public_header5testss_32initial_declared_length_overruns
FN:534,_RNvNtNtCsjkTxOr1VN5_7lb_quic13public_header5testss_37initial_truncated_in_token_len_varint
FN:600,_RNvNtNtCsjkTxOr1VN5_7lb_quic13public_header5testss_39version_negotiation_overrides_type_bits
FNDA:0,_RNCNvNtCsjkTxOr1VN5_7lb_quic13public_header10parse_long0B5_
FNDA:8,_RNvNtCsjkTxOr1VN5_7lb_quic13public_header10parse_long
FNDA:3,_RNvNtCsjkTxOr1VN5_7lb_quic13public_header11parse_short
FNDA:13,_RNvNtCsjkTxOr1VN5_7lb_quic13public_header13decode_varint
FNDA:14,_RNvNtCsjkTxOr1VN5_7lb_quic13public_header19parse_public_header
FNDA:1,_RNvNtNtCsjkTxOr1VN5_7lb_quic13public_header5tests18rfc9001_a2_initial
FNDA:1,_RNvNtNtCsjkTxOr1VN5_7lb_quic13public_header5tests21handcrafted_handshake
FNDA:1,_RNvNtNtCsjkTxOr1VN5_7lb_quic13public_header5testss_15varint_one_byte
FNDA:1,_RNvNtNtCsjkTxOr1VN5_7lb_quic13public_header5testss_15varint_two_byte
FNDA:1,_RNvNtNtCsjkTxOr1VN5_7lb_quic13public_header5testss_16handshake_parses
FNDA:1,_RNvNtNtCsjkTxOr1VN5_7lb_quic13public_header5testss_16varint_four_byte
FNDA:1,_RNvNtNtCsjkTxOr1VN5_7lb_quic13public_header5testss_17varint_eight_byte
FNDA:1,_RNvNtNtCsjkTxOr1VN5_7lb_quic13public_header5testss_17varint_incomplete
FNDA:1,_RNvNtNtCsjkTxOr1VN5_7lb_quic13public_header5testss_21short_header_positive
FNDA:1,_RNvNtNtCsjkTxOr1VN5_7lb_quic13public_header5testss_22dcid_too_long_rejected
FNDA:1,_RNvNtNtCsjkTxOr1VN5_7lb_quic13public_header5testss_22scid_too_long_rejected
FNDA:1,_RNvNtNtCsjkTxOr1VN5_7lb_quic13public_header5testss_25empty_buffer_is_too_short
FNDA:1,_RNvNtNtCsjkTxOr1VN5_7lb_quic13public_header5testss_25rfc9001_a2_initial_parses
FNDA:1,_RNvNtNtCsjkTxOr1VN5_7lb_quic13public_header5testss_26retry_classified_no_length
FNDA:1,_RNvNtNtCsjkTxOr1VN5_7lb_quic13public_header5testss_29fixed_bit_clear_long_rejected
FNDA:1,_RNvNtNtCsjkTxOr1VN5_7lb_quic13public_header5testss_30fixed_bit_clear_short_rejected
FNDA:1,_RNvNtNtCsjkTxOr1VN5_7lb_quic13public_header5testss_30short_header_zero_len_rejected
FNDA:1,_RNvNtNtCsjkTxOr1VN5_7lb_quic13public_header5testss_31short_header_too_short_for_dcid
FNDA:1,_RNvNtNtCsjkTxOr1VN5_7lb_quic13public_header5testss_32initial_declared_length_overruns
FNDA:1,_RNvNtNtCsjkTxOr1VN5_7lb_quic13public_header5testss_37initial_truncated_in_token_len_varint
FNDA:1,_RNvNtNtCsjkTxOr1VN5_7lb_quic13public_header5testss_39version_negotiation_overrides_type_bits
FNF:26
FNH:25
DA:135,13
DA:136,13
DA:137,13
DA:138,13
DA:139,12
DA:140,12
DA:141,1
DA:142,1
DA:143,1
DA:144,1
DA:145,11
DA:146,11
DA:147,15
DA:148,15
DA:149,15
DA:150,15
DA:151,15
DA:152,15
DA:154,11
DA:155,13
DA:166,14
DA:167,14
DA:168,14
DA:169,14
DA:170,14
DA:171,14
DA:172,14
DA:174,13
DA:175,2
DA:176,11
DA:177,11
DA:178,3
DA:180,8
DA:182,14
DA:184,8
DA:186,8
DA:187,8
DA:188,8
DA:189,8
DA:190,8
DA:191,8
DA:192,8
DA:193,8
DA:194,8
DA:195,8
DA:196,8
DA:197,8
DA:198,8
DA:199,8
DA:200,8
DA:201,8
DA:202,8
DA:203,8
DA:204,8
DA:205,8
DA:206,8
DA:207,8
DA:208,8
DA:209,8
DA:211,8
DA:212,8
DA:213,8
DA:214,8
DA:215,8
DA:216,1
DA:217,7
DA:218,7
DA:219,7
DA:220,7
DA:221,7
DA:222,7
DA:223,7
DA:224,7
DA:225,7
DA:226,7
DA:227,7
DA:228,7
DA:230,7
DA:231,7
DA:232,7
DA:233,7
DA:234,7
DA:235,7
DA:236,1
DA:237,6
DA:238,6
DA:239,6
DA:240,6
DA:241,6
DA:242,6
DA:243,6
DA:244,6
DA:245,6
DA:246,6
DA:247,6
DA:248,6
DA:251,6
DA:252,1
DA:253,1
DA:254,1
DA:255,1
DA:256,1
DA:257,1
DA:258,1
DA:259,1
DA:260,5
DA:262,5
DA:263,3
DA:264,0
DA:265,1
DA:266,1
DA:269,5
DA:270,5
DA:271,5
DA:272,5
DA:273,5
DA:275,3
DA:276,2
DA:277,0
DA:278,0
DA:279,0
DA:280,2
DA:281,2
DA:282,2
DA:283,2
DA:284,2
DA:285,2
DA:286,2
DA:287,2
DA:288,2
DA:289,2
DA:290,2
DA:291,2
DA:292,2
DA:293,2
DA:294,2
DA:295,2
DA:296,2
DA:297,2
DA:298,2
DA:299,1
DA:300,1
DA:301,1
DA:302,1
DA:303,1
DA:304,1
DA:307,1
DA:308,1
DA:309,1
DA:310,1
DA:311,0
DA:312,0
DA:313,0
DA:314,0
DA:315,1
DA:316,1
DA:325,1
DA:328,3
DA:329,3
DA:330,3
DA:331,3
DA:332,3
DA:333,3
DA:334,3
DA:335,3
DA:336,8
DA:338,3
DA:339,3
DA:345,1
DA:346,1
DA:347,2
DA:348,2
DA:349,2
DA:350,2
DA:351,2
DA:352,2
DA:353,2
DA:354,2
DA:355,2
DA:356,2
DA:357,2
DA:358,1
DA:359,3
DA:396,1
DA:397,1
DA:398,1
DA:399,1
DA:400,1
DA:401,1
DA:402,1
DA:403,1
DA:404,1
DA:406,1
DA:407,1
DA:408,1
DA:411,1
DA:412,1
DA:413,1
DA:414,1
DA:416,1
DA:417,1
DA:418,1
DA:419,1
DA:420,1
DA:421,1
DA:423,1
DA:424,1
DA:425,1
DA:426,1
DA:427,1
DA:428,1
DA:429,1
DA:431,0
DA:433,1
DA:443,1
DA:444,1
DA:445,1
DA:446,1
DA:447,1
DA:448,1
DA:449,1
DA:450,1
DA:451,1
DA:452,1
DA:453,1
DA:454,1
DA:457,1
DA:458,1
DA:459,1
DA:460,1
DA:462,1
DA:463,1
DA:464,1
DA:465,1
DA:466,1
DA:467,1
DA:469,1
DA:470,1
DA:471,1
DA:472,1
DA:473,1
DA:474,1
DA:476,0
DA:478,1
DA:481,1
DA:482,1
DA:483,1
DA:484,0
DA:486,1
DA:489,1
DA:491,1
DA:492,1
DA:493,1
DA:494,0
DA:496,1
DA:499,1
DA:501,1
DA:502,1
DA:503,1
DA:504,0
DA:506,1
DA:509,1
DA:511,1
DA:512,1
DA:513,1
DA:514,1
DA:515,1
DA:516,0
DA:518,1
DA:521,1
DA:523,1
DA:524,1
DA:525,1
DA:526,1
DA:527,1
DA:528,1
DA:529,0
DA:531,1
DA:534,1
DA:537,1
DA:538,1
DA:539,1
DA:540,0
DA:542,1
DA:545,1
DA:548,1
DA:549,1
DA:550,1
DA:551,1
DA:552,1
DA:554,1
DA:555,1
DA:556,1
DA:560,1
DA:561,0
DA:563,1
DA:566,1
DA:568,1
DA:569,1
DA:570,1
DA:571,1
DA:572,1
DA:573,1
DA:575,0
DA:577,1
DA:580,1
DA:581,1
DA:582,1
DA:583,1
DA:584,0
DA:586,1
DA:589,1
DA:592,1
DA:593,1
DA:594,1
DA:595,0
DA:597,1
DA:600,1
DA:602,1
DA:603,1
DA:604,1
DA:605,1
DA:606,1
DA:607,1
DA:608,1
DA:610,1
DA:611,1
DA:612,1
DA:613,1
DA:616,1
DA:617,1
DA:618,1
DA:619,1
DA:621,0
DA:623,1
DA:626,1
DA:628,1
DA:629,1
DA:630,1
DA:631,1
DA:633,1
DA:634,1
DA:635,1
DA:637,1
DA:639,1
DA:640,1
DA:641,1
DA:643,0
DA:645,1
DA:650,1
DA:651,1
DA:652,1
DA:653,1
DA:654,1
DA:655,1
DA:658,1
DA:659,1
DA:660,1
DA:661,1
DA:662,1
DA:663,1
DA:666,1
DA:667,1
DA:668,1
DA:669,1
DA:672,1
DA:673,1
DA:674,1
DA:675,1
DA:678,1
DA:679,1
DA:680,1
DA:681,0
DA:683,1
BRF:0
BRH:0
LF:375
LH:351
end_of_record
SF:/home/ubuntu/Code/ExpressGateway/crates/lb-quic/src/router.rs
FN:189,_RNCNCNvNtCsjkTxOr1VN5_7lb_quic6router15dispatch_packet00B7_
FN:105,_RNCNvMNtCsjkTxOr1VN5_7lb_quic6routerNtB4_12RouterHandle4join0B6_
FN:265,_RNCNvNtCsjkTxOr1VN5_7lb_quic6router10send_retry0B5_
FN:121,_RNCNvNtCsjkTxOr1VN5_7lb_quic6router11router_main0B5_
FN:166,_RNCNvNtCsjkTxOr1VN5_7lb_quic6router15dispatch_packet0B5_
FN:113,_RNCNvNtCsjkTxOr1VN5_7lb_quic6router5spawn0B5_
FN:105,_RNvMNtCsjkTxOr1VN5_7lb_quic6routerNtB2_12RouterHandle4join
FN:260,_RNvNtCsjkTxOr1VN5_7lb_quic6router10send_retry
FN:121,_RNvNtCsjkTxOr1VN5_7lb_quic6router11router_main
FN:160,_RNvNtCsjkTxOr1VN5_7lb_quic6router15dispatch_packet
FN:229,_RNvNtCsjkTxOr1VN5_7lb_quic6router16build_replay_key
FN:238,_RNvNtCsjkTxOr1VN5_7lb_quic6router16forward_to_actor
FN:112,_RNvNtCsjkTxOr1VN5_7lb_quic6router5spawn
FN:397,_RNvNtCsjkTxOr1VN5_7lb_quic6router14sample_conn_id
FN:296,_RNvNtCsjkTxOr1VN5_7lb_quic6router20spawn_new_connection
FN:462,_RNCNCNvNtNtCsjkTxOr1VN5_7lb_quic6router5testss_37router_drops_initial_when_cap_reached00B9_
FN:445,_RNCNvNtNtCsjkTxOr1VN5_7lb_quic6router5testss_37router_drops_initial_when_cap_reached0B7_
FN:403,_RNCNvNtCsjkTxOr1VN5_7lb_quic6router14sample_conn_id0B5_
FN:330,_RNCNvNtCsjkTxOr1VN5_7lb_quic6router20spawn_new_connection0B5_
FN:387,_RNCNvNtCsjkTxOr1VN5_7lb_quic6router20spawn_new_connections0_0B5_
FN:341,_RNCNvNtCsjkTxOr1VN5_7lb_quic6router20spawn_new_connections_0B5_
FN:445,_RNvNtNtCsjkTxOr1VN5_7lb_quic6router5testss_37router_drops_initial_when_cap_reached
FNDA:0,_RNCNCNvNtCsjkTxOr1VN5_7lb_quic6router15dispatch_packet00B7_
FNDA:0,_RNCNvMNtCsjkTxOr1VN5_7lb_quic6routerNtB4_12RouterHandle4join0B6_
FNDA:0,_RNCNvNtCsjkTxOr1VN5_7lb_quic6router10send_retry0B5_
FNDA:0,_RNCNvNtCsjkTxOr1VN5_7lb_quic6router11router_main0B5_
FNDA:0,_RNCNvNtCsjkTxOr1VN5_7lb_quic6router15dispatch_packet0B5_
FNDA:0,_RNCNvNtCsjkTxOr1VN5_7lb_quic6router5spawn0B5_
FNDA:0,_RNvMNtCsjkTxOr1VN5_7lb_quic6routerNtB2_12RouterHandle4join
FNDA:0,_RNvNtCsjkTxOr1VN5_7lb_quic6router10send_retry
FNDA:0,_RNvNtCsjkTxOr1VN5_7lb_quic6router11router_main
FNDA:0,_RNvNtCsjkTxOr1VN5_7lb_quic6router15dispatch_packet
FNDA:0,_RNvNtCsjkTxOr1VN5_7lb_quic6router16build_replay_key
FNDA:0,_RNvNtCsjkTxOr1VN5_7lb_quic6router16forward_to_actor
FNDA:0,_RNvNtCsjkTxOr1VN5_7lb_quic6router5spawn
FNDA:1,_RNvNtCsjkTxOr1VN5_7lb_quic6router14sample_conn_id
FNDA:1,_RNvNtCsjkTxOr1VN5_7lb_quic6router20spawn_new_connection
FNDA:0,_RNCNCNvNtNtCsjkTxOr1VN5_7lb_quic6router5testss_37router_drops_initial_when_cap_reached00B9_
FNDA:1,_RNCNvNtNtCsjkTxOr1VN5_7lb_quic6router5testss_37router_drops_initial_when_cap_reached0B7_
FNDA:0,_RNCNvNtCsjkTxOr1VN5_7lb_quic6router14sample_conn_id0B5_
FNDA:0,_RNCNvNtCsjkTxOr1VN5_7lb_quic6router20spawn_new_connection0B5_
FNDA:0,_RNCNvNtCsjkTxOr1VN5_7lb_quic6router20spawn_new_connections0_0B5_
FNDA:0,_RNCNvNtCsjkTxOr1VN5_7lb_quic6router20spawn_new_connections_0B5_
FNDA:1,_RNvNtNtCsjkTxOr1VN5_7lb_quic6router5testss_37router_drops_initial_when_cap_reached
FNF:22
FNH:4
DA:105,0
DA:106,0
DA:107,0
DA:112,0
DA:113,0
DA:114,0
DA:115,0
DA:116,0
DA:117,0
DA:118,0
DA:119,0
DA:121,0
DA:122,0
DA:124,0
DA:125,0
DA:127,0
DA:130,0
DA:132,0
DA:133,0
DA:134,0
DA:136,0
DA:137,0
DA:138,0
DA:139,0
DA:140,0
DA:141,0
DA:144,0
DA:145,0
DA:146,0
DA:147,0
DA:148,0
DA:149,0
DA:151,0
DA:153,0
DA:154,0
DA:158,0
DA:160,0
DA:161,0
DA:162,0
DA:163,0
DA:164,0
DA:165,0
DA:166,0
DA:170,0
DA:171,0
DA:172,0
DA:174,0
DA:177,0
DA:178,0
DA:179,0
DA:180,0
DA:185,0
DA:186,0
DA:187,0
DA:189,0
DA:190,0
DA:191,0
DA:192,0
DA:193,0
DA:195,0
DA:196,0
DA:197,0
DA:198,0
DA:199,0
DA:206,0
DA:207,0
DA:208,0
DA:209,0
DA:210,0
DA:211,0
DA:212,0
DA:213,0
DA:214,0
DA:215,0
DA:216,0
DA:217,0
DA:218,0
DA:219,0
DA:221,0
DA:229,0
DA:230,0
DA:231,0
DA:232,0
DA:233,0
DA:234,0
DA:235,0
DA:238,0
DA:239,0
DA:240,0
DA:241,0
DA:242,0
DA:243,0
DA:244,0
DA:245,0
DA:246,0
DA:247,0
DA:248,0
DA:250,0
DA:252,0
DA:253,0
DA:254,0
DA:256,0
DA:260,0
DA:261,0
DA:262,0
DA:263,0
DA:264,0
DA:265,0
DA:268,0
DA:274,0
DA:275,0
DA:277,0
DA:278,0
DA:279,0
DA:280,0
DA:281,0
DA:282,0
DA:283,0
DA:284,0
DA:285,0
DA:286,0
DA:287,0
DA:289,0
DA:290,0
DA:291,0
DA:292,0
DA:293,0
DA:294,0
DA:296,1
DA:297,1
DA:298,1
DA:299,1
DA:300,1
DA:301,1
DA:302,1
DA:303,1
DA:304,1
DA:309,1
DA:310,1
DA:311,1
DA:312,0
DA:318,1
DA:319,0
DA:320,0
DA:321,0
DA:322,0
DA:328,0
DA:330,0
DA:331,0
DA:332,0
DA:333,0
DA:334,0
DA:335,0
DA:336,0
DA:337,0
DA:338,0
DA:339,0
DA:341,0
DA:343,0
DA:348,0
DA:349,0
DA:350,0
DA:351,0
DA:354,0
DA:355,0
DA:356,0
DA:357,0
DA:358,0
DA:360,0
DA:361,0
DA:362,0
DA:363,0
DA:364,0
DA:365,0
DA:366,0
DA:367,0
DA:368,0
DA:369,0
DA:382,0
DA:383,0
DA:384,0
DA:385,0
DA:387,0
DA:390,0
DA:391,0
DA:393,0
DA:394,0
DA:395,1
DA:397,1
DA:399,1
DA:400,1
DA:401,0
DA:402,0
DA:403,0
DA:404,0
DA:405,0
DA:406,0
DA:408,0
DA:409,0
DA:410,0
DA:411,0
DA:412,0
DA:413,0
DA:415,1
DA:416,1
DA:417,1
DA:445,1
DA:447,1
DA:448,1
DA:449,1
DA:450,1
DA:452,1
DA:453,1
DA:455,1
DA:456,1
DA:461,1
DA:462,1
DA:464,1
DA:465,1
DA:467,1
DA:468,1
DA:469,1
DA:470,1
DA:471,1
DA:472,1
DA:473,1
DA:474,1
DA:475,1
DA:476,1
DA:477,1
DA:478,1
DA:479,1
DA:480,1
DA:483,1
DA:484,1
DA:485,4
DA:486,4
DA:487,4
DA:488,4
DA:489,4
DA:490,4
DA:491,4
DA:492,4
DA:493,4
DA:494,4
DA:495,1
DA:496,1
DA:502,1
DA:503,1
DA:504,1
DA:505,1
DA:506,1
DA:507,1
DA:508,1
DA:509,1
DA:510,1
DA:511,1
DA:512,1
DA:513,1
DA:515,1
DA:516,1
DA:517,1
DA:518,1
DA:519,1
DA:520,1
DA:525,1
DA:526,1
DA:527,1
DA:528,1
DA:529,1
DA:532,1
DA:533,1
DA:534,1
DA:535,1
DA:536,1
DA:537,1
DA:538,1
DA:539,1
DA:545,1
DA:546,1
DA:547,1
DA:548,1
DA:549,1
DA:550,1
DA:551,1
DA:552,1
DA:553,1
DA:554,1
DA:555,1
DA:556,1
DA:557,1
DA:558,1
DA:559,1
BRF:0
BRH:0
LF:310
LH:112
end_of_record