SF:/home/ubuntu/Code/ExpressGateway/crates/lb-balancer/src/ewma.rs
FN:36,_RNCNvXs_NtCslNnVhyqePKm_11lb_balancer4ewmaNtB6_4EwmaNtB8_12LoadBalancer4pick0B8_
FN:19,_RNvMNtCslNnVhyqePKm_11lb_balancer4ewmaNtB2_4Ewma3new
FN:25,_RNvXs_NtCslNnVhyqePKm_11lb_balancer4ewmaNtB4_4EwmaNtB6_12LoadBalancer4pick
FN:36,_RNCNvXs_NtCs393hpbhIDra_11lb_balancer4ewmaNtB6_4EwmaNtB8_12LoadBalancer4pick0B8_
FN:19,_RNvMNtCs393hpbhIDra_11lb_balancer4ewmaNtB2_4Ewma3new
FN:25,_RNvXs_NtCs393hpbhIDra_11lb_balancer4ewmaNtB4_4EwmaNtB6_12LoadBalancer4pick
FN:74,_RNvNtNtCs393hpbhIDra_11lb_balancer4ewma5testss_17test_prefers_fast
FN:117,_RNvNtNtCs393hpbhIDra_11lb_balancer4ewma5testss_22test_accounts_for_load
FN:84,_RNvNtNtCs393hpbhIDra_11lb_balancer4ewma5testss_34test_cold_start_no_thundering_herd
FNDA:204,_RNCNvXs_NtCslNnVhyqePKm_11lb_balancer4ewmaNtB6_4EwmaNtB8_12LoadBalancer4pick0B8_
FNDA:4,_RNvMNtCslNnVhyqePKm_11lb_balancer4ewmaNtB2_4Ewma3new
FNDA:103,_RNvXs_NtCslNnVhyqePKm_11lb_balancer4ewmaNtB4_4EwmaNtB6_12LoadBalancer4pick
FNDA:307,_RNCNvXs_NtCs393hpbhIDra_11lb_balancer4ewmaNtB6_4EwmaNtB8_12LoadBalancer4pick0B8_
FNDA:3,_RNvMNtCs393hpbhIDra_11lb_balancer4ewmaNtB2_4Ewma3new
FNDA:103,_RNvXs_NtCs393hpbhIDra_11lb_balancer4ewmaNtB4_4EwmaNtB6_12LoadBalancer4pick
FNDA:1,_RNvNtNtCs393hpbhIDra_11lb_balancer4ewma5testss_17test_prefers_fast
FNDA:1,_RNvNtNtCs393hpbhIDra_11lb_balancer4ewma5testss_22test_accounts_for_load
FNDA:1,_RNvNtNtCs393hpbhIDra_11lb_balancer4ewma5testss_34test_cold_start_no_thundering_herd
FNF:6
FNH:6
DA:19,7
DA:20,7
DA:21,7
DA:25,206
DA:26,206
DA:27,1
DA:28,205
DA:29,205
DA:30,205
DA:31,205
DA:32,205
DA:33,205
DA:34,205
DA:35,205
DA:36,511
DA:37,205
DA:38,205
DA:39,205
DA:40,205
DA:42,0
DA:45,205
DA:46,205
DA:48,511
DA:50,511
DA:52,102
DA:54,409
DA:56,511
DA:57,511
DA:58,511
DA:59,511
DA:60,207
DA:61,207
DA:62,304
DA:65,205
DA:66,206
DA:74,1
DA:75,1
DA:76,1
DA:77,1
DA:78,1
DA:79,1
DA:80,1
DA:81,1
DA:84,1
DA:85,1
DA:86,1
DA:87,1
DA:88,1
DA:89,1
DA:90,1
DA:91,1
DA:92,1
DA:93,1
DA:94,1
DA:95,1
DA:96,1
DA:97,1
DA:98,1
DA:99,1
DA:100,1
DA:103,1
DA:104,101
DA:105,100
DA:106,100
DA:107,0
DA:108,100
DA:110,1
DA:111,1
DA:112,0
DA:114,1
DA:117,1
DA:118,1
DA:119,1
DA:120,1
DA:121,1
DA:122,1
DA:123,1
DA:124,1
DA:125,1
DA:126,1
DA:127,1
DA:128,1
BRF:0
BRH:0
LF:83
LH:80
end_of_record
SF:/home/ubuntu/Code/ExpressGateway/crates/lb-balancer/src/least_connections.rs
FN:13,_RNvMNtCslNnVhyqePKm_11lb_balancer17least_connectionsNtB2_16LeastConnections3new
FN:19,_RNvXs_NtCslNnVhyqePKm_11lb_balancer17least_connectionsNtB4_16LeastConnectionsNtB6_12LoadBalancer4pick
FN:13,_RNvMNtCs393hpbhIDra_11lb_balancer17least_connectionsNtB2_16LeastConnections3new
FN:19,_RNvXs_NtCs393hpbhIDra_11lb_balancer17least_connectionsNtB4_16LeastConnectionsNtB6_12LoadBalancer4pick
FN:43,_RNvNtNtCs393hpbhIDra_11lb_balancer17least_connections5testss_18test_picks_minimum
FN:57,_RNvNtNtCs393hpbhIDra_11lb_balancer17least_connections5testss_24test_tie_breaks_by_index
FNDA:3,_RNvMNtCslNnVhyqePKm_11lb_balancer17least_connectionsNtB2_16LeastConnections3new
FNDA:3,_RNvXs_NtCslNnVhyqePKm_11lb_balancer17least_connectionsNtB4_16LeastConnectionsNtB6_12LoadBalancer4pick
FNDA:2,_RNvMNtCs393hpbhIDra_11lb_balancer17least_connectionsNtB2_16LeastConnections3new
FNDA:2,_RNvXs_NtCs393hpbhIDra_11lb_balancer17least_connectionsNtB4_16LeastConnectionsNtB6_12LoadBalancer4pick
FNDA:1,_RNvNtNtCs393hpbhIDra_11lb_balancer17least_connections5testss_18test_picks_minimum
FNDA:1,_RNvNtNtCs393hpbhIDra_11lb_balancer17least_connections5testss_24test_tie_breaks_by_index
FNF:4
FNH:4
DA:13,5
DA:14,5
DA:15,5
DA:19,5
DA:20,5
DA:21,1
DA:22,4
DA:23,4
DA:24,4
DA:25,4
DA:27,12
DA:28,12
DA:29,8
DA:30,8
DA:31,8
DA:34,4
DA:35,5
DA:43,1
DA:44,1
DA:45,1
DA:46,1
DA:47,1
DA:48,1
DA:49,1
DA:50,1
DA:51,1
DA:52,1
DA:53,1
DA:54,1
DA:57,1
DA:58,1
DA:59,1
DA:60,1
DA:61,1
DA:62,1
DA:63,1
DA:64,1
DA:65,1
DA:66,1
BRF:0
BRH:0
LF:39
LH:39
end_of_record
SF:/home/ubuntu/Code/ExpressGateway/crates/lb-balancer/src/least_request.rs
FN:13,_RNvMNtCslNnVhyqePKm_11lb_balancer13least_requestNtB2_12LeastRequest3new
FN:19,_RNvXs_NtCslNnVhyqePKm_11lb_balancer13least_requestNtB4_12LeastRequestNtB6_12LoadBalancer4pick
FN:43,_RNvNtNtCs393hpbhIDra_11lb_balancer13least_request5testss_18test_picks_minimum
FN:13,_RNvMNtCs393hpbhIDra_11lb_balancer13least_requestNtB2_12LeastRequest3new
FN:19,_RNvXs_NtCs393hpbhIDra_11lb_balancer13least_requestNtB4_12LeastRequestNtB6_12LoadBalancer4pick
FNDA:3,_RNvMNtCslNnVhyqePKm_11lb_balancer13least_requestNtB2_12LeastRequest3new
FNDA:3,_RNvXs_NtCslNnVhyqePKm_11lb_balancer13least_requestNtB4_12LeastRequestNtB6_12LoadBalancer4pick
FNDA:1,_RNvNtNtCs393hpbhIDra_11lb_balancer13least_request5testss_18test_picks_minimum
FNDA:1,_RNvMNtCs393hpbhIDra_11lb_balancer13least_requestNtB2_12LeastRequest3new
FNDA:1,_RNvXs_NtCs393hpbhIDra_11lb_balancer13least_requestNtB4_12LeastRequestNtB6_12LoadBalancer4pick
FNF:3
FNH:3
DA:13,4
DA:14,4
DA:15,4
DA:19,4
DA:20,4
DA:21,1
DA:22,3
DA:23,3
DA:24,3
DA:25,3
DA:27,8
DA:28,8
DA:29,5
DA:30,5
DA:31,5
DA:34,3
DA:35,4
DA:43,1
DA:44,1
DA:45,1
DA:46,1
DA:47,1
DA:48,1
DA:49,1
DA:50,1
DA:51,1
DA:52,1
DA:53,1
DA:54,1
BRF:0
BRH:0
LF:29
LH:29
end_of_record
SF:/home/ubuntu/Code/ExpressGateway/crates/lb-balancer/src/lib.rs
FN:106,_RINvMCslNnVhyqePKm_11lb_balancerNtB3_7Backend10with_stateReECsgnDKOFxqdHs_21balancer_counter_sync
FN:161,_RNvCslNnVhyqePKm_11lb_balancer21backend_identity_hash
FN:126,_RNvMCslNnVhyqePKm_11lb_balancerNtB2_7Backend15sync_from_state
FN:106,_RINvMCslNnVhyqePKm_11lb_balancerNtB3_7Backend10with_stateReECsb9Gjgk4Cwji_21balancer_counter_sync
FN:89,_RINvMCslNnVhyqePKm_11lb_balancerNtB3_7Backend3newReECsb9Gjgk4Cwji_21balancer_counter_sync
FN:89,_RINvMCslNnVhyqePKm_11lb_balancerNtB3_7Backend3newReECsa4bnkD1Id7j_13balancer_ewma
FN:89,_RINvMCslNnVhyqePKm_11lb_balancerNtB3_7Backend3newReECs63rAy8flKJc_26balancer_least_connections
FN:89,_RINvMCslNnVhyqePKm_11lb_balancerNtB3_7Backend3newReECs16PSQyOTIzz_22balancer_least_request
FN:89,_RINvMCslNnVhyqePKm_11lb_balancerNtB3_7Backend3newNtNtCs8GO9KFlE3Dq_5alloc6string6StringECsjcH2s0KIS1f_15balancer_maglev
FN:89,_RINvMCslNnVhyqePKm_11lb_balancerNtB3_7Backend3newNtNtCs8GO9KFlE3Dq_5alloc6string6StringECsjasYPSBLiTv_12balancer_p2c
FN:89,_RINvMCslNnVhyqePKm_11lb_balancerNtB3_7Backend3newReECsjasYPSBLiTv_12balancer_p2c
FN:89,_RINvMCslNnVhyqePKm_11lb_balancerNtB3_7Backend3newNtNtCs8GO9KFlE3Dq_5alloc6string6StringECsbGOyz7IUXrp_15balancer_random
FN:89,_RINvMCslNnVhyqePKm_11lb_balancerNtB3_7Backend3newNtNtCs8GO9KFlE3Dq_5alloc6string6StringECsVYb9K0imXS_18balancer_ring_hash
FN:89,_RINvMCslNnVhyqePKm_11lb_balancerNtB3_7Backend3newNtNtCs8GO9KFlE3Dq_5alloc6string6StringECs1NOteNKakfI_20balancer_round_robin
FN:89,_RINvMCslNnVhyqePKm_11lb_balancerNtB3_7Backend3newReECs1NOteNKakfI_20balancer_round_robin
FN:89,_RINvMCslNnVhyqePKm_11lb_balancerNtB3_7Backend3newNtNtCs8GO9KFlE3Dq_5alloc6string6StringECs8UoZ90YDeHs_25balancer_session_affinity
FN:89,_RINvMCslNnVhyqePKm_11lb_balancerNtB3_7Backend3newReECskGDaJ4aFObT_24balancer_weighted_random
FN:89,_RINvMCslNnVhyqePKm_11lb_balancerNtB3_7Backend3newReECs8FqTdxQSKaq_29balancer_weighted_round_robin
FN:106,_RINvMCslNnVhyqePKm_11lb_balancerNtB3_7Backend10with_statepEB3_
FN:89,_RINvMCslNnVhyqePKm_11lb_balancerNtB3_7Backend3newpEB3_
FN:89,_RINvMCslNnVhyqePKm_11lb_balancerNtB3_7Backend3newNtNtCs8GO9KFlE3Dq_5alloc6string6StringECsfji7v5okg5d_14expressgateway
FN:106,_RINvMCs393hpbhIDra_11lb_balancerNtB3_7Backend10with_statepEB3_
FN:126,_RNvMCs393hpbhIDra_11lb_balancerNtB2_7Backend15sync_from_state
FN:89,_RINvMCs393hpbhIDra_11lb_balancerNtB3_7Backend3newNtNtCs8GO9KFlE3Dq_5alloc6string6StringEB3_
FN:89,_RINvMCs393hpbhIDra_11lb_balancerNtB3_7Backend3newReEB3_
FN:161,_RNvCs393hpbhIDra_11lb_balancer21backend_identity_hash
FNDA:18,_RINvMCslNnVhyqePKm_11lb_balancerNtB3_7Backend10with_stateReECsgnDKOFxqdHs_21balancer_counter_sync
FNDA:76629,_RNvCslNnVhyqePKm_11lb_balancer21backend_identity_hash
FNDA:26003,_RNvMCslNnVhyqePKm_11lb_balancerNtB2_7Backend15sync_from_state
FNDA:3,_RINvMCslNnVhyqePKm_11lb_balancerNtB3_7Backend10with_stateReECsb9Gjgk4Cwji_21balancer_counter_sync
FNDA:1,_RINvMCslNnVhyqePKm_11lb_balancerNtB3_7Backend3newReECsb9Gjgk4Cwji_21balancer_counter_sync
FNDA:6,_RINvMCslNnVhyqePKm_11lb_balancerNtB3_7Backend3newReECsa4bnkD1Id7j_13balancer_ewma
FNDA:6,_RINvMCslNnVhyqePKm_11lb_balancerNtB3_7Backend3newReECs63rAy8flKJc_26balancer_least_connections
FNDA:5,_RINvMCslNnVhyqePKm_11lb_balancerNtB3_7Backend3newReECs16PSQyOTIzz_22balancer_least_request
FNDA:21,_RINvMCslNnVhyqePKm_11lb_balancerNtB3_7Backend3newNtNtCs8GO9KFlE3Dq_5alloc6string6StringECsjcH2s0KIS1f_15balancer_maglev
FNDA:4,_RINvMCslNnVhyqePKm_11lb_balancerNtB3_7Backend3newNtNtCs8GO9KFlE3Dq_5alloc6string6StringECsjasYPSBLiTv_12balancer_p2c
FNDA:1,_RINvMCslNnVhyqePKm_11lb_balancerNtB3_7Backend3newReECsjasYPSBLiTv_12balancer_p2c
FNDA:4,_RINvMCslNnVhyqePKm_11lb_balancerNtB3_7Backend3newNtNtCs8GO9KFlE3Dq_5alloc6string6StringECsbGOyz7IUXrp_15balancer_random
FNDA:14,_RINvMCslNnVhyqePKm_11lb_balancerNtB3_7Backend3newNtNtCs8GO9KFlE3Dq_5alloc6string6StringECsVYb9K0imXS_18balancer_ring_hash
FNDA:3,_RINvMCslNnVhyqePKm_11lb_balancerNtB3_7Backend3newNtNtCs8GO9KFlE3Dq_5alloc6string6StringECs1NOteNKakfI_20balancer_round_robin
FNDA:1,_RINvMCslNnVhyqePKm_11lb_balancerNtB3_7Backend3newReECs1NOteNKakfI_20balancer_round_robin
FNDA:9,_RINvMCslNnVhyqePKm_11lb_balancerNtB3_7Backend3newNtNtCs8GO9KFlE3Dq_5alloc6string6StringECs8UoZ90YDeHs_25balancer_session_affinity
FNDA:5,_RINvMCslNnVhyqePKm_11lb_balancerNtB3_7Backend3newReECskGDaJ4aFObT_24balancer_weighted_random
FNDA:7,_RINvMCslNnVhyqePKm_11lb_balancerNtB3_7Backend3newReECs8FqTdxQSKaq_29balancer_weighted_round_robin
FNDA:0,_RINvMCslNnVhyqePKm_11lb_balancerNtB3_7Backend10with_statepEB3_
FNDA:0,_RINvMCslNnVhyqePKm_11lb_balancerNtB3_7Backend3newpEB3_
FNDA:0,_RINvMCslNnVhyqePKm_11lb_balancerNtB3_7Backend3newNtNtCs8GO9KFlE3Dq_5alloc6string6StringECsfji7v5okg5d_14expressgateway
FNDA:0,_RINvMCs393hpbhIDra_11lb_balancerNtB3_7Backend10with_statepEB3_
FNDA:0,_RNvMCs393hpbhIDra_11lb_balancerNtB2_7Backend15sync_from_state
FNDA:40,_RINvMCs393hpbhIDra_11lb_balancerNtB3_7Backend3newNtNtCs8GO9KFlE3Dq_5alloc6string6StringEB3_
FNDA:41,_RINvMCs393hpbhIDra_11lb_balancerNtB3_7Backend3newReEB3_
FNDA:64010,_RNvCs393hpbhIDra_11lb_balancer21backend_identity_hash
FNF:4
FNH:4
DA:89,168
DA:90,168
DA:91,168
DA:92,168
DA:93,168
DA:94,168
DA:95,168
DA:96,168
DA:97,168
DA:98,168
DA:106,21
DA:107,21
DA:108,21
DA:109,21
DA:110,21
DA:111,21
DA:112,21
DA:113,21
DA:114,21
DA:115,21
DA:116,21
DA:117,21
DA:118,21
DA:126,26003
DA:127,26003
DA:128,1
DA:130,26002
DA:131,26002
DA:132,26002
DA:133,26002
DA:134,2
DA:135,2
DA:136,26002
DA:137,26002
DA:138,26002
DA:139,26002
DA:140,26003
DA:161,140639
DA:162,140639
DA:163,140639
DA:164,140639
DA:165,622700
DA:166,622700
DA:167,7256426
DA:168,7256426
DA:169,7256426
DA:170,7256426
DA:171,7256426
DA:173,622700
DA:174,622700
DA:175,622700
DA:176,622700
DA:177,622700
DA:178,622700
DA:179,622700
DA:181,140639
DA:182,140639
BRF:0
BRH:0
LF:57
LH:57
end_of_record
SF:/home/ubuntu/Code/ExpressGateway/crates/lb-balancer/src/maglev.rs
FN:86,_RNCNvMNtCslNnVhyqePKm_11lb_balancer6maglevNtB4_6Maglev8populate0B6_
FN:148,_RNCNvXs_NtCslNnVhyqePKm_11lb_balancer6maglevNtB6_6MaglevNtB8_17KeyedLoadBalancer13pick_with_key0B8_
FN:51,_RNvMNtCslNnVhyqePKm_11lb_balancer6maglevNtB2_6Maglev11permutation
FN:36,_RNvMNtCslNnVhyqePKm_11lb_balancer6maglevNtB2_6Maglev3new
FN:64,_RNvMNtCslNnVhyqePKm_11lb_balancer6maglevNtB2_6Maglev8hash_str
FN:81,_RNvMNtCslNnVhyqePKm_11lb_balancer6maglevNtB2_6Maglev8populate
FN:132,_RNvXs_NtCslNnVhyqePKm_11lb_balancer6maglevNtB4_6MaglevNtB6_17KeyedLoadBalancer13pick_with_key
FN:51,_RNvMNtCs393hpbhIDra_11lb_balancer6maglevNtB2_6Maglev11permutation
FN:36,_RNvMNtCs393hpbhIDra_11lb_balancer6maglevNtB2_6Maglev3new
FN:64,_RNvMNtCs393hpbhIDra_11lb_balancer6maglevNtB2_6Maglev8hash_str
FN:81,_RNvMNtCs393hpbhIDra_11lb_balancer6maglevNtB2_6Maglev8populate
FN:132,_RNvXs_NtCs393hpbhIDra_11lb_balancer6maglevNtB4_6MaglevNtB6_17KeyedLoadBalancer13pick_with_key
FN:86,_RNCNvMNtCs393hpbhIDra_11lb_balancer6maglevNtB4_6Maglev8populate0B6_
FN:148,_RNCNvXs_NtCs393hpbhIDra_11lb_balancer6maglevNtB6_6MaglevNtB8_17KeyedLoadBalancer13pick_with_key0B8_
FN:164,_RNvNtNtCs393hpbhIDra_11lb_balancer6maglev5tests13make_backends
FN:171,_RNvNtNtCs393hpbhIDra_11lb_balancer6maglev5testss_23test_consistent_mapping
FN:206,_RNvNtNtCs393hpbhIDra_11lb_balancer6maglev5testss_23test_minimal_disruption
FN:183,_RNvNtNtCs393hpbhIDra_11lb_balancer6maglev5testss_27test_detects_stale_identity
FN:166,_RNCNvNtNtCs393hpbhIDra_11lb_balancer6maglev5tests13make_backends0B7_
FN:224,_RNCNvNtNtCs393hpbhIDra_11lb_balancer6maglev5testss_23test_minimal_disruption0B7_
FNDA:103,_RNCNvMNtCslNnVhyqePKm_11lb_balancer6maglevNtB4_6Maglev8populate0B6_
FNDA:0,_RNCNvXs_NtCslNnVhyqePKm_11lb_balancer6maglevNtB6_6MaglevNtB8_17KeyedLoadBalancer13pick_with_key0B8_
FNDA:103,_RNvMNtCslNnVhyqePKm_11lb_balancer6maglevNtB2_6Maglev11permutation
FNDA:86,_RNvMNtCslNnVhyqePKm_11lb_balancer6maglevNtB2_6Maglev3new
FNDA:206,_RNvMNtCslNnVhyqePKm_11lb_balancer6maglevNtB2_6Maglev8hash_str
FNDA:86,_RNvMNtCslNnVhyqePKm_11lb_balancer6maglevNtB2_6Maglev8populate
FNDA:44539,_RNvXs_NtCslNnVhyqePKm_11lb_balancer6maglevNtB4_6MaglevNtB6_17KeyedLoadBalancer13pick_with_key
FNDA:17,_RNvMNtCs393hpbhIDra_11lb_balancer6maglevNtB2_6Maglev11permutation
FNDA:4,_RNvMNtCs393hpbhIDra_11lb_balancer6maglevNtB2_6Maglev3new
FNDA:34,_RNvMNtCs393hpbhIDra_11lb_balancer6maglevNtB2_6Maglev8hash_str
FNDA:4,_RNvMNtCs393hpbhIDra_11lb_balancer6maglevNtB2_6Maglev8populate
FNDA:32001,_RNvXs_NtCs393hpbhIDra_11lb_balancer6maglevNtB4_6MaglevNtB6_17KeyedLoadBalancer13pick_with_key
FNDA:17,_RNCNvMNtCs393hpbhIDra_11lb_balancer6maglevNtB4_6Maglev8populate0B6_
FNDA:0,_RNCNvXs_NtCs393hpbhIDra_11lb_balancer6maglevNtB6_6MaglevNtB8_17KeyedLoadBalancer13pick_with_key0B8_
FNDA:2,_RNvNtNtCs393hpbhIDra_11lb_balancer6maglev5tests13make_backends
FNDA:1,_RNvNtNtCs393hpbhIDra_11lb_balancer6maglev5testss_23test_consistent_mapping
FNDA:1,_RNvNtNtCs393hpbhIDra_11lb_balancer6maglev5testss_23test_minimal_disruption
FNDA:1,_RNvNtNtCs393hpbhIDra_11lb_balancer6maglev5testss_27test_detects_stale_identity
FNDA:10,_RNCNvNtNtCs393hpbhIDra_11lb_balancer6maglev5tests13make_backends0B7_
FNDA:10000,_RNCNvNtNtCs393hpbhIDra_11lb_balancer6maglev5testss_23test_minimal_disruption0B7_
FNF:13
FNH:12
DA:36,90
DA:37,90
DA:38,0
DA:39,90
DA:40,90
DA:41,90
DA:42,90
DA:43,90
DA:44,90
DA:45,90
DA:46,90
DA:47,90
DA:51,120
DA:52,120
DA:53,120
DA:54,120
DA:55,120
DA:56,120
DA:57,120
DA:58,120
DA:59,120
DA:60,120
DA:61,120
DA:64,240
DA:65,240
DA:66,4784
DA:67,4784
DA:68,4784
DA:69,4784
DA:70,4784
DA:72,240
DA:73,240
DA:74,240
DA:75,240
DA:76,240
DA:77,240
DA:78,240
DA:81,90
DA:82,90
DA:83,90
DA:84,90
DA:85,90
DA:86,120
DA:87,90
DA:88,90
DA:89,90
DA:90,90
DA:91,90
DA:93,5488818
DA:94,5898330
DA:95,5898330
DA:96,5898330
DA:97,0
DA:101,5898330
DA:102,5898330
DA:103,0
DA:105,5898330
DA:106,7585747
DA:107,1687417
DA:108,1687417
DA:109,1687417
DA:112,5898330
DA:113,5898330
DA:114,5898330
DA:115,5898330
DA:116,5898330
DA:117,5898330
DA:118,5898330
DA:119,5898330
DA:120,5898330
DA:121,90
DA:122,5898240
DA:126,90
DA:127,90
DA:132,76540
DA:133,76540
DA:134,0
DA:135,76540
DA:136,76540
DA:137,76540
DA:140,1
DA:141,76539
DA:142,76539
DA:143,76539
DA:144,76539
DA:145,76539
DA:146,76539
DA:147,76539
DA:148,76539
DA:150,76539
DA:151,0
DA:152,0
DA:153,0
DA:154,76539
DA:155,76539
DA:156,76539
DA:157,76540
DA:164,2
DA:165,2
DA:166,10
DA:167,2
DA:168,2
DA:171,1
DA:172,1
DA:173,1
DA:175,1001
DA:176,1000
DA:177,1000
DA:178,1000
DA:180,1
DA:183,1
DA:184,1
DA:185,1
DA:186,1
DA:187,1
DA:188,1
DA:189,1
DA:190,1
DA:191,1
DA:192,1
DA:193,1
DA:194,1
DA:195,1
DA:196,1
DA:197,1
DA:198,1
DA:199,1
DA:200,1
DA:201,0
DA:203,1
DA:206,1
DA:207,1
DA:208,1
DA:209,1
DA:210,1
DA:211,1
DA:212,1
DA:213,1
DA:214,1
DA:215,10000
DA:216,10000
DA:217,10000
DA:218,10000
DA:219,8015
DA:220,8015
DA:223,1
DA:224,10000
DA:225,1
DA:226,1
DA:227,1
DA:229,0
DA:231,1
DA:232,1
BRF:0
BRH:0
LF:157
LH:147
end_of_record
SF:/home/ubuntu/Code/ExpressGateway/crates/lb-balancer/src/p2c.rs
FN:19,_RNvMNtCslNnVhyqePKm_11lb_balancer3p2cINtB2_17PowerOfTwoChoicesNtNtNtCsimGHFe6hZgR_4rand4rngs3std6StdRngE3newCsjasYPSBLiTv_12balancer_p2c
FN:25,_RNvXs_NtCslNnVhyqePKm_11lb_balancer3p2cINtB4_17PowerOfTwoChoicesNtNtNtCsimGHFe6hZgR_4rand4rngs3std6StdRngENtB6_12LoadBalancer4pickCsjasYPSBLiTv_12balancer_p2c
FN:25,_RNvXININtCslNnVhyqePKm_11lb_balancer3p2cs_0pEINtB5_17PowerOfTwoChoicespENtB7_12LoadBalancer4pickB7_
FN:19,_RNvMNtCs393hpbhIDra_11lb_balancer3p2cINtB2_17PowerOfTwoChoicesNtNtNtCsimGHFe6hZgR_4rand4rngs3std6StdRngE3newB4_
FN:25,_RNvXs_NtCs393hpbhIDra_11lb_balancer3p2cINtB4_17PowerOfTwoChoicesNtNtNtCsimGHFe6hZgR_4rand4rngs3std6StdRngENtB6_12LoadBalancer4pickB6_
FN:75,_RNCNvNtNtCs393hpbhIDra_11lb_balancer3p2c5testss_26test_avoids_heavily_loaded0B7_
FN:61,_RNvNtCs393hpbhIDra_11lb_balancer3p2c15with_thread_rng
FN:72,_RNvNtNtCs393hpbhIDra_11lb_balancer3p2c5testss_26test_avoids_heavily_loaded
FNDA:3,_RNvMNtCslNnVhyqePKm_11lb_balancer3p2cINtB2_17PowerOfTwoChoicesNtNtNtCsimGHFe6hZgR_4rand4rngs3std6StdRngE3newCsjasYPSBLiTv_12balancer_p2c
FNDA:1002,_RNvXs_NtCslNnVhyqePKm_11lb_balancer3p2cINtB4_17PowerOfTwoChoicesNtNtNtCsimGHFe6hZgR_4rand4rngs3std6StdRngENtB6_12LoadBalancer4pickCsjasYPSBLiTv_12balancer_p2c
FNDA:0,_RNvXININtCslNnVhyqePKm_11lb_balancer3p2cs_0pEINtB5_17PowerOfTwoChoicespENtB7_12LoadBalancer4pickB7_
FNDA:1,_RNvMNtCs393hpbhIDra_11lb_balancer3p2cINtB2_17PowerOfTwoChoicesNtNtNtCsimGHFe6hZgR_4rand4rngs3std6StdRngE3newB4_
FNDA:1000,_RNvXs_NtCs393hpbhIDra_11lb_balancer3p2cINtB4_17PowerOfTwoChoicesNtNtNtCsimGHFe6hZgR_4rand4rngs3std6StdRngENtB6_12LoadBalancer4pickB6_
FNDA:4,_RNCNvNtNtCs393hpbhIDra_11lb_balancer3p2c5testss_26test_avoids_heavily_loaded0B7_
FNDA:0,_RNvNtCs393hpbhIDra_11lb_balancer3p2c15with_thread_rng
FNDA:1,_RNvNtNtCs393hpbhIDra_11lb_balancer3p2c5testss_26test_avoids_heavily_loaded
FNF:5
FNH:4
DA:19,4
DA:20,4
DA:21,4
DA:25,2002
DA:26,2002
DA:27,2002
DA:28,1
DA:29,2001
DA:30,2001
DA:31,1
DA:32,2000
DA:33,2000
DA:34,2000
DA:35,2000
DA:36,2000
DA:37,1000
DA:38,1000
DA:40,2000
DA:41,2000
DA:42,2000
DA:43,2000
DA:44,2000
DA:45,2000
DA:46,1330
DA:48,670
DA:52,0
DA:53,0
DA:54,0
DA:56,2002
DA:61,0
DA:62,0
DA:63,0
DA:72,1
DA:73,1
DA:74,1
DA:75,4
DA:76,1
DA:77,1
DA:78,1
DA:79,1
DA:80,1
DA:81,1
DA:82,1001
DA:83,1000
DA:84,1000
DA:85,1000
DA:86,1000
DA:89,1
DA:90,1
DA:91,1
DA:92,0
DA:94,1
BRF:0
BRH:0
LF:53
LH:46
end_of_record
SF:/home/ubuntu/Code/ExpressGateway/crates/lb-balancer/src/random.rs
FN:15,_RNvMNtCslNnVhyqePKm_11lb_balancer6randomINtB2_6RandomNtNtNtCsimGHFe6hZgR_4rand4rngs3std6StdRngE3newCsbGOyz7IUXrp_15balancer_random
FN:21,_RNvXs_NtCslNnVhyqePKm_11lb_balancer6randomINtB4_6RandomNtNtNtCsimGHFe6hZgR_4rand4rngs3std6StdRngENtB6_12LoadBalancer4pickCsbGOyz7IUXrp_15balancer_random
FN:21,_RNvXININtCslNnVhyqePKm_11lb_balancer6randoms_0pEINtB5_6RandompENtB7_12LoadBalancer4pickB7_
FN:32,_RNvNtCs393hpbhIDra_11lb_balancer6random15with_thread_rng
FN:15,_RNvMNtCs393hpbhIDra_11lb_balancer6randomINtB2_6RandomNtNtNtCsimGHFe6hZgR_4rand4rngs3std6StdRngE3newB4_
FN:21,_RNvXs_NtCs393hpbhIDra_11lb_balancer6randomINtB4_6RandomNtNtNtCsimGHFe6hZgR_4rand4rngs3std6StdRngENtB6_12LoadBalancer4pickB6_
FN:43,_RNvNtNtCs393hpbhIDra_11lb_balancer6random5testss_25test_uniform_distribution
FN:46,_RNCNvNtNtCs393hpbhIDra_11lb_balancer6random5testss_25test_uniform_distribution0B7_
FNDA:2,_RNvMNtCslNnVhyqePKm_11lb_balancer6randomINtB2_6RandomNtNtNtCsimGHFe6hZgR_4rand4rngs3std6StdRngE3newCsbGOyz7IUXrp_15balancer_random
FNDA:10001,_RNvXs_NtCslNnVhyqePKm_11lb_balancer6randomINtB4_6RandomNtNtNtCsimGHFe6hZgR_4rand4rngs3std6StdRngENtB6_12LoadBalancer4pickCsbGOyz7IUXrp_15balancer_random
FNDA:0,_RNvXININtCslNnVhyqePKm_11lb_balancer6randoms_0pEINtB5_6RandompENtB7_12LoadBalancer4pickB7_
FNDA:0,_RNvNtCs393hpbhIDra_11lb_balancer6random15with_thread_rng
FNDA:1,_RNvMNtCs393hpbhIDra_11lb_balancer6randomINtB2_6RandomNtNtNtCsimGHFe6hZgR_4rand4rngs3std6StdRngE3newB4_
FNDA:10000,_RNvXs_NtCs393hpbhIDra_11lb_balancer6randomINtB4_6RandomNtNtNtCsimGHFe6hZgR_4rand4rngs3std6StdRngENtB6_12LoadBalancer4pickB6_
FNDA:1,_RNvNtNtCs393hpbhIDra_11lb_balancer6random5testss_25test_uniform_distribution
FNDA:4,_RNCNvNtNtCs393hpbhIDra_11lb_balancer6random5testss_25test_uniform_distribution0B7_
FNF:5
FNH:4
DA:15,3
DA:16,3
DA:17,3
DA:21,20001
DA:22,20001
DA:23,1
DA:24,20000
DA:25,20000
DA:26,20000
DA:27,20001
DA:32,0
DA:33,0
DA:34,0
DA:43,1
DA:44,1
DA:45,1
DA:46,4
DA:47,1
DA:48,10001
DA:49,10000
DA:50,10000
DA:51,10000
DA:52,10000
DA:54,4
DA:55,4
DA:56,4
DA:57,0
DA:60,1
BRF:0
BRH:0
LF:29
LH:25
end_of_record
SF:/home/ubuntu/Code/ExpressGateway/crates/lb-balancer/src/ring_hash.rs
FN:50,_RNCNvMNtCslNnVhyqePKm_11lb_balancer9ring_hashNtB4_8RingHash3new0B6_
FN:107,_RNCNvXs_NtCslNnVhyqePKm_11lb_balancer9ring_hashNtB6_8RingHashNtB8_17KeyedLoadBalancer13pick_with_key0B8_
FN:121,_RNCNvXs_NtCslNnVhyqePKm_11lb_balancer9ring_hashNtB6_8RingHashNtB8_17KeyedLoadBalancer13pick_with_keys_0B8_
FN:60,_RNvMNtCslNnVhyqePKm_11lb_balancer9ring_hashNtB2_8RingHash10hash_vnode
FN:33,_RNvMNtCslNnVhyqePKm_11lb_balancer9ring_hashNtB2_8RingHash3new
FN:79,_RNvMNtCslNnVhyqePKm_11lb_balancer9ring_hashNtB2_8RingHash8hash_key
FN:91,_RNvXs_NtCslNnVhyqePKm_11lb_balancer9ring_hashNtB4_8RingHashNtB6_17KeyedLoadBalancer13pick_with_key
FN:50,_RNCNvMNtCs393hpbhIDra_11lb_balancer9ring_hashNtB4_8RingHash3new0B6_
FN:107,_RNCNvXs_NtCs393hpbhIDra_11lb_balancer9ring_hashNtB6_8RingHashNtB8_17KeyedLoadBalancer13pick_with_key0B8_
FN:121,_RNCNvXs_NtCs393hpbhIDra_11lb_balancer9ring_hashNtB6_8RingHashNtB8_17KeyedLoadBalancer13pick_with_keys_0B8_
FN:139,_RNCNvNtNtCs393hpbhIDra_11lb_balancer9ring_hash5tests13make_backends0B7_
FN:198,_RNCNvNtNtCs393hpbhIDra_11lb_balancer9ring_hash5testss_34test_minimal_disruption_on_removal0B7_
FN:137,_RNvNtNtCs393hpbhIDra_11lb_balancer9ring_hash5tests13make_backends
FN:144,_RNvNtNtCs393hpbhIDra_11lb_balancer9ring_hash5testss_15test_consistent
FN:156,_RNvNtNtCs393hpbhIDra_11lb_balancer9ring_hash5testss_27test_detects_stale_identity
FN:179,_RNvNtNtCs393hpbhIDra_11lb_balancer9ring_hash5testss_34test_minimal_disruption_on_removal
FN:60,_RNvMNtCs393hpbhIDra_11lb_balancer9ring_hashNtB2_8RingHash10hash_vnode
FN:33,_RNvMNtCs393hpbhIDra_11lb_balancer9ring_hashNtB2_8RingHash3new
FN:79,_RNvMNtCs393hpbhIDra_11lb_balancer9ring_hashNtB2_8RingHash8hash_key
FN:91,_RNvXs_NtCs393hpbhIDra_11lb_balancer9ring_hashNtB4_8RingHashNtB6_17KeyedLoadBalancer13pick_with_key
FNDA:54564,_RNCNvMNtCslNnVhyqePKm_11lb_balancer9ring_hashNtB4_8RingHash3new0B6_
FNDA:352000,_RNCNvXs_NtCslNnVhyqePKm_11lb_balancer9ring_hashNtB6_8RingHashNtB8_17KeyedLoadBalancer13pick_with_key0B8_
FNDA:0,_RNCNvXs_NtCslNnVhyqePKm_11lb_balancer9ring_hashNtB6_8RingHashNtB8_17KeyedLoadBalancer13pick_with_keys_0B8_
FNDA:2700,_RNvMNtCslNnVhyqePKm_11lb_balancer9ring_hashNtB2_8RingHash10hash_vnode
FNDA:4,_RNvMNtCslNnVhyqePKm_11lb_balancer9ring_hashNtB2_8RingHash3new
FNDA:32000,_RNvMNtCslNnVhyqePKm_11lb_balancer9ring_hashNtB2_8RingHash8hash_key
FNDA:32000,_RNvXs_NtCslNnVhyqePKm_11lb_balancer9ring_hashNtB4_8RingHashNtB6_17KeyedLoadBalancer13pick_with_key
FNDA:50664,_RNCNvMNtCs393hpbhIDra_11lb_balancer9ring_hashNtB4_8RingHash3new0B6_
FNDA:352000,_RNCNvXs_NtCs393hpbhIDra_11lb_balancer9ring_hashNtB6_8RingHashNtB8_17KeyedLoadBalancer13pick_with_key0B8_
FNDA:0,_RNCNvXs_NtCs393hpbhIDra_11lb_balancer9ring_hashNtB6_8RingHashNtB8_17KeyedLoadBalancer13pick_with_keys_0B8_
FNDA:10,_RNCNvNtNtCs393hpbhIDra_11lb_balancer9ring_hash5tests13make_backends0B7_
FNDA:10000,_RNCNvNtNtCs393hpbhIDra_11lb_balancer9ring_hash5testss_34test_minimal_disruption_on_removal0B7_
FNDA:2,_RNvNtNtCs393hpbhIDra_11lb_balancer9ring_hash5tests13make_backends
FNDA:1,_RNvNtNtCs393hpbhIDra_11lb_balancer9ring_hash5testss_15test_consistent
FNDA:1,_RNvNtNtCs393hpbhIDra_11lb_balancer9ring_hash5testss_27test_detects_stale_identity
FNDA:1,_RNvNtNtCs393hpbhIDra_11lb_balancer9ring_hash5testss_34test_minimal_disruption_on_removal
FNDA:2550,_RNvMNtCs393hpbhIDra_11lb_balancer9ring_hashNtB2_8RingHash10hash_vnode
FNDA:4,_RNvMNtCs393hpbhIDra_11lb_balancer9ring_hashNtB2_8RingHash3new
FNDA:32000,_RNvMNtCs393hpbhIDra_11lb_balancer9ring_hashNtB2_8RingHash8hash_key
FNDA:32001,_RNvXs_NtCs393hpbhIDra_11lb_balancer9ring_hashNtB4_8RingHashNtB6_17KeyedLoadBalancer13pick_with_key
FNF:13
FNH:12
DA:33,8
DA:34,8
DA:35,0
DA:36,8
DA:37,8
DA:38,8
DA:40,35
DA:41,5285
DA:42,5250
DA:43,5250
DA:44,5250
DA:45,5250
DA:46,5250
DA:47,5250
DA:50,105228
DA:51,8
DA:52,8
DA:53,8
DA:54,8
DA:55,8
DA:56,8
DA:57,8
DA:60,5250
DA:61,5250
DA:62,73500
DA:63,73500
DA:64,73500
DA:65,73500
DA:67,5250
DA:68,5250
DA:69,5250
DA:70,5250
DA:71,5250
DA:72,5250
DA:73,5250
DA:74,5250
DA:75,5250
DA:76,5250
DA:79,64000
DA:80,64000
DA:81,64000
DA:82,64000
DA:83,64000
DA:84,64000
DA:85,64000
DA:86,64000
DA:87,64000
DA:91,64001
DA:92,64001
DA:93,0
DA:94,64001
DA:95,64001
DA:96,64001
DA:98,1
DA:99,64000
DA:100,64000
DA:101,0
DA:102,64000
DA:103,64000
DA:104,64000
DA:107,704000
DA:108,0
DA:109,64000
DA:110,64000
DA:111,24
DA:113,63976
DA:118,64000
DA:119,64000
DA:120,64000
DA:121,64000
DA:123,64000
DA:124,0
DA:125,0
DA:126,0
DA:127,64000
DA:128,64000
DA:129,64000
DA:130,64001
DA:137,2
DA:138,2
DA:139,10
DA:140,2
DA:141,2
DA:144,1
DA:145,1
DA:146,1
DA:148,1001
DA:149,1000
DA:150,1000
DA:151,1000
DA:153,1
DA:156,1
DA:157,1
DA:158,1
DA:159,1
DA:160,1
DA:161,1
DA:162,1
DA:163,1
DA:164,1
DA:165,1
DA:166,1
DA:167,1
DA:168,1
DA:169,1
DA:170,1
DA:171,1
DA:172,1
DA:173,1
DA:174,0
DA:176,1
DA:179,1
DA:180,1
DA:181,1
DA:182,1
DA:183,1
DA:184,1
DA:185,1
DA:186,1
DA:187,1
DA:188,10000
DA:189,10000
DA:190,10000
DA:191,10000
DA:192,7879
DA:193,7879
DA:197,1
DA:198,10000
DA:199,1
DA:200,1
DA:201,1
DA:203,0
DA:205,1
DA:206,1
BRF:0
BRH:0
LF:139
LH:129
end_of_record
SF:/home/ubuntu/Code/ExpressGateway/crates/lb-balancer/src/round_robin.rs
FN:14,_RNvMNtCslNnVhyqePKm_11lb_balancer11round_robinNtB2_10RoundRobin3new
FN:20,_RNvXs_NtCslNnVhyqePKm_11lb_balancer11round_robinNtB4_10RoundRobinNtB6_12LoadBalancer4pick
FN:45,_RNvNtNtCs393hpbhIDra_11lb_balancer11round_robin5testss_19test_empty_backends
FN:35,_RNvNtNtCs393hpbhIDra_11lb_balancer11round_robin5testss_23test_cycles_through_all
FN:14,_RNvMNtCs393hpbhIDra_11lb_balancer11round_robinNtB2_10RoundRobin3new
FN:20,_RNvXs_NtCs393hpbhIDra_11lb_balancer11round_robinNtB4_10RoundRobinNtB6_12LoadBalancer4pick
FN:37,_RNCNvNtNtCs393hpbhIDra_11lb_balancer11round_robin5testss_23test_cycles_through_all0B7_
FNDA:19,_RNvMNtCslNnVhyqePKm_11lb_balancer11round_robinNtB2_10RoundRobin3new
FNDA:16311,_RNvXs_NtCslNnVhyqePKm_11lb_balancer11round_robinNtB4_10RoundRobinNtB6_12LoadBalancer4pick
FNDA:1,_RNvNtNtCs393hpbhIDra_11lb_balancer11round_robin5testss_19test_empty_backends
FNDA:1,_RNvNtNtCs393hpbhIDra_11lb_balancer11round_robin5testss_23test_cycles_through_all
FNDA:2,_RNvMNtCs393hpbhIDra_11lb_balancer11round_robinNtB2_10RoundRobin3new
FNDA:11,_RNvXs_NtCs393hpbhIDra_11lb_balancer11round_robinNtB4_10RoundRobinNtB6_12LoadBalancer4pick
FNDA:3,_RNCNvNtNtCs393hpbhIDra_11lb_balancer11round_robin5testss_23test_cycles_through_all0B7_
FNF:5
FNH:5
DA:14,21
DA:15,21
DA:16,21
DA:20,16322
DA:21,16322
DA:22,2
DA:23,16320
DA:24,16320
DA:25,16320
DA:26,16320
DA:27,16322
DA:35,1
DA:36,1
DA:37,3
DA:38,11
DA:39,10
DA:40,10
DA:42,1
DA:45,1
DA:46,1
DA:47,1
DA:48,1
DA:49,1
BRF:0
BRH:0
LF:24
LH:24
end_of_record
SF:/home/ubuntu/Code/ExpressGateway/crates/lb-balancer/src/session_affinity.rs
FN:24,_RNvMNtCslNnVhyqePKm_11lb_balancer16session_affinityNtB2_15SessionAffinity3mix
FN:19,_RNvMNtCslNnVhyqePKm_11lb_balancer16session_affinityNtB2_15SessionAffinity3new
FN:37,_RNvXs_NtCslNnVhyqePKm_11lb_balancer16session_affinityNtB4_15SessionAffinityNtB6_17KeyedLoadBalancer13pick_with_key
FN:55,_RNCNvNtNtCs393hpbhIDra_11lb_balancer16session_affinity5testss_11test_sticky0B7_
FN:69,_RNCNvNtNtCs393hpbhIDra_11lb_balancer16session_affinity5testss_26test_different_keys_spread0B7_
FN:24,_RNvMNtCs393hpbhIDra_11lb_balancer16session_affinityNtB2_15SessionAffinity3mix
FN:19,_RNvMNtCs393hpbhIDra_11lb_balancer16session_affinityNtB2_15SessionAffinity3new
FN:37,_RNvXs_NtCs393hpbhIDra_11lb_balancer16session_affinityNtB4_15SessionAffinityNtB6_17KeyedLoadBalancer13pick_with_key
FN:53,_RNvNtNtCs393hpbhIDra_11lb_balancer16session_affinity5testss_11test_sticky
FN:67,_RNvNtNtCs393hpbhIDra_11lb_balancer16session_affinity5testss_26test_different_keys_spread
FNDA:10606,_RNvMNtCslNnVhyqePKm_11lb_balancer16session_affinityNtB2_15SessionAffinity3mix
FNDA:3,_RNvMNtCslNnVhyqePKm_11lb_balancer16session_affinityNtB2_15SessionAffinity3new
FNDA:10607,_RNvXs_NtCslNnVhyqePKm_11lb_balancer16session_affinityNtB4_15SessionAffinityNtB6_17KeyedLoadBalancer13pick_with_key
FNDA:5,_RNCNvNtNtCs393hpbhIDra_11lb_balancer16session_affinity5testss_11test_sticky0B7_
FNDA:4,_RNCNvNtNtCs393hpbhIDra_11lb_balancer16session_affinity5testss_26test_different_keys_spread0B7_
FNDA:10505,_RNvMNtCs393hpbhIDra_11lb_balancer16session_affinityNtB2_15SessionAffinity3mix
FNDA:2,_RNvMNtCs393hpbhIDra_11lb_balancer16session_affinityNtB2_15SessionAffinity3new
FNDA:10505,_RNvXs_NtCs393hpbhIDra_11lb_balancer16session_affinityNtB4_15SessionAffinityNtB6_17KeyedLoadBalancer13pick_with_key
FNDA:1,_RNvNtNtCs393hpbhIDra_11lb_balancer16session_affinity5testss_11test_sticky
FNDA:1,_RNvNtNtCs393hpbhIDra_11lb_balancer16session_affinity5testss_26test_different_keys_spread
FNF:7
FNH:7
DA:19,5
DA:20,5
DA:21,5
DA:24,21111
DA:25,21111
DA:26,21111
DA:27,21111
DA:28,21111
DA:29,21111
DA:30,21111
DA:31,21111
DA:32,21111
DA:37,21112
DA:38,21112
DA:39,1
DA:40,21111
DA:41,21111
DA:42,21111
DA:43,21111
DA:44,21111
DA:45,21112
DA:53,1
DA:54,1
DA:55,5
DA:57,6
DA:58,5
DA:59,505
DA:60,500
DA:61,500
DA:64,1
DA:67,1
DA:68,1
DA:69,4
DA:70,1
DA:71,1
DA:72,10001
DA:73,10000
DA:74,10000
DA:75,10000
DA:76,10000
DA:78,4
DA:79,4
DA:80,4
DA:81,0
DA:84,1
BRF:0
BRH:0
LF:47
LH:46
end_of_record
SF:/home/ubuntu/Code/ExpressGateway/crates/lb-balancer/src/weighted_random.rs
FN:27,_RNCNvXs_NtCslNnVhyqePKm_11lb_balancer15weighted_randomINtB6_14WeightedRandomNtNtNtCsimGHFe6hZgR_4rand4rngs3std6StdRngENtB8_12LoadBalancer4pick0CskGDaJ4aFObT_24balancer_weighted_random
FN:16,_RNvMNtCslNnVhyqePKm_11lb_balancer15weighted_randomINtB2_14WeightedRandomNtNtNtCsimGHFe6hZgR_4rand4rngs3std6StdRngE3newCskGDaJ4aFObT_24balancer_weighted_random
FN:22,_RNvXs_NtCslNnVhyqePKm_11lb_balancer15weighted_randomINtB4_14WeightedRandomNtNtNtCsimGHFe6hZgR_4rand4rngs3std6StdRngENtB6_12LoadBalancer4pickCskGDaJ4aFObT_24balancer_weighted_random
FN:27,_RNCNvXININtCslNnVhyqePKm_11lb_balancer15weighted_randoms_0pEINtB7_14WeightedRandompENtB9_12LoadBalancer4pick0B9_
FN:22,_RNvXININtCslNnVhyqePKm_11lb_balancer15weighted_randoms_0pEINtB5_14WeightedRandompENtB7_12LoadBalancer4pickB7_
FN:27,_RNCNvXs_NtCs393hpbhIDra_11lb_balancer15weighted_randomINtB6_14WeightedRandomNtNtNtCsimGHFe6hZgR_4rand4rngs3std6StdRngENtB8_12LoadBalancer4pick0B8_
FN:16,_RNvMNtCs393hpbhIDra_11lb_balancer15weighted_randomINtB2_14WeightedRandomNtNtNtCsimGHFe6hZgR_4rand4rngs3std6StdRngE3newB4_
FN:22,_RNvXs_NtCs393hpbhIDra_11lb_balancer15weighted_randomINtB4_14WeightedRandomNtNtNtCsimGHFe6hZgR_4rand4rngs3std6StdRngENtB6_12LoadBalancer4pickB6_
FN:49,_RNvNtCs393hpbhIDra_11lb_balancer15weighted_random15with_thread_rng
FN:60,_RNvNtNtCs393hpbhIDra_11lb_balancer15weighted_random5testss_26test_weighted_distribution
FNDA:30002,_RNCNvXs_NtCslNnVhyqePKm_11lb_balancer15weighted_randomINtB6_14WeightedRandomNtNtNtCsimGHFe6hZgR_4rand4rngs3std6StdRngENtB8_12LoadBalancer4pick0CskGDaJ4aFObT_24balancer_weighted_random
FNDA:2,_RNvMNtCslNnVhyqePKm_11lb_balancer15weighted_randomINtB2_14WeightedRandomNtNtNtCsimGHFe6hZgR_4rand4rngs3std6StdRngE3newCskGDaJ4aFObT_24balancer_weighted_random
FNDA:10001,_RNvXs_NtCslNnVhyqePKm_11lb_balancer15weighted_randomINtB4_14WeightedRandomNtNtNtCsimGHFe6hZgR_4rand4rngs3std6StdRngENtB6_12LoadBalancer4pickCskGDaJ4aFObT_24balancer_weighted_random
FNDA:0,_RNCNvXININtCslNnVhyqePKm_11lb_balancer15weighted_randoms_0pEINtB7_14WeightedRandompENtB9_12LoadBalancer4pick0B9_
FNDA:0,_RNvXININtCslNnVhyqePKm_11lb_balancer15weighted_randoms_0pEINtB5_14WeightedRandompENtB7_12LoadBalancer4pickB7_
FNDA:30000,_RNCNvXs_NtCs393hpbhIDra_11lb_balancer15weighted_randomINtB6_14WeightedRandomNtNtNtCsimGHFe6hZgR_4rand4rngs3std6StdRngENtB8_12LoadBalancer4pick0B8_
FNDA:1,_RNvMNtCs393hpbhIDra_11lb_balancer15weighted_randomINtB2_14WeightedRandomNtNtNtCsimGHFe6hZgR_4rand4rngs3std6StdRngE3newB4_
FNDA:10000,_RNvXs_NtCs393hpbhIDra_11lb_balancer15weighted_randomINtB4_14WeightedRandomNtNtNtCsimGHFe6hZgR_4rand4rngs3std6StdRngENtB6_12LoadBalancer4pickB6_
FNDA:0,_RNvNtCs393hpbhIDra_11lb_balancer15weighted_random15with_thread_rng
FNDA:1,_RNvNtNtCs393hpbhIDra_11lb_balancer15weighted_random5testss_26test_weighted_distribution
FNF:5
FNH:4
DA:16,3
DA:17,3
DA:18,3
DA:22,20001
DA:23,20001
DA:24,0
DA:25,20001
DA:26,20001
DA:27,60002
DA:28,20001
DA:29,1
DA:30,20000
DA:31,20000
DA:32,20000
DA:33,28146
DA:34,28146
DA:35,28146
DA:36,20000
DA:37,8146
DA:38,8146
DA:43,0
DA:44,20001
DA:49,0
DA:50,0
DA:51,0
DA:60,1
DA:61,1
DA:62,1
DA:63,1
DA:64,1
DA:65,1
DA:66,1
DA:67,1
DA:68,1
DA:69,10001
DA:70,10000
DA:71,10000
DA:72,10000
DA:73,10000
DA:76,1
DA:77,1
DA:78,1
DA:79,1
BRF:0
BRH:0
LF:44
LH:39
end_of_record
SF:/home/ubuntu/Code/ExpressGateway/crates/lb-balancer/src/weighted_round_robin.rs
FN:39,_RNCNvMNtCslNnVhyqePKm_11lb_balancer20weighted_round_robinNtB4_18WeightedRoundRobin12sync_weights0B6_
FN:43,_RNCNvMNtCslNnVhyqePKm_11lb_balancer20weighted_round_robinNtB4_18WeightedRoundRobin12sync_weightss_0B6_
FN:62,_RNCNvXs0_NtCslNnVhyqePKm_11lb_balancer20weighted_round_robinNtB7_18WeightedRoundRobinNtB9_12LoadBalancer4pick0B9_
FN:33,_RNvMNtCslNnVhyqePKm_11lb_balancer20weighted_round_robinNtB2_18WeightedRoundRobin12sync_weights
FN:24,_RNvMNtCslNnVhyqePKm_11lb_balancer20weighted_round_robinNtB2_18WeightedRoundRobin3new
FN:55,_RNvXs0_NtCslNnVhyqePKm_11lb_balancer20weighted_round_robinNtB5_18WeightedRoundRobinNtB7_12LoadBalancer4pick
FN:49,_RNvXs_NtCslNnVhyqePKm_11lb_balancer20weighted_round_robinNtB4_18WeightedRoundRobinNtNtCs2va5m0jqTTM_4core7default7Default7default
FN:116,_RNvNtNtCs393hpbhIDra_11lb_balancer20weighted_round_robin5testss_20test_all_zero_weight
FN:96,_RNvNtNtCs393hpbhIDra_11lb_balancer20weighted_round_robin5testss_24test_weight_proportional
FN:124,_RNvNtNtCs393hpbhIDra_11lb_balancer20weighted_round_robin5testss_33test_backend_removal_resets_state
FN:49,_RNvXs_NtCs393hpbhIDra_11lb_balancer20weighted_round_robinNtB4_18WeightedRoundRobinNtNtCs2va5m0jqTTM_4core7default7Default7default
FN:33,_RNvMNtCs393hpbhIDra_11lb_balancer20weighted_round_robinNtB2_18WeightedRoundRobin12sync_weights
FN:24,_RNvMNtCs393hpbhIDra_11lb_balancer20weighted_round_robinNtB2_18WeightedRoundRobin3new
FN:55,_RNvXs0_NtCs393hpbhIDra_11lb_balancer20weighted_round_robinNtB5_18WeightedRoundRobinNtB7_12LoadBalancer4pick
FN:39,_RNCNvMNtCs393hpbhIDra_11lb_balancer20weighted_round_robinNtB4_18WeightedRoundRobin12sync_weights0B6_
FN:43,_RNCNvMNtCs393hpbhIDra_11lb_balancer20weighted_round_robinNtB4_18WeightedRoundRobin12sync_weightss_0B6_
FN:62,_RNCNvXs0_NtCs393hpbhIDra_11lb_balancer20weighted_round_robinNtB7_18WeightedRoundRobinNtB9_12LoadBalancer4pick0B9_
FNDA:307,_RNCNvMNtCslNnVhyqePKm_11lb_balancer20weighted_round_robinNtB4_18WeightedRoundRobin12sync_weights0B6_
FNDA:7,_RNCNvMNtCslNnVhyqePKm_11lb_balancer20weighted_round_robinNtB4_18WeightedRoundRobin12sync_weightss_0B6_
FNDA:314,_RNCNvXs0_NtCslNnVhyqePKm_11lb_balancer20weighted_round_robinNtB7_18WeightedRoundRobinNtB9_12LoadBalancer4pick0B9_
FNDA:107,_RNvMNtCslNnVhyqePKm_11lb_balancer20weighted_round_robinNtB2_18WeightedRoundRobin12sync_weights
FNDA:3,_RNvMNtCslNnVhyqePKm_11lb_balancer20weighted_round_robinNtB2_18WeightedRoundRobin3new
FNDA:107,_RNvXs0_NtCslNnVhyqePKm_11lb_balancer20weighted_round_robinNtB5_18WeightedRoundRobinNtB7_12LoadBalancer4pick
FNDA:0,_RNvXs_NtCslNnVhyqePKm_11lb_balancer20weighted_round_robinNtB4_18WeightedRoundRobinNtNtCs2va5m0jqTTM_4core7default7Default7default
FNDA:1,_RNvNtNtCs393hpbhIDra_11lb_balancer20weighted_round_robin5testss_20test_all_zero_weight
FNDA:1,_RNvNtNtCs393hpbhIDra_11lb_balancer20weighted_round_robin5testss_24test_weight_proportional
FNDA:1,_RNvNtNtCs393hpbhIDra_11lb_balancer20weighted_round_robin5testss_33test_backend_removal_resets_state
FNDA:0,_RNvXs_NtCs393hpbhIDra_11lb_balancer20weighted_round_robinNtB4_18WeightedRoundRobinNtNtCs2va5m0jqTTM_4core7default7Default7default
FNDA:181,_RNvMNtCs393hpbhIDra_11lb_balancer20weighted_round_robinNtB2_18WeightedRoundRobin12sync_weights
FNDA:3,_RNvMNtCs393hpbhIDra_11lb_balancer20weighted_round_robinNtB2_18WeightedRoundRobin3new
FNDA:181,_RNvXs0_NtCs393hpbhIDra_11lb_balancer20weighted_round_robinNtB5_18WeightedRoundRobinNtB7_12LoadBalancer4pick
FNDA:472,_RNCNvMNtCs393hpbhIDra_11lb_balancer20weighted_round_robinNtB4_18WeightedRoundRobin12sync_weights0B6_
FNDA:10,_RNCNvMNtCs393hpbhIDra_11lb_balancer20weighted_round_robinNtB4_18WeightedRoundRobin12sync_weightss_0B6_
FNDA:482,_RNCNvXs0_NtCs393hpbhIDra_11lb_balancer20weighted_round_robinNtB7_18WeightedRoundRobinNtB9_12LoadBalancer4pick0B9_
FNF:10
FNH:9
DA:24,6
DA:25,6
DA:26,6
DA:27,6
DA:28,6
DA:29,6
DA:33,288
DA:34,288
DA:35,281
DA:36,281
DA:37,281
DA:38,281
DA:39,779
DA:41,288
DA:42,7
DA:43,17
DA:44,281
DA:45,288
DA:49,0
DA:50,0
DA:51,0
DA:55,288
DA:56,288
DA:57,0
DA:58,288
DA:59,288
DA:60,288
DA:61,288
DA:62,796
DA:63,288
DA:64,2
DA:65,286
DA:66,286
DA:67,286
DA:68,286
DA:69,286
DA:71,792
DA:72,792
DA:73,792
DA:74,792
DA:75,792
DA:76,423
DA:77,423
DA:78,423
DA:79,0
DA:83,286
DA:84,286
DA:85,286
DA:87,286
DA:88,288
DA:96,1
DA:97,1
DA:98,1
DA:99,1
DA:100,1
DA:101,1
DA:102,1
DA:103,1
DA:104,101
DA:105,100
DA:106,100
DA:107,100
DA:108,100
DA:110,1
DA:111,1
DA:112,1
DA:113,1
DA:116,1
DA:117,1
DA:118,1
DA:119,1
DA:120,1
DA:124,1
DA:125,1
DA:126,1
DA:127,1
DA:128,1
DA:129,1
DA:130,1
DA:131,1
DA:132,1
DA:133,21
DA:134,20
DA:135,20
DA:139,1
DA:140,1
DA:141,61
DA:142,60
DA:143,60
DA:144,60
DA:145,60
DA:146,60
DA:150,1
DA:151,1
DA:153,0
DA:155,1
DA:156,1
DA:158,0
DA:160,1
BRF:0
BRH:0
LF:102
LH:95
end_of_record
SF:/home/ubuntu/Code/ExpressGateway/crates/lb-config/src/lib.rs
FN:364,_RNCNCNvMs_Cse7usOLM32IG_9lb_configNtB8_14ListenerConfig25effective_drain_jitter_ms00B8_
FN:350,_RNCNCNvMs_Cse7usOLM32IG_9lb_configNtB8_14ListenerConfig26effective_drain_timeout_ms00B8_
FN:1296,_RNCNvCse7usOLM32IG_9lb_config16validate_runtime0B3_
FN:1647,_RNCNvCse7usOLM32IG_9lb_config21validate_tls_listener0B3_
FN:1281,_RNCNvCse7usOLM32IG_9lb_config22validate_observability0B3_
FN:1692,_RNCNvCse7usOLM32IG_9lb_config22validate_quic_listener0B3_
FN:362,_RNCNvMs_Cse7usOLM32IG_9lb_configNtB6_14ListenerConfig25effective_drain_jitter_ms0B6_
FN:349,_RNCNvMs_Cse7usOLM32IG_9lb_configNtB6_14ListenerConfig26effective_drain_timeout_ms0B6_
FN:1221,_RNvCse7usOLM32IG_9lb_config12parse_config
FN:1212,_RNvCse7usOLM32IG_9lb_config14default_weight
FN:1231,_RNvCse7usOLM32IG_9lb_config15validate_config
FN:1290,_RNvCse7usOLM32IG_9lb_config16validate_runtime
FN:1417,_RNvCse7usOLM32IG_9lb_config17validate_listener
FN:522,_RNvCse7usOLM32IG_9lb_config18default_per_ip_cap
FN:756,_RNvCse7usOLM32IG_9lb_config18default_ws_enabled
FN:1499,_RNvCse7usOLM32IG_9lb_config19validate_grpc_block
FN:663,_RNvCse7usOLM32IG_9lb_config20default_grpc_enabled
FN:1781,_RNvCse7usOLM32IG_9lb_config20validate_passthrough
FN:1591,_RNvCse7usOLM32IG_9lb_config21validate_backend_list
FN:1675,_RNvCse7usOLM32IG_9lb_config21validate_h1s_listener
FN:1646,_RNvCse7usOLM32IG_9lb_config21validate_tls_listener
FN:913,_RNvCse7usOLM32IG_9lb_config22default_ticket_overlap
FN:1565,_RNvCse7usOLM32IG_9lb_config22validate_http_timeouts
FN:1273,_RNvCse7usOLM32IG_9lb_config22validate_observability
FN:1691,_RNvCse7usOLM32IG_9lb_config22validate_quic_listener
FN:833,_RNvCse7usOLM32IG_9lb_config23default_alt_svc_max_age
FN:874,_RNvCse7usOLM32IG_9lb_config23default_body_timeout_ms
FN:882,_RNvCse7usOLM32IG_9lb_config23default_head_timeout_ms
FN:909,_RNvCse7usOLM32IG_9lb_config23default_ticket_interval
FN:760,_RNvCse7usOLM32IG_9lb_config23default_ws_idle_timeout
FN:1615,_RNvCse7usOLM32IG_9lb_config23validate_backend_h3_tls
FN:1208,_RNvCse7usOLM32IG_9lb_config24default_backend_protocol
FN:470,_RNvCse7usOLM32IG_9lb_config24default_drain_timeout_ms
FN:878,_RNvCse7usOLM32IG_9lb_config24default_total_timeout_ms
FN:1204,_RNvCse7usOLM32IG_9lb_config24default_verify_peer_true
FN:1520,_RNvCse7usOLM32IG_9lb_config24validate_websocket_block
FN:667,_RNvCse7usOLM32IG_9lb_config25default_grpc_max_deadline
FN:870,_RNvCse7usOLM32IG_9lb_config25default_header_timeout_ms
FN:514,_RNvCse7usOLM32IG_9lb_config26default_connect_timeout_ms
FN:490,_RNvCse7usOLM32IG_9lb_config27default_readiness_settle_ms
FN:764,_RNvCse7usOLM32IG_9lb_config27default_ws_max_message_size
FN:499,_RNvCse7usOLM32IG_9lb_config28default_handshake_timeout_ms
FN:961,_RNvCse7usOLM32IG_9lb_config28default_quic_idle_timeout_ms
FN:965,_RNvCse7usOLM32IG_9lb_config29default_quic_recv_udp_payload
FN:323,_RNvCse7usOLM32IG_9lb_config30default_max_keepalive_requests
FN:1150,_RNvCse7usOLM32IG_9lb_config30default_passthrough_mint_retry
FN:671,_RNvCse7usOLM32IG_9lb_config31default_grpc_health_synthesized
FN:506,_RNvCse7usOLM32IG_9lb_config32default_max_inflight_connections
FN:1025,_RNvCse7usOLM32IG_9lb_config33default_raw_proxy_dgram_queue_cap
FN:442,_RNvCse7usOLM32IG_9lb_config34default_watchdog_sweep_interval_ms
FN:1031,_RNvCse7usOLM32IG_9lb_config35default_raw_proxy_max_relay_streams
FN:430,_RNvCse7usOLM32IG_9lb_config35default_watchdog_header_deadline_ms
FN:1129,_RNvCse7usOLM32IG_9lb_config36default_passthrough_per_flow_backlog
FN:768,_RNvCse7usOLM32IG_9lb_config37default_ws_ping_rate_limit_per_window
FN:776,_RNvCse7usOLM32IG_9lb_config37default_ws_read_frame_timeout_seconds
FN:436,_RNvCse7usOLM32IG_9lb_config38default_watchdog_body_progress_min_bps
FN:1142,_RNvCse7usOLM32IG_9lb_config39default_passthrough_max_dcid_len_routed
FN:1122,_RNvCse7usOLM32IG_9lb_config39default_passthrough_min_client_dcid_len
FN:1157,_RNvCse7usOLM32IG_9lb_config40default_passthrough_flow_idle_timeout_ms
FN:1116,_RNvCse7usOLM32IG_9lb_config40default_passthrough_max_quic_connections
FN:317,_RNvCse7usOLM32IG_9lb_config40default_xdp_new_flow_cap_per_sec_per_cpu
FN:772,_RNvCse7usOLM32IG_9lb_config41default_ws_ping_rate_limit_window_seconds
FN:1136,_RNvCse7usOLM32IG_9lb_config46default_passthrough_audit_throttle_window_secs
FN:333,_RNvMCse7usOLM32IG_9lb_configNtB2_13RuntimeConfig25effective_drain_jitter_ms
FN:361,_RNvMs_Cse7usOLM32IG_9lb_configNtB4_14ListenerConfig25effective_drain_jitter_ms
FN:348,_RNvMs_Cse7usOLM32IG_9lb_configNtB4_14ListenerConfig26effective_drain_timeout_ms
FN:419,_RNvXs0_Cse7usOLM32IG_9lb_configNtB5_21RuntimeWatchdogConfigNtNtCs2va5m0jqTTM_4core7default7Default7default
FN:654,_RNvXs1_Cse7usOLM32IG_9lb_configNtB5_18GrpcListenerConfigNtNtCs2va5m0jqTTM_4core7default7Default7default
FN:740,_RNvXs2_Cse7usOLM32IG_9lb_configNtB5_15WebsocketConfigNtNtCs2va5m0jqTTM_4core7default7Default7default
FN:860,_RNvXs3_Cse7usOLM32IG_9lb_configNtB5_18HttpTimeoutsConfigNtNtCs2va5m0jqTTM_4core7default7Default7default
FN:419,_RNvXs0_Cs9IWU4hPPZlm_9lb_configNtB5_21RuntimeWatchdogConfigNtNtCs2va5m0jqTTM_4core7default7Default7default
FN:364,_RNCNCNvMs_Cs9IWU4hPPZlm_9lb_configNtB8_14ListenerConfig25effective_drain_jitter_ms00B8_
FN:350,_RNCNCNvMs_Cs9IWU4hPPZlm_9lb_configNtB8_14ListenerConfig26effective_drain_timeout_ms00B8_
FN:1296,_RNCNvCs9IWU4hPPZlm_9lb_config16validate_runtime0B3_
FN:1647,_RNCNvCs9IWU4hPPZlm_9lb_config21validate_tls_listener0B3_
FN:1281,_RNCNvCs9IWU4hPPZlm_9lb_config22validate_observability0B3_
FN:1692,_RNCNvCs9IWU4hPPZlm_9lb_config22validate_quic_listener0B3_
FN:362,_RNCNvMs_Cs9IWU4hPPZlm_9lb_configNtB6_14ListenerConfig25effective_drain_jitter_ms0B6_
FN:349,_RNCNvMs_Cs9IWU4hPPZlm_9lb_configNtB6_14ListenerConfig26effective_drain_timeout_ms0B6_
FN:2929,_RNvNtCs9IWU4hPPZlm_9lb_config5tests12base_runtime
FN:2949,_RNvNtCs9IWU4hPPZlm_9lb_config5tests12min_listener
FN:3100,_RNvNtCs9IWU4hPPZlm_9lb_config5tests6pt_min
FN:1939,_RNvNtCs9IWU4hPPZlm_9lb_config5testss_11validate_ok
FN:1836,_RNvNtCs9IWU4hPPZlm_9lb_config5testss_16parse_valid_toml
FN:1849,_RNvNtCs9IWU4hPPZlm_9lb_config5testss_18parse_invalid_toml
FN:2016,_RNvNtCs9IWU4hPPZlm_9lb_config5testss_18parse_tls_listener
FN:2153,_RNvNtCs9IWU4hPPZlm_9lb_config5testss_19parse_quic_listener
FN:1913,_RNvNtCs9IWU4hPPZlm_9lb_config5testss_22validate_empty_address
FN:1900,_RNvNtCs9IWU4hPPZlm_9lb_config5testss_24validate_empty_listeners
FN:2601,_RNvNtCs9IWU4hPPZlm_9lb_config5testss_25parse_runtime_xdp_enabled
FN:1998,_RNvNtCs9IWU4hPPZlm_9lb_config5testss_26parse_config_with_backends
FN:2876,_RNvNtCs9IWU4hPPZlm_9lb_config5testss_28parse_h1s_listener_with_grpc
FN:1965,_RNvNtCs9IWU4hPPZlm_9lb_config5testss_30validate_empty_backend_address
FN:2522,_RNvNtCs9IWU4hPPZlm_9lb_config5testss_30validate_h1s_with_tls_block_ok
FN:2738,_RNvNtCs9IWU4hPPZlm_9lb_config5testss_32parse_h1_listener_with_websocket
FN:2719,_RNvNtCs9IWU4hPPZlm_9lb_config5testss_32parse_observability_metrics_bind
FN:3117,_RNvNtCs9IWU4hPPZlm_9lb_config5testss_32passthrough_only_config_is_valid
FN:2204,_RNvNtCs9IWU4hPPZlm_9lb_config5testss_32validate_quic_small_mtu_rejected
FN:3176,_RNvNtCs9IWU4hPPZlm_9lb_config5testss_34parse_passthrough_block_round_trip
FN:2065,_RNvNtCs9IWU4hPPZlm_9lb_config5testss_34validate_unknown_protocol_rejected
FN:3134,_RNvNtCs9IWU4hPPZlm_9lb_config5testss_35passthrough_empty_backends_rejected
FN:2489,_RNvNtCs9IWU4hPPZlm_9lb_config5testss_35validate_h1_with_tls_block_rejected
FN:2039,_RNvNtCs9IWU4hPPZlm_9lb_config5testss_35validate_tls_without_block_rejected
FN:2563,_RNvNtCs9IWU4hPPZlm_9lb_config5testss_35validate_zero_http_timeout_rejected
FN:1859,_RNvNtCs9IWU4hPPZlm_9lb_config5testss_36raw_proxy_minimal_toml_defaults_caps
FN:2178,_RNvNtCs9IWU4hPPZlm_9lb_config5testss_36validate_quic_without_block_rejected
FN:2122,_RNvNtCs9IWU4hPPZlm_9lb_config5testss_37validate_tls_empty_cert_path_rejected
FN:2819,_RNvNtCs9IWU4hPPZlm_9lb_config5testss_38validate_websocket_on_quic_listener_ok
FN:2455,_RNvNtCs9IWU4hPPZlm_9lb_config5testss_39validate_h1s_without_tls_block_rejected
FN:3167,_RNvNtCs9IWU4hPPZlm_9lb_config5testss_40passthrough_defaults_match_owner_rulings
FN:3071,_RNvNtCs9IWU4hPPZlm_9lb_config5testss_40validate_observability_bad_bind_rejected
FN:2991,_RNvNtCs9IWU4hPPZlm_9lb_config5testss_41ops02_jitter_default_is_quarter_of_budget
FN:3008,_RNvNtCs9IWU4hPPZlm_9lb_config5testss_41ops10_per_listener_timeout_range_rejected
FN:2767,_RNvNtCs9IWU4hPPZlm_9lb_config5testss_42parse_websocket_h2_extended_connect_opt_in
FN:2848,_RNvNtCs9IWU4hPPZlm_9lb_config5testss_42parse_websocket_h3_extended_connect_opt_in
FN:2393,_RNvNtCs9IWU4hPPZlm_9lb_config5testss_42validate_backend_unknown_protocol_rejected
FN:2902,_RNvNtCs9IWU4hPPZlm_9lb_config5testss_42validate_grpc_on_non_h1s_listener_rejected
FN:2426,_RNvNtCs9IWU4hPPZlm_9lb_config5testss_43parse_h1_listener_with_alt_svc_and_timeouts
FN:2974,_RNvNtCs9IWU4hPPZlm_9lb_config5testss_44ops10_override_takes_precedence_over_runtime
FN:2241,_RNvNtCs9IWU4hPPZlm_9lb_config5testss_45validate_quic_h3_terminate_with_h1_backend_ok
FN:3045,_RNvNtCs9IWU4hPPZlm_9lb_config5testss_46ops02_gateway_jitter_exceeding_budget_rejected
FN:2707,_RNvNtCs9IWU4hPPZlm_9lb_config5testss_46runtime_absent_keeps_parse_backward_compatible
FN:2622,_RNvNtCs9IWU4hPPZlm_9lb_config5testss_46runtime_xdp_enabled_without_interface_rejected
FN:2286,_RNvNtCs9IWU4hPPZlm_9lb_config5testss_46validate_quic_raw_proxy_with_backends_rejected
FN:2665,_RNvNtCs9IWU4hPPZlm_9lb_config5testss_47runtime_xdp_disabled_does_not_require_interface
FN:3149,_RNvNtCs9IWU4hPPZlm_9lb_config5testss_48passthrough_min_client_dcid_below_floor_rejected
FN:2091,_RNvNtCs9IWU4hPPZlm_9lb_config5testss_48validate_tls_block_without_tls_protocol_rejected
FN:2790,_RNvNtCs9IWU4hPPZlm_9lb_config5testss_48validate_websocket_on_non_http_listener_rejected
FN:3063,_RNvNtCs9IWU4hPPZlm_9lb_config5testss_49ops11_readiness_settle_default_is_kubelet_aligned
FN:3023,_RNvNtCs9IWU4hPPZlm_9lb_config5testss_57ops02_listener_jitter_exceeding_inherited_budget_rejected
FN:2339,_RNvNtCs9IWU4hPPZlm_9lb_config5testss_58validate_quic_h3_terminate_mixed_backend_families_rejected
FN:1221,_RNvCs9IWU4hPPZlm_9lb_config12parse_config
FN:1212,_RNvCs9IWU4hPPZlm_9lb_config14default_weight
FN:1231,_RNvCs9IWU4hPPZlm_9lb_config15validate_config
FN:1290,_RNvCs9IWU4hPPZlm_9lb_config16validate_runtime
FN:1417,_RNvCs9IWU4hPPZlm_9lb_config17validate_listener
FN:522,_RNvCs9IWU4hPPZlm_9lb_config18default_per_ip_cap
FN:756,_RNvCs9IWU4hPPZlm_9lb_config18default_ws_enabled
FN:1499,_RNvCs9IWU4hPPZlm_9lb_config19validate_grpc_block
FN:663,_RNvCs9IWU4hPPZlm_9lb_config20default_grpc_enabled
FN:1781,_RNvCs9IWU4hPPZlm_9lb_config20validate_passthrough
FN:1591,_RNvCs9IWU4hPPZlm_9lb_config21validate_backend_list
FN:1675,_RNvCs9IWU4hPPZlm_9lb_config21validate_h1s_listener
FN:1646,_RNvCs9IWU4hPPZlm_9lb_config21validate_tls_listener
FN:913,_RNvCs9IWU4hPPZlm_9lb_config22default_ticket_overlap
FN:1565,_RNvCs9IWU4hPPZlm_9lb_config22validate_http_timeouts
FN:1273,_RNvCs9IWU4hPPZlm_9lb_config22validate_observability
FN:1691,_RNvCs9IWU4hPPZlm_9lb_config22validate_quic_listener
FN:833,_RNvCs9IWU4hPPZlm_9lb_config23default_alt_svc_max_age
FN:874,_RNvCs9IWU4hPPZlm_9lb_config23default_body_timeout_ms
FN:882,_RNvCs9IWU4hPPZlm_9lb_config23default_head_timeout_ms
FN:909,_RNvCs9IWU4hPPZlm_9lb_config23default_ticket_interval
FN:760,_RNvCs9IWU4hPPZlm_9lb_config23default_ws_idle_timeout
FN:1615,_RNvCs9IWU4hPPZlm_9lb_config23validate_backend_h3_tls
FN:1208,_RNvCs9IWU4hPPZlm_9lb_config24default_backend_protocol
FN:470,_RNvCs9IWU4hPPZlm_9lb_config24default_drain_timeout_ms
FN:878,_RNvCs9IWU4hPPZlm_9lb_config24default_total_timeout_ms
FN:1204,_RNvCs9IWU4hPPZlm_9lb_config24default_verify_peer_true
FN:1520,_RNvCs9IWU4hPPZlm_9lb_config24validate_websocket_block
FN:667,_RNvCs9IWU4hPPZlm_9lb_config25default_grpc_max_deadline
FN:870,_RNvCs9IWU4hPPZlm_9lb_config25default_header_timeout_ms
FN:514,_RNvCs9IWU4hPPZlm_9lb_config26default_connect_timeout_ms
FN:490,_RNvCs9IWU4hPPZlm_9lb_config27default_readiness_settle_ms
FN:764,_RNvCs9IWU4hPPZlm_9lb_config27default_ws_max_message_size
FN:499,_RNvCs9IWU4hPPZlm_9lb_config28default_handshake_timeout_ms
FN:961,_RNvCs9IWU4hPPZlm_9lb_config28default_quic_idle_timeout_ms
FN:965,_RNvCs9IWU4hPPZlm_9lb_config29default_quic_recv_udp_payload
FN:323,_RNvCs9IWU4hPPZlm_9lb_config30default_max_keepalive_requests
FN:1150,_RNvCs9IWU4hPPZlm_9lb_config30default_passthrough_mint_retry
FN:671,_RNvCs9IWU4hPPZlm_9lb_config31default_grpc_health_synthesized
FN:506,_RNvCs9IWU4hPPZlm_9lb_config32default_max_inflight_connections
FN:1025,_RNvCs9IWU4hPPZlm_9lb_config33default_raw_proxy_dgram_queue_cap
FN:442,_RNvCs9IWU4hPPZlm_9lb_config34default_watchdog_sweep_interval_ms
FN:1031,_RNvCs9IWU4hPPZlm_9lb_config35default_raw_proxy_max_relay_streams
FN:430,_RNvCs9IWU4hPPZlm_9lb_config35default_watchdog_header_deadline_ms
FN:1129,_RNvCs9IWU4hPPZlm_9lb_config36default_passthrough_per_flow_backlog
FN:768,_RNvCs9IWU4hPPZlm_9lb_config37default_ws_ping_rate_limit_per_window
FN:776,_RNvCs9IWU4hPPZlm_9lb_config37default_ws_read_frame_timeout_seconds
FN:436,_RNvCs9IWU4hPPZlm_9lb_config38default_watchdog_body_progress_min_bps
FN:1142,_RNvCs9IWU4hPPZlm_9lb_config39default_passthrough_max_dcid_len_routed
FN:1122,_RNvCs9IWU4hPPZlm_9lb_config39default_passthrough_min_client_dcid_len
FN:1157,_RNvCs9IWU4hPPZlm_9lb_config40default_passthrough_flow_idle_timeout_ms
FN:1116,_RNvCs9IWU4hPPZlm_9lb_config40default_passthrough_max_quic_connections
FN:317,_RNvCs9IWU4hPPZlm_9lb_config40default_xdp_new_flow_cap_per_sec_per_cpu
FN:772,_RNvCs9IWU4hPPZlm_9lb_config41default_ws_ping_rate_limit_window_seconds
FN:1136,_RNvCs9IWU4hPPZlm_9lb_config46default_passthrough_audit_throttle_window_secs
FN:333,_RNvMCs9IWU4hPPZlm_9lb_configNtB2_13RuntimeConfig25effective_drain_jitter_ms
FN:361,_RNvMs_Cs9IWU4hPPZlm_9lb_configNtB4_14ListenerConfig25effective_drain_jitter_ms
FN:348,_RNvMs_Cs9IWU4hPPZlm_9lb_configNtB4_14ListenerConfig26effective_drain_timeout_ms
FN:654,_RNvXs1_Cs9IWU4hPPZlm_9lb_configNtB5_18GrpcListenerConfigNtNtCs2va5m0jqTTM_4core7default7Default7default
FN:740,_RNvXs2_Cs9IWU4hPPZlm_9lb_configNtB5_15WebsocketConfigNtNtCs2va5m0jqTTM_4core7default7Default7default
FN:860,_RNvXs3_Cs9IWU4hPPZlm_9lb_configNtB5_18HttpTimeoutsConfigNtNtCs2va5m0jqTTM_4core7default7Default7default
FNDA:8,_RNCNCNvMs_Cse7usOLM32IG_9lb_configNtB8_14ListenerConfig25effective_drain_jitter_ms00B8_
FNDA:0,_RNCNCNvMs_Cse7usOLM32IG_9lb_configNtB8_14ListenerConfig26effective_drain_timeout_ms00B8_
FNDA:0,_RNCNvCse7usOLM32IG_9lb_config16validate_runtime0B3_
FNDA:0,_RNCNvCse7usOLM32IG_9lb_config21validate_tls_listener0B3_
FNDA:0,_RNCNvCse7usOLM32IG_9lb_config22validate_observability0B3_
FNDA:0,_RNCNvCse7usOLM32IG_9lb_config22validate_quic_listener0B3_
FNDA:8,_RNCNvMs_Cse7usOLM32IG_9lb_configNtB6_14ListenerConfig25effective_drain_jitter_ms0B6_
FNDA:8,_RNCNvMs_Cse7usOLM32IG_9lb_configNtB6_14ListenerConfig26effective_drain_timeout_ms0B6_
FNDA:3,_RNvCse7usOLM32IG_9lb_config12parse_config
FNDA:1,_RNvCse7usOLM32IG_9lb_config14default_weight
FNDA:12,_RNvCse7usOLM32IG_9lb_config15validate_config
FNDA:0,_RNvCse7usOLM32IG_9lb_config16validate_runtime
FNDA:12,_RNvCse7usOLM32IG_9lb_config17validate_listener
FNDA:0,_RNvCse7usOLM32IG_9lb_config18default_per_ip_cap
FNDA:0,_RNvCse7usOLM32IG_9lb_config18default_ws_enabled
FNDA:12,_RNvCse7usOLM32IG_9lb_config19validate_grpc_block
FNDA:0,_RNvCse7usOLM32IG_9lb_config20default_grpc_enabled
FNDA:0,_RNvCse7usOLM32IG_9lb_config20validate_passthrough
FNDA:12,_RNvCse7usOLM32IG_9lb_config21validate_backend_list
FNDA:0,_RNvCse7usOLM32IG_9lb_config21validate_h1s_listener
FNDA:0,_RNvCse7usOLM32IG_9lb_config21validate_tls_listener
FNDA:0,_RNvCse7usOLM32IG_9lb_config22default_ticket_overlap
FNDA:12,_RNvCse7usOLM32IG_9lb_config22validate_http_timeouts
FNDA:0,_RNvCse7usOLM32IG_9lb_config22validate_observability
FNDA:1,_RNvCse7usOLM32IG_9lb_config22validate_quic_listener
FNDA:0,_RNvCse7usOLM32IG_9lb_config23default_alt_svc_max_age
FNDA:0,_RNvCse7usOLM32IG_9lb_config23default_body_timeout_ms
FNDA:0,_RNvCse7usOLM32IG_9lb_config23default_head_timeout_ms
FNDA:0,_RNvCse7usOLM32IG_9lb_config23default_ticket_interval
FNDA:0,_RNvCse7usOLM32IG_9lb_config23default_ws_idle_timeout
FNDA:14,_RNvCse7usOLM32IG_9lb_config23validate_backend_h3_tls
FNDA:3,_RNvCse7usOLM32IG_9lb_config24default_backend_protocol
FNDA:16,_RNvCse7usOLM32IG_9lb_config24default_drain_timeout_ms
FNDA:0,_RNvCse7usOLM32IG_9lb_config24default_total_timeout_ms
FNDA:4,_RNvCse7usOLM32IG_9lb_config24default_verify_peer_true
FNDA:12,_RNvCse7usOLM32IG_9lb_config24validate_websocket_block
FNDA:0,_RNvCse7usOLM32IG_9lb_config25default_grpc_max_deadline
FNDA:0,_RNvCse7usOLM32IG_9lb_config25default_header_timeout_ms
FNDA:0,_RNvCse7usOLM32IG_9lb_config26default_connect_timeout_ms
FNDA:0,_RNvCse7usOLM32IG_9lb_config27default_readiness_settle_ms
FNDA:0,_RNvCse7usOLM32IG_9lb_config27default_ws_max_message_size
FNDA:0,_RNvCse7usOLM32IG_9lb_config28default_handshake_timeout_ms
FNDA:0,_RNvCse7usOLM32IG_9lb_config28default_quic_idle_timeout_ms
FNDA:0,_RNvCse7usOLM32IG_9lb_config29default_quic_recv_udp_payload
FNDA:0,_RNvCse7usOLM32IG_9lb_config30default_max_keepalive_requests
FNDA:0,_RNvCse7usOLM32IG_9lb_config30default_passthrough_mint_retry
FNDA:0,_RNvCse7usOLM32IG_9lb_config31default_grpc_health_synthesized
FNDA:0,_RNvCse7usOLM32IG_9lb_config32default_max_inflight_connections
FNDA:0,_RNvCse7usOLM32IG_9lb_config33default_raw_proxy_dgram_queue_cap
FNDA:1,_RNvCse7usOLM32IG_9lb_config34default_watchdog_sweep_interval_ms
FNDA:0,_RNvCse7usOLM32IG_9lb_config35default_raw_proxy_max_relay_streams
FNDA:1,_RNvCse7usOLM32IG_9lb_config35default_watchdog_header_deadline_ms
FNDA:0,_RNvCse7usOLM32IG_9lb_config36default_passthrough_per_flow_backlog
FNDA:0,_RNvCse7usOLM32IG_9lb_config37default_ws_ping_rate_limit_per_window
FNDA:0,_RNvCse7usOLM32IG_9lb_config37default_ws_read_frame_timeout_seconds
FNDA:1,_RNvCse7usOLM32IG_9lb_config38default_watchdog_body_progress_min_bps
FNDA:0,_RNvCse7usOLM32IG_9lb_config39default_passthrough_max_dcid_len_routed
FNDA:0,_RNvCse7usOLM32IG_9lb_config39default_passthrough_min_client_dcid_len
FNDA:0,_RNvCse7usOLM32IG_9lb_config40default_passthrough_flow_idle_timeout_ms
FNDA:0,_RNvCse7usOLM32IG_9lb_config40default_passthrough_max_quic_connections
FNDA:0,_RNvCse7usOLM32IG_9lb_config40default_xdp_new_flow_cap_per_sec_per_cpu
FNDA:0,_RNvCse7usOLM32IG_9lb_config41default_ws_ping_rate_limit_window_seconds
FNDA:0,_RNvCse7usOLM32IG_9lb_config46default_passthrough_audit_throttle_window_secs
FNDA:0,_RNvMCse7usOLM32IG_9lb_configNtB2_13RuntimeConfig25effective_drain_jitter_ms
FNDA:8,_RNvMs_Cse7usOLM32IG_9lb_configNtB4_14ListenerConfig25effective_drain_jitter_ms
FNDA:8,_RNvMs_Cse7usOLM32IG_9lb_configNtB4_14ListenerConfig26effective_drain_timeout_ms
FNDA:1,_RNvXs0_Cse7usOLM32IG_9lb_configNtB5_21RuntimeWatchdogConfigNtNtCs2va5m0jqTTM_4core7default7Default7default
FNDA:0,_RNvXs1_Cse7usOLM32IG_9lb_configNtB5_18GrpcListenerConfigNtNtCs2va5m0jqTTM_4core7default7Default7default
FNDA:0,_RNvXs2_Cse7usOLM32IG_9lb_configNtB5_15WebsocketConfigNtNtCs2va5m0jqTTM_4core7default7Default7default
FNDA:0,_RNvXs3_Cse7usOLM32IG_9lb_configNtB5_18HttpTimeoutsConfigNtNtCs2va5m0jqTTM_4core7default7Default7default
FNDA:0,_RNvXs0_Cs9IWU4hPPZlm_9lb_configNtB5_21RuntimeWatchdogConfigNtNtCs2va5m0jqTTM_4core7default7Default7default
FNDA:14,_RNCNCNvMs_Cs9IWU4hPPZlm_9lb_configNtB8_14ListenerConfig25effective_drain_jitter_ms00B8_
FNDA:4,_RNCNCNvMs_Cs9IWU4hPPZlm_9lb_configNtB8_14ListenerConfig26effective_drain_timeout_ms00B8_
FNDA:1,_RNCNvCs9IWU4hPPZlm_9lb_config16validate_runtime0B3_
FNDA:1,_RNCNvCs9IWU4hPPZlm_9lb_config21validate_tls_listener0B3_
FNDA:1,_RNCNvCs9IWU4hPPZlm_9lb_config22validate_observability0B3_
FNDA:1,_RNCNvCs9IWU4hPPZlm_9lb_config22validate_quic_listener0B3_
FNDA:17,_RNCNvMs_Cs9IWU4hPPZlm_9lb_configNtB6_14ListenerConfig25effective_drain_jitter_ms0B6_
FNDA:19,_RNCNvMs_Cs9IWU4hPPZlm_9lb_configNtB6_14ListenerConfig26effective_drain_timeout_ms0B6_
FNDA:4,_RNvNtCs9IWU4hPPZlm_9lb_config5tests12base_runtime
FNDA:7,_RNvNtCs9IWU4hPPZlm_9lb_config5tests12min_listener
FNDA:3,_RNvNtCs9IWU4hPPZlm_9lb_config5tests6pt_min
FNDA:1,_RNvNtCs9IWU4hPPZlm_9lb_config5testss_11validate_ok
FNDA:1,_RNvNtCs9IWU4hPPZlm_9lb_config5testss_16parse_valid_toml
FNDA:1,_RNvNtCs9IWU4hPPZlm_9lb_config5testss_18parse_invalid_toml
FNDA:1,_RNvNtCs9IWU4hPPZlm_9lb_config5testss_18parse_tls_listener
FNDA:1,_RNvNtCs9IWU4hPPZlm_9lb_config5testss_19parse_quic_listener
FNDA:1,_RNvNtCs9IWU4hPPZlm_9lb_config5testss_22validate_empty_address
FNDA:1,_RNvNtCs9IWU4hPPZlm_9lb_config5testss_24validate_empty_listeners
FNDA:1,_RNvNtCs9IWU4hPPZlm_9lb_config5testss_25parse_runtime_xdp_enabled
FNDA:1,_RNvNtCs9IWU4hPPZlm_9lb_config5testss_26parse_config_with_backends
FNDA:1,_RNvNtCs9IWU4hPPZlm_9lb_config5testss_28parse_h1s_listener_with_grpc
FNDA:1,_RNvNtCs9IWU4hPPZlm_9lb_config5testss_30validate_empty_backend_address
FNDA:1,_RNvNtCs9IWU4hPPZlm_9lb_config5testss_30validate_h1s_with_tls_block_ok
FNDA:1,_RNvNtCs9IWU4hPPZlm_9lb_config5testss_32parse_h1_listener_with_websocket
FNDA:1,_RNvNtCs9IWU4hPPZlm_9lb_config5testss_32parse_observability_metrics_bind
FNDA:1,_RNvNtCs9IWU4hPPZlm_9lb_config5testss_32passthrough_only_config_is_valid
FNDA:1,_RNvNtCs9IWU4hPPZlm_9lb_config5testss_32validate_quic_small_mtu_rejected
FNDA:1,_RNvNtCs9IWU4hPPZlm_9lb_config5testss_34parse_passthrough_block_round_trip
FNDA:1,_RNvNtCs9IWU4hPPZlm_9lb_config5testss_34validate_unknown_protocol_rejected
FNDA:1,_RNvNtCs9IWU4hPPZlm_9lb_config5testss_35passthrough_empty_backends_rejected
FNDA:1,_RNvNtCs9IWU4hPPZlm_9lb_config5testss_35validate_h1_with_tls_block_rejected
FNDA:1,_RNvNtCs9IWU4hPPZlm_9lb_config5testss_35validate_tls_without_block_rejected
FNDA:1,_RNvNtCs9IWU4hPPZlm_9lb_config5testss_35validate_zero_http_timeout_rejected
FNDA:1,_RNvNtCs9IWU4hPPZlm_9lb_config5testss_36raw_proxy_minimal_toml_defaults_caps
FNDA:1,_RNvNtCs9IWU4hPPZlm_9lb_config5testss_36validate_quic_without_block_rejected
FNDA:1,_RNvNtCs9IWU4hPPZlm_9lb_config5testss_37validate_tls_empty_cert_path_rejected
FNDA:1,_RNvNtCs9IWU4hPPZlm_9lb_config5testss_38validate_websocket_on_quic_listener_ok
FNDA:1,_RNvNtCs9IWU4hPPZlm_9lb_config5testss_39validate_h1s_without_tls_block_rejected
FNDA:1,_RNvNtCs9IWU4hPPZlm_9lb_config5testss_40passthrough_defaults_match_owner_rulings
FNDA:1,_RNvNtCs9IWU4hPPZlm_9lb_config5testss_40validate_observability_bad_bind_rejected
FNDA:1,_RNvNtCs9IWU4hPPZlm_9lb_config5testss_41ops02_jitter_default_is_quarter_of_budget
FNDA:1,_RNvNtCs9IWU4hPPZlm_9lb_config5testss_41ops10_per_listener_timeout_range_rejected
FNDA:1,_RNvNtCs9IWU4hPPZlm_9lb_config5testss_42parse_websocket_h2_extended_connect_opt_in
FNDA:1,_RNvNtCs9IWU4hPPZlm_9lb_config5testss_42parse_websocket_h3_extended_connect_opt_in
FNDA:1,_RNvNtCs9IWU4hPPZlm_9lb_config5testss_42validate_backend_unknown_protocol_rejected
FNDA:1,_RNvNtCs9IWU4hPPZlm_9lb_config5testss_42validate_grpc_on_non_h1s_listener_rejected
FNDA:1,_RNvNtCs9IWU4hPPZlm_9lb_config5testss_43parse_h1_listener_with_alt_svc_and_timeouts
FNDA:1,_RNvNtCs9IWU4hPPZlm_9lb_config5testss_44ops10_override_takes_precedence_over_runtime
FNDA:1,_RNvNtCs9IWU4hPPZlm_9lb_config5testss_45validate_quic_h3_terminate_with_h1_backend_ok
FNDA:1,_RNvNtCs9IWU4hPPZlm_9lb_config5testss_46ops02_gateway_jitter_exceeding_budget_rejected
FNDA:1,_RNvNtCs9IWU4hPPZlm_9lb_config5testss_46runtime_absent_keeps_parse_backward_compatible
FNDA:1,_RNvNtCs9IWU4hPPZlm_9lb_config5testss_46runtime_xdp_enabled_without_interface_rejected
FNDA:1,_RNvNtCs9IWU4hPPZlm_9lb_config5testss_46validate_quic_raw_proxy_with_backends_rejected
FNDA:1,_RNvNtCs9IWU4hPPZlm_9lb_config5testss_47runtime_xdp_disabled_does_not_require_interface
FNDA:1,_RNvNtCs9IWU4hPPZlm_9lb_config5testss_48passthrough_min_client_dcid_below_floor_rejected
FNDA:1,_RNvNtCs9IWU4hPPZlm_9lb_config5testss_48validate_tls_block_without_tls_protocol_rejected
FNDA:1,_RNvNtCs9IWU4hPPZlm_9lb_config5testss_48validate_websocket_on_non_http_listener_rejected
FNDA:1,_RNvNtCs9IWU4hPPZlm_9lb_config5testss_49ops11_readiness_settle_default_is_kubelet_aligned
FNDA:1,_RNvNtCs9IWU4hPPZlm_9lb_config5testss_57ops02_listener_jitter_exceeding_inherited_budget_rejected
FNDA:1,_RNvNtCs9IWU4hPPZlm_9lb_config5testss_58validate_quic_h3_terminate_mixed_backend_families_rejected
FNDA:15,_RNvCs9IWU4hPPZlm_9lb_config12parse_config
FNDA:8,_RNvCs9IWU4hPPZlm_9lb_config14default_weight
FNDA:40,_RNvCs9IWU4hPPZlm_9lb_config15validate_config
FNDA:5,_RNvCs9IWU4hPPZlm_9lb_config16validate_runtime
FNDA:36,_RNvCs9IWU4hPPZlm_9lb_config17validate_listener
FNDA:1,_RNvCs9IWU4hPPZlm_9lb_config18default_per_ip_cap
FNDA:5,_RNvCs9IWU4hPPZlm_9lb_config18default_ws_enabled
FNDA:24,_RNvCs9IWU4hPPZlm_9lb_config19validate_grpc_block
FNDA:2,_RNvCs9IWU4hPPZlm_9lb_config20default_grpc_enabled
FNDA:4,_RNvCs9IWU4hPPZlm_9lb_config20validate_passthrough
FNDA:22,_RNvCs9IWU4hPPZlm_9lb_config21validate_backend_list
FNDA:3,_RNvCs9IWU4hPPZlm_9lb_config21validate_h1s_listener
FNDA:5,_RNvCs9IWU4hPPZlm_9lb_config21validate_tls_listener
FNDA:2,_RNvCs9IWU4hPPZlm_9lb_config22default_ticket_overlap
FNDA:23,_RNvCs9IWU4hPPZlm_9lb_config22validate_http_timeouts
FNDA:2,_RNvCs9IWU4hPPZlm_9lb_config22validate_observability
FNDA:8,_RNvCs9IWU4hPPZlm_9lb_config22validate_quic_listener
FNDA:1,_RNvCs9IWU4hPPZlm_9lb_config23default_alt_svc_max_age
FNDA:2,_RNvCs9IWU4hPPZlm_9lb_config23default_body_timeout_ms
FNDA:2,_RNvCs9IWU4hPPZlm_9lb_config23default_head_timeout_ms
FNDA:2,_RNvCs9IWU4hPPZlm_9lb_config23default_ticket_interval
FNDA:4,_RNvCs9IWU4hPPZlm_9lb_config23default_ws_idle_timeout
FNDA:13,_RNvCs9IWU4hPPZlm_9lb_config23validate_backend_h3_tls
FNDA:8,_RNvCs9IWU4hPPZlm_9lb_config24default_backend_protocol
FNDA:30,_RNvCs9IWU4hPPZlm_9lb_config24default_drain_timeout_ms
FNDA:2,_RNvCs9IWU4hPPZlm_9lb_config24default_total_timeout_ms
FNDA:9,_RNvCs9IWU4hPPZlm_9lb_config24default_verify_peer_true
FNDA:25,_RNvCs9IWU4hPPZlm_9lb_config24validate_websocket_block
FNDA:1,_RNvCs9IWU4hPPZlm_9lb_config25default_grpc_max_deadline
FNDA:1,_RNvCs9IWU4hPPZlm_9lb_config25default_header_timeout_ms
FNDA:1,_RNvCs9IWU4hPPZlm_9lb_config26default_connect_timeout_ms
FNDA:3,_RNvCs9IWU4hPPZlm_9lb_config27default_readiness_settle_ms
FNDA:4,_RNvCs9IWU4hPPZlm_9lb_config27default_ws_max_message_size
FNDA:1,_RNvCs9IWU4hPPZlm_9lb_config28default_handshake_timeout_ms
FNDA:4,_RNvCs9IWU4hPPZlm_9lb_config28default_quic_idle_timeout_ms
FNDA:4,_RNvCs9IWU4hPPZlm_9lb_config29default_quic_recv_udp_payload
FNDA:1,_RNvCs9IWU4hPPZlm_9lb_config30default_max_keepalive_requests
FNDA:4,_RNvCs9IWU4hPPZlm_9lb_config30default_passthrough_mint_retry
FNDA:1,_RNvCs9IWU4hPPZlm_9lb_config31default_grpc_health_synthesized
FNDA:1,_RNvCs9IWU4hPPZlm_9lb_config32default_max_inflight_connections
FNDA:2,_RNvCs9IWU4hPPZlm_9lb_config33default_raw_proxy_dgram_queue_cap
FNDA:0,_RNvCs9IWU4hPPZlm_9lb_config34default_watchdog_sweep_interval_ms
FNDA:2,_RNvCs9IWU4hPPZlm_9lb_config35default_raw_proxy_max_relay_streams
FNDA:0,_RNvCs9IWU4hPPZlm_9lb_config35default_watchdog_header_deadline_ms
FNDA:5,_RNvCs9IWU4hPPZlm_9lb_config36default_passthrough_per_flow_backlog
FNDA:5,_RNvCs9IWU4hPPZlm_9lb_config37default_ws_ping_rate_limit_per_window
FNDA:5,_RNvCs9IWU4hPPZlm_9lb_config37default_ws_read_frame_timeout_seconds
FNDA:0,_RNvCs9IWU4hPPZlm_9lb_config38default_watchdog_body_progress_min_bps
FNDA:5,_RNvCs9IWU4hPPZlm_9lb_config39default_passthrough_max_dcid_len_routed
FNDA:5,_RNvCs9IWU4hPPZlm_9lb_config39default_passthrough_min_client_dcid_len
FNDA:4,_RNvCs9IWU4hPPZlm_9lb_config40default_passthrough_flow_idle_timeout_ms
FNDA:5,_RNvCs9IWU4hPPZlm_9lb_config40default_passthrough_max_quic_connections
FNDA:1,_RNvCs9IWU4hPPZlm_9lb_config40default_xdp_new_flow_cap_per_sec_per_cpu
FNDA:5,_RNvCs9IWU4hPPZlm_9lb_config41default_ws_ping_rate_limit_window_seconds
FNDA:5,_RNvCs9IWU4hPPZlm_9lb_config46default_passthrough_audit_throttle_window_secs
FNDA:4,_RNvMCs9IWU4hPPZlm_9lb_configNtB2_13RuntimeConfig25effective_drain_jitter_ms
FNDA:19,_RNvMs_Cs9IWU4hPPZlm_9lb_configNtB4_14ListenerConfig25effective_drain_jitter_ms
FNDA:20,_RNvMs_Cs9IWU4hPPZlm_9lb_configNtB4_14ListenerConfig26effective_drain_timeout_ms
FNDA:1,_RNvXs1_Cs9IWU4hPPZlm_9lb_configNtB5_18GrpcListenerConfigNtNtCs2va5m0jqTTM_4core7default7Default7default
FNDA:1,_RNvXs2_Cs9IWU4hPPZlm_9lb_configNtB5_15WebsocketConfigNtNtCs2va5m0jqTTM_4core7default7Default7default
FNDA:1,_RNvXs3_Cs9IWU4hPPZlm_9lb_configNtB5_18HttpTimeoutsConfigNtNtCs2va5m0jqTTM_4core7default7Default7default
FNF:122
FNH:122
DA:317,1
DA:318,1
DA:319,1
DA:323,1
DA:324,1
DA:325,1
DA:333,4
DA:334,4
DA:335,0
DA:336,4
DA:338,4
DA:348,28
DA:349,28
DA:350,27
DA:351,28
DA:352,28
DA:361,27
DA:362,27
DA:363,25
DA:364,25
DA:365,25
DA:366,25
DA:367,27
DA:368,27
DA:419,1
DA:420,1
DA:421,1
DA:422,1
DA:423,1
DA:424,1
DA:425,1
DA:430,1
DA:431,1
DA:432,1
DA:436,1
DA:437,1
DA:438,1
DA:442,1
DA:443,1
DA:444,1
DA:470,46
DA:471,46
DA:472,46
DA:490,3
DA:491,3
DA:492,3
DA:499,1
DA:500,1
DA:501,1
DA:506,1
DA:507,1
DA:508,1
DA:514,1
DA:515,1
DA:516,1
DA:522,1
DA:523,1
DA:524,1
DA:654,1
DA:655,1
DA:656,1
DA:657,1
DA:658,1
DA:659,1
DA:660,1
DA:663,2
DA:664,2
DA:665,2
DA:667,1
DA:668,1
DA:669,1
DA:671,1
DA:672,1
DA:673,1
DA:740,1
DA:741,1
DA:742,1
DA:743,1
DA:744,1
DA:745,1
DA:746,1
DA:747,1
DA:748,1
DA:749,1
DA:750,1
DA:751,1
DA:752,1
DA:753,1
DA:756,5
DA:757,5
DA:758,5
DA:760,4
DA:761,4
DA:762,4
DA:764,4
DA:765,4
DA:766,4
DA:768,5
DA:769,5
DA:770,5
DA:772,5
DA:773,5
DA:774,5
DA:776,5
DA:777,5
DA:778,5
DA:833,1
DA:834,1
DA:835,1
DA:860,1
DA:861,1
DA:862,1
DA:863,1
DA:864,1
DA:865,1
DA:866,1
DA:867,1
DA:870,1
DA:871,1
DA:872,1
DA:874,2
DA:875,2
DA:876,2
DA:878,2
DA:879,2
DA:880,2
DA:882,2
DA:883,2
DA:884,2
DA:909,2
DA:910,2
DA:911,2
DA:913,2
DA:914,2
DA:915,2
DA:961,4
DA:962,4
DA:963,4
DA:965,4
DA:966,4
DA:967,4
DA:1025,2
DA:1026,2
DA:1027,2
DA:1031,2
DA:1032,2
DA:1033,2
DA:1116,5
DA:1117,5
DA:1118,5
DA:1122,5
DA:1123,5
DA:1124,5
DA:1129,5
DA:1130,5
DA:1131,5
DA:1136,5
DA:1137,5
DA:1138,5
DA:1142,5
DA:1143,5
DA:1144,5
DA:1150,4
DA:1151,4
DA:1152,4
DA:1157,4
DA:1158,4
DA:1159,4
DA:1204,13
DA:1205,13
DA:1206,13
DA:1208,11
DA:1209,11
DA:1210,11
DA:1212,9
DA:1213,9
DA:1214,9
DA:1221,18
DA:1222,18
DA:1223,17
DA:1224,18
DA:1231,52
DA:1232,52
DA:1233,52
DA:1234,52
DA:1235,52
DA:1236,52
DA:1237,1
DA:1238,1
DA:1239,1
DA:1240,51
DA:1241,51
DA:1242,4
DA:1243,47
DA:1244,49
DA:1245,48
DA:1247,28
DA:1248,5
DA:1249,23
DA:1256,26
DA:1257,25
DA:1258,25
DA:1259,25
DA:1260,1
DA:1261,1
DA:1262,1
DA:1263,1
DA:1264,1
DA:1265,24
DA:1267,25
DA:1268,2
DA:1269,23
DA:1270,24
DA:1271,52
DA:1273,2
DA:1274,2
DA:1275,2
DA:1276,2
DA:1277,0
DA:1278,0
DA:1279,0
DA:1280,2
DA:1281,2
DA:1282,1
DA:1283,1
DA:1284,1
DA:1285,2
DA:1286,0
DA:1287,1
DA:1288,2
DA:1290,5
DA:1291,5
DA:1292,2
DA:1293,2
DA:1294,2
DA:1295,2
DA:1296,2
DA:1297,2
DA:1298,1
DA:1299,1
DA:1300,1
DA:1301,1
DA:1302,3
DA:1310,4
DA:1311,0
DA:1312,0
DA:1313,0
DA:1314,0
DA:1315,4
DA:1320,4
DA:1321,1
DA:1322,1
DA:1323,1
DA:1324,1
DA:1325,1
DA:1326,1
DA:1327,0
DA:1328,3
DA:1332,3
DA:1333,0
DA:1334,0
DA:1335,0
DA:1336,0
DA:1337,3
DA:1338,3
DA:1339,3
DA:1340,3
DA:1341,3
DA:1342,0
DA:1343,0
DA:1344,0
DA:1345,0
DA:1346,3
DA:1347,3
DA:1348,3
DA:1349,3
DA:1350,3
DA:1351,3
DA:1352,0
DA:1353,0
DA:1354,0
DA:1355,0
DA:1356,3
DA:1357,3
DA:1358,3
DA:1359,3
DA:1360,3
DA:1361,0
DA:1362,0
DA:1363,0
DA:1364,0
DA:1365,3
DA:1366,3
DA:1367,3
DA:1368,3
DA:1369,0
DA:1370,0
DA:1371,0
DA:1372,0
DA:1373,3
DA:1379,3
DA:1380,0
DA:1381,0
DA:1382,0
DA:1383,0
DA:1384,0
DA:1385,0
DA:1386,0
DA:1387,0
DA:1388,0
DA:1389,0
DA:1390,0
DA:1391,0
DA:1392,0
DA:1393,0
DA:1394,0
DA:1395,0
DA:1396,0
DA:1397,0
DA:1398,3
DA:1407,3
DA:1408,3
DA:1409,0
DA:1410,0
DA:1411,0
DA:1412,0
DA:1413,3
DA:1414,3
DA:1415,5
DA:1417,48
DA:1418,48
DA:1419,1
DA:1420,1
DA:1421,1
DA:1422,47
DA:1423,47
DA:1424,47
DA:1425,0
DA:1426,0
DA:1427,0
DA:1428,47
DA:1429,47
DA:1430,47
DA:1431,44
DA:1432,35
DA:1433,32
DA:1435,15
DA:1436,1
DA:1437,1
DA:1438,1
DA:1439,1
DA:1440,14
DA:1441,14
DA:1442,0
DA:1443,0
DA:1444,0
DA:1445,14
DA:1447,17
DA:1448,16
DA:1449,1
DA:1450,1
DA:1451,1
DA:1452,1
DA:1453,15
DA:1454,15
DA:1455,0
DA:1456,0
DA:1457,0
DA:1458,0
DA:1459,15
DA:1461,1
DA:1462,1
DA:1463,1
DA:1464,1
DA:1465,1
DA:1468,37
DA:1469,36
DA:1470,35
DA:1471,34
DA:1474,28
DA:1475,1
DA:1476,1
DA:1477,1
DA:1478,1
DA:1479,0
DA:1480,27
DA:1487,27
DA:1488,1
DA:1489,1
DA:1490,0
DA:1491,0
DA:1492,0
DA:1493,0
DA:1494,1
DA:1495,26
DA:1496,27
DA:1497,48
DA:1499,36
DA:1500,36
DA:1501,36
DA:1502,36
DA:1503,36
DA:1504,36
DA:1505,1
DA:1506,1
DA:1507,1
DA:1508,1
DA:1509,35
DA:1510,35
DA:1511,1
DA:1512,0
DA:1513,0
DA:1514,0
DA:1515,1
DA:1516,34
DA:1517,35
DA:1518,36
DA:1520,37
DA:1521,37
DA:1522,37
DA:1523,37
DA:1524,37
DA:1525,37
DA:1526,37
DA:1527,37
DA:1528,37
DA:1529,37
DA:1530,1
DA:1531,1
DA:1532,1
DA:1533,1
DA:1534,36
DA:1535,36
DA:1536,4
DA:1537,0
DA:1538,0
DA:1539,0
DA:1540,4
DA:1541,4
DA:1542,0
DA:1543,0
DA:1544,0
DA:1545,4
DA:1546,4
DA:1547,0
DA:1548,0
DA:1549,0
DA:1550,4
DA:1551,4
DA:1552,0
DA:1553,0
DA:1554,0
DA:1555,4
DA:1556,4
DA:1557,0
DA:1558,0
DA:1559,0
DA:1560,4
DA:1561,32
DA:1562,36
DA:1563,37
DA:1565,35
DA:1566,35
DA:1567,3
DA:1568,1
DA:1569,1
DA:1570,1
DA:1571,2
DA:1572,2
DA:1573,0
DA:1574,0
DA:1575,0
DA:1576,2
DA:1577,2
DA:1578,0
DA:1579,0
DA:1580,0
DA:1581,2
DA:1582,2
DA:1583,0
DA:1584,0
DA:1585,0
DA:1586,2
DA:1587,32
DA:1588,34
DA:1589,35
DA:1591,34
DA:1592,34
DA:1593,29
DA:1594,1
DA:1595,1
DA:1596,1
DA:1597,28
DA:1598,28
DA:1599,28
DA:1600,1
DA:1601,1
DA:1602,1
DA:1603,1
DA:1604,1
DA:1607,27
DA:1609,28
DA:1610,34
DA:1615,27
DA:1616,27
DA:1617,21
DA:1618,20
DA:1619,20
DA:1621,2
DA:1622,2
DA:1623,2
DA:1624,2
DA:1625,2
DA:1626,19
DA:1627,19
DA:1628,6
DA:1629,6
DA:1630,1
DA:1631,1
DA:1632,1
DA:1633,1
DA:1634,1
DA:1635,5
DA:1636,5
DA:1637,2
DA:1638,1
DA:1639,1
DA:1640,1
DA:1641,1
DA:1642,3
DA:1643,4
DA:1644,27
DA:1646,5
DA:1647,5
DA:1648,1
DA:1649,1
DA:1650,1
DA:1651,5
DA:1652,4
DA:1653,1
DA:1654,1
DA:1655,1
DA:1656,3
DA:1657,3
DA:1658,0
DA:1659,0
DA:1660,0
DA:1661,3
DA:1662,3
DA:1663,0
DA:1664,0
DA:1665,0
DA:1666,3
DA:1667,3
DA:1668,0
DA:1669,0
DA:1670,0
DA:1671,3
DA:1672,3
DA:1673,5
DA:1675,3
DA:1676,3
DA:1677,3
DA:1678,1
DA:1679,1
DA:1680,1
DA:1681,2
DA:1682,2
DA:1683,0
DA:1684,0
DA:1685,0
DA:1686,2
DA:1687,2
DA:1688,2
DA:1689,3
DA:1691,9
DA:1692,9
DA:1693,1
DA:1694,1
DA:1695,1
DA:1696,9
DA:1697,8
DA:1698,0
DA:1699,0
DA:1700,0
DA:1701,8
DA:1702,8
DA:1703,0
DA:1704,0
DA:1705,0
DA:1706,8
DA:1707,8
DA:1708,0
DA:1709,0
DA:1710,0
DA:1711,8
DA:1712,8
DA:1713,0
DA:1714,0
DA:1715,0
DA:1716,8
DA:1717,8
DA:1718,1
DA:1719,1
DA:1720,1
DA:1721,7
DA:1722,7
DA:1723,0
DA:1724,0
DA:1725,0
DA:1726,7
DA:1727,7
DA:1728,7
DA:1729,7
DA:1730,7
DA:1731,7
DA:1732,7
DA:1733,7
DA:1734,7
DA:1735,1
DA:1736,1
DA:1737,1
DA:1738,1
DA:1739,1
DA:1740,6
DA:1741,6
DA:1742,6
DA:1743,6
DA:1744,6
DA:1745,6
DA:1746,6
DA:1747,6
DA:1748,6
DA:1749,4
DA:1750,4
DA:1751,4
DA:1752,9
DA:1753,5
DA:1754,5
DA:1755,1
DA:1756,0
DA:1759,0
DA:1762,4
DA:1763,4
DA:1764,1
DA:1765,1
DA:1766,1
DA:1767,1
DA:1768,1
DA:1769,3
DA:1770,2
DA:1771,5
DA:1772,9
DA:1781,4
DA:1782,4
DA:1783,1
DA:1784,1
DA:1785,1
DA:1786,3
DA:1787,3
DA:1788,3
DA:1789,3
DA:1790,3
DA:1791,3
DA:1792,0
DA:1793,0
DA:1794,0
DA:1795,0
DA:1796,3
DA:1797,3
DA:1798,3
DA:1799,3
DA:1800,3
DA:1801,1
DA:1802,1
DA:1803,1
DA:1804,1
DA:1805,2
DA:1806,2
DA:1807,0
DA:1808,0
DA:1809,0
DA:1810,0
DA:1811,2
DA:1812,2
DA:1813,0
DA:1814,0
DA:1815,0
DA:1816,2
DA:1817,2
DA:1818,0
DA:1819,0
DA:1820,0
DA:1821,0
DA:1822,2
DA:1823,2
DA:1824,0
DA:1825,0
DA:1826,0
DA:1827,2
DA:1828,2
DA:1829,4
DA:1836,1
DA:1837,1
DA:1838,1
DA:1839,1
DA:1840,1
DA:1841,1
DA:1842,1
DA:1843,1
DA:1844,1
DA:1845,1
DA:1846,1
DA:1849,1
DA:1850,1
DA:1851,1
DA:1852,1
DA:1859,1
DA:1860,1
DA:1861,1
DA:1862,1
DA:1863,1
DA:1864,1
DA:1865,1
DA:1866,1
DA:1867,1
DA:1868,1
DA:1869,1
DA:1870,1
DA:1871,1
DA:1872,1
DA:1873,1
DA:1874,1
DA:1875,1
DA:1876,1
DA:1877,1
DA:1878,1
DA:1879,1
DA:1880,1
DA:1881,1
DA:1882,1
DA:1883,0
DA:1885,1
DA:1886,1
DA:1887,1
DA:1888,1
DA:1889,0
DA:1891,1
DA:1893,1
DA:1894,1
DA:1895,0
DA:1897,1
DA:1900,1
DA:1901,1
DA:1902,1
DA:1903,1
DA:1904,1
DA:1905,1
DA:1906,1
DA:1907,1
DA:1908,1
DA:1909,1
DA:1910,1
DA:1913,1
DA:1914,1
DA:1915,1
DA:1916,1
DA:1917,1
DA:1918,1
DA:1919,1
DA:1920,1
DA:1921,1
DA:1922,1
DA:1923,1
DA:1924,1
DA:1925,1
DA:1926,1
DA:1927,1
DA:1928,1
DA:1929,1
DA:1930,1
DA:1931,1
DA:1932,1
DA:1933,1
DA:1934,1
DA:1935,1
DA:1936,1
DA:1939,1
DA:1940,1
DA:1941,1
DA:1942,1
DA:1943,1
DA:1944,1
DA:1945,1
DA:1946,1
DA:1947,1
DA:1948,1
DA:1949,1
DA:1950,1
DA:1951,1
DA:1952,1
DA:1953,1
DA:1954,1
DA:1955,1
DA:1956,1
DA:1957,1
DA:1958,1
DA:1959,1
DA:1960,1
DA:1961,1
DA:1962,1
DA:1965,1
DA:1966,1
DA:1967,1
DA:1968,1
DA:1969,1
DA:1970,1
DA:1971,1
DA:1972,1
DA:1973,1
DA:1974,1
DA:1975,1
DA:1976,1
DA:1977,1
DA:1978,1
DA:1979,1
DA:1980,1
DA:1981,1
DA:1982,1
DA:1983,1
DA:1984,1
DA:1985,1
DA:1986,1
DA:1987,1
DA:1988,1
DA:1989,1
DA:1990,1
DA:1991,1
DA:1992,1
DA:1993,1
DA:1994,1
DA:1995,1
DA:1998,1
DA:1999,1
DA:2000,1
DA:2001,1
DA:2002,1
DA:2003,1
DA:2004,1
DA:2005,1
DA:2006,1
DA:2007,1
DA:2008,1
DA:2009,1
DA:2010,1
DA:2011,1
DA:2012,1
DA:2013,1
DA:2016,1
DA:2017,1
DA:2018,1
DA:2019,1
DA:2020,1
DA:2021,1
DA:2022,1
DA:2023,1
DA:2024,1
DA:2025,1
DA:2026,1
DA:2027,1
DA:2028,1
DA:2029,1
DA:2030,1
DA:2031,1
DA:2032,1
DA:2033,1
DA:2034,1
DA:2035,1
DA:2036,1
DA:2039,1
DA:2040,1
DA:2041,1
DA:2042,1
DA:2043,1
DA:2044,1
DA:2045,1
DA:2046,1
DA:2047,1
DA:2048,1
DA:2049,1
DA:2050,1
DA:2051,1
DA:2052,1
DA:2053,1
DA:2054,1
DA:2055,1
DA:2056,1
DA:2057,1
DA:2058,1
DA:2059,1
DA:2060,1
DA:2061,1
DA:2062,1
DA:2065,1
DA:2066,1
DA:2067,1
DA:2068,1
DA:2069,1
DA:2070,1
DA:2071,1
DA:2072,1
DA:2073,1
DA:2074,1
DA:2075,1
DA:2076,1
DA:2077,1
DA:2078,1
DA:2079,1
DA:2080,1
DA:2081,1
DA:2082,1
DA:2083,1
DA:2084,1
DA:2085,1
DA:2086,1
DA:2087,1
DA:2088,1
DA:2091,1
DA:2092,1
DA:2093,1
DA:2094,1
DA:2095,1
DA:2096,1
DA:2097,1
DA:2098,1
DA:2099,1
DA:2100,1
DA:2101,1
DA:2102,1
DA:2103,1
DA:2104,1
DA:2105,1
DA:2106,1
DA:2107,1
DA:2108,1
DA:2109,1
DA:2110,1
DA:2111,1
DA:2112,1
DA:2113,1
DA:2114,1
DA:2115,1
DA:2116,1
DA:2117,1
DA:2118,1
DA:2119,1
DA:2122,1
DA:2123,1
DA:2124,1
DA:2125,1
DA:2126,1
DA:2127,1
DA:2128,1
DA:2129,1
DA:2130,1
DA:2131,1
DA:2132,1
DA:2133,1
DA:2134,1
DA:2135,1
DA:2136,1
DA:2137,1
DA:2138,1
DA:2139,1
DA:2140,1
DA:2141,1
DA:2142,1
DA:2143,1
DA:2144,1
DA:2145,1
DA:2146,1
DA:2147,1
DA:2148,1
DA:2149,1
DA:2150,1
DA:2153,1
DA:2154,1
DA:2155,1
DA:2156,1
DA:2157,1
DA:2158,1
DA:2159,1
DA:2160,1
DA:2161,1
DA:2162,1
DA:2163,1
DA:2164,1
DA:2165,1
DA:2166,1
DA:2167,1
DA:2168,1
DA:2169,1
DA:2170,1
DA:2171,1
DA:2172,1
DA:2173,1
DA:2174,1
DA:2175,1
DA:2178,1
DA:2179,1
DA:2180,1
DA:2181,1
DA:2182,1
DA:2183,1
DA:2184,1
DA:2185,1
DA:2186,1
DA:2187,1
DA:2188,1
DA:2189,1
DA:2190,1
DA:2191,1
DA:2192,1
DA:2193,1
DA:2194,1
DA:2195,1
DA:2196,1
DA:2197,1
DA:2198,1
DA:2199,1
DA:2200,1
DA:2201,1
DA:2204,1
DA:2205,1
DA:2206,1
DA:2207,1
DA:2208,1
DA:2209,1
DA:2210,1
DA:2211,1
DA:2212,1
DA:2213,1
DA:2214,1
DA:2215,1
DA:2216,1
DA:2217,1
DA:2218,1
DA:2219,1
DA:2220,1
DA:2221,1
DA:2222,1
DA:2223,1
DA:2224,1
DA:2225,1
DA:2226,1
DA:2227,1
DA:2228,1
DA:2229,1
DA:2230,1
DA:2231,1
DA:2232,1
DA:2233,1
DA:2234,1
DA:2241,1
DA:2242,1
DA:2243,1
DA:2244,1
DA:2245,1
DA:2246,1
DA:2247,1
DA:2248,1
DA:2249,1
DA:2250,1
DA:2251,1
DA:2252,1
DA:2253,1
DA:2254,1
DA:2255,1
DA:2256,1
DA:2257,1
DA:2258,1
DA:2259,1
DA:2260,1
DA:2261,1
DA:2262,1
DA:2263,1
DA:2264,1
DA:2265,1
DA:2266,1
DA:2267,1
DA:2268,1
DA:2269,1
DA:2270,1
DA:2271,1
DA:2272,1
DA:2273,1
DA:2274,1
DA:2275,1
DA:2276,1
DA:2277,1
DA:2278,1
DA:2279,0
DA:2281,1
DA:2286,1
DA:2287,1
DA:2288,1
DA:2289,1
DA:2290,1
DA:2291,1
DA:2292,1
DA:2293,1
DA:2294,1
DA:2295,1
DA:2296,1
DA:2297,1
DA:2298,1
DA:2299,1
DA:2300,1
DA:2301,1
DA:2302,1
DA:2303,1
DA:2304,1
DA:2305,1
DA:2306,1
DA:2307,1
DA:2308,1
DA:2309,1
DA:2310,1
DA:2311,1
DA:2312,1
DA:2313,1
DA:2314,1
DA:2315,1
DA:2316,1
DA:2317,1
DA:2318,1
DA:2319,1
DA:2320,1
DA:2321,1
DA:2322,1
DA:2323,1
DA:2324,1
DA:2325,1
DA:2326,1
DA:2327,1
DA:2328,1
DA:2329,1
DA:2330,1
DA:2331,0
DA:2333,1
DA:2339,1
DA:2340,1
DA:2341,1
DA:2342,1
DA:2343,1
DA:2344,1
DA:2345,1
DA:2346,1
DA:2347,1
DA:2348,1
DA:2349,1
DA:2350,1
DA:2351,1
DA:2352,1
DA:2353,1
DA:2354,1
DA:2355,1
DA:2356,1
DA:2357,1
DA:2358,1
DA:2359,1
DA:2360,1
DA:2361,1
DA:2362,1
DA:2363,1
DA:2364,1
DA:2365,1
DA:2366,1
DA:2367,1
DA:2368,1
DA:2369,1
DA:2370,1
DA:2371,1
DA:2372,1
DA:2373,1
DA:2374,1
DA:2375,1
DA:2376,1
DA:2377,1
DA:2378,1
DA:2379,1
DA:2380,1
DA:2381,1
DA:2382,1
DA:2383,1
DA:2384,1
DA:2385,1
DA:2386,1
DA:2387,1
DA:2388,0
DA:2390,1
DA:2393,1
DA:2394,1
DA:2395,1
DA:2396,1
DA:2397,1
DA:2398,1
DA:2399,1
DA:2400,1
DA:2401,1
DA:2402,1
DA:2403,1
DA:2404,1
DA:2405,1
DA:2406,1
DA:2407,1
DA:2408,1
DA:2409,1
DA:2410,1
DA:2411,1
DA:2412,1
DA:2413,1
DA:2414,1
DA:2415,1
DA:2416,1
DA:2417,1
DA:2418,1
DA:2419,1
DA:2420,1
DA:2421,1
DA:2422,1
DA:2423,1
DA:2426,1
DA:2427,1
DA:2428,1
DA:2429,1
DA:2430,1
DA:2431,1
DA:2432,1
DA:2433,1
DA:2434,1
DA:2435,1
DA:2436,1
DA:2437,1
DA:2438,1
DA:2439,1
DA:2440,1
DA:2441,1
DA:2442,1
DA:2443,1
DA:2444,1
DA:2445,1
DA:2446,1
DA:2447,1
DA:2448,1
DA:2449,1
DA:2450,1
DA:2451,1
DA:2452,1
DA:2455,1
DA:2456,1
DA:2457,1
DA:2458,1
DA:2459,1
DA:2460,1
DA:2461,1
DA:2462,1
DA:2463,1
DA:2464,1
DA:2465,1
DA:2466,1
DA:2467,1
DA:2468,1
DA:2469,1
DA:2470,1
DA:2471,1
DA:2472,1
DA:2473,1
DA:2474,1
DA:2475,1
DA:2476,1
DA:2477,1
DA:2478,1
DA:2479,1
DA:2480,1
DA:2481,1
DA:2482,1
DA:2483,1
DA:2484,1
DA:2485,1
DA:2486,1
DA:2489,1
DA:2490,1
DA:2491,1
DA:2492,1
DA:2493,1
DA:2494,1
DA:2495,1
DA:2496,1
DA:2497,1
DA:2498,1
DA:2499,1
DA:2500,1
DA:2501,1
DA:2502,1
DA:2503,1
DA:2504,1
DA:2505,1
DA:2506,1
DA:2507,1
DA:2508,1
DA:2509,1
DA:2510,1
DA:2511,1
DA:2512,1
DA:2513,1
DA:2514,1
DA:2515,1
DA:2516,1
DA:2517,1
DA:2518,1
DA:2519,1
DA:2522,1
DA:2523,1
DA:2524,1
DA:2525,1
DA:2526,1
DA:2527,1
DA:2528,1
DA:2529,1
DA:2530,1
DA:2531,1
DA:2532,1
DA:2533,1
DA:2534,1
DA:2535,1
DA:2536,1
DA:2537,1
DA:2538,1
DA:2539,1
DA:2540,1
DA:2541,1
DA:2542,1
DA:2543,1
DA:2544,1
DA:2545,1
DA:2546,1
DA:2547,1
DA:2548,1
DA:2549,1
DA:2550,1
DA:2551,1
DA:2552,1
DA:2553,1
DA:2554,1
DA:2555,1
DA:2556,1
DA:2557,1
DA:2558,1
DA:2559,1
DA:2560,1
DA:2563,1
DA:2564,1
DA:2565,1
DA:2566,1
DA:2567,1
DA:2568,1
DA:2569,1
DA:2570,1
DA:2571,1
DA:2572,1
DA:2573,1
DA:2574,1
DA:2575,1
DA:2576,1
DA:2577,1
DA:2578,1
DA:2579,1
DA:2580,1
DA:2581,1
DA:2582,1
DA:2583,1
DA:2584,1
DA:2585,1
DA:2586,1
DA:2587,1
DA:2588,1
DA:2589,1
DA:2590,1
DA:2591,1
DA:2592,1
DA:2593,1
DA:2594,1
DA:2595,1
DA:2596,1
DA:2597,1
DA:2598,1
DA:2601,1
DA:2602,1
DA:2603,1
DA:2604,1
DA:2605,1
DA:2606,1
DA:2607,1
DA:2608,1
DA:2609,1
DA:2610,1
DA:2611,1
DA:2612,1
DA:2613,1
DA:2614,1
DA:2615,1
DA:2616,1
DA:2617,1
DA:2618,1
DA:2619,1
DA:2622,1
DA:2623,1
DA:2624,1
DA:2625,1
DA:2626,1
DA:2627,1
DA:2628,1
DA:2629,1
DA:2630,1
DA:2631,1
DA:2632,1
DA:2633,1
DA:2634,1
DA:2635,1
DA:2636,1
DA:2637,1
DA:2638,1
DA:2639,1
DA:2640,1
DA:2641,1
DA:2642,1
DA:2643,1
DA:2644,1
DA:2645,1
DA:2646,1
DA:2647,1
DA:2648,1
DA:2649,1
DA:2650,1
DA:2651,1
DA:2652,1
DA:2653,1
DA:2654,1
DA:2655,1
DA:2656,1
DA:2657,1
DA:2658,1
DA:2659,1
DA:2660,1
DA:2661,1
DA:2662,1
DA:2665,1
DA:2666,1
DA:2667,1
DA:2668,1
DA:2669,1
DA:2670,1
DA:2671,1
DA:2672,1
DA:2673,1
DA:2674,1
DA:2675,1
DA:2676,1
DA:2677,1
DA:2678,1
DA:2679,1
DA:2680,1
DA:2681,1
DA:2682,1
DA:2683,1
DA:2684,1
DA:2685,1
DA:2686,1
DA:2687,1
DA:2688,1
DA:2689,1
DA:2690,1
DA:2691,1
DA:2692,1
DA:2693,1
DA:2694,1
DA:2695,1
DA:2696,1
DA:2697,1
DA:2698,1
DA:2699,1
DA:2700,1
DA:2701,1
DA:2702,1
DA:2703,1
DA:2704,1
DA:2707,1
DA:2708,1
DA:2709,1
DA:2710,1
DA:2711,1
DA:2712,1
DA:2713,1
DA:2714,1
DA:2715,1
DA:2716,1
DA:2719,1
DA:2720,1
DA:2721,1
DA:2722,1
DA:2723,1
DA:2724,1
DA:2725,1
DA:2726,1
DA:2727,1
DA:2728,1
DA:2729,1
DA:2730,1
DA:2731,1
DA:2732,1
DA:2733,1
DA:2734,1
DA:2735,1
DA:2738,1
DA:2739,1
DA:2740,1
DA:2741,1
DA:2742,1
DA:2743,1
DA:2744,1
DA:2745,1
DA:2746,1
DA:2747,1
DA:2748,1
DA:2749,1
DA:2750,1
DA:2751,1
DA:2752,1
DA:2753,1
DA:2754,1
DA:2755,1
DA:2759,1
DA:2760,1
DA:2761,0
DA:2763,1
DA:2764,1
DA:2767,1
DA:2768,1
DA:2769,1
DA:2770,1
DA:2771,1
DA:2772,1
DA:2773,1
DA:2774,1
DA:2775,1
DA:2776,1
DA:2777,1
DA:2778,1
DA:2779,1
DA:2780,1
DA:2781,1
DA:2782,1
DA:2783,1
DA:2784,0
DA:2786,1
DA:2787,1
DA:2790,1
DA:2791,1
DA:2792,1
DA:2793,1
DA:2794,1
DA:2795,1
DA:2796,1
DA:2797,1
DA:2798,1
DA:2799,1
DA:2800,1
DA:2801,1
DA:2802,1
DA:2803,1
DA:2804,1
DA:2805,1
DA:2806,1
DA:2807,1
DA:2808,1
DA:2809,1
DA:2810,1
DA:2811,1
DA:2812,1
DA:2813,1
DA:2819,1
DA:2820,1
DA:2821,1
DA:2822,1
DA:2823,1
DA:2824,1
DA:2825,1
DA:2826,1
DA:2827,1
DA:2828,1
DA:2829,1
DA:2830,1
DA:2831,1
DA:2832,1
DA:2833,1
DA:2834,1
DA:2835,1
DA:2836,1
DA:2837,1
DA:2838,1
DA:2839,0
DA:2841,1
DA:2842,1
DA:2843,1
DA:2848,1
DA:2849,1
DA:2850,1
DA:2851,1
DA:2852,1
DA:2853,1
DA:2854,1
DA:2855,1
DA:2856,1
DA:2857,1
DA:2858,1
DA:2859,1
DA:2860,1
DA:2861,1
DA:2862,1
DA:2863,1
DA:2864,1
DA:2865,1
DA:2866,0
DA:2868,1
DA:2869,1
DA:2870,0
DA:2872,1
DA:2873,1
DA:2876,1
DA:2877,1
DA:2878,1
DA:2879,1
DA:2880,1
DA:2881,1
DA:2882,1
DA:2883,1
DA:2884,1
DA:2885,1
DA:2886,1
DA:2887,1
DA:2888,1
DA:2889,1
DA:2890,1
DA:2891,1
DA:2892,1
DA:2893,1
DA:2894,1
DA:2895,1
DA:2896,1
DA:2897,1
DA:2898,1
DA:2899,1
DA:2902,1
DA:2903,1
DA:2904,1
DA:2905,1
DA:2906,1
DA:2907,1
DA:2908,1
DA:2909,1
DA:2910,1
DA:2911,1
DA:2912,1
DA:2913,1
DA:2914,1
DA:2915,1
DA:2916,1
DA:2917,1
DA:2918,1
DA:2919,1
DA:2920,1
DA:2921,1
DA:2922,1
DA:2923,1
DA:2924,1
DA:2925,1
DA:2929,4
DA:2930,4
DA:2931,4
DA:2932,4
DA:2933,4
DA:2934,4
DA:2935,4
DA:2936,4
DA:2937,4
DA:2938,4
DA:2939,4
DA:2940,4
DA:2941,4
DA:2942,4
DA:2943,4
DA:2944,4
DA:2945,4
DA:2946,4
DA:2947,4
DA:2949,7
DA:2950,7
DA:2951,7
DA:2952,7
DA:2953,7
DA:2954,7
DA:2955,7
DA:2956,7
DA:2957,7
DA:2958,7
DA:2959,7
DA:2960,7
DA:2961,7
DA:2962,7
DA:2963,7
DA:2964,7
DA:2965,7
DA:2966,7
DA:2967,7
DA:2968,7
DA:2969,7
DA:2970,7
DA:2971,7
DA:2974,1
DA:2975,1
DA:2976,1
DA:2977,1
DA:2978,1
DA:2979,1
DA:2980,1
DA:2981,1
DA:2982,1
DA:2984,1
DA:2985,1
DA:2987,1
DA:2988,1
DA:2991,1
DA:2992,1
DA:2993,1
DA:2994,1
DA:2995,1
DA:2996,1
DA:2997,1
DA:2998,1
DA:2999,1
DA:3000,1
DA:3002,1
DA:3003,1
DA:3004,1
DA:3005,1
DA:3008,1
DA:3009,1
DA:3010,1
DA:3011,1
DA:3012,1
DA:3013,1
DA:3014,1
DA:3015,1
DA:3016,1
DA:3017,1
DA:3018,1
DA:3019,1
DA:3020,1
DA:3023,1
DA:3024,1
DA:3025,1
DA:3026,1
DA:3027,1
DA:3028,1
DA:3029,1
DA:3030,1
DA:3031,1
DA:3032,1
DA:3033,1
DA:3034,1
DA:3035,1
DA:3036,1
DA:3037,1
DA:3038,1
DA:3039,1
DA:3040,1
DA:3041,1
DA:3042,1
DA:3045,1
DA:3046,1
DA:3047,1
DA:3048,1
DA:3049,1
DA:3050,1
DA:3051,1
DA:3052,1
DA:3053,1
DA:3054,1
DA:3055,1
DA:3056,1
DA:3057,1
DA:3058,1
DA:3059,1
DA:3060,1
DA:3063,1
DA:3064,1
DA:3065,1
DA:3066,1
DA:3067,1
DA:3068,1
DA:3071,1
DA:3072,1
DA:3073,1
DA:3074,1
DA:3075,1
DA:3076,1
DA:3077,1
DA:3078,1
DA:3079,1
DA:3080,1
DA:3081,1
DA:3082,1
DA:3083,1
DA:3084,1
DA:3085,1
DA:3086,1
DA:3087,1
DA:3088,1
DA:3089,1
DA:3090,1
DA:3091,1
DA:3092,1
DA:3093,1
DA:3094,1
DA:3095,1
DA:3096,1
DA:3097,1
DA:3100,3
DA:3101,3
DA:3102,3
DA:3103,3
DA:3104,3
DA:3105,3
DA:3106,3
DA:3107,3
DA:3108,3
DA:3109,3
DA:3110,3
DA:3111,3
DA:3112,3
DA:3113,3
DA:3114,3
DA:3117,1
DA:3118,1
DA:3119,1
DA:3120,1
DA:3121,1
DA:3122,1
DA:3123,1
DA:3124,1
DA:3125,1
DA:3126,1
DA:3127,1
DA:3128,1
DA:3129,1
DA:3130,1
DA:3131,1
DA:3134,1
DA:3135,1
DA:3136,1
DA:3137,1
DA:3138,1
DA:3139,1
DA:3140,1
DA:3141,1
DA:3142,1
DA:3143,1
DA:3144,1
DA:3145,1
DA:3146,1
DA:3149,1
DA:3150,1
DA:3151,1
DA:3152,1
DA:3153,1
DA:3154,1
DA:3155,1
DA:3156,1
DA:3157,1
DA:3158,1
DA:3159,1
DA:3160,1
DA:3161,1
DA:3162,1
DA:3163,1
DA:3164,1
DA:3167,1
DA:3168,1
DA:3169,1
DA:3170,1
DA:3171,1
DA:3172,1
DA:3173,1
DA:3176,1
DA:3177,1
DA:3178,1
DA:3179,1
DA:3180,1
DA:3181,1
DA:3182,1
DA:3183,1
DA:3184,1
DA:3185,1
DA:3186,1
DA:3187,1
DA:3188,1
DA:3189,1
DA:3190,1
DA:3191,1
DA:3193,1
DA:3194,1
DA:3195,1
DA:3196,1
BRF:0
BRH:0
LF:1937
LH:1785
end_of_record
SF:/home/ubuntu/Code/ExpressGateway/crates/lb-controlplane/src/lib.rs
FN:72,_RNvMCs5FHhHkR4kv6_15lb_controlplaneNtB2_11FileBackend3new
FN:108,_RNvMs0_Cs5FHhHkR4kv6_15lb_controlplaneNtB5_15InMemoryBackend3new
FN:119,_RNvMs0_Cs5FHhHkR4kv6_15lb_controlplaneNtB5_15InMemoryBackend3set
FN:203,_RNvMs2_Cs5FHhHkR4kv6_15lb_controlplaneNtB5_13ConfigManager14current_config
FN:215,_RNvMs2_Cs5FHhHkR4kv6_15lb_controlplaneNtB5_13ConfigManager15previous_config
FN:262,_RNvMs2_Cs5FHhHkR4kv6_15lb_controlplaneNtB5_13ConfigManager20rollback_to_previous
FN:169,_RNvMs2_Cs5FHhHkR4kv6_15lb_controlplaneNtB5_13ConfigManager3new
FN:189,_RNvMs2_Cs5FHhHkR4kv6_15lb_controlplaneNtB5_13ConfigManager6reload
FN:209,_RNvMs2_Cs5FHhHkR4kv6_15lb_controlplaneNtB5_13ConfigManager7version
FN:244,_RNvMs2_Cs5FHhHkR4kv6_15lb_controlplaneNtB5_13ConfigManager8rollback
FN:227,_RNvMs2_Cs5FHhHkR4kv6_15lb_controlplaneNtB5_13ConfigManager8validate
FN:316,_RNvMs3_Cs5FHhHkR4kv6_15lb_controlplaneNtB5_8HaPoller10poll_count
FN:285,_RNvMs3_Cs5FHhHkR4kv6_15lb_controlplaneNtB5_8HaPoller3new
FN:301,_RNvMs3_Cs5FHhHkR4kv6_15lb_controlplaneNtB5_8HaPoller4poll
FN:131,_RNvXs1_Cs5FHhHkR4kv6_15lb_controlplaneNtB5_15InMemoryBackendNtB5_13ConfigBackend4load
FN:139,_RNvXs1_Cs5FHhHkR4kv6_15lb_controlplaneNtB5_15InMemoryBackendNtB5_13ConfigBackend5store
FN:78,_RNvXs_Cs5FHhHkR4kv6_15lb_controlplaneNtB4_11FileBackendNtB4_13ConfigBackend4load
FN:82,_RNvXs_Cs5FHhHkR4kv6_15lb_controlplaneNtB4_11FileBackendNtB4_13ConfigBackend5store
FN:123,_RNCNvMs0_Cs5FHhHkR4kv6_15lb_controlplaneNtB7_15InMemoryBackend3set0B7_
FN:235,_RNCNvMs2_Cs5FHhHkR4kv6_15lb_controlplaneNtB7_13ConfigManager8validate0B7_
FN:135,_RNCNvXs1_Cs5FHhHkR4kv6_15lb_controlplaneNtB7_15InMemoryBackendNtB7_13ConfigBackend4load0B7_
FN:143,_RNCNvXs1_Cs5FHhHkR4kv6_15lb_controlplaneNtB7_15InMemoryBackendNtB7_13ConfigBackend5store0B7_
FN:86,_RNCNvXs_Cs5FHhHkR4kv6_15lb_controlplaneNtB6_11FileBackendNtB6_13ConfigBackend5store0B6_
FN:91,_RNCNvXs_Cs5FHhHkR4kv6_15lb_controlplaneNtB6_11FileBackendNtB6_13ConfigBackend5stores0_0B6_
FN:91,_RNCNvXs_Cs5FHhHkR4kv6_15lb_controlplaneNtB6_11FileBackendNtB6_13ConfigBackend5stores1_0B6_
FN:90,_RNCNvXs_Cs5FHhHkR4kv6_15lb_controlplaneNtB6_11FileBackendNtB6_13ConfigBackend5stores_0B6_
FN:72,_RNvMCshH7fV0CEpjW_15lb_controlplaneNtB2_11FileBackend3new
FN:108,_RNvMs0_CshH7fV0CEpjW_15lb_controlplaneNtB5_15InMemoryBackend3new
FN:203,_RNvMs2_CshH7fV0CEpjW_15lb_controlplaneNtB5_13ConfigManager14current_config
FN:215,_RNvMs2_CshH7fV0CEpjW_15lb_controlplaneNtB5_13ConfigManager15previous_config
FN:262,_RNvMs2_CshH7fV0CEpjW_15lb_controlplaneNtB5_13ConfigManager20rollback_to_previous
FN:169,_RNvMs2_CshH7fV0CEpjW_15lb_controlplaneNtB5_13ConfigManager3new
FN:189,_RNvMs2_CshH7fV0CEpjW_15lb_controlplaneNtB5_13ConfigManager6reload
FN:209,_RNvMs2_CshH7fV0CEpjW_15lb_controlplaneNtB5_13ConfigManager7version
FN:227,_RNvMs2_CshH7fV0CEpjW_15lb_controlplaneNtB5_13ConfigManager8validate
FN:316,_RNvMs3_CshH7fV0CEpjW_15lb_controlplaneNtB5_8HaPoller10poll_count
FN:285,_RNvMs3_CshH7fV0CEpjW_15lb_controlplaneNtB5_8HaPoller3new
FN:301,_RNvMs3_CshH7fV0CEpjW_15lb_controlplaneNtB5_8HaPoller4poll
FN:131,_RNvXs1_CshH7fV0CEpjW_15lb_controlplaneNtB5_15InMemoryBackendNtB5_13ConfigBackend4load
FN:139,_RNvXs1_CshH7fV0CEpjW_15lb_controlplaneNtB5_15InMemoryBackendNtB5_13ConfigBackend5store
FN:78,_RNvXs_CshH7fV0CEpjW_15lb_controlplaneNtB4_11FileBackendNtB4_13ConfigBackend4load
FN:82,_RNvXs_CshH7fV0CEpjW_15lb_controlplaneNtB4_11FileBackendNtB4_13ConfigBackend5store
FN:395,_RNvNtCshH7fV0CEpjW_15lb_controlplane5testss_21validate_non_empty_ok
FN:405,_RNvNtCshH7fV0CEpjW_15lb_controlplane5testss_22validate_valid_toml_ok
FN:389,_RNvNtCshH7fV0CEpjW_15lb_controlplane5testss_23validate_empty_is_error
FN:415,_RNvNtCshH7fV0CEpjW_15lb_controlplane5testss_25file_backend_atomic_write
FN:335,_RNvNtCshH7fV0CEpjW_15lb_controlplane5testss_27config_manager_initial_load
FN:326,_RNvNtCshH7fV0CEpjW_15lb_controlplane5testss_28in_memory_backend_load_store
FN:400,_RNvNtCshH7fV0CEpjW_15lb_controlplane5testss_30validate_invalid_toml_is_error
FN:344,_RNvNtCshH7fV0CEpjW_15lb_controlplane5testss_31config_manager_reload_no_change
FN:461,_RNvNtCshH7fV0CEpjW_15lb_controlplane5testss_32ha_poller_no_change_returns_none
FN:452,_RNvNtCshH7fV0CEpjW_15lb_controlplane5testss_33ha_poller_first_poll_returns_some
FN:365,_RNvNtCshH7fV0CEpjW_15lb_controlplane5testss_35config_manager_rollback_to_previous
FN:352,_RNvNtCshH7fV0CEpjW_15lb_controlplane5testss_36config_manager_reload_saves_previous
FN:380,_RNvNtCshH7fV0CEpjW_15lb_controlplane5testss_40config_manager_rollback_to_previous_none
FN:445,_RNvNtCshH7fV0CEpjW_15lb_controlplane5testss_43config_manager_rejects_empty_initial_config
FN:435,_RNvNtCshH7fV0CEpjW_15lb_controlplane5testss_45config_manager_rejects_invalid_initial_config
FN:123,_RNCNvMs0_CshH7fV0CEpjW_15lb_controlplaneNtB7_15InMemoryBackend3set0B7_
FN:119,_RNvMs0_CshH7fV0CEpjW_15lb_controlplaneNtB5_15InMemoryBackend3set
FN:244,_RNvMs2_CshH7fV0CEpjW_15lb_controlplaneNtB5_13ConfigManager8rollback
FN:235,_RNCNvMs2_CshH7fV0CEpjW_15lb_controlplaneNtB7_13ConfigManager8validate0B7_
FN:135,_RNCNvXs1_CshH7fV0CEpjW_15lb_controlplaneNtB7_15InMemoryBackendNtB7_13ConfigBackend4load0B7_
FN:143,_RNCNvXs1_CshH7fV0CEpjW_15lb_controlplaneNtB7_15InMemoryBackendNtB7_13ConfigBackend5store0B7_
FN:86,_RNCNvXs_CshH7fV0CEpjW_15lb_controlplaneNtB6_11FileBackendNtB6_13ConfigBackend5store0B6_
FN:91,_RNCNvXs_CshH7fV0CEpjW_15lb_controlplaneNtB6_11FileBackendNtB6_13ConfigBackend5stores0_0B6_
FN:91,_RNCNvXs_CshH7fV0CEpjW_15lb_controlplaneNtB6_11FileBackendNtB6_13ConfigBackend5stores1_0B6_
FN:90,_RNCNvXs_CshH7fV0CEpjW_15lb_controlplaneNtB6_11FileBackendNtB6_13ConfigBackend5stores_0B6_
FNDA:5,_RNvMCs5FHhHkR4kv6_15lb_controlplaneNtB2_11FileBackend3new
FNDA:0,_RNvMs0_Cs5FHhHkR4kv6_15lb_controlplaneNtB5_15InMemoryBackend3new
FNDA:0,_RNvMs0_Cs5FHhHkR4kv6_15lb_controlplaneNtB5_15InMemoryBackend3set
FNDA:30,_RNvMs2_Cs5FHhHkR4kv6_15lb_controlplaneNtB5_13ConfigManager14current_config
FNDA:0,_RNvMs2_Cs5FHhHkR4kv6_15lb_controlplaneNtB5_13ConfigManager15previous_config
FNDA:0,_RNvMs2_Cs5FHhHkR4kv6_15lb_controlplaneNtB5_13ConfigManager20rollback_to_previous
FNDA:4,_RNvMs2_Cs5FHhHkR4kv6_15lb_controlplaneNtB5_13ConfigManager3new
FNDA:26,_RNvMs2_Cs5FHhHkR4kv6_15lb_controlplaneNtB5_13ConfigManager6reload
FNDA:33,_RNvMs2_Cs5FHhHkR4kv6_15lb_controlplaneNtB5_13ConfigManager7version
FNDA:3,_RNvMs2_Cs5FHhHkR4kv6_15lb_controlplaneNtB5_13ConfigManager8rollback
FNDA:32,_RNvMs2_Cs5FHhHkR4kv6_15lb_controlplaneNtB5_13ConfigManager8validate
FNDA:4,_RNvMs3_Cs5FHhHkR4kv6_15lb_controlplaneNtB5_8HaPoller10poll_count
FNDA:1,_RNvMs3_Cs5FHhHkR4kv6_15lb_controlplaneNtB5_8HaPoller3new
FNDA:4,_RNvMs3_Cs5FHhHkR4kv6_15lb_controlplaneNtB5_8HaPoller4poll
FNDA:0,_RNvXs1_Cs5FHhHkR4kv6_15lb_controlplaneNtB5_15InMemoryBackendNtB5_13ConfigBackend4load
FNDA:0,_RNvXs1_Cs5FHhHkR4kv6_15lb_controlplaneNtB5_15InMemoryBackendNtB5_13ConfigBackend5store
FNDA:34,_RNvXs_Cs5FHhHkR4kv6_15lb_controlplaneNtB4_11FileBackendNtB4_13ConfigBackend4load
FNDA:2,_RNvXs_Cs5FHhHkR4kv6_15lb_controlplaneNtB4_11FileBackendNtB4_13ConfigBackend5store
FNDA:0,_RNCNvMs0_Cs5FHhHkR4kv6_15lb_controlplaneNtB7_15InMemoryBackend3set0B7_
FNDA:0,_RNCNvMs2_Cs5FHhHkR4kv6_15lb_controlplaneNtB7_13ConfigManager8validate0B7_
FNDA:0,_RNCNvXs1_Cs5FHhHkR4kv6_15lb_controlplaneNtB7_15InMemoryBackendNtB7_13ConfigBackend4load0B7_
FNDA:0,_RNCNvXs1_Cs5FHhHkR4kv6_15lb_controlplaneNtB7_15InMemoryBackendNtB7_13ConfigBackend5store0B7_
FNDA:0,_RNCNvXs_Cs5FHhHkR4kv6_15lb_controlplaneNtB6_11FileBackendNtB6_13ConfigBackend5store0B6_
FNDA:0,_RNCNvXs_Cs5FHhHkR4kv6_15lb_controlplaneNtB6_11FileBackendNtB6_13ConfigBackend5stores0_0B6_
FNDA:2,_RNCNvXs_Cs5FHhHkR4kv6_15lb_controlplaneNtB6_11FileBackendNtB6_13ConfigBackend5stores1_0B6_
FNDA:2,_RNCNvXs_Cs5FHhHkR4kv6_15lb_controlplaneNtB6_11FileBackendNtB6_13ConfigBackend5stores_0B6_
FNDA:1,_RNvMCshH7fV0CEpjW_15lb_controlplaneNtB2_11FileBackend3new
FNDA:10,_RNvMs0_CshH7fV0CEpjW_15lb_controlplaneNtB5_15InMemoryBackend3new
FNDA:4,_RNvMs2_CshH7fV0CEpjW_15lb_controlplaneNtB5_13ConfigManager14current_config
FNDA:2,_RNvMs2_CshH7fV0CEpjW_15lb_controlplaneNtB5_13ConfigManager15previous_config
FNDA:2,_RNvMs2_CshH7fV0CEpjW_15lb_controlplaneNtB5_13ConfigManager20rollback_to_previous
FNDA:7,_RNvMs2_CshH7fV0CEpjW_15lb_controlplaneNtB5_13ConfigManager3new
FNDA:3,_RNvMs2_CshH7fV0CEpjW_15lb_controlplaneNtB5_13ConfigManager6reload
FNDA:4,_RNvMs2_CshH7fV0CEpjW_15lb_controlplaneNtB5_13ConfigManager7version
FNDA:14,_RNvMs2_CshH7fV0CEpjW_15lb_controlplaneNtB5_13ConfigManager8validate
FNDA:2,_RNvMs3_CshH7fV0CEpjW_15lb_controlplaneNtB5_8HaPoller10poll_count
FNDA:2,_RNvMs3_CshH7fV0CEpjW_15lb_controlplaneNtB5_8HaPoller3new
FNDA:3,_RNvMs3_CshH7fV0CEpjW_15lb_controlplaneNtB5_8HaPoller4poll
FNDA:15,_RNvXs1_CshH7fV0CEpjW_15lb_controlplaneNtB5_15InMemoryBackendNtB5_13ConfigBackend4load
FNDA:4,_RNvXs1_CshH7fV0CEpjW_15lb_controlplaneNtB5_15InMemoryBackendNtB5_13ConfigBackend5store
FNDA:1,_RNvXs_CshH7fV0CEpjW_15lb_controlplaneNtB4_11FileBackendNtB4_13ConfigBackend4load
FNDA:1,_RNvXs_CshH7fV0CEpjW_15lb_controlplaneNtB4_11FileBackendNtB4_13ConfigBackend5store
FNDA:1,_RNvNtCshH7fV0CEpjW_15lb_controlplane5testss_21validate_non_empty_ok
FNDA:1,_RNvNtCshH7fV0CEpjW_15lb_controlplane5testss_22validate_valid_toml_ok
FNDA:1,_RNvNtCshH7fV0CEpjW_15lb_controlplane5testss_23validate_empty_is_error
FNDA:1,_RNvNtCshH7fV0CEpjW_15lb_controlplane5testss_25file_backend_atomic_write
FNDA:1,_RNvNtCshH7fV0CEpjW_15lb_controlplane5testss_27config_manager_initial_load
FNDA:1,_RNvNtCshH7fV0CEpjW_15lb_controlplane5testss_28in_memory_backend_load_store
FNDA:1,_RNvNtCshH7fV0CEpjW_15lb_controlplane5testss_30validate_invalid_toml_is_error
FNDA:1,_RNvNtCshH7fV0CEpjW_15lb_controlplane5testss_31config_manager_reload_no_change
FNDA:1,_RNvNtCshH7fV0CEpjW_15lb_controlplane5testss_32ha_poller_no_change_returns_none
FNDA:1,_RNvNtCshH7fV0CEpjW_15lb_controlplane5testss_33ha_poller_first_poll_returns_some
FNDA:1,_RNvNtCshH7fV0CEpjW_15lb_controlplane5testss_35config_manager_rollback_to_previous
FNDA:1,_RNvNtCshH7fV0CEpjW_15lb_controlplane5testss_36config_manager_reload_saves_previous
FNDA:1,_RNvNtCshH7fV0CEpjW_15lb_controlplane5testss_40config_manager_rollback_to_previous_none
FNDA:1,_RNvNtCshH7fV0CEpjW_15lb_controlplane5testss_43config_manager_rejects_empty_initial_config
FNDA:1,_RNvNtCshH7fV0CEpjW_15lb_controlplane5testss_45config_manager_rejects_invalid_initial_config
FNDA:0,_RNCNvMs0_CshH7fV0CEpjW_15lb_controlplaneNtB7_15InMemoryBackend3set0B7_
FNDA:0,_RNvMs0_CshH7fV0CEpjW_15lb_controlplaneNtB5_15InMemoryBackend3set
FNDA:0,_RNvMs2_CshH7fV0CEpjW_15lb_controlplaneNtB5_13ConfigManager8rollback
FNDA:2,_RNCNvMs2_CshH7fV0CEpjW_15lb_controlplaneNtB7_13ConfigManager8validate0B7_
FNDA:0,_RNCNvXs1_CshH7fV0CEpjW_15lb_controlplaneNtB7_15InMemoryBackendNtB7_13ConfigBackend4load0B7_
FNDA:0,_RNCNvXs1_CshH7fV0CEpjW_15lb_controlplaneNtB7_15InMemoryBackendNtB7_13ConfigBackend5store0B7_
FNDA:0,_RNCNvXs_CshH7fV0CEpjW_15lb_controlplaneNtB6_11FileBackendNtB6_13ConfigBackend5store0B6_
FNDA:0,_RNCNvXs_CshH7fV0CEpjW_15lb_controlplaneNtB6_11FileBackendNtB6_13ConfigBackend5stores0_0B6_
FNDA:1,_RNCNvXs_CshH7fV0CEpjW_15lb_controlplaneNtB6_11FileBackendNtB6_13ConfigBackend5stores1_0B6_
FNDA:1,_RNCNvXs_CshH7fV0CEpjW_15lb_controlplaneNtB6_11FileBackendNtB6_13ConfigBackend5stores_0B6_
FNF:41
FNH:35
DA:72,6
DA:73,6
DA:74,6
DA:78,35
DA:79,35
DA:80,35
DA:82,3
DA:83,3
DA:84,3
DA:85,3
DA:86,3
DA:87,3
DA:88,3
DA:89,3
DA:90,3
DA:91,3
DA:92,3
DA:93,3
DA:94,3
DA:95,3
DA:96,3
DA:108,10
DA:109,10
DA:110,10
DA:111,10
DA:112,10
DA:119,0
DA:120,0
DA:121,0
DA:122,0
DA:123,0
DA:124,0
DA:125,0
DA:126,0
DA:127,0
DA:131,15
DA:132,15
DA:133,15
DA:134,15
DA:135,15
DA:136,15
DA:137,15
DA:139,4
DA:140,4
DA:141,4
DA:142,4
DA:143,4
DA:144,4
DA:145,4
DA:146,4
DA:147,4
DA:169,11
DA:170,11
DA:171,11
DA:172,9
DA:173,9
DA:174,9
DA:175,9
DA:176,9
DA:177,9
DA:178,11
DA:189,29
DA:190,29
DA:191,29
DA:192,4
DA:193,25
DA:194,25
DA:195,25
DA:196,25
DA:197,25
DA:198,25
DA:199,29
DA:203,34
DA:204,34
DA:205,34
DA:209,37
DA:210,37
DA:211,37
DA:215,2
DA:216,2
DA:217,2
DA:227,46
DA:228,46
DA:229,6
DA:230,6
DA:231,6
DA:232,40
DA:233,40
DA:234,40
DA:235,40
DA:236,38
DA:237,46
DA:244,3
DA:245,3
DA:246,2
DA:247,2
DA:248,2
DA:249,2
DA:250,2
DA:251,3
DA:262,2
DA:263,2
DA:264,1
DA:266,1
DA:267,1
DA:268,1
DA:269,1
DA:270,1
DA:271,2
DA:285,3
DA:286,3
DA:287,3
DA:288,3
DA:289,3
DA:290,3
DA:291,3
DA:301,7
DA:302,7
DA:303,7
DA:305,4
DA:306,4
DA:308,4
DA:309,4
DA:312,7
DA:316,6
DA:317,6
DA:318,6
DA:326,1
DA:327,1
DA:328,1
DA:330,1
DA:331,1
DA:332,1
DA:335,1
DA:336,1
DA:337,1
DA:338,1
DA:339,1
DA:340,1
DA:341,1
DA:344,1
DA:345,1
DA:346,1
DA:347,1
DA:348,1
DA:349,1
DA:352,1
DA:353,1
DA:354,1
DA:355,1
DA:356,1
DA:357,1
DA:358,1
DA:359,1
DA:360,1
DA:361,1
DA:362,1
DA:365,1
DA:366,1
DA:367,1
DA:368,1
DA:369,1
DA:370,1
DA:371,1
DA:374,1
DA:375,1
DA:376,1
DA:377,1
DA:380,1
DA:381,1
DA:382,1
DA:383,1
DA:384,1
DA:385,1
DA:386,1
DA:389,1
DA:390,1
DA:391,1
DA:392,1
DA:395,1
DA:396,1
DA:397,1
DA:400,1
DA:401,1
DA:402,1
DA:405,1
DA:406,1
DA:407,1
DA:408,1
DA:409,1
DA:410,1
DA:411,1
DA:412,1
DA:415,1
DA:416,1
DA:417,1
DA:418,1
DA:419,1
DA:420,1
DA:421,1
DA:422,1
DA:423,1
DA:424,1
DA:427,1
DA:428,1
DA:431,1
DA:432,1
DA:435,1
DA:436,1
DA:437,1
DA:438,1
DA:439,1
DA:440,0
DA:442,1
DA:445,1
DA:446,1
DA:447,1
DA:448,1
DA:449,1
DA:452,1
DA:453,1
DA:454,1
DA:455,1
DA:456,1
DA:457,1
DA:458,1
DA:461,1
DA:462,1
DA:463,1
DA:464,1
DA:465,1
DA:466,1
DA:467,1
DA:468,1
BRF:0
BRH:0
LF:242
LH:227
end_of_record
SF:/home/ubuntu/Code/ExpressGateway/crates/lb-core/src/authority.rs
FN:102,_RNCNvNtCsgdBts1zkGS4_7lb_core9authority11port_suffix0B5_
FN:72,_RNCNvNtCsgdBts1zkGS4_7lb_core9authority8validate0B5_
FN:85,_RNCNvNtCsgdBts1zkGS4_7lb_core9authority8validates0_0B5_
FN:73,_RNCNvNtCsgdBts1zkGS4_7lb_core9authority8validates_0B5_
FN:94,_RNvNtCsgdBts1zkGS4_7lb_core9authority11port_suffix
FN:57,_RNvNtCsgdBts1zkGS4_7lb_core9authority8validate
FN:94,_RNvNtCsfA3gT5iywVa_7lb_core9authority11port_suffix
FN:57,_RNvNtCsfA3gT5iywVa_7lb_core9authority8validate
FN:102,_RNCNvNtCsfA3gT5iywVa_7lb_core9authority11port_suffix0B5_
FN:72,_RNCNvNtCsfA3gT5iywVa_7lb_core9authority8validate0B5_
FN:85,_RNCNvNtCsfA3gT5iywVa_7lb_core9authority8validates0_0B5_
FN:73,_RNCNvNtCsfA3gT5iywVa_7lb_core9authority8validates_0B5_
FN:116,_RNvNtNtCsfA3gT5iywVa_7lb_core9authority5testss_14comma_rejected
FN:133,_RNvNtNtCsfA3gT5iywVa_7lb_core9authority5testss_14empty_rejected
FN:145,_RNvNtNtCsfA3gT5iywVa_7lb_core9authority5testss_16port_digits_only
FN:154,_RNvNtNtCsfA3gT5iywVa_7lb_core9authority5testss_19happy_path_examples
FN:121,_RNvNtNtCsfA3gT5iywVa_7lb_core9authority5testss_19whitespace_rejected
FN:127,_RNvNtNtCsfA3gT5iywVa_7lb_core9authority5testss_21control_char_rejected
FN:138,_RNvNtNtCsfA3gT5iywVa_7lb_core9authority5testss_26ipv6_brackets_must_balance
FN:164,_RNvNtNtCsfA3gT5iywVa_7lb_core9authority5testss_31empty_port_after_colon_rejected
FN:169,_RNvNtNtCsfA3gT5iywVa_7lb_core9authority5testss_40raw_ipv6_without_brackets_accepted_today
FNDA:22601,_RNCNvNtCsgdBts1zkGS4_7lb_core9authority11port_suffix0B5_
FNDA:22601,_RNCNvNtCsgdBts1zkGS4_7lb_core9authority8validate0B5_
FNDA:2705,_RNCNvNtCsgdBts1zkGS4_7lb_core9authority8validates0_0B5_
FNDA:22601,_RNCNvNtCsgdBts1zkGS4_7lb_core9authority8validates_0B5_
FNDA:1324,_RNvNtCsgdBts1zkGS4_7lb_core9authority11port_suffix
FNDA:1339,_RNvNtCsgdBts1zkGS4_7lb_core9authority8validate
FNDA:11,_RNvNtCsfA3gT5iywVa_7lb_core9authority11port_suffix
FNDA:19,_RNvNtCsfA3gT5iywVa_7lb_core9authority8validate
FNDA:107,_RNCNvNtCsfA3gT5iywVa_7lb_core9authority11port_suffix0B5_
FNDA:135,_RNCNvNtCsfA3gT5iywVa_7lb_core9authority8validate0B5_
FNDA:17,_RNCNvNtCsfA3gT5iywVa_7lb_core9authority8validates0_0B5_
FNDA:135,_RNCNvNtCsfA3gT5iywVa_7lb_core9authority8validates_0B5_
FNDA:1,_RNvNtNtCsfA3gT5iywVa_7lb_core9authority5testss_14comma_rejected
FNDA:1,_RNvNtNtCsfA3gT5iywVa_7lb_core9authority5testss_14empty_rejected
FNDA:1,_RNvNtNtCsfA3gT5iywVa_7lb_core9authority5testss_16port_digits_only
FNDA:1,_RNvNtNtCsfA3gT5iywVa_7lb_core9authority5testss_19happy_path_examples
FNDA:1,_RNvNtNtCsfA3gT5iywVa_7lb_core9authority5testss_19whitespace_rejected
FNDA:1,_RNvNtNtCsfA3gT5iywVa_7lb_core9authority5testss_21control_char_rejected
FNDA:1,_RNvNtNtCsfA3gT5iywVa_7lb_core9authority5testss_26ipv6_brackets_must_balance
FNDA:1,_RNvNtNtCsfA3gT5iywVa_7lb_core9authority5testss_31empty_port_after_colon_rejected
FNDA:1,_RNvNtNtCsfA3gT5iywVa_7lb_core9authority5testss_40raw_ipv6_without_brackets_accepted_today
FNF:15
FNH:15
DA:57,1358
DA:58,1358
DA:59,1
DA:60,1357
DA:61,22932
DA:62,22932
DA:63,12
DA:64,6
DA:65,22914
DA:66,22912
DA:72,22736
DA:73,22736
DA:74,1337
DA:75,2
DA:76,1335
DA:81,1335
DA:82,556
DA:83,1
DA:84,555
DA:85,2722
DA:86,1
DA:87,554
DA:88,779
DA:89,1333
DA:90,1358
DA:94,1335
DA:96,1335
DA:97,2
DA:98,2
DA:99,1333
DA:100,1333
DA:101,1333
DA:102,22708
DA:103,1333
DA:104,779
DA:105,554
DA:106,554
DA:107,554
DA:108,1335
DA:116,1
DA:117,1
DA:118,1
DA:121,1
DA:122,1
DA:123,1
DA:124,1
DA:127,1
DA:128,1
DA:129,1
DA:130,1
DA:133,1
DA:134,1
DA:135,1
DA:138,1
DA:139,1
DA:140,1
DA:141,1
DA:142,1
DA:145,1
DA:146,1
DA:147,1
DA:148,1
DA:149,1
DA:150,1
DA:151,1
DA:154,1
DA:155,1
DA:156,1
DA:157,1
DA:158,1
DA:159,1
DA:160,1
DA:161,1
DA:164,1
DA:165,1
DA:166,1
DA:169,1
DA:170,1
DA:171,1
DA:172,1
DA:173,1
DA:174,1
DA:175,1
DA:176,1
DA:177,1
BRF:0
BRH:0
LF:89
LH:89
end_of_record
SF:/home/ubuntu/Code/ExpressGateway/crates/lb-core/src/backend.rs
FN:29,_RNvMNtCsgdBts1zkGS4_7lb_core7backendNtB2_7Backend2id
FN:19,_RNvMNtCsgdBts1zkGS4_7lb_core7backendNtB2_7Backend3new
FN:41,_RNvMNtCsgdBts1zkGS4_7lb_core7backendNtB2_7Backend6weight
FN:35,_RNvMNtCsgdBts1zkGS4_7lb_core7backendNtB2_7Backend7address
FN:157,_RNvMs_NtCsgdBts1zkGS4_7lb_core7backendNtB4_12BackendState10latency_ns
FN:139,_RNvMs_NtCsgdBts1zkGS4_7lb_core7backendNtB4_12BackendState12dec_requests
FN:134,_RNvMs_NtCsgdBts1zkGS4_7lb_core7backendNtB4_12BackendState12inc_requests
FN:162,_RNvMs_NtCsgdBts1zkGS4_7lb_core7backendNtB4_12BackendState14set_latency_ns
FN:129,_RNvMs_NtCsgdBts1zkGS4_7lb_core7backendNtB4_12BackendState15active_requests
FN:110,_RNvMs_NtCsgdBts1zkGS4_7lb_core7backendNtB4_12BackendState15dec_connections
FN:102,_RNvMs_NtCsgdBts1zkGS4_7lb_core7backendNtB4_12BackendState15inc_connections
FN:81,_RNvMs_NtCsgdBts1zkGS4_7lb_core7backendNtB4_12BackendState18active_connections
FN:71,_RNvMs_NtCsgdBts1zkGS4_7lb_core7backendNtB4_12BackendState3new
FN:168,_RNvXs0_NtCsgdBts1zkGS4_7lb_core7backendNtB5_12BackendStateNtNtCs2va5m0jqTTM_4core7default7Default7default
FN:174,_RNvXs1_NtCsgdBts1zkGS4_7lb_core7backendNtB5_12BackendStateNtNtCs2va5m0jqTTM_4core5clone5Clone5clone
FN:168,_RNvXs0_NtCsfA3gT5iywVa_7lb_core7backendNtB5_12BackendStateNtNtCs2va5m0jqTTM_4core7default7Default7default
FN:174,_RNvXs1_NtCsfA3gT5iywVa_7lb_core7backendNtB5_12BackendStateNtNtCs2va5m0jqTTM_4core5clone5Clone5clone
FN:29,_RNvMNtCsfA3gT5iywVa_7lb_core7backendNtB2_7Backend2id
FN:19,_RNvMNtCsfA3gT5iywVa_7lb_core7backendNtB2_7Backend3new
FN:41,_RNvMNtCsfA3gT5iywVa_7lb_core7backendNtB2_7Backend6weight
FN:35,_RNvMNtCsfA3gT5iywVa_7lb_core7backendNtB2_7Backend7address
FN:157,_RNvMs_NtCsfA3gT5iywVa_7lb_core7backendNtB4_12BackendState10latency_ns
FN:139,_RNvMs_NtCsfA3gT5iywVa_7lb_core7backendNtB4_12BackendState12dec_requests
FN:134,_RNvMs_NtCsfA3gT5iywVa_7lb_core7backendNtB4_12BackendState12inc_requests
FN:162,_RNvMs_NtCsfA3gT5iywVa_7lb_core7backendNtB4_12BackendState14set_latency_ns
FN:129,_RNvMs_NtCsfA3gT5iywVa_7lb_core7backendNtB4_12BackendState15active_requests
FN:110,_RNvMs_NtCsfA3gT5iywVa_7lb_core7backendNtB4_12BackendState15dec_connections
FN:102,_RNvMs_NtCsfA3gT5iywVa_7lb_core7backendNtB4_12BackendState15inc_connections
FN:81,_RNvMs_NtCsfA3gT5iywVa_7lb_core7backendNtB4_12BackendState18active_connections
FN:71,_RNvMs_NtCsfA3gT5iywVa_7lb_core7backendNtB4_12BackendState3new
FNDA:0,_RNvMNtCsgdBts1zkGS4_7lb_core7backendNtB2_7Backend2id
FNDA:0,_RNvMNtCsgdBts1zkGS4_7lb_core7backendNtB2_7Backend3new
FNDA:0,_RNvMNtCsgdBts1zkGS4_7lb_core7backendNtB2_7Backend6weight
FNDA:0,_RNvMNtCsgdBts1zkGS4_7lb_core7backendNtB2_7Backend7address
FNDA:26023,_RNvMs_NtCsgdBts1zkGS4_7lb_core7backendNtB4_12BackendState10latency_ns
FNDA:0,_RNvMs_NtCsgdBts1zkGS4_7lb_core7backendNtB4_12BackendState12dec_requests
FNDA:1,_RNvMs_NtCsgdBts1zkGS4_7lb_core7backendNtB4_12BackendState12inc_requests
FNDA:1,_RNvMs_NtCsgdBts1zkGS4_7lb_core7backendNtB4_12BackendState14set_latency_ns
FNDA:26023,_RNvMs_NtCsgdBts1zkGS4_7lb_core7backendNtB4_12BackendState15active_requests
FNDA:20000,_RNvMs_NtCsgdBts1zkGS4_7lb_core7backendNtB4_12BackendState15dec_connections
FNDA:46044,_RNvMs_NtCsgdBts1zkGS4_7lb_core7backendNtB4_12BackendState15inc_connections
FNDA:46026,_RNvMs_NtCsgdBts1zkGS4_7lb_core7backendNtB4_12BackendState18active_connections
FNDA:5,_RNvMs_NtCsgdBts1zkGS4_7lb_core7backendNtB4_12BackendState3new
FNDA:0,_RNvXs0_NtCsgdBts1zkGS4_7lb_core7backendNtB5_12BackendStateNtNtCs2va5m0jqTTM_4core7default7Default7default
FNDA:0,_RNvXs1_NtCsgdBts1zkGS4_7lb_core7backendNtB5_12BackendStateNtNtCs2va5m0jqTTM_4core5clone5Clone5clone
FNDA:0,_RNvXs0_NtCsfA3gT5iywVa_7lb_core7backendNtB5_12BackendStateNtNtCs2va5m0jqTTM_4core7default7Default7default
FNDA:0,_RNvXs1_NtCsfA3gT5iywVa_7lb_core7backendNtB5_12BackendStateNtNtCs2va5m0jqTTM_4core5clone5Clone5clone
FNDA:3,_RNvMNtCsfA3gT5iywVa_7lb_core7backendNtB2_7Backend2id
FNDA:4,_RNvMNtCsfA3gT5iywVa_7lb_core7backendNtB2_7Backend3new
FNDA:3,_RNvMNtCsfA3gT5iywVa_7lb_core7backendNtB2_7Backend6weight
FNDA:3,_RNvMNtCsfA3gT5iywVa_7lb_core7backendNtB2_7Backend7address
FNDA:2,_RNvMs_NtCsfA3gT5iywVa_7lb_core7backendNtB4_12BackendState10latency_ns
FNDA:1,_RNvMs_NtCsfA3gT5iywVa_7lb_core7backendNtB4_12BackendState12dec_requests
FNDA:3,_RNvMs_NtCsfA3gT5iywVa_7lb_core7backendNtB4_12BackendState12inc_requests
FNDA:1,_RNvMs_NtCsfA3gT5iywVa_7lb_core7backendNtB4_12BackendState14set_latency_ns
FNDA:3,_RNvMs_NtCsfA3gT5iywVa_7lb_core7backendNtB4_12BackendState15active_requests
FNDA:1,_RNvMs_NtCsfA3gT5iywVa_7lb_core7backendNtB4_12BackendState15dec_connections
FNDA:2,_RNvMs_NtCsfA3gT5iywVa_7lb_core7backendNtB4_12BackendState15inc_connections
FNDA:3,_RNvMs_NtCsfA3gT5iywVa_7lb_core7backendNtB4_12BackendState18active_connections
FNDA:3,_RNvMs_NtCsfA3gT5iywVa_7lb_core7backendNtB4_12BackendState3new
FNF:15
FNH:13
DA:19,4
DA:20,4
DA:21,4
DA:22,4
DA:23,4
DA:24,4
DA:25,4
DA:29,3
DA:30,3
DA:31,3
DA:35,3
DA:36,3
DA:37,3
DA:41,3
DA:42,3
DA:43,3
DA:71,8
DA:72,8
DA:73,8
DA:74,8
DA:75,8
DA:76,8
DA:77,8
DA:81,46029
DA:82,46029
DA:83,46029
DA:102,46046
DA:103,46046
DA:104,46046
DA:105,46046
DA:106,46046
DA:107,46046
DA:110,20001
DA:111,20001
DA:112,20001
DA:114,70880
DA:115,70880
DA:116,70880
DA:117,70880
DA:118,70880
DA:119,70880
DA:120,70880
DA:121,20001
DA:122,50879
DA:125,20001
DA:129,26026
DA:130,26026
DA:131,26026
DA:134,4
DA:135,4
DA:136,4
DA:139,1
DA:140,1
DA:142,1
DA:143,1
DA:144,1
DA:145,1
DA:146,1
DA:147,1
DA:148,1
DA:149,1
DA:150,0
DA:153,1
DA:157,26025
DA:158,26025
DA:159,26025
DA:162,2
DA:163,2
DA:164,2
DA:168,0
DA:169,0
DA:170,0
DA:174,0
DA:175,0
DA:176,0
DA:177,0
DA:178,0
DA:179,0
DA:180,0
BRF:0
BRH:0
LF:79
LH:68
end_of_record
SF:/home/ubuntu/Code/ExpressGateway/crates/lb-core/src/cluster.rs
FN:40,_RNvMNtCsfA3gT5iywVa_7lb_core7clusterNtB2_7Cluster12backends_mut
FN:19,_RNvMNtCsfA3gT5iywVa_7lb_core7clusterNtB2_7Cluster3new
FN:29,_RNvMNtCsfA3gT5iywVa_7lb_core7clusterNtB2_7Cluster4name
FN:46,_RNvMNtCsfA3gT5iywVa_7lb_core7clusterNtB2_7Cluster6policy
FN:35,_RNvMNtCsfA3gT5iywVa_7lb_core7clusterNtB2_7Cluster8backends
FNDA:0,_RNvMNtCsfA3gT5iywVa_7lb_core7clusterNtB2_7Cluster12backends_mut
FNDA:2,_RNvMNtCsfA3gT5iywVa_7lb_core7clusterNtB2_7Cluster3new
FNDA:3,_RNvMNtCsfA3gT5iywVa_7lb_core7clusterNtB2_7Cluster4name
FNDA:1,_RNvMNtCsfA3gT5iywVa_7lb_core7clusterNtB2_7Cluster6policy
FNDA:2,_RNvMNtCsfA3gT5iywVa_7lb_core7clusterNtB2_7Cluster8backends
FNF:5
FNH:4
DA:19,2
DA:20,2
DA:21,2
DA:22,2
DA:23,2
DA:24,2
DA:25,2
DA:29,3
DA:30,3
DA:31,3
DA:35,2
DA:36,2
DA:37,2
DA:40,0
DA:41,0
DA:42,0
DA:46,1
DA:47,1
DA:48,1
BRF:0
BRH:0
LF:19
LH:16
end_of_record
SF:/home/ubuntu/Code/ExpressGateway/crates/lb-core/src/lib.rs
FN:39,_RNvNtCsfA3gT5iywVa_7lb_core5testss_21test_backend_creation
FN:102,_RNvNtCsfA3gT5iywVa_7lb_core5testss_21test_cluster_creation
FN:134,_RNvNtCsfA3gT5iywVa_7lb_core5testss_23test_core_error_display
FN:84,_RNvNtCsfA3gT5iywVa_7lb_core5testss_23test_lb_policy_variants
FN:76,_RNvNtCsfA3gT5iywVa_7lb_core5testss_26test_backend_state_latency
FN:48,_RNvNtCsfA3gT5iywVa_7lb_core5testss_27test_backend_health_default
FN:64,_RNvNtCsfA3gT5iywVa_7lb_core5testss_27test_backend_state_requests
FN:112,_RNvNtCsfA3gT5iywVa_7lb_core5testss_28test_backend_serde_roundtrip
FN:123,_RNvNtCsfA3gT5iywVa_7lb_core5testss_28test_cluster_serde_roundtrip
FN:53,_RNvNtCsfA3gT5iywVa_7lb_core5testss_30test_backend_state_connections
FNDA:1,_RNvNtCsfA3gT5iywVa_7lb_core5testss_21test_backend_creation
FNDA:1,_RNvNtCsfA3gT5iywVa_7lb_core5testss_21test_cluster_creation
FNDA:1,_RNvNtCsfA3gT5iywVa_7lb_core5testss_23test_core_error_display
FNDA:1,_RNvNtCsfA3gT5iywVa_7lb_core5testss_23test_lb_policy_variants
FNDA:1,_RNvNtCsfA3gT5iywVa_7lb_core5testss_26test_backend_state_latency
FNDA:1,_RNvNtCsfA3gT5iywVa_7lb_core5testss_27test_backend_health_default
FNDA:1,_RNvNtCsfA3gT5iywVa_7lb_core5testss_27test_backend_state_requests
FNDA:1,_RNvNtCsfA3gT5iywVa_7lb_core5testss_28test_backend_serde_roundtrip
FNDA:1,_RNvNtCsfA3gT5iywVa_7lb_core5testss_28test_cluster_serde_roundtrip
FNDA:1,_RNvNtCsfA3gT5iywVa_7lb_core5testss_30test_backend_state_connections
FNF:10
FNH:10
DA:39,1
DA:40,1
DA:41,1
DA:42,1
DA:43,1
DA:44,1
DA:45,1
DA:48,1
DA:49,1
DA:50,1
DA:53,1
DA:54,1
DA:55,1
DA:56,1
DA:57,1
DA:58,1
DA:59,1
DA:60,1
DA:61,1
DA:64,1
DA:65,1
DA:66,1
DA:67,1
DA:68,1
DA:69,1
DA:70,1
DA:71,1
DA:72,1
DA:73,1
DA:76,1
DA:77,1
DA:78,1
DA:79,1
DA:80,1
DA:81,1
DA:84,1
DA:85,1
DA:86,1
DA:87,1
DA:88,1
DA:89,1
DA:90,1
DA:91,1
DA:92,1
DA:93,1
DA:94,1
DA:95,1
DA:96,1
DA:97,1
DA:98,1
DA:99,1
DA:102,1
DA:103,1
DA:104,1
DA:105,1
DA:106,1
DA:107,1
DA:108,1
DA:109,1
DA:112,1
DA:113,1
DA:114,1
DA:115,1
DA:116,1
DA:117,1
DA:118,1
DA:119,1
DA:120,1
DA:123,1
DA:124,1
DA:125,1
DA:126,1
DA:127,1
DA:128,1
DA:129,1
DA:130,1
DA:131,1
DA:134,1
DA:135,1
DA:136,1
DA:137,1
DA:138,1
DA:139,1
DA:140,1
DA:141,1
BRF:0
BRH:0
LF:85
LH:85
end_of_record
SF:/home/ubuntu/Code/ExpressGateway/crates/lb-core/src/shutdown.rs
FN:722,_RNCNvNtCsgdBts1zkGS4_7lb_core8shutdown13jitter_millis0B5_
FN:192,_RNCNvMNtCsgdBts1zkGS4_7lb_core8shutdownNtB4_8Shutdown9run_drain0Csfji7v5okg5d_14expressgateway
FN:127,_RNvMNtCsgdBts1zkGS4_7lb_core8shutdownNtB2_8Shutdown14listener_token
FN:99,_RNvMNtCsgdBts1zkGS4_7lb_core8shutdownNtB2_8Shutdown3new
FN:144,_RNvMNtCsgdBts1zkGS4_7lb_core8shutdownNtB2_8Shutdown5child
FN:162,_RNvMNtCsgdBts1zkGS4_7lb_core8shutdownNtB2_8Shutdown5drain
FN:114,_RNvMNtCsgdBts1zkGS4_7lb_core8shutdownNtB2_8Shutdown5token
FN:135,_RNvMNtCsgdBts1zkGS4_7lb_core8shutdownNtB2_8Shutdown7tracker
FN:192,_RNvMNtCsgdBts1zkGS4_7lb_core8shutdownNtB2_8Shutdown9run_drain
FN:466,_RNvMs0_NtCsgdBts1zkGS4_7lb_core8shutdownNtB5_15ListenerOutcome8as_label
FN:500,_RNvMs1_NtCsgdBts1zkGS4_7lb_core8shutdownNtB5_16XdpDetachOutcome8as_label
FN:533,_RNvMs2_NtCsgdBts1zkGS4_7lb_core8shutdownNtB5_10DrainPhase8as_label
FN:577,_RNvMs3_NtCsgdBts1zkGS4_7lb_core8shutdownNtB5_11PhaseTiming12with_outcome
FN:559,_RNvMs3_NtCsgdBts1zkGS4_7lb_core8shutdownNtB5_11PhaseTiming4zero
FN:568,_RNvMs3_NtCsgdBts1zkGS4_7lb_core8shutdownNtB5_11PhaseTiming5clean
FN:711,_RNvNtCsgdBts1zkGS4_7lb_core8shutdown13jitter_millis
FN:676,_RNvXs4_NtCsgdBts1zkGS4_7lb_core8shutdownNtB5_9DrainSpecNtNtCs2va5m0jqTTM_4core7default7Default7default
FN:691,_RNvXs5_NtCsgdBts1zkGS4_7lb_core8shutdownNtB5_9DrainSpecNtNtCs2va5m0jqTTM_4core3fmt5Debug3fmt
FN:426,_RNvXs_NtCsgdBts1zkGS4_7lb_core8shutdownNtB4_8ShutdownNtNtCs2va5m0jqTTM_4core7default7Default7default
FN:162,_RNCNvMNtCsfA3gT5iywVa_7lb_core8shutdownNtB4_8Shutdown5drain0B6_
FN:192,_RNCNvMNtCsfA3gT5iywVa_7lb_core8shutdownNtB4_8Shutdown9run_drain0B6_
FN:722,_RNCNvNtCsfA3gT5iywVa_7lb_core8shutdown13jitter_millis0B5_
FN:127,_RNvMNtCsfA3gT5iywVa_7lb_core8shutdownNtB2_8Shutdown14listener_token
FN:99,_RNvMNtCsfA3gT5iywVa_7lb_core8shutdownNtB2_8Shutdown3new
FN:144,_RNvMNtCsfA3gT5iywVa_7lb_core8shutdownNtB2_8Shutdown5child
FN:162,_RNvMNtCsfA3gT5iywVa_7lb_core8shutdownNtB2_8Shutdown5drain
FN:114,_RNvMNtCsfA3gT5iywVa_7lb_core8shutdownNtB2_8Shutdown5token
FN:135,_RNvMNtCsfA3gT5iywVa_7lb_core8shutdownNtB2_8Shutdown7tracker
FN:192,_RNvMNtCsfA3gT5iywVa_7lb_core8shutdownNtB2_8Shutdown9run_drain
FN:466,_RNvMs0_NtCsfA3gT5iywVa_7lb_core8shutdownNtB5_15ListenerOutcome8as_label
FN:500,_RNvMs1_NtCsfA3gT5iywVa_7lb_core8shutdownNtB5_16XdpDetachOutcome8as_label
FN:533,_RNvMs2_NtCsfA3gT5iywVa_7lb_core8shutdownNtB5_10DrainPhase8as_label
FN:577,_RNvMs3_NtCsfA3gT5iywVa_7lb_core8shutdownNtB5_11PhaseTiming12with_outcome
FN:559,_RNvMs3_NtCsfA3gT5iywVa_7lb_core8shutdownNtB5_11PhaseTiming4zero
FN:568,_RNvMs3_NtCsfA3gT5iywVa_7lb_core8shutdownNtB5_11PhaseTiming5clean
FN:711,_RNvNtCsfA3gT5iywVa_7lb_core8shutdown13jitter_millis
FN:676,_RNvXs4_NtCsfA3gT5iywVa_7lb_core8shutdownNtB5_9DrainSpecNtNtCs2va5m0jqTTM_4core7default7Default7default
FN:691,_RNvXs5_NtCsfA3gT5iywVa_7lb_core8shutdownNtB5_9DrainSpecNtNtCs2va5m0jqTTM_4core3fmt5Debug3fmt
FN:426,_RNvXs_NtCsfA3gT5iywVa_7lb_core8shutdownNtB4_8ShutdownNtNtCs2va5m0jqTTM_4core7default7Default7default
FN:162,_RNCNvMNtCsgdBts1zkGS4_7lb_core8shutdownNtB4_8Shutdown5drain0Csdxv6n8BRkhY_20per_connection_drain
FN:192,_RNCNvMNtCsgdBts1zkGS4_7lb_core8shutdownNtB4_8Shutdown9run_drain0Csdxv6n8BRkhY_20per_connection_drain
FN:192,_RNCNvMNtCsgdBts1zkGS4_7lb_core8shutdownNtB4_8Shutdown9run_drain0Cs3K6GAy2Aui8_19round8_drain_15case
FN:192,_RNCNvMNtCsgdBts1zkGS4_7lb_core8shutdownNtB4_8Shutdown9run_drain0CsaslptstK3xo_24round8_drain_coordinator
FN:162,_RNCNvMNtCsgdBts1zkGS4_7lb_core8shutdownNtB4_8Shutdown5drain0Cs2PXAFOiFzE0_8shutdown
FN:192,_RNCNvMNtCsgdBts1zkGS4_7lb_core8shutdownNtB4_8Shutdown9run_drain0Cs2PXAFOiFzE0_8shutdown
FNDA:0,_RNCNvNtCsgdBts1zkGS4_7lb_core8shutdown13jitter_millis0B5_
FNDA:0,_RNCNvMNtCsgdBts1zkGS4_7lb_core8shutdownNtB4_8Shutdown9run_drain0Csfji7v5okg5d_14expressgateway
FNDA:8,_RNvMNtCsgdBts1zkGS4_7lb_core8shutdownNtB2_8Shutdown14listener_token
FNDA:31,_RNvMNtCsgdBts1zkGS4_7lb_core8shutdownNtB2_8Shutdown3new
FNDA:2,_RNvMNtCsgdBts1zkGS4_7lb_core8shutdownNtB2_8Shutdown5child
FNDA:7,_RNvMNtCsgdBts1zkGS4_7lb_core8shutdownNtB2_8Shutdown5drain
FNDA:13,_RNvMNtCsgdBts1zkGS4_7lb_core8shutdownNtB2_8Shutdown5token
FNDA:14,_RNvMNtCsgdBts1zkGS4_7lb_core8shutdownNtB2_8Shutdown7tracker
FNDA:31,_RNvMNtCsgdBts1zkGS4_7lb_core8shutdownNtB2_8Shutdown9run_drain
FNDA:0,_RNvMs0_NtCsgdBts1zkGS4_7lb_core8shutdownNtB5_15ListenerOutcome8as_label
FNDA:0,_RNvMs1_NtCsgdBts1zkGS4_7lb_core8shutdownNtB5_16XdpDetachOutcome8as_label
FNDA:0,_RNvMs2_NtCsgdBts1zkGS4_7lb_core8shutdownNtB5_10DrainPhase8as_label
FNDA:112,_RNvMs3_NtCsgdBts1zkGS4_7lb_core8shutdownNtB5_11PhaseTiming12with_outcome
FNDA:168,_RNvMs3_NtCsgdBts1zkGS4_7lb_core8shutdownNtB5_11PhaseTiming4zero
FNDA:56,_RNvMs3_NtCsgdBts1zkGS4_7lb_core8shutdownNtB5_11PhaseTiming5clean
FNDA:0,_RNvNtCsgdBts1zkGS4_7lb_core8shutdown13jitter_millis
FNDA:0,_RNvXs4_NtCsgdBts1zkGS4_7lb_core8shutdownNtB5_9DrainSpecNtNtCs2va5m0jqTTM_4core7default7Default7default
FNDA:0,_RNvXs5_NtCsgdBts1zkGS4_7lb_core8shutdownNtB5_9DrainSpecNtNtCs2va5m0jqTTM_4core3fmt5Debug3fmt
FNDA:0,_RNvXs_NtCsgdBts1zkGS4_7lb_core8shutdownNtB4_8ShutdownNtNtCs2va5m0jqTTM_4core7default7Default7default
FNDA:0,_RNCNvMNtCsfA3gT5iywVa_7lb_core8shutdownNtB4_8Shutdown5drain0B6_
FNDA:0,_RNCNvMNtCsfA3gT5iywVa_7lb_core8shutdownNtB4_8Shutdown9run_drain0B6_
FNDA:0,_RNCNvNtCsfA3gT5iywVa_7lb_core8shutdown13jitter_millis0B5_
FNDA:0,_RNvMNtCsfA3gT5iywVa_7lb_core8shutdownNtB2_8Shutdown14listener_token
FNDA:0,_RNvMNtCsfA3gT5iywVa_7lb_core8shutdownNtB2_8Shutdown3new
FNDA:0,_RNvMNtCsfA3gT5iywVa_7lb_core8shutdownNtB2_8Shutdown5child
FNDA:0,_RNvMNtCsfA3gT5iywVa_7lb_core8shutdownNtB2_8Shutdown5drain
FNDA:0,_RNvMNtCsfA3gT5iywVa_7lb_core8shutdownNtB2_8Shutdown5token
FNDA:0,_RNvMNtCsfA3gT5iywVa_7lb_core8shutdownNtB2_8Shutdown7tracker
FNDA:0,_RNvMNtCsfA3gT5iywVa_7lb_core8shutdownNtB2_8Shutdown9run_drain
FNDA:0,_RNvMs0_NtCsfA3gT5iywVa_7lb_core8shutdownNtB5_15ListenerOutcome8as_label
FNDA:0,_RNvMs1_NtCsfA3gT5iywVa_7lb_core8shutdownNtB5_16XdpDetachOutcome8as_label
FNDA:0,_RNvMs2_NtCsfA3gT5iywVa_7lb_core8shutdownNtB5_10DrainPhase8as_label
FNDA:0,_RNvMs3_NtCsfA3gT5iywVa_7lb_core8shutdownNtB5_11PhaseTiming12with_outcome
FNDA:0,_RNvMs3_NtCsfA3gT5iywVa_7lb_core8shutdownNtB5_11PhaseTiming4zero
FNDA:0,_RNvMs3_NtCsfA3gT5iywVa_7lb_core8shutdownNtB5_11PhaseTiming5clean
FNDA:0,_RNvNtCsfA3gT5iywVa_7lb_core8shutdown13jitter_millis
FNDA:0,_RNvXs4_NtCsfA3gT5iywVa_7lb_core8shutdownNtB5_9DrainSpecNtNtCs2va5m0jqTTM_4core7default7Default7default
FNDA:0,_RNvXs5_NtCsfA3gT5iywVa_7lb_core8shutdownNtB5_9DrainSpecNtNtCs2va5m0jqTTM_4core3fmt5Debug3fmt
FNDA:0,_RNvXs_NtCsfA3gT5iywVa_7lb_core8shutdownNtB4_8ShutdownNtNtCs2va5m0jqTTM_4core7default7Default7default
FNDA:3,_RNCNvMNtCsgdBts1zkGS4_7lb_core8shutdownNtB4_8Shutdown5drain0Csdxv6n8BRkhY_20per_connection_drain
FNDA:3,_RNCNvMNtCsgdBts1zkGS4_7lb_core8shutdownNtB4_8Shutdown9run_drain0Csdxv6n8BRkhY_20per_connection_drain
FNDA:18,_RNCNvMNtCsgdBts1zkGS4_7lb_core8shutdownNtB4_8Shutdown9run_drain0Cs3K6GAy2Aui8_19round8_drain_15case
FNDA:6,_RNCNvMNtCsgdBts1zkGS4_7lb_core8shutdownNtB4_8Shutdown9run_drain0CsaslptstK3xo_24round8_drain_coordinator
FNDA:4,_RNCNvMNtCsgdBts1zkGS4_7lb_core8shutdownNtB4_8Shutdown5drain0Cs2PXAFOiFzE0_8shutdown
FNDA:4,_RNCNvMNtCsgdBts1zkGS4_7lb_core8shutdownNtB4_8Shutdown9run_drain0Cs2PXAFOiFzE0_8shutdown
FNF:20
FNH:12
DA:99,31
DA:100,31
DA:101,31
DA:102,31
DA:103,31
DA:104,31
DA:105,31
DA:106,31
DA:107,31
DA:108,31
DA:114,13
DA:115,13
DA:116,13
DA:127,8
DA:128,8
DA:129,8
DA:135,14
DA:136,14
DA:137,14
DA:144,2
DA:145,2
DA:146,2
DA:147,2
DA:148,2
DA:149,2
DA:150,2
DA:151,2
DA:162,7
DA:163,7
DA:164,7
DA:165,7
DA:166,7
DA:167,7
DA:168,7
DA:169,7
DA:170,7
DA:171,7
DA:172,7
DA:173,7
DA:174,7
DA:175,5
DA:176,2
DA:177,2
DA:178,2
DA:180,7
DA:192,31
DA:193,31
DA:194,31
DA:195,31
DA:196,31
DA:197,31
DA:198,31
DA:199,31
DA:200,31
DA:201,31
DA:202,31
DA:205,3
DA:206,0
DA:213,3
DA:214,3
DA:215,0
DA:216,0
DA:217,0
DA:218,0
DA:219,0
DA:220,0
DA:221,0
DA:222,0
DA:223,0
DA:224,0
DA:225,0
DA:226,0
DA:227,0
DA:228,0
DA:229,0
DA:230,0
DA:231,0
DA:232,0
DA:233,0
DA:234,28
DA:235,28
DA:236,28
DA:237,28
DA:238,28
DA:239,28
DA:240,28
DA:241,28
DA:242,28
DA:243,28
DA:244,28
DA:245,28
DA:246,28
DA:247,28
DA:248,28
DA:249,28
DA:250,28
DA:251,28
DA:252,28
DA:253,28
DA:254,28
DA:255,28
DA:256,28
DA:257,28
DA:258,28
DA:259,28
DA:260,28
DA:261,28
DA:262,28
DA:263,28
DA:264,28
DA:265,28
DA:266,28
DA:267,28
DA:268,28
DA:269,28
DA:270,2
DA:271,26
DA:272,28
DA:273,28
DA:274,2
DA:275,26
DA:280,28
DA:281,28
DA:282,18
DA:283,10
DA:284,28
DA:285,28
DA:286,2
DA:287,26
DA:295,28
DA:296,28
DA:297,21
DA:298,21
DA:299,21
DA:300,21
DA:301,21
DA:302,21
DA:303,21
DA:304,21
DA:305,21
DA:307,7
DA:309,28
DA:310,28
DA:311,28
DA:312,28
DA:313,28
DA:314,28
DA:315,28
DA:316,28
DA:317,28
DA:318,2
DA:319,26
DA:325,28
DA:326,0
DA:327,0
DA:328,0
DA:329,0
DA:330,28
DA:332,28
DA:333,28
DA:334,28
DA:335,28
DA:336,28
DA:337,22
DA:338,6
DA:342,0
DA:343,0
DA:345,0
DA:348,28
DA:349,28
DA:350,28
DA:351,28
DA:352,28
DA:353,28
DA:354,28
DA:355,28
DA:356,28
DA:357,28
DA:358,28
DA:359,2
DA:360,26
DA:368,28
DA:369,28
DA:370,28
DA:372,5
DA:373,3
DA:374,2
DA:377,23
DA:379,28
DA:380,25
DA:382,3
DA:385,28
DA:386,28
DA:387,28
DA:388,28
DA:389,28
DA:390,28
DA:391,28
DA:392,28
DA:393,28
DA:394,2
DA:395,26
DA:399,28
DA:400,28
DA:401,28
DA:402,3
DA:403,22
DA:407,19
DA:409,9
DA:412,28
DA:413,2
DA:414,26
DA:418,28
DA:419,28
DA:420,28
DA:421,28
DA:422,31
DA:426,0
DA:427,0
DA:428,0
DA:466,0
DA:467,0
DA:468,0
DA:469,0
DA:471,0
DA:500,0
DA:501,0
DA:502,0
DA:503,0
DA:504,0
DA:505,0
DA:507,0
DA:533,0
DA:534,0
DA:535,0
DA:536,0
DA:537,0
DA:538,0
DA:539,0
DA:540,0
DA:542,0
DA:559,168
DA:560,168
DA:561,168
DA:562,168
DA:563,168
DA:564,168
DA:565,168
DA:568,56
DA:569,56
DA:570,56
DA:571,56
DA:572,56
DA:573,56
DA:574,56
DA:577,112
DA:578,112
DA:579,112
DA:580,112
DA:581,112
DA:582,112
DA:583,112
DA:676,0
DA:677,0
DA:678,0
DA:679,0
DA:680,0
DA:681,0
DA:682,0
DA:683,0
DA:684,0
DA:685,0
DA:686,0
DA:687,0
DA:691,0
DA:692,0
DA:693,0
DA:694,0
DA:695,0
DA:696,0
DA:697,0
DA:698,0
DA:699,0
DA:700,0
DA:701,0
DA:702,0
DA:711,0
DA:714,0
DA:715,0
DA:716,0
DA:717,0
DA:718,0
DA:719,0
DA:720,0
DA:721,0
DA:722,0
DA:723,0
DA:724,0
DA:725,0
DA:726,0
BRF:0
BRH:0
LF:303
LH:211
end_of_record
SF:/home/ubuntu/Code/ExpressGateway/crates/lb-cp-client/src/lib.rs
FN:58,_RNvMCsb9cIobLbXDi_12lb_cp_clientNtB2_8CpClient12has_endpoint
FN:64,_RNvMCsb9cIobLbXDi_12lb_cp_clientNtB2_8CpClient12is_connected
FN:43,_RNvMCsb9cIobLbXDi_12lb_cp_clientNtB2_8CpClient3new
FN:73,_RNvMCsb9cIobLbXDi_12lb_cp_clientNtB2_8CpClient7connect
FN:83,_RNvXs_Csb9cIobLbXDi_12lb_cp_clientNtB4_8CpClientNtNtCs2va5m0jqTTM_4core7default7Default7default
FN:51,_RINvMCsb9cIobLbXDi_12lb_cp_clientNtB3_8CpClient12set_endpointReEB3_
FN:115,_RNvNtCsb9cIobLbXDi_12lb_cp_client5testss_14default_is_new
FN:93,_RNvNtCsb9cIobLbXDi_12lb_cp_client5testss_23new_client_disconnected
FN:106,_RNvNtCsb9cIobLbXDi_12lb_cp_client5testss_24connect_with_endpoint_ok
FN:100,_RNvNtCsb9cIobLbXDi_12lb_cp_client5testss_31connect_without_endpoint_errors
FNDA:2,_RNvMCsb9cIobLbXDi_12lb_cp_clientNtB2_8CpClient12has_endpoint
FNDA:3,_RNvMCsb9cIobLbXDi_12lb_cp_clientNtB2_8CpClient12is_connected
FNDA:4,_RNvMCsb9cIobLbXDi_12lb_cp_clientNtB2_8CpClient3new
FNDA:2,_RNvMCsb9cIobLbXDi_12lb_cp_clientNtB2_8CpClient7connect
FNDA:1,_RNvXs_Csb9cIobLbXDi_12lb_cp_clientNtB4_8CpClientNtNtCs2va5m0jqTTM_4core7default7Default7default
FNDA:1,_RINvMCsb9cIobLbXDi_12lb_cp_clientNtB3_8CpClient12set_endpointReEB3_
FNDA:1,_RNvNtCsb9cIobLbXDi_12lb_cp_client5testss_14default_is_new
FNDA:1,_RNvNtCsb9cIobLbXDi_12lb_cp_client5testss_23new_client_disconnected
FNDA:1,_RNvNtCsb9cIobLbXDi_12lb_cp_client5testss_24connect_with_endpoint_ok
FNDA:1,_RNvNtCsb9cIobLbXDi_12lb_cp_client5testss_31connect_without_endpoint_errors
FNF:10
FNH:10
DA:43,4
DA:44,4
DA:45,4
DA:46,4
DA:47,4
DA:48,4
DA:51,1
DA:52,1
DA:53,1
DA:54,1
DA:58,2
DA:59,2
DA:60,2
DA:64,3
DA:65,3
DA:66,3
DA:73,2
DA:74,2
DA:75,1
DA:76,1
DA:77,1
DA:78,1
DA:79,2
DA:83,1
DA:84,1
DA:85,1
DA:93,1
DA:94,1
DA:95,1
DA:96,1
DA:97,1
DA:100,1
DA:101,1
DA:102,1
DA:103,1
DA:106,1
DA:107,1
DA:108,1
DA:109,1
DA:110,1
DA:111,1
DA:112,1
DA:115,1
DA:116,1
DA:117,1
DA:118,1
BRF:0
BRH:0
LF:46
LH:46
end_of_record
SF:/home/ubuntu/Code/ExpressGateway/crates/lb-grpc/src/deadline.rs
FN:29,_RNvMNtCs89ePBhylGLd_7lb_grpc8deadlineNtB2_12GrpcDeadline13parse_timeout
FN:66,_RNvMNtCs89ePBhylGLd_7lb_grpc8deadlineNtB2_12GrpcDeadline14format_timeout
FN:88,_RNvMNtCs89ePBhylGLd_7lb_grpc8deadlineNtB2_12GrpcDeadline9remaining
FN:43,_RNCNvMNtCs89ePBhylGLd_7lb_grpc8deadlineNtB4_12GrpcDeadline13parse_timeout0B6_
FN:43,_RNCNvMNtCs930EdXc37Ob_7lb_grpc8deadlineNtB4_12GrpcDeadline13parse_timeout0B6_
FN:29,_RNvMNtCs930EdXc37Ob_7lb_grpc8deadlineNtB2_12GrpcDeadline13parse_timeout
FN:66,_RNvMNtCs930EdXc37Ob_7lb_grpc8deadlineNtB2_12GrpcDeadline14format_timeout
FN:88,_RNvMNtCs930EdXc37Ob_7lb_grpc8deadlineNtB2_12GrpcDeadline9remaining
FNDA:13,_RNvMNtCs89ePBhylGLd_7lb_grpc8deadlineNtB2_12GrpcDeadline13parse_timeout
FNDA:5,_RNvMNtCs89ePBhylGLd_7lb_grpc8deadlineNtB2_12GrpcDeadline14format_timeout
FNDA:2,_RNvMNtCs89ePBhylGLd_7lb_grpc8deadlineNtB2_12GrpcDeadline9remaining
FNDA:2,_RNCNvMNtCs89ePBhylGLd_7lb_grpc8deadlineNtB4_12GrpcDeadline13parse_timeout0B6_
FNDA:1,_RNCNvMNtCs930EdXc37Ob_7lb_grpc8deadlineNtB4_12GrpcDeadline13parse_timeout0B6_
FNDA:17,_RNvMNtCs930EdXc37Ob_7lb_grpc8deadlineNtB2_12GrpcDeadline13parse_timeout
FNDA:1,_RNvMNtCs930EdXc37Ob_7lb_grpc8deadlineNtB2_12GrpcDeadline14format_timeout
FNDA:3,_RNvMNtCs930EdXc37Ob_7lb_grpc8deadlineNtB2_12GrpcDeadline9remaining
FNF:4
FNH:4
DA:29,30
DA:30,30
DA:31,1
DA:32,29
DA:33,29
DA:34,29
DA:35,29
DA:36,29
DA:37,29
DA:38,1
DA:39,28
DA:41,28
DA:42,28
DA:43,28
DA:48,25
DA:49,25
DA:50,23
DA:51,19
DA:52,12
DA:53,9
DA:54,5
DA:55,1
DA:58,24
DA:59,30
DA:66,6
DA:67,6
DA:68,0
DA:69,6
DA:70,6
DA:71,6
DA:72,0
DA:73,6
DA:74,6
DA:75,2
DA:76,4
DA:77,4
DA:78,3
DA:79,1
DA:80,1
DA:81,1
DA:82,6
DA:88,5
DA:89,5
DA:90,3
DA:91,2
DA:92,2
DA:93,5
BRF:0
BRH:0
LF:48
LH:46
end_of_record
SF:/home/ubuntu/Code/ExpressGateway/crates/lb-grpc/src/frame.rs
FN:44,_RNvNtCs89ePBhylGLd_7lb_grpc5frame17decode_grpc_frame
FN:99,_RNvNtCs89ePBhylGLd_7lb_grpc5frame17encode_grpc_frame
FN:100,_RNCNvNtCs89ePBhylGLd_7lb_grpc5frame17encode_grpc_frame0B5_
FN:100,_RNCNvNtCs930EdXc37Ob_7lb_grpc5frame17encode_grpc_frame0B5_
FN:44,_RNvNtCs930EdXc37Ob_7lb_grpc5frame17decode_grpc_frame
FN:99,_RNvNtCs930EdXc37Ob_7lb_grpc5frame17encode_grpc_frame
FNDA:52,_RNvNtCs89ePBhylGLd_7lb_grpc5frame17decode_grpc_frame
FNDA:52,_RNvNtCs89ePBhylGLd_7lb_grpc5frame17encode_grpc_frame
FNDA:0,_RNCNvNtCs89ePBhylGLd_7lb_grpc5frame17encode_grpc_frame0B5_
FNDA:0,_RNCNvNtCs930EdXc37Ob_7lb_grpc5frame17encode_grpc_frame0B5_
FNDA:11,_RNvNtCs930EdXc37Ob_7lb_grpc5frame17decode_grpc_frame
FNDA:8,_RNvNtCs930EdXc37Ob_7lb_grpc5frame17encode_grpc_frame
FNF:3
FNH:2
DA:44,63
DA:45,63
DA:46,63
DA:47,63
DA:48,63
DA:49,1
DA:50,62
DA:53,62
DA:54,62
DA:55,60
DA:56,2
DA:57,0
DA:58,0
DA:59,0
DA:60,0
DA:65,62
DA:66,62
DA:67,62
DA:68,62
DA:69,62
DA:71,62
DA:72,62
DA:73,62
DA:74,1
DA:75,1
DA:76,1
DA:77,1
DA:78,61
DA:79,61
DA:80,61
DA:81,61
DA:82,61
DA:83,1
DA:84,60
DA:86,60
DA:87,60
DA:88,60
DA:91,60
DA:92,63
DA:99,60
DA:100,60
DA:101,0
DA:102,60
DA:104,60
DA:105,60
DA:106,60
DA:107,60
DA:108,60
DA:109,60
DA:110,60
BRF:0
BRH:0
LF:52
LH:45
end_of_record
SF:/home/ubuntu/Code/ExpressGateway/crates/lb-grpc/src/lib.rs
FN:94,_RNCNvNtCs930EdXc37Ob_7lb_grpc5testss_18multi_frame_decode0B5_
FN:135,_RNvNtCs930EdXc37Ob_7lb_grpc5testss_14status_to_http
FN:62,_RNvNtCs930EdXc37Ob_7lb_grpc5testss_16frame_empty_data
FN:144,_RNvNtCs930EdXc37Ob_7lb_grpc5testss_16status_from_http
FN:184,_RNvNtCs930EdXc37Ob_7lb_grpc5testss_18deadline_remaining
FN:92,_RNvNtCs930EdXc37Ob_7lb_grpc5testss_18multi_frame_decode
FN:164,_RNvNtCs930EdXc37Ob_7lb_grpc5testss_20deadline_parse_hours
FN:179,_RNvNtCs930EdXc37Ob_7lb_grpc5testss_20deadline_parse_nanos
FN:174,_RNvNtCs930EdXc37Ob_7lb_grpc5testss_21deadline_parse_micros
FN:159,_RNvNtCs930EdXc37Ob_7lb_grpc5testss_21deadline_parse_millis
FN:82,_RNvNtCs930EdXc37Ob_7lb_grpc5testss_21frame_incomplete_body
FN:169,_RNvNtCs930EdXc37Ob_7lb_grpc5testss_22deadline_parse_minutes
FN:154,_RNvNtCs930EdXc37Ob_7lb_grpc5testss_22deadline_parse_seconds
FN:222,_RNvNtCs930EdXc37Ob_7lb_grpc5testss_22grpc_message_too_large
FN:116,_RNvNtCs930EdXc37Ob_7lb_grpc5testss_22status_from_code_valid
FN:198,_RNvNtCs930EdXc37Ob_7lb_grpc5testss_23deadline_invalid_format
FN:75,_RNvNtCs930EdXc37Ob_7lb_grpc5testss_23frame_incomplete_header
FN:129,_RNvNtCs930EdXc37Ob_7lb_grpc5testss_24status_from_code_invalid
FN:191,_RNvNtCs930EdXc37Ob_7lb_grpc5testss_25deadline_format_roundtrip
FN:50,_RNvNtCs930EdXc37Ob_7lb_grpc5testss_26frame_roundtrip_compressed
FN:37,_RNvNtCs930EdXc37Ob_7lb_grpc5testss_28frame_roundtrip_uncompressed
FN:206,_RNvNtCs930EdXc37Ob_7lb_grpc5testss_33deadline_submillisecond_rounds_up
FNDA:5,_RNCNvNtCs930EdXc37Ob_7lb_grpc5testss_18multi_frame_decode0B5_
FNDA:1,_RNvNtCs930EdXc37Ob_7lb_grpc5testss_14status_to_http
FNDA:1,_RNvNtCs930EdXc37Ob_7lb_grpc5testss_16frame_empty_data
FNDA:1,_RNvNtCs930EdXc37Ob_7lb_grpc5testss_16status_from_http
FNDA:1,_RNvNtCs930EdXc37Ob_7lb_grpc5testss_18deadline_remaining
FNDA:1,_RNvNtCs930EdXc37Ob_7lb_grpc5testss_18multi_frame_decode
FNDA:1,_RNvNtCs930EdXc37Ob_7lb_grpc5testss_20deadline_parse_hours
FNDA:1,_RNvNtCs930EdXc37Ob_7lb_grpc5testss_20deadline_parse_nanos
FNDA:1,_RNvNtCs930EdXc37Ob_7lb_grpc5testss_21deadline_parse_micros
FNDA:1,_RNvNtCs930EdXc37Ob_7lb_grpc5testss_21deadline_parse_millis
FNDA:1,_RNvNtCs930EdXc37Ob_7lb_grpc5testss_21frame_incomplete_body
FNDA:1,_RNvNtCs930EdXc37Ob_7lb_grpc5testss_22deadline_parse_minutes
FNDA:1,_RNvNtCs930EdXc37Ob_7lb_grpc5testss_22deadline_parse_seconds
FNDA:1,_RNvNtCs930EdXc37Ob_7lb_grpc5testss_22grpc_message_too_large
FNDA:1,_RNvNtCs930EdXc37Ob_7lb_grpc5testss_22status_from_code_valid
FNDA:1,_RNvNtCs930EdXc37Ob_7lb_grpc5testss_23deadline_invalid_format
FNDA:1,_RNvNtCs930EdXc37Ob_7lb_grpc5testss_23frame_incomplete_header
FNDA:1,_RNvNtCs930EdXc37Ob_7lb_grpc5testss_24status_from_code_invalid
FNDA:1,_RNvNtCs930EdXc37Ob_7lb_grpc5testss_25deadline_format_roundtrip
FNDA:1,_RNvNtCs930EdXc37Ob_7lb_grpc5testss_26frame_roundtrip_compressed
FNDA:1,_RNvNtCs930EdXc37Ob_7lb_grpc5testss_28frame_roundtrip_uncompressed
FNDA:1,_RNvNtCs930EdXc37Ob_7lb_grpc5testss_33deadline_submillisecond_rounds_up
FNF:22
FNH:22
DA:37,1
DA:38,1
DA:39,1
DA:40,1
DA:41,1
DA:42,1
DA:43,1
DA:44,1
DA:45,1
DA:46,1
DA:47,1
DA:50,1
DA:51,1
DA:52,1
DA:53,1
DA:54,1
DA:55,1
DA:56,1
DA:57,1
DA:58,1
DA:59,1
DA:62,1
DA:63,1
DA:64,1
DA:65,1
DA:66,1
DA:67,1
DA:68,1
DA:69,1
DA:70,1
DA:71,1
DA:72,1
DA:75,1
DA:76,1
DA:77,1
DA:78,1
DA:79,1
DA:82,1
DA:83,1
DA:84,1
DA:85,1
DA:86,1
DA:87,1
DA:88,1
DA:89,1
DA:92,1
DA:93,1
DA:94,5
DA:95,5
DA:96,5
DA:97,5
DA:98,1
DA:99,1
DA:100,1
DA:101,6
DA:102,5
DA:103,5
DA:105,1
DA:106,5
DA:107,5
DA:108,5
DA:109,5
DA:110,5
DA:112,1
DA:113,1
DA:116,1
DA:117,1
DA:118,1
DA:119,1
DA:120,1
DA:121,1
DA:122,1
DA:123,1
DA:124,1
DA:125,1
DA:126,1
DA:129,1
DA:130,1
DA:131,1
DA:132,1
DA:135,1
DA:136,1
DA:137,1
DA:138,1
DA:139,1
DA:140,1
DA:141,1
DA:144,1
DA:145,1
DA:146,1
DA:147,1
DA:148,1
DA:149,1
DA:150,1
DA:151,1
DA:154,1
DA:155,1
DA:156,1
DA:159,1
DA:160,1
DA:161,1
DA:164,1
DA:165,1
DA:166,1
DA:169,1
DA:170,1
DA:171,1
DA:174,1
DA:175,1
DA:176,1
DA:179,1
DA:180,1
DA:181,1
DA:184,1
DA:185,1
DA:186,1
DA:187,1
DA:188,1
DA:191,1
DA:192,1
DA:193,1
DA:194,1
DA:195,1
DA:198,1
DA:199,1
DA:200,1
DA:201,1
DA:202,1
DA:203,1
DA:206,1
DA:207,1
DA:208,1
DA:210,1
DA:212,1
DA:214,1
DA:216,1
DA:218,1
DA:219,1
DA:222,1
DA:223,1
DA:224,1
DA:225,1
DA:226,1
DA:227,1
DA:228,1
DA:229,1
DA:230,1
DA:231,1
DA:232,1
DA:233,1
DA:234,1
DA:236,1
BRF:0
BRH:0
LF:154
LH:154
end_of_record
SF:/home/ubuntu/Code/ExpressGateway/crates/lb-grpc/src/status.rs
FN:81,_RNvMNtCs89ePBhylGLd_7lb_grpc6statusNtB2_10GrpcStatus14to_http_status
FN:102,_RNvMNtCs89ePBhylGLd_7lb_grpc6statusNtB2_10GrpcStatus16from_http_status
FN:54,_RNvMNtCs89ePBhylGLd_7lb_grpc6statusNtB2_10GrpcStatus9from_code
FN:81,_RNvMNtCs930EdXc37Ob_7lb_grpc6statusNtB2_10GrpcStatus14to_http_status
FN:102,_RNvMNtCs930EdXc37Ob_7lb_grpc6statusNtB2_10GrpcStatus16from_http_status
FN:54,_RNvMNtCs930EdXc37Ob_7lb_grpc6statusNtB2_10GrpcStatus9from_code
FNDA:5,_RNvMNtCs89ePBhylGLd_7lb_grpc6statusNtB2_10GrpcStatus14to_http_status
FNDA:7,_RNvMNtCs89ePBhylGLd_7lb_grpc6statusNtB2_10GrpcStatus16from_http_status
FNDA:2,_RNvMNtCs89ePBhylGLd_7lb_grpc6statusNtB2_10GrpcStatus9from_code
FNDA:5,_RNvMNtCs930EdXc37Ob_7lb_grpc6statusNtB2_10GrpcStatus14to_http_status
FNDA:3,_RNvMNtCs930EdXc37Ob_7lb_grpc6statusNtB2_10GrpcStatus16from_http_status
FNDA:5,_RNvMNtCs930EdXc37Ob_7lb_grpc6statusNtB2_10GrpcStatus9from_code
FNF:3
FNH:3
DA:54,7
DA:55,7
DA:56,2
DA:57,0
DA:58,0
DA:59,0
DA:60,1
DA:61,0
DA:62,0
DA:63,0
DA:64,0
DA:65,0
DA:66,0
DA:67,0
DA:68,0
DA:69,0
DA:70,0
DA:71,0
DA:72,1
DA:73,3
DA:75,7
DA:81,10
DA:82,10
DA:83,2
DA:84,0
DA:85,0
DA:86,0
DA:87,0
DA:88,2
DA:89,0
DA:90,2
DA:91,0
DA:92,0
DA:93,2
DA:94,2
DA:96,10
DA:102,10
DA:103,10
DA:104,2
DA:105,0
DA:106,3
DA:107,0
DA:108,2
DA:109,0
DA:110,3
DA:111,0
DA:112,0
DA:114,10
BRF:0
BRH:0
LF:48
LH:22
end_of_record
SF:/home/ubuntu/Code/ExpressGateway/crates/lb-h1/src/chunked.rs
FN:134,_RNvMNtCs1vM0qXLcW4_5lb_h17chunkedNtB2_14ChunkedDecoder13try_read_size
FN:170,_RNvMNtCs1vM0qXLcW4_5lb_h17chunkedNtB2_14ChunkedDecoder17try_read_trailers
FN:39,_RNvMNtCs1vM0qXLcW4_5lb_h17chunkedNtB2_14ChunkedDecoder3new
FN:56,_RNvMNtCs1vM0qXLcW4_5lb_h17chunkedNtB2_14ChunkedDecoder4feed
FN:75,_RNvMNtCs1vM0qXLcW4_5lb_h17chunkedNtB2_14ChunkedDecoder7is_done
FN:80,_RNvMNtCs1vM0qXLcW4_5lb_h17chunkedNtB2_14ChunkedDecoder7process
FN:69,_RNvMNtCs1vM0qXLcW4_5lb_h17chunkedNtB2_14ChunkedDecoder8trailers
FN:63,_RNvMNtCs1vM0qXLcW4_5lb_h17chunkedNtB2_14ChunkedDecoder9take_body
FN:249,_RNvMs0_NtCs1vM0qXLcW4_5lb_h17chunkedNtB5_14ChunkedEncoder3new
FN:258,_RNvMs0_NtCs1vM0qXLcW4_5lb_h17chunkedNtB5_14ChunkedEncoder6encode
FN:278,_RNvMs0_NtCs1vM0qXLcW4_5lb_h17chunkedNtB5_14ChunkedEncoder6finish
FN:336,_RNvNtCs1vM0qXLcW4_5lb_h17chunked12find_crlf_in
FN:343,_RNvNtCs1vM0qXLcW4_5lb_h17chunked19find_double_crlf_in
FN:314,_RNvNtCs1vM0qXLcW4_5lb_h17chunked20parse_chunk_size_hex
FN:298,_RNvXs1_NtCs1vM0qXLcW4_5lb_h17chunkedNtB5_14ChunkedEncoderNtNtCs2va5m0jqTTM_4core7default7Default7default
FN:235,_RNvXs_NtCs1vM0qXLcW4_5lb_h17chunkedNtB4_14ChunkedDecoderNtNtCs2va5m0jqTTM_4core7default7Default7default
FN:148,_RNCNvMNtCs1vM0qXLcW4_5lb_h17chunkedNtB4_14ChunkedDecoder13try_read_size0B6_
FN:154,_RNCNvMNtCs1vM0qXLcW4_5lb_h17chunkedNtB4_14ChunkedDecoder13try_read_sizes_0B6_
FN:201,_RNCNvMNtCs1vM0qXLcW4_5lb_h17chunkedNtB4_14ChunkedDecoder17try_read_trailers0B6_
FN:339,_RNCNvNtCs1vM0qXLcW4_5lb_h17chunked12find_crlf_in0B5_
FN:345,_RNCNvNtCs1vM0qXLcW4_5lb_h17chunked19find_double_crlf_in0B5_
FN:75,_RNvMNtCs5LRB1h7uprK_5lb_h17chunkedNtB2_14ChunkedDecoder7is_done
FN:298,_RNvXs1_NtCs5LRB1h7uprK_5lb_h17chunkedNtB5_14ChunkedEncoderNtNtCs2va5m0jqTTM_4core7default7Default7default
FN:235,_RNvXs_NtCs5LRB1h7uprK_5lb_h17chunkedNtB4_14ChunkedDecoderNtNtCs2va5m0jqTTM_4core7default7Default7default
FN:407,_RNCNvNtNtCs5LRB1h7uprK_5lb_h17chunked5testss_16incremental_feed0B7_
FN:370,_RNCNvNtNtCs5LRB1h7uprK_5lb_h17chunked5testss_23encode_decode_roundtrip0B7_
FN:397,_RNvNtNtCs5LRB1h7uprK_5lb_h17chunked5testss_16incremental_feed
FN:358,_RNvNtNtCs5LRB1h7uprK_5lb_h17chunked5testss_23encode_decode_roundtrip
FN:375,_RNvNtNtCs5LRB1h7uprK_5lb_h17chunked5testss_27encode_decode_with_trailers
FN:134,_RNvMNtCs5LRB1h7uprK_5lb_h17chunkedNtB2_14ChunkedDecoder13try_read_size
FN:170,_RNvMNtCs5LRB1h7uprK_5lb_h17chunkedNtB2_14ChunkedDecoder17try_read_trailers
FN:39,_RNvMNtCs5LRB1h7uprK_5lb_h17chunkedNtB2_14ChunkedDecoder3new
FN:56,_RNvMNtCs5LRB1h7uprK_5lb_h17chunkedNtB2_14ChunkedDecoder4feed
FN:80,_RNvMNtCs5LRB1h7uprK_5lb_h17chunkedNtB2_14ChunkedDecoder7process
FN:69,_RNvMNtCs5LRB1h7uprK_5lb_h17chunkedNtB2_14ChunkedDecoder8trailers
FN:63,_RNvMNtCs5LRB1h7uprK_5lb_h17chunkedNtB2_14ChunkedDecoder9take_body
FN:249,_RNvMs0_NtCs5LRB1h7uprK_5lb_h17chunkedNtB5_14ChunkedEncoder3new
FN:258,_RNvMs0_NtCs5LRB1h7uprK_5lb_h17chunkedNtB5_14ChunkedEncoder6encode
FN:278,_RNvMs0_NtCs5LRB1h7uprK_5lb_h17chunkedNtB5_14ChunkedEncoder6finish
FN:336,_RNvNtCs5LRB1h7uprK_5lb_h17chunked12find_crlf_in
FN:343,_RNvNtCs5LRB1h7uprK_5lb_h17chunked19find_double_crlf_in
FN:314,_RNvNtCs5LRB1h7uprK_5lb_h17chunked20parse_chunk_size_hex
FN:148,_RNCNvMNtCs5LRB1h7uprK_5lb_h17chunkedNtB4_14ChunkedDecoder13try_read_size0B6_
FN:154,_RNCNvMNtCs5LRB1h7uprK_5lb_h17chunkedNtB4_14ChunkedDecoder13try_read_sizes_0B6_
FN:201,_RNCNvMNtCs5LRB1h7uprK_5lb_h17chunkedNtB4_14ChunkedDecoder17try_read_trailers0B6_
FN:339,_RNCNvNtCs5LRB1h7uprK_5lb_h17chunked12find_crlf_in0B5_
FN:345,_RNCNvNtCs5LRB1h7uprK_5lb_h17chunked19find_double_crlf_in0B5_
FNDA:32,_RNvMNtCs1vM0qXLcW4_5lb_h17chunkedNtB2_14ChunkedDecoder13try_read_size
FNDA:8,_RNvMNtCs1vM0qXLcW4_5lb_h17chunkedNtB2_14ChunkedDecoder17try_read_trailers
FNDA:18,_RNvMNtCs1vM0qXLcW4_5lb_h17chunkedNtB2_14ChunkedDecoder3new
FNDA:30,_RNvMNtCs1vM0qXLcW4_5lb_h17chunkedNtB2_14ChunkedDecoder4feed
FNDA:1,_RNvMNtCs1vM0qXLcW4_5lb_h17chunkedNtB2_14ChunkedDecoder7is_done
FNDA:30,_RNvMNtCs1vM0qXLcW4_5lb_h17chunkedNtB2_14ChunkedDecoder7process
FNDA:1,_RNvMNtCs1vM0qXLcW4_5lb_h17chunkedNtB2_14ChunkedDecoder8trailers
FNDA:6,_RNvMNtCs1vM0qXLcW4_5lb_h17chunkedNtB2_14ChunkedDecoder9take_body
FNDA:3,_RNvMs0_NtCs1vM0qXLcW4_5lb_h17chunkedNtB5_14ChunkedEncoder3new
FNDA:5,_RNvMs0_NtCs1vM0qXLcW4_5lb_h17chunkedNtB5_14ChunkedEncoder6encode
FNDA:3,_RNvMs0_NtCs1vM0qXLcW4_5lb_h17chunkedNtB5_14ChunkedEncoder6finish
FNDA:34,_RNvNtCs1vM0qXLcW4_5lb_h17chunked12find_crlf_in
FNDA:1,_RNvNtCs1vM0qXLcW4_5lb_h17chunked19find_double_crlf_in
FNDA:27,_RNvNtCs1vM0qXLcW4_5lb_h17chunked20parse_chunk_size_hex
FNDA:0,_RNvXs1_NtCs1vM0qXLcW4_5lb_h17chunkedNtB5_14ChunkedEncoderNtNtCs2va5m0jqTTM_4core7default7Default7default
FNDA:0,_RNvXs_NtCs1vM0qXLcW4_5lb_h17chunkedNtB4_14ChunkedDecoderNtNtCs2va5m0jqTTM_4core7default7Default7default
FNDA:83,_RNCNvMNtCs1vM0qXLcW4_5lb_h17chunkedNtB4_14ChunkedDecoder13try_read_size0B6_
FNDA:0,_RNCNvMNtCs1vM0qXLcW4_5lb_h17chunkedNtB4_14ChunkedDecoder13try_read_sizes_0B6_
FNDA:0,_RNCNvMNtCs1vM0qXLcW4_5lb_h17chunkedNtB4_14ChunkedDecoder17try_read_trailers0B6_
FNDA:165,_RNCNvNtCs1vM0qXLcW4_5lb_h17chunked12find_crlf_in0B5_
FNDA:40,_RNCNvNtCs1vM0qXLcW4_5lb_h17chunked19find_double_crlf_in0B5_
FNDA:0,_RNvMNtCs5LRB1h7uprK_5lb_h17chunkedNtB2_14ChunkedDecoder7is_done
FNDA:0,_RNvXs1_NtCs5LRB1h7uprK_5lb_h17chunkedNtB5_14ChunkedEncoderNtNtCs2va5m0jqTTM_4core7default7Default7default
FNDA:0,_RNvXs_NtCs5LRB1h7uprK_5lb_h17chunkedNtB4_14ChunkedDecoderNtNtCs2va5m0jqTTM_4core7default7Default7default
FNDA:5,_RNCNvNtNtCs5LRB1h7uprK_5lb_h17chunked5testss_16incremental_feed0B7_
FNDA:2,_RNCNvNtNtCs5LRB1h7uprK_5lb_h17chunked5testss_23encode_decode_roundtrip0B7_
FNDA:1,_RNvNtNtCs5LRB1h7uprK_5lb_h17chunked5testss_16incremental_feed
FNDA:1,_RNvNtNtCs5LRB1h7uprK_5lb_h17chunked5testss_23encode_decode_roundtrip
FNDA:1,_RNvNtNtCs5LRB1h7uprK_5lb_h17chunked5testss_27encode_decode_with_trailers
FNDA:12,_RNvMNtCs5LRB1h7uprK_5lb_h17chunkedNtB2_14ChunkedDecoder13try_read_size
FNDA:5,_RNvMNtCs5LRB1h7uprK_5lb_h17chunkedNtB2_14ChunkedDecoder17try_read_trailers
FNDA:3,_RNvMNtCs5LRB1h7uprK_5lb_h17chunkedNtB2_14ChunkedDecoder3new
FNDA:17,_RNvMNtCs5LRB1h7uprK_5lb_h17chunkedNtB2_14ChunkedDecoder4feed
FNDA:17,_RNvMNtCs5LRB1h7uprK_5lb_h17chunkedNtB2_14ChunkedDecoder7process
FNDA:1,_RNvMNtCs5LRB1h7uprK_5lb_h17chunkedNtB2_14ChunkedDecoder8trailers
FNDA:3,_RNvMNtCs5LRB1h7uprK_5lb_h17chunkedNtB2_14ChunkedDecoder9take_body
FNDA:2,_RNvMs0_NtCs5LRB1h7uprK_5lb_h17chunkedNtB5_14ChunkedEncoder3new
FNDA:3,_RNvMs0_NtCs5LRB1h7uprK_5lb_h17chunkedNtB5_14ChunkedEncoder6encode
FNDA:2,_RNvMs0_NtCs5LRB1h7uprK_5lb_h17chunkedNtB5_14ChunkedEncoder6finish
FNDA:13,_RNvNtCs5LRB1h7uprK_5lb_h17chunked12find_crlf_in
FNDA:1,_RNvNtCs5LRB1h7uprK_5lb_h17chunked19find_double_crlf_in
FNDA:7,_RNvNtCs5LRB1h7uprK_5lb_h17chunked20parse_chunk_size_hex
FNDA:7,_RNCNvMNtCs5LRB1h7uprK_5lb_h17chunkedNtB4_14ChunkedDecoder13try_read_size0B6_
FNDA:0,_RNCNvMNtCs5LRB1h7uprK_5lb_h17chunkedNtB4_14ChunkedDecoder13try_read_sizes_0B6_
FNDA:0,_RNCNvMNtCs5LRB1h7uprK_5lb_h17chunkedNtB4_14ChunkedDecoder17try_read_trailers0B6_
FNDA:33,_RNCNvNtCs5LRB1h7uprK_5lb_h17chunked12find_crlf_in0B5_
FNDA:17,_RNCNvNtCs5LRB1h7uprK_5lb_h17chunked19find_double_crlf_in0B5_
FNF:26
FNH:22
DA:39,21
DA:40,21
DA:41,21
DA:42,21
DA:43,21
DA:44,21
DA:45,21
DA:46,21
DA:56,47
DA:57,47
DA:58,47
DA:59,47
DA:63,9
DA:64,9
DA:65,9
DA:69,2
DA:70,2
DA:71,2
DA:75,1
DA:76,1
DA:77,1
DA:80,47
DA:82,116
DA:84,44
DA:85,10
DA:86,24
DA:88,42
DA:89,42
DA:90,13
DA:91,13
DA:92,29
DA:93,29
DA:94,10
DA:95,19
DA:96,19
DA:97,19
DA:98,19
DA:99,19
DA:100,19
DA:101,19
DA:102,19
DA:105,17
DA:106,4
DA:107,13
DA:108,13
DA:109,13
DA:111,0
DA:112,13
DA:113,13
DA:114,13
DA:117,13
DA:119,0
DA:122,47
DA:134,44
DA:135,44
DA:136,10
DA:139,34
DA:140,34
DA:141,34
DA:142,34
DA:148,90
DA:150,34
DA:153,24
DA:154,24
DA:157,24
DA:158,24
DA:159,24
DA:160,9
DA:161,15
DA:162,15
DA:163,15
DA:164,15
DA:165,15
DA:166,24
DA:167,44
DA:170,13
DA:171,13
DA:172,4
DA:173,9
DA:174,9
DA:175,9
DA:176,7
DA:177,7
DA:178,7
DA:179,2
DA:182,2
DA:183,0
DA:187,2
DA:188,2
DA:189,2
DA:190,2
DA:192,2
DA:193,5
DA:194,3
DA:195,3
DA:196,3
DA:197,3
DA:198,3
DA:199,3
DA:200,3
DA:201,3
DA:203,3
DA:208,3
DA:209,3
DA:210,3
DA:212,0
DA:213,3
DA:214,3
DA:215,3
DA:216,3
DA:217,3
DA:218,3
DA:219,3
DA:220,3
DA:222,0
DA:224,3
DA:228,2
DA:229,2
DA:230,2
DA:231,13
DA:235,0
DA:236,0
DA:237,0
DA:249,5
DA:250,5
DA:251,5
DA:258,8
DA:259,8
DA:260,0
DA:261,8
DA:262,8
DA:263,0
DA:264,8
DA:265,8
DA:266,8
DA:267,8
DA:268,8
DA:269,8
DA:270,8
DA:271,8
DA:278,5
DA:279,5
DA:280,0
DA:281,5
DA:282,5
DA:283,5
DA:284,5
DA:285,5
DA:287,8
DA:288,3
DA:289,3
DA:290,3
DA:291,5
DA:292,5
DA:293,5
DA:294,5
DA:298,0
DA:299,0
DA:300,0
DA:314,34
DA:315,34
DA:316,2
DA:317,32
DA:318,32
DA:319,2
DA:320,30
DA:321,30
DA:322,74
DA:323,50
DA:324,45
DA:325,19
DA:326,3
DA:327,6
DA:329,44
DA:330,44
DA:332,24
DA:333,34
DA:336,47
DA:337,47
DA:338,47
DA:339,198
DA:340,47
DA:343,2
DA:344,2
DA:345,57
DA:346,57
DA:347,3
DA:348,3
DA:349,2
DA:350,57
DA:351,2
DA:358,1
DA:359,1
DA:360,1
DA:361,1
DA:362,1
DA:363,1
DA:364,1
DA:365,1
DA:366,1
DA:367,1
DA:369,1
DA:370,2
DA:371,1
DA:372,1
DA:375,1
DA:376,1
DA:377,1
DA:378,1
DA:379,1
DA:380,1
DA:381,1
DA:382,1
DA:383,1
DA:384,1
DA:386,1
DA:387,1
DA:388,1
DA:390,1
DA:391,1
DA:392,1
DA:393,1
DA:394,1
DA:397,1
DA:398,1
DA:399,1
DA:400,14
DA:401,14
DA:402,14
DA:404,1
DA:405,1
DA:406,1
DA:407,5
DA:408,1
DA:409,1
BRF:0
BRH:0
LF:243
LH:227
end_of_record
SF:/home/ubuntu/Code/ExpressGateway/crates/lb-h1/src/parse.rs
FN:128,_RNvNtCs1vM0qXLcW4_5lb_h15parse13parse_headers
FN:247,_RNvNtCs1vM0qXLcW4_5lb_h15parse13parse_version
FN:230,_RNvNtCs1vM0qXLcW4_5lb_h15parse14parse_trailers
FN:54,_RNvNtCs1vM0qXLcW4_5lb_h15parse16find_double_crlf
FN:100,_RNvNtCs1vM0qXLcW4_5lb_h15parse17parse_status_line
FN:73,_RNvNtCs1vM0qXLcW4_5lb_h15parse18parse_request_line
FN:17,_RNvNtCs1vM0qXLcW4_5lb_h15parse22___is_tchar_for_trailer
FN:148,_RNvNtCs1vM0qXLcW4_5lb_h15parse24parse_headers_with_limit
FN:239,_RNvNtCs1vM0qXLcW4_5lb_h15parse25parse_trailers_with_limit
FN:23,_RNvNtCs1vM0qXLcW4_5lb_h15parse8is_tchar
FN:47,_RNvNtCs1vM0qXLcW4_5lb_h15parse9find_crlf
FN:56,_RNCNvNtCs1vM0qXLcW4_5lb_h15parse16find_double_crlf0B5_
FN:103,_RNCNvNtCs1vM0qXLcW4_5lb_h15parse17parse_status_line0B5_
FN:110,_RNCNvNtCs1vM0qXLcW4_5lb_h15parse17parse_status_lines0_0B5_
FN:111,_RNCNvNtCs1vM0qXLcW4_5lb_h15parse17parse_status_lines1_0B5_
FN:109,_RNCNvNtCs1vM0qXLcW4_5lb_h15parse17parse_status_lines_0B5_
FN:76,_RNCNvNtCs1vM0qXLcW4_5lb_h15parse18parse_request_line0B5_
FN:86,_RNCNvNtCs1vM0qXLcW4_5lb_h15parse18parse_request_lines0_0B5_
FN:85,_RNCNvNtCs1vM0qXLcW4_5lb_h15parse18parse_request_lines_0B5_
FN:179,_RNCNvNtCs1vM0qXLcW4_5lb_h15parse24parse_headers_with_limit0B5_
FN:187,_RNCNvNtCs1vM0qXLcW4_5lb_h15parse24parse_headers_with_limits0_0B5_
FN:198,_RNCNvNtCs1vM0qXLcW4_5lb_h15parse24parse_headers_with_limits1_0B5_
FN:210,_RNCNvNtCs1vM0qXLcW4_5lb_h15parse24parse_headers_with_limits2_0B5_
FN:183,_RNCNvNtCs1vM0qXLcW4_5lb_h15parse24parse_headers_with_limits_0B5_
FN:50,_RNCNvNtCs1vM0qXLcW4_5lb_h15parse9find_crlf0B5_
FN:301,_RNvNtNtCs5LRB1h7uprK_5lb_h15parse5testss_13headers_basic
FN:284,_RNvNtNtCs5LRB1h7uprK_5lb_h15parse5testss_15status_line_200
FN:293,_RNvNtNtCs5LRB1h7uprK_5lb_h15parse5testss_15status_line_404
FN:260,_RNvNtNtCs5LRB1h7uprK_5lb_h15parse5testss_16request_line_get
FN:314,_RNvNtNtCs5LRB1h7uprK_5lb_h15parse5testss_18headers_incomplete
FN:278,_RNvNtNtCs5LRB1h7uprK_5lb_h15parse5testss_23request_line_incomplete
FN:270,_RNvNtNtCs5LRB1h7uprK_5lb_h15parse5testss_24request_line_post_http10
FN:341,_RNvNtNtCs5LRB1h7uprK_5lb_h15parse5testss_26header_over_limit_rejected
FN:372,_RNvNtNtCs5LRB1h7uprK_5lb_h15parse5testss_32default_constant_matches_wrapper
FN:320,_RNvNtNtCs5LRB1h7uprK_5lb_h15parse5testss_32header_exactly_at_limit_accepted
FN:363,_RNvNtNtCs5LRB1h7uprK_5lb_h15parse5testss_39header_unterminated_over_limit_rejected
FN:230,_RNvNtCs5LRB1h7uprK_5lb_h15parse14parse_trailers
FN:239,_RNvNtCs5LRB1h7uprK_5lb_h15parse25parse_trailers_with_limit
FN:128,_RNvNtCs5LRB1h7uprK_5lb_h15parse13parse_headers
FN:247,_RNvNtCs5LRB1h7uprK_5lb_h15parse13parse_version
FN:54,_RNvNtCs5LRB1h7uprK_5lb_h15parse16find_double_crlf
FN:100,_RNvNtCs5LRB1h7uprK_5lb_h15parse17parse_status_line
FN:73,_RNvNtCs5LRB1h7uprK_5lb_h15parse18parse_request_line
FN:17,_RNvNtCs5LRB1h7uprK_5lb_h15parse22___is_tchar_for_trailer
FN:148,_RNvNtCs5LRB1h7uprK_5lb_h15parse24parse_headers_with_limit
FN:23,_RNvNtCs5LRB1h7uprK_5lb_h15parse8is_tchar
FN:47,_RNvNtCs5LRB1h7uprK_5lb_h15parse9find_crlf
FN:56,_RNCNvNtCs5LRB1h7uprK_5lb_h15parse16find_double_crlf0B5_
FN:103,_RNCNvNtCs5LRB1h7uprK_5lb_h15parse17parse_status_line0B5_
FN:110,_RNCNvNtCs5LRB1h7uprK_5lb_h15parse17parse_status_lines0_0B5_
FN:111,_RNCNvNtCs5LRB1h7uprK_5lb_h15parse17parse_status_lines1_0B5_
FN:109,_RNCNvNtCs5LRB1h7uprK_5lb_h15parse17parse_status_lines_0B5_
FN:76,_RNCNvNtCs5LRB1h7uprK_5lb_h15parse18parse_request_line0B5_
FN:86,_RNCNvNtCs5LRB1h7uprK_5lb_h15parse18parse_request_lines0_0B5_
FN:85,_RNCNvNtCs5LRB1h7uprK_5lb_h15parse18parse_request_lines_0B5_
FN:179,_RNCNvNtCs5LRB1h7uprK_5lb_h15parse24parse_headers_with_limit0B5_
FN:187,_RNCNvNtCs5LRB1h7uprK_5lb_h15parse24parse_headers_with_limits0_0B5_
FN:198,_RNCNvNtCs5LRB1h7uprK_5lb_h15parse24parse_headers_with_limits1_0B5_
FN:210,_RNCNvNtCs5LRB1h7uprK_5lb_h15parse24parse_headers_with_limits2_0B5_
FN:183,_RNCNvNtCs5LRB1h7uprK_5lb_h15parse24parse_headers_with_limits_0B5_
FN:50,_RNCNvNtCs5LRB1h7uprK_5lb_h15parse9find_crlf0B5_
FNDA:266,_RNvNtCs1vM0qXLcW4_5lb_h15parse13parse_headers
FNDA:25,_RNvNtCs1vM0qXLcW4_5lb_h15parse13parse_version
FNDA:1,_RNvNtCs1vM0qXLcW4_5lb_h15parse14parse_trailers
FNDA:267,_RNvNtCs1vM0qXLcW4_5lb_h15parse16find_double_crlf
FNDA:2,_RNvNtCs1vM0qXLcW4_5lb_h15parse17parse_status_line
FNDA:260,_RNvNtCs1vM0qXLcW4_5lb_h15parse18parse_request_line
FNDA:18,_RNvNtCs1vM0qXLcW4_5lb_h15parse22___is_tchar_for_trailer
FNDA:267,_RNvNtCs1vM0qXLcW4_5lb_h15parse24parse_headers_with_limit
FNDA:0,_RNvNtCs1vM0qXLcW4_5lb_h15parse25parse_trailers_with_limit
FNDA:96,_RNvNtCs1vM0qXLcW4_5lb_h15parse8is_tchar
FNDA:275,_RNvNtCs1vM0qXLcW4_5lb_h15parse9find_crlf
FNDA:67906,_RNCNvNtCs1vM0qXLcW4_5lb_h15parse16find_double_crlf0B5_
FNDA:0,_RNCNvNtCs1vM0qXLcW4_5lb_h15parse17parse_status_line0B5_
FNDA:0,_RNCNvNtCs1vM0qXLcW4_5lb_h15parse17parse_status_lines0_0B5_
FNDA:0,_RNCNvNtCs1vM0qXLcW4_5lb_h15parse17parse_status_lines1_0B5_
FNDA:0,_RNCNvNtCs1vM0qXLcW4_5lb_h15parse17parse_status_lines_0B5_
FNDA:0,_RNCNvNtCs1vM0qXLcW4_5lb_h15parse18parse_request_line0B5_
FNDA:235,_RNCNvNtCs1vM0qXLcW4_5lb_h15parse18parse_request_lines0_0B5_
FNDA:0,_RNCNvNtCs1vM0qXLcW4_5lb_h15parse18parse_request_lines_0B5_
FNDA:0,_RNCNvNtCs1vM0qXLcW4_5lb_h15parse24parse_headers_with_limit0B5_
FNDA:0,_RNCNvNtCs1vM0qXLcW4_5lb_h15parse24parse_headers_with_limits0_0B5_
FNDA:0,_RNCNvNtCs1vM0qXLcW4_5lb_h15parse24parse_headers_with_limits1_0B5_
FNDA:0,_RNCNvNtCs1vM0qXLcW4_5lb_h15parse24parse_headers_with_limits2_0B5_
FNDA:0,_RNCNvNtCs1vM0qXLcW4_5lb_h15parse24parse_headers_with_limits_0B5_
FNDA:37736,_RNCNvNtCs1vM0qXLcW4_5lb_h15parse9find_crlf0B5_
FNDA:1,_RNvNtNtCs5LRB1h7uprK_5lb_h15parse5testss_13headers_basic
FNDA:1,_RNvNtNtCs5LRB1h7uprK_5lb_h15parse5testss_15status_line_200
FNDA:1,_RNvNtNtCs5LRB1h7uprK_5lb_h15parse5testss_15status_line_404
FNDA:1,_RNvNtNtCs5LRB1h7uprK_5lb_h15parse5testss_16request_line_get
FNDA:1,_RNvNtNtCs5LRB1h7uprK_5lb_h15parse5testss_18headers_incomplete
FNDA:1,_RNvNtNtCs5LRB1h7uprK_5lb_h15parse5testss_23request_line_incomplete
FNDA:1,_RNvNtNtCs5LRB1h7uprK_5lb_h15parse5testss_24request_line_post_http10
FNDA:1,_RNvNtNtCs5LRB1h7uprK_5lb_h15parse5testss_26header_over_limit_rejected
FNDA:1,_RNvNtNtCs5LRB1h7uprK_5lb_h15parse5testss_32default_constant_matches_wrapper
FNDA:1,_RNvNtNtCs5LRB1h7uprK_5lb_h15parse5testss_32header_exactly_at_limit_accepted
FNDA:1,_RNvNtNtCs5LRB1h7uprK_5lb_h15parse5testss_39header_unterminated_over_limit_rejected
FNDA:0,_RNvNtCs5LRB1h7uprK_5lb_h15parse14parse_trailers
FNDA:0,_RNvNtCs5LRB1h7uprK_5lb_h15parse25parse_trailers_with_limit
FNDA:3,_RNvNtCs5LRB1h7uprK_5lb_h15parse13parse_headers
FNDA:4,_RNvNtCs5LRB1h7uprK_5lb_h15parse13parse_version
FNDA:6,_RNvNtCs5LRB1h7uprK_5lb_h15parse16find_double_crlf
FNDA:2,_RNvNtCs5LRB1h7uprK_5lb_h15parse17parse_status_line
FNDA:3,_RNvNtCs5LRB1h7uprK_5lb_h15parse18parse_request_line
FNDA:8,_RNvNtCs5LRB1h7uprK_5lb_h15parse22___is_tchar_for_trailer
FNDA:6,_RNvNtCs5LRB1h7uprK_5lb_h15parse24parse_headers_with_limit
FNDA:39,_RNvNtCs5LRB1h7uprK_5lb_h15parse8is_tchar
FNDA:9,_RNvNtCs5LRB1h7uprK_5lb_h15parse9find_crlf
FNDA:328,_RNCNvNtCs5LRB1h7uprK_5lb_h15parse16find_double_crlf0B5_
FNDA:0,_RNCNvNtCs5LRB1h7uprK_5lb_h15parse17parse_status_line0B5_
FNDA:0,_RNCNvNtCs5LRB1h7uprK_5lb_h15parse17parse_status_lines0_0B5_
FNDA:0,_RNCNvNtCs5LRB1h7uprK_5lb_h15parse17parse_status_lines1_0B5_
FNDA:0,_RNCNvNtCs5LRB1h7uprK_5lb_h15parse17parse_status_lines_0B5_
FNDA:0,_RNCNvNtCs5LRB1h7uprK_5lb_h15parse18parse_request_line0B5_
FNDA:0,_RNCNvNtCs5LRB1h7uprK_5lb_h15parse18parse_request_lines0_0B5_
FNDA:0,_RNCNvNtCs5LRB1h7uprK_5lb_h15parse18parse_request_lines_0B5_
FNDA:0,_RNCNvNtCs5LRB1h7uprK_5lb_h15parse24parse_headers_with_limit0B5_
FNDA:0,_RNCNvNtCs5LRB1h7uprK_5lb_h15parse24parse_headers_with_limits0_0B5_
FNDA:0,_RNCNvNtCs5LRB1h7uprK_5lb_h15parse24parse_headers_with_limits1_0B5_
FNDA:0,_RNCNvNtCs5LRB1h7uprK_5lb_h15parse24parse_headers_with_limits2_0B5_
FNDA:0,_RNCNvNtCs5LRB1h7uprK_5lb_h15parse24parse_headers_with_limits_0B5_
FNDA:212,_RNCNvNtCs5LRB1h7uprK_5lb_h15parse9find_crlf0B5_
FNF:36
FNH:24
DA:17,26
DA:18,26
DA:19,26
DA:23,135
DA:24,5
DA:25,135
DA:40,94
DA:41,69
DA:42,25
DA:44,135
DA:47,284
DA:48,284
DA:49,284
DA:50,37948
DA:51,284
DA:54,273
DA:55,273
DA:56,68234
DA:57,68234
DA:58,247
DA:59,18
DA:60,15
DA:61,68234
DA:62,273
DA:73,263
DA:74,263
DA:75,261
DA:76,261
DA:78,261
DA:79,261
DA:80,261
DA:81,260
DA:83,260
DA:84,260
DA:85,260
DA:86,260
DA:87,25
DA:89,9
DA:90,263
DA:100,4
DA:101,4
DA:102,4
DA:103,4
DA:105,4
DA:106,4
DA:107,4
DA:109,4
DA:110,4
DA:111,4
DA:113,4
DA:114,4
DA:128,269
DA:129,269
DA:130,269
DA:148,273
DA:149,273
DA:150,273
DA:151,273
DA:152,273
DA:153,258
DA:154,1
DA:155,1
DA:156,1
DA:157,1
DA:158,257
DA:159,257
DA:162,15
DA:163,15
DA:164,1
DA:165,1
DA:166,1
DA:167,1
DA:168,14
DA:171,14
DA:173,14
DA:174,14
DA:176,25
DA:177,17
DA:178,17
DA:179,17
DA:181,17
DA:182,17
DA:183,17
DA:185,17
DA:186,17
DA:187,17
DA:196,17
DA:197,17
DA:198,17
DA:199,17
DA:200,1
DA:201,16
DA:202,16
DA:203,5
DA:204,5
DA:205,5
DA:206,11
DA:207,11
DA:208,11
DA:209,11
DA:210,11
DA:211,11
DA:212,11
DA:213,11
DA:214,11
DA:215,11
DA:218,8
DA:219,273
DA:230,1
DA:231,1
DA:232,1
DA:239,0
DA:240,0
DA:241,0
DA:242,0
DA:243,0
DA:244,0
DA:247,29
DA:248,29
DA:249,29
DA:250,22
DA:251,16
DA:253,29
DA:260,1
DA:261,1
DA:262,1
DA:263,1
DA:264,1
DA:265,1
DA:266,1
DA:267,1
DA:270,1
DA:271,1
DA:272,1
DA:273,1
DA:274,1
DA:275,1
DA:278,1
DA:279,1
DA:280,1
DA:281,1
DA:284,1
DA:285,1
DA:286,1
DA:287,1
DA:288,1
DA:289,1
DA:290,1
DA:293,1
DA:294,1
DA:295,1
DA:296,1
DA:297,1
DA:298,1
DA:301,1
DA:302,1
DA:303,1
DA:304,1
DA:305,1
DA:306,1
DA:307,1
DA:308,1
DA:309,1
DA:310,1
DA:311,1
DA:314,1
DA:315,1
DA:316,1
DA:317,1
DA:320,1
DA:321,1
DA:322,1
DA:323,1
DA:324,1
DA:325,1
DA:326,1
DA:327,1
DA:328,1
DA:329,1
DA:330,1
DA:331,1
DA:333,1
DA:334,1
DA:335,1
DA:336,1
DA:337,1
DA:338,1
DA:341,1
DA:342,1
DA:343,1
DA:344,1
DA:345,1
DA:346,1
DA:347,1
DA:349,1
DA:350,1
DA:351,0
DA:352,1
DA:358,0
DA:360,1
DA:363,1
DA:364,1
DA:365,1
DA:366,1
DA:367,1
DA:368,1
DA:369,1
DA:372,1
DA:373,1
DA:376,1
DA:377,1
DA:378,1
DA:379,1
DA:380,1
BRF:0
BRH:0
LF:229
LH:206
end_of_record
SF:/home/ubuntu/Code/ExpressGateway/crates/lb-h2/src/frame.rs
FN:140,_RNCNvNtCs7moGA0A6lWu_5lb_h25frame13strip_padding0B5_
FN:153,_RNCNvNtCs7moGA0A6lWu_5lb_h25frame13strip_paddings_0B5_
FN:253,_RNCNvNtCs7moGA0A6lWu_5lb_h25frame16decode_frame_low0B5_
FN:166,_RNvNtCs7moGA0A6lWu_5lb_h25frame11read_u16_be
FN:157,_RNvNtCs7moGA0A6lWu_5lb_h25frame11read_u32_be
FN:419,_RNvNtCs7moGA0A6lWu_5lb_h25frame12decode_frame
FN:452,_RNvNtCs7moGA0A6lWu_5lb_h25frame12encode_frame
FN:600,_RNvNtCs7moGA0A6lWu_5lb_h25frame12write_header
FN:136,_RNvNtCs7moGA0A6lWu_5lb_h25frame13strip_padding
FN:207,_RNvNtCs7moGA0A6lWu_5lb_h25frame16decode_frame_low
FN:301,_RNvNtCs7moGA0A6lWu_5lb_h25frame17decode_frame_high
FN:468,_RNvNtCs7moGA0A6lWu_5lb_h25frame18encode_frame_lower
FN:531,_RNvNtCs7moGA0A6lWu_5lb_h25frame18encode_frame_upper
FN:181,_RNvNtCs7moGA0A6lWu_5lb_h25frame18parse_frame_header
FN:140,_RNCNvNtCsTNvFtOWN60_5lb_h25frame13strip_padding0B5_
FN:153,_RNCNvNtCsTNvFtOWN60_5lb_h25frame13strip_paddings_0B5_
FN:253,_RNCNvNtCsTNvFtOWN60_5lb_h25frame16decode_frame_low0B5_
FN:166,_RNvNtCsTNvFtOWN60_5lb_h25frame11read_u16_be
FN:157,_RNvNtCsTNvFtOWN60_5lb_h25frame11read_u32_be
FN:419,_RNvNtCsTNvFtOWN60_5lb_h25frame12decode_frame
FN:452,_RNvNtCsTNvFtOWN60_5lb_h25frame12encode_frame
FN:600,_RNvNtCsTNvFtOWN60_5lb_h25frame12write_header
FN:136,_RNvNtCsTNvFtOWN60_5lb_h25frame13strip_padding
FN:207,_RNvNtCsTNvFtOWN60_5lb_h25frame16decode_frame_low
FN:301,_RNvNtCsTNvFtOWN60_5lb_h25frame17decode_frame_high
FN:468,_RNvNtCsTNvFtOWN60_5lb_h25frame18encode_frame_lower
FN:531,_RNvNtCsTNvFtOWN60_5lb_h25frame18encode_frame_upper
FN:181,_RNvNtCsTNvFtOWN60_5lb_h25frame18parse_frame_header
FN:652,_RNvNtNtCsTNvFtOWN60_5lb_h25frame5testss_14ping_roundtrip
FN:663,_RNvNtNtCsTNvFtOWN60_5lb_h25frame5testss_16goaway_roundtrip
FN:628,_RNvNtNtCsTNvFtOWN60_5lb_h25frame5testss_20data_frame_roundtrip
FN:641,_RNvNtNtCsTNvFtOWN60_5lb_h25frame5testss_22settings_ack_roundtrip
FN:743,_RNvNtNtCsTNvFtOWN60_5lb_h25frame5testss_23unknown_frame_roundtrip
FN:684,_RNvNtNtCsTNvFtOWN60_5lb_h25frame5testss_24frame_too_large_rejected
FN:675,_RNvNtNtCsTNvFtOWN60_5lb_h25frame5testss_24incomplete_returns_error
FN:709,_RNvNtNtCsTNvFtOWN60_5lb_h25frame5testss_26unknown_frame_type_ignored
FNDA:2,_RNCNvNtCs7moGA0A6lWu_5lb_h25frame13strip_padding0B5_
FNDA:0,_RNCNvNtCs7moGA0A6lWu_5lb_h25frame13strip_paddings_0B5_
FNDA:0,_RNCNvNtCs7moGA0A6lWu_5lb_h25frame16decode_frame_low0B5_
FNDA:2,_RNvNtCs7moGA0A6lWu_5lb_h25frame11read_u16_be
FNDA:279,_RNvNtCs7moGA0A6lWu_5lb_h25frame11read_u32_be
FNDA:276,_RNvNtCs7moGA0A6lWu_5lb_h25frame12decode_frame
FNDA:10,_RNvNtCs7moGA0A6lWu_5lb_h25frame12encode_frame
FNDA:10,_RNvNtCs7moGA0A6lWu_5lb_h25frame12write_header
FNDA:7,_RNvNtCs7moGA0A6lWu_5lb_h25frame13strip_padding
FNDA:13,_RNvNtCs7moGA0A6lWu_5lb_h25frame16decode_frame_low
FNDA:6,_RNvNtCs7moGA0A6lWu_5lb_h25frame17decode_frame_high
FNDA:6,_RNvNtCs7moGA0A6lWu_5lb_h25frame18encode_frame_lower
FNDA:4,_RNvNtCs7moGA0A6lWu_5lb_h25frame18encode_frame_upper
FNDA:276,_RNvNtCs7moGA0A6lWu_5lb_h25frame18parse_frame_header
FNDA:0,_RNCNvNtCsTNvFtOWN60_5lb_h25frame13strip_padding0B5_
FNDA:0,_RNCNvNtCsTNvFtOWN60_5lb_h25frame13strip_paddings_0B5_
FNDA:0,_RNCNvNtCsTNvFtOWN60_5lb_h25frame16decode_frame_low0B5_
FNDA:0,_RNvNtCsTNvFtOWN60_5lb_h25frame11read_u16_be
FNDA:10,_RNvNtCsTNvFtOWN60_5lb_h25frame11read_u32_be
FNDA:9,_RNvNtCsTNvFtOWN60_5lb_h25frame12decode_frame
FNDA:6,_RNvNtCsTNvFtOWN60_5lb_h25frame12encode_frame
FNDA:6,_RNvNtCsTNvFtOWN60_5lb_h25frame12write_header
FNDA:0,_RNvNtCsTNvFtOWN60_5lb_h25frame13strip_padding
FNDA:2,_RNvNtCsTNvFtOWN60_5lb_h25frame16decode_frame_low
FNDA:5,_RNvNtCsTNvFtOWN60_5lb_h25frame17decode_frame_high
FNDA:3,_RNvNtCsTNvFtOWN60_5lb_h25frame18encode_frame_lower
FNDA:3,_RNvNtCsTNvFtOWN60_5lb_h25frame18encode_frame_upper
FNDA:9,_RNvNtCsTNvFtOWN60_5lb_h25frame18parse_frame_header
FNDA:1,_RNvNtNtCsTNvFtOWN60_5lb_h25frame5testss_14ping_roundtrip
FNDA:1,_RNvNtNtCsTNvFtOWN60_5lb_h25frame5testss_16goaway_roundtrip
FNDA:1,_RNvNtNtCsTNvFtOWN60_5lb_h25frame5testss_20data_frame_roundtrip
FNDA:1,_RNvNtNtCsTNvFtOWN60_5lb_h25frame5testss_22settings_ack_roundtrip
FNDA:1,_RNvNtNtCsTNvFtOWN60_5lb_h25frame5testss_23unknown_frame_roundtrip
FNDA:1,_RNvNtNtCsTNvFtOWN60_5lb_h25frame5testss_24frame_too_large_rejected
FNDA:1,_RNvNtNtCsTNvFtOWN60_5lb_h25frame5testss_24incomplete_returns_error
FNDA:1,_RNvNtNtCsTNvFtOWN60_5lb_h25frame5testss_26unknown_frame_type_ignored
FNF:22
FNH:20
DA:136,7
DA:137,5
DA:138,7
DA:139,7
DA:140,7
DA:143,5
DA:144,2
DA:145,2
DA:146,2
DA:147,2
DA:148,3
DA:149,3
DA:150,3
DA:151,3
DA:152,3
DA:153,3
DA:154,7
DA:157,289
DA:158,289
DA:159,289
DA:160,289
DA:161,289
DA:162,289
DA:163,289
DA:166,2
DA:167,2
DA:168,2
DA:169,2
DA:170,2
DA:181,285
DA:182,285
DA:183,4
DA:184,281
DA:186,281
DA:187,281
DA:188,281
DA:190,281
DA:191,281
DA:192,281
DA:194,281
DA:195,281
DA:196,281
DA:197,281
DA:198,281
DA:199,281
DA:200,281
DA:201,281
DA:202,281
DA:203,281
DA:204,285
DA:207,15
DA:208,15
DA:209,15
DA:210,15
DA:211,15
DA:212,15
DA:213,15
DA:220,11
DA:221,6
DA:223,5
DA:225,7
DA:226,7
DA:227,7
DA:228,7
DA:229,7
DA:240,3
DA:241,1
DA:243,2
DA:245,3
DA:246,1
DA:247,0
DA:248,0
DA:249,0
DA:250,1
DA:251,1
DA:252,1
DA:253,1
DA:255,2
DA:257,3
DA:258,3
DA:259,3
DA:260,3
DA:261,3
DA:262,3
DA:265,0
DA:266,0
DA:267,0
DA:268,0
DA:269,0
DA:270,0
DA:271,0
DA:272,0
DA:273,0
DA:274,0
DA:275,0
DA:276,0
DA:277,0
DA:278,0
DA:279,0
DA:282,1
DA:283,0
DA:284,0
DA:285,0
DA:286,1
DA:287,1
DA:288,1
DA:289,1
DA:290,1
DA:291,1
DA:293,0
DA:294,0
DA:295,0
DA:297,15
DA:301,11
DA:302,11
DA:303,11
DA:304,11
DA:305,11
DA:306,11
DA:307,11
DA:309,3
DA:310,3
DA:311,0
DA:312,0
DA:313,0
DA:314,3
DA:315,3
DA:316,0
DA:317,0
DA:318,0
DA:319,3
DA:320,3
DA:321,3
DA:322,5
DA:323,2
DA:324,2
DA:325,2
DA:326,2
DA:328,3
DA:331,0
DA:332,0
DA:333,0
DA:334,0
DA:335,0
DA:336,0
DA:337,0
DA:338,0
DA:339,0
DA:340,0
DA:341,0
DA:344,2
DA:345,0
DA:346,0
DA:347,0
DA:348,2
DA:349,2
DA:350,2
DA:351,16
DA:352,16
DA:354,2
DA:355,2
DA:356,2
DA:357,2
DA:360,2
DA:361,0
DA:362,0
DA:363,0
DA:364,2
DA:365,2
DA:366,2
DA:367,2
DA:368,2
DA:369,2
DA:370,2
DA:371,2
DA:372,2
DA:373,2
DA:376,1
DA:377,0
DA:378,0
DA:379,0
DA:380,1
DA:381,1
DA:382,1
DA:383,1
DA:384,1
DA:385,1
DA:386,1
DA:388,1
DA:389,1
DA:390,1
DA:391,1
DA:392,1
DA:394,2
DA:395,2
DA:396,2
DA:397,2
DA:398,2
DA:399,2
DA:401,11
DA:419,285
DA:420,285
DA:422,281
DA:423,255
DA:424,255
DA:425,255
DA:426,255
DA:427,26
DA:428,26
DA:429,26
DA:430,26
DA:431,26
DA:432,0
DA:433,26
DA:435,26
DA:437,26
DA:439,15
DA:441,11
DA:444,22
DA:445,285
DA:452,16
DA:453,16
DA:454,16
DA:455,16
DA:460,9
DA:461,7
DA:464,16
DA:465,16
DA:468,9
DA:469,9
DA:471,4
DA:472,4
DA:473,4
DA:475,4
DA:476,4
DA:477,4
DA:480,1
DA:481,1
DA:482,1
DA:483,1
DA:484,1
DA:485,1
DA:486,1
DA:487,0
DA:488,1
DA:489,1
DA:490,1
DA:491,1
DA:492,1
DA:493,1
DA:496,0
DA:497,0
DA:498,0
DA:499,0
DA:500,0
DA:501,0
DA:502,0
DA:503,0
DA:505,0
DA:507,0
DA:508,0
DA:511,1
DA:512,1
DA:513,1
DA:514,1
DA:515,1
DA:517,3
DA:518,3
DA:519,3
DA:520,5
DA:521,2
DA:522,2
DA:523,2
DA:525,0
DA:527,9
DA:528,9
DA:531,7
DA:532,7
DA:534,0
DA:535,0
DA:536,0
DA:537,0
DA:538,0
DA:539,0
DA:540,0
DA:541,0
DA:542,0
DA:543,0
DA:544,0
DA:545,0
DA:546,0
DA:548,2
DA:549,2
DA:550,2
DA:551,2
DA:554,2
DA:555,2
DA:556,2
DA:557,2
DA:558,2
DA:559,2
DA:560,2
DA:561,2
DA:564,1
DA:565,1
DA:566,1
DA:567,1
DA:568,1
DA:571,1
DA:572,1
DA:573,1
DA:575,1
DA:576,1
DA:577,1
DA:578,1
DA:579,1
DA:580,1
DA:581,1
DA:582,1
DA:583,1
DA:586,1
DA:587,1
DA:588,1
DA:589,1
DA:590,1
DA:591,1
DA:592,1
DA:594,0
DA:596,7
DA:597,7
DA:600,16
DA:601,16
DA:602,16
DA:603,16
DA:604,16
DA:605,16
DA:606,16
DA:607,16
DA:608,0
DA:609,0
DA:610,0
DA:611,16
DA:612,16
DA:613,16
DA:614,16
DA:615,16
DA:616,16
DA:617,16
DA:618,16
DA:619,16
DA:620,16
DA:621,16
DA:628,1
DA:629,1
DA:630,1
DA:631,1
DA:632,1
DA:633,1
DA:634,1
DA:635,1
DA:636,1
DA:637,1
DA:638,1
DA:641,1
DA:642,1
DA:643,1
DA:644,1
DA:645,1
DA:646,1
DA:647,1
DA:648,1
DA:649,1
DA:652,1
DA:653,1
DA:654,1
DA:655,1
DA:656,1
DA:657,1
DA:658,1
DA:659,1
DA:660,1
DA:663,1
DA:664,1
DA:665,1
DA:666,1
DA:667,1
DA:668,1
DA:669,1
DA:670,1
DA:671,1
DA:672,1
DA:675,1
DA:676,1
DA:677,1
DA:678,1
DA:681,1
DA:684,1
DA:685,1
DA:686,1
DA:687,1
DA:688,1
DA:689,1
DA:690,1
DA:691,1
DA:692,1
DA:693,1
DA:694,1
DA:695,1
DA:696,1
DA:704,1
DA:705,1
DA:706,1
DA:709,1
DA:710,1
DA:711,1
DA:712,1
DA:713,1
DA:714,1
DA:715,1
DA:716,1
DA:717,1
DA:718,1
DA:719,1
DA:720,1
DA:721,1
DA:722,1
DA:723,1
DA:724,1
DA:725,1
DA:726,1
DA:727,1
DA:728,1
DA:729,1
DA:730,1
DA:731,1
DA:732,1
DA:733,1
DA:734,1
DA:735,1
DA:736,1
DA:737,1
DA:738,1
DA:739,1
DA:740,1
DA:743,1
DA:744,1
DA:745,1
DA:746,1
DA:747,1
DA:748,1
DA:749,1
DA:750,1
DA:751,1
DA:752,1
DA:753,1
DA:754,1
BRF:0
BRH:0
LF:459
LH:363
end_of_record
SF:/home/ubuntu/Code/ExpressGateway/crates/lb-h2/src/hpack.rs
FN:192,_RNCNvMNtCs7moGA0A6lWu_5lb_h25hpackNtB4_12DynamicTable3get0B6_
FN:324,_RNCNvNtCs7moGA0A6lWu_5lb_h25hpack13decode_string0B5_
FN:257,_RNCNvNtCs7moGA0A6lWu_5lb_h25hpack14find_in_tables0B5_
FN:214,_RNCNvNtCs7moGA0A6lWu_5lb_h25hpack9table_get0B5_
FN:220,_RNCNvNtCs7moGA0A6lWu_5lb_h25hpack9table_gets_0B5_
FN:166,_RNvMNtCs7moGA0A6lWu_5lb_h25hpackNtB2_12DynamicTable10entry_size
FN:199,_RNvMNtCs7moGA0A6lWu_5lb_h25hpackNtB2_12DynamicTable12set_max_size
FN:189,_RNvMNtCs7moGA0A6lWu_5lb_h25hpackNtB2_12DynamicTable3get
FN:195,_RNvMNtCs7moGA0A6lWu_5lb_h25hpackNtB2_12DynamicTable3len
FN:157,_RNvMNtCs7moGA0A6lWu_5lb_h25hpackNtB2_12DynamicTable3new
FN:179,_RNvMNtCs7moGA0A6lWu_5lb_h25hpackNtB2_12DynamicTable5evict
FN:170,_RNvMNtCs7moGA0A6lWu_5lb_h25hpackNtB2_12DynamicTable6insert
FN:484,_RNvMs0_NtCs7moGA0A6lWu_5lb_h25hpackNtB5_12HpackDecoder18set_max_table_size
FN:398,_RNvMs0_NtCs7moGA0A6lWu_5lb_h25hpackNtB5_12HpackDecoder3new
FN:409,_RNvMs0_NtCs7moGA0A6lWu_5lb_h25hpackNtB5_12HpackDecoder6decode
FN:382,_RNvMs_NtCs7moGA0A6lWu_5lb_h25hpackNtB4_12HpackEncoder18set_max_table_size
FN:339,_RNvMs_NtCs7moGA0A6lWu_5lb_h25hpackNtB4_12HpackEncoder3new
FN:353,_RNvMs_NtCs7moGA0A6lWu_5lb_h25hpackNtB4_12HpackEncoder6encode
FN:317,_RNvNtCs7moGA0A6lWu_5lb_h25hpack13decode_string
FN:311,_RNvNtCs7moGA0A6lWu_5lb_h25hpack13encode_string
FN:284,_RNvNtCs7moGA0A6lWu_5lb_h25hpack14decode_integer
FN:263,_RNvNtCs7moGA0A6lWu_5lb_h25hpack14encode_integer
FN:226,_RNvNtCs7moGA0A6lWu_5lb_h25hpack14find_in_tables
FN:206,_RNvNtCs7moGA0A6lWu_5lb_h25hpack9table_get
FN:507,_RNvNtNtCsTNvFtOWN60_5lb_h25hpack5testss_16string_roundtrip
FN:494,_RNvNtNtCsTNvFtOWN60_5lb_h25hpack5testss_17integer_roundtrip
FN:559,_RNvNtNtCsTNvFtOWN60_5lb_h25hpack5testss_20hpack_static_indexed
FN:537,_RNvNtNtCsTNvFtOWN60_5lb_h25hpack5testss_28hpack_dynamic_table_eviction
FN:520,_RNvNtNtCsTNvFtOWN60_5lb_h25hpack5testss_29hpack_encode_decode_roundtrip
FN:192,_RNCNvMNtCsTNvFtOWN60_5lb_h25hpackNtB4_12DynamicTable3get0B6_
FN:324,_RNCNvNtCsTNvFtOWN60_5lb_h25hpack13decode_string0B5_
FN:257,_RNCNvNtCsTNvFtOWN60_5lb_h25hpack14find_in_tables0B5_
FN:214,_RNCNvNtCsTNvFtOWN60_5lb_h25hpack9table_get0B5_
FN:220,_RNCNvNtCsTNvFtOWN60_5lb_h25hpack9table_gets_0B5_
FN:484,_RNvMs0_NtCsTNvFtOWN60_5lb_h25hpackNtB5_12HpackDecoder18set_max_table_size
FN:382,_RNvMs_NtCsTNvFtOWN60_5lb_h25hpackNtB4_12HpackEncoder18set_max_table_size
FN:166,_RNvMNtCsTNvFtOWN60_5lb_h25hpackNtB2_12DynamicTable10entry_size
FN:199,_RNvMNtCsTNvFtOWN60_5lb_h25hpackNtB2_12DynamicTable12set_max_size
FN:189,_RNvMNtCsTNvFtOWN60_5lb_h25hpackNtB2_12DynamicTable3get
FN:195,_RNvMNtCsTNvFtOWN60_5lb_h25hpackNtB2_12DynamicTable3len
FN:157,_RNvMNtCsTNvFtOWN60_5lb_h25hpackNtB2_12DynamicTable3new
FN:179,_RNvMNtCsTNvFtOWN60_5lb_h25hpackNtB2_12DynamicTable5evict
FN:170,_RNvMNtCsTNvFtOWN60_5lb_h25hpackNtB2_12DynamicTable6insert
FN:398,_RNvMs0_NtCsTNvFtOWN60_5lb_h25hpackNtB5_12HpackDecoder3new
FN:409,_RNvMs0_NtCsTNvFtOWN60_5lb_h25hpackNtB5_12HpackDecoder6decode
FN:339,_RNvMs_NtCsTNvFtOWN60_5lb_h25hpackNtB4_12HpackEncoder3new
FN:353,_RNvMs_NtCsTNvFtOWN60_5lb_h25hpackNtB4_12HpackEncoder6encode
FN:317,_RNvNtCsTNvFtOWN60_5lb_h25hpack13decode_string
FN:311,_RNvNtCsTNvFtOWN60_5lb_h25hpack13encode_string
FN:284,_RNvNtCsTNvFtOWN60_5lb_h25hpack14decode_integer
FN:263,_RNvNtCsTNvFtOWN60_5lb_h25hpack14encode_integer
FN:226,_RNvNtCsTNvFtOWN60_5lb_h25hpack14find_in_tables
FN:206,_RNvNtCsTNvFtOWN60_5lb_h25hpack9table_get
FNDA:9260,_RNCNvMNtCs7moGA0A6lWu_5lb_h25hpackNtB4_12DynamicTable3get0B6_
FNDA:0,_RNCNvNtCs7moGA0A6lWu_5lb_h25hpack13decode_string0B5_
FNDA:4,_RNCNvNtCs7moGA0A6lWu_5lb_h25hpack14find_in_tables0B5_
FNDA:0,_RNCNvNtCs7moGA0A6lWu_5lb_h25hpack9table_get0B5_
FNDA:0,_RNCNvNtCs7moGA0A6lWu_5lb_h25hpack9table_gets_0B5_
FNDA:3960,_RNvMNtCs7moGA0A6lWu_5lb_h25hpackNtB2_12DynamicTable10entry_size
FNDA:0,_RNvMNtCs7moGA0A6lWu_5lb_h25hpackNtB2_12DynamicTable12set_max_size
FNDA:9260,_RNvMNtCs7moGA0A6lWu_5lb_h25hpackNtB2_12DynamicTable3get
FNDA:1981,_RNvMNtCs7moGA0A6lWu_5lb_h25hpackNtB2_12DynamicTable3len
FNDA:515,_RNvMNtCs7moGA0A6lWu_5lb_h25hpackNtB2_12DynamicTable3new
FNDA:3960,_RNvMNtCs7moGA0A6lWu_5lb_h25hpackNtB2_12DynamicTable5evict
FNDA:3960,_RNvMNtCs7moGA0A6lWu_5lb_h25hpackNtB2_12DynamicTable6insert
FNDA:0,_RNvMs0_NtCs7moGA0A6lWu_5lb_h25hpackNtB5_12HpackDecoder18set_max_table_size
FNDA:257,_RNvMs0_NtCs7moGA0A6lWu_5lb_h25hpackNtB5_12HpackDecoder3new
FNDA:259,_RNvMs0_NtCs7moGA0A6lWu_5lb_h25hpackNtB5_12HpackDecoder6decode
FNDA:0,_RNvMs_NtCs7moGA0A6lWu_5lb_h25hpackNtB4_12HpackEncoder18set_max_table_size
FNDA:258,_RNvMs_NtCs7moGA0A6lWu_5lb_h25hpackNtB4_12HpackEncoder3new
FNDA:260,_RNvMs_NtCs7moGA0A6lWu_5lb_h25hpackNtB4_12HpackEncoder6encode
FNDA:3956,_RNvNtCs7moGA0A6lWu_5lb_h25hpack13decode_string
FNDA:3956,_RNvNtCs7moGA0A6lWu_5lb_h25hpack13encode_string
FNDA:5941,_RNvNtCs7moGA0A6lWu_5lb_h25hpack14decode_integer
FNDA:3968,_RNvNtCs7moGA0A6lWu_5lb_h25hpack14encode_integer
FNDA:1988,_RNvNtCs7moGA0A6lWu_5lb_h25hpack14find_in_tables
FNDA:9,_RNvNtCs7moGA0A6lWu_5lb_h25hpack9table_get
FNDA:1,_RNvNtNtCsTNvFtOWN60_5lb_h25hpack5testss_16string_roundtrip
FNDA:1,_RNvNtNtCsTNvFtOWN60_5lb_h25hpack5testss_17integer_roundtrip
FNDA:1,_RNvNtNtCsTNvFtOWN60_5lb_h25hpack5testss_20hpack_static_indexed
FNDA:1,_RNvNtNtCsTNvFtOWN60_5lb_h25hpack5testss_28hpack_dynamic_table_eviction
FNDA:1,_RNvNtNtCsTNvFtOWN60_5lb_h25hpack5testss_29hpack_encode_decode_roundtrip
FNDA:3,_RNCNvMNtCsTNvFtOWN60_5lb_h25hpackNtB4_12DynamicTable3get0B6_
FNDA:0,_RNCNvNtCsTNvFtOWN60_5lb_h25hpack13decode_string0B5_
FNDA:1,_RNCNvNtCsTNvFtOWN60_5lb_h25hpack14find_in_tables0B5_
FNDA:0,_RNCNvNtCsTNvFtOWN60_5lb_h25hpack9table_get0B5_
FNDA:0,_RNCNvNtCsTNvFtOWN60_5lb_h25hpack9table_gets_0B5_
FNDA:0,_RNvMs0_NtCsTNvFtOWN60_5lb_h25hpackNtB5_12HpackDecoder18set_max_table_size
FNDA:0,_RNvMs_NtCsTNvFtOWN60_5lb_h25hpackNtB4_12HpackEncoder18set_max_table_size
FNDA:10,_RNvMNtCsTNvFtOWN60_5lb_h25hpackNtB2_12DynamicTable10entry_size
FNDA:0,_RNvMNtCsTNvFtOWN60_5lb_h25hpackNtB2_12DynamicTable12set_max_size
FNDA:3,_RNvMNtCsTNvFtOWN60_5lb_h25hpackNtB2_12DynamicTable3get
FNDA:4,_RNvMNtCsTNvFtOWN60_5lb_h25hpackNtB2_12DynamicTable3len
FNDA:6,_RNvMNtCsTNvFtOWN60_5lb_h25hpackNtB2_12DynamicTable3new
FNDA:8,_RNvMNtCsTNvFtOWN60_5lb_h25hpackNtB2_12DynamicTable5evict
FNDA:8,_RNvMNtCsTNvFtOWN60_5lb_h25hpackNtB2_12DynamicTable6insert
FNDA:3,_RNvMs0_NtCsTNvFtOWN60_5lb_h25hpackNtB5_12HpackDecoder3new
FNDA:5,_RNvMs0_NtCsTNvFtOWN60_5lb_h25hpackNtB5_12HpackDecoder6decode
FNDA:3,_RNvMs_NtCsTNvFtOWN60_5lb_h25hpackNtB4_12HpackEncoder3new
FNDA:5,_RNvMs_NtCsTNvFtOWN60_5lb_h25hpackNtB4_12HpackEncoder6encode
FNDA:11,_RNvNtCsTNvFtOWN60_5lb_h25hpack13decode_string
FNDA:11,_RNvNtCsTNvFtOWN60_5lb_h25hpack13encode_string
FNDA:52,_RNvNtCsTNvFtOWN60_5lb_h25hpack14decode_integer
FNDA:49,_RNvNtCsTNvFtOWN60_5lb_h25hpack14encode_integer
FNDA:9,_RNvNtCsTNvFtOWN60_5lb_h25hpack14find_in_tables
FNDA:6,_RNvNtCsTNvFtOWN60_5lb_h25hpack9table_get
FNF:29
FNH:23
DA:157,521
DA:158,521
DA:159,521
DA:160,521
DA:161,521
DA:162,521
DA:163,521
DA:166,3970
DA:167,3970
DA:168,3970
DA:170,3968
DA:171,3968
DA:172,3968
DA:173,3968
DA:174,3968
DA:175,3968
DA:176,3968
DA:177,3968
DA:179,3968
DA:180,3970
DA:181,2
DA:182,2
DA:183,2
DA:184,0
DA:187,3968
DA:189,9263
DA:190,9263
DA:191,9263
DA:192,9263
DA:193,9263
DA:195,1985
DA:196,1985
DA:197,1985
DA:199,0
DA:200,0
DA:201,0
DA:202,0
DA:206,15
DA:207,15
DA:208,0
DA:209,15
DA:210,15
DA:211,15
DA:212,13
DA:213,13
DA:214,13
DA:215,13
DA:217,2
DA:218,2
DA:219,2
DA:220,2
DA:222,15
DA:226,1997
DA:227,1997
DA:228,1997
DA:229,1997
DA:230,121128
DA:231,121128
DA:232,121128
DA:233,22
DA:234,12
DA:235,10
DA:236,10
DA:237,8
DA:238,8
DA:239,121106
DA:240,0
DA:243,9261
DA:244,9261
DA:245,9261
DA:246,9261
DA:247,3
DA:248,1
DA:249,2
DA:250,2
DA:251,1
DA:252,1
DA:253,9258
DA:254,0
DA:257,1984
DA:258,1997
DA:263,4017
DA:264,4017
DA:265,4017
DA:266,3964
DA:267,3964
DA:268,3964
DA:270,53
DA:271,53
DA:272,69
DA:273,16
DA:274,16
DA:275,16
DA:276,16
DA:278,53
DA:280,4017
DA:284,5993
DA:285,5993
DA:286,5993
DA:287,5993
DA:288,5993
DA:289,5993
DA:290,5940
DA:291,53
DA:292,53
DA:293,53
DA:294,53
DA:296,69
DA:297,69
DA:298,69
DA:299,69
DA:300,69
DA:301,53
DA:302,16
DA:303,16
DA:304,0
DA:305,16
DA:307,53
DA:308,5993
DA:311,3967
DA:312,3967
DA:313,3967
DA:314,3967
DA:317,3967
DA:318,3967
DA:319,3967
DA:320,3967
DA:321,3967
DA:323,3967
DA:324,3967
DA:325,3967
DA:326,3967
DA:339,261
DA:340,261
DA:341,261
DA:342,261
DA:343,261
DA:353,265
DA:354,265
DA:356,2262
DA:357,1997
DA:358,13
DA:359,13
DA:360,13
DA:361,13
DA:362,5
DA:363,5
DA:364,5
DA:365,5
DA:366,5
DA:367,5
DA:368,1979
DA:369,1979
DA:370,1979
DA:371,1979
DA:372,1979
DA:373,1979
DA:374,1979
DA:378,265
DA:379,265
DA:382,0
DA:383,0
DA:384,0
DA:398,260
DA:399,260
DA:400,260
DA:401,260
DA:402,260
DA:409,264
DA:410,264
DA:411,264
DA:413,2258
DA:414,1994
DA:416,1994
DA:418,10
DA:419,10
DA:420,10
DA:421,10
DA:422,10
DA:423,1984
DA:425,1984
DA:426,1984
DA:427,1984
DA:429,1984
DA:430,1979
DA:431,1979
DA:432,1979
DA:433,1979
DA:434,1979
DA:436,5
DA:437,5
DA:438,5
DA:439,5
DA:440,5
DA:443,1984
DA:444,1984
DA:445,0
DA:448,0
DA:449,0
DA:450,0
DA:452,0
DA:453,0
DA:454,0
DA:455,0
DA:456,0
DA:457,0
DA:459,0
DA:460,0
DA:461,0
DA:462,0
DA:463,0
DA:466,0
DA:467,0
DA:469,0
DA:470,0
DA:471,0
DA:472,0
DA:474,0
DA:475,0
DA:476,0
DA:480,264
DA:481,264
DA:484,0
DA:485,0
DA:486,0
DA:494,1
DA:495,5
DA:496,36
DA:497,32
DA:498,32
DA:499,32
DA:500,32
DA:501,32
DA:504,1
DA:507,1
DA:508,1
DA:509,5
DA:510,4
DA:511,4
DA:512,4
DA:513,4
DA:514,4
DA:516,1
DA:520,1
DA:521,1
DA:522,1
DA:523,1
DA:524,1
DA:525,1
DA:526,1
DA:527,1
DA:528,1
DA:529,1
DA:530,1
DA:531,1
DA:532,1
DA:533,1
DA:534,1
DA:537,1
DA:538,1
DA:539,1
DA:540,1
DA:541,1
DA:542,1
DA:543,1
DA:544,1
DA:545,1
DA:546,1
DA:547,1
DA:549,1
DA:550,1
DA:551,1
DA:553,1
DA:554,1
DA:555,1
DA:556,1
DA:559,1
DA:560,1
DA:561,1
DA:562,1
DA:563,1
DA:564,1
DA:565,1
DA:566,1
DA:567,1
DA:568,1
DA:569,1
DA:570,1
DA:572,1
DA:573,1
DA:574,1
DA:575,1
BRF:0
BRH:0
LF:297
LH:255
end_of_record
SF:/home/ubuntu/Code/ExpressGateway/crates/lb-h2/src/security.rs
FN:415,_RNCNvMs3_NtCs7moGA0A6lWu_5lb_h28securityNtB7_23ZeroWindowStallDetector13check_stalled0B9_
FN:46,_RNvMNtCs7moGA0A6lWu_5lb_h28securityNtB2_18RapidResetDetector3new
FN:111,_RNvMNtCs7moGA0A6lWu_5lb_h28securityNtB2_18RapidResetDetector5reset
FN:62,_RNvMNtCs7moGA0A6lWu_5lb_h28securityNtB2_18RapidResetDetector6record
FN:178,_RNvMs0_NtCs7moGA0A6lWu_5lb_h28securityNtB5_17HpackBombDetector3new
FN:191,_RNvMs0_NtCs7moGA0A6lWu_5lb_h28securityNtB5_17HpackBombDetector5check
FN:276,_RNvMs1_NtCs7moGA0A6lWu_5lb_h28securityNtB5_21SettingsFloodDetector11on_settings
FN:263,_RNvMs1_NtCs7moGA0A6lWu_5lb_h28securityNtB5_21SettingsFloodDetector13with_defaults
FN:252,_RNvMs1_NtCs7moGA0A6lWu_5lb_h28securityNtB5_21SettingsFloodDetector3new
FN:297,_RNvMs1_NtCs7moGA0A6lWu_5lb_h28securityNtB5_21SettingsFloodDetector5reset
FN:330,_RNvMs2_NtCs7moGA0A6lWu_5lb_h28securityNtB5_17PingFloodDetector13with_defaults
FN:319,_RNvMs2_NtCs7moGA0A6lWu_5lb_h28securityNtB5_17PingFloodDetector3new
FN:361,_RNvMs2_NtCs7moGA0A6lWu_5lb_h28securityNtB5_17PingFloodDetector5reset
FN:340,_RNvMs2_NtCs7moGA0A6lWu_5lb_h28securityNtB5_17PingFloodDetector7on_ping
FN:412,_RNvMs3_NtCs7moGA0A6lWu_5lb_h28securityNtB5_23ZeroWindowStallDetector13check_stalled
FN:419,_RNvMs3_NtCs7moGA0A6lWu_5lb_h28securityNtB5_23ZeroWindowStallDetector13remove_stream
FN:393,_RNvMs3_NtCs7moGA0A6lWu_5lb_h28securityNtB5_23ZeroWindowStallDetector13with_defaults
FN:402,_RNvMs3_NtCs7moGA0A6lWu_5lb_h28securityNtB5_23ZeroWindowStallDetector16on_window_update
FN:384,_RNvMs3_NtCs7moGA0A6lWu_5lb_h28securityNtB5_23ZeroWindowStallDetector3new
FN:424,_RNvMs3_NtCs7moGA0A6lWu_5lb_h28securityNtB5_23ZeroWindowStallDetector5reset
FN:130,_RNvMs_NtCs7moGA0A6lWu_5lb_h28securityNtB4_25ContinuationFloodDetector3new
FN:159,_RNvMs_NtCs7moGA0A6lWu_5lb_h28securityNtB4_25ContinuationFloodDetector5reset
FN:144,_RNvMs_NtCs7moGA0A6lWu_5lb_h28securityNtB4_25ContinuationFloodDetector6record
FN:415,_RNCNvMs3_NtCsTNvFtOWN60_5lb_h28securityNtB7_23ZeroWindowStallDetector13check_stalled0B9_
FN:111,_RNvMNtCsTNvFtOWN60_5lb_h28securityNtB2_18RapidResetDetector5reset
FN:263,_RNvMs1_NtCsTNvFtOWN60_5lb_h28securityNtB5_21SettingsFloodDetector13with_defaults
FN:297,_RNvMs1_NtCsTNvFtOWN60_5lb_h28securityNtB5_21SettingsFloodDetector5reset
FN:330,_RNvMs2_NtCsTNvFtOWN60_5lb_h28securityNtB5_17PingFloodDetector13with_defaults
FN:361,_RNvMs2_NtCsTNvFtOWN60_5lb_h28securityNtB5_17PingFloodDetector5reset
FN:393,_RNvMs3_NtCsTNvFtOWN60_5lb_h28securityNtB5_23ZeroWindowStallDetector13with_defaults
FN:424,_RNvMs3_NtCsTNvFtOWN60_5lb_h28securityNtB5_23ZeroWindowStallDetector5reset
FN:159,_RNvMs_NtCsTNvFtOWN60_5lb_h28securityNtB4_25ContinuationFloodDetector5reset
FN:46,_RNvMNtCsTNvFtOWN60_5lb_h28securityNtB2_18RapidResetDetector3new
FN:62,_RNvMNtCsTNvFtOWN60_5lb_h28securityNtB2_18RapidResetDetector6record
FN:178,_RNvMs0_NtCsTNvFtOWN60_5lb_h28securityNtB5_17HpackBombDetector3new
FN:191,_RNvMs0_NtCsTNvFtOWN60_5lb_h28securityNtB5_17HpackBombDetector5check
FN:276,_RNvMs1_NtCsTNvFtOWN60_5lb_h28securityNtB5_21SettingsFloodDetector11on_settings
FN:252,_RNvMs1_NtCsTNvFtOWN60_5lb_h28securityNtB5_21SettingsFloodDetector3new
FN:319,_RNvMs2_NtCsTNvFtOWN60_5lb_h28securityNtB5_17PingFloodDetector3new
FN:340,_RNvMs2_NtCsTNvFtOWN60_5lb_h28securityNtB5_17PingFloodDetector7on_ping
FN:412,_RNvMs3_NtCsTNvFtOWN60_5lb_h28securityNtB5_23ZeroWindowStallDetector13check_stalled
FN:419,_RNvMs3_NtCsTNvFtOWN60_5lb_h28securityNtB5_23ZeroWindowStallDetector13remove_stream
FN:402,_RNvMs3_NtCsTNvFtOWN60_5lb_h28securityNtB5_23ZeroWindowStallDetector16on_window_update
FN:384,_RNvMs3_NtCsTNvFtOWN60_5lb_h28securityNtB5_23ZeroWindowStallDetector3new
FN:130,_RNvMs_NtCsTNvFtOWN60_5lb_h28securityNtB4_25ContinuationFloodDetector3new
FN:144,_RNvMs_NtCsTNvFtOWN60_5lb_h28securityNtB4_25ContinuationFloodDetector6record
FN:569,_RNvNtNtCsTNvFtOWN60_5lb_h28security5testss_13hpack_bomb_ok
FN:636,_RNvNtNtCsTNvFtOWN60_5lb_h28security5testss_19ping_burst_rejected
FN:551,_RNvNtNtCsTNvFtOWN60_5lb_h28security5testss_21continuation_flood_ok
FN:596,_RNvNtNtCsTNvFtOWN60_5lb_h28security5testss_23settings_burst_rejected
FN:581,_RNvNtNtCsTNvFtOWN60_5lb_h28security5testss_24hpack_bomb_size_exceeded
FN:627,_RNvNtNtCsTNvFtOWN60_5lb_h28security5testss_24ping_under_limit_allowed
FN:575,_RNvNtNtCsTNvFtOWN60_5lb_h28security5testss_25hpack_bomb_ratio_exceeded
FN:458,_RNvNtNtCsTNvFtOWN60_5lb_h28security5testss_25rapid_reset_window_expiry
FN:447,_RNvNtNtCsTNvFtOWN60_5lb_h28security5testss_26rapid_reset_over_threshold
FN:560,_RNvNtNtCsTNvFtOWN60_5lb_h28security5testss_27continuation_flood_exceeded
FN:434,_RNvNtNtCsTNvFtOWN60_5lb_h28security5testss_27rapid_reset_under_threshold
FN:609,_RNvNtNtCsTNvFtOWN60_5lb_h28security5testss_28settings_resets_after_window
FN:587,_RNvNtNtCsTNvFtOWN60_5lb_h28security5testss_28settings_under_limit_allowed
FN:506,_RNvNtNtCsTNvFtOWN60_5lb_h28security5testss_33rapid_reset_sliding_window_decays
FN:658,_RNvNtNtCsTNvFtOWN60_5lb_h28security5testss_35zero_window_stall_reset_on_progress
FN:468,_RNvNtNtCsTNvFtOWN60_5lb_h28security5testss_36rapid_reset_boundary_attack_detected
FN:647,_RNvNtNtCsTNvFtOWN60_5lb_h28security5testss_37zero_window_stall_fires_after_timeout
FNDA:0,_RNCNvMs3_NtCs7moGA0A6lWu_5lb_h28securityNtB7_23ZeroWindowStallDetector13check_stalled0B9_
FNDA:2,_RNvMNtCs7moGA0A6lWu_5lb_h28securityNtB2_18RapidResetDetector3new
FNDA:1,_RNvMNtCs7moGA0A6lWu_5lb_h28securityNtB2_18RapidResetDetector5reset
FNDA:23,_RNvMNtCs7moGA0A6lWu_5lb_h28securityNtB2_18RapidResetDetector6record
FNDA:2,_RNvMs0_NtCs7moGA0A6lWu_5lb_h28securityNtB5_17HpackBombDetector3new
FNDA:8,_RNvMs0_NtCs7moGA0A6lWu_5lb_h28securityNtB5_17HpackBombDetector5check
FNDA:0,_RNvMs1_NtCs7moGA0A6lWu_5lb_h28securityNtB5_21SettingsFloodDetector11on_settings
FNDA:0,_RNvMs1_NtCs7moGA0A6lWu_5lb_h28securityNtB5_21SettingsFloodDetector13with_defaults
FNDA:0,_RNvMs1_NtCs7moGA0A6lWu_5lb_h28securityNtB5_21SettingsFloodDetector3new
FNDA:0,_RNvMs1_NtCs7moGA0A6lWu_5lb_h28securityNtB5_21SettingsFloodDetector5reset
FNDA:0,_RNvMs2_NtCs7moGA0A6lWu_5lb_h28securityNtB5_17PingFloodDetector13with_defaults
FNDA:0,_RNvMs2_NtCs7moGA0A6lWu_5lb_h28securityNtB5_17PingFloodDetector3new
FNDA:0,_RNvMs2_NtCs7moGA0A6lWu_5lb_h28securityNtB5_17PingFloodDetector5reset
FNDA:0,_RNvMs2_NtCs7moGA0A6lWu_5lb_h28securityNtB5_17PingFloodDetector7on_ping
FNDA:0,_RNvMs3_NtCs7moGA0A6lWu_5lb_h28securityNtB5_23ZeroWindowStallDetector13check_stalled
FNDA:0,_RNvMs3_NtCs7moGA0A6lWu_5lb_h28securityNtB5_23ZeroWindowStallDetector13remove_stream
FNDA:0,_RNvMs3_NtCs7moGA0A6lWu_5lb_h28securityNtB5_23ZeroWindowStallDetector13with_defaults
FNDA:0,_RNvMs3_NtCs7moGA0A6lWu_5lb_h28securityNtB5_23ZeroWindowStallDetector16on_window_update
FNDA:0,_RNvMs3_NtCs7moGA0A6lWu_5lb_h28securityNtB5_23ZeroWindowStallDetector3new
FNDA:0,_RNvMs3_NtCs7moGA0A6lWu_5lb_h28securityNtB5_23ZeroWindowStallDetector5reset
FNDA:2,_RNvMs_NtCs7moGA0A6lWu_5lb_h28securityNtB4_25ContinuationFloodDetector3new
FNDA:1,_RNvMs_NtCs7moGA0A6lWu_5lb_h28securityNtB4_25ContinuationFloodDetector5reset
FNDA:34,_RNvMs_NtCs7moGA0A6lWu_5lb_h28securityNtB4_25ContinuationFloodDetector6record
FNDA:4,_RNCNvMs3_NtCsTNvFtOWN60_5lb_h28securityNtB7_23ZeroWindowStallDetector13check_stalled0B9_
FNDA:0,_RNvMNtCsTNvFtOWN60_5lb_h28securityNtB2_18RapidResetDetector5reset
FNDA:0,_RNvMs1_NtCsTNvFtOWN60_5lb_h28securityNtB5_21SettingsFloodDetector13with_defaults
FNDA:0,_RNvMs1_NtCsTNvFtOWN60_5lb_h28securityNtB5_21SettingsFloodDetector5reset
FNDA:0,_RNvMs2_NtCsTNvFtOWN60_5lb_h28securityNtB5_17PingFloodDetector13with_defaults
FNDA:0,_RNvMs2_NtCsTNvFtOWN60_5lb_h28securityNtB5_17PingFloodDetector5reset
FNDA:0,_RNvMs3_NtCsTNvFtOWN60_5lb_h28securityNtB5_23ZeroWindowStallDetector13with_defaults
FNDA:0,_RNvMs3_NtCsTNvFtOWN60_5lb_h28securityNtB5_23ZeroWindowStallDetector5reset
FNDA:0,_RNvMs_NtCsTNvFtOWN60_5lb_h28securityNtB4_25ContinuationFloodDetector5reset
FNDA:5,_RNvMNtCsTNvFtOWN60_5lb_h28securityNtB2_18RapidResetDetector3new
FNDA:43,_RNvMNtCsTNvFtOWN60_5lb_h28securityNtB2_18RapidResetDetector6record
FNDA:3,_RNvMs0_NtCsTNvFtOWN60_5lb_h28securityNtB5_17HpackBombDetector3new
FNDA:3,_RNvMs0_NtCsTNvFtOWN60_5lb_h28securityNtB5_17HpackBombDetector5check
FNDA:21,_RNvMs1_NtCsTNvFtOWN60_5lb_h28securityNtB5_21SettingsFloodDetector11on_settings
FNDA:3,_RNvMs1_NtCsTNvFtOWN60_5lb_h28securityNtB5_21SettingsFloodDetector3new
FNDA:2,_RNvMs2_NtCsTNvFtOWN60_5lb_h28securityNtB5_17PingFloodDetector3new
FNDA:7,_RNvMs2_NtCsTNvFtOWN60_5lb_h28securityNtB5_17PingFloodDetector7on_ping
FNDA:5,_RNvMs3_NtCsTNvFtOWN60_5lb_h28securityNtB5_23ZeroWindowStallDetector13check_stalled
FNDA:1,_RNvMs3_NtCsTNvFtOWN60_5lb_h28securityNtB5_23ZeroWindowStallDetector13remove_stream
FNDA:3,_RNvMs3_NtCsTNvFtOWN60_5lb_h28securityNtB5_23ZeroWindowStallDetector16on_window_update
FNDA:2,_RNvMs3_NtCsTNvFtOWN60_5lb_h28securityNtB5_23ZeroWindowStallDetector3new
FNDA:2,_RNvMs_NtCsTNvFtOWN60_5lb_h28securityNtB4_25ContinuationFloodDetector3new
FNDA:12,_RNvMs_NtCsTNvFtOWN60_5lb_h28securityNtB4_25ContinuationFloodDetector6record
FNDA:1,_RNvNtNtCsTNvFtOWN60_5lb_h28security5testss_13hpack_bomb_ok
FNDA:1,_RNvNtNtCsTNvFtOWN60_5lb_h28security5testss_19ping_burst_rejected
FNDA:1,_RNvNtNtCsTNvFtOWN60_5lb_h28security5testss_21continuation_flood_ok
FNDA:1,_RNvNtNtCsTNvFtOWN60_5lb_h28security5testss_23settings_burst_rejected
FNDA:1,_RNvNtNtCsTNvFtOWN60_5lb_h28security5testss_24hpack_bomb_size_exceeded
FNDA:1,_RNvNtNtCsTNvFtOWN60_5lb_h28security5testss_24ping_under_limit_allowed
FNDA:1,_RNvNtNtCsTNvFtOWN60_5lb_h28security5testss_25hpack_bomb_ratio_exceeded
FNDA:1,_RNvNtNtCsTNvFtOWN60_5lb_h28security5testss_25rapid_reset_window_expiry
FNDA:1,_RNvNtNtCsTNvFtOWN60_5lb_h28security5testss_26rapid_reset_over_threshold
FNDA:1,_RNvNtNtCsTNvFtOWN60_5lb_h28security5testss_27continuation_flood_exceeded
FNDA:1,_RNvNtNtCsTNvFtOWN60_5lb_h28security5testss_27rapid_reset_under_threshold
FNDA:1,_RNvNtNtCsTNvFtOWN60_5lb_h28security5testss_28settings_resets_after_window
FNDA:1,_RNvNtNtCsTNvFtOWN60_5lb_h28security5testss_28settings_under_limit_allowed
FNDA:1,_RNvNtNtCsTNvFtOWN60_5lb_h28security5testss_33rapid_reset_sliding_window_decays
FNDA:1,_RNvNtNtCsTNvFtOWN60_5lb_h28security5testss_35zero_window_stall_reset_on_progress
FNDA:1,_RNvNtNtCsTNvFtOWN60_5lb_h28security5testss_36rapid_reset_boundary_attack_detected
FNDA:1,_RNvNtNtCsTNvFtOWN60_5lb_h28security5testss_37zero_window_stall_fires_after_timeout
FNF:40
FNH:34
DA:46,7
DA:47,7
DA:48,7
DA:49,7
DA:50,7
DA:51,7
DA:52,7
DA:53,7
DA:54,7
DA:62,66
DA:63,66
DA:64,66
DA:65,66
DA:69,3
DA:70,1
DA:71,2
DA:72,2
DA:73,2
DA:74,3
DA:75,3
DA:76,63
DA:77,63
DA:78,63
DA:89,66
DA:90,66
DA:91,66
DA:92,66
DA:93,66
DA:94,66
DA:95,66
DA:96,66
DA:97,66
DA:98,66
DA:99,66
DA:100,66
DA:101,66
DA:102,5
DA:103,5
DA:104,5
DA:106,61
DA:108,66
DA:111,1
DA:112,1
DA:113,1
DA:114,1
DA:115,1
DA:130,4
DA:131,4
DA:132,4
DA:133,4
DA:134,4
DA:135,4
DA:144,46
DA:145,46
DA:146,2
DA:147,2
DA:148,44
DA:149,44
DA:150,44
DA:151,44
DA:152,4
DA:154,40
DA:156,46
DA:159,1
DA:160,1
DA:161,1
DA:178,5
DA:179,5
DA:180,5
DA:181,5
DA:182,5
DA:183,5
DA:191,11
DA:192,11
DA:193,6
DA:194,5
DA:195,1
DA:197,6
DA:198,6
DA:199,6
DA:200,6
DA:201,6
DA:202,5
DA:204,5
DA:205,5
DA:206,1
DA:207,1
DA:208,1
DA:209,1
DA:210,1
DA:211,4
DA:212,0
DA:214,4
DA:215,11
DA:252,3
DA:253,3
DA:254,3
DA:255,3
DA:256,3
DA:257,3
DA:258,3
DA:259,3
DA:263,0
DA:264,0
DA:265,0
DA:266,0
DA:267,0
DA:268,0
DA:276,21
DA:277,21
DA:278,3
DA:279,18
DA:281,21
DA:282,4
DA:283,4
DA:284,17
DA:285,17
DA:286,17
DA:287,21
DA:288,1
DA:289,1
DA:290,1
DA:292,20
DA:294,21
DA:297,0
DA:298,0
DA:299,0
DA:300,0
DA:319,2
DA:320,2
DA:321,2
DA:322,2
DA:323,2
DA:324,2
DA:325,2
DA:326,2
DA:330,0
DA:331,0
DA:332,0
DA:340,7
DA:341,7
DA:342,2
DA:343,5
DA:345,7
DA:346,2
DA:347,2
DA:348,5
DA:349,5
DA:350,5
DA:351,7
DA:352,1
DA:353,1
DA:354,1
DA:356,6
DA:358,7
DA:361,0
DA:362,0
DA:363,0
DA:364,0
DA:384,2
DA:385,2
DA:386,2
DA:387,2
DA:388,2
DA:389,2
DA:393,0
DA:394,0
DA:395,0
DA:402,3
DA:403,3
DA:404,3
DA:405,1
DA:406,2
DA:407,3
DA:412,5
DA:413,5
DA:414,5
DA:415,5
DA:416,5
DA:419,1
DA:420,1
DA:421,1
DA:424,0
DA:425,0
DA:426,0
DA:434,1
DA:435,1
DA:441,6
DA:442,5
DA:444,1
DA:447,1
DA:448,1
DA:450,6
DA:451,5
DA:454,1
DA:455,1
DA:458,1
DA:459,1
DA:460,6
DA:461,5
DA:464,1
DA:465,1
DA:468,1
DA:469,1
DA:470,1
DA:471,1
DA:472,1
DA:473,1
DA:474,1
DA:475,1
DA:476,1
DA:477,1
DA:478,1
DA:483,10
DA:484,10
DA:485,10
DA:486,0
DA:487,0
DA:498,1
DA:499,1
DA:500,0
DA:501,0
DA:503,1
DA:506,1
DA:507,1
DA:508,1
DA:509,1
DA:510,1
DA:511,1
DA:512,1
DA:515,6
DA:516,5
DA:517,5
DA:521,1
DA:526,1
DA:537,8
DA:538,7
DA:540,1
DA:541,1
DA:542,0
DA:548,1
DA:551,1
DA:552,1
DA:553,6
DA:554,5
DA:556,1
DA:557,1
DA:560,1
DA:561,1
DA:562,6
DA:563,5
DA:565,1
DA:566,1
DA:569,1
DA:570,1
DA:571,1
DA:572,1
DA:575,1
DA:576,1
DA:577,1
DA:578,1
DA:581,1
DA:582,1
DA:583,1
DA:584,1
DA:587,1
DA:588,1
DA:589,1
DA:590,6
DA:591,5
DA:593,1
DA:596,1
DA:597,1
DA:598,1
DA:599,6
DA:600,5
DA:602,1
DA:603,1
DA:604,1
DA:605,1
DA:606,1
DA:609,1
DA:610,1
DA:611,1
DA:612,6
DA:613,5
DA:616,1
DA:618,5
DA:619,4
DA:620,4
DA:621,4
DA:622,4
DA:624,1
DA:627,1
DA:628,1
DA:629,1
DA:630,4
DA:631,3
DA:633,1
DA:636,1
DA:637,1
DA:638,1
DA:639,4
DA:640,3
DA:642,1
DA:643,1
DA:644,1
DA:647,1
DA:648,1
DA:649,1
DA:650,1
DA:651,1
DA:652,1
DA:653,1
DA:654,1
DA:655,1
DA:658,1
DA:659,1
DA:660,1
DA:661,1
DA:662,1
DA:663,1
DA:664,1
DA:665,1
DA:667,1
DA:669,1
DA:670,1
DA:671,1
BRF:0
BRH:0
LF:329
LH:299
end_of_record
SF:/home/ubuntu/Code/ExpressGateway/crates/lb-h3-testcodec/src/frame.rs
FN:84,_RNvNtCs4FJQSvWNnmp_15lb_h3_testcodec5frame12decode_frame
FN:159,_RNvNtCs4FJQSvWNnmp_15lb_h3_testcodec5frame12encode_frame
FN:98,_RNCNvNtCs4FJQSvWNnmp_15lb_h3_testcodec5frame12decode_frame0B5_
FN:84,_RNvNtCsbyhQloL0DT_15lb_h3_testcodec5frame12decode_frame
FN:159,_RNvNtCsbyhQloL0DT_15lb_h3_testcodec5frame12encode_frame
FN:98,_RNCNvNtCsbyhQloL0DT_15lb_h3_testcodec5frame12decode_frame0B5_
FN:275,_RNvNtNtCsbyhQloL0DT_15lb_h3_testcodec5frame5testss_16incomplete_input
FN:233,_RNvNtNtCsbyhQloL0DT_15lb_h3_testcodec5frame5testss_20data_frame_roundtrip
FN:266,_RNvNtNtCsbyhQloL0DT_15lb_h3_testcodec5frame5testss_22goaway_frame_roundtrip
FN:244,_RNvNtNtCsbyhQloL0DT_15lb_h3_testcodec5frame5testss_23headers_frame_roundtrip
FN:287,_RNvNtNtCsbyhQloL0DT_15lb_h3_testcodec5frame5testss_24frame_too_large_rejected
FN:255,_RNvNtNtCsbyhQloL0DT_15lb_h3_testcodec5frame5testss_24settings_frame_roundtrip
FN:310,_RNvNtNtCsbyhQloL0DT_15lb_h3_testcodec5frame5testss_26unknown_frame_type_ignored
FNDA:320214,_RNvNtCs4FJQSvWNnmp_15lb_h3_testcodec5frame12decode_frame
FNDA:2953,_RNvNtCs4FJQSvWNnmp_15lb_h3_testcodec5frame12encode_frame
FNDA:0,_RNCNvNtCs4FJQSvWNnmp_15lb_h3_testcodec5frame12decode_frame0B5_
FNDA:9,_RNvNtCsbyhQloL0DT_15lb_h3_testcodec5frame12decode_frame
FNDA:4,_RNvNtCsbyhQloL0DT_15lb_h3_testcodec5frame12encode_frame
FNDA:0,_RNCNvNtCsbyhQloL0DT_15lb_h3_testcodec5frame12decode_frame0B5_
FNDA:1,_RNvNtNtCsbyhQloL0DT_15lb_h3_testcodec5frame5testss_16incomplete_input
FNDA:1,_RNvNtNtCsbyhQloL0DT_15lb_h3_testcodec5frame5testss_20data_frame_roundtrip
FNDA:1,_RNvNtNtCsbyhQloL0DT_15lb_h3_testcodec5frame5testss_22goaway_frame_roundtrip
FNDA:1,_RNvNtNtCsbyhQloL0DT_15lb_h3_testcodec5frame5testss_23headers_frame_roundtrip
FNDA:1,_RNvNtNtCsbyhQloL0DT_15lb_h3_testcodec5frame5testss_24frame_too_large_rejected
FNDA:1,_RNvNtNtCsbyhQloL0DT_15lb_h3_testcodec5frame5testss_24settings_frame_roundtrip
FNDA:1,_RNvNtNtCsbyhQloL0DT_15lb_h3_testcodec5frame5testss_26unknown_frame_type_ignored
FNF:10
FNH:9
DA:84,320223
DA:85,320223
DA:86,170056
DA:87,170056
DA:89,170054
DA:90,121
DA:91,121
DA:92,121
DA:93,121
DA:94,169933
DA:95,169933
DA:96,169933
DA:97,169933
DA:98,169933
DA:99,169933
DA:101,169933
DA:103,62678
DA:104,61957
DA:105,61957
DA:106,61957
DA:107,218
DA:108,218
DA:109,218
DA:111,1
DA:112,1
DA:115,2
DA:116,2
DA:117,6
DA:118,4
DA:119,4
DA:120,4
DA:121,4
DA:122,4
DA:123,4
DA:125,2
DA:128,1
DA:129,1
DA:130,1
DA:131,1
DA:132,1
DA:133,1
DA:136,2
DA:137,2
DA:140,2
DA:141,2
DA:144,495
DA:145,495
DA:146,495
DA:147,495
DA:150,62678
DA:151,320223
DA:159,2957
DA:160,2957
DA:161,2957
DA:162,2957
DA:163,2522
DA:164,2522
DA:165,2522
DA:166,2522
DA:168,427
DA:169,427
DA:170,427
DA:171,427
DA:173,1
DA:174,1
DA:175,1
DA:176,1
DA:177,1
DA:178,1
DA:180,3
DA:181,3
DA:182,7
DA:183,4
DA:184,4
DA:186,3
DA:187,3
DA:188,3
DA:191,0
DA:192,0
DA:193,0
DA:194,0
DA:195,0
DA:196,0
DA:197,0
DA:198,0
DA:199,0
DA:201,2
DA:202,2
DA:203,2
DA:204,2
DA:205,2
DA:206,2
DA:208,1
DA:209,1
DA:210,1
DA:211,1
DA:212,1
DA:213,1
DA:216,1
DA:217,1
DA:218,1
DA:219,1
DA:220,1
DA:221,1
DA:225,2957
DA:226,2957
DA:233,1
DA:234,1
DA:235,1
DA:236,1
DA:237,1
DA:238,1
DA:239,1
DA:240,1
DA:241,1
DA:244,1
DA:245,1
DA:246,1
DA:247,1
DA:248,1
DA:249,1
DA:250,1
DA:251,1
DA:252,1
DA:255,1
DA:256,1
DA:257,1
DA:258,1
DA:259,1
DA:260,1
DA:261,1
DA:262,1
DA:263,1
DA:266,1
DA:267,1
DA:268,1
DA:269,1
DA:270,1
DA:271,1
DA:272,1
DA:275,1
DA:276,1
DA:277,1
DA:280,1
DA:281,1
DA:284,1
DA:287,1
DA:288,1
DA:289,1
DA:290,1
DA:291,1
DA:292,1
DA:293,1
DA:294,1
DA:295,1
DA:296,1
DA:297,1
DA:305,1
DA:306,1
DA:307,1
DA:310,1
DA:311,1
DA:312,1
DA:313,1
DA:314,1
DA:315,1
DA:316,1
DA:317,1
DA:318,1
DA:319,1
DA:320,1
DA:321,1
DA:322,1
DA:323,1
DA:324,1
DA:325,1
DA:326,1
DA:327,1
DA:328,1
BRF:0
BRH:0
LF:180
LH:170
end_of_record
SF:/home/ubuntu/Code/ExpressGateway/crates/lb-h3-testcodec/src/qpack.rs
FN:211,_RNvMNtCs4FJQSvWNnmp_15lb_h3_testcodec5qpackNtB2_12QpackEncoder3new
FN:223,_RNvMNtCs4FJQSvWNnmp_15lb_h3_testcodec5qpackNtB2_12QpackEncoder6encode
FN:282,_RNvMs0_NtCs4FJQSvWNnmp_15lb_h3_testcodec5qpackNtB5_12QpackDecoder3new
FN:291,_RNvMs0_NtCs4FJQSvWNnmp_15lb_h3_testcodec5qpackNtB5_12QpackDecoder6decode
FN:161,_RNvNtCs4FJQSvWNnmp_15lb_h3_testcodec5qpack11decode_qint
FN:142,_RNvNtCs4FJQSvWNnmp_15lb_h3_testcodec5qpack11encode_qint
FN:125,_RNvNtCs4FJQSvWNnmp_15lb_h3_testcodec5qpack11find_static
FN:192,_RNvNtCs4FJQSvWNnmp_15lb_h3_testcodec5qpack14decode_qstring
FN:187,_RNvNtCs4FJQSvWNnmp_15lb_h3_testcodec5qpack14encode_qstring
FN:391,_RNvXs1_NtCs4FJQSvWNnmp_15lb_h3_testcodec5qpackNtB5_12QpackDecoderNtNtCs2va5m0jqTTM_4core7default7Default7default
FN:268,_RNvXs_NtCs4FJQSvWNnmp_15lb_h3_testcodec5qpackNtB4_12QpackEncoderNtNtCs2va5m0jqTTM_4core7default7Default7default
FN:316,_RNCNvMs0_NtCs4FJQSvWNnmp_15lb_h3_testcodec5qpackNtB7_12QpackDecoder6decode0B9_
FN:370,_RNCNvMs0_NtCs4FJQSvWNnmp_15lb_h3_testcodec5qpackNtB7_12QpackDecoder6decodes0_0B9_
FN:331,_RNCNvMs0_NtCs4FJQSvWNnmp_15lb_h3_testcodec5qpackNtB7_12QpackDecoder6decodes_0B9_
FN:137,_RNCNvNtCs4FJQSvWNnmp_15lb_h3_testcodec5qpack11find_static0B5_
FN:198,_RNCNvNtCs4FJQSvWNnmp_15lb_h3_testcodec5qpack14decode_qstring0B5_
FN:316,_RNCNvMs0_NtCsbyhQloL0DT_15lb_h3_testcodec5qpackNtB7_12QpackDecoder6decode0B9_
FN:370,_RNCNvMs0_NtCsbyhQloL0DT_15lb_h3_testcodec5qpackNtB7_12QpackDecoder6decodes0_0B9_
FN:331,_RNCNvMs0_NtCsbyhQloL0DT_15lb_h3_testcodec5qpackNtB7_12QpackDecoder6decodes_0B9_
FN:137,_RNCNvNtCsbyhQloL0DT_15lb_h3_testcodec5qpack11find_static0B5_
FN:198,_RNCNvNtCsbyhQloL0DT_15lb_h3_testcodec5qpack14decode_qstring0B5_
FN:391,_RNvXs1_NtCsbyhQloL0DT_15lb_h3_testcodec5qpackNtB5_12QpackDecoderNtNtCs2va5m0jqTTM_4core7default7Default7default
FN:268,_RNvXs_NtCsbyhQloL0DT_15lb_h3_testcodec5qpackNtB4_12QpackEncoderNtNtCs2va5m0jqTTM_4core7default7Default7default
FN:401,_RNvNtNtCsbyhQloL0DT_15lb_h3_testcodec5qpack5testss_21roundtrip_static_only
FN:418,_RNvNtNtCsbyhQloL0DT_15lb_h3_testcodec5qpack5testss_23roundtrip_with_literals
FN:434,_RNvNtNtCsbyhQloL0DT_15lb_h3_testcodec5qpack5testss_32roundtrip_name_ref_value_literal
FN:456,_RNvNtNtCsbyhQloL0DT_15lb_h3_testcodec5qpack5testss_38decode_conformant_literal_literal_name
FN:501,_RNvNtNtCsbyhQloL0DT_15lb_h3_testcodec5qpack5testss_43roundtrip_literal_literal_name_fixed_format
FN:481,_RNvNtNtCsbyhQloL0DT_15lb_h3_testcodec5qpack5testss_47decode_literal_literal_name_length_continuation
FN:211,_RNvMNtCsbyhQloL0DT_15lb_h3_testcodec5qpackNtB2_12QpackEncoder3new
FN:223,_RNvMNtCsbyhQloL0DT_15lb_h3_testcodec5qpackNtB2_12QpackEncoder6encode
FN:282,_RNvMs0_NtCsbyhQloL0DT_15lb_h3_testcodec5qpackNtB5_12QpackDecoder3new
FN:291,_RNvMs0_NtCsbyhQloL0DT_15lb_h3_testcodec5qpackNtB5_12QpackDecoder6decode
FN:161,_RNvNtCsbyhQloL0DT_15lb_h3_testcodec5qpack11decode_qint
FN:142,_RNvNtCsbyhQloL0DT_15lb_h3_testcodec5qpack11encode_qint
FN:125,_RNvNtCsbyhQloL0DT_15lb_h3_testcodec5qpack11find_static
FN:192,_RNvNtCsbyhQloL0DT_15lb_h3_testcodec5qpack14decode_qstring
FN:187,_RNvNtCsbyhQloL0DT_15lb_h3_testcodec5qpack14encode_qstring
FNDA:679,_RNvMNtCs4FJQSvWNnmp_15lb_h3_testcodec5qpackNtB2_12QpackEncoder3new
FNDA:683,_RNvMNtCs4FJQSvWNnmp_15lb_h3_testcodec5qpackNtB2_12QpackEncoder6encode
FNDA:262,_RNvMs0_NtCs4FJQSvWNnmp_15lb_h3_testcodec5qpackNtB5_12QpackDecoder3new
FNDA:264,_RNvMs0_NtCs4FJQSvWNnmp_15lb_h3_testcodec5qpackNtB5_12QpackDecoder6decode
FNDA:4657,_RNvNtCs4FJQSvWNnmp_15lb_h3_testcodec5qpack11decode_qint
FNDA:7098,_RNvNtCs4FJQSvWNnmp_15lb_h3_testcodec5qpack11encode_qint
FNDA:3176,_RNvNtCs4FJQSvWNnmp_15lb_h3_testcodec5qpack11find_static
FNDA:2059,_RNvNtCs4FJQSvWNnmp_15lb_h3_testcodec5qpack14decode_qstring
FNDA:2556,_RNvNtCs4FJQSvWNnmp_15lb_h3_testcodec5qpack14encode_qstring
FNDA:0,_RNvXs1_NtCs4FJQSvWNnmp_15lb_h3_testcodec5qpackNtB5_12QpackDecoderNtNtCs2va5m0jqTTM_4core7default7Default7default
FNDA:0,_RNvXs_NtCs4FJQSvWNnmp_15lb_h3_testcodec5qpackNtB4_12QpackEncoderNtNtCs2va5m0jqTTM_4core7default7Default7default
FNDA:0,_RNCNvMs0_NtCs4FJQSvWNnmp_15lb_h3_testcodec5qpackNtB7_12QpackDecoder6decode0B9_
FNDA:0,_RNCNvMs0_NtCs4FJQSvWNnmp_15lb_h3_testcodec5qpackNtB7_12QpackDecoder6decodes0_0B9_
FNDA:0,_RNCNvMs0_NtCs4FJQSvWNnmp_15lb_h3_testcodec5qpackNtB7_12QpackDecoder6decodes_0B9_
FNDA:476,_RNCNvNtCs4FJQSvWNnmp_15lb_h3_testcodec5qpack11find_static0B5_
FNDA:0,_RNCNvNtCs4FJQSvWNnmp_15lb_h3_testcodec5qpack14decode_qstring0B5_
FNDA:0,_RNCNvMs0_NtCsbyhQloL0DT_15lb_h3_testcodec5qpackNtB7_12QpackDecoder6decode0B9_
FNDA:0,_RNCNvMs0_NtCsbyhQloL0DT_15lb_h3_testcodec5qpackNtB7_12QpackDecoder6decodes0_0B9_
FNDA:0,_RNCNvMs0_NtCsbyhQloL0DT_15lb_h3_testcodec5qpackNtB7_12QpackDecoder6decodes_0B9_
FNDA:1,_RNCNvNtCsbyhQloL0DT_15lb_h3_testcodec5qpack11find_static0B5_
FNDA:0,_RNCNvNtCsbyhQloL0DT_15lb_h3_testcodec5qpack14decode_qstring0B5_
FNDA:0,_RNvXs1_NtCsbyhQloL0DT_15lb_h3_testcodec5qpackNtB5_12QpackDecoderNtNtCs2va5m0jqTTM_4core7default7Default7default
FNDA:0,_RNvXs_NtCsbyhQloL0DT_15lb_h3_testcodec5qpackNtB4_12QpackEncoderNtNtCs2va5m0jqTTM_4core7default7Default7default
FNDA:1,_RNvNtNtCsbyhQloL0DT_15lb_h3_testcodec5qpack5testss_21roundtrip_static_only
FNDA:1,_RNvNtNtCsbyhQloL0DT_15lb_h3_testcodec5qpack5testss_23roundtrip_with_literals
FNDA:1,_RNvNtNtCsbyhQloL0DT_15lb_h3_testcodec5qpack5testss_32roundtrip_name_ref_value_literal
FNDA:1,_RNvNtNtCsbyhQloL0DT_15lb_h3_testcodec5qpack5testss_38decode_conformant_literal_literal_name
FNDA:1,_RNvNtNtCsbyhQloL0DT_15lb_h3_testcodec5qpack5testss_43roundtrip_literal_literal_name_fixed_format
FNDA:1,_RNvNtNtCsbyhQloL0DT_15lb_h3_testcodec5qpack5testss_47decode_literal_literal_name_length_continuation
FNDA:4,_RNvMNtCsbyhQloL0DT_15lb_h3_testcodec5qpackNtB2_12QpackEncoder3new
FNDA:4,_RNvMNtCsbyhQloL0DT_15lb_h3_testcodec5qpackNtB2_12QpackEncoder6encode
FNDA:6,_RNvMs0_NtCsbyhQloL0DT_15lb_h3_testcodec5qpackNtB5_12QpackDecoder3new
FNDA:6,_RNvMs0_NtCsbyhQloL0DT_15lb_h3_testcodec5qpackNtB5_12QpackDecoder6decode
FNDA:31,_RNvNtCsbyhQloL0DT_15lb_h3_testcodec5qpack11decode_qint
FNDA:20,_RNvNtCsbyhQloL0DT_15lb_h3_testcodec5qpack11encode_qint
FNDA:8,_RNvNtCsbyhQloL0DT_15lb_h3_testcodec5qpack11find_static
FNDA:6,_RNvNtCsbyhQloL0DT_15lb_h3_testcodec5qpack14decode_qstring
FNDA:4,_RNvNtCsbyhQloL0DT_15lb_h3_testcodec5qpack14encode_qstring
FNF:22
FNH:16
DA:125,3184
DA:126,3184
DA:127,267892
DA:128,267892
DA:129,2206
DA:130,624
DA:131,1582
DA:132,1582
DA:133,1097
DA:134,1097
DA:135,265686
DA:137,2560
DA:138,3184
DA:142,7118
DA:143,7118
DA:144,7118
DA:145,5363
DA:146,5363
DA:147,5363
DA:149,1755
DA:150,1755
DA:151,1755
DA:152,0
DA:153,0
DA:154,0
DA:155,0
DA:157,1755
DA:159,7118
DA:161,4688
DA:162,4688
DA:163,4688
DA:164,4688
DA:165,4688
DA:166,4688
DA:167,2957
DA:168,1731
DA:169,1731
DA:170,1731
DA:171,1731
DA:173,1731
DA:174,1731
DA:175,1731
DA:176,1731
DA:177,1731
DA:178,1731
DA:179,0
DA:180,0
DA:181,0
DA:182,0
DA:184,1731
DA:185,4688
DA:187,2560
DA:188,2560
DA:189,2560
DA:190,2560
DA:192,2065
DA:193,2065
DA:194,2065
DA:195,2065
DA:196,2065
DA:197,2065
DA:198,2065
DA:199,2065
DA:200,2065
DA:211,683
DA:212,683
DA:213,683
DA:223,687
DA:224,687
DA:225,687
DA:226,687
DA:227,687
DA:228,687
DA:229,687
DA:231,3871
DA:232,3184
DA:233,624
DA:234,624
DA:235,624
DA:236,624
DA:237,477
DA:238,477
DA:239,477
DA:240,477
DA:241,477
DA:242,2083
DA:243,2083
DA:244,2083
DA:245,2083
DA:246,2083
DA:247,2083
DA:248,2083
DA:249,2083
DA:250,2083
DA:251,2083
DA:252,2083
DA:253,2083
DA:254,2083
DA:255,2083
DA:256,2083
DA:257,2083
DA:258,2083
DA:259,2083
DA:263,687
DA:264,687
DA:268,0
DA:269,0
DA:270,0
DA:282,268
DA:283,268
DA:284,268
DA:291,270
DA:292,270
DA:293,270
DA:294,270
DA:296,270
DA:297,0
DA:298,0
DA:299,0
DA:300,270
DA:301,270
DA:302,270
DA:303,270
DA:305,2353
DA:306,2083
DA:308,2083
DA:310,18
DA:311,18
DA:312,18
DA:314,18
DA:315,18
DA:316,18
DA:317,18
DA:318,2065
DA:320,0
DA:321,0
DA:322,0
DA:323,2065
DA:325,6
DA:326,6
DA:327,6
DA:329,6
DA:330,6
DA:331,6
DA:332,6
DA:334,6
DA:335,6
DA:336,6
DA:337,6
DA:338,6
DA:339,2059
DA:341,0
DA:342,0
DA:343,0
DA:344,2059
DA:363,2059
DA:364,2059
DA:365,2059
DA:366,2059
DA:367,2059
DA:368,2059
DA:369,2059
DA:370,2059
DA:371,2059
DA:372,2059
DA:374,2059
DA:375,2059
DA:376,2059
DA:377,2059
DA:378,2059
DA:380,0
DA:381,0
DA:382,0
DA:386,270
DA:387,270
DA:391,0
DA:392,0
DA:393,0
DA:401,1
DA:402,1
DA:403,1
DA:404,1
DA:405,1
DA:406,1
DA:407,1
DA:408,1
DA:409,1
DA:410,1
DA:411,1
DA:412,1
DA:413,1
DA:414,1
DA:415,1
DA:418,1
DA:419,1
DA:420,1
DA:421,1
DA:422,1
DA:423,1
DA:424,1
DA:425,1
DA:426,1
DA:427,1
DA:428,1
DA:429,1
DA:430,1
DA:431,1
DA:434,1
DA:435,1
DA:436,1
DA:437,1
DA:438,1
DA:439,1
DA:440,1
DA:441,1
DA:442,1
DA:443,1
DA:444,1
DA:456,1
DA:457,1
DA:458,1
DA:459,1
DA:460,1
DA:461,1
DA:462,1
DA:463,1
DA:464,1
DA:465,1
DA:466,1
DA:467,1
DA:468,1
DA:469,1
DA:470,1
DA:471,1
DA:472,1
DA:473,1
DA:474,1
DA:475,1
DA:476,1
DA:481,1
DA:482,1
DA:483,1
DA:484,1
DA:485,1
DA:486,1
DA:487,1
DA:488,1
DA:489,1
DA:490,1
DA:491,1
DA:492,1
DA:493,1
DA:494,1
DA:495,1
DA:501,1
DA:502,1
DA:503,1
DA:504,1
DA:505,1
DA:506,1
DA:507,1
DA:508,1
DA:509,1
DA:510,1
DA:511,1
DA:512,1
DA:513,1
DA:514,1
BRF:0
BRH:0
LF:273
LH:243
end_of_record
SF:/home/ubuntu/Code/ExpressGateway/crates/lb-h3-testcodec/src/security.rs
FN:22,_RNvMNtCs4FJQSvWNnmp_15lb_h3_testcodec8securityNtB2_17QpackBombDetector3new
FN:35,_RNvMNtCs4FJQSvWNnmp_15lb_h3_testcodec8securityNtB2_17QpackBombDetector5check
FN:22,_RNvMNtCsbyhQloL0DT_15lb_h3_testcodec8securityNtB2_17QpackBombDetector3new
FN:35,_RNvMNtCsbyhQloL0DT_15lb_h3_testcodec8securityNtB2_17QpackBombDetector5check
FN:85,_RNvNtNtCsbyhQloL0DT_15lb_h3_testcodec8security5testss_12zero_encoded
FN:79,_RNvNtNtCsbyhQloL0DT_15lb_h3_testcodec8security5testss_13size_exceeded
FN:73,_RNvNtNtCsbyhQloL0DT_15lb_h3_testcodec8security5testss_14ratio_exceeded
FN:67,_RNvNtNtCsbyhQloL0DT_15lb_h3_testcodec8security5testss_15normal_input_ok
FNDA:2,_RNvMNtCs4FJQSvWNnmp_15lb_h3_testcodec8securityNtB2_17QpackBombDetector3new
FNDA:9,_RNvMNtCs4FJQSvWNnmp_15lb_h3_testcodec8securityNtB2_17QpackBombDetector5check
FNDA:4,_RNvMNtCsbyhQloL0DT_15lb_h3_testcodec8securityNtB2_17QpackBombDetector3new
FNDA:4,_RNvMNtCsbyhQloL0DT_15lb_h3_testcodec8securityNtB2_17QpackBombDetector5check
FNDA:1,_RNvNtNtCsbyhQloL0DT_15lb_h3_testcodec8security5testss_12zero_encoded
FNDA:1,_RNvNtNtCsbyhQloL0DT_15lb_h3_testcodec8security5testss_13size_exceeded
FNDA:1,_RNvNtNtCsbyhQloL0DT_15lb_h3_testcodec8security5testss_14ratio_exceeded
FNDA:1,_RNvNtNtCsbyhQloL0DT_15lb_h3_testcodec8security5testss_15normal_input_ok
FNF:6
FNH:6
DA:22,6
DA:23,6
DA:24,6
DA:25,6
DA:26,6
DA:27,6
DA:35,13
DA:36,13
DA:37,8
DA:38,6
DA:39,2
DA:41,8
DA:42,8
DA:43,8
DA:44,8
DA:45,8
DA:46,5
DA:48,5
DA:49,5
DA:50,1
DA:51,1
DA:52,1
DA:53,1
DA:54,1
DA:55,4
DA:56,0
DA:58,4
DA:59,13
DA:67,1
DA:68,1
DA:69,1
DA:70,1
DA:73,1
DA:74,1
DA:75,1
DA:76,1
DA:79,1
DA:80,1
DA:81,1
DA:82,1
DA:85,1
DA:86,1
DA:87,1
DA:88,1
BRF:0
BRH:0
LF:44
LH:43
end_of_record
SF:/home/ubuntu/Code/ExpressGateway/crates/lb-h3-testcodec/src/varint.rs
FN:27,_RNvNtCs4FJQSvWNnmp_15lb_h3_testcodec6varint13decode_varint
FN:68,_RNvNtCs4FJQSvWNnmp_15lb_h3_testcodec6varint13encode_varint
FN:27,_RNvNtCsbyhQloL0DT_15lb_h3_testcodec6varint13decode_varint
FN:68,_RNvNtCsbyhQloL0DT_15lb_h3_testcodec6varint13encode_varint
FN:99,_RNvNtNtCsbyhQloL0DT_15lb_h3_testcodec6varint5testss_15roundtrip_small
FN:111,_RNvNtNtCsbyhQloL0DT_15lb_h3_testcodec6varint5testss_18roundtrip_two_byte
FN:123,_RNvNtNtCsbyhQloL0DT_15lb_h3_testcodec6varint5testss_19roundtrip_four_byte
FN:135,_RNvNtNtCsbyhQloL0DT_15lb_h3_testcodec6varint5testss_20roundtrip_eight_byte
FN:147,_RNvNtNtCsbyhQloL0DT_15lb_h3_testcodec6varint5testss_8overflow
FNDA:909117,_RNvNtCs4FJQSvWNnmp_15lb_h3_testcodec6varint13decode_varint
FNDA:6183,_RNvNtCs4FJQSvWNnmp_15lb_h3_testcodec6varint13encode_varint
FNDA:95,_RNvNtCsbyhQloL0DT_15lb_h3_testcodec6varint13decode_varint
FNDA:91,_RNvNtCsbyhQloL0DT_15lb_h3_testcodec6varint13encode_varint
FNDA:1,_RNvNtNtCsbyhQloL0DT_15lb_h3_testcodec6varint5testss_15roundtrip_small
FNDA:1,_RNvNtNtCsbyhQloL0DT_15lb_h3_testcodec6varint5testss_18roundtrip_two_byte
FNDA:1,_RNvNtNtCsbyhQloL0DT_15lb_h3_testcodec6varint5testss_19roundtrip_four_byte
FNDA:1,_RNvNtNtCsbyhQloL0DT_15lb_h3_testcodec6varint5testss_20roundtrip_eight_byte
FNDA:1,_RNvNtNtCsbyhQloL0DT_15lb_h3_testcodec6varint5testss_8overflow
FNF:7
FNH:7
DA:27,909212
DA:28,909212
DA:29,683759
DA:30,683759
DA:31,683759
DA:33,351087
DA:34,351087
DA:37,331474
DA:38,331466
DA:39,331466
DA:42,190
DA:43,187
DA:44,183
DA:45,182
DA:46,182
DA:47,182
DA:48,182
DA:49,182
DA:52,1008
DA:53,8002
DA:54,7013
DA:55,6994
DA:57,989
DA:59,0
DA:61,909212
DA:68,6274
DA:69,6274
DA:70,1
DA:71,6273
DA:72,6273
DA:73,6273
DA:75,3490
DA:76,3490
DA:77,2783
DA:79,89
DA:80,89
DA:81,89
DA:82,2694
DA:84,2435
DA:85,2435
DA:86,2435
DA:88,259
DA:89,259
DA:90,259
DA:92,6274
DA:99,1
DA:100,65
DA:101,64
DA:102,64
DA:103,64
DA:104,64
DA:105,64
DA:106,64
DA:108,1
DA:111,1
DA:112,5
DA:113,4
DA:114,4
DA:115,4
DA:116,4
DA:117,4
DA:118,4
DA:120,1
DA:123,1
DA:124,4
DA:125,3
DA:126,3
DA:127,3
DA:128,3
DA:129,3
DA:130,3
DA:132,1
DA:135,1
DA:136,2
DA:137,2
DA:138,2
DA:139,2
DA:140,2
DA:141,2
DA:142,2
DA:144,1
DA:147,1
DA:148,1
DA:149,1
DA:150,1
BRF:0
BRH:0
LF:85
LH:84
end_of_record
SF:/home/ubuntu/Code/ExpressGateway/crates/lb-health/src/lib.rs
FN:100,_RNvMs_Cs1pplKAGFZc8_9lb_healthNtB4_13HealthChecker14record_failure
FN:91,_RNvMs_Cs1pplKAGFZc8_9lb_healthNtB4_13HealthChecker14record_success
FN:70,_RNvMs_Cs1pplKAGFZc8_9lb_healthNtB4_13HealthChecker3new
FN:110,_RNvMs_Cs1pplKAGFZc8_9lb_healthNtB4_13HealthChecker6status
FN:30,_RNvXCs1pplKAGFZc8_9lb_healthNtB2_12HealthStatusNtNtCs2va5m0jqTTM_4core3fmt7Display3fmt
FN:155,_RNvNtCs7DkFUzdzZNZ_9lb_health5testss_14display_status
FN:120,_RNvNtCs7DkFUzdzZNZ_9lb_health5testss_14starts_unknown
FN:145,_RNvNtCs7DkFUzdzZNZ_9lb_health5testss_28success_resets_failure_count
FN:162,_RNvNtCs7DkFUzdzZNZ_9lb_health5testss_29zero_threshold_clamped_to_one
FN:126,_RNvNtCs7DkFUzdzZNZ_9lb_health5testss_31becomes_healthy_after_threshold
FN:136,_RNvNtCs7DkFUzdzZNZ_9lb_health5testss_33becomes_unhealthy_after_threshold
FN:100,_RNvMs_Cs7DkFUzdzZNZ_9lb_healthNtB4_13HealthChecker14record_failure
FN:91,_RNvMs_Cs7DkFUzdzZNZ_9lb_healthNtB4_13HealthChecker14record_success
FN:70,_RNvMs_Cs7DkFUzdzZNZ_9lb_healthNtB4_13HealthChecker3new
FN:110,_RNvMs_Cs7DkFUzdzZNZ_9lb_healthNtB4_13HealthChecker6status
FN:30,_RNvXCs7DkFUzdzZNZ_9lb_healthNtB2_12HealthStatusNtNtCs2va5m0jqTTM_4core3fmt7Display3fmt
FNDA:0,_RNvMs_Cs1pplKAGFZc8_9lb_healthNtB4_13HealthChecker14record_failure
FNDA:0,_RNvMs_Cs1pplKAGFZc8_9lb_healthNtB4_13HealthChecker14record_success
FNDA:0,_RNvMs_Cs1pplKAGFZc8_9lb_healthNtB4_13HealthChecker3new
FNDA:0,_RNvMs_Cs1pplKAGFZc8_9lb_healthNtB4_13HealthChecker6status
FNDA:0,_RNvXCs1pplKAGFZc8_9lb_healthNtB2_12HealthStatusNtNtCs2va5m0jqTTM_4core3fmt7Display3fmt
FNDA:1,_RNvNtCs7DkFUzdzZNZ_9lb_health5testss_14display_status
FNDA:1,_RNvNtCs7DkFUzdzZNZ_9lb_health5testss_14starts_unknown
FNDA:1,_RNvNtCs7DkFUzdzZNZ_9lb_health5testss_28success_resets_failure_count
FNDA:1,_RNvNtCs7DkFUzdzZNZ_9lb_health5testss_29zero_threshold_clamped_to_one
FNDA:1,_RNvNtCs7DkFUzdzZNZ_9lb_health5testss_31becomes_healthy_after_threshold
FNDA:1,_RNvNtCs7DkFUzdzZNZ_9lb_health5testss_33becomes_unhealthy_after_threshold
FNDA:5,_RNvMs_Cs7DkFUzdzZNZ_9lb_healthNtB4_13HealthChecker14record_failure
FNDA:5,_RNvMs_Cs7DkFUzdzZNZ_9lb_healthNtB4_13HealthChecker14record_success
FNDA:6,_RNvMs_Cs7DkFUzdzZNZ_9lb_healthNtB4_13HealthChecker3new
FNDA:9,_RNvMs_Cs7DkFUzdzZNZ_9lb_healthNtB4_13HealthChecker6status
FNDA:3,_RNvXCs7DkFUzdzZNZ_9lb_healthNtB2_12HealthStatusNtNtCs2va5m0jqTTM_4core3fmt7Display3fmt
FNF:11
FNH:11
DA:30,3
DA:31,3
DA:32,1
DA:33,1
DA:34,1
DA:36,3
DA:70,6
DA:71,6
DA:72,2
DA:74,4
DA:76,6
DA:77,2
DA:79,4
DA:81,6
DA:82,6
DA:83,6
DA:84,6
DA:85,6
DA:86,6
DA:87,6
DA:88,6
DA:91,5
DA:92,5
DA:93,5
DA:94,5
DA:95,2
DA:96,3
DA:97,5
DA:100,5
DA:101,5
DA:102,5
DA:103,5
DA:104,2
DA:105,3
DA:106,5
DA:110,9
DA:111,9
DA:112,9
DA:120,1
DA:121,1
DA:122,1
DA:123,1
DA:126,1
DA:127,1
DA:128,1
DA:129,1
DA:130,1
DA:131,1
DA:132,1
DA:133,1
DA:136,1
DA:137,1
DA:138,1
DA:139,1
DA:140,1
DA:141,1
DA:142,1
DA:145,1
DA:146,1
DA:147,1
DA:148,1
DA:149,1
DA:150,1
DA:151,1
DA:152,1
DA:155,1
DA:156,1
DA:157,1
DA:158,1
DA:159,1
DA:162,1
DA:163,1
DA:164,1
DA:165,1
DA:167,1
DA:168,1
DA:171,1
DA:172,1
DA:173,1
DA:174,1
BRF:0
BRH:0
LF:80
LH:80
end_of_record
SF:/home/ubuntu/Code/ExpressGateway/crates/lb-io/src/dns.rs
FN:143,_RNvMs1_NtCs4GBZUaiPV4D_5lb_io3dnsNtB5_8CacheKey8from_ref
FN:219,_RNvMs4_NtCs4GBZUaiPV4D_5lb_io3dnsNtB5_11DnsResolver10cache_size
FN:311,_RNvMs4_NtCs4GBZUaiPV4D_5lb_io3dnsNtB5_11DnsResolver11materialize
FN:354,_RNvMs4_NtCs4GBZUaiPV4D_5lb_io3dnsNtB5_11DnsResolver11refresh_all
FN:206,_RNvMs4_NtCs4GBZUaiPV4D_5lb_io3dnsNtB5_11DnsResolver13with_resolver
FN:268,_RNvMs4_NtCs4GBZUaiPV4D_5lb_io3dnsNtB5_11DnsResolver15fill_and_return
FN:328,_RNvMs4_NtCs4GBZUaiPV4D_5lb_io3dnsNtB5_11DnsResolver24spawn_background_refresh
FN:193,_RNvMs4_NtCs4GBZUaiPV4D_5lb_io3dnsNtB5_11DnsResolver3new
FN:235,_RNvMs4_NtCs4GBZUaiPV4D_5lb_io3dnsNtB5_11DnsResolver7resolve
FN:118,_RNvMs_NtCs4GBZUaiPV4D_5lb_io3dnsNtB4_10CacheEntry10is_expired
FN:122,_RNvMs_NtCs4GBZUaiPV4D_5lb_io3dnsNtB4_10CacheEntry11set_expires
FN:111,_RNvMs_NtCs4GBZUaiPV4D_5lb_io3dnsNtB4_10CacheEntry3new
FN:367,_RNvNtCs4GBZUaiPV4D_5lb_io3dns13io_err_to_dns
FN:157,_RNvNtCs4GBZUaiPV4D_5lb_io3dns15system_resolver
FN:66,_RNvXNtCs4GBZUaiPV4D_5lb_io3dnsNtB2_14ResolverConfigNtNtCs2va5m0jqTTM_4core7default7Default7default
FN:176,_RNvXs2_NtCs4GBZUaiPV4D_5lb_io3dnsNtB5_11DnsResolverNtNtCs2va5m0jqTTM_4core3fmt5Debug3fmt
FN:185,_RNvXs3_NtCs4GBZUaiPV4D_5lb_io3dnsNtB5_11DnsResolverNtNtCs2va5m0jqTTM_4core7default7Default7default
FN:136,_RINvXs0_NtCs4GBZUaiPV4D_5lb_io3dnsNtB6_8CacheKeyNtNtCs2va5m0jqTTM_4core4hash4Hash4hashNtNtNtCs3kAxCWUtVg2_3std4hash6random13DefaultHasherEB8_
FN:283,_RNCNCNCNCNvMs4_NtCs4GBZUaiPV4D_5lb_io3dnsNtBd_11DnsResolver15fill_and_return0000Bf_
FN:281,_RNCNCNCNvMs4_NtCs4GBZUaiPV4D_5lb_io3dnsNtBb_11DnsResolver15fill_and_return000Bd_
FN:358,_RNCNCNvMs4_NtCs4GBZUaiPV4D_5lb_io3dnsNtB9_11DnsResolver11refresh_all00Bb_
FN:305,_RNCNCNvMs4_NtCs4GBZUaiPV4D_5lb_io3dnsNtB9_11DnsResolver15fill_and_return00Bb_
FN:354,_RNCNvMs4_NtCs4GBZUaiPV4D_5lb_io3dnsNtB7_11DnsResolver11refresh_all0B9_
FN:273,_RNCNvMs4_NtCs4GBZUaiPV4D_5lb_io3dnsNtB7_11DnsResolver15fill_and_return0B9_
FN:337,_RNCNvMs4_NtCs4GBZUaiPV4D_5lb_io3dnsNtB7_11DnsResolver24spawn_background_refresh0B9_
FN:340,_RNCNvMs4_NtCs4GBZUaiPV4D_5lb_io3dnsNtB7_11DnsResolver24spawn_background_refreshs_0B9_
FN:241,_RNCNCNvMs4_NtCs4GBZUaiPV4D_5lb_io3dnsNtB9_11DnsResolver7resolve00Bb_
FN:235,_RNCNvMs4_NtCs4GBZUaiPV4D_5lb_io3dnsNtB7_11DnsResolver7resolve0B9_
FN:241,_RNCNCNvMs4_NtCs4GBZUaiPV4D_5lb_io3dnsNtB9_11DnsResolver7resolve00Csk5eitswWuvC_14expressgateway
FN:235,_RNCNvMs4_NtCs4GBZUaiPV4D_5lb_io3dnsNtB7_11DnsResolver7resolve0Csk5eitswWuvC_14expressgateway
FN:241,_RNCNCNvMs4_NtCs4GBZUaiPV4D_5lb_io3dnsNtB9_11DnsResolver7resolve00Csfji7v5okg5d_14expressgateway
FN:235,_RNCNvMs4_NtCs4GBZUaiPV4D_5lb_io3dnsNtB7_11DnsResolver7resolve0Csfji7v5okg5d_14expressgateway
FN:136,_RINvXs0_NtCs450l62AvZFl_5lb_io3dnsNtB6_8CacheKeyNtNtCs2va5m0jqTTM_4core4hash4Hash4hashNtNtNtCs3kAxCWUtVg2_3std4hash6random13DefaultHasherEB8_
FN:283,_RNCNCNCNCNvMs4_NtCs450l62AvZFl_5lb_io3dnsNtBd_11DnsResolver15fill_and_return0000Bf_
FN:281,_RNCNCNCNvMs4_NtCs450l62AvZFl_5lb_io3dnsNtBb_11DnsResolver15fill_and_return000Bd_
FN:358,_RNCNCNvMs4_NtCs450l62AvZFl_5lb_io3dnsNtB9_11DnsResolver11refresh_all00Bb_
FN:305,_RNCNCNvMs4_NtCs450l62AvZFl_5lb_io3dnsNtB9_11DnsResolver15fill_and_return00Bb_
FN:241,_RNCNCNvMs4_NtCs450l62AvZFl_5lb_io3dnsNtB9_11DnsResolver7resolve00Bb_
FN:354,_RNCNvMs4_NtCs450l62AvZFl_5lb_io3dnsNtB7_11DnsResolver11refresh_all0B9_
FN:273,_RNCNvMs4_NtCs450l62AvZFl_5lb_io3dnsNtB7_11DnsResolver15fill_and_return0B9_
FN:235,_RNCNvMs4_NtCs450l62AvZFl_5lb_io3dnsNtB7_11DnsResolver7resolve0B9_
FN:450,_RNCNCNvNtNtCs450l62AvZFl_5lb_io3dns5testss_30negative_entry_caches_nxdomain00B9_
FN:488,_RNCNCNvNtNtCs450l62AvZFl_5lb_io3dns5testss_32concurrent_resolvers_share_cache00B9_
FN:500,_RNCNCNvNtNtCs450l62AvZFl_5lb_io3dns5testss_32concurrent_resolvers_share_cache0s_0B9_
FN:395,_RNCNvNtNtCs450l62AvZFl_5lb_io3dns5tests17counting_resolver0B7_
FN:515,_RNCNvNtNtCs450l62AvZFl_5lb_io3dns5testss_25cache_size_tracks_entries0B7_
FN:423,_RNCNvNtNtCs450l62AvZFl_5lb_io3dns5testss_29positive_entry_expires_at_cap0B7_
FN:445,_RNCNvNtNtCs450l62AvZFl_5lb_io3dns5testss_30negative_entry_caches_nxdomain0B7_
FN:525,_RNCNvNtNtCs450l62AvZFl_5lb_io3dns5testss_30refresh_all_re_queries_entries0B7_
FN:482,_RNCNvNtNtCs450l62AvZFl_5lb_io3dns5testss_32concurrent_resolvers_share_cache0B7_
FN:406,_RNCNvNtNtCs450l62AvZFl_5lb_io3dns5testss_40cache_hit_returns_same_result_before_ttl0B7_
FN:337,_RNCNvMs4_NtCs450l62AvZFl_5lb_io3dnsNtB7_11DnsResolver24spawn_background_refresh0B9_
FN:340,_RNCNvMs4_NtCs450l62AvZFl_5lb_io3dnsNtB7_11DnsResolver24spawn_background_refreshs_0B9_
FN:328,_RNvMs4_NtCs450l62AvZFl_5lb_io3dnsNtB5_11DnsResolver24spawn_background_refresh
FN:193,_RNvMs4_NtCs450l62AvZFl_5lb_io3dnsNtB5_11DnsResolver3new
FN:157,_RNvNtCs450l62AvZFl_5lb_io3dns15system_resolver
FN:176,_RNvXs2_NtCs450l62AvZFl_5lb_io3dnsNtB5_11DnsResolverNtNtCs2va5m0jqTTM_4core3fmt5Debug3fmt
FN:185,_RNvXs3_NtCs450l62AvZFl_5lb_io3dnsNtB5_11DnsResolverNtNtCs2va5m0jqTTM_4core7default7Default7default
FN:394,_RNvNtNtCs450l62AvZFl_5lb_io3dns5tests17counting_resolver
FN:401,_RNvNtNtCs450l62AvZFl_5lb_io3dns5tests4addr
FN:547,_RNvNtNtCs450l62AvZFl_5lb_io3dns5testss_24resolver_config_defaults
FN:515,_RNvNtNtCs450l62AvZFl_5lb_io3dns5testss_25cache_size_tracks_entries
FN:423,_RNvNtNtCs450l62AvZFl_5lb_io3dns5testss_29positive_entry_expires_at_cap
FN:445,_RNvNtNtCs450l62AvZFl_5lb_io3dns5testss_30negative_entry_caches_nxdomain
FN:525,_RNvNtNtCs450l62AvZFl_5lb_io3dns5testss_30refresh_all_re_queries_entries
FN:482,_RNvNtNtCs450l62AvZFl_5lb_io3dns5testss_32concurrent_resolvers_share_cache
FN:406,_RNvNtNtCs450l62AvZFl_5lb_io3dns5testss_40cache_hit_returns_same_result_before_ttl
FN:537,_RNvNtNtCs450l62AvZFl_5lb_io3dns5testss_46io_err_mapped_to_nxdomain_for_getaddrinfo_text
FN:143,_RNvMs1_NtCs450l62AvZFl_5lb_io3dnsNtB5_8CacheKey8from_ref
FN:219,_RNvMs4_NtCs450l62AvZFl_5lb_io3dnsNtB5_11DnsResolver10cache_size
FN:311,_RNvMs4_NtCs450l62AvZFl_5lb_io3dnsNtB5_11DnsResolver11materialize
FN:354,_RNvMs4_NtCs450l62AvZFl_5lb_io3dnsNtB5_11DnsResolver11refresh_all
FN:206,_RNvMs4_NtCs450l62AvZFl_5lb_io3dnsNtB5_11DnsResolver13with_resolver
FN:268,_RNvMs4_NtCs450l62AvZFl_5lb_io3dnsNtB5_11DnsResolver15fill_and_return
FN:235,_RNvMs4_NtCs450l62AvZFl_5lb_io3dnsNtB5_11DnsResolver7resolve
FN:118,_RNvMs_NtCs450l62AvZFl_5lb_io3dnsNtB4_10CacheEntry10is_expired
FN:122,_RNvMs_NtCs450l62AvZFl_5lb_io3dnsNtB4_10CacheEntry11set_expires
FN:111,_RNvMs_NtCs450l62AvZFl_5lb_io3dnsNtB4_10CacheEntry3new
FN:367,_RNvNtCs450l62AvZFl_5lb_io3dns13io_err_to_dns
FN:66,_RNvXNtCs450l62AvZFl_5lb_io3dnsNtB2_14ResolverConfigNtNtCs2va5m0jqTTM_4core7default7Default7default
FNDA:4,_RNvMs1_NtCs4GBZUaiPV4D_5lb_io3dnsNtB5_8CacheKey8from_ref
FNDA:8,_RNvMs4_NtCs4GBZUaiPV4D_5lb_io3dnsNtB5_11DnsResolver10cache_size
FNDA:4,_RNvMs4_NtCs4GBZUaiPV4D_5lb_io3dnsNtB5_11DnsResolver11materialize
FNDA:0,_RNvMs4_NtCs4GBZUaiPV4D_5lb_io3dnsNtB5_11DnsResolver11refresh_all
FNDA:0,_RNvMs4_NtCs4GBZUaiPV4D_5lb_io3dnsNtB5_11DnsResolver13with_resolver
FNDA:4,_RNvMs4_NtCs4GBZUaiPV4D_5lb_io3dnsNtB5_11DnsResolver15fill_and_return
FNDA:0,_RNvMs4_NtCs4GBZUaiPV4D_5lb_io3dnsNtB5_11DnsResolver24spawn_background_refresh
FNDA:5,_RNvMs4_NtCs4GBZUaiPV4D_5lb_io3dnsNtB5_11DnsResolver3new
FNDA:4,_RNvMs4_NtCs4GBZUaiPV4D_5lb_io3dnsNtB5_11DnsResolver7resolve
FNDA:0,_RNvMs_NtCs4GBZUaiPV4D_5lb_io3dnsNtB4_10CacheEntry10is_expired
FNDA:4,_RNvMs_NtCs4GBZUaiPV4D_5lb_io3dnsNtB4_10CacheEntry11set_expires
FNDA:4,_RNvMs_NtCs4GBZUaiPV4D_5lb_io3dnsNtB4_10CacheEntry3new
FNDA:0,_RNvNtCs4GBZUaiPV4D_5lb_io3dns13io_err_to_dns
FNDA:4,_RNvNtCs4GBZUaiPV4D_5lb_io3dns15system_resolver
FNDA:5,_RNvXNtCs4GBZUaiPV4D_5lb_io3dnsNtB2_14ResolverConfigNtNtCs2va5m0jqTTM_4core7default7Default7default
FNDA:0,_RNvXs2_NtCs4GBZUaiPV4D_5lb_io3dnsNtB5_11DnsResolverNtNtCs2va5m0jqTTM_4core3fmt5Debug3fmt
FNDA:0,_RNvXs3_NtCs4GBZUaiPV4D_5lb_io3dnsNtB5_11DnsResolverNtNtCs2va5m0jqTTM_4core7default7Default7default
FNDA:4,_RINvXs0_NtCs4GBZUaiPV4D_5lb_io3dnsNtB6_8CacheKeyNtNtCs2va5m0jqTTM_4core4hash4Hash4hashNtNtNtCs3kAxCWUtVg2_3std4hash6random13DefaultHasherEB8_
FNDA:4,_RNCNCNCNCNvMs4_NtCs4GBZUaiPV4D_5lb_io3dnsNtBd_11DnsResolver15fill_and_return0000Bf_
FNDA:4,_RNCNCNCNvMs4_NtCs4GBZUaiPV4D_5lb_io3dnsNtBb_11DnsResolver15fill_and_return000Bd_
FNDA:0,_RNCNCNvMs4_NtCs4GBZUaiPV4D_5lb_io3dnsNtB9_11DnsResolver11refresh_all00Bb_
FNDA:4,_RNCNCNvMs4_NtCs4GBZUaiPV4D_5lb_io3dnsNtB9_11DnsResolver15fill_and_return00Bb_
FNDA:0,_RNCNvMs4_NtCs4GBZUaiPV4D_5lb_io3dnsNtB7_11DnsResolver11refresh_all0B9_
FNDA:4,_RNCNvMs4_NtCs4GBZUaiPV4D_5lb_io3dnsNtB7_11DnsResolver15fill_and_return0B9_
FNDA:0,_RNCNvMs4_NtCs4GBZUaiPV4D_5lb_io3dnsNtB7_11DnsResolver24spawn_background_refresh0B9_
FNDA:0,_RNCNvMs4_NtCs4GBZUaiPV4D_5lb_io3dnsNtB7_11DnsResolver24spawn_background_refreshs_0B9_
FNDA:0,_RNCNCNvMs4_NtCs4GBZUaiPV4D_5lb_io3dnsNtB9_11DnsResolver7resolve00Bb_
FNDA:0,_RNCNvMs4_NtCs4GBZUaiPV4D_5lb_io3dnsNtB7_11DnsResolver7resolve0B9_
FNDA:4,_RNCNCNvMs4_NtCs4GBZUaiPV4D_5lb_io3dnsNtB9_11DnsResolver7resolve00Csk5eitswWuvC_14expressgateway
FNDA:4,_RNCNvMs4_NtCs4GBZUaiPV4D_5lb_io3dnsNtB7_11DnsResolver7resolve0Csk5eitswWuvC_14expressgateway
FNDA:0,_RNCNCNvMs4_NtCs4GBZUaiPV4D_5lb_io3dnsNtB9_11DnsResolver7resolve00Csfji7v5okg5d_14expressgateway
FNDA:0,_RNCNvMs4_NtCs4GBZUaiPV4D_5lb_io3dnsNtB7_11DnsResolver7resolve0Csfji7v5okg5d_14expressgateway
FNDA:29,_RINvXs0_NtCs450l62AvZFl_5lb_io3dnsNtB6_8CacheKeyNtNtCs2va5m0jqTTM_4core4hash4Hash4hashNtNtNtCs3kAxCWUtVg2_3std4hash6random13DefaultHasherEB8_
FNDA:10,_RNCNCNCNCNvMs4_NtCs450l62AvZFl_5lb_io3dnsNtBd_11DnsResolver15fill_and_return0000Bf_
FNDA:10,_RNCNCNCNvMs4_NtCs450l62AvZFl_5lb_io3dnsNtBb_11DnsResolver15fill_and_return000Bd_
FNDA:1,_RNCNCNvMs4_NtCs450l62AvZFl_5lb_io3dnsNtB9_11DnsResolver11refresh_all00Bb_
FNDA:10,_RNCNCNvMs4_NtCs450l62AvZFl_5lb_io3dnsNtB9_11DnsResolver15fill_and_return00Bb_
FNDA:7,_RNCNCNvMs4_NtCs450l62AvZFl_5lb_io3dnsNtB9_11DnsResolver7resolve00Bb_
FNDA:1,_RNCNvMs4_NtCs450l62AvZFl_5lb_io3dnsNtB7_11DnsResolver11refresh_all0B9_
FNDA:25,_RNCNvMs4_NtCs450l62AvZFl_5lb_io3dnsNtB7_11DnsResolver15fill_and_return0B9_
FNDA:26,_RNCNvMs4_NtCs450l62AvZFl_5lb_io3dnsNtB7_11DnsResolver7resolve0B9_
FNDA:2,_RNCNCNvNtNtCs450l62AvZFl_5lb_io3dns5testss_30negative_entry_caches_nxdomain00B9_
FNDA:1,_RNCNCNvNtNtCs450l62AvZFl_5lb_io3dns5testss_32concurrent_resolvers_share_cache00B9_
FNDA:16,_RNCNCNvNtNtCs450l62AvZFl_5lb_io3dns5testss_32concurrent_resolvers_share_cache0s_0B9_
FNDA:7,_RNCNvNtNtCs450l62AvZFl_5lb_io3dns5tests17counting_resolver0B7_
FNDA:1,_RNCNvNtNtCs450l62AvZFl_5lb_io3dns5testss_25cache_size_tracks_entries0B7_
FNDA:1,_RNCNvNtNtCs450l62AvZFl_5lb_io3dns5testss_29positive_entry_expires_at_cap0B7_
FNDA:1,_RNCNvNtNtCs450l62AvZFl_5lb_io3dns5testss_30negative_entry_caches_nxdomain0B7_
FNDA:1,_RNCNvNtNtCs450l62AvZFl_5lb_io3dns5testss_30refresh_all_re_queries_entries0B7_
FNDA:1,_RNCNvNtNtCs450l62AvZFl_5lb_io3dns5testss_32concurrent_resolvers_share_cache0B7_
FNDA:1,_RNCNvNtNtCs450l62AvZFl_5lb_io3dns5testss_40cache_hit_returns_same_result_before_ttl0B7_
FNDA:0,_RNCNvMs4_NtCs450l62AvZFl_5lb_io3dnsNtB7_11DnsResolver24spawn_background_refresh0B9_
FNDA:0,_RNCNvMs4_NtCs450l62AvZFl_5lb_io3dnsNtB7_11DnsResolver24spawn_background_refreshs_0B9_
FNDA:0,_RNvMs4_NtCs450l62AvZFl_5lb_io3dnsNtB5_11DnsResolver24spawn_background_refresh
FNDA:0,_RNvMs4_NtCs450l62AvZFl_5lb_io3dnsNtB5_11DnsResolver3new
FNDA:0,_RNvNtCs450l62AvZFl_5lb_io3dns15system_resolver
FNDA:0,_RNvXs2_NtCs450l62AvZFl_5lb_io3dnsNtB5_11DnsResolverNtNtCs2va5m0jqTTM_4core3fmt5Debug3fmt
FNDA:0,_RNvXs3_NtCs450l62AvZFl_5lb_io3dnsNtB5_11DnsResolverNtNtCs2va5m0jqTTM_4core7default7Default7default
FNDA:4,_RNvNtNtCs450l62AvZFl_5lb_io3dns5tests17counting_resolver
FNDA:22,_RNvNtNtCs450l62AvZFl_5lb_io3dns5tests4addr
FNDA:1,_RNvNtNtCs450l62AvZFl_5lb_io3dns5testss_24resolver_config_defaults
FNDA:1,_RNvNtNtCs450l62AvZFl_5lb_io3dns5testss_25cache_size_tracks_entries
FNDA:1,_RNvNtNtCs450l62AvZFl_5lb_io3dns5testss_29positive_entry_expires_at_cap
FNDA:1,_RNvNtNtCs450l62AvZFl_5lb_io3dns5testss_30negative_entry_caches_nxdomain
FNDA:1,_RNvNtNtCs450l62AvZFl_5lb_io3dns5testss_30refresh_all_re_queries_entries
FNDA:1,_RNvNtNtCs450l62AvZFl_5lb_io3dns5testss_32concurrent_resolvers_share_cache
FNDA:1,_RNvNtNtCs450l62AvZFl_5lb_io3dns5testss_40cache_hit_returns_same_result_before_ttl
FNDA:1,_RNvNtNtCs450l62AvZFl_5lb_io3dns5testss_46io_err_mapped_to_nxdomain_for_getaddrinfo_text
FNDA:26,_RNvMs1_NtCs450l62AvZFl_5lb_io3dnsNtB5_8CacheKey8from_ref
FNDA:1,_RNvMs4_NtCs450l62AvZFl_5lb_io3dnsNtB5_11DnsResolver10cache_size
FNDA:27,_RNvMs4_NtCs450l62AvZFl_5lb_io3dnsNtB5_11DnsResolver11materialize
FNDA:1,_RNvMs4_NtCs450l62AvZFl_5lb_io3dnsNtB5_11DnsResolver11refresh_all
FNDA:6,_RNvMs4_NtCs450l62AvZFl_5lb_io3dnsNtB5_11DnsResolver13with_resolver
FNDA:25,_RNvMs4_NtCs450l62AvZFl_5lb_io3dnsNtB5_11DnsResolver15fill_and_return
FNDA:26,_RNvMs4_NtCs450l62AvZFl_5lb_io3dnsNtB5_11DnsResolver7resolve
FNDA:6,_RNvMs_NtCs450l62AvZFl_5lb_io3dnsNtB4_10CacheEntry10is_expired
FNDA:10,_RNvMs_NtCs450l62AvZFl_5lb_io3dnsNtB4_10CacheEntry11set_expires
FNDA:10,_RNvMs_NtCs450l62AvZFl_5lb_io3dnsNtB4_10CacheEntry3new
FNDA:1,_RNvNtCs450l62AvZFl_5lb_io3dns13io_err_to_dns
FNDA:5,_RNvXNtCs450l62AvZFl_5lb_io3dnsNtB2_14ResolverConfigNtNtCs2va5m0jqTTM_4core7default7Default7default
FNF:48
FNH:43
DA:66,10
DA:67,10
DA:68,10
DA:69,10
DA:70,10
DA:71,10
DA:72,10
DA:111,14
DA:112,14
DA:113,14
DA:114,14
DA:115,14
DA:116,14
DA:118,6
DA:119,6
DA:120,6
DA:122,14
DA:123,14
DA:124,14
DA:136,33
DA:137,33
DA:138,33
DA:139,33
DA:143,30
DA:144,30
DA:145,30
DA:146,30
DA:147,30
DA:148,30
DA:157,4
DA:158,4
DA:159,4
DA:160,4
DA:176,0
DA:177,0
DA:178,0
DA:179,0
DA:180,0
DA:181,0
DA:185,0
DA:186,0
DA:187,0
DA:193,5
DA:194,5
DA:195,5
DA:196,5
DA:197,5
DA:198,5
DA:199,5
DA:200,5
DA:201,5
DA:202,5
DA:206,6
DA:207,6
DA:208,6
DA:209,6
DA:210,6
DA:211,6
DA:212,6
DA:213,6
DA:214,6
DA:215,6
DA:219,9
DA:220,9
DA:221,9
DA:235,30
DA:236,30
DA:237,30
DA:238,30
DA:239,30
DA:240,30
DA:241,30
DA:242,30
DA:243,30
DA:244,30
DA:245,30
DA:246,2
DA:247,28
DA:248,28
DA:249,28
DA:250,28
DA:251,28
DA:252,28
DA:253,28
DA:254,28
DA:260,2
DA:261,2
DA:262,2
DA:263,26
DA:264,26
DA:265,26
DA:266,30
DA:268,29
DA:269,29
DA:270,29
DA:271,29
DA:272,29
DA:273,29
DA:274,29
DA:275,29
DA:276,29
DA:277,29
DA:279,29
DA:280,29
DA:281,29
DA:282,14
DA:283,14
DA:285,14
DA:286,0
DA:287,0
DA:288,0
DA:289,0
DA:290,0
DA:291,14
DA:292,2
DA:293,2
DA:294,2
DA:296,12
DA:299,14
DA:300,12
DA:301,2
DA:303,14
DA:304,14
DA:305,29
DA:306,29
DA:308,29
DA:309,29
DA:311,31
DA:312,31
DA:313,28
DA:314,3
DA:315,0
DA:316,0
DA:317,0
DA:318,0
DA:320,31
DA:328,0
DA:329,0
DA:330,0
DA:331,0
DA:332,0
DA:333,0
DA:334,0
DA:335,0
DA:337,0
DA:338,0
DA:339,0
DA:340,0
DA:341,0
DA:342,0
DA:343,0
DA:344,0
DA:346,0
DA:347,0
DA:349,0
DA:350,0
DA:354,1
DA:355,1
DA:356,1
DA:357,1
DA:358,1
DA:359,2
DA:360,1
DA:361,1
DA:362,1
DA:364,1
DA:367,1
DA:368,1
DA:369,1
DA:370,1
DA:371,1
DA:372,1
DA:373,0
DA:374,0
DA:375,1
DA:376,1
DA:377,1
DA:378,1
DA:380,0
DA:381,0
DA:382,0
DA:383,0
DA:385,1
DA:394,4
DA:395,7
DA:396,7
DA:397,7
DA:398,7
DA:399,4
DA:401,22
DA:402,22
DA:403,22
DA:406,1
DA:407,1
DA:408,1
DA:409,1
DA:410,1
DA:411,1
DA:412,1
DA:413,1
DA:414,1
DA:415,1
DA:416,1
DA:417,1
DA:418,1
DA:419,1
DA:420,1
DA:423,1
DA:424,1
DA:425,1
DA:426,1
DA:427,1
DA:428,1
DA:429,1
DA:430,1
DA:431,1
DA:432,1
DA:433,1
DA:434,1
DA:435,1
DA:436,1
DA:437,1
DA:438,1
DA:439,1
DA:440,1
DA:441,1
DA:442,1
DA:445,1
DA:446,1
DA:447,1
DA:448,1
DA:449,1
DA:450,2
DA:451,2
DA:452,2
DA:453,2
DA:454,1
DA:455,1
DA:456,1
DA:457,1
DA:458,1
DA:459,1
DA:460,1
DA:461,1
DA:462,1
DA:463,1
DA:464,1
DA:465,1
DA:466,1
DA:467,1
DA:468,1
DA:469,1
DA:470,1
DA:471,1
DA:472,1
DA:473,1
DA:474,1
DA:475,1
DA:476,1
DA:477,1
DA:478,1
DA:479,1
DA:482,1
DA:483,1
DA:484,1
DA:485,1
DA:486,1
DA:487,1
DA:488,1
DA:489,1
DA:490,1
DA:491,1
DA:492,1
DA:493,1
DA:494,1
DA:495,1
DA:496,1
DA:497,17
DA:498,16
DA:499,16
DA:500,16
DA:501,16
DA:502,16
DA:503,17
DA:504,16
DA:505,16
DA:506,1
DA:507,1
DA:508,1
DA:509,1
DA:510,1
DA:511,1
DA:512,1
DA:515,1
DA:516,1
DA:517,1
DA:518,1
DA:519,1
DA:520,1
DA:521,1
DA:522,1
DA:525,1
DA:526,1
DA:527,1
DA:528,1
DA:529,1
DA:530,1
DA:531,1
DA:532,1
DA:533,1
DA:534,1
DA:537,1
DA:538,1
DA:539,1
DA:540,1
DA:541,1
DA:544,1
DA:547,1
DA:548,1
DA:549,1
DA:550,1
DA:551,1
DA:552,1
BRF:0
BRH:0
LF:440
LH:389
end_of_record
SF:/home/ubuntu/Code/ExpressGateway/crates/lb-io/src/http2_pool.rs
FN:305,_RNCNvMs2_NtCs4GBZUaiPV4D_5lb_io10http2_poolNtB7_9Http2Pool17send_request_idle0Cs6ZJAmc5l35e_5lb_l7
FN:423,_RNCNCNvMs2_NtCs4GBZUaiPV4D_5lb_io10http2_poolNtB9_9Http2Pool18dial_and_handshake00CsbRY1QtCoCCH_7lb_quic
FN:441,_RNCNCNvMs2_NtCs4GBZUaiPV4D_5lb_io10http2_poolNtB9_9Http2Pool18dial_and_handshake0s0_0CsbRY1QtCoCCH_7lb_quic
FN:439,_RNCNCNvMs2_NtCs4GBZUaiPV4D_5lb_io10http2_poolNtB9_9Http2Pool18dial_and_handshake0s_0CsbRY1QtCoCCH_7lb_quic
FN:232,_RNCNvMs2_NtCs4GBZUaiPV4D_5lb_io10http2_poolNtB7_9Http2Pool12send_request0CsbRY1QtCoCCH_7lb_quic
FN:347,_RNCNvMs2_NtCs4GBZUaiPV4D_5lb_io10http2_poolNtB7_9Http2Pool14acquire_sender0CsbRY1QtCoCCH_7lb_quic
FN:416,_RNCNvMs2_NtCs4GBZUaiPV4D_5lb_io10http2_poolNtB7_9Http2Pool18dial_and_handshake0CsbRY1QtCoCCH_7lb_quic
FN:197,_RNvMs2_NtCs4GBZUaiPV4D_5lb_io10http2_poolNtB5_9Http2Pool10peer_count
FN:406,_RNvMs2_NtCs4GBZUaiPV4D_5lb_io10http2_poolNtB5_9Http2Pool10reset_peer
FN:228,_RNvMs2_NtCs4GBZUaiPV4D_5lb_io10http2_poolNtB5_9Http2Pool12send_request
FN:372,_RNvMs2_NtCs4GBZUaiPV4D_5lb_io10http2_poolNtB5_9Http2Pool13replace_entry
FN:344,_RNvMs2_NtCs4GBZUaiPV4D_5lb_io10http2_poolNtB5_9Http2Pool14acquire_sender
FN:296,_RNvMs2_NtCs4GBZUaiPV4D_5lb_io10http2_poolNtB5_9Http2Pool17send_request_idle
FN:360,_RNvMs2_NtCs4GBZUaiPV4D_5lb_io10http2_poolNtB5_9Http2Pool17take_alive_sender
FN:413,_RNvMs2_NtCs4GBZUaiPV4D_5lb_io10http2_poolNtB5_9Http2Pool18dial_and_handshake
FN:185,_RNvMs2_NtCs4GBZUaiPV4D_5lb_io10http2_poolNtB5_9Http2Pool3new
FN:377,_RNvMs2_NtCs4GBZUaiPV4D_5lb_io10http2_poolNtB5_9Http2Pool5evict
FN:128,_RNvMs_NtCs4GBZUaiPV4D_5lb_io10http2_poolNtB4_9PeerEntry8is_alive
FN:456,_RNvNtCs4GBZUaiPV4D_5lb_io10http2_pool20collect_body_bounded
FN:110,_RNvXNtCs4GBZUaiPV4D_5lb_io10http2_poolNtB2_15Http2PoolConfigNtNtCs2va5m0jqTTM_4core7default7Default7default
FN:172,_RNvXs1_NtCs4GBZUaiPV4D_5lb_io10http2_poolNtB5_9Http2PoolNtNtCs2va5m0jqTTM_4core3fmt5Debug3fmt
FN:134,_RNvXs0_NtCs4GBZUaiPV4D_5lb_io10http2_poolNtB5_9PeerEntryNtNtNtCs2va5m0jqTTM_4core3ops4drop4Drop4drop
FN:423,_RNCNCNvMs2_NtCs4GBZUaiPV4D_5lb_io10http2_poolNtB9_9Http2Pool18dial_and_handshake00Bb_
FN:441,_RNCNCNvMs2_NtCs4GBZUaiPV4D_5lb_io10http2_poolNtB9_9Http2Pool18dial_and_handshake0s0_0Bb_
FN:439,_RNCNCNvMs2_NtCs4GBZUaiPV4D_5lb_io10http2_poolNtB9_9Http2Pool18dial_and_handshake0s_0Bb_
FN:460,_RNCNCNvNtCs4GBZUaiPV4D_5lb_io10http2_pool20collect_body_bounded00B7_
FN:232,_RNCNvMs2_NtCs4GBZUaiPV4D_5lb_io10http2_poolNtB7_9Http2Pool12send_request0B9_
FN:347,_RNCNvMs2_NtCs4GBZUaiPV4D_5lb_io10http2_poolNtB7_9Http2Pool14acquire_sender0B9_
FN:305,_RNCNvMs2_NtCs4GBZUaiPV4D_5lb_io10http2_poolNtB7_9Http2Pool17send_request_idle0B9_
FN:416,_RNCNvMs2_NtCs4GBZUaiPV4D_5lb_io10http2_poolNtB7_9Http2Pool18dial_and_handshake0B9_
FN:456,_RNCNvNtCs4GBZUaiPV4D_5lb_io10http2_pool20collect_body_bounded0B5_
FN:568,_RINvNtNtCs450l62AvZFl_5lb_io10http2_pool5tests16spawn_h2_backendNCNCNvB2_s_29send_request_idle_success_arm00NCNCB12_00EB6_
FN:568,_RINvNtNtCs450l62AvZFl_5lb_io10http2_pool5tests16spawn_h2_backendNCNCNvB2_s_34send_request_idle_head_timeout_arm00NCNCB12_00EB6_
FN:568,_RINvNtNtCs450l62AvZFl_5lb_io10http2_pool5tests16spawn_h2_backendNCNCNvB2_s_34send_request_idle_idle_timeout_arm00NCNCB12_00EB6_
FN:575,_RNCINvNtNtCs450l62AvZFl_5lb_io10http2_pool5tests16spawn_h2_backendNCNCNvB4_s_29send_request_idle_success_arm00NCNCB14_00E0B8_
FN:575,_RNCINvNtNtCs450l62AvZFl_5lb_io10http2_pool5tests16spawn_h2_backendNCNCNvB4_s_34send_request_idle_head_timeout_arm00NCNCB14_00E0B8_
FN:575,_RNCINvNtNtCs450l62AvZFl_5lb_io10http2_pool5tests16spawn_h2_backendNCNCNvB4_s_34send_request_idle_idle_timeout_arm00NCNCB14_00E0B8_
FN:582,_RNCNCINvNtNtCs450l62AvZFl_5lb_io10http2_pool5tests16spawn_h2_backendNCNCNvB6_s_29send_request_idle_success_arm00NCNCB16_00E00Ba_
FN:582,_RNCNCINvNtNtCs450l62AvZFl_5lb_io10http2_pool5tests16spawn_h2_backendNCNCNvB6_s_34send_request_idle_head_timeout_arm00NCNCB16_00E00Ba_
FN:582,_RNCNCINvNtNtCs450l62AvZFl_5lb_io10http2_pool5tests16spawn_h2_backendNCNCNvB6_s_34send_request_idle_idle_timeout_arm00NCNCB16_00E00Ba_
FN:588,_RNCNCNCINvNtNtCs450l62AvZFl_5lb_io10http2_pool5tests16spawn_h2_backendNCNCNvB8_s_29send_request_idle_success_arm00NCNCB18_00E000Bc_
FN:588,_RNCNCNCINvNtNtCs450l62AvZFl_5lb_io10http2_pool5tests16spawn_h2_backendNCNCNvB8_s_34send_request_idle_head_timeout_arm00NCNCB18_00E000Bc_
FN:588,_RNCNCNCINvNtNtCs450l62AvZFl_5lb_io10http2_pool5tests16spawn_h2_backendNCNCNvB8_s_34send_request_idle_idle_timeout_arm00NCNCB18_00E000Bc_
FN:592,_RNCNCNCNCINvNtNtCs450l62AvZFl_5lb_io10http2_pool5tests16spawn_h2_backendNCNCNvBa_s_29send_request_idle_success_arm00NCNCB1a_00E0000Be_
FN:592,_RNCNCNCNCINvNtNtCs450l62AvZFl_5lb_io10http2_pool5tests16spawn_h2_backendNCNCNvBa_s_34send_request_idle_head_timeout_arm00NCNCB1a_00E0000Be_
FN:592,_RNCNCNCNCINvNtNtCs450l62AvZFl_5lb_io10http2_pool5tests16spawn_h2_backendNCNCNvBa_s_34send_request_idle_idle_timeout_arm00NCNCB1a_00E0000Be_
FN:594,_RNCNCNCNCNCINvNtNtCs450l62AvZFl_5lb_io10http2_pool5tests16spawn_h2_backendNCNCNvBc_s_29send_request_idle_success_arm00NCNCB1c_00E00000Bg_
FN:594,_RNCNCNCNCNCINvNtNtCs450l62AvZFl_5lb_io10http2_pool5tests16spawn_h2_backendNCNCNvBc_s_34send_request_idle_head_timeout_arm00NCNCB1c_00E00000Bg_
FN:594,_RNCNCNCNCNCINvNtNtCs450l62AvZFl_5lb_io10http2_pool5tests16spawn_h2_backendNCNCNvBc_s_34send_request_idle_idle_timeout_arm00NCNCB1c_00E00000Bg_
FN:640,_RNCNCNCNvNtNtCs450l62AvZFl_5lb_io10http2_pool5testss_29send_request_idle_success_arm000Bb_
FN:674,_RNCNCNCNvNtNtCs450l62AvZFl_5lb_io10http2_pool5testss_34send_request_idle_head_timeout_arm000Bb_
FN:712,_RNCNCNCNvNtNtCs450l62AvZFl_5lb_io10http2_pool5testss_34send_request_idle_idle_timeout_arm000Bb_
FN:647,_RNCNCNvNtNtCs450l62AvZFl_5lb_io10http2_pool5testss_29send_request_idle_success_arm00B9_
FN:534,_RNCNCNvNtNtCs450l62AvZFl_5lb_io10http2_pool5testss_33send_request_idle_dial_fail_smoke00B9_
FN:679,_RNCNCNvNtNtCs450l62AvZFl_5lb_io10http2_pool5testss_34send_request_idle_head_timeout_arm00B9_
FN:715,_RNCNCNvNtNtCs450l62AvZFl_5lb_io10http2_pool5testss_34send_request_idle_idle_timeout_arm00B9_
FN:625,_RNCNvNtNtCs450l62AvZFl_5lb_io10http2_pool5tests13empty_request0B7_
FN:638,_RNCNvNtNtCs450l62AvZFl_5lb_io10http2_pool5testss_29send_request_idle_success_arm0B7_
FN:512,_RNCNvNtNtCs450l62AvZFl_5lb_io10http2_pool5testss_33send_request_idle_dial_fail_smoke0B7_
FN:673,_RNCNvNtNtCs450l62AvZFl_5lb_io10http2_pool5testss_34send_request_idle_head_timeout_arm0B7_
FN:711,_RNCNvNtNtCs450l62AvZFl_5lb_io10http2_pool5testss_34send_request_idle_idle_timeout_arm0B7_
FN:619,_RNvNtNtCs450l62AvZFl_5lb_io10http2_pool5tests13empty_request
FN:604,_RNvNtNtCs450l62AvZFl_5lb_io10http2_pool5tests17tcp_pool_for_test
FN:487,_RNvNtNtCs450l62AvZFl_5lb_io10http2_pool5testss_17pool_starts_empty
FN:638,_RNvNtNtCs450l62AvZFl_5lb_io10http2_pool5testss_29send_request_idle_success_arm
FN:477,_RNvNtNtCs450l62AvZFl_5lb_io10http2_pool5testss_32defaults_match_documented_values
FN:512,_RNvNtNtCs450l62AvZFl_5lb_io10http2_pool5testss_33send_request_idle_dial_fail_smoke
FN:673,_RNvNtNtCs450l62AvZFl_5lb_io10http2_pool5testss_34send_request_idle_head_timeout_arm
FN:711,_RNvNtNtCs450l62AvZFl_5lb_io10http2_pool5testss_34send_request_idle_idle_timeout_arm
FN:197,_RNvMs2_NtCs450l62AvZFl_5lb_io10http2_poolNtB5_9Http2Pool10peer_count
FN:372,_RNvMs2_NtCs450l62AvZFl_5lb_io10http2_poolNtB5_9Http2Pool13replace_entry
FN:344,_RNvMs2_NtCs450l62AvZFl_5lb_io10http2_poolNtB5_9Http2Pool14acquire_sender
FN:296,_RNvMs2_NtCs450l62AvZFl_5lb_io10http2_poolNtB5_9Http2Pool17send_request_idle
FN:360,_RNvMs2_NtCs450l62AvZFl_5lb_io10http2_poolNtB5_9Http2Pool17take_alive_sender
FN:413,_RNvMs2_NtCs450l62AvZFl_5lb_io10http2_poolNtB5_9Http2Pool18dial_and_handshake
FN:185,_RNvMs2_NtCs450l62AvZFl_5lb_io10http2_poolNtB5_9Http2Pool3new
FN:377,_RNvMs2_NtCs450l62AvZFl_5lb_io10http2_poolNtB5_9Http2Pool5evict
FN:128,_RNvMs_NtCs450l62AvZFl_5lb_io10http2_poolNtB4_9PeerEntry8is_alive
FN:110,_RNvXNtCs450l62AvZFl_5lb_io10http2_poolNtB2_15Http2PoolConfigNtNtCs2va5m0jqTTM_4core7default7Default7default
FN:460,_RNCNCNvNtCs450l62AvZFl_5lb_io10http2_pool20collect_body_bounded00B7_
FN:232,_RNCNvMs2_NtCs450l62AvZFl_5lb_io10http2_poolNtB7_9Http2Pool12send_request0B9_
FN:456,_RNCNvNtCs450l62AvZFl_5lb_io10http2_pool20collect_body_bounded0B5_
FN:406,_RNvMs2_NtCs450l62AvZFl_5lb_io10http2_poolNtB5_9Http2Pool10reset_peer
FN:228,_RNvMs2_NtCs450l62AvZFl_5lb_io10http2_poolNtB5_9Http2Pool12send_request
FN:456,_RNvNtCs450l62AvZFl_5lb_io10http2_pool20collect_body_bounded
FN:172,_RNvXs1_NtCs450l62AvZFl_5lb_io10http2_poolNtB5_9Http2PoolNtNtCs2va5m0jqTTM_4core3fmt5Debug3fmt
FN:423,_RNCNCNvMs2_NtCs450l62AvZFl_5lb_io10http2_poolNtB9_9Http2Pool18dial_and_handshake00Bb_
FN:441,_RNCNCNvMs2_NtCs450l62AvZFl_5lb_io10http2_poolNtB9_9Http2Pool18dial_and_handshake0s0_0Bb_
FN:439,_RNCNCNvMs2_NtCs450l62AvZFl_5lb_io10http2_poolNtB9_9Http2Pool18dial_and_handshake0s_0Bb_
FN:347,_RNCNvMs2_NtCs450l62AvZFl_5lb_io10http2_poolNtB7_9Http2Pool14acquire_sender0B9_
FN:305,_RNCNvMs2_NtCs450l62AvZFl_5lb_io10http2_poolNtB7_9Http2Pool17send_request_idle0B9_
FN:416,_RNCNvMs2_NtCs450l62AvZFl_5lb_io10http2_poolNtB7_9Http2Pool18dial_and_handshake0B9_
FN:134,_RNvXs0_NtCs450l62AvZFl_5lb_io10http2_poolNtB5_9PeerEntryNtNtNtCs2va5m0jqTTM_4core3ops4drop4Drop4drop
FN:305,_RNCNvMs2_NtCs4GBZUaiPV4D_5lb_io10http2_poolNtB7_9Http2Pool17send_request_idle0Csddhi0hNOal7_5lb_l7
FN:423,_RNCNCNvMs2_NtCs4GBZUaiPV4D_5lb_io10http2_poolNtB9_9Http2Pool18dial_and_handshake00CsbTmJYq7gvpZ_7lb_quic
FN:441,_RNCNCNvMs2_NtCs4GBZUaiPV4D_5lb_io10http2_poolNtB9_9Http2Pool18dial_and_handshake0s0_0CsbTmJYq7gvpZ_7lb_quic
FN:439,_RNCNCNvMs2_NtCs4GBZUaiPV4D_5lb_io10http2_poolNtB9_9Http2Pool18dial_and_handshake0s_0CsbTmJYq7gvpZ_7lb_quic
FN:232,_RNCNvMs2_NtCs4GBZUaiPV4D_5lb_io10http2_poolNtB7_9Http2Pool12send_request0CsbTmJYq7gvpZ_7lb_quic
FN:347,_RNCNvMs2_NtCs4GBZUaiPV4D_5lb_io10http2_poolNtB7_9Http2Pool14acquire_sender0CsbTmJYq7gvpZ_7lb_quic
FN:416,_RNCNvMs2_NtCs4GBZUaiPV4D_5lb_io10http2_poolNtB7_9Http2Pool18dial_and_handshake0CsbTmJYq7gvpZ_7lb_quic
FN:423,_RNCNCNvMs2_NtCs4GBZUaiPV4D_5lb_io10http2_poolNtB9_9Http2Pool18dial_and_handshake00CsaQ6wXtaNDyM_20round8_body_overread
FN:441,_RNCNCNvMs2_NtCs4GBZUaiPV4D_5lb_io10http2_poolNtB9_9Http2Pool18dial_and_handshake0s0_0CsaQ6wXtaNDyM_20round8_body_overread
FN:439,_RNCNCNvMs2_NtCs4GBZUaiPV4D_5lb_io10http2_poolNtB9_9Http2Pool18dial_and_handshake0s_0CsaQ6wXtaNDyM_20round8_body_overread
FN:232,_RNCNvMs2_NtCs4GBZUaiPV4D_5lb_io10http2_poolNtB7_9Http2Pool12send_request0CsaQ6wXtaNDyM_20round8_body_overread
FN:347,_RNCNvMs2_NtCs4GBZUaiPV4D_5lb_io10http2_poolNtB7_9Http2Pool14acquire_sender0CsaQ6wXtaNDyM_20round8_body_overread
FN:416,_RNCNvMs2_NtCs4GBZUaiPV4D_5lb_io10http2_poolNtB7_9Http2Pool18dial_and_handshake0CsaQ6wXtaNDyM_20round8_body_overread
FNDA:95,_RNCNvMs2_NtCs4GBZUaiPV4D_5lb_io10http2_poolNtB7_9Http2Pool17send_request_idle0Cs6ZJAmc5l35e_5lb_l7
FNDA:0,_RNCNCNvMs2_NtCs4GBZUaiPV4D_5lb_io10http2_poolNtB9_9Http2Pool18dial_and_handshake00CsbRY1QtCoCCH_7lb_quic
FNDA:117,_RNCNCNvMs2_NtCs4GBZUaiPV4D_5lb_io10http2_poolNtB9_9Http2Pool18dial_and_handshake0s0_0CsbRY1QtCoCCH_7lb_quic
FNDA:0,_RNCNCNvMs2_NtCs4GBZUaiPV4D_5lb_io10http2_poolNtB9_9Http2Pool18dial_and_handshake0s_0CsbRY1QtCoCCH_7lb_quic
FNDA:25,_RNCNvMs2_NtCs4GBZUaiPV4D_5lb_io10http2_poolNtB7_9Http2Pool12send_request0CsbRY1QtCoCCH_7lb_quic
FNDA:120,_RNCNvMs2_NtCs4GBZUaiPV4D_5lb_io10http2_poolNtB7_9Http2Pool14acquire_sender0CsbRY1QtCoCCH_7lb_quic
FNDA:119,_RNCNvMs2_NtCs4GBZUaiPV4D_5lb_io10http2_poolNtB7_9Http2Pool18dial_and_handshake0CsbRY1QtCoCCH_7lb_quic
FNDA:2,_RNvMs2_NtCs4GBZUaiPV4D_5lb_io10http2_poolNtB5_9Http2Pool10peer_count
FNDA:78,_RNvMs2_NtCs4GBZUaiPV4D_5lb_io10http2_poolNtB5_9Http2Pool10reset_peer
FNDA:26,_RNvMs2_NtCs4GBZUaiPV4D_5lb_io10http2_poolNtB5_9Http2Pool12send_request
FNDA:117,_RNvMs2_NtCs4GBZUaiPV4D_5lb_io10http2_poolNtB5_9Http2Pool13replace_entry
FNDA:121,_RNvMs2_NtCs4GBZUaiPV4D_5lb_io10http2_poolNtB5_9Http2Pool14acquire_sender
FNDA:95,_RNvMs2_NtCs4GBZUaiPV4D_5lb_io10http2_poolNtB5_9Http2Pool17send_request_idle
FNDA:121,_RNvMs2_NtCs4GBZUaiPV4D_5lb_io10http2_poolNtB5_9Http2Pool17take_alive_sender
FNDA:120,_RNvMs2_NtCs4GBZUaiPV4D_5lb_io10http2_poolNtB5_9Http2Pool18dial_and_handshake
FNDA:125,_RNvMs2_NtCs4GBZUaiPV4D_5lb_io10http2_poolNtB5_9Http2Pool3new
FNDA:2,_RNvMs2_NtCs4GBZUaiPV4D_5lb_io10http2_poolNtB5_9Http2Pool5evict
FNDA:1,_RNvMs_NtCs4GBZUaiPV4D_5lb_io10http2_poolNtB4_9PeerEntry8is_alive
FNDA:0,_RNvNtCs4GBZUaiPV4D_5lb_io10http2_pool20collect_body_bounded
FNDA:125,_RNvXNtCs4GBZUaiPV4D_5lb_io10http2_poolNtB2_15Http2PoolConfigNtNtCs2va5m0jqTTM_4core7default7Default7default
FNDA:0,_RNvXs1_NtCs4GBZUaiPV4D_5lb_io10http2_poolNtB5_9Http2PoolNtNtCs2va5m0jqTTM_4core3fmt5Debug3fmt
FNDA:117,_RNvXs0_NtCs4GBZUaiPV4D_5lb_io10http2_poolNtB5_9PeerEntryNtNtNtCs2va5m0jqTTM_4core3ops4drop4Drop4drop
FNDA:0,_RNCNCNvMs2_NtCs4GBZUaiPV4D_5lb_io10http2_poolNtB9_9Http2Pool18dial_and_handshake00Bb_
FNDA:0,_RNCNCNvMs2_NtCs4GBZUaiPV4D_5lb_io10http2_poolNtB9_9Http2Pool18dial_and_handshake0s0_0Bb_
FNDA:0,_RNCNCNvMs2_NtCs4GBZUaiPV4D_5lb_io10http2_poolNtB9_9Http2Pool18dial_and_handshake0s_0Bb_
FNDA:0,_RNCNCNvNtCs4GBZUaiPV4D_5lb_io10http2_pool20collect_body_bounded00B7_
FNDA:0,_RNCNvMs2_NtCs4GBZUaiPV4D_5lb_io10http2_poolNtB7_9Http2Pool12send_request0B9_
FNDA:0,_RNCNvMs2_NtCs4GBZUaiPV4D_5lb_io10http2_poolNtB7_9Http2Pool14acquire_sender0B9_
FNDA:0,_RNCNvMs2_NtCs4GBZUaiPV4D_5lb_io10http2_poolNtB7_9Http2Pool17send_request_idle0B9_
FNDA:0,_RNCNvMs2_NtCs4GBZUaiPV4D_5lb_io10http2_poolNtB7_9Http2Pool18dial_and_handshake0B9_
FNDA:0,_RNCNvNtCs4GBZUaiPV4D_5lb_io10http2_pool20collect_body_bounded0B5_
FNDA:1,_RINvNtNtCs450l62AvZFl_5lb_io10http2_pool5tests16spawn_h2_backendNCNCNvB2_s_29send_request_idle_success_arm00NCNCB12_00EB6_
FNDA:1,_RINvNtNtCs450l62AvZFl_5lb_io10http2_pool5tests16spawn_h2_backendNCNCNvB2_s_34send_request_idle_head_timeout_arm00NCNCB12_00EB6_
FNDA:1,_RINvNtNtCs450l62AvZFl_5lb_io10http2_pool5tests16spawn_h2_backendNCNCNvB2_s_34send_request_idle_idle_timeout_arm00NCNCB12_00EB6_
FNDA:1,_RNCINvNtNtCs450l62AvZFl_5lb_io10http2_pool5tests16spawn_h2_backendNCNCNvB4_s_29send_request_idle_success_arm00NCNCB14_00E0B8_
FNDA:1,_RNCINvNtNtCs450l62AvZFl_5lb_io10http2_pool5tests16spawn_h2_backendNCNCNvB4_s_34send_request_idle_head_timeout_arm00NCNCB14_00E0B8_
FNDA:1,_RNCINvNtNtCs450l62AvZFl_5lb_io10http2_pool5tests16spawn_h2_backendNCNCNvB4_s_34send_request_idle_idle_timeout_arm00NCNCB14_00E0B8_
FNDA:1,_RNCNCINvNtNtCs450l62AvZFl_5lb_io10http2_pool5tests16spawn_h2_backendNCNCNvB6_s_29send_request_idle_success_arm00NCNCB16_00E00Ba_
FNDA:1,_RNCNCINvNtNtCs450l62AvZFl_5lb_io10http2_pool5tests16spawn_h2_backendNCNCNvB6_s_34send_request_idle_head_timeout_arm00NCNCB16_00E00Ba_
FNDA:1,_RNCNCINvNtNtCs450l62AvZFl_5lb_io10http2_pool5tests16spawn_h2_backendNCNCNvB6_s_34send_request_idle_idle_timeout_arm00NCNCB16_00E00Ba_
FNDA:1,_RNCNCNCINvNtNtCs450l62AvZFl_5lb_io10http2_pool5tests16spawn_h2_backendNCNCNvB8_s_29send_request_idle_success_arm00NCNCB18_00E000Bc_
FNDA:1,_RNCNCNCINvNtNtCs450l62AvZFl_5lb_io10http2_pool5tests16spawn_h2_backendNCNCNvB8_s_34send_request_idle_head_timeout_arm00NCNCB18_00E000Bc_
FNDA:1,_RNCNCNCINvNtNtCs450l62AvZFl_5lb_io10http2_pool5tests16spawn_h2_backendNCNCNvB8_s_34send_request_idle_idle_timeout_arm00NCNCB18_00E000Bc_
FNDA:1,_RNCNCNCNCINvNtNtCs450l62AvZFl_5lb_io10http2_pool5tests16spawn_h2_backendNCNCNvBa_s_29send_request_idle_success_arm00NCNCB1a_00E0000Be_
FNDA:1,_RNCNCNCNCINvNtNtCs450l62AvZFl_5lb_io10http2_pool5tests16spawn_h2_backendNCNCNvBa_s_34send_request_idle_head_timeout_arm00NCNCB1a_00E0000Be_
FNDA:1,_RNCNCNCNCINvNtNtCs450l62AvZFl_5lb_io10http2_pool5tests16spawn_h2_backendNCNCNvBa_s_34send_request_idle_idle_timeout_arm00NCNCB1a_00E0000Be_
FNDA:1,_RNCNCNCNCNCINvNtNtCs450l62AvZFl_5lb_io10http2_pool5tests16spawn_h2_backendNCNCNvBc_s_29send_request_idle_success_arm00NCNCB1c_00E00000Bg_
FNDA:1,_RNCNCNCNCNCINvNtNtCs450l62AvZFl_5lb_io10http2_pool5tests16spawn_h2_backendNCNCNvBc_s_34send_request_idle_head_timeout_arm00NCNCB1c_00E00000Bg_
FNDA:1,_RNCNCNCNCNCINvNtNtCs450l62AvZFl_5lb_io10http2_pool5tests16spawn_h2_backendNCNCNvBc_s_34send_request_idle_idle_timeout_arm00NCNCB1c_00E00000Bg_
FNDA:1,_RNCNCNCNvNtNtCs450l62AvZFl_5lb_io10http2_pool5testss_29send_request_idle_success_arm000Bb_
FNDA:1,_RNCNCNCNvNtNtCs450l62AvZFl_5lb_io10http2_pool5testss_34send_request_idle_head_timeout_arm000Bb_
FNDA:1,_RNCNCNCNvNtNtCs450l62AvZFl_5lb_io10http2_pool5testss_34send_request_idle_idle_timeout_arm000Bb_
FNDA:1,_RNCNCNvNtNtCs450l62AvZFl_5lb_io10http2_pool5testss_29send_request_idle_success_arm00B9_
FNDA:0,_RNCNCNvNtNtCs450l62AvZFl_5lb_io10http2_pool5testss_33send_request_idle_dial_fail_smoke00B9_
FNDA:1,_RNCNCNvNtNtCs450l62AvZFl_5lb_io10http2_pool5testss_34send_request_idle_head_timeout_arm00B9_
FNDA:1,_RNCNCNvNtNtCs450l62AvZFl_5lb_io10http2_pool5testss_34send_request_idle_idle_timeout_arm00B9_
FNDA:0,_RNCNvNtNtCs450l62AvZFl_5lb_io10http2_pool5tests13empty_request0B7_
FNDA:1,_RNCNvNtNtCs450l62AvZFl_5lb_io10http2_pool5testss_29send_request_idle_success_arm0B7_
FNDA:1,_RNCNvNtNtCs450l62AvZFl_5lb_io10http2_pool5testss_33send_request_idle_dial_fail_smoke0B7_
FNDA:1,_RNCNvNtNtCs450l62AvZFl_5lb_io10http2_pool5testss_34send_request_idle_head_timeout_arm0B7_
FNDA:1,_RNCNvNtNtCs450l62AvZFl_5lb_io10http2_pool5testss_34send_request_idle_idle_timeout_arm0B7_
FNDA:3,_RNvNtNtCs450l62AvZFl_5lb_io10http2_pool5tests13empty_request
FNDA:3,_RNvNtNtCs450l62AvZFl_5lb_io10http2_pool5tests17tcp_pool_for_test
FNDA:1,_RNvNtNtCs450l62AvZFl_5lb_io10http2_pool5testss_17pool_starts_empty
FNDA:1,_RNvNtNtCs450l62AvZFl_5lb_io10http2_pool5testss_29send_request_idle_success_arm
FNDA:1,_RNvNtNtCs450l62AvZFl_5lb_io10http2_pool5testss_32defaults_match_documented_values
FNDA:1,_RNvNtNtCs450l62AvZFl_5lb_io10http2_pool5testss_33send_request_idle_dial_fail_smoke
FNDA:1,_RNvNtNtCs450l62AvZFl_5lb_io10http2_pool5testss_34send_request_idle_head_timeout_arm
FNDA:1,_RNvNtNtCs450l62AvZFl_5lb_io10http2_pool5testss_34send_request_idle_idle_timeout_arm
FNDA:4,_RNvMs2_NtCs450l62AvZFl_5lb_io10http2_poolNtB5_9Http2Pool10peer_count
FNDA:3,_RNvMs2_NtCs450l62AvZFl_5lb_io10http2_poolNtB5_9Http2Pool13replace_entry
FNDA:4,_RNvMs2_NtCs450l62AvZFl_5lb_io10http2_poolNtB5_9Http2Pool14acquire_sender
FNDA:4,_RNvMs2_NtCs450l62AvZFl_5lb_io10http2_poolNtB5_9Http2Pool17send_request_idle
FNDA:4,_RNvMs2_NtCs450l62AvZFl_5lb_io10http2_poolNtB5_9Http2Pool17take_alive_sender
FNDA:4,_RNvMs2_NtCs450l62AvZFl_5lb_io10http2_poolNtB5_9Http2Pool18dial_and_handshake
FNDA:5,_RNvMs2_NtCs450l62AvZFl_5lb_io10http2_poolNtB5_9Http2Pool3new
FNDA:2,_RNvMs2_NtCs450l62AvZFl_5lb_io10http2_poolNtB5_9Http2Pool5evict
FNDA:0,_RNvMs_NtCs450l62AvZFl_5lb_io10http2_poolNtB4_9PeerEntry8is_alive
FNDA:6,_RNvXNtCs450l62AvZFl_5lb_io10http2_poolNtB2_15Http2PoolConfigNtNtCs2va5m0jqTTM_4core7default7Default7default
FNDA:0,_RNCNCNvNtCs450l62AvZFl_5lb_io10http2_pool20collect_body_bounded00B7_
FNDA:0,_RNCNvMs2_NtCs450l62AvZFl_5lb_io10http2_poolNtB7_9Http2Pool12send_request0B9_
FNDA:0,_RNCNvNtCs450l62AvZFl_5lb_io10http2_pool20collect_body_bounded0B5_
FNDA:0,_RNvMs2_NtCs450l62AvZFl_5lb_io10http2_poolNtB5_9Http2Pool10reset_peer
FNDA:0,_RNvMs2_NtCs450l62AvZFl_5lb_io10http2_poolNtB5_9Http2Pool12send_request
FNDA:0,_RNvNtCs450l62AvZFl_5lb_io10http2_pool20collect_body_bounded
FNDA:0,_RNvXs1_NtCs450l62AvZFl_5lb_io10http2_poolNtB5_9Http2PoolNtNtCs2va5m0jqTTM_4core3fmt5Debug3fmt
FNDA:0,_RNCNCNvMs2_NtCs450l62AvZFl_5lb_io10http2_poolNtB9_9Http2Pool18dial_and_handshake00Bb_
FNDA:3,_RNCNCNvMs2_NtCs450l62AvZFl_5lb_io10http2_poolNtB9_9Http2Pool18dial_and_handshake0s0_0Bb_
FNDA:0,_RNCNCNvMs2_NtCs450l62AvZFl_5lb_io10http2_poolNtB9_9Http2Pool18dial_and_handshake0s_0Bb_
FNDA:4,_RNCNvMs2_NtCs450l62AvZFl_5lb_io10http2_poolNtB7_9Http2Pool14acquire_sender0B9_
FNDA:4,_RNCNvMs2_NtCs450l62AvZFl_5lb_io10http2_poolNtB7_9Http2Pool17send_request_idle0B9_
FNDA:4,_RNCNvMs2_NtCs450l62AvZFl_5lb_io10http2_poolNtB7_9Http2Pool18dial_and_handshake0B9_
FNDA:3,_RNvXs0_NtCs450l62AvZFl_5lb_io10http2_poolNtB5_9PeerEntryNtNtNtCs2va5m0jqTTM_4core3ops4drop4Drop4drop
FNDA:0,_RNCNvMs2_NtCs4GBZUaiPV4D_5lb_io10http2_poolNtB7_9Http2Pool17send_request_idle0Csddhi0hNOal7_5lb_l7
FNDA:0,_RNCNCNvMs2_NtCs4GBZUaiPV4D_5lb_io10http2_poolNtB9_9Http2Pool18dial_and_handshake00CsbTmJYq7gvpZ_7lb_quic
FNDA:0,_RNCNCNvMs2_NtCs4GBZUaiPV4D_5lb_io10http2_poolNtB9_9Http2Pool18dial_and_handshake0s0_0CsbTmJYq7gvpZ_7lb_quic
FNDA:0,_RNCNCNvMs2_NtCs4GBZUaiPV4D_5lb_io10http2_poolNtB9_9Http2Pool18dial_and_handshake0s_0CsbTmJYq7gvpZ_7lb_quic
FNDA:0,_RNCNvMs2_NtCs4GBZUaiPV4D_5lb_io10http2_poolNtB7_9Http2Pool12send_request0CsbTmJYq7gvpZ_7lb_quic
FNDA:0,_RNCNvMs2_NtCs4GBZUaiPV4D_5lb_io10http2_poolNtB7_9Http2Pool14acquire_sender0CsbTmJYq7gvpZ_7lb_quic
FNDA:0,_RNCNvMs2_NtCs4GBZUaiPV4D_5lb_io10http2_poolNtB7_9Http2Pool18dial_and_handshake0CsbTmJYq7gvpZ_7lb_quic
FNDA:0,_RNCNCNvMs2_NtCs4GBZUaiPV4D_5lb_io10http2_poolNtB9_9Http2Pool18dial_and_handshake00CsaQ6wXtaNDyM_20round8_body_overread
FNDA:0,_RNCNCNvMs2_NtCs4GBZUaiPV4D_5lb_io10http2_poolNtB9_9Http2Pool18dial_and_handshake0s0_0CsaQ6wXtaNDyM_20round8_body_overread
FNDA:0,_RNCNCNvMs2_NtCs4GBZUaiPV4D_5lb_io10http2_poolNtB9_9Http2Pool18dial_and_handshake0s_0CsaQ6wXtaNDyM_20round8_body_overread
FNDA:1,_RNCNvMs2_NtCs4GBZUaiPV4D_5lb_io10http2_poolNtB7_9Http2Pool12send_request0CsaQ6wXtaNDyM_20round8_body_overread
FNDA:1,_RNCNvMs2_NtCs4GBZUaiPV4D_5lb_io10http2_poolNtB7_9Http2Pool14acquire_sender0CsaQ6wXtaNDyM_20round8_body_overread
FNDA:1,_RNCNvMs2_NtCs4GBZUaiPV4D_5lb_io10http2_poolNtB7_9Http2Pool18dial_and_handshake0CsaQ6wXtaNDyM_20round8_body_overread
FNF:50
FNH:42
DA:110,131
DA:111,131
DA:112,131
DA:113,131
DA:114,131
DA:115,131
DA:116,131
DA:117,131
DA:118,131
DA:128,1
DA:129,1
DA:130,1
DA:134,120
DA:135,120
DA:136,120
DA:172,0
DA:173,0
DA:174,0
DA:175,0
DA:176,0
DA:177,0
DA:178,0
DA:185,130
DA:186,130
DA:187,130
DA:188,130
DA:189,130
DA:190,130
DA:191,130
DA:192,130
DA:193,130
DA:197,6
DA:198,6
DA:199,6
DA:228,26
DA:229,26
DA:230,26
DA:231,26
DA:232,26
DA:233,26
DA:234,23
DA:235,23
DA:236,22
DA:237,1
DA:238,1
DA:239,1
DA:240,1
DA:241,1
DA:242,1
DA:243,1
DA:244,1
DA:247,0
DA:248,0
DA:251,26
DA:296,99
DA:297,99
DA:298,99
DA:299,99
DA:300,99
DA:301,99
DA:302,99
DA:303,99
DA:304,99
DA:305,99
DA:306,99
DA:307,98
DA:308,98
DA:309,98
DA:310,98
DA:311,98
DA:312,98
DA:313,98
DA:314,98
DA:315,98
DA:316,98
DA:318,16
DA:319,1
DA:320,1
DA:321,1
DA:322,1
DA:324,2
DA:328,2
DA:329,1
DA:330,1
DA:332,2
DA:334,0
DA:336,2
DA:337,2
DA:340,20
DA:344,125
DA:345,125
DA:346,125
DA:347,125
DA:348,125
DA:349,1
DA:350,124
DA:351,124
DA:352,120
DA:353,120
DA:354,120
DA:355,120
DA:356,120
DA:357,120
DA:358,125
DA:360,125
DA:361,125
DA:362,125
DA:363,1
DA:365,0
DA:366,0
DA:368,124
DA:370,125
DA:372,120
DA:373,120
DA:374,120
DA:375,120
DA:377,4
DA:378,4
DA:379,4
DA:380,4
DA:406,78
DA:407,78
DA:408,78
DA:409,78
DA:410,78
DA:411,78
DA:413,124
DA:414,124
DA:415,124
DA:416,124
DA:420,124
DA:421,120
DA:422,120
DA:423,120
DA:425,120
DA:426,120
DA:427,120
DA:428,120
DA:429,120
DA:430,120
DA:431,120
DA:432,120
DA:433,120
DA:434,120
DA:435,120
DA:436,120
DA:437,120
DA:438,120
DA:439,120
DA:441,120
DA:442,120
DA:443,120
DA:444,120
DA:445,124
DA:456,0
DA:457,0
DA:458,0
DA:459,0
DA:460,0
DA:461,0
DA:462,0
DA:463,0
DA:464,0
DA:465,0
DA:466,0
DA:467,0
DA:468,0
DA:469,0
DA:477,1
DA:478,1
DA:479,1
DA:480,1
DA:481,1
DA:482,1
DA:483,1
DA:484,1
DA:487,1
DA:488,1
DA:489,1
DA:490,1
DA:491,1
DA:492,1
DA:493,1
DA:494,1
DA:495,1
DA:496,1
DA:497,1
DA:498,1
DA:499,1
DA:500,1
DA:501,1
DA:502,1
DA:512,1
DA:513,1
DA:514,1
DA:515,1
DA:516,1
DA:517,1
DA:518,1
DA:519,1
DA:520,1
DA:521,1
DA:522,1
DA:523,1
DA:524,1
DA:525,1
DA:526,1
DA:527,1
DA:528,1
DA:529,1
DA:530,1
DA:531,1
DA:532,1
DA:533,1
DA:534,1
DA:535,0
DA:536,0
DA:537,1
DA:538,1
DA:539,1
DA:540,1
DA:541,1
DA:542,1
DA:543,1
DA:544,1
DA:545,1
DA:546,1
DA:547,1
DA:548,1
DA:549,1
DA:550,1
DA:551,1
DA:552,1
DA:553,1
DA:554,1
DA:555,1
DA:556,1
DA:557,1
DA:558,1
DA:568,3
DA:569,3
DA:570,3
DA:571,3
DA:572,3
DA:573,3
DA:574,3
DA:575,3
DA:579,3
DA:580,3
DA:581,3
DA:582,3
DA:584,6
DA:585,0
DA:587,3
DA:588,3
DA:589,3
DA:590,3
DA:591,3
DA:592,3
DA:593,3
DA:594,3
DA:595,3
DA:596,3
DA:597,3
DA:598,3
DA:600,3
DA:601,3
DA:602,3
DA:604,3
DA:605,3
DA:606,3
DA:607,3
DA:608,3
DA:609,3
DA:610,3
DA:611,3
DA:612,3
DA:613,3
DA:614,3
DA:615,3
DA:616,3
DA:617,3
DA:619,3
DA:621,3
DA:622,3
DA:623,3
DA:624,3
DA:625,3
DA:626,0
DA:627,0
DA:628,3
DA:629,3
DA:630,3
DA:631,3
DA:632,3
DA:638,1
DA:639,1
DA:640,1
DA:641,1
DA:642,1
DA:643,1
DA:644,1
DA:645,1
DA:646,1
DA:647,1
DA:648,1
DA:649,1
DA:650,1
DA:651,1
DA:652,1
DA:653,1
DA:654,1
DA:655,1
DA:656,1
DA:657,1
DA:658,1
DA:659,1
DA:660,1
DA:661,1
DA:662,1
DA:663,1
DA:664,1
DA:665,1
DA:673,1
DA:674,1
DA:675,1
DA:676,1
DA:677,1
DA:678,1
DA:679,1
DA:680,1
DA:681,1
DA:682,1
DA:683,1
DA:684,1
DA:685,1
DA:686,1
DA:687,1
DA:688,1
DA:689,1
DA:690,1
DA:691,1
DA:692,1
DA:693,1
DA:694,1
DA:695,1
DA:696,1
DA:697,1
DA:698,1
DA:699,1
DA:700,1
DA:701,1
DA:702,1
DA:703,1
DA:711,1
DA:712,1
DA:713,1
DA:714,1
DA:715,1
DA:716,1
DA:717,1
DA:718,1
DA:719,1
DA:720,1
DA:721,1
DA:722,1
DA:723,1
DA:724,1
DA:725,1
DA:726,1
DA:727,1
DA:728,1
DA:729,1
DA:730,1
DA:731,1
DA:732,1
DA:733,1
DA:734,1
DA:735,1
BRF:0
BRH:0
LF:527
LH:475
end_of_record
SF:/home/ubuntu/Code/ExpressGateway/crates/lb-io/src/idle_send.rs
FN:183,_RINvNtCs4GBZUaiPV4D_5lb_io9idle_send12poll_fn_sendNCNvMs0_NtNtNtCsgB3dp6qvXvn_5hyper6client4conn5http1INtBU_11SendRequestINtNtNtCsedaG9KDMExI_14http_body_util11combinators8box_body7BoxBodyNtNtCs7xJyEqPIUa9_5bytes5bytes5BytesNtNtCs6ZJAmc5l35e_5lb_l78h1_proxy11H1PumpAbortEE12send_request0EB3E_
FN:183,_RINvNtCs4GBZUaiPV4D_5lb_io9idle_send12poll_fn_sendNCNvMs0_NtNtNtCsgB3dp6qvXvn_5hyper6client4conn5http1INtBU_11SendRequestINtNtNtCsedaG9KDMExI_14http_body_util11combinators8box_body7BoxBodyNtNtCs7xJyEqPIUa9_5bytes5bytes5BytesNtNtCs6ZJAmc5l35e_5lb_l78h2_proxy9PumpAbortEE12send_request0EB3E_
FN:183,_RINvNtCs4GBZUaiPV4D_5lb_io9idle_send12poll_fn_sendNCNvMs0_NtNtNtCsgB3dp6qvXvn_5hyper6client4conn5http2INtBU_11SendRequestINtNtNtCsedaG9KDMExI_14http_body_util11combinators8box_body7BoxBodyNtNtCs7xJyEqPIUa9_5bytes5bytes5BytesINtNtCs8GO9KFlE3Dq_5alloc5boxed3BoxDNtNtCs2va5m0jqTTM_4core5error5ErrorNtNtB4e_6marker4SendNtB4L_4SyncEL_EEE12send_request0ECs6ZJAmc5l35e_5lb_l7
FN:93,_RINvNtCs4GBZUaiPV4D_5lb_io9idle_send17idle_bounded_sendNCNvMs0_NtNtNtCsgB3dp6qvXvn_5hyper6client4conn5http1INtBZ_11SendRequestINtNtNtCsedaG9KDMExI_14http_body_util11combinators8box_body7BoxBodyNtNtCs7xJyEqPIUa9_5bytes5bytes5BytesNtNtCs6ZJAmc5l35e_5lb_l78h1_proxy11H1PumpAbortEE12send_request0INtNtCs2va5m0jqTTM_4core6result6ResultINtNtCsjFxw70quGA5_4http8response8ResponseNtNtNtB15_4body8incoming8IncomingENtNtB15_5error5ErrorEEB3J_
FN:93,_RINvNtCs4GBZUaiPV4D_5lb_io9idle_send17idle_bounded_sendNCNvMs0_NtNtNtCsgB3dp6qvXvn_5hyper6client4conn5http1INtBZ_11SendRequestINtNtNtCsedaG9KDMExI_14http_body_util11combinators8box_body7BoxBodyNtNtCs7xJyEqPIUa9_5bytes5bytes5BytesNtNtCs6ZJAmc5l35e_5lb_l78h2_proxy9PumpAbortEE12send_request0INtNtCs2va5m0jqTTM_4core6result6ResultINtNtCsjFxw70quGA5_4http8response8ResponseNtNtNtB15_4body8incoming8IncomingENtNtB15_5error5ErrorEEB3J_
FN:93,_RINvNtCs4GBZUaiPV4D_5lb_io9idle_send17idle_bounded_sendNCNvMs0_NtNtNtCsgB3dp6qvXvn_5hyper6client4conn5http2INtBZ_11SendRequestINtNtNtCsedaG9KDMExI_14http_body_util11combinators8box_body7BoxBodyNtNtCs7xJyEqPIUa9_5bytes5bytes5BytesINtNtCs8GO9KFlE3Dq_5alloc5boxed3BoxDNtNtCs2va5m0jqTTM_4core5error5ErrorNtNtB4j_6marker4SendNtB4Q_4SyncEL_EEE12send_request0INtNtB4j_6result6ResultINtNtCsjFxw70quGA5_4http8response8ResponseNtNtNtB15_4body8incoming8IncomingENtNtB15_5error5ErrorEECs6ZJAmc5l35e_5lb_l7
FN:183,_RNCINvNtCs4GBZUaiPV4D_5lb_io9idle_send12poll_fn_sendNCNvMs0_NtNtNtCsgB3dp6qvXvn_5hyper6client4conn5http1INtBW_11SendRequestINtNtNtCsedaG9KDMExI_14http_body_util11combinators8box_body7BoxBodyNtNtCs7xJyEqPIUa9_5bytes5bytes5BytesNtNtCs6ZJAmc5l35e_5lb_l78h1_proxy11H1PumpAbortEE12send_request0E0B3G_
FN:183,_RNCINvNtCs4GBZUaiPV4D_5lb_io9idle_send12poll_fn_sendNCNvMs0_NtNtNtCsgB3dp6qvXvn_5hyper6client4conn5http1INtBW_11SendRequestINtNtNtCsedaG9KDMExI_14http_body_util11combinators8box_body7BoxBodyNtNtCs7xJyEqPIUa9_5bytes5bytes5BytesNtNtCs6ZJAmc5l35e_5lb_l78h2_proxy9PumpAbortEE12send_request0E0B3G_
FN:183,_RNCINvNtCs4GBZUaiPV4D_5lb_io9idle_send12poll_fn_sendNCNvMs0_NtNtNtCsgB3dp6qvXvn_5hyper6client4conn5http2INtBW_11SendRequestINtNtNtCsedaG9KDMExI_14http_body_util11combinators8box_body7BoxBodyNtNtCs7xJyEqPIUa9_5bytes5bytes5BytesINtNtCs8GO9KFlE3Dq_5alloc5boxed3BoxDNtNtCs2va5m0jqTTM_4core5error5ErrorNtNtB4g_6marker4SendNtB4N_4SyncEL_EEE12send_request0E0Cs6ZJAmc5l35e_5lb_l7
FN:103,_RNCINvNtCs4GBZUaiPV4D_5lb_io9idle_send17idle_bounded_sendNCNvMs0_NtNtNtCsgB3dp6qvXvn_5hyper6client4conn5http1INtB11_11SendRequestINtNtNtCsedaG9KDMExI_14http_body_util11combinators8box_body7BoxBodyNtNtCs7xJyEqPIUa9_5bytes5bytes5BytesNtNtCs6ZJAmc5l35e_5lb_l78h1_proxy11H1PumpAbortEE12send_request0INtNtCs2va5m0jqTTM_4core6result6ResultINtNtCsjFxw70quGA5_4http8response8ResponseNtNtNtB17_4body8incoming8IncomingENtNtB17_5error5ErrorEE0B3M_
FN:103,_RNCINvNtCs4GBZUaiPV4D_5lb_io9idle_send17idle_bounded_sendNCNvMs0_NtNtNtCsgB3dp6qvXvn_5hyper6client4conn5http1INtB11_11SendRequestINtNtNtCsedaG9KDMExI_14http_body_util11combinators8box_body7BoxBodyNtNtCs7xJyEqPIUa9_5bytes5bytes5BytesNtNtCs6ZJAmc5l35e_5lb_l78h2_proxy9PumpAbortEE12send_request0INtNtCs2va5m0jqTTM_4core6result6ResultINtNtCsjFxw70quGA5_4http8response8ResponseNtNtNtB17_4body8incoming8IncomingENtNtB17_5error5ErrorEE0B3M_
FN:103,_RNCINvNtCs4GBZUaiPV4D_5lb_io9idle_send17idle_bounded_sendNCNvMs0_NtNtNtCsgB3dp6qvXvn_5hyper6client4conn5http2INtB11_11SendRequestINtNtNtCsedaG9KDMExI_14http_body_util11combinators8box_body7BoxBodyNtNtCs7xJyEqPIUa9_5bytes5bytes5BytesINtNtCs8GO9KFlE3Dq_5alloc5boxed3BoxDNtNtCs2va5m0jqTTM_4core5error5ErrorNtNtB4m_6marker4SendNtB4T_4SyncEL_EEE12send_request0INtNtB4m_6result6ResultINtNtCsjFxw70quGA5_4http8response8ResponseNtNtNtB17_4body8incoming8IncomingENtNtB17_5error5ErrorEE0Cs6ZJAmc5l35e_5lb_l7
FN:184,_RNCNCINvNtCs4GBZUaiPV4D_5lb_io9idle_send12poll_fn_sendNCNvMs0_NtNtNtCsgB3dp6qvXvn_5hyper6client4conn5http1INtBY_11SendRequestINtNtNtCsedaG9KDMExI_14http_body_util11combinators8box_body7BoxBodyNtNtCs7xJyEqPIUa9_5bytes5bytes5BytesNtNtCs6ZJAmc5l35e_5lb_l78h1_proxy11H1PumpAbortEE12send_request0E00B3I_
FN:184,_RNCNCINvNtCs4GBZUaiPV4D_5lb_io9idle_send12poll_fn_sendNCNvMs0_NtNtNtCsgB3dp6qvXvn_5hyper6client4conn5http1INtBY_11SendRequestINtNtNtCsedaG9KDMExI_14http_body_util11combinators8box_body7BoxBodyNtNtCs7xJyEqPIUa9_5bytes5bytes5BytesNtNtCs6ZJAmc5l35e_5lb_l78h2_proxy9PumpAbortEE12send_request0E00B3I_
FN:184,_RNCNCINvNtCs4GBZUaiPV4D_5lb_io9idle_send12poll_fn_sendNCNvMs0_NtNtNtCsgB3dp6qvXvn_5hyper6client4conn5http2INtBY_11SendRequestINtNtNtCsedaG9KDMExI_14http_body_util11combinators8box_body7BoxBodyNtNtCs7xJyEqPIUa9_5bytes5bytes5BytesINtNtCs8GO9KFlE3Dq_5alloc5boxed3BoxDNtNtCs2va5m0jqTTM_4core5error5ErrorNtNtB4i_6marker4SendNtB4P_4SyncEL_EEE12send_request0E00Cs6ZJAmc5l35e_5lb_l7
FN:121,_RNCNCINvNtCs4GBZUaiPV4D_5lb_io9idle_send17idle_bounded_sendNCNvMs0_NtNtNtCsgB3dp6qvXvn_5hyper6client4conn5http1INtB13_11SendRequestINtNtNtCsedaG9KDMExI_14http_body_util11combinators8box_body7BoxBodyNtNtCs7xJyEqPIUa9_5bytes5bytes5BytesNtNtCs6ZJAmc5l35e_5lb_l78h1_proxy11H1PumpAbortEE12send_request0INtNtCs2va5m0jqTTM_4core6result6ResultINtNtCsjFxw70quGA5_4http8response8ResponseNtNtNtB19_4body8incoming8IncomingENtNtB19_5error5ErrorEE00B3O_
FN:121,_RNCNCINvNtCs4GBZUaiPV4D_5lb_io9idle_send17idle_bounded_sendNCNvMs0_NtNtNtCsgB3dp6qvXvn_5hyper6client4conn5http1INtB13_11SendRequestINtNtNtCsedaG9KDMExI_14http_body_util11combinators8box_body7BoxBodyNtNtCs7xJyEqPIUa9_5bytes5bytes5BytesNtNtCs6ZJAmc5l35e_5lb_l78h2_proxy9PumpAbortEE12send_request0INtNtCs2va5m0jqTTM_4core6result6ResultINtNtCsjFxw70quGA5_4http8response8ResponseNtNtNtB19_4body8incoming8IncomingENtNtB19_5error5ErrorEE00B3O_
FN:121,_RNCNCINvNtCs4GBZUaiPV4D_5lb_io9idle_send17idle_bounded_sendNCNvMs0_NtNtNtCsgB3dp6qvXvn_5hyper6client4conn5http2INtB13_11SendRequestINtNtNtCsedaG9KDMExI_14http_body_util11combinators8box_body7BoxBodyNtNtCs7xJyEqPIUa9_5bytes5bytes5BytesINtNtCs8GO9KFlE3Dq_5alloc5boxed3BoxDNtNtCs2va5m0jqTTM_4core5error5ErrorNtNtB4o_6marker4SendNtB4V_4SyncEL_EEE12send_request0INtNtB4o_6result6ResultINtNtCsjFxw70quGA5_4http8response8ResponseNtNtNtB19_4body8incoming8IncomingENtNtB19_5error5ErrorEE00Cs6ZJAmc5l35e_5lb_l7
FN:183,_RINvNtCs4GBZUaiPV4D_5lb_io9idle_send12poll_fn_sendpEB4_
FN:93,_RINvNtCs4GBZUaiPV4D_5lb_io9idle_send17idle_bounded_sendppEB4_
FN:183,_RNCINvNtCs4GBZUaiPV4D_5lb_io9idle_send12poll_fn_sendpE0B6_
FN:103,_RNCINvNtCs4GBZUaiPV4D_5lb_io9idle_send17idle_bounded_sendppE0B6_
FN:184,_RNCNCINvNtCs4GBZUaiPV4D_5lb_io9idle_send12poll_fn_sendpE00B8_
FN:121,_RNCNCINvNtCs4GBZUaiPV4D_5lb_io9idle_send17idle_bounded_sendppE00B8_
FN:206,_RNvNtNtCs450l62AvZFl_5lb_io9idle_send5tests11bump_to_now
FN:198,_RNvNtNtCs450l62AvZFl_5lb_io9idle_send5tests5fresh
FN:395,_RNvNtNtCs450l62AvZFl_5lb_io9idle_send5testss_23arm_vi_late_bump_rearms
FN:435,_RNvNtNtCs450l62AvZFl_5lb_io9idle_send5testss_25arm_vii_tick_race_recheck
FN:253,_RNvNtNtCs450l62AvZFl_5lb_io9idle_send5testss_27arm_ii_immediate_wedge_idle
FN:367,_RNvNtNtCs450l62AvZFl_5lb_io9idle_send5testss_27arm_v_zero_bump_scaled_idle
FN:214,_RNvNtNtCs450l62AvZFl_5lb_io9idle_send5testss_32arm_i_chunked_progress_completes
FN:334,_RNvNtNtCs450l62AvZFl_5lb_io9idle_send5testss_39arm_iv_complete_then_fast_head_succeeds
FN:283,_RNvNtNtCs450l62AvZFl_5lb_io9idle_send5testss_42arm_iii_complete_then_slow_head_fires_head
FN:487,_RNvNtNtCs450l62AvZFl_5lb_io9idle_send5testss_53arm_ix_lp_zero_bump_then_complete_fires_head_not_idle
FN:404,_RNCNCNvNtNtCs450l62AvZFl_5lb_io9idle_send5testss_23arm_vi_late_bump_rearms00B9_
FN:444,_RNCNCNvNtNtCs450l62AvZFl_5lb_io9idle_send5testss_25arm_vii_tick_race_recheck00B9_
FN:223,_RNCNCNvNtNtCs450l62AvZFl_5lb_io9idle_send5testss_32arm_i_chunked_progress_completes00B9_
FN:233,_RNCNCNvNtNtCs450l62AvZFl_5lb_io9idle_send5testss_32arm_i_chunked_progress_completes0s_0B9_
FN:341,_RNCNCNvNtNtCs450l62AvZFl_5lb_io9idle_send5testss_39arm_iv_complete_then_fast_head_succeeds00B9_
FN:351,_RNCNCNvNtNtCs450l62AvZFl_5lb_io9idle_send5testss_39arm_iv_complete_then_fast_head_succeeds0s_0B9_
FN:294,_RNCNCNvNtNtCs450l62AvZFl_5lb_io9idle_send5testss_42arm_iii_complete_then_slow_head_fires_head00B9_
FN:497,_RNCNCNvNtNtCs450l62AvZFl_5lb_io9idle_send5testss_53arm_ix_lp_zero_bump_then_complete_fires_head_not_idle00B9_
FN:395,_RNCNvNtNtCs450l62AvZFl_5lb_io9idle_send5testss_23arm_vi_late_bump_rearms0B7_
FN:435,_RNCNvNtNtCs450l62AvZFl_5lb_io9idle_send5testss_25arm_vii_tick_race_recheck0B7_
FN:253,_RNCNvNtNtCs450l62AvZFl_5lb_io9idle_send5testss_27arm_ii_immediate_wedge_idle0B7_
FN:367,_RNCNvNtNtCs450l62AvZFl_5lb_io9idle_send5testss_27arm_v_zero_bump_scaled_idle0B7_
FN:214,_RNCNvNtNtCs450l62AvZFl_5lb_io9idle_send5testss_32arm_i_chunked_progress_completes0B7_
FN:334,_RNCNvNtNtCs450l62AvZFl_5lb_io9idle_send5testss_39arm_iv_complete_then_fast_head_succeeds0B7_
FN:283,_RNCNvNtNtCs450l62AvZFl_5lb_io9idle_send5testss_42arm_iii_complete_then_slow_head_fires_head0B7_
FN:487,_RNCNvNtNtCs450l62AvZFl_5lb_io9idle_send5testss_53arm_ix_lp_zero_bump_then_complete_fires_head_not_idle0B7_
FN:183,_RINvNtCs450l62AvZFl_5lb_io9idle_send12poll_fn_sendINtNtNtCs2va5m0jqTTM_4core6future7pending7PendingmEEB4_
FN:183,_RINvNtCs450l62AvZFl_5lb_io9idle_send12poll_fn_sendNCNCNvNtB2_5testss_32arm_i_chunked_progress_completes0s_0EB4_
FN:183,_RINvNtCs450l62AvZFl_5lb_io9idle_send12poll_fn_sendNCNCNvNtB2_5testss_39arm_iv_complete_then_fast_head_succeeds0s_0EB4_
FN:183,_RINvNtCs450l62AvZFl_5lb_io9idle_send12poll_fn_sendNCNvMs0_NtNtNtCsgB3dp6qvXvn_5hyper6client4conn5http2INtBU_11SendRequestINtNtNtCsedaG9KDMExI_14http_body_util11combinators8box_body7BoxBodyNtNtCs7xJyEqPIUa9_5bytes5bytes5BytesINtNtCs8GO9KFlE3Dq_5alloc5boxed3BoxDNtNtCs2va5m0jqTTM_4core5error5ErrorNtNtB4e_6marker4SendNtB4L_4SyncEL_EEE12send_request0EB4_
FN:93,_RINvNtCs450l62AvZFl_5lb_io9idle_send17idle_bounded_sendINtNtNtCs2va5m0jqTTM_4core6future7pending7PendingmEmEB4_
FN:93,_RINvNtCs450l62AvZFl_5lb_io9idle_send17idle_bounded_sendNCNCNvNtB2_5testss_32arm_i_chunked_progress_completes0s_0mEB4_
FN:93,_RINvNtCs450l62AvZFl_5lb_io9idle_send17idle_bounded_sendNCNCNvNtB2_5testss_39arm_iv_complete_then_fast_head_succeeds0s_0mEB4_
FN:93,_RINvNtCs450l62AvZFl_5lb_io9idle_send17idle_bounded_sendNCNvMs0_NtNtNtCsgB3dp6qvXvn_5hyper6client4conn5http2INtBZ_11SendRequestINtNtNtCsedaG9KDMExI_14http_body_util11combinators8box_body7BoxBodyNtNtCs7xJyEqPIUa9_5bytes5bytes5BytesINtNtCs8GO9KFlE3Dq_5alloc5boxed3BoxDNtNtCs2va5m0jqTTM_4core5error5ErrorNtNtB4j_6marker4SendNtB4Q_4SyncEL_EEE12send_request0INtNtB4j_6result6ResultINtNtCsjFxw70quGA5_4http8response8ResponseNtNtNtB15_4body8incoming8IncomingENtNtB15_5error5ErrorEEB4_
FN:183,_RNCINvNtCs450l62AvZFl_5lb_io9idle_send12poll_fn_sendINtNtNtCs2va5m0jqTTM_4core6future7pending7PendingmEE0B6_
FN:183,_RNCINvNtCs450l62AvZFl_5lb_io9idle_send12poll_fn_sendNCNCNvNtB4_5testss_32arm_i_chunked_progress_completes0s_0E0B6_
FN:183,_RNCINvNtCs450l62AvZFl_5lb_io9idle_send12poll_fn_sendNCNCNvNtB4_5testss_39arm_iv_complete_then_fast_head_succeeds0s_0E0B6_
FN:183,_RNCINvNtCs450l62AvZFl_5lb_io9idle_send12poll_fn_sendNCNvMs0_NtNtNtCsgB3dp6qvXvn_5hyper6client4conn5http2INtBW_11SendRequestINtNtNtCsedaG9KDMExI_14http_body_util11combinators8box_body7BoxBodyNtNtCs7xJyEqPIUa9_5bytes5bytes5BytesINtNtCs8GO9KFlE3Dq_5alloc5boxed3BoxDNtNtCs2va5m0jqTTM_4core5error5ErrorNtNtB4g_6marker4SendNtB4N_4SyncEL_EEE12send_request0E0B6_
FN:103,_RNCINvNtCs450l62AvZFl_5lb_io9idle_send17idle_bounded_sendINtNtNtCs2va5m0jqTTM_4core6future7pending7PendingmEmE0B6_
FN:103,_RNCINvNtCs450l62AvZFl_5lb_io9idle_send17idle_bounded_sendNCNCNvNtB4_5testss_32arm_i_chunked_progress_completes0s_0mE0B6_
FN:103,_RNCINvNtCs450l62AvZFl_5lb_io9idle_send17idle_bounded_sendNCNCNvNtB4_5testss_39arm_iv_complete_then_fast_head_succeeds0s_0mE0B6_
FN:103,_RNCINvNtCs450l62AvZFl_5lb_io9idle_send17idle_bounded_sendNCNvMs0_NtNtNtCsgB3dp6qvXvn_5hyper6client4conn5http2INtB11_11SendRequestINtNtNtCsedaG9KDMExI_14http_body_util11combinators8box_body7BoxBodyNtNtCs7xJyEqPIUa9_5bytes5bytes5BytesINtNtCs8GO9KFlE3Dq_5alloc5boxed3BoxDNtNtCs2va5m0jqTTM_4core5error5ErrorNtNtB4m_6marker4SendNtB4T_4SyncEL_EEE12send_request0INtNtB4m_6result6ResultINtNtCsjFxw70quGA5_4http8response8ResponseNtNtNtB17_4body8incoming8IncomingENtNtB17_5error5ErrorEE0B6_
FN:184,_RNCNCINvNtCs450l62AvZFl_5lb_io9idle_send12poll_fn_sendINtNtNtCs2va5m0jqTTM_4core6future7pending7PendingmEE00B8_
FN:184,_RNCNCINvNtCs450l62AvZFl_5lb_io9idle_send12poll_fn_sendNCNCNvNtB6_5testss_32arm_i_chunked_progress_completes0s_0E00B8_
FN:184,_RNCNCINvNtCs450l62AvZFl_5lb_io9idle_send12poll_fn_sendNCNCNvNtB6_5testss_39arm_iv_complete_then_fast_head_succeeds0s_0E00B8_
FN:184,_RNCNCINvNtCs450l62AvZFl_5lb_io9idle_send12poll_fn_sendNCNvMs0_NtNtNtCsgB3dp6qvXvn_5hyper6client4conn5http2INtBY_11SendRequestINtNtNtCsedaG9KDMExI_14http_body_util11combinators8box_body7BoxBodyNtNtCs7xJyEqPIUa9_5bytes5bytes5BytesINtNtCs8GO9KFlE3Dq_5alloc5boxed3BoxDNtNtCs2va5m0jqTTM_4core5error5ErrorNtNtB4i_6marker4SendNtB4P_4SyncEL_EEE12send_request0E00B8_
FN:121,_RNCNCINvNtCs450l62AvZFl_5lb_io9idle_send17idle_bounded_sendINtNtNtCs2va5m0jqTTM_4core6future7pending7PendingmEmE00B8_
FN:121,_RNCNCINvNtCs450l62AvZFl_5lb_io9idle_send17idle_bounded_sendNCNCNvNtB6_5testss_32arm_i_chunked_progress_completes0s_0mE00B8_
FN:121,_RNCNCINvNtCs450l62AvZFl_5lb_io9idle_send17idle_bounded_sendNCNCNvNtB6_5testss_39arm_iv_complete_then_fast_head_succeeds0s_0mE00B8_
FN:121,_RNCNCINvNtCs450l62AvZFl_5lb_io9idle_send17idle_bounded_sendNCNvMs0_NtNtNtCsgB3dp6qvXvn_5hyper6client4conn5http2INtB13_11SendRequestINtNtNtCsedaG9KDMExI_14http_body_util11combinators8box_body7BoxBodyNtNtCs7xJyEqPIUa9_5bytes5bytes5BytesINtNtCs8GO9KFlE3Dq_5alloc5boxed3BoxDNtNtCs2va5m0jqTTM_4core5error5ErrorNtNtB4o_6marker4SendNtB4V_4SyncEL_EEE12send_request0INtNtB4o_6result6ResultINtNtCsjFxw70quGA5_4http8response8ResponseNtNtNtB19_4body8incoming8IncomingENtNtB19_5error5ErrorEE00B8_
FN:183,_RINvNtCs4GBZUaiPV4D_5lb_io9idle_send12poll_fn_sendNCNvMs0_NtNtNtCsgB3dp6qvXvn_5hyper6client4conn5http1INtBU_11SendRequestINtNtNtCsedaG9KDMExI_14http_body_util11combinators8box_body7BoxBodyNtNtCs7xJyEqPIUa9_5bytes5bytes5BytesNtNtCsddhi0hNOal7_5lb_l78h1_proxy11H1PumpAbortEE12send_request0EB3E_
FN:183,_RINvNtCs4GBZUaiPV4D_5lb_io9idle_send12poll_fn_sendNCNvMs0_NtNtNtCsgB3dp6qvXvn_5hyper6client4conn5http1INtBU_11SendRequestINtNtNtCsedaG9KDMExI_14http_body_util11combinators8box_body7BoxBodyNtNtCs7xJyEqPIUa9_5bytes5bytes5BytesNtNtCsddhi0hNOal7_5lb_l78h2_proxy9PumpAbortEE12send_request0EB3E_
FN:183,_RINvNtCs4GBZUaiPV4D_5lb_io9idle_send12poll_fn_sendNCNvMs0_NtNtNtCsgB3dp6qvXvn_5hyper6client4conn5http2INtBU_11SendRequestINtNtNtCsedaG9KDMExI_14http_body_util11combinators8box_body7BoxBodyNtNtCs7xJyEqPIUa9_5bytes5bytes5BytesINtNtCs8GO9KFlE3Dq_5alloc5boxed3BoxDNtNtCs2va5m0jqTTM_4core5error5ErrorNtNtB4e_6marker4SendNtB4L_4SyncEL_EEE12send_request0ECsddhi0hNOal7_5lb_l7
FN:93,_RINvNtCs4GBZUaiPV4D_5lb_io9idle_send17idle_bounded_sendNCNvMs0_NtNtNtCsgB3dp6qvXvn_5hyper6client4conn5http1INtBZ_11SendRequestINtNtNtCsedaG9KDMExI_14http_body_util11combinators8box_body7BoxBodyNtNtCs7xJyEqPIUa9_5bytes5bytes5BytesNtNtCsddhi0hNOal7_5lb_l78h1_proxy11H1PumpAbortEE12send_request0INtNtCs2va5m0jqTTM_4core6result6ResultINtNtCsjFxw70quGA5_4http8response8ResponseNtNtNtB15_4body8incoming8IncomingENtNtB15_5error5ErrorEEB3J_
FN:93,_RINvNtCs4GBZUaiPV4D_5lb_io9idle_send17idle_bounded_sendNCNvMs0_NtNtNtCsgB3dp6qvXvn_5hyper6client4conn5http1INtBZ_11SendRequestINtNtNtCsedaG9KDMExI_14http_body_util11combinators8box_body7BoxBodyNtNtCs7xJyEqPIUa9_5bytes5bytes5BytesNtNtCsddhi0hNOal7_5lb_l78h2_proxy9PumpAbortEE12send_request0INtNtCs2va5m0jqTTM_4core6result6ResultINtNtCsjFxw70quGA5_4http8response8ResponseNtNtNtB15_4body8incoming8IncomingENtNtB15_5error5ErrorEEB3J_
FN:93,_RINvNtCs4GBZUaiPV4D_5lb_io9idle_send17idle_bounded_sendNCNvMs0_NtNtNtCsgB3dp6qvXvn_5hyper6client4conn5http2INtBZ_11SendRequestINtNtNtCsedaG9KDMExI_14http_body_util11combinators8box_body7BoxBodyNtNtCs7xJyEqPIUa9_5bytes5bytes5BytesINtNtCs8GO9KFlE3Dq_5alloc5boxed3BoxDNtNtCs2va5m0jqTTM_4core5error5ErrorNtNtB4j_6marker4SendNtB4Q_4SyncEL_EEE12send_request0INtNtB4j_6result6ResultINtNtCsjFxw70quGA5_4http8response8ResponseNtNtNtB15_4body8incoming8IncomingENtNtB15_5error5ErrorEECsddhi0hNOal7_5lb_l7
FN:183,_RNCINvNtCs4GBZUaiPV4D_5lb_io9idle_send12poll_fn_sendNCNvMs0_NtNtNtCsgB3dp6qvXvn_5hyper6client4conn5http1INtBW_11SendRequestINtNtNtCsedaG9KDMExI_14http_body_util11combinators8box_body7BoxBodyNtNtCs7xJyEqPIUa9_5bytes5bytes5BytesNtNtCsddhi0hNOal7_5lb_l78h1_proxy11H1PumpAbortEE12send_request0E0B3G_
FN:183,_RNCINvNtCs4GBZUaiPV4D_5lb_io9idle_send12poll_fn_sendNCNvMs0_NtNtNtCsgB3dp6qvXvn_5hyper6client4conn5http1INtBW_11SendRequestINtNtNtCsedaG9KDMExI_14http_body_util11combinators8box_body7BoxBodyNtNtCs7xJyEqPIUa9_5bytes5bytes5BytesNtNtCsddhi0hNOal7_5lb_l78h2_proxy9PumpAbortEE12send_request0E0B3G_
FN:183,_RNCINvNtCs4GBZUaiPV4D_5lb_io9idle_send12poll_fn_sendNCNvMs0_NtNtNtCsgB3dp6qvXvn_5hyper6client4conn5http2INtBW_11SendRequestINtNtNtCsedaG9KDMExI_14http_body_util11combinators8box_body7BoxBodyNtNtCs7xJyEqPIUa9_5bytes5bytes5BytesINtNtCs8GO9KFlE3Dq_5alloc5boxed3BoxDNtNtCs2va5m0jqTTM_4core5error5ErrorNtNtB4g_6marker4SendNtB4N_4SyncEL_EEE12send_request0E0Csddhi0hNOal7_5lb_l7
FN:103,_RNCINvNtCs4GBZUaiPV4D_5lb_io9idle_send17idle_bounded_sendNCNvMs0_NtNtNtCsgB3dp6qvXvn_5hyper6client4conn5http1INtB11_11SendRequestINtNtNtCsedaG9KDMExI_14http_body_util11combinators8box_body7BoxBodyNtNtCs7xJyEqPIUa9_5bytes5bytes5BytesNtNtCsddhi0hNOal7_5lb_l78h1_proxy11H1PumpAbortEE12send_request0INtNtCs2va5m0jqTTM_4core6result6ResultINtNtCsjFxw70quGA5_4http8response8ResponseNtNtNtB17_4body8incoming8IncomingENtNtB17_5error5ErrorEE0B3M_
FN:103,_RNCINvNtCs4GBZUaiPV4D_5lb_io9idle_send17idle_bounded_sendNCNvMs0_NtNtNtCsgB3dp6qvXvn_5hyper6client4conn5http1INtB11_11SendRequestINtNtNtCsedaG9KDMExI_14http_body_util11combinators8box_body7BoxBodyNtNtCs7xJyEqPIUa9_5bytes5bytes5BytesNtNtCsddhi0hNOal7_5lb_l78h2_proxy9PumpAbortEE12send_request0INtNtCs2va5m0jqTTM_4core6result6ResultINtNtCsjFxw70quGA5_4http8response8ResponseNtNtNtB17_4body8incoming8IncomingENtNtB17_5error5ErrorEE0B3M_
FN:103,_RNCINvNtCs4GBZUaiPV4D_5lb_io9idle_send17idle_bounded_sendNCNvMs0_NtNtNtCsgB3dp6qvXvn_5hyper6client4conn5http2INtB11_11SendRequestINtNtNtCsedaG9KDMExI_14http_body_util11combinators8box_body7BoxBodyNtNtCs7xJyEqPIUa9_5bytes5bytes5BytesINtNtCs8GO9KFlE3Dq_5alloc5boxed3BoxDNtNtCs2va5m0jqTTM_4core5error5ErrorNtNtB4m_6marker4SendNtB4T_4SyncEL_EEE12send_request0INtNtB4m_6result6ResultINtNtCsjFxw70quGA5_4http8response8ResponseNtNtNtB17_4body8incoming8IncomingENtNtB17_5error5ErrorEE0Csddhi0hNOal7_5lb_l7
FN:184,_RNCNCINvNtCs4GBZUaiPV4D_5lb_io9idle_send12poll_fn_sendNCNvMs0_NtNtNtCsgB3dp6qvXvn_5hyper6client4conn5http1INtBY_11SendRequestINtNtNtCsedaG9KDMExI_14http_body_util11combinators8box_body7BoxBodyNtNtCs7xJyEqPIUa9_5bytes5bytes5BytesNtNtCsddhi0hNOal7_5lb_l78h1_proxy11H1PumpAbortEE12send_request0E00B3I_
FN:184,_RNCNCINvNtCs4GBZUaiPV4D_5lb_io9idle_send12poll_fn_sendNCNvMs0_NtNtNtCsgB3dp6qvXvn_5hyper6client4conn5http1INtBY_11SendRequestINtNtNtCsedaG9KDMExI_14http_body_util11combinators8box_body7BoxBodyNtNtCs7xJyEqPIUa9_5bytes5bytes5BytesNtNtCsddhi0hNOal7_5lb_l78h2_proxy9PumpAbortEE12send_request0E00B3I_
FN:184,_RNCNCINvNtCs4GBZUaiPV4D_5lb_io9idle_send12poll_fn_sendNCNvMs0_NtNtNtCsgB3dp6qvXvn_5hyper6client4conn5http2INtBY_11SendRequestINtNtNtCsedaG9KDMExI_14http_body_util11combinators8box_body7BoxBodyNtNtCs7xJyEqPIUa9_5bytes5bytes5BytesINtNtCs8GO9KFlE3Dq_5alloc5boxed3BoxDNtNtCs2va5m0jqTTM_4core5error5ErrorNtNtB4i_6marker4SendNtB4P_4SyncEL_EEE12send_request0E00Csddhi0hNOal7_5lb_l7
FN:121,_RNCNCINvNtCs4GBZUaiPV4D_5lb_io9idle_send17idle_bounded_sendNCNvMs0_NtNtNtCsgB3dp6qvXvn_5hyper6client4conn5http1INtB13_11SendRequestINtNtNtCsedaG9KDMExI_14http_body_util11combinators8box_body7BoxBodyNtNtCs7xJyEqPIUa9_5bytes5bytes5BytesNtNtCsddhi0hNOal7_5lb_l78h1_proxy11H1PumpAbortEE12send_request0INtNtCs2va5m0jqTTM_4core6result6ResultINtNtCsjFxw70quGA5_4http8response8ResponseNtNtNtB19_4body8incoming8IncomingENtNtB19_5error5ErrorEE00B3O_
FN:121,_RNCNCINvNtCs4GBZUaiPV4D_5lb_io9idle_send17idle_bounded_sendNCNvMs0_NtNtNtCsgB3dp6qvXvn_5hyper6client4conn5http1INtB13_11SendRequestINtNtNtCsedaG9KDMExI_14http_body_util11combinators8box_body7BoxBodyNtNtCs7xJyEqPIUa9_5bytes5bytes5BytesNtNtCsddhi0hNOal7_5lb_l78h2_proxy9PumpAbortEE12send_request0INtNtCs2va5m0jqTTM_4core6result6ResultINtNtCsjFxw70quGA5_4http8response8ResponseNtNtNtB19_4body8incoming8IncomingENtNtB19_5error5ErrorEE00B3O_
FN:121,_RNCNCINvNtCs4GBZUaiPV4D_5lb_io9idle_send17idle_bounded_sendNCNvMs0_NtNtNtCsgB3dp6qvXvn_5hyper6client4conn5http2INtB13_11SendRequestINtNtNtCsedaG9KDMExI_14http_body_util11combinators8box_body7BoxBodyNtNtCs7xJyEqPIUa9_5bytes5bytes5BytesINtNtCs8GO9KFlE3Dq_5alloc5boxed3BoxDNtNtCs2va5m0jqTTM_4core5error5ErrorNtNtB4o_6marker4SendNtB4V_4SyncEL_EEE12send_request0INtNtB4o_6result6ResultINtNtCsjFxw70quGA5_4http8response8ResponseNtNtNtB19_4body8incoming8IncomingENtNtB19_5error5ErrorEE00Csddhi0hNOal7_5lb_l7
FNDA:59,_RINvNtCs4GBZUaiPV4D_5lb_io9idle_send12poll_fn_sendNCNvMs0_NtNtNtCsgB3dp6qvXvn_5hyper6client4conn5http1INtBU_11SendRequestINtNtNtCsedaG9KDMExI_14http_body_util11combinators8box_body7BoxBodyNtNtCs7xJyEqPIUa9_5bytes5bytes5BytesNtNtCs6ZJAmc5l35e_5lb_l78h1_proxy11H1PumpAbortEE12send_request0EB3E_
FNDA:19,_RINvNtCs4GBZUaiPV4D_5lb_io9idle_send12poll_fn_sendNCNvMs0_NtNtNtCsgB3dp6qvXvn_5hyper6client4conn5http1INtBU_11SendRequestINtNtNtCsedaG9KDMExI_14http_body_util11combinators8box_body7BoxBodyNtNtCs7xJyEqPIUa9_5bytes5bytes5BytesNtNtCs6ZJAmc5l35e_5lb_l78h2_proxy9PumpAbortEE12send_request0EB3E_
FNDA:95,_RINvNtCs4GBZUaiPV4D_5lb_io9idle_send12poll_fn_sendNCNvMs0_NtNtNtCsgB3dp6qvXvn_5hyper6client4conn5http2INtBU_11SendRequestINtNtNtCsedaG9KDMExI_14http_body_util11combinators8box_body7BoxBodyNtNtCs7xJyEqPIUa9_5bytes5bytes5BytesINtNtCs8GO9KFlE3Dq_5alloc5boxed3BoxDNtNtCs2va5m0jqTTM_4core5error5ErrorNtNtB4e_6marker4SendNtB4L_4SyncEL_EEE12send_request0ECs6ZJAmc5l35e_5lb_l7
FNDA:55,_RINvNtCs4GBZUaiPV4D_5lb_io9idle_send17idle_bounded_sendNCNvMs0_NtNtNtCsgB3dp6qvXvn_5hyper6client4conn5http1INtBZ_11SendRequestINtNtNtCsedaG9KDMExI_14http_body_util11combinators8box_body7BoxBodyNtNtCs7xJyEqPIUa9_5bytes5bytes5BytesNtNtCs6ZJAmc5l35e_5lb_l78h1_proxy11H1PumpAbortEE12send_request0INtNtCs2va5m0jqTTM_4core6result6ResultINtNtCsjFxw70quGA5_4http8response8ResponseNtNtNtB15_4body8incoming8IncomingENtNtB15_5error5ErrorEEB3J_
FNDA:19,_RINvNtCs4GBZUaiPV4D_5lb_io9idle_send17idle_bounded_sendNCNvMs0_NtNtNtCsgB3dp6qvXvn_5hyper6client4conn5http1INtBZ_11SendRequestINtNtNtCsedaG9KDMExI_14http_body_util11combinators8box_body7BoxBodyNtNtCs7xJyEqPIUa9_5bytes5bytes5BytesNtNtCs6ZJAmc5l35e_5lb_l78h2_proxy9PumpAbortEE12send_request0INtNtCs2va5m0jqTTM_4core6result6ResultINtNtCsjFxw70quGA5_4http8response8ResponseNtNtNtB15_4body8incoming8IncomingENtNtB15_5error5ErrorEEB3J_
FNDA:95,_RINvNtCs4GBZUaiPV4D_5lb_io9idle_send17idle_bounded_sendNCNvMs0_NtNtNtCsgB3dp6qvXvn_5hyper6client4conn5http2INtBZ_11SendRequestINtNtNtCsedaG9KDMExI_14http_body_util11combinators8box_body7BoxBodyNtNtCs7xJyEqPIUa9_5bytes5bytes5BytesINtNtCs8GO9KFlE3Dq_5alloc5boxed3BoxDNtNtCs2va5m0jqTTM_4core5error5ErrorNtNtB4j_6marker4SendNtB4Q_4SyncEL_EEE12send_request0INtNtB4j_6result6ResultINtNtCsjFxw70quGA5_4http8response8ResponseNtNtNtB15_4body8incoming8IncomingENtNtB15_5error5ErrorEECs6ZJAmc5l35e_5lb_l7
FNDA:59,_RNCINvNtCs4GBZUaiPV4D_5lb_io9idle_send12poll_fn_sendNCNvMs0_NtNtNtCsgB3dp6qvXvn_5hyper6client4conn5http1INtBW_11SendRequestINtNtNtCsedaG9KDMExI_14http_body_util11combinators8box_body7BoxBodyNtNtCs7xJyEqPIUa9_5bytes5bytes5BytesNtNtCs6ZJAmc5l35e_5lb_l78h1_proxy11H1PumpAbortEE12send_request0E0B3G_
FNDA:19,_RNCINvNtCs4GBZUaiPV4D_5lb_io9idle_send12poll_fn_sendNCNvMs0_NtNtNtCsgB3dp6qvXvn_5hyper6client4conn5http1INtBW_11SendRequestINtNtNtCsedaG9KDMExI_14http_body_util11combinators8box_body7BoxBodyNtNtCs7xJyEqPIUa9_5bytes5bytes5BytesNtNtCs6ZJAmc5l35e_5lb_l78h2_proxy9PumpAbortEE12send_request0E0B3G_
FNDA:95,_RNCINvNtCs4GBZUaiPV4D_5lb_io9idle_send12poll_fn_sendNCNvMs0_NtNtNtCsgB3dp6qvXvn_5hyper6client4conn5http2INtBW_11SendRequestINtNtNtCsedaG9KDMExI_14http_body_util11combinators8box_body7BoxBodyNtNtCs7xJyEqPIUa9_5bytes5bytes5BytesINtNtCs8GO9KFlE3Dq_5alloc5boxed3BoxDNtNtCs2va5m0jqTTM_4core5error5ErrorNtNtB4g_6marker4SendNtB4N_4SyncEL_EEE12send_request0E0Cs6ZJAmc5l35e_5lb_l7
FNDA:55,_RNCINvNtCs4GBZUaiPV4D_5lb_io9idle_send17idle_bounded_sendNCNvMs0_NtNtNtCsgB3dp6qvXvn_5hyper6client4conn5http1INtB11_11SendRequestINtNtNtCsedaG9KDMExI_14http_body_util11combinators8box_body7BoxBodyNtNtCs7xJyEqPIUa9_5bytes5bytes5BytesNtNtCs6ZJAmc5l35e_5lb_l78h1_proxy11H1PumpAbortEE12send_request0INtNtCs2va5m0jqTTM_4core6result6ResultINtNtCsjFxw70quGA5_4http8response8ResponseNtNtNtB17_4body8incoming8IncomingENtNtB17_5error5ErrorEE0B3M_
FNDA:19,_RNCINvNtCs4GBZUaiPV4D_5lb_io9idle_send17idle_bounded_sendNCNvMs0_NtNtNtCsgB3dp6qvXvn_5hyper6client4conn5http1INtB11_11SendRequestINtNtNtCsedaG9KDMExI_14http_body_util11combinators8box_body7BoxBodyNtNtCs7xJyEqPIUa9_5bytes5bytes5BytesNtNtCs6ZJAmc5l35e_5lb_l78h2_proxy9PumpAbortEE12send_request0INtNtCs2va5m0jqTTM_4core6result6ResultINtNtCsjFxw70quGA5_4http8response8ResponseNtNtNtB17_4body8incoming8IncomingENtNtB17_5error5ErrorEE0B3M_
FNDA:95,_RNCINvNtCs4GBZUaiPV4D_5lb_io9idle_send17idle_bounded_sendNCNvMs0_NtNtNtCsgB3dp6qvXvn_5hyper6client4conn5http2INtB11_11SendRequestINtNtNtCsedaG9KDMExI_14http_body_util11combinators8box_body7BoxBodyNtNtCs7xJyEqPIUa9_5bytes5bytes5BytesINtNtCs8GO9KFlE3Dq_5alloc5boxed3BoxDNtNtCs2va5m0jqTTM_4core5error5ErrorNtNtB4m_6marker4SendNtB4T_4SyncEL_EEE12send_request0INtNtB4m_6result6ResultINtNtCsjFxw70quGA5_4http8response8ResponseNtNtNtB17_4body8incoming8IncomingENtNtB17_5error5ErrorEE0Cs6ZJAmc5l35e_5lb_l7
FNDA:10549,_RNCNCINvNtCs4GBZUaiPV4D_5lb_io9idle_send12poll_fn_sendNCNvMs0_NtNtNtCsgB3dp6qvXvn_5hyper6client4conn5http1INtBY_11SendRequestINtNtNtCsedaG9KDMExI_14http_body_util11combinators8box_body7BoxBodyNtNtCs7xJyEqPIUa9_5bytes5bytes5BytesNtNtCs6ZJAmc5l35e_5lb_l78h1_proxy11H1PumpAbortEE12send_request0E00B3I_
FNDA:37,_RNCNCINvNtCs4GBZUaiPV4D_5lb_io9idle_send12poll_fn_sendNCNvMs0_NtNtNtCsgB3dp6qvXvn_5hyper6client4conn5http1INtBY_11SendRequestINtNtNtCsedaG9KDMExI_14http_body_util11combinators8box_body7BoxBodyNtNtCs7xJyEqPIUa9_5bytes5bytes5BytesNtNtCs6ZJAmc5l35e_5lb_l78h2_proxy9PumpAbortEE12send_request0E00B3I_
FNDA:126,_RNCNCINvNtCs4GBZUaiPV4D_5lb_io9idle_send12poll_fn_sendNCNvMs0_NtNtNtCsgB3dp6qvXvn_5hyper6client4conn5http2INtBY_11SendRequestINtNtNtCsedaG9KDMExI_14http_body_util11combinators8box_body7BoxBodyNtNtCs7xJyEqPIUa9_5bytes5bytes5BytesINtNtCs8GO9KFlE3Dq_5alloc5boxed3BoxDNtNtCs2va5m0jqTTM_4core5error5ErrorNtNtB4i_6marker4SendNtB4P_4SyncEL_EEE12send_request0E00Cs6ZJAmc5l35e_5lb_l7
FNDA:1,_RNCNCINvNtCs4GBZUaiPV4D_5lb_io9idle_send17idle_bounded_sendNCNvMs0_NtNtNtCsgB3dp6qvXvn_5hyper6client4conn5http1INtB13_11SendRequestINtNtNtCsedaG9KDMExI_14http_body_util11combinators8box_body7BoxBodyNtNtCs7xJyEqPIUa9_5bytes5bytes5BytesNtNtCs6ZJAmc5l35e_5lb_l78h1_proxy11H1PumpAbortEE12send_request0INtNtCs2va5m0jqTTM_4core6result6ResultINtNtCsjFxw70quGA5_4http8response8ResponseNtNtNtB19_4body8incoming8IncomingENtNtB19_5error5ErrorEE00B3O_
FNDA:0,_RNCNCINvNtCs4GBZUaiPV4D_5lb_io9idle_send17idle_bounded_sendNCNvMs0_NtNtNtCsgB3dp6qvXvn_5hyper6client4conn5http1INtB13_11SendRequestINtNtNtCsedaG9KDMExI_14http_body_util11combinators8box_body7BoxBodyNtNtCs7xJyEqPIUa9_5bytes5bytes5BytesNtNtCs6ZJAmc5l35e_5lb_l78h2_proxy9PumpAbortEE12send_request0INtNtCs2va5m0jqTTM_4core6result6ResultINtNtCsjFxw70quGA5_4http8response8ResponseNtNtNtB19_4body8incoming8IncomingENtNtB19_5error5ErrorEE00B3O_
FNDA:0,_RNCNCINvNtCs4GBZUaiPV4D_5lb_io9idle_send17idle_bounded_sendNCNvMs0_NtNtNtCsgB3dp6qvXvn_5hyper6client4conn5http2INtB13_11SendRequestINtNtNtCsedaG9KDMExI_14http_body_util11combinators8box_body7BoxBodyNtNtCs7xJyEqPIUa9_5bytes5bytes5BytesINtNtCs8GO9KFlE3Dq_5alloc5boxed3BoxDNtNtCs2va5m0jqTTM_4core5error5ErrorNtNtB4o_6marker4SendNtB4V_4SyncEL_EEE12send_request0INtNtB4o_6result6ResultINtNtCsjFxw70quGA5_4http8response8ResponseNtNtNtB19_4body8incoming8IncomingENtNtB19_5error5ErrorEE00Cs6ZJAmc5l35e_5lb_l7
FNDA:0,_RINvNtCs4GBZUaiPV4D_5lb_io9idle_send12poll_fn_sendpEB4_
FNDA:0,_RINvNtCs4GBZUaiPV4D_5lb_io9idle_send17idle_bounded_sendppEB4_
FNDA:0,_RNCINvNtCs4GBZUaiPV4D_5lb_io9idle_send12poll_fn_sendpE0B6_
FNDA:0,_RNCINvNtCs4GBZUaiPV4D_5lb_io9idle_send17idle_bounded_sendppE0B6_
FNDA:0,_RNCNCINvNtCs4GBZUaiPV4D_5lb_io9idle_send12poll_fn_sendpE00B8_
FNDA:0,_RNCNCINvNtCs4GBZUaiPV4D_5lb_io9idle_send17idle_bounded_sendppE00B8_
FNDA:11,_RNvNtNtCs450l62AvZFl_5lb_io9idle_send5tests11bump_to_now
FNDA:8,_RNvNtNtCs450l62AvZFl_5lb_io9idle_send5tests5fresh
FNDA:1,_RNvNtNtCs450l62AvZFl_5lb_io9idle_send5testss_23arm_vi_late_bump_rearms
FNDA:1,_RNvNtNtCs450l62AvZFl_5lb_io9idle_send5testss_25arm_vii_tick_race_recheck
FNDA:1,_RNvNtNtCs450l62AvZFl_5lb_io9idle_send5testss_27arm_ii_immediate_wedge_idle
FNDA:1,_RNvNtNtCs450l62AvZFl_5lb_io9idle_send5testss_27arm_v_zero_bump_scaled_idle
FNDA:1,_RNvNtNtCs450l62AvZFl_5lb_io9idle_send5testss_32arm_i_chunked_progress_completes
FNDA:1,_RNvNtNtCs450l62AvZFl_5lb_io9idle_send5testss_39arm_iv_complete_then_fast_head_succeeds
FNDA:1,_RNvNtNtCs450l62AvZFl_5lb_io9idle_send5testss_42arm_iii_complete_then_slow_head_fires_head
FNDA:1,_RNvNtNtCs450l62AvZFl_5lb_io9idle_send5testss_53arm_ix_lp_zero_bump_then_complete_fires_head_not_idle
FNDA:1,_RNCNCNvNtNtCs450l62AvZFl_5lb_io9idle_send5testss_23arm_vi_late_bump_rearms00B9_
FNDA:1,_RNCNCNvNtNtCs450l62AvZFl_5lb_io9idle_send5testss_25arm_vii_tick_race_recheck00B9_
FNDA:1,_RNCNCNvNtNtCs450l62AvZFl_5lb_io9idle_send5testss_32arm_i_chunked_progress_completes00B9_
FNDA:1,_RNCNCNvNtNtCs450l62AvZFl_5lb_io9idle_send5testss_32arm_i_chunked_progress_completes0s_0B9_
FNDA:1,_RNCNCNvNtNtCs450l62AvZFl_5lb_io9idle_send5testss_39arm_iv_complete_then_fast_head_succeeds00B9_
FNDA:1,_RNCNCNvNtNtCs450l62AvZFl_5lb_io9idle_send5testss_39arm_iv_complete_then_fast_head_succeeds0s_0B9_
FNDA:1,_RNCNCNvNtNtCs450l62AvZFl_5lb_io9idle_send5testss_42arm_iii_complete_then_slow_head_fires_head00B9_
FNDA:1,_RNCNCNvNtNtCs450l62AvZFl_5lb_io9idle_send5testss_53arm_ix_lp_zero_bump_then_complete_fires_head_not_idle00B9_
FNDA:1,_RNCNvNtNtCs450l62AvZFl_5lb_io9idle_send5testss_23arm_vi_late_bump_rearms0B7_
FNDA:1,_RNCNvNtNtCs450l62AvZFl_5lb_io9idle_send5testss_25arm_vii_tick_race_recheck0B7_
FNDA:1,_RNCNvNtNtCs450l62AvZFl_5lb_io9idle_send5testss_27arm_ii_immediate_wedge_idle0B7_
FNDA:1,_RNCNvNtNtCs450l62AvZFl_5lb_io9idle_send5testss_27arm_v_zero_bump_scaled_idle0B7_
FNDA:1,_RNCNvNtNtCs450l62AvZFl_5lb_io9idle_send5testss_32arm_i_chunked_progress_completes0B7_
FNDA:1,_RNCNvNtNtCs450l62AvZFl_5lb_io9idle_send5testss_39arm_iv_complete_then_fast_head_succeeds0B7_
FNDA:1,_RNCNvNtNtCs450l62AvZFl_5lb_io9idle_send5testss_42arm_iii_complete_then_slow_head_fires_head0B7_
FNDA:1,_RNCNvNtNtCs450l62AvZFl_5lb_io9idle_send5testss_53arm_ix_lp_zero_bump_then_complete_fires_head_not_idle0B7_
FNDA:10,_RINvNtCs450l62AvZFl_5lb_io9idle_send12poll_fn_sendINtNtNtCs2va5m0jqTTM_4core6future7pending7PendingmEEB4_
FNDA:6,_RINvNtCs450l62AvZFl_5lb_io9idle_send12poll_fn_sendNCNCNvNtB2_5testss_32arm_i_chunked_progress_completes0s_0EB4_
FNDA:1,_RINvNtCs450l62AvZFl_5lb_io9idle_send12poll_fn_sendNCNCNvNtB2_5testss_39arm_iv_complete_then_fast_head_succeeds0s_0EB4_
FNDA:3,_RINvNtCs450l62AvZFl_5lb_io9idle_send12poll_fn_sendNCNvMs0_NtNtNtCsgB3dp6qvXvn_5hyper6client4conn5http2INtBU_11SendRequestINtNtNtCsedaG9KDMExI_14http_body_util11combinators8box_body7BoxBodyNtNtCs7xJyEqPIUa9_5bytes5bytes5BytesINtNtCs8GO9KFlE3Dq_5alloc5boxed3BoxDNtNtCs2va5m0jqTTM_4core5error5ErrorNtNtB4e_6marker4SendNtB4L_4SyncEL_EEE12send_request0EB4_
FNDA:6,_RINvNtCs450l62AvZFl_5lb_io9idle_send17idle_bounded_sendINtNtNtCs2va5m0jqTTM_4core6future7pending7PendingmEmEB4_
FNDA:1,_RINvNtCs450l62AvZFl_5lb_io9idle_send17idle_bounded_sendNCNCNvNtB2_5testss_32arm_i_chunked_progress_completes0s_0mEB4_
FNDA:1,_RINvNtCs450l62AvZFl_5lb_io9idle_send17idle_bounded_sendNCNCNvNtB2_5testss_39arm_iv_complete_then_fast_head_succeeds0s_0mEB4_
FNDA:3,_RINvNtCs450l62AvZFl_5lb_io9idle_send17idle_bounded_sendNCNvMs0_NtNtNtCsgB3dp6qvXvn_5hyper6client4conn5http2INtBZ_11SendRequestINtNtNtCsedaG9KDMExI_14http_body_util11combinators8box_body7BoxBodyNtNtCs7xJyEqPIUa9_5bytes5bytes5BytesINtNtCs8GO9KFlE3Dq_5alloc5boxed3BoxDNtNtCs2va5m0jqTTM_4core5error5ErrorNtNtB4j_6marker4SendNtB4Q_4SyncEL_EEE12send_request0INtNtB4j_6result6ResultINtNtCsjFxw70quGA5_4http8response8ResponseNtNtNtB15_4body8incoming8IncomingENtNtB15_5error5ErrorEEB4_
FNDA:10,_RNCINvNtCs450l62AvZFl_5lb_io9idle_send12poll_fn_sendINtNtNtCs2va5m0jqTTM_4core6future7pending7PendingmEE0B6_
FNDA:6,_RNCINvNtCs450l62AvZFl_5lb_io9idle_send12poll_fn_sendNCNCNvNtB4_5testss_32arm_i_chunked_progress_completes0s_0E0B6_
FNDA:1,_RNCINvNtCs450l62AvZFl_5lb_io9idle_send12poll_fn_sendNCNCNvNtB4_5testss_39arm_iv_complete_then_fast_head_succeeds0s_0E0B6_
FNDA:3,_RNCINvNtCs450l62AvZFl_5lb_io9idle_send12poll_fn_sendNCNvMs0_NtNtNtCsgB3dp6qvXvn_5hyper6client4conn5http2INtBW_11SendRequestINtNtNtCsedaG9KDMExI_14http_body_util11combinators8box_body7BoxBodyNtNtCs7xJyEqPIUa9_5bytes5bytes5BytesINtNtCs8GO9KFlE3Dq_5alloc5boxed3BoxDNtNtCs2va5m0jqTTM_4core5error5ErrorNtNtB4g_6marker4SendNtB4N_4SyncEL_EEE12send_request0E0B6_
FNDA:6,_RNCINvNtCs450l62AvZFl_5lb_io9idle_send17idle_bounded_sendINtNtNtCs2va5m0jqTTM_4core6future7pending7PendingmEmE0B6_
FNDA:1,_RNCINvNtCs450l62AvZFl_5lb_io9idle_send17idle_bounded_sendNCNCNvNtB4_5testss_32arm_i_chunked_progress_completes0s_0mE0B6_
FNDA:1,_RNCINvNtCs450l62AvZFl_5lb_io9idle_send17idle_bounded_sendNCNCNvNtB4_5testss_39arm_iv_complete_then_fast_head_succeeds0s_0mE0B6_
FNDA:3,_RNCINvNtCs450l62AvZFl_5lb_io9idle_send17idle_bounded_sendNCNvMs0_NtNtNtCsgB3dp6qvXvn_5hyper6client4conn5http2INtB11_11SendRequestINtNtNtCsedaG9KDMExI_14http_body_util11combinators8box_body7BoxBodyNtNtCs7xJyEqPIUa9_5bytes5bytes5BytesINtNtCs8GO9KFlE3Dq_5alloc5boxed3BoxDNtNtCs2va5m0jqTTM_4core5error5ErrorNtNtB4m_6marker4SendNtB4T_4SyncEL_EEE12send_request0INtNtB4m_6result6ResultINtNtCsjFxw70quGA5_4http8response8ResponseNtNtNtB17_4body8incoming8IncomingENtNtB17_5error5ErrorEE0B6_
FNDA:20,_RNCNCINvNtCs450l62AvZFl_5lb_io9idle_send12poll_fn_sendINtNtNtCs2va5m0jqTTM_4core6future7pending7PendingmEE00B8_
FNDA:12,_RNCNCINvNtCs450l62AvZFl_5lb_io9idle_send12poll_fn_sendNCNCNvNtB6_5testss_32arm_i_chunked_progress_completes0s_0E00B8_
FNDA:2,_RNCNCINvNtCs450l62AvZFl_5lb_io9idle_send12poll_fn_sendNCNCNvNtB6_5testss_39arm_iv_complete_then_fast_head_succeeds0s_0E00B8_
FNDA:6,_RNCNCINvNtCs450l62AvZFl_5lb_io9idle_send12poll_fn_sendNCNvMs0_NtNtNtCsgB3dp6qvXvn_5hyper6client4conn5http2INtBY_11SendRequestINtNtNtCsedaG9KDMExI_14http_body_util11combinators8box_body7BoxBodyNtNtCs7xJyEqPIUa9_5bytes5bytes5BytesINtNtCs8GO9KFlE3Dq_5alloc5boxed3BoxDNtNtCs2va5m0jqTTM_4core5error5ErrorNtNtB4i_6marker4SendNtB4P_4SyncEL_EEE12send_request0E00B8_
FNDA:2,_RNCNCINvNtCs450l62AvZFl_5lb_io9idle_send17idle_bounded_sendINtNtNtCs2va5m0jqTTM_4core6future7pending7PendingmEmE00B8_
FNDA:0,_RNCNCINvNtCs450l62AvZFl_5lb_io9idle_send17idle_bounded_sendNCNCNvNtB6_5testss_32arm_i_chunked_progress_completes0s_0mE00B8_
FNDA:0,_RNCNCINvNtCs450l62AvZFl_5lb_io9idle_send17idle_bounded_sendNCNCNvNtB6_5testss_39arm_iv_complete_then_fast_head_succeeds0s_0mE00B8_
FNDA:2,_RNCNCINvNtCs450l62AvZFl_5lb_io9idle_send17idle_bounded_sendNCNvMs0_NtNtNtCsgB3dp6qvXvn_5hyper6client4conn5http2INtB13_11SendRequestINtNtNtCsedaG9KDMExI_14http_body_util11combinators8box_body7BoxBodyNtNtCs7xJyEqPIUa9_5bytes5bytes5BytesINtNtCs8GO9KFlE3Dq_5alloc5boxed3BoxDNtNtCs2va5m0jqTTM_4core5error5ErrorNtNtB4o_6marker4SendNtB4V_4SyncEL_EEE12send_request0INtNtB4o_6result6ResultINtNtCsjFxw70quGA5_4http8response8ResponseNtNtNtB19_4body8incoming8IncomingENtNtB19_5error5ErrorEE00B8_
FNDA:0,_RINvNtCs4GBZUaiPV4D_5lb_io9idle_send12poll_fn_sendNCNvMs0_NtNtNtCsgB3dp6qvXvn_5hyper6client4conn5http1INtBU_11SendRequestINtNtNtCsedaG9KDMExI_14http_body_util11combinators8box_body7BoxBodyNtNtCs7xJyEqPIUa9_5bytes5bytes5BytesNtNtCsddhi0hNOal7_5lb_l78h1_proxy11H1PumpAbortEE12send_request0EB3E_
FNDA:0,_RINvNtCs4GBZUaiPV4D_5lb_io9idle_send12poll_fn_sendNCNvMs0_NtNtNtCsgB3dp6qvXvn_5hyper6client4conn5http1INtBU_11SendRequestINtNtNtCsedaG9KDMExI_14http_body_util11combinators8box_body7BoxBodyNtNtCs7xJyEqPIUa9_5bytes5bytes5BytesNtNtCsddhi0hNOal7_5lb_l78h2_proxy9PumpAbortEE12send_request0EB3E_
FNDA:0,_RINvNtCs4GBZUaiPV4D_5lb_io9idle_send12poll_fn_sendNCNvMs0_NtNtNtCsgB3dp6qvXvn_5hyper6client4conn5http2INtBU_11SendRequestINtNtNtCsedaG9KDMExI_14http_body_util11combinators8box_body7BoxBodyNtNtCs7xJyEqPIUa9_5bytes5bytes5BytesINtNtCs8GO9KFlE3Dq_5alloc5boxed3BoxDNtNtCs2va5m0jqTTM_4core5error5ErrorNtNtB4e_6marker4SendNtB4L_4SyncEL_EEE12send_request0ECsddhi0hNOal7_5lb_l7
FNDA:0,_RINvNtCs4GBZUaiPV4D_5lb_io9idle_send17idle_bounded_sendNCNvMs0_NtNtNtCsgB3dp6qvXvn_5hyper6client4conn5http1INtBZ_11SendRequestINtNtNtCsedaG9KDMExI_14http_body_util11combinators8box_body7BoxBodyNtNtCs7xJyEqPIUa9_5bytes5bytes5BytesNtNtCsddhi0hNOal7_5lb_l78h1_proxy11H1PumpAbortEE12send_request0INtNtCs2va5m0jqTTM_4core6result6ResultINtNtCsjFxw70quGA5_4http8response8ResponseNtNtNtB15_4body8incoming8IncomingENtNtB15_5error5ErrorEEB3J_
FNDA:0,_RINvNtCs4GBZUaiPV4D_5lb_io9idle_send17idle_bounded_sendNCNvMs0_NtNtNtCsgB3dp6qvXvn_5hyper6client4conn5http1INtBZ_11SendRequestINtNtNtCsedaG9KDMExI_14http_body_util11combinators8box_body7BoxBodyNtNtCs7xJyEqPIUa9_5bytes5bytes5BytesNtNtCsddhi0hNOal7_5lb_l78h2_proxy9PumpAbortEE12send_request0INtNtCs2va5m0jqTTM_4core6result6ResultINtNtCsjFxw70quGA5_4http8response8ResponseNtNtNtB15_4body8incoming8IncomingENtNtB15_5error5ErrorEEB3J_
FNDA:0,_RINvNtCs4GBZUaiPV4D_5lb_io9idle_send17idle_bounded_sendNCNvMs0_NtNtNtCsgB3dp6qvXvn_5hyper6client4conn5http2INtBZ_11SendRequestINtNtNtCsedaG9KDMExI_14http_body_util11combinators8box_body7BoxBodyNtNtCs7xJyEqPIUa9_5bytes5bytes5BytesINtNtCs8GO9KFlE3Dq_5alloc5boxed3BoxDNtNtCs2va5m0jqTTM_4core5error5ErrorNtNtB4j_6marker4SendNtB4Q_4SyncEL_EEE12send_request0INtNtB4j_6result6ResultINtNtCsjFxw70quGA5_4http8response8ResponseNtNtNtB15_4body8incoming8IncomingENtNtB15_5error5ErrorEECsddhi0hNOal7_5lb_l7
FNDA:0,_RNCINvNtCs4GBZUaiPV4D_5lb_io9idle_send12poll_fn_sendNCNvMs0_NtNtNtCsgB3dp6qvXvn_5hyper6client4conn5http1INtBW_11SendRequestINtNtNtCsedaG9KDMExI_14http_body_util11combinators8box_body7BoxBodyNtNtCs7xJyEqPIUa9_5bytes5bytes5BytesNtNtCsddhi0hNOal7_5lb_l78h1_proxy11H1PumpAbortEE12send_request0E0B3G_
FNDA:0,_RNCINvNtCs4GBZUaiPV4D_5lb_io9idle_send12poll_fn_sendNCNvMs0_NtNtNtCsgB3dp6qvXvn_5hyper6client4conn5http1INtBW_11SendRequestINtNtNtCsedaG9KDMExI_14http_body_util11combinators8box_body7BoxBodyNtNtCs7xJyEqPIUa9_5bytes5bytes5BytesNtNtCsddhi0hNOal7_5lb_l78h2_proxy9PumpAbortEE12send_request0E0B3G_
FNDA:0,_RNCINvNtCs4GBZUaiPV4D_5lb_io9idle_send12poll_fn_sendNCNvMs0_NtNtNtCsgB3dp6qvXvn_5hyper6client4conn5http2INtBW_11SendRequestINtNtNtCsedaG9KDMExI_14http_body_util11combinators8box_body7BoxBodyNtNtCs7xJyEqPIUa9_5bytes5bytes5BytesINtNtCs8GO9KFlE3Dq_5alloc5boxed3BoxDNtNtCs2va5m0jqTTM_4core5error5ErrorNtNtB4g_6marker4SendNtB4N_4SyncEL_EEE12send_request0E0Csddhi0hNOal7_5lb_l7
FNDA:0,_RNCINvNtCs4GBZUaiPV4D_5lb_io9idle_send17idle_bounded_sendNCNvMs0_NtNtNtCsgB3dp6qvXvn_5hyper6client4conn5http1INtB11_11SendRequestINtNtNtCsedaG9KDMExI_14http_body_util11combinators8box_body7BoxBodyNtNtCs7xJyEqPIUa9_5bytes5bytes5BytesNtNtCsddhi0hNOal7_5lb_l78h1_proxy11H1PumpAbortEE12send_request0INtNtCs2va5m0jqTTM_4core6result6ResultINtNtCsjFxw70quGA5_4http8response8ResponseNtNtNtB17_4body8incoming8IncomingENtNtB17_5error5ErrorEE0B3M_
FNDA:0,_RNCINvNtCs4GBZUaiPV4D_5lb_io9idle_send17idle_bounded_sendNCNvMs0_NtNtNtCsgB3dp6qvXvn_5hyper6client4conn5http1INtB11_11SendRequestINtNtNtCsedaG9KDMExI_14http_body_util11combinators8box_body7BoxBodyNtNtCs7xJyEqPIUa9_5bytes5bytes5BytesNtNtCsddhi0hNOal7_5lb_l78h2_proxy9PumpAbortEE12send_request0INtNtCs2va5m0jqTTM_4core6result6ResultINtNtCsjFxw70quGA5_4http8response8ResponseNtNtNtB17_4body8incoming8IncomingENtNtB17_5error5ErrorEE0B3M_
FNDA:0,_RNCINvNtCs4GBZUaiPV4D_5lb_io9idle_send17idle_bounded_sendNCNvMs0_NtNtNtCsgB3dp6qvXvn_5hyper6client4conn5http2INtB11_11SendRequestINtNtNtCsedaG9KDMExI_14http_body_util11combinators8box_body7BoxBodyNtNtCs7xJyEqPIUa9_5bytes5bytes5BytesINtNtCs8GO9KFlE3Dq_5alloc5boxed3BoxDNtNtCs2va5m0jqTTM_4core5error5ErrorNtNtB4m_6marker4SendNtB4T_4SyncEL_EEE12send_request0INtNtB4m_6result6ResultINtNtCsjFxw70quGA5_4http8response8ResponseNtNtNtB17_4body8incoming8IncomingENtNtB17_5error5ErrorEE0Csddhi0hNOal7_5lb_l7
FNDA:0,_RNCNCINvNtCs4GBZUaiPV4D_5lb_io9idle_send12poll_fn_sendNCNvMs0_NtNtNtCsgB3dp6qvXvn_5hyper6client4conn5http1INtBY_11SendRequestINtNtNtCsedaG9KDMExI_14http_body_util11combinators8box_body7BoxBodyNtNtCs7xJyEqPIUa9_5bytes5bytes5BytesNtNtCsddhi0hNOal7_5lb_l78h1_proxy11H1PumpAbortEE12send_request0E00B3I_
FNDA:0,_RNCNCINvNtCs4GBZUaiPV4D_5lb_io9idle_send12poll_fn_sendNCNvMs0_NtNtNtCsgB3dp6qvXvn_5hyper6client4conn5http1INtBY_11SendRequestINtNtNtCsedaG9KDMExI_14http_body_util11combinators8box_body7BoxBodyNtNtCs7xJyEqPIUa9_5bytes5bytes5BytesNtNtCsddhi0hNOal7_5lb_l78h2_proxy9PumpAbortEE12send_request0E00B3I_
FNDA:0,_RNCNCINvNtCs4GBZUaiPV4D_5lb_io9idle_send12poll_fn_sendNCNvMs0_NtNtNtCsgB3dp6qvXvn_5hyper6client4conn5http2INtBY_11SendRequestINtNtNtCsedaG9KDMExI_14http_body_util11combinators8box_body7BoxBodyNtNtCs7xJyEqPIUa9_5bytes5bytes5BytesINtNtCs8GO9KFlE3Dq_5alloc5boxed3BoxDNtNtCs2va5m0jqTTM_4core5error5ErrorNtNtB4i_6marker4SendNtB4P_4SyncEL_EEE12send_request0E00Csddhi0hNOal7_5lb_l7
FNDA:0,_RNCNCINvNtCs4GBZUaiPV4D_5lb_io9idle_send17idle_bounded_sendNCNvMs0_NtNtNtCsgB3dp6qvXvn_5hyper6client4conn5http1INtB13_11SendRequestINtNtNtCsedaG9KDMExI_14http_body_util11combinators8box_body7BoxBodyNtNtCs7xJyEqPIUa9_5bytes5bytes5BytesNtNtCsddhi0hNOal7_5lb_l78h1_proxy11H1PumpAbortEE12send_request0INtNtCs2va5m0jqTTM_4core6result6ResultINtNtCsjFxw70quGA5_4http8response8ResponseNtNtNtB19_4body8incoming8IncomingENtNtB19_5error5ErrorEE00B3O_
FNDA:0,_RNCNCINvNtCs4GBZUaiPV4D_5lb_io9idle_send17idle_bounded_sendNCNvMs0_NtNtNtCsgB3dp6qvXvn_5hyper6client4conn5http1INtB13_11SendRequestINtNtNtCsedaG9KDMExI_14http_body_util11combinators8box_body7BoxBodyNtNtCs7xJyEqPIUa9_5bytes5bytes5BytesNtNtCsddhi0hNOal7_5lb_l78h2_proxy9PumpAbortEE12send_request0INtNtCs2va5m0jqTTM_4core6result6ResultINtNtCsjFxw70quGA5_4http8response8ResponseNtNtNtB19_4body8incoming8IncomingENtNtB19_5error5ErrorEE00B3O_
FNDA:0,_RNCNCINvNtCs4GBZUaiPV4D_5lb_io9idle_send17idle_bounded_sendNCNvMs0_NtNtNtCsgB3dp6qvXvn_5hyper6client4conn5http2INtB13_11SendRequestINtNtNtCsedaG9KDMExI_14http_body_util11combinators8box_body7BoxBodyNtNtCs7xJyEqPIUa9_5bytes5bytes5BytesINtNtCs8GO9KFlE3Dq_5alloc5boxed3BoxDNtNtCs2va5m0jqTTM_4core5error5ErrorNtNtB4o_6marker4SendNtB4V_4SyncEL_EEE12send_request0INtNtB4o_6result6ResultINtNtCsjFxw70quGA5_4http8response8ResponseNtNtNtB19_4body8incoming8IncomingENtNtB19_5error5ErrorEE00Csddhi0hNOal7_5lb_l7
FNF:32
FNH:32
DA:93,180
DA:94,180
DA:95,180
DA:96,180
DA:97,180
DA:98,180
DA:99,180
DA:100,180
DA:101,180
DA:102,180
DA:103,180
DA:104,180
DA:105,180
DA:106,180
DA:107,180
DA:108,180
DA:109,180
DA:110,180
DA:111,180
DA:112,180
DA:113,180
DA:114,180
DA:115,180
DA:118,193
DA:120,193
DA:121,5
DA:123,188
DA:124,188
DA:127,193
DA:136,193
DA:137,89
DA:139,193
DA:140,22
DA:141,4
DA:142,18
DA:143,18
DA:144,18
DA:145,18
DA:146,18
DA:147,18
DA:148,18
DA:149,18
DA:150,18
DA:151,18
DA:152,18
DA:153,18
DA:154,18
DA:155,18
DA:158,3
DA:159,15
DA:160,15
DA:161,15
DA:162,15
DA:163,15
DA:164,15
DA:165,15
DA:166,15
DA:167,15
DA:168,15
DA:171,10
DA:172,5
DA:173,5
DA:177,98
DA:183,193
DA:184,10752
DA:185,89
DA:198,8
DA:199,8
DA:200,8
DA:201,8
DA:202,8
DA:203,8
DA:204,8
DA:206,11
DA:207,11
DA:208,11
DA:209,11
DA:210,11
DA:214,1
DA:215,1
DA:216,1
DA:217,1
DA:218,1
DA:219,1
DA:220,1
DA:221,1
DA:222,1
DA:223,1
DA:224,7
DA:225,6
DA:226,6
DA:227,1
DA:228,1
DA:229,1
DA:230,1
DA:231,1
DA:232,1
DA:233,1
DA:234,1
DA:235,1
DA:236,1
DA:237,1
DA:238,1
DA:239,1
DA:240,1
DA:241,1
DA:242,1
DA:243,1
DA:244,1
DA:245,1
DA:246,1
DA:247,1
DA:248,1
DA:249,1
DA:253,1
DA:254,1
DA:255,1
DA:256,1
DA:257,1
DA:258,1
DA:259,1
DA:260,1
DA:261,1
DA:262,1
DA:263,1
DA:264,1
DA:265,1
DA:266,1
DA:267,1
DA:268,1
DA:269,1
DA:270,1
DA:271,1
DA:272,1
DA:273,1
DA:274,1
DA:275,1
DA:276,1
DA:277,1
DA:278,1
DA:283,1
DA:284,1
DA:285,1
DA:286,1
DA:287,1
DA:288,1
DA:289,1
DA:290,1
DA:291,1
DA:292,1
DA:293,1
DA:294,1
DA:295,1
DA:296,1
DA:297,1
DA:298,1
DA:299,1
DA:300,1
DA:301,1
DA:302,1
DA:303,1
DA:304,1
DA:305,1
DA:306,1
DA:307,1
DA:308,1
DA:309,1
DA:310,1
DA:311,1
DA:312,1
DA:313,1
DA:314,1
DA:315,1
DA:316,1
DA:317,1
DA:318,1
DA:319,1
DA:320,1
DA:321,1
DA:322,1
DA:323,1
DA:324,1
DA:325,1
DA:326,1
DA:327,1
DA:328,1
DA:329,1
DA:330,1
DA:334,1
DA:335,1
DA:336,1
DA:337,1
DA:338,1
DA:339,1
DA:340,1
DA:341,1
DA:342,1
DA:343,1
DA:344,1
DA:345,1
DA:346,1
DA:347,1
DA:348,1
DA:349,1
DA:350,1
DA:351,1
DA:352,1
DA:353,1
DA:354,1
DA:355,1
DA:356,1
DA:357,1
DA:358,1
DA:359,1
DA:360,1
DA:361,1
DA:367,1
DA:368,1
DA:369,1
DA:370,1
DA:371,1
DA:372,1
DA:373,1
DA:374,1
DA:375,1
DA:376,1
DA:377,1
DA:378,1
DA:379,1
DA:380,1
DA:381,1
DA:382,1
DA:383,1
DA:384,1
DA:385,1
DA:386,1
DA:387,1
DA:388,1
DA:389,1
DA:390,1
DA:395,1
DA:396,1
DA:397,1
DA:398,1
DA:399,1
DA:400,1
DA:401,1
DA:402,1
DA:403,1
DA:404,1
DA:405,1
DA:406,1
DA:407,1
DA:408,1
DA:409,1
DA:410,1
DA:411,1
DA:412,1
DA:413,1
DA:414,1
DA:415,1
DA:416,1
DA:417,1
DA:418,1
DA:419,1
DA:420,1
DA:421,1
DA:422,1
DA:423,1
DA:424,1
DA:425,1
DA:426,1
DA:427,1
DA:428,1
DA:435,1
DA:436,1
DA:437,1
DA:438,1
DA:439,1
DA:440,1
DA:441,1
DA:442,1
DA:443,1
DA:444,1
DA:445,1
DA:446,1
DA:447,1
DA:448,1
DA:449,1
DA:450,1
DA:451,1
DA:452,1
DA:453,1
DA:454,1
DA:455,1
DA:456,1
DA:457,1
DA:458,1
DA:459,1
DA:460,1
DA:461,1
DA:462,1
DA:463,1
DA:464,1
DA:465,1
DA:466,1
DA:467,1
DA:468,1
DA:487,1
DA:488,1
DA:489,1
DA:490,1
DA:491,1
DA:492,1
DA:493,1
DA:494,1
DA:495,1
DA:496,1
DA:497,1
DA:498,1
DA:499,1
DA:500,1
DA:501,1
DA:502,1
DA:503,1
DA:504,1
DA:505,1
DA:506,1
DA:507,1
DA:508,1
DA:509,1
DA:510,1
DA:511,1
DA:512,1
DA:513,1
DA:514,1
DA:515,1
DA:516,0
DA:517,1
DA:518,1
DA:519,1
DA:520,1
DA:521,1
DA:522,1
DA:523,1
DA:524,1
DA:525,1
DA:526,1
DA:527,1
DA:528,1
DA:529,1
DA:530,1
BRF:0
BRH:0
LF:596
LH:579
end_of_record
SF:/home/ubuntu/Code/ExpressGateway/crates/lb-io/src/lib.rs
FN:79,_RNvCs4GBZUaiPV4D_5lb_io14detect_backend
FN:46,_RNvMCs4GBZUaiPV4D_5lb_ioNtB2_9IoBackend6as_str
FN:123,_RNvMs0_Cs4GBZUaiPV4D_5lb_ioNtB5_7Runtime12with_backend
FN:169,_RNvMs0_Cs4GBZUaiPV4D_5lb_ioNtB5_7Runtime14connect_socket
FN:143,_RNvMs0_Cs4GBZUaiPV4D_5lb_ioNtB5_7Runtime14low_water_mark
FN:136,_RNvMs0_Cs4GBZUaiPV4D_5lb_ioNtB5_7Runtime15high_water_mark
FN:153,_RNvMs0_Cs4GBZUaiPV4D_5lb_ioNtB5_7Runtime15listener_socket
FN:114,_RNvMs0_Cs4GBZUaiPV4D_5lb_ioNtB5_7Runtime3new
FN:187,_RNvMs0_Cs4GBZUaiPV4D_5lb_ioNtB5_7Runtime6listen
FN:129,_RNvMs0_Cs4GBZUaiPV4D_5lb_ioNtB5_7Runtime7backend
FN:203,_RNvMs0_Cs4GBZUaiPV4D_5lb_ioNtB5_7Runtime7connect
FN:213,_RNvXs1_Cs4GBZUaiPV4D_5lb_ioNtB5_7RuntimeNtNtCs2va5m0jqTTM_4core7default7Default7default
FN:55,_RNvXs_Cs4GBZUaiPV4D_5lb_ioNtB4_9IoBackendNtNtCs2va5m0jqTTM_4core3fmt7Display3fmt
FN:337,_RNvNtCs450l62AvZFl_5lb_io5tests15getsockopt_bool
FN:225,_RNvNtCs450l62AvZFl_5lb_io5testss_13backend_names
FN:244,_RNvNtCs450l62AvZFl_5lb_io5testss_18watermarks_present
FN:283,_RNvNtCs450l62AvZFl_5lb_io5testss_19nop_roundtrip_linux
FN:233,_RNvNtCs450l62AvZFl_5lb_io5testss_20runtime_with_backend
FN:294,_RNvNtCs450l62AvZFl_5lb_io5testss_23socket_options_listener
FN:274,_RNvNtCs450l62AvZFl_5lb_io5testss_34detect_backend_returns_real_choice
FN:251,_RNvNtCs450l62AvZFl_5lb_io5testss_36runtime_listener_and_connect_sockets
FN:79,_RNvCs450l62AvZFl_5lb_io14detect_backend
FN:46,_RNvMCs450l62AvZFl_5lb_ioNtB2_9IoBackend6as_str
FN:123,_RNvMs0_Cs450l62AvZFl_5lb_ioNtB5_7Runtime12with_backend
FN:169,_RNvMs0_Cs450l62AvZFl_5lb_ioNtB5_7Runtime14connect_socket
FN:143,_RNvMs0_Cs450l62AvZFl_5lb_ioNtB5_7Runtime14low_water_mark
FN:136,_RNvMs0_Cs450l62AvZFl_5lb_ioNtB5_7Runtime15high_water_mark
FN:153,_RNvMs0_Cs450l62AvZFl_5lb_ioNtB5_7Runtime15listener_socket
FN:114,_RNvMs0_Cs450l62AvZFl_5lb_ioNtB5_7Runtime3new
FN:129,_RNvMs0_Cs450l62AvZFl_5lb_ioNtB5_7Runtime7backend
FN:203,_RNvMs0_Cs450l62AvZFl_5lb_ioNtB5_7Runtime7connect
FN:213,_RNvXs1_Cs450l62AvZFl_5lb_ioNtB5_7RuntimeNtNtCs2va5m0jqTTM_4core7default7Default7default
FN:55,_RNvXs_Cs450l62AvZFl_5lb_ioNtB4_9IoBackendNtNtCs2va5m0jqTTM_4core3fmt7Display3fmt
FN:187,_RNvMs0_Cs450l62AvZFl_5lb_ioNtB5_7Runtime6listen
FNDA:648,_RNvCs4GBZUaiPV4D_5lb_io14detect_backend
FNDA:0,_RNvMCs4GBZUaiPV4D_5lb_ioNtB2_9IoBackend6as_str
FNDA:0,_RNvMs0_Cs4GBZUaiPV4D_5lb_ioNtB5_7Runtime12with_backend
FNDA:0,_RNvMs0_Cs4GBZUaiPV4D_5lb_ioNtB5_7Runtime14connect_socket
FNDA:0,_RNvMs0_Cs4GBZUaiPV4D_5lb_ioNtB5_7Runtime14low_water_mark
FNDA:0,_RNvMs0_Cs4GBZUaiPV4D_5lb_ioNtB5_7Runtime15high_water_mark
FNDA:0,_RNvMs0_Cs4GBZUaiPV4D_5lb_ioNtB5_7Runtime15listener_socket
FNDA:648,_RNvMs0_Cs4GBZUaiPV4D_5lb_ioNtB5_7Runtime3new
FNDA:0,_RNvMs0_Cs4GBZUaiPV4D_5lb_ioNtB5_7Runtime6listen
FNDA:0,_RNvMs0_Cs4GBZUaiPV4D_5lb_ioNtB5_7Runtime7backend
FNDA:0,_RNvMs0_Cs4GBZUaiPV4D_5lb_ioNtB5_7Runtime7connect
FNDA:0,_RNvXs1_Cs4GBZUaiPV4D_5lb_ioNtB5_7RuntimeNtNtCs2va5m0jqTTM_4core7default7Default7default
FNDA:0,_RNvXs_Cs4GBZUaiPV4D_5lb_ioNtB4_9IoBackendNtNtCs2va5m0jqTTM_4core3fmt7Display3fmt
FNDA:2,_RNvNtCs450l62AvZFl_5lb_io5tests15getsockopt_bool
FNDA:1,_RNvNtCs450l62AvZFl_5lb_io5testss_13backend_names
FNDA:1,_RNvNtCs450l62AvZFl_5lb_io5testss_18watermarks_present
FNDA:1,_RNvNtCs450l62AvZFl_5lb_io5testss_19nop_roundtrip_linux
FNDA:1,_RNvNtCs450l62AvZFl_5lb_io5testss_20runtime_with_backend
FNDA:1,_RNvNtCs450l62AvZFl_5lb_io5testss_23socket_options_listener
FNDA:1,_RNvNtCs450l62AvZFl_5lb_io5testss_34detect_backend_returns_real_choice
FNDA:1,_RNvNtCs450l62AvZFl_5lb_io5testss_36runtime_listener_and_connect_sockets
FNDA:3,_RNvCs450l62AvZFl_5lb_io14detect_backend
FNDA:4,_RNvMCs450l62AvZFl_5lb_ioNtB2_9IoBackend6as_str
FNDA:19,_RNvMs0_Cs450l62AvZFl_5lb_ioNtB5_7Runtime12with_backend
FNDA:150,_RNvMs0_Cs450l62AvZFl_5lb_ioNtB5_7Runtime14connect_socket
FNDA:2,_RNvMs0_Cs450l62AvZFl_5lb_ioNtB5_7Runtime14low_water_mark
FNDA:2,_RNvMs0_Cs450l62AvZFl_5lb_ioNtB5_7Runtime15high_water_mark
FNDA:1,_RNvMs0_Cs450l62AvZFl_5lb_ioNtB5_7Runtime15listener_socket
FNDA:2,_RNvMs0_Cs450l62AvZFl_5lb_ioNtB5_7Runtime3new
FNDA:2,_RNvMs0_Cs450l62AvZFl_5lb_ioNtB5_7Runtime7backend
FNDA:149,_RNvMs0_Cs450l62AvZFl_5lb_ioNtB5_7Runtime7connect
FNDA:1,_RNvXs1_Cs450l62AvZFl_5lb_ioNtB5_7RuntimeNtNtCs2va5m0jqTTM_4core7default7Default7default
FNDA:2,_RNvXs_Cs450l62AvZFl_5lb_ioNtB4_9IoBackendNtNtCs2va5m0jqTTM_4core3fmt7Display3fmt
FNDA:0,_RNvMs0_Cs450l62AvZFl_5lb_ioNtB5_7Runtime6listen
FNF:21
FNH:20
DA:46,4
DA:47,4
DA:48,2
DA:49,2
DA:51,4
DA:55,2
DA:56,2
DA:57,2
DA:79,651
DA:80,651
DA:81,651
DA:82,651
DA:83,651
DA:84,0
DA:85,0
DA:87,0
DA:89,0
DA:99,651
DA:114,650
DA:115,650
DA:116,650
DA:117,650
DA:118,650
DA:123,19
DA:124,19
DA:125,19
DA:129,2
DA:130,2
DA:131,2
DA:136,2
DA:137,2
DA:138,2
DA:143,2
DA:144,2
DA:145,2
DA:153,1
DA:154,1
DA:155,1
DA:156,1
DA:157,1
DA:158,1
DA:159,1
DA:160,1
DA:161,1
DA:169,150
DA:170,150
DA:171,150
DA:172,150
DA:173,150
DA:174,150
DA:175,150
DA:176,150
DA:177,150
DA:187,0
DA:188,0
DA:189,0
DA:190,0
DA:191,0
DA:192,0
DA:193,0
DA:203,149
DA:204,149
DA:205,149
DA:206,149
DA:207,149
DA:208,149
DA:209,149
DA:213,1
DA:214,1
DA:215,1
DA:225,1
DA:226,1
DA:227,1
DA:228,1
DA:229,1
DA:230,1
DA:233,1
DA:234,1
DA:235,1
DA:236,1
DA:237,1
DA:239,1
DA:240,1
DA:241,1
DA:244,1
DA:245,1
DA:246,1
DA:247,1
DA:248,1
DA:251,1
DA:253,1
DA:254,1
DA:255,1
DA:256,1
DA:257,1
DA:258,1
DA:259,1
DA:260,1
DA:261,1
DA:262,1
DA:263,1
DA:264,1
DA:265,1
DA:266,1
DA:267,1
DA:268,1
DA:269,1
DA:270,1
DA:271,1
DA:274,1
DA:275,1
DA:276,1
DA:277,1
DA:278,1
DA:279,1
DA:283,1
DA:284,1
DA:285,1
DA:286,0
DA:287,0
DA:288,0
DA:290,1
DA:294,1
DA:297,1
DA:298,1
DA:299,1
DA:300,1
DA:301,1
DA:302,1
DA:303,1
DA:304,1
DA:305,1
DA:306,1
DA:307,1
DA:308,1
DA:309,1
DA:310,1
DA:311,1
DA:312,1
DA:313,1
DA:314,1
DA:315,1
DA:337,2
DA:338,2
DA:339,2
DA:340,2
DA:341,2
DA:342,2
DA:343,2
DA:344,2
DA:345,2
DA:346,2
DA:347,2
DA:348,2
DA:349,2
DA:350,2
DA:351,2
DA:352,2
DA:353,2
DA:356,0
DA:357,0
DA:359,2
DA:360,2
BRF:0
BRH:0
LF:163
LH:147
end_of_record
SF:/home/ubuntu/Code/ExpressGateway/crates/lb-io/src/pool.rs
FN:210,_RNCNvMs0_NtCs4GBZUaiPV4D_5lb_io4poolNtB7_7TcpPool13acquire_async0CsbRY1QtCoCCH_7lb_quic
FN:283,_RNCNvMs0_NtCs4GBZUaiPV4D_5lb_io4poolNtB7_7TcpPool14dial_new_async0CsbRY1QtCoCCH_7lb_quic
FN:150,_RNvMs0_NtCs4GBZUaiPV4D_5lb_io4poolNtB5_7TcpPool10idle_count
FN:210,_RNvMs0_NtCs4GBZUaiPV4D_5lb_io4poolNtB5_7TcpPool13acquire_async
FN:283,_RNvMs0_NtCs4GBZUaiPV4D_5lb_io4poolNtB5_7TcpPool14dial_new_async
FN:156,_RNvMs0_NtCs4GBZUaiPV4D_5lb_io4poolNtB5_7TcpPool14idle_count_for
FN:236,_RNvMs0_NtCs4GBZUaiPV4D_5lb_io4poolNtB5_7TcpPool20validate_and_upgrade
FN:134,_RNvMs0_NtCs4GBZUaiPV4D_5lb_io4poolNtB5_7TcpPool3new
FN:181,_RNvMs0_NtCs4GBZUaiPV4D_5lb_io4poolNtB5_7TcpPool7acquire
FN:266,_RNvMs0_NtCs4GBZUaiPV4D_5lb_io4poolNtB5_7TcpPool8dial_new
FN:222,_RNvMs0_NtCs4GBZUaiPV4D_5lb_io4poolNtB5_7TcpPool8pop_idle
FN:362,_RNvMs2_NtCs4GBZUaiPV4D_5lb_io4poolNtB5_9PooledTcp10stream_mut
FN:412,_RNvMs2_NtCs4GBZUaiPV4D_5lb_io4poolNtB5_9PooledTcp11is_reusable
FN:421,_RNvMs2_NtCs4GBZUaiPV4D_5lb_io4poolNtB5_9PooledTcp11take_stream
FN:406,_RNvMs2_NtCs4GBZUaiPV4D_5lb_io4poolNtB5_9PooledTcp12set_reusable
FN:427,_RNvMs2_NtCs4GBZUaiPV4D_5lb_io4poolNtB5_9PooledTcp14return_to_pool
FN:380,_RNvMs2_NtCs4GBZUaiPV4D_5lb_io4poolNtB5_9PooledTcp3age
FN:342,_RNvMs2_NtCs4GBZUaiPV4D_5lb_io4poolNtB5_9PooledTcp3new
FN:368,_RNvMs2_NtCs4GBZUaiPV4D_5lb_io4poolNtB5_9PooledTcp6stream
FN:374,_RNvMs2_NtCs4GBZUaiPV4D_5lb_io4poolNtB5_9PooledTcp9peer_addr
FN:502,_RNvNtCs4GBZUaiPV4D_5lb_io4pool11probe_alive
FN:86,_RNvXNtCs4GBZUaiPV4D_5lb_io4poolNtB2_10PoolConfigNtNtCs2va5m0jqTTM_4core7default7Default7default
FN:330,_RNvXs1_NtCs4GBZUaiPV4D_5lb_io4poolNtB5_9PooledTcpNtNtCs2va5m0jqTTM_4core3fmt5Debug3fmt
FN:120,_RNvXs_NtCs4GBZUaiPV4D_5lb_io4poolNtB4_7TcpPoolNtNtCs2va5m0jqTTM_4core3fmt5Debug3fmt
FN:487,_RNvXs3_NtCs4GBZUaiPV4D_5lb_io4poolNtB5_9PooledTcpNtNtNtCs2va5m0jqTTM_4core3ops4drop4Drop4drop
FN:210,_RNCNvMs0_NtCs4GBZUaiPV4D_5lb_io4poolNtB7_7TcpPool13acquire_async0B9_
FN:283,_RNCNvMs0_NtCs4GBZUaiPV4D_5lb_io4poolNtB7_7TcpPool14dial_new_async0B9_
FN:157,_RNCNvMs0_NtCs4GBZUaiPV4D_5lb_io4poolNtB7_7TcpPool14idle_count_for0B9_
FN:470,_RNCNvMs2_NtCs4GBZUaiPV4D_5lb_io4poolNtB7_9PooledTcp14return_to_pool0B9_
FN:544,_RNCNCNvNtNtCs450l62AvZFl_5lb_io4pool5tests13echo_listener00B9_
FN:537,_RNCNvNtNtCs450l62AvZFl_5lb_io4pool5tests13echo_listener0B7_
FN:673,_RNCNvNtNtCs450l62AvZFl_5lb_io4pool5testss_18total_max_enforced0B7_
FN:650,_RNCNvNtNtCs450l62AvZFl_5lb_io4pool5testss_21per_peer_max_enforced0B7_
FN:752,_RNCNvNtNtCs450l62AvZFl_5lb_io4pool5testss_26non_reusable_is_not_parked0B7_
FN:862,_RNCNvNtNtCs450l62AvZFl_5lb_io4pool5testss_27acquire_async_timeout_fires0B7_
FN:839,_RNCNvNtNtCs450l62AvZFl_5lb_io4pool5testss_30acquire_async_dials_then_parks0B7_
FN:763,_RNCNvNtNtCs450l62AvZFl_5lb_io4pool5testss_30take_stream_detaches_from_pool0B7_
FN:731,_RNCNvNtNtCs450l62AvZFl_5lb_io4pool5testss_32idle_timeout_discards_on_acquire0B7_
FN:705,_RNCNvNtNtCs450l62AvZFl_5lb_io4pool5testss_34max_age_expiry_discards_on_acquire0B7_
FN:619,_RNCNvNtNtCs450l62AvZFl_5lb_io4pool5testss_37probe_discards_peer_closed_connection0B7_
FN:777,_RNCNvNtNtCs450l62AvZFl_5lb_io4pool5testss_37size_invariant_holds_under_random_ops0B7_
FN:593,_RNCNvNtNtCs450l62AvZFl_5lb_io4pool5testss_40acquire_then_release_returns_same_socket0B7_
FN:412,_RNvMs2_NtCs450l62AvZFl_5lb_io4poolNtB5_9PooledTcp11is_reusable
FN:380,_RNvMs2_NtCs450l62AvZFl_5lb_io4poolNtB5_9PooledTcp3age
FN:368,_RNvMs2_NtCs450l62AvZFl_5lb_io4poolNtB5_9PooledTcp6stream
FN:374,_RNvMs2_NtCs450l62AvZFl_5lb_io4poolNtB5_9PooledTcp9peer_addr
FN:120,_RNvXs_NtCs450l62AvZFl_5lb_io4poolNtB4_7TcpPoolNtNtCs2va5m0jqTTM_4core3fmt5Debug3fmt
FN:150,_RNvMs0_NtCs450l62AvZFl_5lb_io4poolNtB5_7TcpPool10idle_count
FN:210,_RNvMs0_NtCs450l62AvZFl_5lb_io4poolNtB5_7TcpPool13acquire_async
FN:283,_RNvMs0_NtCs450l62AvZFl_5lb_io4poolNtB5_7TcpPool14dial_new_async
FN:156,_RNvMs0_NtCs450l62AvZFl_5lb_io4poolNtB5_7TcpPool14idle_count_for
FN:236,_RNvMs0_NtCs450l62AvZFl_5lb_io4poolNtB5_7TcpPool20validate_and_upgrade
FN:134,_RNvMs0_NtCs450l62AvZFl_5lb_io4poolNtB5_7TcpPool3new
FN:181,_RNvMs0_NtCs450l62AvZFl_5lb_io4poolNtB5_7TcpPool7acquire
FN:266,_RNvMs0_NtCs450l62AvZFl_5lb_io4poolNtB5_7TcpPool8dial_new
FN:222,_RNvMs0_NtCs450l62AvZFl_5lb_io4poolNtB5_7TcpPool8pop_idle
FN:362,_RNvMs2_NtCs450l62AvZFl_5lb_io4poolNtB5_9PooledTcp10stream_mut
FN:421,_RNvMs2_NtCs450l62AvZFl_5lb_io4poolNtB5_9PooledTcp11take_stream
FN:406,_RNvMs2_NtCs450l62AvZFl_5lb_io4poolNtB5_9PooledTcp12set_reusable
FN:427,_RNvMs2_NtCs450l62AvZFl_5lb_io4poolNtB5_9PooledTcp14return_to_pool
FN:342,_RNvMs2_NtCs450l62AvZFl_5lb_io4poolNtB5_9PooledTcp3new
FN:502,_RNvNtCs450l62AvZFl_5lb_io4pool11probe_alive
FN:86,_RNvXNtCs450l62AvZFl_5lb_io4poolNtB2_10PoolConfigNtNtCs2va5m0jqTTM_4core7default7Default7default
FN:330,_RNvXs1_NtCs450l62AvZFl_5lb_io4poolNtB5_9PooledTcpNtNtCs2va5m0jqTTM_4core3fmt5Debug3fmt
FN:531,_RNvNtNtCs450l62AvZFl_5lb_io4pool5tests13echo_listener
FN:562,_RNvNtNtCs450l62AvZFl_5lb_io4pool5tests19shutdown_first_idle
FN:571,_RNvNtNtCs450l62AvZFl_5lb_io4pool5tests9pool_with
FN:673,_RNvNtNtCs450l62AvZFl_5lb_io4pool5testss_18total_max_enforced
FN:650,_RNvNtNtCs450l62AvZFl_5lb_io4pool5testss_21per_peer_max_enforced
FN:752,_RNvNtNtCs450l62AvZFl_5lb_io4pool5testss_26non_reusable_is_not_parked
FN:862,_RNvNtNtCs450l62AvZFl_5lb_io4pool5testss_27acquire_async_timeout_fires
FN:839,_RNvNtNtCs450l62AvZFl_5lb_io4pool5testss_30acquire_async_dials_then_parks
FN:763,_RNvNtNtCs450l62AvZFl_5lb_io4pool5testss_30take_stream_detaches_from_pool
FN:584,_RNvNtNtCs450l62AvZFl_5lb_io4pool5testss_32defaults_match_prompt_section_21
FN:731,_RNvNtNtCs450l62AvZFl_5lb_io4pool5testss_32idle_timeout_discards_on_acquire
FN:705,_RNvNtNtCs450l62AvZFl_5lb_io4pool5testss_34max_age_expiry_discards_on_acquire
FN:894,_RNvNtNtCs450l62AvZFl_5lb_io4pool5testss_35no_spawn_blocking_in_pool_dial_path
FN:619,_RNvNtNtCs450l62AvZFl_5lb_io4pool5testss_37probe_discards_peer_closed_connection
FN:777,_RNvNtNtCs450l62AvZFl_5lb_io4pool5testss_37size_invariant_holds_under_random_ops
FN:593,_RNvNtNtCs450l62AvZFl_5lb_io4pool5testss_40acquire_then_release_returns_same_socket
FN:210,_RNCNvMs0_NtCs450l62AvZFl_5lb_io4poolNtB7_7TcpPool13acquire_async0B9_
FN:283,_RNCNvMs0_NtCs450l62AvZFl_5lb_io4poolNtB7_7TcpPool14dial_new_async0B9_
FN:157,_RNCNvMs0_NtCs450l62AvZFl_5lb_io4poolNtB7_7TcpPool14idle_count_for0B9_
FN:470,_RNCNvMs2_NtCs450l62AvZFl_5lb_io4poolNtB7_9PooledTcp14return_to_pool0B9_
FN:487,_RNvXs3_NtCs450l62AvZFl_5lb_io4poolNtB5_9PooledTcpNtNtNtCs2va5m0jqTTM_4core3ops4drop4Drop4drop
FN:210,_RNCNvMs0_NtCs4GBZUaiPV4D_5lb_io4poolNtB7_7TcpPool13acquire_async0CsbTmJYq7gvpZ_7lb_quic
FN:283,_RNCNvMs0_NtCs4GBZUaiPV4D_5lb_io4poolNtB7_7TcpPool14dial_new_async0CsbTmJYq7gvpZ_7lb_quic
FN:210,_RNCNvMs0_NtCs4GBZUaiPV4D_5lb_io4poolNtB7_7TcpPool13acquire_async0CsaQ6wXtaNDyM_20round8_body_overread
FN:283,_RNCNvMs0_NtCs4GBZUaiPV4D_5lb_io4poolNtB7_7TcpPool14dial_new_async0CsaQ6wXtaNDyM_20round8_body_overread
FNDA:739,_RNCNvMs0_NtCs4GBZUaiPV4D_5lb_io4poolNtB7_7TcpPool13acquire_async0CsbRY1QtCoCCH_7lb_quic
FNDA:739,_RNCNvMs0_NtCs4GBZUaiPV4D_5lb_io4poolNtB7_7TcpPool14dial_new_async0CsbRY1QtCoCCH_7lb_quic
FNDA:0,_RNvMs0_NtCs4GBZUaiPV4D_5lb_io4poolNtB5_7TcpPool10idle_count
FNDA:740,_RNvMs0_NtCs4GBZUaiPV4D_5lb_io4poolNtB5_7TcpPool13acquire_async
FNDA:740,_RNvMs0_NtCs4GBZUaiPV4D_5lb_io4poolNtB5_7TcpPool14dial_new_async
FNDA:6,_RNvMs0_NtCs4GBZUaiPV4D_5lb_io4poolNtB5_7TcpPool14idle_count_for
FNDA:0,_RNvMs0_NtCs4GBZUaiPV4D_5lb_io4poolNtB5_7TcpPool20validate_and_upgrade
FNDA:648,_RNvMs0_NtCs4GBZUaiPV4D_5lb_io4poolNtB5_7TcpPool3new
FNDA:0,_RNvMs0_NtCs4GBZUaiPV4D_5lb_io4poolNtB5_7TcpPool7acquire
FNDA:0,_RNvMs0_NtCs4GBZUaiPV4D_5lb_io4poolNtB5_7TcpPool8dial_new
FNDA:740,_RNvMs0_NtCs4GBZUaiPV4D_5lb_io4poolNtB5_7TcpPool8pop_idle
FNDA:38,_RNvMs2_NtCs4GBZUaiPV4D_5lb_io4poolNtB5_9PooledTcp10stream_mut
FNDA:0,_RNvMs2_NtCs4GBZUaiPV4D_5lb_io4poolNtB5_9PooledTcp11is_reusable
FNDA:663,_RNvMs2_NtCs4GBZUaiPV4D_5lb_io4poolNtB5_9PooledTcp11take_stream
FNDA:38,_RNvMs2_NtCs4GBZUaiPV4D_5lb_io4poolNtB5_9PooledTcp12set_reusable
FNDA:701,_RNvMs2_NtCs4GBZUaiPV4D_5lb_io4poolNtB5_9PooledTcp14return_to_pool
FNDA:0,_RNvMs2_NtCs4GBZUaiPV4D_5lb_io4poolNtB5_9PooledTcp3age
FNDA:701,_RNvMs2_NtCs4GBZUaiPV4D_5lb_io4poolNtB5_9PooledTcp3new
FNDA:0,_RNvMs2_NtCs4GBZUaiPV4D_5lb_io4poolNtB5_9PooledTcp6stream
FNDA:0,_RNvMs2_NtCs4GBZUaiPV4D_5lb_io4poolNtB5_9PooledTcp9peer_addr
FNDA:0,_RNvNtCs4GBZUaiPV4D_5lb_io4pool11probe_alive
FNDA:648,_RNvXNtCs4GBZUaiPV4D_5lb_io4poolNtB2_10PoolConfigNtNtCs2va5m0jqTTM_4core7default7Default7default
FNDA:0,_RNvXs1_NtCs4GBZUaiPV4D_5lb_io4poolNtB5_9PooledTcpNtNtCs2va5m0jqTTM_4core3fmt5Debug3fmt
FNDA:0,_RNvXs_NtCs4GBZUaiPV4D_5lb_io4poolNtB4_7TcpPoolNtNtCs2va5m0jqTTM_4core3fmt5Debug3fmt
FNDA:701,_RNvXs3_NtCs4GBZUaiPV4D_5lb_io4poolNtB5_9PooledTcpNtNtNtCs2va5m0jqTTM_4core3ops4drop4Drop4drop
FNDA:0,_RNCNvMs0_NtCs4GBZUaiPV4D_5lb_io4poolNtB7_7TcpPool13acquire_async0B9_
FNDA:0,_RNCNvMs0_NtCs4GBZUaiPV4D_5lb_io4poolNtB7_7TcpPool14dial_new_async0B9_
FNDA:0,_RNCNvMs0_NtCs4GBZUaiPV4D_5lb_io4poolNtB7_7TcpPool14idle_count_for0B9_
FNDA:0,_RNCNvMs2_NtCs4GBZUaiPV4D_5lb_io4poolNtB7_9PooledTcp14return_to_pool0B9_
FNDA:150,_RNCNCNvNtNtCs450l62AvZFl_5lb_io4pool5tests13echo_listener00B9_
FNDA:13,_RNCNvNtNtCs450l62AvZFl_5lb_io4pool5tests13echo_listener0B7_
FNDA:1,_RNCNvNtNtCs450l62AvZFl_5lb_io4pool5testss_18total_max_enforced0B7_
FNDA:1,_RNCNvNtNtCs450l62AvZFl_5lb_io4pool5testss_21per_peer_max_enforced0B7_
FNDA:1,_RNCNvNtNtCs450l62AvZFl_5lb_io4pool5testss_26non_reusable_is_not_parked0B7_
FNDA:1,_RNCNvNtNtCs450l62AvZFl_5lb_io4pool5testss_27acquire_async_timeout_fires0B7_
FNDA:1,_RNCNvNtNtCs450l62AvZFl_5lb_io4pool5testss_30acquire_async_dials_then_parks0B7_
FNDA:1,_RNCNvNtNtCs450l62AvZFl_5lb_io4pool5testss_30take_stream_detaches_from_pool0B7_
FNDA:1,_RNCNvNtNtCs450l62AvZFl_5lb_io4pool5testss_32idle_timeout_discards_on_acquire0B7_
FNDA:1,_RNCNvNtNtCs450l62AvZFl_5lb_io4pool5testss_34max_age_expiry_discards_on_acquire0B7_
FNDA:1,_RNCNvNtNtCs450l62AvZFl_5lb_io4pool5testss_37probe_discards_peer_closed_connection0B7_
FNDA:1,_RNCNvNtNtCs450l62AvZFl_5lb_io4pool5testss_37size_invariant_holds_under_random_ops0B7_
FNDA:1,_RNCNvNtNtCs450l62AvZFl_5lb_io4pool5testss_40acquire_then_release_returns_same_socket0B7_
FNDA:0,_RNvMs2_NtCs450l62AvZFl_5lb_io4poolNtB5_9PooledTcp11is_reusable
FNDA:0,_RNvMs2_NtCs450l62AvZFl_5lb_io4poolNtB5_9PooledTcp3age
FNDA:0,_RNvMs2_NtCs450l62AvZFl_5lb_io4poolNtB5_9PooledTcp6stream
FNDA:0,_RNvMs2_NtCs450l62AvZFl_5lb_io4poolNtB5_9PooledTcp9peer_addr
FNDA:0,_RNvXs_NtCs450l62AvZFl_5lb_io4poolNtB4_7TcpPoolNtNtCs2va5m0jqTTM_4core3fmt5Debug3fmt
FNDA:415,_RNvMs0_NtCs450l62AvZFl_5lb_io4poolNtB5_7TcpPool10idle_count
FNDA:7,_RNvMs0_NtCs450l62AvZFl_5lb_io4poolNtB5_7TcpPool13acquire_async
FNDA:6,_RNvMs0_NtCs450l62AvZFl_5lb_io4poolNtB5_7TcpPool14dial_new_async
FNDA:1203,_RNvMs0_NtCs450l62AvZFl_5lb_io4poolNtB5_7TcpPool14idle_count_for
FNDA:134,_RNvMs0_NtCs450l62AvZFl_5lb_io4poolNtB5_7TcpPool20validate_and_upgrade
FNDA:16,_RNvMs0_NtCs450l62AvZFl_5lb_io4poolNtB5_7TcpPool3new
FNDA:279,_RNvMs0_NtCs450l62AvZFl_5lb_io4poolNtB5_7TcpPool7acquire
FNDA:149,_RNvMs0_NtCs450l62AvZFl_5lb_io4poolNtB5_7TcpPool8dial_new
FNDA:289,_RNvMs0_NtCs450l62AvZFl_5lb_io4poolNtB5_7TcpPool8pop_idle
FNDA:5,_RNvMs2_NtCs450l62AvZFl_5lb_io4poolNtB5_9PooledTcp10stream_mut
FNDA:4,_RNvMs2_NtCs450l62AvZFl_5lb_io4poolNtB5_9PooledTcp11take_stream
FNDA:1,_RNvMs2_NtCs450l62AvZFl_5lb_io4poolNtB5_9PooledTcp12set_reusable
FNDA:284,_RNvMs2_NtCs450l62AvZFl_5lb_io4poolNtB5_9PooledTcp14return_to_pool
FNDA:284,_RNvMs2_NtCs450l62AvZFl_5lb_io4poolNtB5_9PooledTcp3new
FNDA:132,_RNvNtCs450l62AvZFl_5lb_io4pool11probe_alive
FNDA:17,_RNvXNtCs450l62AvZFl_5lb_io4poolNtB2_10PoolConfigNtNtCs2va5m0jqTTM_4core7default7Default7default
FNDA:0,_RNvXs1_NtCs450l62AvZFl_5lb_io4poolNtB5_9PooledTcpNtNtCs2va5m0jqTTM_4core3fmt5Debug3fmt
FNDA:13,_RNvNtNtCs450l62AvZFl_5lb_io4pool5tests13echo_listener
FNDA:1,_RNvNtNtCs450l62AvZFl_5lb_io4pool5tests19shutdown_first_idle
FNDA:11,_RNvNtNtCs450l62AvZFl_5lb_io4pool5tests9pool_with
FNDA:1,_RNvNtNtCs450l62AvZFl_5lb_io4pool5testss_18total_max_enforced
FNDA:1,_RNvNtNtCs450l62AvZFl_5lb_io4pool5testss_21per_peer_max_enforced
FNDA:1,_RNvNtNtCs450l62AvZFl_5lb_io4pool5testss_26non_reusable_is_not_parked
FNDA:1,_RNvNtNtCs450l62AvZFl_5lb_io4pool5testss_27acquire_async_timeout_fires
FNDA:1,_RNvNtNtCs450l62AvZFl_5lb_io4pool5testss_30acquire_async_dials_then_parks
FNDA:1,_RNvNtNtCs450l62AvZFl_5lb_io4pool5testss_30take_stream_detaches_from_pool
FNDA:1,_RNvNtNtCs450l62AvZFl_5lb_io4pool5testss_32defaults_match_prompt_section_21
FNDA:1,_RNvNtNtCs450l62AvZFl_5lb_io4pool5testss_32idle_timeout_discards_on_acquire
FNDA:1,_RNvNtNtCs450l62AvZFl_5lb_io4pool5testss_34max_age_expiry_discards_on_acquire
FNDA:1,_RNvNtNtCs450l62AvZFl_5lb_io4pool5testss_35no_spawn_blocking_in_pool_dial_path
FNDA:1,_RNvNtNtCs450l62AvZFl_5lb_io4pool5testss_37probe_discards_peer_closed_connection
FNDA:1,_RNvNtNtCs450l62AvZFl_5lb_io4pool5testss_37size_invariant_holds_under_random_ops
FNDA:1,_RNvNtNtCs450l62AvZFl_5lb_io4pool5testss_40acquire_then_release_returns_same_socket
FNDA:7,_RNCNvMs0_NtCs450l62AvZFl_5lb_io4poolNtB7_7TcpPool13acquire_async0B9_
FNDA:6,_RNCNvMs0_NtCs450l62AvZFl_5lb_io4poolNtB7_7TcpPool14dial_new_async0B9_
FNDA:1189,_RNCNvMs0_NtCs450l62AvZFl_5lb_io4poolNtB7_7TcpPool14idle_count_for0B9_
FNDA:11,_RNCNvMs2_NtCs450l62AvZFl_5lb_io4poolNtB7_9PooledTcp14return_to_pool0B9_
FNDA:284,_RNvXs3_NtCs450l62AvZFl_5lb_io4poolNtB5_9PooledTcpNtNtNtCs2va5m0jqTTM_4core3ops4drop4Drop4drop
FNDA:0,_RNCNvMs0_NtCs4GBZUaiPV4D_5lb_io4poolNtB7_7TcpPool13acquire_async0CsbTmJYq7gvpZ_7lb_quic
FNDA:0,_RNCNvMs0_NtCs4GBZUaiPV4D_5lb_io4poolNtB7_7TcpPool14dial_new_async0CsbTmJYq7gvpZ_7lb_quic
FNDA:1,_RNCNvMs0_NtCs4GBZUaiPV4D_5lb_io4poolNtB7_7TcpPool13acquire_async0CsaQ6wXtaNDyM_20round8_body_overread
FNDA:1,_RNCNvMs0_NtCs4GBZUaiPV4D_5lb_io4poolNtB7_7TcpPool14dial_new_async0CsaQ6wXtaNDyM_20round8_body_overread
FNF:56
FNH:50
DA:86,665
DA:87,665
DA:88,665
DA:89,665
DA:90,665
DA:91,665
DA:92,665
DA:93,665
DA:94,665
DA:120,0
DA:121,0
DA:122,0
DA:123,0
DA:124,0
DA:125,0
DA:126,0
DA:134,664
DA:135,664
DA:136,664
DA:137,664
DA:138,664
DA:139,664
DA:140,664
DA:141,664
DA:142,664
DA:143,664
DA:144,664
DA:150,415
DA:151,415
DA:152,415
DA:156,1209
DA:157,1209
DA:158,1209
DA:181,279
DA:182,282
DA:183,133
DA:184,130
DA:185,3
DA:186,0
DA:189,149
DA:190,279
DA:210,747
DA:211,747
DA:212,1
DA:213,1
DA:214,0
DA:215,0
DA:218,746
DA:219,716
DA:222,1029
DA:223,265
DA:224,1029
DA:225,265
DA:226,265
DA:227,265
DA:228,134
DA:229,134
DA:230,265
DA:231,1029
DA:236,134
DA:237,134
DA:238,134
DA:239,134
DA:240,134
DA:241,134
DA:242,134
DA:243,1
DA:244,133
DA:245,133
DA:246,1
DA:247,132
DA:248,132
DA:249,132
DA:250,1
DA:251,131
DA:252,131
DA:253,131
DA:254,131
DA:255,131
DA:256,131
DA:257,131
DA:258,131
DA:259,131
DA:260,131
DA:261,0
DA:263,134
DA:266,149
DA:267,149
DA:268,149
DA:269,149
DA:270,149
DA:271,149
DA:272,149
DA:273,149
DA:274,149
DA:275,149
DA:276,149
DA:277,149
DA:283,746
DA:284,746
DA:285,705
DA:286,746
DA:287,705
DA:288,9
DA:289,1
DA:290,1
DA:291,1
DA:292,1
DA:293,1
DA:294,1
DA:295,1
DA:296,1
DA:299,705
DA:300,705
DA:301,705
DA:302,715
DA:330,0
DA:331,0
DA:332,0
DA:333,0
DA:334,0
DA:335,0
DA:336,0
DA:337,0
DA:338,0
DA:342,985
DA:343,985
DA:344,985
DA:345,985
DA:346,985
DA:347,985
DA:348,985
DA:349,985
DA:350,985
DA:351,985
DA:352,985
DA:353,985
DA:354,985
DA:355,985
DA:362,43
DA:363,43
DA:364,43
DA:368,0
DA:369,0
DA:370,0
DA:374,0
DA:375,0
DA:376,0
DA:380,0
DA:381,0
DA:382,0
DA:406,39
DA:407,39
DA:408,39
DA:412,0
DA:413,0
DA:414,0
DA:421,667
DA:422,667
DA:423,667
DA:424,667
DA:425,667
DA:427,985
DA:428,985
DA:429,667
DA:431,318
DA:432,0
DA:434,318
DA:435,39
DA:436,279
DA:437,279
DA:438,279
DA:439,279
DA:440,0
DA:441,279
DA:445,279
DA:446,279
DA:447,0
DA:448,0
DA:449,0
DA:452,279
DA:453,0
DA:454,0
DA:455,279
DA:456,279
DA:457,279
DA:458,127
DA:459,152
DA:460,152
DA:461,152
DA:462,152
DA:463,152
DA:464,152
DA:465,152
DA:466,152
DA:467,152
DA:468,152
DA:469,152
DA:470,152
DA:471,152
DA:472,155
DA:473,3
DA:474,3
DA:475,3
DA:476,0
DA:479,152
DA:480,152
DA:481,152
DA:482,152
DA:483,985
DA:487,985
DA:488,985
DA:489,985
DA:502,132
DA:505,132
DA:506,0
DA:507,132
DA:508,132
DA:509,132
DA:510,132
DA:511,132
DA:512,132
DA:513,132
DA:514,132
DA:515,132
DA:531,13
DA:532,13
DA:533,13
DA:534,13
DA:535,13
DA:536,13
DA:537,13
DA:538,13
DA:539,150
DA:540,150
DA:541,0
DA:542,150
DA:543,150
DA:544,150
DA:545,150
DA:547,154
DA:548,150
DA:549,4
DA:550,4
DA:551,0
DA:552,4
DA:556,150
DA:557,150
DA:558,13
DA:559,13
DA:560,13
DA:562,1
DA:563,1
DA:564,1
DA:565,1
DA:566,1
DA:567,1
DA:568,1
DA:569,1
DA:571,11
DA:572,11
DA:573,11
DA:574,11
DA:575,11
DA:576,11
DA:577,11
DA:578,11
DA:579,11
DA:580,11
DA:581,11
DA:584,1
DA:585,1
DA:586,1
DA:587,1
DA:588,1
DA:589,1
DA:590,1
DA:593,1
DA:594,1
DA:595,1
DA:596,1
DA:597,1
DA:598,1
DA:599,1
DA:600,1
DA:601,1
DA:602,1
DA:603,1
DA:604,1
DA:605,1
DA:606,1
DA:607,1
DA:608,1
DA:609,1
DA:610,1
DA:611,1
DA:612,1
DA:613,1
DA:614,1
DA:615,1
DA:616,1
DA:619,1
DA:620,1
DA:621,1
DA:622,1
DA:623,1
DA:624,1
DA:625,1
DA:626,1
DA:627,1
DA:628,1
DA:629,1
DA:630,1
DA:631,1
DA:632,1
DA:633,1
DA:634,1
DA:635,1
DA:636,1
DA:637,1
DA:638,1
DA:639,1
DA:640,1
DA:641,1
DA:642,1
DA:643,1
DA:644,1
DA:645,1
DA:646,1
DA:647,1
DA:650,1
DA:651,1
DA:652,1
DA:653,1
DA:654,1
DA:655,1
DA:656,1
DA:657,1
DA:658,1
DA:659,1
DA:660,1
DA:661,1
DA:662,1
DA:663,1
DA:664,1
DA:665,1
DA:666,1
DA:667,1
DA:668,1
DA:669,1
DA:670,1
DA:673,1
DA:674,1
DA:675,1
DA:676,1
DA:677,1
DA:678,1
DA:679,1
DA:680,1
DA:681,1
DA:682,1
DA:683,1
DA:684,1
DA:685,1
DA:686,1
DA:687,1
DA:688,1
DA:689,1
DA:690,1
DA:691,1
DA:692,1
DA:693,1
DA:694,1
DA:695,1
DA:696,1
DA:697,1
DA:698,1
DA:699,1
DA:700,0
DA:701,1
DA:702,1
DA:705,1
DA:706,1
DA:707,1
DA:708,1
DA:709,1
DA:710,1
DA:711,1
DA:712,1
DA:713,1
DA:714,1
DA:715,1
DA:716,1
DA:717,1
DA:718,1
DA:719,1
DA:720,1
DA:721,1
DA:722,1
DA:723,1
DA:724,1
DA:725,1
DA:726,1
DA:727,1
DA:728,1
DA:731,1
DA:732,1
DA:733,1
DA:734,1
DA:735,1
DA:736,1
DA:737,1
DA:738,1
DA:739,1
DA:740,1
DA:741,1
DA:742,1
DA:743,1
DA:744,1
DA:745,1
DA:746,1
DA:747,1
DA:748,1
DA:749,1
DA:752,1
DA:753,1
DA:754,1
DA:755,1
DA:756,1
DA:757,1
DA:758,1
DA:759,1
DA:760,1
DA:763,1
DA:764,1
DA:765,1
DA:766,1
DA:767,1
DA:768,1
DA:769,1
DA:770,1
DA:777,1
DA:778,1
DA:779,1
DA:780,1
DA:781,1
DA:782,1
DA:783,1
DA:784,1
DA:785,1
DA:786,1
DA:787,1
DA:788,1
DA:789,1
DA:790,1
DA:791,1
DA:792,1
DA:793,1
DA:794,1
DA:795,1
DA:796,1
DA:797,1
DA:798,401
DA:799,400
DA:800,400
DA:801,1
DA:802,260
DA:803,260
DA:804,260
DA:805,260
DA:806,260
DA:807,1
DA:808,1
DA:809,1
DA:810,140
DA:811,137
DA:812,137
DA:813,137
DA:814,1
DA:815,1
DA:816,1
DA:817,400
DA:818,400
DA:819,1
DA:820,0
DA:821,1
DA:822,1600
DA:823,1200
DA:824,1200
DA:825,1
DA:826,1
DA:827,1
DA:828,1
DA:829,1
DA:830,1
DA:831,1
DA:832,1
DA:839,1
DA:840,1
DA:841,1
DA:842,1
DA:843,1
DA:844,1
DA:845,1
DA:846,1
DA:847,1
DA:848,1
DA:849,1
DA:850,1
DA:851,1
DA:852,1
DA:853,1
DA:854,1
DA:855,1
DA:856,1
DA:862,1
DA:863,1
DA:864,1
DA:865,1
DA:866,1
DA:867,1
DA:868,1
DA:869,1
DA:870,1
DA:871,1
DA:872,1
DA:873,1
DA:874,1
DA:875,1
DA:876,1
DA:877,1
DA:878,1
DA:879,1
DA:880,1
DA:881,1
DA:882,1
DA:883,1
DA:884,1
DA:885,1
DA:886,1
DA:894,1
DA:895,1
DA:896,1
DA:897,1
DA:898,914
DA:899,914
DA:900,911
DA:901,3
DA:902,3
DA:903,3
DA:904,3
DA:905,0
DA:906,0
DA:908,1
DA:909,1
DA:910,0
DA:911,0
DA:913,1
BRF:0
BRH:0
LF:787
LH:732
end_of_record
SF:/home/ubuntu/Code/ExpressGateway/crates/lb-io/src/quic_pool.rs
FN:419,_RNCNCNvMs1_NtCs4GBZUaiPV4D_5lb_io9quic_poolNtB9_16QuicUpstreamPool14dial_dedicated00CsbRY1QtCoCCH_7lb_quic
FN:358,_RNCNCNvMs1_NtCs4GBZUaiPV4D_5lb_io9quic_poolNtB9_16QuicUpstreamPool8dial_new00CsbRY1QtCoCCH_7lb_quic
FN:470,_RNCNCNvNtCs4GBZUaiPV4D_5lb_io9quic_pool17connect_and_drive00CsbRY1QtCoCCH_7lb_quic
FN:490,_RNCNCNvNtCs4GBZUaiPV4D_5lb_io9quic_pool17connect_and_drive0s0_0CsbRY1QtCoCCH_7lb_quic
FN:487,_RNCNCNvNtCs4GBZUaiPV4D_5lb_io9quic_pool17connect_and_drive0s_0CsbRY1QtCoCCH_7lb_quic
FN:417,_RNCNvMs1_NtCs4GBZUaiPV4D_5lb_io9quic_poolNtB7_16QuicUpstreamPool14dial_dedicated0CsbRY1QtCoCCH_7lb_quic
FN:306,_RNCNvMs1_NtCs4GBZUaiPV4D_5lb_io9quic_poolNtB7_16QuicUpstreamPool14probe_liveness0CsbRY1QtCoCCH_7lb_quic
FN:264,_RNCNvMs1_NtCs4GBZUaiPV4D_5lb_io9quic_poolNtB7_16QuicUpstreamPool7acquire0CsbRY1QtCoCCH_7lb_quic
FN:351,_RNCNvMs1_NtCs4GBZUaiPV4D_5lb_io9quic_poolNtB7_16QuicUpstreamPool8dial_new0CsbRY1QtCoCCH_7lb_quic
FN:466,_RNCNvNtCs4GBZUaiPV4D_5lb_io9quic_pool17connect_and_drive0CsbRY1QtCoCCH_7lb_quic
FN:230,_RNvMs1_NtCs4GBZUaiPV4D_5lb_io9quic_poolNtB5_16QuicUpstreamPool10idle_count
FN:249,_RNvMs1_NtCs4GBZUaiPV4D_5lb_io9quic_poolNtB5_16QuicUpstreamPool11fresh_dials
FN:412,_RNvMs1_NtCs4GBZUaiPV4D_5lb_io9quic_poolNtB5_16QuicUpstreamPool14dial_dedicated
FN:236,_RNvMs1_NtCs4GBZUaiPV4D_5lb_io9quic_poolNtB5_16QuicUpstreamPool14idle_count_for
FN:243,_RNvMs1_NtCs4GBZUaiPV4D_5lb_io9quic_poolNtB5_16QuicUpstreamPool14probe_discards
FN:306,_RNvMs1_NtCs4GBZUaiPV4D_5lb_io9quic_poolNtB5_16QuicUpstreamPool14probe_liveness
FN:211,_RNvMs1_NtCs4GBZUaiPV4D_5lb_io9quic_poolNtB5_16QuicUpstreamPool3new
FN:264,_RNvMs1_NtCs4GBZUaiPV4D_5lb_io9quic_poolNtB5_16QuicUpstreamPool7acquire
FN:351,_RNvMs1_NtCs4GBZUaiPV4D_5lb_io9quic_poolNtB5_16QuicUpstreamPool8dial_new
FN:291,_RNvMs1_NtCs4GBZUaiPV4D_5lb_io9quic_poolNtB5_16QuicUpstreamPool8pop_idle
FN:612,_RNvMs4_NtCs4GBZUaiPV4D_5lb_io9quic_poolNtB5_10PooledQuic12set_reusable
FN:601,_RNvMs4_NtCs4GBZUaiPV4D_5lb_io9quic_poolNtB5_10PooledQuic3get
FN:606,_RNvMs4_NtCs4GBZUaiPV4D_5lb_io9quic_poolNtB5_10PooledQuic7get_mut
FN:620,_RNvMs4_NtCs4GBZUaiPV4D_5lb_io9quic_poolNtB5_10PooledQuic9take_conn
FN:131,_RNvMs_NtCs4GBZUaiPV4D_5lb_io9quic_poolNtB4_16UpstreamQuicConn10connection
FN:166,_RNvMs_NtCs4GBZUaiPV4D_5lb_io9quic_poolNtB4_16UpstreamQuicConn10created_at
FN:136,_RNvMs_NtCs4GBZUaiPV4D_5lb_io9quic_poolNtB4_16UpstreamQuicConn14connection_mut
FN:160,_RNvMs_NtCs4GBZUaiPV4D_5lb_io9quic_poolNtB4_16UpstreamQuicConn3cid
FN:148,_RNvMs_NtCs4GBZUaiPV4D_5lb_io9quic_poolNtB4_16UpstreamQuicConn4peer
FN:154,_RNvMs_NtCs4GBZUaiPV4D_5lb_io9quic_poolNtB4_16UpstreamQuicConn5local
FN:142,_RNvMs_NtCs4GBZUaiPV4D_5lb_io9quic_poolNtB4_16UpstreamQuicConn6socket
FN:461,_RNvNtCs4GBZUaiPV4D_5lb_io9quic_pool17connect_and_drive
FN:89,_RNvXNtCs4GBZUaiPV4D_5lb_io9quic_poolNtB2_14QuicPoolConfigNtNtCs2va5m0jqTTM_4core7default7Default7default
FN:195,_RNvXs0_NtCs4GBZUaiPV4D_5lb_io9quic_poolNtB5_16QuicUpstreamPoolNtNtCs2va5m0jqTTM_4core3fmt5Debug3fmt
FN:567,_RNvXs2_NtCs4GBZUaiPV4D_5lb_io9quic_poolNtB5_13DedicatedQuicNtNtCs2va5m0jqTTM_4core3fmt5Debug3fmt
FN:588,_RNvXs3_NtCs4GBZUaiPV4D_5lb_io9quic_poolNtB5_10PooledQuicNtNtCs2va5m0jqTTM_4core3fmt5Debug3fmt
FN:631,_RNvXs5_NtCs4GBZUaiPV4D_5lb_io9quic_poolNtB5_10PooledQuicNtNtNtCs2va5m0jqTTM_4core3ops4drop4Drop4drop
FN:419,_RNCNCNvMs1_NtCs4GBZUaiPV4D_5lb_io9quic_poolNtB9_16QuicUpstreamPool14dial_dedicated00Bb_
FN:358,_RNCNCNvMs1_NtCs4GBZUaiPV4D_5lb_io9quic_poolNtB9_16QuicUpstreamPool8dial_new00Bb_
FN:470,_RNCNCNvNtCs4GBZUaiPV4D_5lb_io9quic_pool17connect_and_drive00B7_
FN:490,_RNCNCNvNtCs4GBZUaiPV4D_5lb_io9quic_pool17connect_and_drive0s0_0B7_
FN:487,_RNCNCNvNtCs4GBZUaiPV4D_5lb_io9quic_pool17connect_and_drive0s_0B7_
FN:417,_RNCNvMs1_NtCs4GBZUaiPV4D_5lb_io9quic_poolNtB7_16QuicUpstreamPool14dial_dedicated0B9_
FN:306,_RNCNvMs1_NtCs4GBZUaiPV4D_5lb_io9quic_poolNtB7_16QuicUpstreamPool14probe_liveness0B9_
FN:264,_RNCNvMs1_NtCs4GBZUaiPV4D_5lb_io9quic_poolNtB7_16QuicUpstreamPool7acquire0B9_
FN:351,_RNCNvMs1_NtCs4GBZUaiPV4D_5lb_io9quic_poolNtB7_16QuicUpstreamPool8dial_new0B9_
FN:466,_RNCNvNtCs4GBZUaiPV4D_5lb_io9quic_pool17connect_and_drive0B5_
FN:237,_RNCNvMs1_NtCs4GBZUaiPV4D_5lb_io9quic_poolNtB7_16QuicUpstreamPool14idle_count_for0B9_
FN:659,_RNCNvXs5_NtCs4GBZUaiPV4D_5lb_io9quic_poolNtB7_10PooledQuicNtNtNtCs2va5m0jqTTM_4core3ops4drop4Drop4drop0B9_
FN:419,_RNCNCNvMs1_NtCs450l62AvZFl_5lb_io9quic_poolNtB9_16QuicUpstreamPool14dial_dedicated00Bb_
FN:417,_RNCNvMs1_NtCs450l62AvZFl_5lb_io9quic_poolNtB7_16QuicUpstreamPool14dial_dedicated0B9_
FN:249,_RNvMs1_NtCs450l62AvZFl_5lb_io9quic_poolNtB5_16QuicUpstreamPool11fresh_dials
FN:412,_RNvMs1_NtCs450l62AvZFl_5lb_io9quic_poolNtB5_16QuicUpstreamPool14dial_dedicated
FN:612,_RNvMs4_NtCs450l62AvZFl_5lb_io9quic_poolNtB5_10PooledQuic12set_reusable
FN:601,_RNvMs4_NtCs450l62AvZFl_5lb_io9quic_poolNtB5_10PooledQuic3get
FN:606,_RNvMs4_NtCs450l62AvZFl_5lb_io9quic_poolNtB5_10PooledQuic7get_mut
FN:620,_RNvMs4_NtCs450l62AvZFl_5lb_io9quic_poolNtB5_10PooledQuic9take_conn
FN:131,_RNvMs_NtCs450l62AvZFl_5lb_io9quic_poolNtB4_16UpstreamQuicConn10connection
FN:166,_RNvMs_NtCs450l62AvZFl_5lb_io9quic_poolNtB4_16UpstreamQuicConn10created_at
FN:136,_RNvMs_NtCs450l62AvZFl_5lb_io9quic_poolNtB4_16UpstreamQuicConn14connection_mut
FN:160,_RNvMs_NtCs450l62AvZFl_5lb_io9quic_poolNtB4_16UpstreamQuicConn3cid
FN:148,_RNvMs_NtCs450l62AvZFl_5lb_io9quic_poolNtB4_16UpstreamQuicConn4peer
FN:154,_RNvMs_NtCs450l62AvZFl_5lb_io9quic_poolNtB4_16UpstreamQuicConn5local
FN:142,_RNvMs_NtCs450l62AvZFl_5lb_io9quic_poolNtB4_16UpstreamQuicConn6socket
FN:195,_RNvXs0_NtCs450l62AvZFl_5lb_io9quic_poolNtB5_16QuicUpstreamPoolNtNtCs2va5m0jqTTM_4core3fmt5Debug3fmt
FN:567,_RNvXs2_NtCs450l62AvZFl_5lb_io9quic_poolNtB5_13DedicatedQuicNtNtCs2va5m0jqTTM_4core3fmt5Debug3fmt
FN:588,_RNvXs3_NtCs450l62AvZFl_5lb_io9quic_poolNtB5_10PooledQuicNtNtCs2va5m0jqTTM_4core3fmt5Debug3fmt
FN:358,_RNCNCNvMs1_NtCs450l62AvZFl_5lb_io9quic_poolNtB9_16QuicUpstreamPool8dial_new00Bb_
FN:470,_RNCNCNvNtCs450l62AvZFl_5lb_io9quic_pool17connect_and_drive00B7_
FN:490,_RNCNCNvNtCs450l62AvZFl_5lb_io9quic_pool17connect_and_drive0s0_0B7_
FN:487,_RNCNCNvNtCs450l62AvZFl_5lb_io9quic_pool17connect_and_drive0s_0B7_
FN:237,_RNCNvMs1_NtCs450l62AvZFl_5lb_io9quic_poolNtB7_16QuicUpstreamPool14idle_count_for0B9_
FN:306,_RNCNvMs1_NtCs450l62AvZFl_5lb_io9quic_poolNtB7_16QuicUpstreamPool14probe_liveness0B9_
FN:264,_RNCNvMs1_NtCs450l62AvZFl_5lb_io9quic_poolNtB7_16QuicUpstreamPool7acquire0B9_
FN:351,_RNCNvMs1_NtCs450l62AvZFl_5lb_io9quic_poolNtB7_16QuicUpstreamPool8dial_new0B9_
FN:466,_RNCNvNtCs450l62AvZFl_5lb_io9quic_pool17connect_and_drive0B5_
FN:659,_RNCNvXs5_NtCs450l62AvZFl_5lb_io9quic_poolNtB7_10PooledQuicNtNtNtCs2va5m0jqTTM_4core3ops4drop4Drop4drop0B9_
FN:853,_RNCNCNvNtNtCs450l62AvZFl_5lb_io9quic_pool5testss_34max_age_expiry_discards_on_acquire00B9_
FN:740,_RNCNvNtNtCs450l62AvZFl_5lb_io9quic_pool5tests14push_into_pool0B7_
FN:702,_RNCNvNtNtCs450l62AvZFl_5lb_io9quic_pool5tests19make_synthetic_conn0B7_
FN:680,_RNCNvNtNtCs450l62AvZFl_5lb_io9quic_pool5tests20dummy_config_factory0B7_
FN:812,_RNCNvNtNtCs450l62AvZFl_5lb_io9quic_pool5testss_18total_max_enforced0B7_
FN:756,_RNCNvNtNtCs450l62AvZFl_5lb_io9quic_pool5testss_21per_peer_max_enforced0B7_
FN:862,_RNCNvNtNtCs450l62AvZFl_5lb_io9quic_pool5testss_32probe_discards_closed_connection0B7_
FN:835,_RNCNvNtNtCs450l62AvZFl_5lb_io9quic_pool5testss_34max_age_expiry_discards_on_acquire0B7_
FN:735,_RNvNtNtCs450l62AvZFl_5lb_io9quic_pool5tests14push_into_pool
FN:702,_RNvNtNtCs450l62AvZFl_5lb_io9quic_pool5tests19make_synthetic_conn
FN:678,_RNvNtNtCs450l62AvZFl_5lb_io9quic_pool5tests20dummy_config_factory
FN:812,_RNvNtNtCs450l62AvZFl_5lb_io9quic_pool5testss_18total_max_enforced
FN:756,_RNvNtNtCs450l62AvZFl_5lb_io9quic_pool5testss_21per_peer_max_enforced
FN:903,_RNvNtNtCs450l62AvZFl_5lb_io9quic_pool5testss_24test_pool_dialer_uses_h3
FN:890,_RNvNtNtCs450l62AvZFl_5lb_io9quic_pool5testss_29idle_count_zero_on_fresh_pool
FN:862,_RNvNtNtCs450l62AvZFl_5lb_io9quic_pool5testss_32probe_discards_closed_connection
FN:835,_RNvNtNtCs450l62AvZFl_5lb_io9quic_pool5testss_34max_age_expiry_discards_on_acquire
FN:746,_RNvNtNtCs450l62AvZFl_5lb_io9quic_pool5testss_42quic_pool_config_defaults_match_section_21
FN:230,_RNvMs1_NtCs450l62AvZFl_5lb_io9quic_poolNtB5_16QuicUpstreamPool10idle_count
FN:236,_RNvMs1_NtCs450l62AvZFl_5lb_io9quic_poolNtB5_16QuicUpstreamPool14idle_count_for
FN:243,_RNvMs1_NtCs450l62AvZFl_5lb_io9quic_poolNtB5_16QuicUpstreamPool14probe_discards
FN:306,_RNvMs1_NtCs450l62AvZFl_5lb_io9quic_poolNtB5_16QuicUpstreamPool14probe_liveness
FN:211,_RNvMs1_NtCs450l62AvZFl_5lb_io9quic_poolNtB5_16QuicUpstreamPool3new
FN:264,_RNvMs1_NtCs450l62AvZFl_5lb_io9quic_poolNtB5_16QuicUpstreamPool7acquire
FN:351,_RNvMs1_NtCs450l62AvZFl_5lb_io9quic_poolNtB5_16QuicUpstreamPool8dial_new
FN:291,_RNvMs1_NtCs450l62AvZFl_5lb_io9quic_poolNtB5_16QuicUpstreamPool8pop_idle
FN:461,_RNvNtCs450l62AvZFl_5lb_io9quic_pool17connect_and_drive
FN:89,_RNvXNtCs450l62AvZFl_5lb_io9quic_poolNtB2_14QuicPoolConfigNtNtCs2va5m0jqTTM_4core7default7Default7default
FN:631,_RNvXs5_NtCs450l62AvZFl_5lb_io9quic_poolNtB5_10PooledQuicNtNtNtCs2va5m0jqTTM_4core3ops4drop4Drop4drop
FN:419,_RNCNCNvMs1_NtCs4GBZUaiPV4D_5lb_io9quic_poolNtB9_16QuicUpstreamPool14dial_dedicated00CsbTmJYq7gvpZ_7lb_quic
FN:358,_RNCNCNvMs1_NtCs4GBZUaiPV4D_5lb_io9quic_poolNtB9_16QuicUpstreamPool8dial_new00CsbTmJYq7gvpZ_7lb_quic
FN:470,_RNCNCNvNtCs4GBZUaiPV4D_5lb_io9quic_pool17connect_and_drive00CsbTmJYq7gvpZ_7lb_quic
FN:490,_RNCNCNvNtCs4GBZUaiPV4D_5lb_io9quic_pool17connect_and_drive0s0_0CsbTmJYq7gvpZ_7lb_quic
FN:487,_RNCNCNvNtCs4GBZUaiPV4D_5lb_io9quic_pool17connect_and_drive0s_0CsbTmJYq7gvpZ_7lb_quic
FN:417,_RNCNvMs1_NtCs4GBZUaiPV4D_5lb_io9quic_poolNtB7_16QuicUpstreamPool14dial_dedicated0CsbTmJYq7gvpZ_7lb_quic
FN:306,_RNCNvMs1_NtCs4GBZUaiPV4D_5lb_io9quic_poolNtB7_16QuicUpstreamPool14probe_liveness0CsbTmJYq7gvpZ_7lb_quic
FN:264,_RNCNvMs1_NtCs4GBZUaiPV4D_5lb_io9quic_poolNtB7_16QuicUpstreamPool7acquire0CsbTmJYq7gvpZ_7lb_quic
FN:351,_RNCNvMs1_NtCs4GBZUaiPV4D_5lb_io9quic_poolNtB7_16QuicUpstreamPool8dial_new0CsbTmJYq7gvpZ_7lb_quic
FN:466,_RNCNvNtCs4GBZUaiPV4D_5lb_io9quic_pool17connect_and_drive0CsbTmJYq7gvpZ_7lb_quic
FNDA:0,_RNCNCNvMs1_NtCs4GBZUaiPV4D_5lb_io9quic_poolNtB9_16QuicUpstreamPool14dial_dedicated00CsbRY1QtCoCCH_7lb_quic
FNDA:0,_RNCNCNvMs1_NtCs4GBZUaiPV4D_5lb_io9quic_poolNtB9_16QuicUpstreamPool8dial_new00CsbRY1QtCoCCH_7lb_quic
FNDA:0,_RNCNCNvNtCs4GBZUaiPV4D_5lb_io9quic_pool17connect_and_drive00CsbRY1QtCoCCH_7lb_quic
FNDA:0,_RNCNCNvNtCs4GBZUaiPV4D_5lb_io9quic_pool17connect_and_drive0s0_0CsbRY1QtCoCCH_7lb_quic
FNDA:0,_RNCNCNvNtCs4GBZUaiPV4D_5lb_io9quic_pool17connect_and_drive0s_0CsbRY1QtCoCCH_7lb_quic
FNDA:25,_RNCNvMs1_NtCs4GBZUaiPV4D_5lb_io9quic_poolNtB7_16QuicUpstreamPool14dial_dedicated0CsbRY1QtCoCCH_7lb_quic
FNDA:0,_RNCNvMs1_NtCs4GBZUaiPV4D_5lb_io9quic_poolNtB7_16QuicUpstreamPool14probe_liveness0CsbRY1QtCoCCH_7lb_quic
FNDA:474,_RNCNvMs1_NtCs4GBZUaiPV4D_5lb_io9quic_poolNtB7_16QuicUpstreamPool7acquire0CsbRY1QtCoCCH_7lb_quic
FNDA:474,_RNCNvMs1_NtCs4GBZUaiPV4D_5lb_io9quic_poolNtB7_16QuicUpstreamPool8dial_new0CsbRY1QtCoCCH_7lb_quic
FNDA:499,_RNCNvNtCs4GBZUaiPV4D_5lb_io9quic_pool17connect_and_drive0CsbRY1QtCoCCH_7lb_quic
FNDA:1,_RNvMs1_NtCs4GBZUaiPV4D_5lb_io9quic_poolNtB5_16QuicUpstreamPool10idle_count
FNDA:2,_RNvMs1_NtCs4GBZUaiPV4D_5lb_io9quic_poolNtB5_16QuicUpstreamPool11fresh_dials
FNDA:25,_RNvMs1_NtCs4GBZUaiPV4D_5lb_io9quic_poolNtB5_16QuicUpstreamPool14dial_dedicated
FNDA:0,_RNvMs1_NtCs4GBZUaiPV4D_5lb_io9quic_poolNtB5_16QuicUpstreamPool14idle_count_for
FNDA:0,_RNvMs1_NtCs4GBZUaiPV4D_5lb_io9quic_poolNtB5_16QuicUpstreamPool14probe_discards
FNDA:0,_RNvMs1_NtCs4GBZUaiPV4D_5lb_io9quic_poolNtB5_16QuicUpstreamPool14probe_liveness
FNDA:326,_RNvMs1_NtCs4GBZUaiPV4D_5lb_io9quic_poolNtB5_16QuicUpstreamPool3new
FNDA:474,_RNvMs1_NtCs4GBZUaiPV4D_5lb_io9quic_poolNtB5_16QuicUpstreamPool7acquire
FNDA:474,_RNvMs1_NtCs4GBZUaiPV4D_5lb_io9quic_poolNtB5_16QuicUpstreamPool8dial_new
FNDA:474,_RNvMs1_NtCs4GBZUaiPV4D_5lb_io9quic_poolNtB5_16QuicUpstreamPool8pop_idle
FNDA:293,_RNvMs4_NtCs4GBZUaiPV4D_5lb_io9quic_poolNtB5_10PooledQuic12set_reusable
FNDA:0,_RNvMs4_NtCs4GBZUaiPV4D_5lb_io9quic_poolNtB5_10PooledQuic3get
FNDA:293,_RNvMs4_NtCs4GBZUaiPV4D_5lb_io9quic_poolNtB5_10PooledQuic7get_mut
FNDA:0,_RNvMs4_NtCs4GBZUaiPV4D_5lb_io9quic_poolNtB5_10PooledQuic9take_conn
FNDA:0,_RNvMs_NtCs4GBZUaiPV4D_5lb_io9quic_poolNtB4_16UpstreamQuicConn10connection
FNDA:0,_RNvMs_NtCs4GBZUaiPV4D_5lb_io9quic_poolNtB4_16UpstreamQuicConn10created_at
FNDA:293,_RNvMs_NtCs4GBZUaiPV4D_5lb_io9quic_poolNtB4_16UpstreamQuicConn14connection_mut
FNDA:0,_RNvMs_NtCs4GBZUaiPV4D_5lb_io9quic_poolNtB4_16UpstreamQuicConn3cid
FNDA:293,_RNvMs_NtCs4GBZUaiPV4D_5lb_io9quic_poolNtB4_16UpstreamQuicConn4peer
FNDA:293,_RNvMs_NtCs4GBZUaiPV4D_5lb_io9quic_poolNtB4_16UpstreamQuicConn5local
FNDA:293,_RNvMs_NtCs4GBZUaiPV4D_5lb_io9quic_poolNtB4_16UpstreamQuicConn6socket
FNDA:499,_RNvNtCs4GBZUaiPV4D_5lb_io9quic_pool17connect_and_drive
FNDA:326,_RNvXNtCs4GBZUaiPV4D_5lb_io9quic_poolNtB2_14QuicPoolConfigNtNtCs2va5m0jqTTM_4core7default7Default7default
FNDA:0,_RNvXs0_NtCs4GBZUaiPV4D_5lb_io9quic_poolNtB5_16QuicUpstreamPoolNtNtCs2va5m0jqTTM_4core3fmt5Debug3fmt
FNDA:0,_RNvXs2_NtCs4GBZUaiPV4D_5lb_io9quic_poolNtB5_13DedicatedQuicNtNtCs2va5m0jqTTM_4core3fmt5Debug3fmt
FNDA:0,_RNvXs3_NtCs4GBZUaiPV4D_5lb_io9quic_poolNtB5_10PooledQuicNtNtCs2va5m0jqTTM_4core3fmt5Debug3fmt
FNDA:293,_RNvXs5_NtCs4GBZUaiPV4D_5lb_io9quic_poolNtB5_10PooledQuicNtNtNtCs2va5m0jqTTM_4core3ops4drop4Drop4drop
FNDA:0,_RNCNCNvMs1_NtCs4GBZUaiPV4D_5lb_io9quic_poolNtB9_16QuicUpstreamPool14dial_dedicated00Bb_
FNDA:0,_RNCNCNvMs1_NtCs4GBZUaiPV4D_5lb_io9quic_poolNtB9_16QuicUpstreamPool8dial_new00Bb_
FNDA:0,_RNCNCNvNtCs4GBZUaiPV4D_5lb_io9quic_pool17connect_and_drive00B7_
FNDA:0,_RNCNCNvNtCs4GBZUaiPV4D_5lb_io9quic_pool17connect_and_drive0s0_0B7_
FNDA:0,_RNCNCNvNtCs4GBZUaiPV4D_5lb_io9quic_pool17connect_and_drive0s_0B7_
FNDA:0,_RNCNvMs1_NtCs4GBZUaiPV4D_5lb_io9quic_poolNtB7_16QuicUpstreamPool14dial_dedicated0B9_
FNDA:0,_RNCNvMs1_NtCs4GBZUaiPV4D_5lb_io9quic_poolNtB7_16QuicUpstreamPool14probe_liveness0B9_
FNDA:0,_RNCNvMs1_NtCs4GBZUaiPV4D_5lb_io9quic_poolNtB7_16QuicUpstreamPool7acquire0B9_
FNDA:0,_RNCNvMs1_NtCs4GBZUaiPV4D_5lb_io9quic_poolNtB7_16QuicUpstreamPool8dial_new0B9_
FNDA:0,_RNCNvNtCs4GBZUaiPV4D_5lb_io9quic_pool17connect_and_drive0B5_
FNDA:0,_RNCNvMs1_NtCs4GBZUaiPV4D_5lb_io9quic_poolNtB7_16QuicUpstreamPool14idle_count_for0B9_
FNDA:0,_RNCNvXs5_NtCs4GBZUaiPV4D_5lb_io9quic_poolNtB7_10PooledQuicNtNtNtCs2va5m0jqTTM_4core3ops4drop4Drop4drop0B9_
FNDA:0,_RNCNCNvMs1_NtCs450l62AvZFl_5lb_io9quic_poolNtB9_16QuicUpstreamPool14dial_dedicated00Bb_
FNDA:0,_RNCNvMs1_NtCs450l62AvZFl_5lb_io9quic_poolNtB7_16QuicUpstreamPool14dial_dedicated0B9_
FNDA:0,_RNvMs1_NtCs450l62AvZFl_5lb_io9quic_poolNtB5_16QuicUpstreamPool11fresh_dials
FNDA:0,_RNvMs1_NtCs450l62AvZFl_5lb_io9quic_poolNtB5_16QuicUpstreamPool14dial_dedicated
FNDA:0,_RNvMs4_NtCs450l62AvZFl_5lb_io9quic_poolNtB5_10PooledQuic12set_reusable
FNDA:0,_RNvMs4_NtCs450l62AvZFl_5lb_io9quic_poolNtB5_10PooledQuic3get
FNDA:0,_RNvMs4_NtCs450l62AvZFl_5lb_io9quic_poolNtB5_10PooledQuic7get_mut
FNDA:0,_RNvMs4_NtCs450l62AvZFl_5lb_io9quic_poolNtB5_10PooledQuic9take_conn
FNDA:0,_RNvMs_NtCs450l62AvZFl_5lb_io9quic_poolNtB4_16UpstreamQuicConn10connection
FNDA:0,_RNvMs_NtCs450l62AvZFl_5lb_io9quic_poolNtB4_16UpstreamQuicConn10created_at
FNDA:0,_RNvMs_NtCs450l62AvZFl_5lb_io9quic_poolNtB4_16UpstreamQuicConn14connection_mut
FNDA:0,_RNvMs_NtCs450l62AvZFl_5lb_io9quic_poolNtB4_16UpstreamQuicConn3cid
FNDA:0,_RNvMs_NtCs450l62AvZFl_5lb_io9quic_poolNtB4_16UpstreamQuicConn4peer
FNDA:0,_RNvMs_NtCs450l62AvZFl_5lb_io9quic_poolNtB4_16UpstreamQuicConn5local
FNDA:0,_RNvMs_NtCs450l62AvZFl_5lb_io9quic_poolNtB4_16UpstreamQuicConn6socket
FNDA:0,_RNvXs0_NtCs450l62AvZFl_5lb_io9quic_poolNtB5_16QuicUpstreamPoolNtNtCs2va5m0jqTTM_4core3fmt5Debug3fmt
FNDA:0,_RNvXs2_NtCs450l62AvZFl_5lb_io9quic_poolNtB5_13DedicatedQuicNtNtCs2va5m0jqTTM_4core3fmt5Debug3fmt
FNDA:0,_RNvXs3_NtCs450l62AvZFl_5lb_io9quic_poolNtB5_10PooledQuicNtNtCs2va5m0jqTTM_4core3fmt5Debug3fmt
FNDA:0,_RNCNCNvMs1_NtCs450l62AvZFl_5lb_io9quic_poolNtB9_16QuicUpstreamPool8dial_new00Bb_
FNDA:0,_RNCNCNvNtCs450l62AvZFl_5lb_io9quic_pool17connect_and_drive00B7_
FNDA:0,_RNCNCNvNtCs450l62AvZFl_5lb_io9quic_pool17connect_and_drive0s0_0B7_
FNDA:0,_RNCNCNvNtCs450l62AvZFl_5lb_io9quic_pool17connect_and_drive0s_0B7_
FNDA:3,_RNCNvMs1_NtCs450l62AvZFl_5lb_io9quic_poolNtB7_16QuicUpstreamPool14idle_count_for0B9_
FNDA:1,_RNCNvMs1_NtCs450l62AvZFl_5lb_io9quic_poolNtB7_16QuicUpstreamPool14probe_liveness0B9_
FNDA:2,_RNCNvMs1_NtCs450l62AvZFl_5lb_io9quic_poolNtB7_16QuicUpstreamPool7acquire0B9_
FNDA:2,_RNCNvMs1_NtCs450l62AvZFl_5lb_io9quic_poolNtB7_16QuicUpstreamPool8dial_new0B9_
FNDA:2,_RNCNvNtCs450l62AvZFl_5lb_io9quic_pool17connect_and_drive0B5_
FNDA:0,_RNCNvXs5_NtCs450l62AvZFl_5lb_io9quic_poolNtB7_10PooledQuicNtNtNtCs2va5m0jqTTM_4core3ops4drop4Drop4drop0B9_
FNDA:1,_RNCNCNvNtNtCs450l62AvZFl_5lb_io9quic_pool5testss_34max_age_expiry_discards_on_acquire00B9_
FNDA:5,_RNCNvNtNtCs450l62AvZFl_5lb_io9quic_pool5tests14push_into_pool0B7_
FNDA:8,_RNCNvNtNtCs450l62AvZFl_5lb_io9quic_pool5tests19make_synthetic_conn0B7_
FNDA:11,_RNCNvNtNtCs450l62AvZFl_5lb_io9quic_pool5tests20dummy_config_factory0B7_
FNDA:1,_RNCNvNtNtCs450l62AvZFl_5lb_io9quic_pool5testss_18total_max_enforced0B7_
FNDA:1,_RNCNvNtNtCs450l62AvZFl_5lb_io9quic_pool5testss_21per_peer_max_enforced0B7_
FNDA:1,_RNCNvNtNtCs450l62AvZFl_5lb_io9quic_pool5testss_32probe_discards_closed_connection0B7_
FNDA:1,_RNCNvNtNtCs450l62AvZFl_5lb_io9quic_pool5testss_34max_age_expiry_discards_on_acquire0B7_
FNDA:7,_RNvNtNtCs450l62AvZFl_5lb_io9quic_pool5tests14push_into_pool
FNDA:8,_RNvNtNtCs450l62AvZFl_5lb_io9quic_pool5tests19make_synthetic_conn
FNDA:6,_RNvNtNtCs450l62AvZFl_5lb_io9quic_pool5tests20dummy_config_factory
FNDA:1,_RNvNtNtCs450l62AvZFl_5lb_io9quic_pool5testss_18total_max_enforced
FNDA:1,_RNvNtNtCs450l62AvZFl_5lb_io9quic_pool5testss_21per_peer_max_enforced
FNDA:1,_RNvNtNtCs450l62AvZFl_5lb_io9quic_pool5testss_24test_pool_dialer_uses_h3
FNDA:1,_RNvNtNtCs450l62AvZFl_5lb_io9quic_pool5testss_29idle_count_zero_on_fresh_pool
FNDA:1,_RNvNtNtCs450l62AvZFl_5lb_io9quic_pool5testss_32probe_discards_closed_connection
FNDA:1,_RNvNtNtCs450l62AvZFl_5lb_io9quic_pool5testss_34max_age_expiry_discards_on_acquire
FNDA:1,_RNvNtNtCs450l62AvZFl_5lb_io9quic_pool5testss_42quic_pool_config_defaults_match_section_21
FNDA:3,_RNvMs1_NtCs450l62AvZFl_5lb_io9quic_poolNtB5_16QuicUpstreamPool10idle_count
FNDA:3,_RNvMs1_NtCs450l62AvZFl_5lb_io9quic_poolNtB5_16QuicUpstreamPool14idle_count_for
FNDA:2,_RNvMs1_NtCs450l62AvZFl_5lb_io9quic_poolNtB5_16QuicUpstreamPool14probe_discards
FNDA:1,_RNvMs1_NtCs450l62AvZFl_5lb_io9quic_poolNtB5_16QuicUpstreamPool14probe_liveness
FNDA:5,_RNvMs1_NtCs450l62AvZFl_5lb_io9quic_poolNtB5_16QuicUpstreamPool3new
FNDA:2,_RNvMs1_NtCs450l62AvZFl_5lb_io9quic_poolNtB5_16QuicUpstreamPool7acquire
FNDA:2,_RNvMs1_NtCs450l62AvZFl_5lb_io9quic_poolNtB5_16QuicUpstreamPool8dial_new
FNDA:4,_RNvMs1_NtCs450l62AvZFl_5lb_io9quic_poolNtB5_16QuicUpstreamPool8pop_idle
FNDA:2,_RNvNtCs450l62AvZFl_5lb_io9quic_pool17connect_and_drive
FNDA:6,_RNvXNtCs450l62AvZFl_5lb_io9quic_poolNtB2_14QuicPoolConfigNtNtCs2va5m0jqTTM_4core7default7Default7default
FNDA:0,_RNvXs5_NtCs450l62AvZFl_5lb_io9quic_poolNtB5_10PooledQuicNtNtNtCs2va5m0jqTTM_4core3ops4drop4Drop4drop
FNDA:0,_RNCNCNvMs1_NtCs4GBZUaiPV4D_5lb_io9quic_poolNtB9_16QuicUpstreamPool14dial_dedicated00CsbTmJYq7gvpZ_7lb_quic
FNDA:0,_RNCNCNvMs1_NtCs4GBZUaiPV4D_5lb_io9quic_poolNtB9_16QuicUpstreamPool8dial_new00CsbTmJYq7gvpZ_7lb_quic
FNDA:0,_RNCNCNvNtCs4GBZUaiPV4D_5lb_io9quic_pool17connect_and_drive00CsbTmJYq7gvpZ_7lb_quic
FNDA:0,_RNCNCNvNtCs4GBZUaiPV4D_5lb_io9quic_pool17connect_and_drive0s0_0CsbTmJYq7gvpZ_7lb_quic
FNDA:0,_RNCNCNvNtCs4GBZUaiPV4D_5lb_io9quic_pool17connect_and_drive0s_0CsbTmJYq7gvpZ_7lb_quic
FNDA:0,_RNCNvMs1_NtCs4GBZUaiPV4D_5lb_io9quic_poolNtB7_16QuicUpstreamPool14dial_dedicated0CsbTmJYq7gvpZ_7lb_quic
FNDA:0,_RNCNvMs1_NtCs4GBZUaiPV4D_5lb_io9quic_poolNtB7_16QuicUpstreamPool14probe_liveness0CsbTmJYq7gvpZ_7lb_quic
FNDA:0,_RNCNvMs1_NtCs4GBZUaiPV4D_5lb_io9quic_poolNtB7_16QuicUpstreamPool7acquire0CsbTmJYq7gvpZ_7lb_quic
FNDA:0,_RNCNvMs1_NtCs4GBZUaiPV4D_5lb_io9quic_poolNtB7_16QuicUpstreamPool8dial_new0CsbTmJYq7gvpZ_7lb_quic
FNDA:0,_RNCNvNtCs4GBZUaiPV4D_5lb_io9quic_pool17connect_and_drive0CsbTmJYq7gvpZ_7lb_quic
FNF:57
FNH:43
DA:89,332
DA:90,332
DA:91,332
DA:92,332
DA:93,332
DA:94,332
DA:95,332
DA:96,332
DA:97,332
DA:131,0
DA:132,0
DA:133,0
DA:136,293
DA:137,293
DA:138,293
DA:142,293
DA:143,293
DA:144,293
DA:148,293
DA:149,293
DA:150,293
DA:154,293
DA:155,293
DA:156,293
DA:160,0
DA:161,0
DA:162,0
DA:166,0
DA:167,0
DA:168,0
DA:195,0
DA:196,0
DA:197,0
DA:198,0
DA:199,0
DA:200,0
DA:201,0
DA:211,331
DA:212,331
DA:213,331
DA:214,331
DA:215,331
DA:216,331
DA:217,331
DA:218,331
DA:219,331
DA:220,331
DA:221,331
DA:222,331
DA:223,331
DA:224,331
DA:225,331
DA:226,331
DA:230,4
DA:231,4
DA:232,4
DA:236,3
DA:237,3
DA:238,3
DA:243,2
DA:244,2
DA:245,2
DA:249,2
DA:250,2
DA:251,2
DA:264,476
DA:267,478
DA:268,2
DA:269,2
DA:270,2
DA:271,1
DA:274,1
DA:275,1
DA:276,1
DA:277,1
DA:278,0
DA:279,0
DA:280,0
DA:281,0
DA:282,0
DA:283,0
DA:284,1
DA:285,1
DA:288,476
DA:289,415
DA:291,478
DA:292,4
DA:293,478
DA:294,4
DA:295,4
DA:296,4
DA:297,2
DA:298,2
DA:299,4
DA:300,478
DA:306,1
DA:307,1
DA:308,0
DA:310,1
DA:311,0
DA:312,1
DA:313,1
DA:314,1
DA:316,1
DA:317,0
DA:318,0
DA:319,0
DA:320,0
DA:321,0
DA:323,1
DA:324,0
DA:328,1
DA:329,1
DA:330,1
DA:331,1
DA:332,1
DA:333,1
DA:334,0
DA:335,0
DA:336,0
DA:337,0
DA:338,0
DA:339,0
DA:340,0
DA:341,0
DA:342,0
DA:343,0
DA:346,1
DA:348,1
DA:351,476
DA:357,476
DA:358,476
DA:360,293
DA:361,293
DA:362,293
DA:363,293
DA:364,476
DA:366,293
DA:367,293
DA:368,293
DA:369,293
DA:370,293
DA:371,293
DA:372,293
DA:373,293
DA:374,293
DA:375,293
DA:376,293
DA:377,293
DA:378,293
DA:379,293
DA:380,293
DA:381,293
DA:382,293
DA:383,293
DA:384,293
DA:385,293
DA:386,415
DA:412,25
DA:413,25
DA:414,25
DA:415,25
DA:416,25
DA:417,25
DA:418,25
DA:419,25
DA:420,25
DA:424,25
DA:425,25
DA:426,25
DA:428,25
DA:430,25
DA:431,25
DA:432,25
DA:433,25
DA:434,25
DA:435,25
DA:436,25
DA:437,25
DA:438,25
DA:461,501
DA:462,501
DA:463,501
DA:464,501
DA:465,501
DA:466,501
DA:467,501
DA:468,25
DA:469,25
DA:470,25
DA:471,476
DA:473,501
DA:474,501
DA:475,501
DA:476,501
DA:477,501
DA:478,501
DA:479,501
DA:480,0
DA:482,501
DA:483,501
DA:484,501
DA:485,501
DA:486,501
DA:487,501
DA:488,501
DA:489,501
DA:490,501
DA:493,501
DA:494,501
DA:495,501
DA:497,1231
DA:498,122
DA:499,1109
DA:500,1109
DA:501,0
DA:502,1109
DA:505,2341
DA:506,1232
DA:507,1232
DA:508,1232
DA:510,1109
DA:511,0
DA:512,0
DA:516,1109
DA:517,318
DA:518,791
DA:519,791
DA:520,791
DA:521,318
DA:522,318
DA:523,318
DA:524,318
DA:525,318
DA:526,0
DA:529,0
DA:530,412
DA:531,412
DA:532,412
DA:536,318
DA:537,318
DA:538,318
DA:539,318
DA:540,318
DA:541,318
DA:542,440
DA:567,0
DA:568,0
DA:569,0
DA:570,0
DA:571,0
DA:572,0
DA:573,0
DA:574,0
DA:588,0
DA:589,0
DA:590,0
DA:591,0
DA:592,0
DA:593,0
DA:594,0
DA:595,0
DA:601,0
DA:602,0
DA:603,0
DA:606,293
DA:607,293
DA:608,293
DA:612,293
DA:613,293
DA:614,293
DA:620,0
DA:621,0
DA:622,0
DA:631,293
DA:632,293
DA:633,0
DA:635,293
DA:636,0
DA:638,293
DA:639,293
DA:640,0
DA:641,0
DA:642,0
DA:644,0
DA:645,0
DA:646,0
DA:647,0
DA:648,0
DA:649,0
DA:650,0
DA:651,0
DA:652,0
DA:653,0
DA:654,0
DA:655,0
DA:656,0
DA:657,0
DA:658,0
DA:659,0
DA:660,0
DA:661,0
DA:662,0
DA:663,0
DA:664,0
DA:665,0
DA:666,0
DA:667,0
DA:668,0
DA:669,0
DA:670,293
DA:678,6
DA:679,6
DA:680,11
DA:681,11
DA:686,11
DA:687,11
DA:688,11
DA:689,11
DA:690,11
DA:691,11
DA:692,11
DA:693,11
DA:694,11
DA:695,11
DA:696,11
DA:697,11
DA:698,11
DA:699,11
DA:700,6
DA:702,8
DA:709,8
DA:710,8
DA:711,8
DA:712,8
DA:713,8
DA:714,8
DA:715,8
DA:716,8
DA:717,8
DA:718,8
DA:719,8
DA:720,8
DA:721,8
DA:722,8
DA:723,8
DA:724,8
DA:725,8
DA:726,8
DA:727,8
DA:728,8
DA:729,8
DA:730,8
DA:731,8
DA:732,8
DA:733,8
DA:735,7
DA:736,7
DA:737,7
DA:738,7
DA:739,7
DA:740,7
DA:741,7
DA:742,7
DA:743,7
DA:746,1
DA:747,1
DA:748,1
DA:749,1
DA:750,1
DA:751,1
DA:752,1
DA:753,1
DA:756,1
DA:757,1
DA:758,1
DA:759,1
DA:760,1
DA:761,1
DA:762,1
DA:763,1
DA:764,1
DA:765,4
DA:766,3
DA:767,1
DA:768,1
DA:769,1
DA:770,3
DA:771,1
DA:772,1
DA:773,1
DA:774,1
DA:775,1
DA:776,1
DA:777,1
DA:778,1
DA:779,1
DA:780,1
DA:781,1
DA:782,1
DA:783,1
DA:784,1
DA:785,1
DA:786,1
DA:787,1
DA:788,1
DA:789,1
DA:790,1
DA:791,1
DA:792,1
DA:793,1
DA:794,1
DA:795,1
DA:796,1
DA:797,1
DA:798,1
DA:799,1
DA:800,1
DA:801,1
DA:802,1
DA:803,1
DA:804,1
DA:805,1
DA:806,1
DA:807,1
DA:808,1
DA:809,1
DA:812,1
DA:813,1
DA:814,1
DA:815,1
DA:816,1
DA:817,1
DA:818,1
DA:819,1
DA:820,1
DA:821,1
DA:822,1
DA:823,1
DA:824,1
DA:825,1
DA:826,1
DA:827,1
DA:828,1
DA:829,1
DA:830,1
DA:831,1
DA:832,1
DA:835,1
DA:836,1
DA:837,1
DA:838,1
DA:839,1
DA:840,1
DA:841,1
DA:842,1
DA:843,1
DA:844,1
DA:845,1
DA:846,1
DA:847,1
DA:848,1
DA:849,1
DA:850,1
DA:851,1
DA:852,1
DA:853,1
DA:854,1
DA:855,1
DA:856,1
DA:857,1
DA:858,1
DA:859,1
DA:862,1
DA:863,1
DA:864,1
DA:865,1
DA:866,1
DA:867,1
DA:868,1
DA:869,1
DA:870,1
DA:871,1
DA:872,1
DA:873,1
DA:874,1
DA:875,1
DA:876,1
DA:877,1
DA:878,1
DA:879,1
DA:880,1
DA:881,1
DA:882,1
DA:883,1
DA:884,1
DA:885,1
DA:886,1
DA:887,1
DA:890,1
DA:891,1
DA:892,1
DA:893,1
DA:903,1
DA:904,1
DA:905,1
DA:906,1
DA:907,0
DA:912,1
DA:913,1
DA:914,1
DA:915,1
DA:916,1
DA:917,1
DA:918,1
BRF:0
BRH:0
LF:607
LH:499
end_of_record
SF:/home/ubuntu/Code/ExpressGateway/crates/lb-io/src/ring.rs
FN:73,_RNvNtCs4GBZUaiPV4D_5lb_io4ring10accept_one
FN:43,_RNvNtCs4GBZUaiPV4D_5lb_io4ring13nop_roundtrip
FN:234,_RNvNtCs4GBZUaiPV4D_5lb_io4ring19u32_from_nonneg_i32B3_
FN:226,_RNvNtCs4GBZUaiPV4D_5lb_io4ring21usize_from_nonneg_i32B3_
FN:244,_RNvNtCs4GBZUaiPV4D_5lb_io4ring30sockaddr_storage_to_socketaddr
FN:117,_RNvNtCs4GBZUaiPV4D_5lb_io4ring4recv
FN:142,_RNvNtCs4GBZUaiPV4D_5lb_io4ring4send
FN:168,_RNvNtCs4GBZUaiPV4D_5lb_io4ring6splice
FN:196,_RNvNtCs4GBZUaiPV4D_5lb_io4ring8push_sqe
FN:205,_RNvNtCs4GBZUaiPV4D_5lb_io4ring8reap_cqe
FN:214,_RNvNtCs4GBZUaiPV4D_5lb_io4ring9check_cqe
FN:82,_RNCNvNtCs4GBZUaiPV4D_5lb_io4ring10accept_one0B5_
FN:209,_RNCNvNtCs4GBZUaiPV4D_5lb_io4ring8reap_cqe0B5_
FN:82,_RNCNvNtCs450l62AvZFl_5lb_io4ring10accept_one0B5_
FN:209,_RNCNvNtCs450l62AvZFl_5lb_io4ring8reap_cqe0B5_
FN:73,_RNvNtCs450l62AvZFl_5lb_io4ring10accept_one
FN:43,_RNvNtCs450l62AvZFl_5lb_io4ring13nop_roundtrip
FN:234,_RNvNtCs450l62AvZFl_5lb_io4ring19u32_from_nonneg_i32B3_
FN:226,_RNvNtCs450l62AvZFl_5lb_io4ring21usize_from_nonneg_i32B3_
FN:244,_RNvNtCs450l62AvZFl_5lb_io4ring30sockaddr_storage_to_socketaddr
FN:117,_RNvNtCs450l62AvZFl_5lb_io4ring4recv
FN:142,_RNvNtCs450l62AvZFl_5lb_io4ring4send
FN:168,_RNvNtCs450l62AvZFl_5lb_io4ring6splice
FN:196,_RNvNtCs450l62AvZFl_5lb_io4ring8push_sqe
FN:205,_RNvNtCs450l62AvZFl_5lb_io4ring8reap_cqe
FN:214,_RNvNtCs450l62AvZFl_5lb_io4ring9check_cqe
FN:319,_RNvNtNtCs450l62AvZFl_5lb_io4ring5testss_19accept_one_loopback
FN:342,_RNvNtNtCs450l62AvZFl_5lb_io4ring5testss_23recv_send_loopback_pair
FN:312,_RNvNtNtCs450l62AvZFl_5lb_io4ring5testss_24nop_roundtrip_ok_or_skip
FN:382,_RNvNtNtCs450l62AvZFl_5lb_io4ring5testss_35splice_rejects_non_pipe_or_succeeds
FN:301,_RINvNtNtCs450l62AvZFl_5lb_io4ring5tests7skip_ifNtB4_14UringNopResultEB6_
FN:322,_RNCNvNtNtCs450l62AvZFl_5lb_io4ring5testss_19accept_one_loopback0B7_
FN:345,_RNCNvNtNtCs450l62AvZFl_5lb_io4ring5testss_23recv_send_loopback_pair0B7_
FN:388,_RNCNvNtNtCs450l62AvZFl_5lb_io4ring5testss_35splice_rejects_non_pipe_or_succeeds0B7_
FNDA:0,_RNvNtCs4GBZUaiPV4D_5lb_io4ring10accept_one
FNDA:648,_RNvNtCs4GBZUaiPV4D_5lb_io4ring13nop_roundtrip
FNDA:0,_RNvNtCs4GBZUaiPV4D_5lb_io4ring19u32_from_nonneg_i32B3_
FNDA:0,_RNvNtCs4GBZUaiPV4D_5lb_io4ring21usize_from_nonneg_i32B3_
FNDA:0,_RNvNtCs4GBZUaiPV4D_5lb_io4ring30sockaddr_storage_to_socketaddr
FNDA:0,_RNvNtCs4GBZUaiPV4D_5lb_io4ring4recv
FNDA:0,_RNvNtCs4GBZUaiPV4D_5lb_io4ring4send
FNDA:0,_RNvNtCs4GBZUaiPV4D_5lb_io4ring6splice
FNDA:648,_RNvNtCs4GBZUaiPV4D_5lb_io4ring8push_sqe
FNDA:648,_RNvNtCs4GBZUaiPV4D_5lb_io4ring8reap_cqe
FNDA:648,_RNvNtCs4GBZUaiPV4D_5lb_io4ring9check_cqe
FNDA:0,_RNCNvNtCs4GBZUaiPV4D_5lb_io4ring10accept_one0B5_
FNDA:0,_RNCNvNtCs4GBZUaiPV4D_5lb_io4ring8reap_cqe0B5_
FNDA:0,_RNCNvNtCs450l62AvZFl_5lb_io4ring10accept_one0B5_
FNDA:0,_RNCNvNtCs450l62AvZFl_5lb_io4ring8reap_cqe0B5_
FNDA:1,_RNvNtCs450l62AvZFl_5lb_io4ring10accept_one
FNDA:5,_RNvNtCs450l62AvZFl_5lb_io4ring13nop_roundtrip
FNDA:1,_RNvNtCs450l62AvZFl_5lb_io4ring19u32_from_nonneg_i32B3_
FNDA:2,_RNvNtCs450l62AvZFl_5lb_io4ring21usize_from_nonneg_i32B3_
FNDA:1,_RNvNtCs450l62AvZFl_5lb_io4ring30sockaddr_storage_to_socketaddr
FNDA:1,_RNvNtCs450l62AvZFl_5lb_io4ring4recv
FNDA:1,_RNvNtCs450l62AvZFl_5lb_io4ring4send
FNDA:1,_RNvNtCs450l62AvZFl_5lb_io4ring6splice
FNDA:9,_RNvNtCs450l62AvZFl_5lb_io4ring8push_sqe
FNDA:9,_RNvNtCs450l62AvZFl_5lb_io4ring8reap_cqe
FNDA:9,_RNvNtCs450l62AvZFl_5lb_io4ring9check_cqe
FNDA:1,_RNvNtNtCs450l62AvZFl_5lb_io4ring5testss_19accept_one_loopback
FNDA:1,_RNvNtNtCs450l62AvZFl_5lb_io4ring5testss_23recv_send_loopback_pair
FNDA:1,_RNvNtNtCs450l62AvZFl_5lb_io4ring5testss_24nop_roundtrip_ok_or_skip
FNDA:1,_RNvNtNtCs450l62AvZFl_5lb_io4ring5testss_35splice_rejects_non_pipe_or_succeeds
FNDA:1,_RINvNtNtCs450l62AvZFl_5lb_io4ring5tests7skip_ifNtB4_14UringNopResultEB6_
FNDA:1,_RNCNvNtNtCs450l62AvZFl_5lb_io4ring5testss_19accept_one_loopback0B7_
FNDA:1,_RNCNvNtNtCs450l62AvZFl_5lb_io4ring5testss_23recv_send_loopback_pair0B7_
FNDA:1,_RNCNvNtNtCs450l62AvZFl_5lb_io4ring5testss_35splice_rejects_non_pipe_or_succeeds0B7_
FNF:21
FNH:19
DA:43,653
DA:44,653
DA:45,653
DA:46,653
DA:47,653
DA:48,653
DA:49,653
DA:50,653
DA:52,653
DA:54,653
DA:55,653
DA:56,653
DA:57,653
DA:58,653
DA:59,653
DA:73,1
DA:74,1
DA:78,1
DA:79,1
DA:80,1
DA:81,1
DA:82,1
DA:84,1
DA:85,1
DA:86,1
DA:87,1
DA:88,1
DA:89,1
DA:90,1
DA:91,1
DA:92,1
DA:93,1
DA:94,1
DA:95,1
DA:97,1
DA:98,1
DA:99,1
DA:106,1
DA:108,1
DA:109,1
DA:117,1
DA:118,1
DA:119,1
DA:121,1
DA:122,1
DA:123,1
DA:124,1
DA:125,1
DA:126,1
DA:127,1
DA:128,1
DA:129,1
DA:131,1
DA:132,1
DA:133,1
DA:134,1
DA:135,1
DA:142,1
DA:143,1
DA:144,1
DA:146,1
DA:147,1
DA:148,1
DA:149,1
DA:150,1
DA:151,1
DA:152,1
DA:153,1
DA:155,1
DA:156,1
DA:157,1
DA:158,1
DA:159,1
DA:168,1
DA:169,1
DA:171,1
DA:172,1
DA:173,1
DA:174,1
DA:175,1
DA:176,1
DA:177,1
DA:178,1
DA:180,1
DA:181,1
DA:182,1
DA:183,1
DA:184,1
DA:196,657
DA:197,657
DA:198,657
DA:199,657
DA:200,657
DA:201,0
DA:203,657
DA:205,657
DA:206,657
DA:207,657
DA:208,657
DA:209,657
DA:210,657
DA:214,657
DA:215,657
DA:216,657
DA:217,0
DA:219,657
DA:221,657
DA:226,2
DA:227,2
DA:228,2
DA:229,2
DA:234,1
DA:235,1
DA:236,1
DA:244,1
DA:245,1
DA:246,1
DA:247,1
DA:248,1
DA:249,1
DA:250,1
DA:252,1
DA:253,1
DA:254,1
DA:255,0
DA:256,0
DA:257,0
DA:258,0
DA:259,1
DA:260,1
DA:261,1
DA:262,1
DA:263,1
DA:264,1
DA:265,1
DA:268,0
DA:269,0
DA:270,0
DA:271,0
DA:272,0
DA:273,0
DA:274,0
DA:275,0
DA:276,0
DA:277,0
DA:278,0
DA:279,0
DA:280,0
DA:281,0
DA:282,0
DA:283,0
DA:284,0
DA:285,0
DA:287,0
DA:288,0
DA:289,0
DA:290,0
DA:292,1
DA:301,1
DA:302,1
DA:303,1
DA:304,0
DA:305,0
DA:306,0
DA:309,1
DA:312,1
DA:313,1
DA:314,1
DA:315,0
DA:316,1
DA:319,1
DA:320,1
DA:321,1
DA:322,1
DA:323,1
DA:324,1
DA:325,1
DA:326,1
DA:327,1
DA:328,1
DA:329,1
DA:330,1
DA:331,1
DA:332,1
DA:334,1
DA:336,0
DA:338,1
DA:339,1
DA:342,1
DA:343,1
DA:344,1
DA:345,1
DA:346,1
DA:347,1
DA:348,1
DA:349,1
DA:350,1
DA:351,1
DA:352,1
DA:353,1
DA:354,1
DA:355,1
DA:356,1
DA:357,1
DA:358,1
DA:359,1
DA:360,1
DA:361,1
DA:362,1
DA:364,0
DA:365,0
DA:366,0
DA:367,0
DA:368,0
DA:373,1
DA:374,1
DA:375,0
DA:378,1
DA:379,1
DA:382,1
DA:383,1
DA:384,1
DA:385,1
DA:386,1
DA:387,1
DA:388,1
DA:389,1
DA:390,1
DA:391,1
DA:392,1
DA:393,1
DA:394,1
DA:395,1
DA:396,1
BRF:0
BRH:0
LF:242
LH:201
end_of_record
SF:/home/ubuntu/Code/ExpressGateway/crates/lb-io/src/sockopts.rs
FN:81,_RNvNtCs4GBZUaiPV4D_5lb_io8sockopts14apply_listener
FN:147,_RNvNtCs4GBZUaiPV4D_5lb_io8sockopts15apply_connected
FN:200,_RNvNtCs4GBZUaiPV4D_5lb_io8sockopts21apply_connected_tokio
FN:280,_RNvNtCs4GBZUaiPV4D_5lb_io8sockopts7set_int
FN:245,_RNvNtCs4GBZUaiPV4D_5lb_io8sockopts9apply_udp
FN:111,_RNCNvNtCs4GBZUaiPV4D_5lb_io8sockopts14apply_listener0B5_
FN:287,_RNCNvNtCs4GBZUaiPV4D_5lb_io8sockopts7set_int0B5_
FN:326,_RNvNtNtCs450l62AvZFl_5lb_io8sockopts5testss_17apply_udp_minimal
FN:311,_RNvNtNtCs450l62AvZFl_5lb_io8sockopts5testss_21apply_backend_minimal
FN:305,_RNvNtNtCs450l62AvZFl_5lb_io8sockopts5testss_31apply_listener_defaults_is_noop
FN:111,_RNCNvNtCs450l62AvZFl_5lb_io8sockopts14apply_listener0B5_
FN:287,_RNCNvNtCs450l62AvZFl_5lb_io8sockopts7set_int0B5_
FN:81,_RNvNtCs450l62AvZFl_5lb_io8sockopts14apply_listener
FN:147,_RNvNtCs450l62AvZFl_5lb_io8sockopts15apply_connected
FN:200,_RNvNtCs450l62AvZFl_5lb_io8sockopts21apply_connected_tokio
FN:280,_RNvNtCs450l62AvZFl_5lb_io8sockopts7set_int
FN:245,_RNvNtCs450l62AvZFl_5lb_io8sockopts9apply_udp
FNDA:0,_RNvNtCs4GBZUaiPV4D_5lb_io8sockopts14apply_listener
FNDA:0,_RNvNtCs4GBZUaiPV4D_5lb_io8sockopts15apply_connected
FNDA:701,_RNvNtCs4GBZUaiPV4D_5lb_io8sockopts21apply_connected_tokio
FNDA:0,_RNvNtCs4GBZUaiPV4D_5lb_io8sockopts7set_int
FNDA:0,_RNvNtCs4GBZUaiPV4D_5lb_io8sockopts9apply_udp
FNDA:0,_RNCNvNtCs4GBZUaiPV4D_5lb_io8sockopts14apply_listener0B5_
FNDA:0,_RNCNvNtCs4GBZUaiPV4D_5lb_io8sockopts7set_int0B5_
FNDA:1,_RNvNtNtCs450l62AvZFl_5lb_io8sockopts5testss_17apply_udp_minimal
FNDA:1,_RNvNtNtCs450l62AvZFl_5lb_io8sockopts5testss_21apply_backend_minimal
FNDA:1,_RNvNtNtCs450l62AvZFl_5lb_io8sockopts5testss_31apply_listener_defaults_is_noop
FNDA:0,_RNCNvNtCs450l62AvZFl_5lb_io8sockopts14apply_listener0B5_
FNDA:0,_RNCNvNtCs450l62AvZFl_5lb_io8sockopts7set_int0B5_
FNDA:3,_RNvNtCs450l62AvZFl_5lb_io8sockopts14apply_listener
FNDA:151,_RNvNtCs450l62AvZFl_5lb_io8sockopts15apply_connected
FNDA:4,_RNvNtCs450l62AvZFl_5lb_io8sockopts21apply_connected_tokio
FNDA:2,_RNvNtCs450l62AvZFl_5lb_io8sockopts7set_int
FNDA:1,_RNvNtCs450l62AvZFl_5lb_io8sockopts9apply_udp
FNF:10
FNH:8
DA:81,3
DA:82,3
DA:83,3
DA:84,2
DA:85,1
DA:87,3
DA:88,1
DA:89,2
DA:90,3
DA:91,1
DA:92,2
DA:93,3
DA:94,1
DA:95,2
DA:96,3
DA:97,2
DA:98,1
DA:99,3
DA:100,2
DA:101,1
DA:106,3
DA:107,3
DA:108,1
DA:109,2
DA:110,3
DA:111,1
DA:112,0
DA:113,0
DA:114,0
DA:115,0
DA:116,1
DA:117,1
DA:118,2
DA:119,3
DA:124,1
DA:125,1
DA:126,0
DA:127,1
DA:128,2
DA:139,3
DA:140,3
DA:147,151
DA:148,151
DA:149,151
DA:150,151
DA:151,0
DA:152,151
DA:153,151
DA:154,0
DA:155,151
DA:156,1
DA:157,150
DA:158,151
DA:159,1
DA:160,150
DA:165,151
DA:166,151
DA:167,0
DA:168,151
DA:169,151
DA:170,0
DA:171,0
DA:172,0
DA:173,0
DA:174,151
DA:183,151
DA:184,151
DA:200,705
DA:201,705
DA:202,705
DA:203,705
DA:204,705
DA:205,705
DA:206,670
DA:207,35
DA:208,705
DA:209,49
DA:210,656
DA:211,705
DA:212,45
DA:213,660
DA:214,705
DA:215,45
DA:216,660
DA:221,705
DA:222,705
DA:223,0
DA:224,705
DA:225,705
DA:226,0
DA:227,0
DA:228,705
DA:237,705
DA:238,705
DA:245,1
DA:246,1
DA:247,1
DA:248,1
DA:249,0
DA:250,1
DA:251,1
DA:252,1
DA:253,0
DA:254,1
DA:255,1
DA:256,0
DA:261,1
DA:262,1
DA:263,0
DA:264,0
DA:265,0
DA:266,1
DA:275,1
DA:276,1
DA:280,2
DA:281,2
DA:282,2
DA:283,2
DA:284,2
DA:285,2
DA:286,2
DA:287,2
DA:292,2
DA:293,2
DA:294,2
DA:296,0
DA:298,2
DA:305,1
DA:306,1
DA:307,1
DA:308,1
DA:311,1
DA:312,1
DA:313,1
DA:314,1
DA:315,1
DA:316,1
DA:317,1
DA:318,1
DA:319,1
DA:320,1
DA:321,1
DA:322,1
DA:323,1
DA:326,1
DA:327,1
DA:328,1
DA:329,1
DA:330,1
DA:331,1
DA:332,1
DA:333,1
DA:334,1
DA:335,1
BRF:0
BRH:0
LF:157
LH:132
end_of_record
SF:/home/ubuntu/Code/ExpressGateway/crates/lb-l4-xdp/src/bpffs.rs
FN:49,_RNCNvNtCsliGSWXv581y_9lb_l4_xdp5bpffs12assert_bpffs0B5_
FN:45,_RNvNtCsliGSWXv581y_9lb_l4_xdp5bpffs12assert_bpffs
FN:96,_RNvNtCsliGSWXv581y_9lb_l4_xdp5bpffs15default_pin_dir
FN:45,_RNvNtCs1TpOoA2oLim_9lb_l4_xdp5bpffs12assert_bpffs
FN:96,_RNvNtCs1TpOoA2oLim_9lb_l4_xdp5bpffs15default_pin_dir
FN:143,_RNvNtNtCs1TpOoA2oLim_9lb_l4_xdp5bpffs5testss_20rejects_missing_path
FN:157,_RNvNtNtCs1TpOoA2oLim_9lb_l4_xdp5bpffs5testss_25rejects_interior_nul_path
FN:114,_RNvNtNtCs1TpOoA2oLim_9lb_l4_xdp5bpffs5testss_25rejects_non_bpffs_tempdir
FN:171,_RNvNtNtCs1TpOoA2oLim_9lb_l4_xdp5bpffs5testss_37bpf_fs_magic_constant_is_kernel_value
FN:49,_RNCNvNtCs1TpOoA2oLim_9lb_l4_xdp5bpffs12assert_bpffs0B5_
FNDA:0,_RNCNvNtCsliGSWXv581y_9lb_l4_xdp5bpffs12assert_bpffs0B5_
FNDA:3,_RNvNtCsliGSWXv581y_9lb_l4_xdp5bpffs12assert_bpffs
FNDA:0,_RNvNtCsliGSWXv581y_9lb_l4_xdp5bpffs15default_pin_dir
FNDA:3,_RNvNtCs1TpOoA2oLim_9lb_l4_xdp5bpffs12assert_bpffs
FNDA:0,_RNvNtCs1TpOoA2oLim_9lb_l4_xdp5bpffs15default_pin_dir
FNDA:1,_RNvNtNtCs1TpOoA2oLim_9lb_l4_xdp5bpffs5testss_20rejects_missing_path
FNDA:1,_RNvNtNtCs1TpOoA2oLim_9lb_l4_xdp5bpffs5testss_25rejects_interior_nul_path
FNDA:1,_RNvNtNtCs1TpOoA2oLim_9lb_l4_xdp5bpffs5testss_25rejects_non_bpffs_tempdir
FNDA:1,_RNvNtNtCs1TpOoA2oLim_9lb_l4_xdp5bpffs5testss_37bpf_fs_magic_constant_is_kernel_value
FNDA:1,_RNCNvNtCs1TpOoA2oLim_9lb_l4_xdp5bpffs12assert_bpffs0B5_
FNF:7
FNH:6
DA:45,6
DA:49,6
DA:50,1
DA:51,1
DA:52,1
DA:53,1
DA:54,6
DA:59,5
DA:60,5
DA:61,5
DA:62,2
DA:63,2
DA:64,2
DA:65,2
DA:66,3
DA:67,3
DA:68,3
DA:69,3
DA:70,3
DA:71,3
DA:72,3
DA:73,3
DA:74,3
DA:75,3
DA:76,3
DA:77,3
DA:78,3
DA:79,3
DA:80,3
DA:81,3
DA:82,3
DA:83,3
DA:84,3
DA:85,3
DA:86,3
DA:87,3
DA:88,3
DA:89,0
DA:90,0
DA:91,0
DA:92,6
DA:96,0
DA:97,0
DA:98,0
DA:114,1
DA:115,1
DA:116,1
DA:117,1
DA:118,1
DA:119,1
DA:120,1
DA:122,1
DA:123,1
DA:124,1
DA:125,1
DA:126,1
DA:127,0
DA:130,0
DA:131,0
DA:132,0
DA:133,0
DA:134,0
DA:135,0
DA:137,1
DA:143,1
DA:144,1
DA:145,1
DA:146,1
DA:147,1
DA:148,1
DA:150,0
DA:152,1
DA:157,1
DA:161,1
DA:162,1
DA:163,1
DA:166,1
DA:171,1
DA:172,1
DA:173,1
BRF:0
BRH:0
LF:82
LH:68
end_of_record
SF:/home/ubuntu/Code/ExpressGateway/crates/lb-l4-xdp/src/lib.rs
FN:189,_RNCNvMCsliGSWXv581y_9lb_l4_xdpNtB4_14ConntrackTable6remove0B4_
FN:280,_RNCNvMs0_CsliGSWXv581y_9lb_l4_xdpNtB7_11MaglevTable6lookup0B7_
FN:325,_RNCNvMs0_CsliGSWXv581y_9lb_l4_xdpNtB7_11MaglevTable8populate0B7_
FN:214,_RNvCsliGSWXv581y_9lb_l4_xdp8is_prime
FN:147,_RNvMCsliGSWXv581y_9lb_l4_xdpNtB2_14ConntrackTable13with_capacity
FN:196,_RNvMCsliGSWXv581y_9lb_l4_xdpNtB2_14ConntrackTable3len
FN:137,_RNvMCsliGSWXv581y_9lb_l4_xdpNtB2_14ConntrackTable3new
FN:164,_RNvMCsliGSWXv581y_9lb_l4_xdpNtB2_14ConntrackTable6insert
FN:157,_RNvMCsliGSWXv581y_9lb_l4_xdpNtB2_14ConntrackTable6lookup
FN:186,_RNvMCsliGSWXv581y_9lb_l4_xdpNtB2_14ConntrackTable6remove
FN:202,_RNvMCsliGSWXv581y_9lb_l4_xdpNtB2_14ConntrackTable8is_empty
FN:291,_RNvMs0_CsliGSWXv581y_9lb_l4_xdpNtB5_11MaglevTable11permutation
FN:285,_RNvMs0_CsliGSWXv581y_9lb_l4_xdpNtB5_11MaglevTable13backend_count
FN:251,_RNvMs0_CsliGSWXv581y_9lb_l4_xdpNtB5_11MaglevTable3new
FN:272,_RNvMs0_CsliGSWXv581y_9lb_l4_xdpNtB5_11MaglevTable6lookup
FN:305,_RNvMs0_CsliGSWXv581y_9lb_l4_xdpNtB5_11MaglevTable8hash_str
FN:321,_RNvMs0_CsliGSWXv581y_9lb_l4_xdpNtB5_11MaglevTable8populate
FN:422,_RNvMs1_CsliGSWXv581y_9lb_l4_xdpNtB5_14HotSwapManager10route_flow
FN:400,_RNvMs1_CsliGSWXv581y_9lb_l4_xdpNtB5_14HotSwapManager13swap_backends
FN:386,_RNvMs1_CsliGSWXv581y_9lb_l4_xdpNtB5_14HotSwapManager3new
FN:208,_RNvXs_CsliGSWXv581y_9lb_l4_xdpNtB4_14ConntrackTableNtNtCs2va5m0jqTTM_4core7default7Default7default
FN:189,_RNCNvMCs1TpOoA2oLim_9lb_l4_xdpNtB4_14ConntrackTable6remove0B4_
FN:280,_RNCNvMs0_Cs1TpOoA2oLim_9lb_l4_xdpNtB7_11MaglevTable6lookup0B7_
FN:325,_RNCNvMs0_Cs1TpOoA2oLim_9lb_l4_xdpNtB7_11MaglevTable8populate0B7_
FN:531,_RNvNtCs1TpOoA2oLim_9lb_l4_xdp5testss_15is_prime_checks
FN:465,_RNvNtCs1TpOoA2oLim_9lb_l4_xdp5testss_17conntrack_default
FN:556,_RNvNtCs1TpOoA2oLim_9lb_l4_xdp5testss_18maglev_consistency
FN:581,_RNvNtCs1TpOoA2oLim_9lb_l4_xdp5testss_19maglev_distribution
FN:568,_RNvNtCs1TpOoA2oLim_9lb_l4_xdp5testss_24maglev_no_backends_error
FN:597,_RNvNtCs1TpOoA2oLim_9lb_l4_xdp5testss_27hotswap_preserves_conntrack
FN:574,_RNvNtCs1TpOoA2oLim_9lb_l4_xdp5testss_28maglev_zero_table_size_error
FN:471,_RNvNtCs1TpOoA2oLim_9lb_l4_xdp5testss_30conntrack_eviction_at_capacity
FN:442,_RNvNtCs1TpOoA2oLim_9lb_l4_xdp5testss_30conntrack_insert_lookup_remove
FN:546,_RNvNtCs1TpOoA2oLim_9lb_l4_xdp5testss_36maglev_non_prime_table_size_rejected
FN:501,_RNvNtCs1TpOoA2oLim_9lb_l4_xdp5testss_40conntrack_update_existing_does_not_evict
FN:619,_RNvNtCs1TpOoA2oLim_9lb_l4_xdp5testss_43hotswap_evicts_stale_conntrack_after_shrink
FN:557,_RNCNvNtCs1TpOoA2oLim_9lb_l4_xdp5testss_18maglev_consistency0B5_
FN:582,_RNCNvNtCs1TpOoA2oLim_9lb_l4_xdp5testss_19maglev_distribution0B5_
FN:474,_RNCNvNtCs1TpOoA2oLim_9lb_l4_xdp5testss_30conntrack_eviction_at_capacity0B5_
FN:621,_RNCNvNtCs1TpOoA2oLim_9lb_l4_xdp5testss_43hotswap_evicts_stale_conntrack_after_shrink0B5_
FN:214,_RNvCs1TpOoA2oLim_9lb_l4_xdp8is_prime
FN:147,_RNvMCs1TpOoA2oLim_9lb_l4_xdpNtB2_14ConntrackTable13with_capacity
FN:196,_RNvMCs1TpOoA2oLim_9lb_l4_xdpNtB2_14ConntrackTable3len
FN:137,_RNvMCs1TpOoA2oLim_9lb_l4_xdpNtB2_14ConntrackTable3new
FN:164,_RNvMCs1TpOoA2oLim_9lb_l4_xdpNtB2_14ConntrackTable6insert
FN:157,_RNvMCs1TpOoA2oLim_9lb_l4_xdpNtB2_14ConntrackTable6lookup
FN:186,_RNvMCs1TpOoA2oLim_9lb_l4_xdpNtB2_14ConntrackTable6remove
FN:202,_RNvMCs1TpOoA2oLim_9lb_l4_xdpNtB2_14ConntrackTable8is_empty
FN:291,_RNvMs0_Cs1TpOoA2oLim_9lb_l4_xdpNtB5_11MaglevTable11permutation
FN:285,_RNvMs0_Cs1TpOoA2oLim_9lb_l4_xdpNtB5_11MaglevTable13backend_count
FN:251,_RNvMs0_Cs1TpOoA2oLim_9lb_l4_xdpNtB5_11MaglevTable3new
FN:272,_RNvMs0_Cs1TpOoA2oLim_9lb_l4_xdpNtB5_11MaglevTable6lookup
FN:305,_RNvMs0_Cs1TpOoA2oLim_9lb_l4_xdpNtB5_11MaglevTable8hash_str
FN:321,_RNvMs0_Cs1TpOoA2oLim_9lb_l4_xdpNtB5_11MaglevTable8populate
FN:422,_RNvMs1_Cs1TpOoA2oLim_9lb_l4_xdpNtB5_14HotSwapManager10route_flow
FN:400,_RNvMs1_Cs1TpOoA2oLim_9lb_l4_xdpNtB5_14HotSwapManager13swap_backends
FN:386,_RNvMs1_Cs1TpOoA2oLim_9lb_l4_xdpNtB5_14HotSwapManager3new
FN:208,_RNvXs_Cs1TpOoA2oLim_9lb_l4_xdpNtB4_14ConntrackTableNtNtCs2va5m0jqTTM_4core7default7Default7default
FNDA:4,_RNCNvMCsliGSWXv581y_9lb_l4_xdpNtB4_14ConntrackTable6remove0B4_
FNDA:0,_RNCNvMs0_CsliGSWXv581y_9lb_l4_xdpNtB7_11MaglevTable6lookup0B7_
FNDA:10,_RNCNvMs0_CsliGSWXv581y_9lb_l4_xdpNtB7_11MaglevTable8populate0B7_
FNDA:3,_RNvCsliGSWXv581y_9lb_l4_xdp8is_prime
FNDA:1,_RNvMCsliGSWXv581y_9lb_l4_xdpNtB2_14ConntrackTable13with_capacity
FNDA:259,_RNvMCsliGSWXv581y_9lb_l4_xdpNtB2_14ConntrackTable3len
FNDA:8,_RNvMCsliGSWXv581y_9lb_l4_xdpNtB2_14ConntrackTable3new
FNDA:264,_RNvMCsliGSWXv581y_9lb_l4_xdpNtB2_14ConntrackTable6insert
FNDA:142,_RNvMCsliGSWXv581y_9lb_l4_xdpNtB2_14ConntrackTable6lookup
FNDA:4,_RNvMCsliGSWXv581y_9lb_l4_xdpNtB2_14ConntrackTable6remove
FNDA:0,_RNvMCsliGSWXv581y_9lb_l4_xdpNtB2_14ConntrackTable8is_empty
FNDA:10,_RNvMs0_CsliGSWXv581y_9lb_l4_xdpNtB5_11MaglevTable11permutation
FNDA:1,_RNvMs0_CsliGSWXv581y_9lb_l4_xdpNtB5_11MaglevTable13backend_count
FNDA:3,_RNvMs0_CsliGSWXv581y_9lb_l4_xdpNtB5_11MaglevTable3new
FNDA:3003,_RNvMs0_CsliGSWXv581y_9lb_l4_xdpNtB5_11MaglevTable6lookup
FNDA:20,_RNvMs0_CsliGSWXv581y_9lb_l4_xdpNtB5_11MaglevTable8hash_str
FNDA:3,_RNvMs0_CsliGSWXv581y_9lb_l4_xdpNtB5_11MaglevTable8populate
FNDA:2,_RNvMs1_CsliGSWXv581y_9lb_l4_xdpNtB5_14HotSwapManager10route_flow
FNDA:1,_RNvMs1_CsliGSWXv581y_9lb_l4_xdpNtB5_14HotSwapManager13swap_backends
FNDA:1,_RNvMs1_CsliGSWXv581y_9lb_l4_xdpNtB5_14HotSwapManager3new
FNDA:0,_RNvXs_CsliGSWXv581y_9lb_l4_xdpNtB4_14ConntrackTableNtNtCs2va5m0jqTTM_4core7default7Default7default
FNDA:2,_RNCNvMCs1TpOoA2oLim_9lb_l4_xdpNtB4_14ConntrackTable6remove0B4_
FNDA:0,_RNCNvMs0_Cs1TpOoA2oLim_9lb_l4_xdpNtB7_11MaglevTable6lookup0B7_
FNDA:20,_RNCNvMs0_Cs1TpOoA2oLim_9lb_l4_xdpNtB7_11MaglevTable8populate0B7_
FNDA:1,_RNvNtCs1TpOoA2oLim_9lb_l4_xdp5testss_15is_prime_checks
FNDA:1,_RNvNtCs1TpOoA2oLim_9lb_l4_xdp5testss_17conntrack_default
FNDA:1,_RNvNtCs1TpOoA2oLim_9lb_l4_xdp5testss_18maglev_consistency
FNDA:1,_RNvNtCs1TpOoA2oLim_9lb_l4_xdp5testss_19maglev_distribution
FNDA:1,_RNvNtCs1TpOoA2oLim_9lb_l4_xdp5testss_24maglev_no_backends_error
FNDA:1,_RNvNtCs1TpOoA2oLim_9lb_l4_xdp5testss_27hotswap_preserves_conntrack
FNDA:1,_RNvNtCs1TpOoA2oLim_9lb_l4_xdp5testss_28maglev_zero_table_size_error
FNDA:1,_RNvNtCs1TpOoA2oLim_9lb_l4_xdp5testss_30conntrack_eviction_at_capacity
FNDA:1,_RNvNtCs1TpOoA2oLim_9lb_l4_xdp5testss_30conntrack_insert_lookup_remove
FNDA:1,_RNvNtCs1TpOoA2oLim_9lb_l4_xdp5testss_36maglev_non_prime_table_size_rejected
FNDA:1,_RNvNtCs1TpOoA2oLim_9lb_l4_xdp5testss_40conntrack_update_existing_does_not_evict
FNDA:1,_RNvNtCs1TpOoA2oLim_9lb_l4_xdp5testss_43hotswap_evicts_stale_conntrack_after_shrink
FNDA:3,_RNCNvNtCs1TpOoA2oLim_9lb_l4_xdp5testss_18maglev_consistency0B5_
FNDA:3,_RNCNvNtCs1TpOoA2oLim_9lb_l4_xdp5testss_19maglev_distribution0B5_
FNDA:8,_RNCNvNtCs1TpOoA2oLim_9lb_l4_xdp5testss_30conntrack_eviction_at_capacity0B5_
FNDA:5,_RNCNvNtCs1TpOoA2oLim_9lb_l4_xdp5testss_43hotswap_evicts_stale_conntrack_after_shrink0B5_
FNDA:20,_RNvCs1TpOoA2oLim_9lb_l4_xdp8is_prime
FNDA:2,_RNvMCs1TpOoA2oLim_9lb_l4_xdpNtB2_14ConntrackTable13with_capacity
FNDA:5,_RNvMCs1TpOoA2oLim_9lb_l4_xdpNtB2_14ConntrackTable3len
FNDA:4,_RNvMCs1TpOoA2oLim_9lb_l4_xdpNtB2_14ConntrackTable3new
FNDA:11,_RNvMCs1TpOoA2oLim_9lb_l4_xdpNtB2_14ConntrackTable6insert
FNDA:12,_RNvMCs1TpOoA2oLim_9lb_l4_xdpNtB2_14ConntrackTable6lookup
FNDA:2,_RNvMCs1TpOoA2oLim_9lb_l4_xdpNtB2_14ConntrackTable6remove
FNDA:3,_RNvMCs1TpOoA2oLim_9lb_l4_xdpNtB2_14ConntrackTable8is_empty
FNDA:20,_RNvMs0_Cs1TpOoA2oLim_9lb_l4_xdpNtB5_11MaglevTable11permutation
FNDA:3,_RNvMs0_Cs1TpOoA2oLim_9lb_l4_xdpNtB5_11MaglevTable13backend_count
FNDA:10,_RNvMs0_Cs1TpOoA2oLim_9lb_l4_xdpNtB5_11MaglevTable3new
FNDA:3203,_RNvMs0_Cs1TpOoA2oLim_9lb_l4_xdpNtB5_11MaglevTable6lookup
FNDA:40,_RNvMs0_Cs1TpOoA2oLim_9lb_l4_xdpNtB5_11MaglevTable8hash_str
FNDA:6,_RNvMs0_Cs1TpOoA2oLim_9lb_l4_xdpNtB5_11MaglevTable8populate
FNDA:4,_RNvMs1_Cs1TpOoA2oLim_9lb_l4_xdpNtB5_14HotSwapManager10route_flow
FNDA:2,_RNvMs1_Cs1TpOoA2oLim_9lb_l4_xdpNtB5_14HotSwapManager13swap_backends
FNDA:2,_RNvMs1_Cs1TpOoA2oLim_9lb_l4_xdpNtB5_14HotSwapManager3new
FNDA:1,_RNvXs_Cs1TpOoA2oLim_9lb_l4_xdpNtB4_14ConntrackTableNtNtCs2va5m0jqTTM_4core7default7Default7default
FNF:37
FNH:36
DA:137,12
DA:138,12
DA:139,12
DA:140,12
DA:141,12
DA:142,12
DA:143,12
DA:147,3
DA:148,3
DA:149,3
DA:150,3
DA:151,3
DA:152,3
DA:153,3
DA:157,154
DA:158,154
DA:159,154
DA:164,275
DA:166,275
DA:168,1
DA:169,1
DA:170,274
DA:173,467
DA:174,193
DA:175,193
DA:176,193
DA:177,0
DA:181,274
DA:182,274
DA:183,275
DA:186,6
DA:187,6
DA:188,6
DA:189,6
DA:190,5
DA:191,6
DA:192,6
DA:196,264
DA:197,264
DA:198,264
DA:202,3
DA:203,3
DA:204,3
DA:208,1
DA:209,1
DA:210,1
DA:214,23
DA:215,23
DA:216,3
DA:217,20
DA:218,20
DA:219,2
DA:220,18
DA:221,18
DA:222,6
DA:223,12
DA:224,12
DA:225,432
DA:226,420
DA:227,0
DA:228,420
DA:229,420
DA:231,12
DA:232,23
DA:251,13
DA:252,13
DA:253,1
DA:254,12
DA:255,12
DA:256,3
DA:257,9
DA:258,9
DA:259,9
DA:260,9
DA:261,9
DA:262,9
DA:263,9
DA:264,13
DA:272,6206
DA:273,6206
DA:274,0
DA:275,6206
DA:276,6206
DA:277,6206
DA:278,6206
DA:279,6206
DA:280,6206
DA:281,6206
DA:285,4
DA:286,4
DA:287,4
DA:291,30
DA:292,30
DA:293,30
DA:294,30
DA:295,30
DA:296,30
DA:297,30
DA:299,0
DA:301,30
DA:302,30
DA:305,60
DA:306,60
DA:307,272
DA:308,272
DA:309,272
DA:310,272
DA:311,272
DA:312,60
DA:313,60
DA:314,60
DA:315,60
DA:316,60
DA:317,60
DA:318,60
DA:321,9
DA:322,9
DA:323,9
DA:324,9
DA:325,30
DA:326,9
DA:327,9
DA:328,9
DA:329,9
DA:330,9
DA:332,187886
DA:333,589833
DA:334,589833
DA:335,589833
DA:336,0
DA:339,589833
DA:340,589833
DA:341,0
DA:343,589833
DA:346,1874572
DA:347,1284739
DA:348,1284739
DA:349,1284739
DA:351,589833
DA:352,589833
DA:353,589833
DA:354,589833
DA:355,589833
DA:356,589833
DA:357,589833
DA:358,589833
DA:359,589833
DA:360,9
DA:361,589824
DA:365,9
DA:366,9
DA:386,3
DA:387,3
DA:388,3
DA:389,3
DA:390,3
DA:391,3
DA:392,3
DA:400,3
DA:401,3
DA:402,3
DA:403,3
DA:404,3
DA:405,3
DA:406,3
DA:407,3
DA:408,3
DA:422,6
DA:423,6
DA:424,3
DA:425,2
DA:426,1
DA:427,1
DA:428,1
DA:429,3
DA:431,4
DA:432,4
DA:433,4
DA:434,6
DA:442,1
DA:443,1
DA:444,1
DA:446,1
DA:447,1
DA:448,1
DA:449,1
DA:450,1
DA:451,1
DA:452,1
DA:453,1
DA:454,1
DA:455,1
DA:456,1
DA:458,1
DA:459,1
DA:460,1
DA:461,1
DA:462,1
DA:465,1
DA:466,1
DA:467,1
DA:468,1
DA:471,1
DA:472,1
DA:473,1
DA:474,8
DA:475,8
DA:476,8
DA:477,8
DA:478,8
DA:479,8
DA:480,8
DA:482,1
DA:483,1
DA:484,1
DA:485,1
DA:488,1
DA:489,1
DA:490,1
DA:491,1
DA:493,0
DA:495,1
DA:496,1
DA:497,1
DA:498,1
DA:501,1
DA:502,1
DA:503,1
DA:504,1
DA:505,1
DA:506,1
DA:507,1
DA:508,1
DA:509,1
DA:510,1
DA:511,1
DA:512,1
DA:513,1
DA:514,1
DA:515,1
DA:516,1
DA:517,1
DA:518,1
DA:519,1
DA:520,1
DA:521,1
DA:524,1
DA:525,1
DA:526,1
DA:527,1
DA:528,1
DA:531,1
DA:532,1
DA:533,1
DA:534,1
DA:535,1
DA:536,1
DA:537,1
DA:538,1
DA:539,1
DA:540,1
DA:541,1
DA:542,1
DA:543,1
DA:546,1
DA:547,1
DA:548,1
DA:549,1
DA:551,1
DA:552,1
DA:553,1
DA:556,1
DA:557,3
DA:558,1
DA:560,101
DA:561,100
DA:562,100
DA:563,100
DA:565,1
DA:568,1
DA:569,1
DA:570,1
DA:571,1
DA:574,1
DA:575,1
DA:576,1
DA:577,1
DA:578,1
DA:581,1
DA:582,3
DA:583,1
DA:584,1
DA:586,1
DA:587,3001
DA:588,3000
DA:589,3000
DA:590,3000
DA:591,4
DA:592,3
DA:594,1
DA:597,1
DA:598,1
DA:599,1
DA:600,1
DA:601,1
DA:602,1
DA:603,1
DA:604,1
DA:605,1
DA:606,1
DA:607,1
DA:608,1
DA:609,1
DA:610,1
DA:611,1
DA:612,1
DA:613,1
DA:614,1
DA:615,1
DA:616,1
DA:619,1
DA:620,1
DA:621,5
DA:622,1
DA:623,1
DA:624,1
DA:625,1
DA:626,1
DA:627,1
DA:628,1
DA:629,1
DA:630,1
DA:631,1
DA:632,1
DA:633,1
DA:634,1
DA:635,1
DA:636,1
DA:637,1
DA:638,1
DA:639,1
DA:640,1
DA:641,1
DA:642,1
DA:643,0
DA:648,1
DA:650,1
DA:653,0
DA:655,1
BRF:0
BRH:0
LF:356
LH:346
end_of_record
SF:/home/ubuntu/Code/ExpressGateway/crates/lb-l4-xdp/src/loader.rs
FN:1050,_RNCNvMsa_NtCsliGSWXv581y_9lb_l4_xdp6loaderNtB7_9XdpLoader11kernel_load0B9_
FN:1053,_RNCNvMsa_NtCsliGSWXv581y_9lb_l4_xdp6loaderNtB7_9XdpLoader11kernel_loads_0B9_
FN:1437,_RNCNvMsa_NtCsliGSWXv581y_9lb_l4_xdp6loaderNtB7_9XdpLoader16attach_replacing0B9_
FN:1440,_RNCNvMsa_NtCsliGSWXv581y_9lb_l4_xdp6loaderNtB7_9XdpLoader16attach_replacings_0B9_
FN:1497,_RNCNvMsa_NtCsliGSWXv581y_9lb_l4_xdp6loaderNtB7_9XdpLoader16detach_verifying0B9_
FN:1500,_RNCNvMsa_NtCsliGSWXv581y_9lb_l4_xdp6loaderNtB7_9XdpLoader16detach_verifyings_0B9_
FN:932,_RNCNvMsa_NtCsliGSWXv581y_9lb_l4_xdp6loaderNtB7_9XdpLoader16set_new_flow_cap0B9_
FN:1133,_RNCNvMsa_NtCsliGSWXv581y_9lb_l4_xdp6loaderNtB7_9XdpLoader20attach_with_fallback0B9_
FN:1208,_RNCNvMsa_NtCsliGSWXv581y_9lb_l4_xdp6loaderNtB7_9XdpLoader20attach_with_fallbacks0_0B9_
FN:1136,_RNCNvMsa_NtCsliGSWXv581y_9lb_l4_xdp6loaderNtB7_9XdpLoader20attach_with_fallbacks_0B9_
FN:904,_RNCNvMsa_NtCsliGSWXv581y_9lb_l4_xdp6loaderNtB7_9XdpLoader20install_stats_export0B9_
FN:1077,_RNCNvMsa_NtCsliGSWXv581y_9lb_l4_xdp6loaderNtB7_9XdpLoader6attach0B9_
FN:1080,_RNCNvMsa_NtCsliGSWXv581y_9lb_l4_xdp6loaderNtB7_9XdpLoader6attachs_0B9_
FN:1380,_RNCNvMsa_NtCsliGSWXv581y_9lb_l4_xdp6loaderNtB7_9XdpLoader9query_xdp0B9_
FN:1589,_RNCNvMsb_NtCsliGSWXv581y_9lb_l4_xdp6loaderNtB7_12CtInsertGate6now_ns0B9_
FN:732,_RNCNvNtCsliGSWXv581y_9lb_l4_xdp6loader21assert_license_is_gpl0B5_
FN:742,_RNCNvNtCsliGSWXv581y_9lb_l4_xdp6loader21assert_license_is_gpls0_0B5_
FN:735,_RNCNvNtCsliGSWXv581y_9lb_l4_xdp6loader21assert_license_is_gpls_0B5_
FN:196,_RNvMs1_NtCsliGSWXv581y_9lb_l4_xdp6loaderNtB5_12BackendEntry3new
FN:227,_RNvMs1_NtCsliGSWXv581y_9lb_l4_xdp6loaderNtB5_12BackendEntry7try_new
FN:278,_RNvMs3_NtCsliGSWXv581y_9lb_l4_xdp6loaderNtB5_9FlowKeyV63new
FN:327,_RNvMs5_NtCsliGSWXv581y_9lb_l4_xdp6loaderNtB5_14BackendEntryV63new
FN:352,_RNvMs5_NtCsliGSWXv581y_9lb_l4_xdp6loaderNtB5_14BackendEntryV67try_new
FN:454,_RNvMs7_NtCsliGSWXv581y_9lb_l4_xdp6loaderNtB5_12BackendTable6zeroed
FN:500,_RNvMs9_NtCsliGSWXv581y_9lb_l4_xdp6loaderNtB5_7XdpMode8to_flags
FN:512,_RNvMs9_NtCsliGSWXv581y_9lb_l4_xdp6loaderNtB5_7XdpMode8to_label
FN:135,_RNvMs_NtCsliGSWXv581y_9lb_l4_xdp6loaderNtB4_7FlowKey3new
FN:1046,_RNvMsa_NtCsliGSWXv581y_9lb_l4_xdp6loaderNtB5_9XdpLoader11kernel_load
FN:1246,_RNvMsa_NtCsliGSWXv581y_9lb_l4_xdp6loaderNtB5_9XdpLoader13conntrack_map
FN:1032,_RNvMsa_NtCsliGSWXv581y_9lb_l4_xdp6loaderNtB5_9XdpLoader13program_names
FN:950,_RNvMsa_NtCsliGSWXv581y_9lb_l4_xdp6loaderNtB5_9XdpLoader15backends_v4_map
FN:1313,_RNvMsa_NtCsliGSWXv581y_9lb_l4_xdp6loaderNtB5_9XdpLoader15insert_acl_deny
FN:816,_RNvMsa_NtCsliGSWXv581y_9lb_l4_xdp6loaderNtB5_9XdpLoader15load_from_bytes
FN:1409,_RNvMsa_NtCsliGSWXv581y_9lb_l4_xdp6loaderNtB5_9XdpLoader16attach_replacing
FN:1266,_RNvMsa_NtCsliGSWXv581y_9lb_l4_xdp6loaderNtB5_9XdpLoader16conntrack_v6_map
FN:1474,_RNvMsa_NtCsliGSWXv581y_9lb_l4_xdp6loaderNtB5_9XdpLoader16detach_verifying
FN:923,_RNvMsa_NtCsliGSWXv581y_9lb_l4_xdp6loaderNtB5_9XdpLoader16set_new_flow_cap
FN:989,_RNvMsa_NtCsliGSWXv581y_9lb_l4_xdp6loaderNtB5_9XdpLoader19publish_backends_v4
FN:1115,_RNvMsa_NtCsliGSWXv581y_9lb_l4_xdp6loaderNtB5_9XdpLoader20attach_with_fallback
FN:901,_RNvMsa_NtCsliGSWXv581y_9lb_l4_xdp6loaderNtB5_9XdpLoader20install_stats_export
FN:856,_RNvMsa_NtCsliGSWXv581y_9lb_l4_xdp6loaderNtB5_9XdpLoader22load_from_bytes_pinned
FN:1332,_RNvMsa_NtCsliGSWXv581y_9lb_l4_xdp6loaderNtB5_9XdpLoader4ebpf
FN:1068,_RNvMsa_NtCsliGSWXv581y_9lb_l4_xdp6loaderNtB5_9XdpLoader6attach
FN:1284,_RNvMsa_NtCsliGSWXv581y_9lb_l4_xdp6loaderNtB5_9XdpLoader8acl_trie
FN:1337,_RNvMsa_NtCsliGSWXv581y_9lb_l4_xdp6loaderNtB5_9XdpLoader8ebpf_mut
FN:1219,_RNvMsa_NtCsliGSWXv581y_9lb_l4_xdp6loaderNtB5_9XdpLoader8take_map
FN:1368,_RNvMsa_NtCsliGSWXv581y_9lb_l4_xdp6loaderNtB5_9XdpLoader9query_xdp
FN:1575,_RNvMsb_NtCsliGSWXv581y_9lb_l4_xdp6loaderNtB5_12CtInsertGate3new
FN:1584,_RNvMsb_NtCsliGSWXv581y_9lb_l4_xdp6loaderNtB5_12CtInsertGate6now_ns
FN:1597,_RNvMsb_NtCsliGSWXv581y_9lb_l4_xdp6loaderNtB5_12CtInsertGate9try_admit
FN:528,_RNvNtCsliGSWXv581y_9lb_l4_xdp6loader19is_unsupported_mode
FN:731,_RNvNtCsliGSWXv581y_9lb_l4_xdp6loader21assert_license_is_gpl
FN:468,_RNvXs8_NtCsliGSWXv581y_9lb_l4_xdp6loaderNtB5_12BackendTableNtNtCs2va5m0jqTTM_4core7default7Default7default
FN:732,_RNCNvNtCs1TpOoA2oLim_9lb_l4_xdp6loader21assert_license_is_gpl0B5_
FN:742,_RNCNvNtCs1TpOoA2oLim_9lb_l4_xdp6loader21assert_license_is_gpls0_0B5_
FN:735,_RNCNvNtCs1TpOoA2oLim_9lb_l4_xdp6loader21assert_license_is_gpls_0B5_
FN:1050,_RNCNvMsa_NtCs1TpOoA2oLim_9lb_l4_xdp6loaderNtB7_9XdpLoader11kernel_load0B9_
FN:1053,_RNCNvMsa_NtCs1TpOoA2oLim_9lb_l4_xdp6loaderNtB7_9XdpLoader11kernel_loads_0B9_
FN:1437,_RNCNvMsa_NtCs1TpOoA2oLim_9lb_l4_xdp6loaderNtB7_9XdpLoader16attach_replacing0B9_
FN:1440,_RNCNvMsa_NtCs1TpOoA2oLim_9lb_l4_xdp6loaderNtB7_9XdpLoader16attach_replacings_0B9_
FN:1497,_RNCNvMsa_NtCs1TpOoA2oLim_9lb_l4_xdp6loaderNtB7_9XdpLoader16detach_verifying0B9_
FN:1500,_RNCNvMsa_NtCs1TpOoA2oLim_9lb_l4_xdp6loaderNtB7_9XdpLoader16detach_verifyings_0B9_
FN:932,_RNCNvMsa_NtCs1TpOoA2oLim_9lb_l4_xdp6loaderNtB7_9XdpLoader16set_new_flow_cap0B9_
FN:1133,_RNCNvMsa_NtCs1TpOoA2oLim_9lb_l4_xdp6loaderNtB7_9XdpLoader20attach_with_fallback0B9_
FN:1208,_RNCNvMsa_NtCs1TpOoA2oLim_9lb_l4_xdp6loaderNtB7_9XdpLoader20attach_with_fallbacks0_0B9_
FN:1136,_RNCNvMsa_NtCs1TpOoA2oLim_9lb_l4_xdp6loaderNtB7_9XdpLoader20attach_with_fallbacks_0B9_
FN:904,_RNCNvMsa_NtCs1TpOoA2oLim_9lb_l4_xdp6loaderNtB7_9XdpLoader20install_stats_export0B9_
FN:1077,_RNCNvMsa_NtCs1TpOoA2oLim_9lb_l4_xdp6loaderNtB7_9XdpLoader6attach0B9_
FN:1080,_RNCNvMsa_NtCs1TpOoA2oLim_9lb_l4_xdp6loaderNtB7_9XdpLoader6attachs_0B9_
FN:1380,_RNCNvMsa_NtCs1TpOoA2oLim_9lb_l4_xdp6loaderNtB7_9XdpLoader9query_xdp0B9_
FN:1589,_RNCNvMsb_NtCs1TpOoA2oLim_9lb_l4_xdp6loaderNtB7_12CtInsertGate6now_ns0B9_
FN:196,_RNvMs1_NtCs1TpOoA2oLim_9lb_l4_xdp6loaderNtB5_12BackendEntry3new
FN:227,_RNvMs1_NtCs1TpOoA2oLim_9lb_l4_xdp6loaderNtB5_12BackendEntry7try_new
FN:278,_RNvMs3_NtCs1TpOoA2oLim_9lb_l4_xdp6loaderNtB5_9FlowKeyV63new
FN:327,_RNvMs5_NtCs1TpOoA2oLim_9lb_l4_xdp6loaderNtB5_14BackendEntryV63new
FN:352,_RNvMs5_NtCs1TpOoA2oLim_9lb_l4_xdp6loaderNtB5_14BackendEntryV67try_new
FN:454,_RNvMs7_NtCs1TpOoA2oLim_9lb_l4_xdp6loaderNtB5_12BackendTable6zeroed
FN:512,_RNvMs9_NtCs1TpOoA2oLim_9lb_l4_xdp6loaderNtB5_7XdpMode8to_label
FN:135,_RNvMs_NtCs1TpOoA2oLim_9lb_l4_xdp6loaderNtB4_7FlowKey3new
FN:1046,_RNvMsa_NtCs1TpOoA2oLim_9lb_l4_xdp6loaderNtB5_9XdpLoader11kernel_load
FN:1246,_RNvMsa_NtCs1TpOoA2oLim_9lb_l4_xdp6loaderNtB5_9XdpLoader13conntrack_map
FN:1032,_RNvMsa_NtCs1TpOoA2oLim_9lb_l4_xdp6loaderNtB5_9XdpLoader13program_names
FN:950,_RNvMsa_NtCs1TpOoA2oLim_9lb_l4_xdp6loaderNtB5_9XdpLoader15backends_v4_map
FN:1313,_RNvMsa_NtCs1TpOoA2oLim_9lb_l4_xdp6loaderNtB5_9XdpLoader15insert_acl_deny
FN:1409,_RNvMsa_NtCs1TpOoA2oLim_9lb_l4_xdp6loaderNtB5_9XdpLoader16attach_replacing
FN:1266,_RNvMsa_NtCs1TpOoA2oLim_9lb_l4_xdp6loaderNtB5_9XdpLoader16conntrack_v6_map
FN:1474,_RNvMsa_NtCs1TpOoA2oLim_9lb_l4_xdp6loaderNtB5_9XdpLoader16detach_verifying
FN:923,_RNvMsa_NtCs1TpOoA2oLim_9lb_l4_xdp6loaderNtB5_9XdpLoader16set_new_flow_cap
FN:989,_RNvMsa_NtCs1TpOoA2oLim_9lb_l4_xdp6loaderNtB5_9XdpLoader19publish_backends_v4
FN:1115,_RNvMsa_NtCs1TpOoA2oLim_9lb_l4_xdp6loaderNtB5_9XdpLoader20attach_with_fallback
FN:901,_RNvMsa_NtCs1TpOoA2oLim_9lb_l4_xdp6loaderNtB5_9XdpLoader20install_stats_export
FN:1332,_RNvMsa_NtCs1TpOoA2oLim_9lb_l4_xdp6loaderNtB5_9XdpLoader4ebpf
FN:1068,_RNvMsa_NtCs1TpOoA2oLim_9lb_l4_xdp6loaderNtB5_9XdpLoader6attach
FN:1284,_RNvMsa_NtCs1TpOoA2oLim_9lb_l4_xdp6loaderNtB5_9XdpLoader8acl_trie
FN:1337,_RNvMsa_NtCs1TpOoA2oLim_9lb_l4_xdp6loaderNtB5_9XdpLoader8ebpf_mut
FN:1219,_RNvMsa_NtCs1TpOoA2oLim_9lb_l4_xdp6loaderNtB5_9XdpLoader8take_map
FN:1368,_RNvMsa_NtCs1TpOoA2oLim_9lb_l4_xdp6loaderNtB5_9XdpLoader9query_xdp
FN:1575,_RNvMsb_NtCs1TpOoA2oLim_9lb_l4_xdp6loaderNtB5_12CtInsertGate3new
FN:1584,_RNvMsb_NtCs1TpOoA2oLim_9lb_l4_xdp6loaderNtB5_12CtInsertGate6now_ns
FN:1597,_RNvMsb_NtCs1TpOoA2oLim_9lb_l4_xdp6loaderNtB5_12CtInsertGate9try_admit
FN:528,_RNvNtCs1TpOoA2oLim_9lb_l4_xdp6loader19is_unsupported_mode
FN:468,_RNvXs8_NtCs1TpOoA2oLim_9lb_l4_xdp6loaderNtB5_12BackendTableNtNtCs2va5m0jqTTM_4core7default7Default7default
FN:500,_RNvMs9_NtCs1TpOoA2oLim_9lb_l4_xdp6loaderNtB5_7XdpMode8to_flags
FN:816,_RNvMsa_NtCs1TpOoA2oLim_9lb_l4_xdp6loaderNtB5_9XdpLoader15load_from_bytes
FN:856,_RNvMsa_NtCs1TpOoA2oLim_9lb_l4_xdp6loaderNtB5_9XdpLoader22load_from_bytes_pinned
FN:731,_RNvNtCs1TpOoA2oLim_9lb_l4_xdp6loader21assert_license_is_gpl
FN:1786,_RNvNtNtCs1TpOoA2oLim_9lb_l4_xdp6loader5tests30build_elf_with_license_section
FN:1846,_RNvNtNtCs1TpOoA2oLim_9lb_l4_xdp6loader5testss_16xdp_mode_is_copy
FN:1688,_RNvNtNtCs1TpOoA2oLim_9lb_l4_xdp6loader5testss_21xdp_mode_flag_mapping
FN:1676,_RNvNtNtCs1TpOoA2oLim_9lb_l4_xdp6loader5testss_25load_empty_bytes_rejected
FN:1662,_RNvNtNtCs1TpOoA2oLim_9lb_l4_xdp6loader5testss_27load_garbage_bytes_rejected
FN:1769,_RNvNtNtCs1TpOoA2oLim_9lb_l4_xdp6loader5testss_33license_check_accepts_gpl_payload
FN:1752,_RNvNtNtCs1TpOoA2oLim_9lb_l4_xdp6loader5testss_35license_check_rejects_wrong_payload
FN:1712,_RNvNtNtCs1TpOoA2oLim_9lb_l4_xdp6loader5testss_49license_check_rejects_elf_without_license_section
FNDA:0,_RNCNvMsa_NtCsliGSWXv581y_9lb_l4_xdp6loaderNtB7_9XdpLoader11kernel_load0B9_
FNDA:0,_RNCNvMsa_NtCsliGSWXv581y_9lb_l4_xdp6loaderNtB7_9XdpLoader11kernel_loads_0B9_
FNDA:0,_RNCNvMsa_NtCsliGSWXv581y_9lb_l4_xdp6loaderNtB7_9XdpLoader16attach_replacing0B9_
FNDA:0,_RNCNvMsa_NtCsliGSWXv581y_9lb_l4_xdp6loaderNtB7_9XdpLoader16attach_replacings_0B9_
FNDA:0,_RNCNvMsa_NtCsliGSWXv581y_9lb_l4_xdp6loaderNtB7_9XdpLoader16detach_verifying0B9_
FNDA:0,_RNCNvMsa_NtCsliGSWXv581y_9lb_l4_xdp6loaderNtB7_9XdpLoader16detach_verifyings_0B9_
FNDA:0,_RNCNvMsa_NtCsliGSWXv581y_9lb_l4_xdp6loaderNtB7_9XdpLoader16set_new_flow_cap0B9_
FNDA:0,_RNCNvMsa_NtCsliGSWXv581y_9lb_l4_xdp6loaderNtB7_9XdpLoader20attach_with_fallback0B9_
FNDA:0,_RNCNvMsa_NtCsliGSWXv581y_9lb_l4_xdp6loaderNtB7_9XdpLoader20attach_with_fallbacks0_0B9_
FNDA:0,_RNCNvMsa_NtCsliGSWXv581y_9lb_l4_xdp6loaderNtB7_9XdpLoader20attach_with_fallbacks_0B9_
FNDA:0,_RNCNvMsa_NtCsliGSWXv581y_9lb_l4_xdp6loaderNtB7_9XdpLoader20install_stats_export0B9_
FNDA:0,_RNCNvMsa_NtCsliGSWXv581y_9lb_l4_xdp6loaderNtB7_9XdpLoader6attach0B9_
FNDA:0,_RNCNvMsa_NtCsliGSWXv581y_9lb_l4_xdp6loaderNtB7_9XdpLoader6attachs_0B9_
FNDA:1,_RNCNvMsa_NtCsliGSWXv581y_9lb_l4_xdp6loaderNtB7_9XdpLoader9query_xdp0B9_
FNDA:312026,_RNCNvMsb_NtCsliGSWXv581y_9lb_l4_xdp6loaderNtB7_12CtInsertGate6now_ns0B9_
FNDA:1,_RNCNvNtCsliGSWXv581y_9lb_l4_xdp6loader21assert_license_is_gpl0B5_
FNDA:0,_RNCNvNtCsliGSWXv581y_9lb_l4_xdp6loader21assert_license_is_gpls0_0B5_
FNDA:1,_RNCNvNtCsliGSWXv581y_9lb_l4_xdp6loader21assert_license_is_gpls_0B5_
FNDA:9,_RNvMs1_NtCsliGSWXv581y_9lb_l4_xdp6loaderNtB5_12BackendEntry3new
FNDA:3,_RNvMs1_NtCsliGSWXv581y_9lb_l4_xdp6loaderNtB5_12BackendEntry7try_new
FNDA:1,_RNvMs3_NtCsliGSWXv581y_9lb_l4_xdp6loaderNtB5_9FlowKeyV63new
FNDA:2,_RNvMs5_NtCsliGSWXv581y_9lb_l4_xdp6loaderNtB5_14BackendEntryV63new
FNDA:2,_RNvMs5_NtCsliGSWXv581y_9lb_l4_xdp6loaderNtB5_14BackendEntryV67try_new
FNDA:3,_RNvMs7_NtCsliGSWXv581y_9lb_l4_xdp6loaderNtB5_12BackendTable6zeroed
FNDA:0,_RNvMs9_NtCsliGSWXv581y_9lb_l4_xdp6loaderNtB5_7XdpMode8to_flags
FNDA:0,_RNvMs9_NtCsliGSWXv581y_9lb_l4_xdp6loaderNtB5_7XdpMode8to_label
FNDA:1,_RNvMs_NtCsliGSWXv581y_9lb_l4_xdp6loaderNtB4_7FlowKey3new
FNDA:0,_RNvMsa_NtCsliGSWXv581y_9lb_l4_xdp6loaderNtB5_9XdpLoader11kernel_load
FNDA:0,_RNvMsa_NtCsliGSWXv581y_9lb_l4_xdp6loaderNtB5_9XdpLoader13conntrack_map
FNDA:2,_RNvMsa_NtCsliGSWXv581y_9lb_l4_xdp6loaderNtB5_9XdpLoader13program_names
FNDA:0,_RNvMsa_NtCsliGSWXv581y_9lb_l4_xdp6loaderNtB5_9XdpLoader15backends_v4_map
FNDA:0,_RNvMsa_NtCsliGSWXv581y_9lb_l4_xdp6loaderNtB5_9XdpLoader15insert_acl_deny
FNDA:2,_RNvMsa_NtCsliGSWXv581y_9lb_l4_xdp6loaderNtB5_9XdpLoader15load_from_bytes
FNDA:0,_RNvMsa_NtCsliGSWXv581y_9lb_l4_xdp6loaderNtB5_9XdpLoader16attach_replacing
FNDA:0,_RNvMsa_NtCsliGSWXv581y_9lb_l4_xdp6loaderNtB5_9XdpLoader16conntrack_v6_map
FNDA:0,_RNvMsa_NtCsliGSWXv581y_9lb_l4_xdp6loaderNtB5_9XdpLoader16detach_verifying
FNDA:0,_RNvMsa_NtCsliGSWXv581y_9lb_l4_xdp6loaderNtB5_9XdpLoader16set_new_flow_cap
FNDA:0,_RNvMsa_NtCsliGSWXv581y_9lb_l4_xdp6loaderNtB5_9XdpLoader19publish_backends_v4
FNDA:0,_RNvMsa_NtCsliGSWXv581y_9lb_l4_xdp6loaderNtB5_9XdpLoader20attach_with_fallback
FNDA:0,_RNvMsa_NtCsliGSWXv581y_9lb_l4_xdp6loaderNtB5_9XdpLoader20install_stats_export
FNDA:2,_RNvMsa_NtCsliGSWXv581y_9lb_l4_xdp6loaderNtB5_9XdpLoader22load_from_bytes_pinned
FNDA:0,_RNvMsa_NtCsliGSWXv581y_9lb_l4_xdp6loaderNtB5_9XdpLoader4ebpf
FNDA:0,_RNvMsa_NtCsliGSWXv581y_9lb_l4_xdp6loaderNtB5_9XdpLoader6attach
FNDA:0,_RNvMsa_NtCsliGSWXv581y_9lb_l4_xdp6loaderNtB5_9XdpLoader8acl_trie
FNDA:0,_RNvMsa_NtCsliGSWXv581y_9lb_l4_xdp6loaderNtB5_9XdpLoader8ebpf_mut
FNDA:0,_RNvMsa_NtCsliGSWXv581y_9lb_l4_xdp6loaderNtB5_9XdpLoader8take_map
FNDA:1,_RNvMsa_NtCsliGSWXv581y_9lb_l4_xdp6loaderNtB5_9XdpLoader9query_xdp
FNDA:3,_RNvMsb_NtCsliGSWXv581y_9lb_l4_xdp6loaderNtB5_12CtInsertGate3new
FNDA:312026,_RNvMsb_NtCsliGSWXv581y_9lb_l4_xdp6loaderNtB5_12CtInsertGate6now_ns
FNDA:1312023,_RNvMsb_NtCsliGSWXv581y_9lb_l4_xdp6loaderNtB5_12CtInsertGate9try_admit
FNDA:0,_RNvNtCsliGSWXv581y_9lb_l4_xdp6loader19is_unsupported_mode
FNDA:2,_RNvNtCsliGSWXv581y_9lb_l4_xdp6loader21assert_license_is_gpl
FNDA:0,_RNvXs8_NtCsliGSWXv581y_9lb_l4_xdp6loaderNtB5_12BackendTableNtNtCs2va5m0jqTTM_4core7default7Default7default
FNDA:2,_RNCNvNtCs1TpOoA2oLim_9lb_l4_xdp6loader21assert_license_is_gpl0B5_
FNDA:0,_RNCNvNtCs1TpOoA2oLim_9lb_l4_xdp6loader21assert_license_is_gpls0_0B5_
FNDA:1,_RNCNvNtCs1TpOoA2oLim_9lb_l4_xdp6loader21assert_license_is_gpls_0B5_
FNDA:0,_RNCNvMsa_NtCs1TpOoA2oLim_9lb_l4_xdp6loaderNtB7_9XdpLoader11kernel_load0B9_
FNDA:0,_RNCNvMsa_NtCs1TpOoA2oLim_9lb_l4_xdp6loaderNtB7_9XdpLoader11kernel_loads_0B9_
FNDA:0,_RNCNvMsa_NtCs1TpOoA2oLim_9lb_l4_xdp6loaderNtB7_9XdpLoader16attach_replacing0B9_
FNDA:0,_RNCNvMsa_NtCs1TpOoA2oLim_9lb_l4_xdp6loaderNtB7_9XdpLoader16attach_replacings_0B9_
FNDA:0,_RNCNvMsa_NtCs1TpOoA2oLim_9lb_l4_xdp6loaderNtB7_9XdpLoader16detach_verifying0B9_
FNDA:0,_RNCNvMsa_NtCs1TpOoA2oLim_9lb_l4_xdp6loaderNtB7_9XdpLoader16detach_verifyings_0B9_
FNDA:0,_RNCNvMsa_NtCs1TpOoA2oLim_9lb_l4_xdp6loaderNtB7_9XdpLoader16set_new_flow_cap0B9_
FNDA:0,_RNCNvMsa_NtCs1TpOoA2oLim_9lb_l4_xdp6loaderNtB7_9XdpLoader20attach_with_fallback0B9_
FNDA:0,_RNCNvMsa_NtCs1TpOoA2oLim_9lb_l4_xdp6loaderNtB7_9XdpLoader20attach_with_fallbacks0_0B9_
FNDA:0,_RNCNvMsa_NtCs1TpOoA2oLim_9lb_l4_xdp6loaderNtB7_9XdpLoader20attach_with_fallbacks_0B9_
FNDA:0,_RNCNvMsa_NtCs1TpOoA2oLim_9lb_l4_xdp6loaderNtB7_9XdpLoader20install_stats_export0B9_
FNDA:0,_RNCNvMsa_NtCs1TpOoA2oLim_9lb_l4_xdp6loaderNtB7_9XdpLoader6attach0B9_
FNDA:0,_RNCNvMsa_NtCs1TpOoA2oLim_9lb_l4_xdp6loaderNtB7_9XdpLoader6attachs_0B9_
FNDA:0,_RNCNvMsa_NtCs1TpOoA2oLim_9lb_l4_xdp6loaderNtB7_9XdpLoader9query_xdp0B9_
FNDA:0,_RNCNvMsb_NtCs1TpOoA2oLim_9lb_l4_xdp6loaderNtB7_12CtInsertGate6now_ns0B9_
FNDA:0,_RNvMs1_NtCs1TpOoA2oLim_9lb_l4_xdp6loaderNtB5_12BackendEntry3new
FNDA:0,_RNvMs1_NtCs1TpOoA2oLim_9lb_l4_xdp6loaderNtB5_12BackendEntry7try_new
FNDA:0,_RNvMs3_NtCs1TpOoA2oLim_9lb_l4_xdp6loaderNtB5_9FlowKeyV63new
FNDA:0,_RNvMs5_NtCs1TpOoA2oLim_9lb_l4_xdp6loaderNtB5_14BackendEntryV63new
FNDA:0,_RNvMs5_NtCs1TpOoA2oLim_9lb_l4_xdp6loaderNtB5_14BackendEntryV67try_new
FNDA:0,_RNvMs7_NtCs1TpOoA2oLim_9lb_l4_xdp6loaderNtB5_12BackendTable6zeroed
FNDA:0,_RNvMs9_NtCs1TpOoA2oLim_9lb_l4_xdp6loaderNtB5_7XdpMode8to_label
FNDA:0,_RNvMs_NtCs1TpOoA2oLim_9lb_l4_xdp6loaderNtB4_7FlowKey3new
FNDA:0,_RNvMsa_NtCs1TpOoA2oLim_9lb_l4_xdp6loaderNtB5_9XdpLoader11kernel_load
FNDA:0,_RNvMsa_NtCs1TpOoA2oLim_9lb_l4_xdp6loaderNtB5_9XdpLoader13conntrack_map
FNDA:0,_RNvMsa_NtCs1TpOoA2oLim_9lb_l4_xdp6loaderNtB5_9XdpLoader13program_names
FNDA:0,_RNvMsa_NtCs1TpOoA2oLim_9lb_l4_xdp6loaderNtB5_9XdpLoader15backends_v4_map
FNDA:0,_RNvMsa_NtCs1TpOoA2oLim_9lb_l4_xdp6loaderNtB5_9XdpLoader15insert_acl_deny
FNDA:0,_RNvMsa_NtCs1TpOoA2oLim_9lb_l4_xdp6loaderNtB5_9XdpLoader16attach_replacing
FNDA:0,_RNvMsa_NtCs1TpOoA2oLim_9lb_l4_xdp6loaderNtB5_9XdpLoader16conntrack_v6_map
FNDA:0,_RNvMsa_NtCs1TpOoA2oLim_9lb_l4_xdp6loaderNtB5_9XdpLoader16detach_verifying
FNDA:0,_RNvMsa_NtCs1TpOoA2oLim_9lb_l4_xdp6loaderNtB5_9XdpLoader16set_new_flow_cap
FNDA:0,_RNvMsa_NtCs1TpOoA2oLim_9lb_l4_xdp6loaderNtB5_9XdpLoader19publish_backends_v4
FNDA:0,_RNvMsa_NtCs1TpOoA2oLim_9lb_l4_xdp6loaderNtB5_9XdpLoader20attach_with_fallback
FNDA:0,_RNvMsa_NtCs1TpOoA2oLim_9lb_l4_xdp6loaderNtB5_9XdpLoader20install_stats_export
FNDA:0,_RNvMsa_NtCs1TpOoA2oLim_9lb_l4_xdp6loaderNtB5_9XdpLoader4ebpf
FNDA:0,_RNvMsa_NtCs1TpOoA2oLim_9lb_l4_xdp6loaderNtB5_9XdpLoader6attach
FNDA:0,_RNvMsa_NtCs1TpOoA2oLim_9lb_l4_xdp6loaderNtB5_9XdpLoader8acl_trie
FNDA:0,_RNvMsa_NtCs1TpOoA2oLim_9lb_l4_xdp6loaderNtB5_9XdpLoader8ebpf_mut
FNDA:0,_RNvMsa_NtCs1TpOoA2oLim_9lb_l4_xdp6loaderNtB5_9XdpLoader8take_map
FNDA:0,_RNvMsa_NtCs1TpOoA2oLim_9lb_l4_xdp6loaderNtB5_9XdpLoader9query_xdp
FNDA:0,_RNvMsb_NtCs1TpOoA2oLim_9lb_l4_xdp6loaderNtB5_12CtInsertGate3new
FNDA:0,_RNvMsb_NtCs1TpOoA2oLim_9lb_l4_xdp6loaderNtB5_12CtInsertGate6now_ns
FNDA:0,_RNvMsb_NtCs1TpOoA2oLim_9lb_l4_xdp6loaderNtB5_12CtInsertGate9try_admit
FNDA:0,_RNvNtCs1TpOoA2oLim_9lb_l4_xdp6loader19is_unsupported_mode
FNDA:0,_RNvXs8_NtCs1TpOoA2oLim_9lb_l4_xdp6loaderNtB5_12BackendTableNtNtCs2va5m0jqTTM_4core7default7Default7default
FNDA:7,_RNvMs9_NtCs1TpOoA2oLim_9lb_l4_xdp6loaderNtB5_7XdpMode8to_flags
FNDA:2,_RNvMsa_NtCs1TpOoA2oLim_9lb_l4_xdp6loaderNtB5_9XdpLoader15load_from_bytes
FNDA:2,_RNvMsa_NtCs1TpOoA2oLim_9lb_l4_xdp6loaderNtB5_9XdpLoader22load_from_bytes_pinned
FNDA:5,_RNvNtCs1TpOoA2oLim_9lb_l4_xdp6loader21assert_license_is_gpl
FNDA:2,_RNvNtNtCs1TpOoA2oLim_9lb_l4_xdp6loader5tests30build_elf_with_license_section
FNDA:1,_RNvNtNtCs1TpOoA2oLim_9lb_l4_xdp6loader5testss_16xdp_mode_is_copy
FNDA:1,_RNvNtNtCs1TpOoA2oLim_9lb_l4_xdp6loader5testss_21xdp_mode_flag_mapping
FNDA:1,_RNvNtNtCs1TpOoA2oLim_9lb_l4_xdp6loader5testss_25load_empty_bytes_rejected
FNDA:1,_RNvNtNtCs1TpOoA2oLim_9lb_l4_xdp6loader5testss_27load_garbage_bytes_rejected
FNDA:1,_RNvNtNtCs1TpOoA2oLim_9lb_l4_xdp6loader5testss_33license_check_accepts_gpl_payload
FNDA:1,_RNvNtNtCs1TpOoA2oLim_9lb_l4_xdp6loader5testss_35license_check_rejects_wrong_payload
FNDA:1,_RNvNtNtCs1TpOoA2oLim_9lb_l4_xdp6loader5testss_49license_check_rejects_elf_without_license_section
FNF:61
FNH:28
DA:135,1
DA:136,1
DA:137,1
DA:138,1
DA:139,1
DA:140,1
DA:141,1
DA:142,1
DA:143,1
DA:144,1
DA:145,1
DA:146,1
DA:147,1
DA:148,1
DA:149,1
DA:150,1
DA:196,9
DA:197,9
DA:198,9
DA:199,9
DA:200,9
DA:201,9
DA:202,9
DA:203,9
DA:204,9
DA:205,9
DA:206,9
DA:207,9
DA:208,9
DA:209,9
DA:210,9
DA:211,9
DA:227,3
DA:228,3
DA:229,3
DA:230,3
DA:231,3
DA:232,3
DA:233,3
DA:234,3
DA:235,1
DA:236,1
DA:237,1
DA:238,2
DA:239,2
DA:240,1
DA:241,1
DA:242,1
DA:243,1
DA:244,1
DA:245,1
DA:246,1
DA:247,1
DA:248,1
DA:249,1
DA:250,1
DA:251,3
DA:278,1
DA:279,1
DA:280,1
DA:281,1
DA:282,1
DA:283,1
DA:284,1
DA:285,1
DA:286,1
DA:287,1
DA:288,1
DA:289,1
DA:290,1
DA:291,1
DA:292,1
DA:293,1
DA:327,2
DA:328,2
DA:329,2
DA:330,2
DA:331,2
DA:332,2
DA:333,2
DA:334,2
DA:335,2
DA:336,2
DA:337,2
DA:338,2
DA:339,2
DA:340,2
DA:341,2
DA:342,2
DA:352,2
DA:353,2
DA:354,2
DA:355,2
DA:356,2
DA:357,2
DA:358,2
DA:359,2
DA:360,1
DA:361,1
DA:362,1
DA:363,1
DA:364,1
DA:365,1
DA:366,1
DA:367,1
DA:368,0
DA:369,0
DA:370,0
DA:371,0
DA:372,0
DA:373,0
DA:374,0
DA:375,0
DA:376,2
DA:454,3
DA:456,3
DA:457,3
DA:458,3
DA:459,3
DA:460,3
DA:461,3
DA:462,3
DA:463,3
DA:464,3
DA:468,0
DA:469,0
DA:470,0
DA:500,7
DA:501,7
DA:502,2
DA:503,3
DA:504,2
DA:506,7
DA:512,0
DA:513,0
DA:514,0
DA:515,0
DA:516,0
DA:518,0
DA:528,0
DA:531,0
DA:532,0
DA:533,0
DA:534,0
DA:535,0
DA:536,0
DA:731,7
DA:732,7
DA:733,3
DA:734,7
DA:735,4
DA:736,2
DA:737,2
DA:738,2
DA:739,2
DA:740,2
DA:741,4
DA:742,2
DA:743,0
DA:744,2
DA:745,2
DA:746,1
DA:747,1
DA:748,1
DA:749,1
DA:750,1
DA:751,1
DA:752,7
DA:816,4
DA:817,4
DA:818,4
DA:856,4
DA:857,4
DA:858,4
DA:859,4
DA:860,4
DA:861,4
DA:862,4
DA:863,4
DA:864,4
DA:865,4
DA:866,4
DA:867,0
DA:868,0
DA:874,0
DA:875,0
DA:876,0
DA:877,0
DA:878,0
DA:879,0
DA:880,0
DA:881,0
DA:882,4
DA:901,0
DA:902,0
DA:903,0
DA:904,0
DA:905,0
DA:923,0
DA:925,0
DA:926,0
DA:927,0
DA:928,0
DA:929,0
DA:930,0
DA:931,0
DA:932,0
DA:933,0
DA:934,0
DA:935,0
DA:936,0
DA:937,0
DA:950,0
DA:951,0
DA:952,0
DA:953,0
DA:954,0
DA:955,0
DA:956,0
DA:957,0
DA:958,0
DA:989,0
DA:990,0
DA:991,0
DA:992,0
DA:993,0
DA:994,0
DA:995,0
DA:996,0
DA:997,0
DA:998,0
DA:1002,0
DA:1003,0
DA:1004,0
DA:1005,0
DA:1008,0
DA:1009,0
DA:1010,0
DA:1011,0
DA:1012,0
DA:1013,0
DA:1014,0
DA:1015,0
DA:1016,0
DA:1017,0
DA:1018,0
DA:1019,0
DA:1020,0
DA:1021,0
DA:1022,0
DA:1032,2
DA:1033,2
DA:1034,2
DA:1035,2
DA:1046,0
DA:1047,0
DA:1048,0
DA:1049,0
DA:1050,0
DA:1051,0
DA:1052,0
DA:1053,0
DA:1054,0
DA:1055,0
DA:1056,0
DA:1068,0
DA:1069,0
DA:1070,0
DA:1071,0
DA:1072,0
DA:1073,0
DA:1074,0
DA:1075,0
DA:1076,0
DA:1077,0
DA:1078,0
DA:1079,0
DA:1080,0
DA:1087,0
DA:1088,0
DA:1089,0
DA:1090,0
DA:1115,0
DA:1116,0
DA:1117,0
DA:1118,0
DA:1119,0
DA:1120,0
DA:1124,0
DA:1125,0
DA:1126,0
DA:1127,0
DA:1128,0
DA:1130,0
DA:1131,0
DA:1132,0
DA:1133,0
DA:1134,0
DA:1135,0
DA:1136,0
DA:1138,0
DA:1139,0
DA:1140,0
DA:1141,0
DA:1142,0
DA:1143,0
DA:1144,0
DA:1145,0
DA:1146,0
DA:1147,0
DA:1148,0
DA:1149,0
DA:1150,0
DA:1151,0
DA:1152,0
DA:1153,0
DA:1154,0
DA:1155,0
DA:1156,0
DA:1157,0
DA:1158,0
DA:1159,0
DA:1161,0
DA:1165,0
DA:1166,0
DA:1168,0
DA:1169,0
DA:1170,0
DA:1171,0
DA:1172,0
DA:1173,0
DA:1174,0
DA:1175,0
DA:1176,0
DA:1177,0
DA:1179,0
DA:1180,0
DA:1181,0
DA:1187,0
DA:1188,0
DA:1190,0
DA:1191,0
DA:1193,0
DA:1194,0
DA:1195,0
DA:1197,0
DA:1198,0
DA:1200,0
DA:1203,0
DA:1204,0
DA:1205,0
DA:1206,0
DA:1207,0
DA:1208,0
DA:1209,0
DA:1210,0
DA:1219,0
DA:1220,0
DA:1221,0
DA:1222,0
DA:1223,0
DA:1246,0
DA:1247,0
DA:1248,0
DA:1253,0
DA:1254,0
DA:1255,0
DA:1256,0
DA:1257,0
DA:1258,0
DA:1266,0
DA:1267,0
DA:1268,0
DA:1269,0
DA:1270,0
DA:1271,0
DA:1272,0
DA:1273,0
DA:1274,0
DA:1284,0
DA:1285,0
DA:1286,0
DA:1287,0
DA:1288,0
DA:1289,0
DA:1290,0
DA:1313,0
DA:1314,0
DA:1315,0
DA:1316,0
DA:1317,0
DA:1318,0
DA:1319,0
DA:1320,0
DA:1321,0
DA:1322,0
DA:1323,0
DA:1324,0
DA:1325,0
DA:1326,0
DA:1327,0
DA:1332,0
DA:1333,0
DA:1334,0
DA:1337,0
DA:1338,0
DA:1339,0
DA:1368,1
DA:1380,1
DA:1381,1
DA:1382,1
DA:1383,1
DA:1384,1
DA:1385,1
DA:1386,0
DA:1387,0
DA:1388,0
DA:1389,0
DA:1390,1
DA:1409,0
DA:1410,0
DA:1411,0
DA:1412,0
DA:1413,0
DA:1414,0
DA:1415,0
DA:1421,0
DA:1422,0
DA:1423,0
DA:1433,0
DA:1434,0
DA:1435,0
DA:1436,0
DA:1437,0
DA:1438,0
DA:1439,0
DA:1440,0
DA:1441,0
DA:1442,0
DA:1443,0
DA:1444,0
DA:1446,0
DA:1447,0
DA:1449,0
DA:1474,0
DA:1475,0
DA:1476,0
DA:1477,0
DA:1478,0
DA:1479,0
DA:1482,0
DA:1483,0
DA:1484,0
DA:1493,0
DA:1494,0
DA:1495,0
DA:1496,0
DA:1497,0
DA:1498,0
DA:1499,0
DA:1500,0
DA:1501,0
DA:1502,0
DA:1504,0
DA:1505,0
DA:1512,0
DA:1513,0
DA:1514,0
DA:1515,0
DA:1516,0
DA:1517,0
DA:1518,0
DA:1519,0
DA:1520,0
DA:1575,3
DA:1576,3
DA:1577,3
DA:1578,3
DA:1579,3
DA:1580,3
DA:1581,3
DA:1582,3
DA:1584,312026
DA:1585,312026
DA:1586,312026
DA:1587,312026
DA:1588,312026
DA:1589,312026
DA:1590,312026
DA:1591,312026
DA:1597,1312023
DA:1598,1312023
DA:1599,1000000
DA:1600,312023
DA:1601,312023
DA:1602,312023
DA:1603,312023
DA:1604,312023
DA:1605,312023
DA:1606,312023
DA:1607,312023
DA:1608,312023
DA:1609,3317
DA:1610,3317
DA:1611,3317
DA:1612,3317
DA:1614,3317
DA:1615,3317
DA:1616,3317
DA:1618,3317
DA:1619,3317
DA:1620,3317
DA:1621,3317
DA:1622,3317
DA:1623,3317
DA:1624,3317
DA:1625,3317
DA:1626,0
DA:1629,308706
DA:1630,0
DA:1632,312023
DA:1634,312023
DA:1635,196702
DA:1636,115321
DA:1637,115321
DA:1638,115321
DA:1639,115321
DA:1640,115321
DA:1641,115321
DA:1642,115321
DA:1643,115321
DA:1644,0
DA:1647,1312023
DA:1662,1
DA:1663,1
DA:1664,1
DA:1665,1
DA:1666,0
DA:1667,1
DA:1670,0
DA:1672,1
DA:1676,1
DA:1677,1
DA:1678,1
DA:1679,1
DA:1680,1
DA:1683,1
DA:1688,1
DA:1689,1
DA:1690,1
DA:1691,1
DA:1694,1
DA:1695,1
DA:1696,1
DA:1697,1
DA:1698,1
DA:1699,1
DA:1700,1
DA:1701,1
DA:1702,1
DA:1712,1
DA:1713,1
DA:1714,1
DA:1715,1
DA:1716,1
DA:1717,1
DA:1718,1
DA:1719,1
DA:1720,1
DA:1721,1
DA:1722,1
DA:1723,1
DA:1724,1
DA:1725,1
DA:1726,1
DA:1727,1
DA:1728,1
DA:1729,1
DA:1730,1
DA:1731,1
DA:1732,1
DA:1733,1
DA:1734,1
DA:1735,0
DA:1738,0
DA:1740,1
DA:1752,1
DA:1753,1
DA:1754,1
DA:1755,1
DA:1756,1
DA:1757,1
DA:1758,1
DA:1759,0
DA:1762,0
DA:1764,1
DA:1769,1
DA:1770,1
DA:1771,1
DA:1772,1
DA:1773,1
DA:1774,0
DA:1776,1
DA:1786,2
DA:1796,2
DA:1797,2
DA:1798,2
DA:1799,2
DA:1800,2
DA:1801,2
DA:1802,2
DA:1803,2
DA:1804,2
DA:1805,2
DA:1806,2
DA:1807,2
DA:1808,2
DA:1809,2
DA:1810,2
DA:1811,2
DA:1812,2
DA:1813,2
DA:1814,2
DA:1815,2
DA:1816,2
DA:1817,2
DA:1818,2
DA:1819,2
DA:1820,2
DA:1821,2
DA:1822,2
DA:1823,2
DA:1824,2
DA:1825,2
DA:1826,2
DA:1827,2
DA:1828,2
DA:1829,2
DA:1830,2
DA:1831,2
DA:1832,2
DA:1833,2
DA:1834,2
DA:1835,2
DA:1836,2
DA:1837,2
DA:1838,2
DA:1839,2
DA:1840,2
DA:1841,2
DA:1842,2
DA:1843,2
DA:1846,1
DA:1847,1
DA:1848,1
DA:1849,1
DA:1850,1
DA:1851,1
BRF:0
BRH:0
LF:680
LH:351
end_of_record
SF:/home/ubuntu/Code/ExpressGateway/crates/lb-l4-xdp/src/netlink_xdp.rs
FN:312,_RNvXs0_NtCsliGSWXv581y_9lb_l4_xdp11netlink_xdpNtB5_7OwnedFdNtNtNtCs2va5m0jqTTM_4core3ops4drop4Drop4drop
FN:296,_RNCNvNtCsliGSWXv581y_9lb_l4_xdp11netlink_xdp14if_nametoindex0B5_
FN:174,_RNCNvNtCsliGSWXv581y_9lb_l4_xdp11netlink_xdp22parse_getlink_response0B5_
FN:178,_RNCNvNtCsliGSWXv581y_9lb_l4_xdp11netlink_xdp22parse_getlink_responses0_0B5_
FN:179,_RNCNvNtCsliGSWXv581y_9lb_l4_xdp11netlink_xdp22parse_getlink_responses1_0B5_
FN:183,_RNCNvNtCsliGSWXv581y_9lb_l4_xdp11netlink_xdp22parse_getlink_responses2_0B5_
FN:186,_RNCNvNtCsliGSWXv581y_9lb_l4_xdp11netlink_xdp22parse_getlink_responses3_0B5_
FN:197,_RNCNvNtCsliGSWXv581y_9lb_l4_xdp11netlink_xdp22parse_getlink_responses4_0B5_
FN:210,_RNCNvNtCsliGSWXv581y_9lb_l4_xdp11netlink_xdp22parse_getlink_responses5_0B5_
FN:177,_RNCNvNtCsliGSWXv581y_9lb_l4_xdp11netlink_xdp22parse_getlink_responses_0B5_
FN:96,_RNCNvNtCsliGSWXv581y_9lb_l4_xdp11netlink_xdp8read_i320B5_
FN:385,_RNCNvNtCsliGSWXv581y_9lb_l4_xdp11netlink_xdp8write_at0B5_
FN:388,_RNCNvNtCsliGSWXv581y_9lb_l4_xdp11netlink_xdp8write_ats_0B5_
FN:248,_RNvMNtCsliGSWXv581y_9lb_l4_xdp11netlink_xdpNtB2_10RtattrIter3new
FN:294,_RNvNtCsliGSWXv581y_9lb_l4_xdp11netlink_xdp14if_nametoindex
FN:287,_RNvNtCsliGSWXv581y_9lb_l4_xdp11netlink_xdp17query_xdp_prog_id
FN:120,_RNvNtCsliGSWXv581y_9lb_l4_xdp11netlink_xdp20parse_ifinfo_payload
FN:319,_RNvNtCsliGSWXv581y_9lb_l4_xdp11netlink_xdp21rtm_getlink_roundtrip
FN:166,_RNvNtCsliGSWXv581y_9lb_l4_xdp11netlink_xdp22parse_getlink_response
FN:68,_RNvNtCsliGSWXv581y_9lb_l4_xdp11netlink_xdp5alignB3_
FN:95,_RNvNtCsliGSWXv581y_9lb_l4_xdp11netlink_xdp8read_i32B3_
FN:76,_RNvNtCsliGSWXv581y_9lb_l4_xdp11netlink_xdp8read_u16B3_
FN:83,_RNvNtCsliGSWXv581y_9lb_l4_xdp11netlink_xdp8read_u32B3_
FN:382,_RNvNtCsliGSWXv581y_9lb_l4_xdp11netlink_xdp8write_at
FN:256,_RNvXs_NtCsliGSWXv581y_9lb_l4_xdp11netlink_xdpNtB4_10RtattrIterNtNtNtNtCs2va5m0jqTTM_4core4iter6traits8iterator8Iterator4next
FN:296,_RNCNvNtCs1TpOoA2oLim_9lb_l4_xdp11netlink_xdp14if_nametoindex0B5_
FN:174,_RNCNvNtCs1TpOoA2oLim_9lb_l4_xdp11netlink_xdp22parse_getlink_response0B5_
FN:178,_RNCNvNtCs1TpOoA2oLim_9lb_l4_xdp11netlink_xdp22parse_getlink_responses0_0B5_
FN:179,_RNCNvNtCs1TpOoA2oLim_9lb_l4_xdp11netlink_xdp22parse_getlink_responses1_0B5_
FN:183,_RNCNvNtCs1TpOoA2oLim_9lb_l4_xdp11netlink_xdp22parse_getlink_responses2_0B5_
FN:186,_RNCNvNtCs1TpOoA2oLim_9lb_l4_xdp11netlink_xdp22parse_getlink_responses3_0B5_
FN:197,_RNCNvNtCs1TpOoA2oLim_9lb_l4_xdp11netlink_xdp22parse_getlink_responses4_0B5_
FN:210,_RNCNvNtCs1TpOoA2oLim_9lb_l4_xdp11netlink_xdp22parse_getlink_responses5_0B5_
FN:177,_RNCNvNtCs1TpOoA2oLim_9lb_l4_xdp11netlink_xdp22parse_getlink_responses_0B5_
FN:96,_RNCNvNtCs1TpOoA2oLim_9lb_l4_xdp11netlink_xdp8read_i320B5_
FN:385,_RNCNvNtCs1TpOoA2oLim_9lb_l4_xdp11netlink_xdp8write_at0B5_
FN:388,_RNCNvNtCs1TpOoA2oLim_9lb_l4_xdp11netlink_xdp8write_ats_0B5_
FN:248,_RNvMNtCs1TpOoA2oLim_9lb_l4_xdp11netlink_xdpNtB2_10RtattrIter3new
FN:294,_RNvNtCs1TpOoA2oLim_9lb_l4_xdp11netlink_xdp14if_nametoindex
FN:287,_RNvNtCs1TpOoA2oLim_9lb_l4_xdp11netlink_xdp17query_xdp_prog_id
FN:120,_RNvNtCs1TpOoA2oLim_9lb_l4_xdp11netlink_xdp20parse_ifinfo_payload
FN:319,_RNvNtCs1TpOoA2oLim_9lb_l4_xdp11netlink_xdp21rtm_getlink_roundtrip
FN:166,_RNvNtCs1TpOoA2oLim_9lb_l4_xdp11netlink_xdp22parse_getlink_response
FN:68,_RNvNtCs1TpOoA2oLim_9lb_l4_xdp11netlink_xdp5alignB3_
FN:95,_RNvNtCs1TpOoA2oLim_9lb_l4_xdp11netlink_xdp8read_i32B3_
FN:76,_RNvNtCs1TpOoA2oLim_9lb_l4_xdp11netlink_xdp8read_u16B3_
FN:83,_RNvNtCs1TpOoA2oLim_9lb_l4_xdp11netlink_xdp8read_u32B3_
FN:382,_RNvNtCs1TpOoA2oLim_9lb_l4_xdp11netlink_xdp8write_at
FN:312,_RNvXs0_NtCs1TpOoA2oLim_9lb_l4_xdp11netlink_xdpNtB5_7OwnedFdNtNtNtCs2va5m0jqTTM_4core3ops4drop4Drop4drop
FN:256,_RNvXs_NtCs1TpOoA2oLim_9lb_l4_xdp11netlink_xdpNtB4_10RtattrIterNtNtNtNtCs2va5m0jqTTM_4core4iter6traits8iterator8Iterator4next
FNDA:0,_RNvXs0_NtCsliGSWXv581y_9lb_l4_xdp11netlink_xdpNtB5_7OwnedFdNtNtNtCs2va5m0jqTTM_4core3ops4drop4Drop4drop
FNDA:0,_RNCNvNtCsliGSWXv581y_9lb_l4_xdp11netlink_xdp14if_nametoindex0B5_
FNDA:6,_RNCNvNtCsliGSWXv581y_9lb_l4_xdp11netlink_xdp22parse_getlink_response0B5_
FNDA:0,_RNCNvNtCsliGSWXv581y_9lb_l4_xdp11netlink_xdp22parse_getlink_responses0_0B5_
FNDA:0,_RNCNvNtCsliGSWXv581y_9lb_l4_xdp11netlink_xdp22parse_getlink_responses1_0B5_
FNDA:0,_RNCNvNtCsliGSWXv581y_9lb_l4_xdp11netlink_xdp22parse_getlink_responses2_0B5_
FNDA:5,_RNCNvNtCsliGSWXv581y_9lb_l4_xdp11netlink_xdp22parse_getlink_responses3_0B5_
FNDA:0,_RNCNvNtCsliGSWXv581y_9lb_l4_xdp11netlink_xdp22parse_getlink_responses4_0B5_
FNDA:0,_RNCNvNtCsliGSWXv581y_9lb_l4_xdp11netlink_xdp22parse_getlink_responses5_0B5_
FNDA:5,_RNCNvNtCsliGSWXv581y_9lb_l4_xdp11netlink_xdp22parse_getlink_responses_0B5_
FNDA:1,_RNCNvNtCsliGSWXv581y_9lb_l4_xdp11netlink_xdp8read_i320B5_
FNDA:0,_RNCNvNtCsliGSWXv581y_9lb_l4_xdp11netlink_xdp8write_at0B5_
FNDA:0,_RNCNvNtCsliGSWXv581y_9lb_l4_xdp11netlink_xdp8write_ats_0B5_
FNDA:7,_RNvMNtCsliGSWXv581y_9lb_l4_xdp11netlink_xdpNtB2_10RtattrIter3new
FNDA:1,_RNvNtCsliGSWXv581y_9lb_l4_xdp11netlink_xdp14if_nametoindex
FNDA:1,_RNvNtCsliGSWXv581y_9lb_l4_xdp11netlink_xdp17query_xdp_prog_id
FNDA:4,_RNvNtCsliGSWXv581y_9lb_l4_xdp11netlink_xdp20parse_ifinfo_payload
FNDA:0,_RNvNtCsliGSWXv581y_9lb_l4_xdp11netlink_xdp21rtm_getlink_roundtrip
FNDA:6,_RNvNtCsliGSWXv581y_9lb_l4_xdp11netlink_xdp22parse_getlink_response
FNDA:14,_RNvNtCsliGSWXv581y_9lb_l4_xdp11netlink_xdp5alignB3_
FNDA:1,_RNvNtCsliGSWXv581y_9lb_l4_xdp11netlink_xdp8read_i32B3_
FNDA:33,_RNvNtCsliGSWXv581y_9lb_l4_xdp11netlink_xdp8read_u16B3_
FNDA:8,_RNvNtCsliGSWXv581y_9lb_l4_xdp11netlink_xdp8read_u32B3_
FNDA:0,_RNvNtCsliGSWXv581y_9lb_l4_xdp11netlink_xdp8write_at
FNDA:17,_RNvXs_NtCsliGSWXv581y_9lb_l4_xdp11netlink_xdpNtB4_10RtattrIterNtNtNtNtCs2va5m0jqTTM_4core4iter6traits8iterator8Iterator4next
FNDA:0,_RNCNvNtCs1TpOoA2oLim_9lb_l4_xdp11netlink_xdp14if_nametoindex0B5_
FNDA:0,_RNCNvNtCs1TpOoA2oLim_9lb_l4_xdp11netlink_xdp22parse_getlink_response0B5_
FNDA:0,_RNCNvNtCs1TpOoA2oLim_9lb_l4_xdp11netlink_xdp22parse_getlink_responses0_0B5_
FNDA:0,_RNCNvNtCs1TpOoA2oLim_9lb_l4_xdp11netlink_xdp22parse_getlink_responses1_0B5_
FNDA:0,_RNCNvNtCs1TpOoA2oLim_9lb_l4_xdp11netlink_xdp22parse_getlink_responses2_0B5_
FNDA:0,_RNCNvNtCs1TpOoA2oLim_9lb_l4_xdp11netlink_xdp22parse_getlink_responses3_0B5_
FNDA:0,_RNCNvNtCs1TpOoA2oLim_9lb_l4_xdp11netlink_xdp22parse_getlink_responses4_0B5_
FNDA:0,_RNCNvNtCs1TpOoA2oLim_9lb_l4_xdp11netlink_xdp22parse_getlink_responses5_0B5_
FNDA:0,_RNCNvNtCs1TpOoA2oLim_9lb_l4_xdp11netlink_xdp22parse_getlink_responses_0B5_
FNDA:0,_RNCNvNtCs1TpOoA2oLim_9lb_l4_xdp11netlink_xdp8read_i320B5_
FNDA:0,_RNCNvNtCs1TpOoA2oLim_9lb_l4_xdp11netlink_xdp8write_at0B5_
FNDA:0,_RNCNvNtCs1TpOoA2oLim_9lb_l4_xdp11netlink_xdp8write_ats_0B5_
FNDA:0,_RNvMNtCs1TpOoA2oLim_9lb_l4_xdp11netlink_xdpNtB2_10RtattrIter3new
FNDA:0,_RNvNtCs1TpOoA2oLim_9lb_l4_xdp11netlink_xdp14if_nametoindex
FNDA:0,_RNvNtCs1TpOoA2oLim_9lb_l4_xdp11netlink_xdp17query_xdp_prog_id
FNDA:0,_RNvNtCs1TpOoA2oLim_9lb_l4_xdp11netlink_xdp20parse_ifinfo_payload
FNDA:0,_RNvNtCs1TpOoA2oLim_9lb_l4_xdp11netlink_xdp21rtm_getlink_roundtrip
FNDA:0,_RNvNtCs1TpOoA2oLim_9lb_l4_xdp11netlink_xdp22parse_getlink_response
FNDA:0,_RNvNtCs1TpOoA2oLim_9lb_l4_xdp11netlink_xdp5alignB3_
FNDA:0,_RNvNtCs1TpOoA2oLim_9lb_l4_xdp11netlink_xdp8read_i32B3_
FNDA:0,_RNvNtCs1TpOoA2oLim_9lb_l4_xdp11netlink_xdp8read_u16B3_
FNDA:0,_RNvNtCs1TpOoA2oLim_9lb_l4_xdp11netlink_xdp8read_u32B3_
FNDA:0,_RNvNtCs1TpOoA2oLim_9lb_l4_xdp11netlink_xdp8write_at
FNDA:0,_RNvXs0_NtCs1TpOoA2oLim_9lb_l4_xdp11netlink_xdpNtB5_7OwnedFdNtNtNtCs2va5m0jqTTM_4core3ops4drop4Drop4drop
FNDA:0,_RNvXs_NtCs1TpOoA2oLim_9lb_l4_xdp11netlink_xdpNtB4_10RtattrIterNtNtNtNtCs2va5m0jqTTM_4core4iter6traits8iterator8Iterator4next
FNF:25
FNH:14
DA:68,14
DA:69,14
DA:70,14
DA:76,33
DA:77,33
DA:78,33
DA:79,27
DA:80,33
DA:83,8
DA:84,8
DA:85,8
DA:87,8
DA:88,8
DA:89,8
DA:90,8
DA:92,8
DA:95,1
DA:96,1
DA:97,1
DA:120,4
DA:121,4
DA:122,4
DA:123,4
DA:124,4
DA:125,0
DA:127,6
DA:128,6
DA:129,3
DA:130,3
DA:132,4
DA:133,4
DA:135,2
DA:136,2
DA:137,2
DA:140,2
DA:141,2
DA:142,2
DA:144,0
DA:150,4
DA:151,1
DA:152,3
DA:153,4
DA:154,4
DA:166,6
DA:171,6
DA:172,6
DA:173,6
DA:174,6
DA:176,5
DA:177,5
DA:178,5
DA:179,5
DA:180,0
DA:181,5
DA:182,5
DA:183,5
DA:185,5
DA:186,5
DA:187,1
DA:188,1
DA:189,1
DA:190,1
DA:191,1
DA:192,1
DA:193,1
DA:194,4
DA:195,4
DA:196,4
DA:197,4
DA:199,4
DA:200,4
DA:202,0
DA:203,0
DA:204,0
DA:205,0
DA:208,4
DA:209,4
DA:210,4
DA:212,4
DA:213,0
DA:216,1
DA:217,1
DA:218,1
DA:219,1
DA:220,1
DA:221,0
DA:222,0
DA:224,3
DA:225,0
DA:228,0
DA:229,0
DA:230,0
DA:232,0
DA:235,1
DA:236,6
DA:248,7
DA:249,7
DA:250,7
DA:256,17
DA:257,17
DA:258,11
DA:259,11
DA:262,11
DA:263,1
DA:264,10
DA:265,10
DA:266,10
DA:267,10
DA:268,10
DA:269,10
DA:271,10
DA:272,0
DA:273,10
DA:274,10
DA:275,10
DA:276,17
DA:287,1
DA:288,1
DA:289,0
DA:290,0
DA:291,1
DA:294,1
DA:295,1
DA:296,1
DA:299,1
DA:300,1
DA:301,1
DA:302,1
DA:303,1
DA:304,1
DA:305,0
DA:306,0
DA:307,1
DA:312,0
DA:313,0
DA:314,0
DA:315,0
DA:319,0
DA:324,0
DA:325,0
DA:326,0
DA:327,0
DA:328,0
DA:329,0
DA:330,0
DA:331,0
DA:332,0
DA:333,0
DA:334,0
DA:335,0
DA:336,0
DA:337,0
DA:338,0
DA:339,0
DA:340,0
DA:341,0
DA:342,0
DA:343,0
DA:344,0
DA:346,0
DA:347,0
DA:349,0
DA:350,0
DA:351,0
DA:352,0
DA:353,0
DA:354,0
DA:355,0
DA:356,0
DA:357,0
DA:358,0
DA:359,0
DA:360,0
DA:361,0
DA:362,0
DA:363,0
DA:364,0
DA:365,0
DA:366,0
DA:367,0
DA:368,0
DA:369,0
DA:370,0
DA:371,0
DA:372,0
DA:373,0
DA:374,0
DA:375,0
DA:376,0
DA:377,0
DA:378,0
DA:379,0
DA:382,0
DA:383,0
DA:384,0
DA:385,0
DA:386,0
DA:387,0
DA:388,0
DA:389,0
DA:390,0
DA:391,0
BRF:0
BRH:0
LF:215
LH:117
end_of_record
SF:/home/ubuntu/Code/ExpressGateway/crates/lb-l4-xdp/src/nic_compat.rs
FN:323,_RNCNvNtCsliGSWXv581y_9lb_l4_xdp10nic_compat11firmware_of0B5_
FN:334,_RNCNvNtCsliGSWXv581y_9lb_l4_xdp10nic_compat11firmware_ofs_0B5_
FN:197,_RNCNvNtCsliGSWXv581y_9lb_l4_xdp10nic_compat13parse_version0B5_
FN:202,_RNCNvNtCsliGSWXv581y_9lb_l4_xdp10nic_compat13parse_versions0_0B5_
FN:201,_RNCNvNtCsliGSWXv581y_9lb_l4_xdp10nic_compat13parse_versions_0B5_
FN:296,_RNCNvNtCsliGSWXv581y_9lb_l4_xdp10nic_compat9driver_of0B5_
FN:302,_RNCNvNtCsliGSWXv581y_9lb_l4_xdp10nic_compat9driver_ofs_0B5_
FN:207,_RNvNtCsliGSWXv581y_9lb_l4_xdp10nic_compat10version_lt
FN:318,_RNvNtCsliGSWXv581y_9lb_l4_xdp10nic_compat11firmware_of
FN:185,_RNvNtCsliGSWXv581y_9lb_l4_xdp10nic_compat12kernel_below
FN:369,_RNvNtCsliGSWXv581y_9lb_l4_xdp10nic_compat13drv_supported
FN:193,_RNvNtCsliGSWXv581y_9lb_l4_xdp10nic_compat13parse_version
FN:397,_RNvNtCsliGSWXv581y_9lb_l4_xdp10nic_compat16driver_link_path
FN:173,_RNvNtCsliGSWXv581y_9lb_l4_xdp10nic_compat17current_kernel_mm
FN:422,_RNvNtCsliGSWXv581y_9lb_l4_xdp10nic_compat21probe_xdp_silent_drop
FN:343,_RNvNtCsliGSWXv581y_9lb_l4_xdp10nic_compat22parse_ethtool_firmware
FN:255,_RNvNtCsliGSWXv581y_9lb_l4_xdp10nic_compat28classify_unresolved_firmware
FN:225,_RNvNtCsliGSWXv581y_9lb_l4_xdp10nic_compat8classify
FN:294,_RNvNtCsliGSWXv581y_9lb_l4_xdp10nic_compat9driver_of
FN:207,_RNvNtCs1TpOoA2oLim_9lb_l4_xdp10nic_compat10version_lt
FN:185,_RNvNtCs1TpOoA2oLim_9lb_l4_xdp10nic_compat12kernel_below
FN:193,_RNvNtCs1TpOoA2oLim_9lb_l4_xdp10nic_compat13parse_version
FN:173,_RNvNtCs1TpOoA2oLim_9lb_l4_xdp10nic_compat17current_kernel_mm
FN:422,_RNvNtCs1TpOoA2oLim_9lb_l4_xdp10nic_compat21probe_xdp_silent_drop
FN:343,_RNvNtCs1TpOoA2oLim_9lb_l4_xdp10nic_compat22parse_ethtool_firmware
FN:255,_RNvNtCs1TpOoA2oLim_9lb_l4_xdp10nic_compat28classify_unresolved_firmware
FN:225,_RNvNtCs1TpOoA2oLim_9lb_l4_xdp10nic_compat8classify
FN:323,_RNCNvNtCs1TpOoA2oLim_9lb_l4_xdp10nic_compat11firmware_of0B5_
FN:334,_RNCNvNtCs1TpOoA2oLim_9lb_l4_xdp10nic_compat11firmware_ofs_0B5_
FN:296,_RNCNvNtCs1TpOoA2oLim_9lb_l4_xdp10nic_compat9driver_of0B5_
FN:302,_RNCNvNtCs1TpOoA2oLim_9lb_l4_xdp10nic_compat9driver_ofs_0B5_
FN:318,_RNvNtCs1TpOoA2oLim_9lb_l4_xdp10nic_compat11firmware_of
FN:369,_RNvNtCs1TpOoA2oLim_9lb_l4_xdp10nic_compat13drv_supported
FN:397,_RNvNtCs1TpOoA2oLim_9lb_l4_xdp10nic_compat16driver_link_path
FN:294,_RNvNtCs1TpOoA2oLim_9lb_l4_xdp10nic_compat9driver_of
FN:476,_RNvNtNtCs1TpOoA2oLim_9lb_l4_xdp10nic_compat5testss_16ena_and_ice_rows
FN:432,_RNvNtNtCs1TpOoA2oLim_9lb_l4_xdp10nic_compat5testss_21version_compare_basic
FN:486,_RNvNtNtCs1TpOoA2oLim_9lb_l4_xdp10nic_compat5testss_22ethtool_firmware_parse
FN:469,_RNvNtNtCs1TpOoA2oLim_9lb_l4_xdp10nic_compat5testss_22unknown_driver_allowed
FN:464,_RNvNtNtCs1TpOoA2oLim_9lb_l4_xdp10nic_compat5testss_25mlx5_new_firmware_allowed
FN:453,_RNvNtNtCs1TpOoA2oLim_9lb_l4_xdp10nic_compat5testss_25mlx5_old_firmware_refused
FN:443,_RNvNtNtCs1TpOoA2oLim_9lb_l4_xdp10nic_compat5testss_28version_parse_truncates_junk
FN:498,_RNvNtNtCs1TpOoA2oLim_9lb_l4_xdp10nic_compat5testss_36probe_reports_unavailable_on_aya_013
FN:587,_RNvNtNtCs1TpOoA2oLim_9lb_l4_xdp10nic_compat5testss_38current_kernel_mm_resolves_on_this_box
FN:542,_RNvNtNtCs1TpOoA2oLim_9lb_l4_xdp10nic_compat5testss_39ena_unresolved_fw_prebad_kernel_refuses
FN:508,_RNvNtNtCs1TpOoA2oLim_9lb_l4_xdp10nic_compat5testss_40classify_unchanged_is_pure_and_untouched
FN:520,_RNvNtNtCs1TpOoA2oLim_9lb_l4_xdp10nic_compat5testss_45ena_unresolved_fw_modern_kernel_stays_allowed
FN:567,_RNvNtNtCs1TpOoA2oLim_9lb_l4_xdp10nic_compat5testss_53non_kernel_keyed_driver_unresolved_fw_still_fail_open
FN:197,_RNCNvNtCs1TpOoA2oLim_9lb_l4_xdp10nic_compat13parse_version0B5_
FN:202,_RNCNvNtCs1TpOoA2oLim_9lb_l4_xdp10nic_compat13parse_versions0_0B5_
FN:201,_RNCNvNtCs1TpOoA2oLim_9lb_l4_xdp10nic_compat13parse_versions_0B5_
FNDA:0,_RNCNvNtCsliGSWXv581y_9lb_l4_xdp10nic_compat11firmware_of0B5_
FNDA:1,_RNCNvNtCsliGSWXv581y_9lb_l4_xdp10nic_compat11firmware_ofs_0B5_
FNDA:98,_RNCNvNtCsliGSWXv581y_9lb_l4_xdp10nic_compat13parse_version0B5_
FNDA:38,_RNCNvNtCsliGSWXv581y_9lb_l4_xdp10nic_compat13parse_versions0_0B5_
FNDA:38,_RNCNvNtCsliGSWXv581y_9lb_l4_xdp10nic_compat13parse_versions_0B5_
FNDA:1,_RNCNvNtCsliGSWXv581y_9lb_l4_xdp10nic_compat9driver_of0B5_
FNDA:2,_RNCNvNtCsliGSWXv581y_9lb_l4_xdp10nic_compat9driver_ofs_0B5_
FNDA:7,_RNvNtCsliGSWXv581y_9lb_l4_xdp10nic_compat10version_lt
FNDA:1,_RNvNtCsliGSWXv581y_9lb_l4_xdp10nic_compat11firmware_of
FNDA:1,_RNvNtCsliGSWXv581y_9lb_l4_xdp10nic_compat12kernel_below
FNDA:2,_RNvNtCsliGSWXv581y_9lb_l4_xdp10nic_compat13drv_supported
FNDA:14,_RNvNtCsliGSWXv581y_9lb_l4_xdp10nic_compat13parse_version
FNDA:0,_RNvNtCsliGSWXv581y_9lb_l4_xdp10nic_compat16driver_link_path
FNDA:1,_RNvNtCsliGSWXv581y_9lb_l4_xdp10nic_compat17current_kernel_mm
FNDA:1,_RNvNtCsliGSWXv581y_9lb_l4_xdp10nic_compat21probe_xdp_silent_drop
FNDA:3,_RNvNtCsliGSWXv581y_9lb_l4_xdp10nic_compat22parse_ethtool_firmware
FNDA:1,_RNvNtCsliGSWXv581y_9lb_l4_xdp10nic_compat28classify_unresolved_firmware
FNDA:10,_RNvNtCsliGSWXv581y_9lb_l4_xdp10nic_compat8classify
FNDA:3,_RNvNtCsliGSWXv581y_9lb_l4_xdp10nic_compat9driver_of
FNDA:14,_RNvNtCs1TpOoA2oLim_9lb_l4_xdp10nic_compat10version_lt
FNDA:6,_RNvNtCs1TpOoA2oLim_9lb_l4_xdp10nic_compat12kernel_below
FNDA:31,_RNvNtCs1TpOoA2oLim_9lb_l4_xdp10nic_compat13parse_version
FNDA:1,_RNvNtCs1TpOoA2oLim_9lb_l4_xdp10nic_compat17current_kernel_mm
FNDA:1,_RNvNtCs1TpOoA2oLim_9lb_l4_xdp10nic_compat21probe_xdp_silent_drop
FNDA:2,_RNvNtCs1TpOoA2oLim_9lb_l4_xdp10nic_compat22parse_ethtool_firmware
FNDA:10,_RNvNtCs1TpOoA2oLim_9lb_l4_xdp10nic_compat28classify_unresolved_firmware
FNDA:10,_RNvNtCs1TpOoA2oLim_9lb_l4_xdp10nic_compat8classify
FNDA:0,_RNCNvNtCs1TpOoA2oLim_9lb_l4_xdp10nic_compat11firmware_of0B5_
FNDA:0,_RNCNvNtCs1TpOoA2oLim_9lb_l4_xdp10nic_compat11firmware_ofs_0B5_
FNDA:0,_RNCNvNtCs1TpOoA2oLim_9lb_l4_xdp10nic_compat9driver_of0B5_
FNDA:0,_RNCNvNtCs1TpOoA2oLim_9lb_l4_xdp10nic_compat9driver_ofs_0B5_
FNDA:0,_RNvNtCs1TpOoA2oLim_9lb_l4_xdp10nic_compat11firmware_of
FNDA:0,_RNvNtCs1TpOoA2oLim_9lb_l4_xdp10nic_compat13drv_supported
FNDA:0,_RNvNtCs1TpOoA2oLim_9lb_l4_xdp10nic_compat16driver_link_path
FNDA:0,_RNvNtCs1TpOoA2oLim_9lb_l4_xdp10nic_compat9driver_of
FNDA:1,_RNvNtNtCs1TpOoA2oLim_9lb_l4_xdp10nic_compat5testss_16ena_and_ice_rows
FNDA:1,_RNvNtNtCs1TpOoA2oLim_9lb_l4_xdp10nic_compat5testss_21version_compare_basic
FNDA:1,_RNvNtNtCs1TpOoA2oLim_9lb_l4_xdp10nic_compat5testss_22ethtool_firmware_parse
FNDA:1,_RNvNtNtCs1TpOoA2oLim_9lb_l4_xdp10nic_compat5testss_22unknown_driver_allowed
FNDA:1,_RNvNtNtCs1TpOoA2oLim_9lb_l4_xdp10nic_compat5testss_25mlx5_new_firmware_allowed
FNDA:1,_RNvNtNtCs1TpOoA2oLim_9lb_l4_xdp10nic_compat5testss_25mlx5_old_firmware_refused
FNDA:1,_RNvNtNtCs1TpOoA2oLim_9lb_l4_xdp10nic_compat5testss_28version_parse_truncates_junk
FNDA:1,_RNvNtNtCs1TpOoA2oLim_9lb_l4_xdp10nic_compat5testss_36probe_reports_unavailable_on_aya_013
FNDA:1,_RNvNtNtCs1TpOoA2oLim_9lb_l4_xdp10nic_compat5testss_38current_kernel_mm_resolves_on_this_box
FNDA:1,_RNvNtNtCs1TpOoA2oLim_9lb_l4_xdp10nic_compat5testss_39ena_unresolved_fw_prebad_kernel_refuses
FNDA:1,_RNvNtNtCs1TpOoA2oLim_9lb_l4_xdp10nic_compat5testss_40classify_unchanged_is_pure_and_untouched
FNDA:1,_RNvNtNtCs1TpOoA2oLim_9lb_l4_xdp10nic_compat5testss_45ena_unresolved_fw_modern_kernel_stays_allowed
FNDA:1,_RNvNtNtCs1TpOoA2oLim_9lb_l4_xdp10nic_compat5testss_53non_kernel_keyed_driver_unresolved_fw_still_fail_open
FNDA:203,_RNCNvNtCs1TpOoA2oLim_9lb_l4_xdp10nic_compat13parse_version0B5_
FNDA:81,_RNCNvNtCs1TpOoA2oLim_9lb_l4_xdp10nic_compat13parse_versions0_0B5_
FNDA:82,_RNCNvNtCs1TpOoA2oLim_9lb_l4_xdp10nic_compat13parse_versions_0B5_
FNF:32
FNH:30
DA:173,2
DA:174,2
DA:178,2
DA:179,2
DA:180,2
DA:181,2
DA:182,2
DA:185,7
DA:186,7
DA:187,7
DA:193,45
DA:194,45
DA:195,45
DA:196,45
DA:197,301
DA:198,45
DA:199,45
DA:200,45
DA:201,120
DA:202,119
DA:203,45
DA:204,45
DA:207,21
DA:208,21
DA:209,21
DA:210,21
DA:211,46
DA:212,46
DA:213,46
DA:214,46
DA:215,15
DA:216,31
DA:218,6
DA:219,21
DA:225,20
DA:226,66
DA:227,53
DA:228,7
DA:229,7
DA:230,7
DA:231,7
DA:232,7
DA:233,7
DA:234,46
DA:236,13
DA:237,20
DA:255,11
DA:256,24
DA:257,23
DA:258,13
DA:259,10
DA:260,10
DA:263,2
DA:265,7
DA:266,7
DA:267,4
DA:268,4
DA:269,4
DA:270,4
DA:271,4
DA:272,4
DA:273,4
DA:274,4
DA:279,4
DA:283,1
DA:284,11
DA:294,3
DA:295,3
DA:296,3
DA:297,1
DA:298,1
DA:299,3
DA:300,2
DA:301,2
DA:302,2
DA:303,2
DA:304,2
DA:305,3
DA:318,1
DA:319,1
DA:320,1
DA:321,1
DA:322,1
DA:323,1
DA:324,0
DA:325,0
DA:326,1
DA:327,1
DA:328,0
DA:329,0
DA:330,0
DA:331,0
DA:332,1
DA:333,1
DA:334,1
DA:335,1
DA:336,1
DA:337,1
DA:338,1
DA:343,5
DA:344,18
DA:345,18
DA:346,3
DA:347,3
DA:348,2
DA:349,1
DA:350,15
DA:352,3
DA:353,5
DA:369,2
DA:370,2
DA:371,1
DA:374,1
DA:376,1
DA:377,0
DA:387,1
DA:390,0
DA:391,2
DA:397,0
DA:398,0
DA:399,0
DA:400,0
DA:401,0
DA:422,2
DA:423,2
DA:424,2
DA:432,1
DA:433,1
DA:434,1
DA:435,1
DA:436,1
DA:437,1
DA:438,1
DA:439,1
DA:440,1
DA:443,1
DA:444,1
DA:445,1
DA:446,1
DA:447,1
DA:448,1
DA:449,1
DA:450,1
DA:453,1
DA:454,1
DA:455,1
DA:456,1
DA:457,1
DA:459,0
DA:461,1
DA:464,1
DA:465,1
DA:466,1
DA:469,1
DA:470,1
DA:471,1
DA:472,1
DA:473,1
DA:476,1
DA:477,1
DA:478,1
DA:481,1
DA:482,1
DA:483,1
DA:486,1
DA:487,1
DA:488,1
DA:489,1
DA:490,1
DA:491,1
DA:492,1
DA:493,1
DA:494,1
DA:495,1
DA:498,1
DA:499,1
DA:500,1
DA:501,1
DA:502,1
DA:503,1
DA:508,1
DA:509,1
DA:510,1
DA:511,1
DA:512,1
DA:515,1
DA:516,1
DA:517,1
DA:520,1
DA:521,1
DA:522,1
DA:523,1
DA:524,1
DA:525,1
DA:526,1
DA:527,1
DA:528,1
DA:529,1
DA:531,0
DA:535,1
DA:536,1
DA:537,1
DA:538,1
DA:539,1
DA:542,1
DA:547,4
DA:548,4
DA:549,4
DA:550,4
DA:551,4
DA:552,0
DA:554,4
DA:555,4
DA:556,0
DA:560,0
DA:564,1
DA:567,1
DA:568,1
DA:569,1
DA:570,1
DA:571,1
DA:572,1
DA:573,1
DA:574,1
DA:575,1
DA:576,1
DA:577,1
DA:578,1
DA:579,1
DA:580,1
DA:581,1
DA:582,1
DA:583,1
DA:584,1
DA:587,1
DA:588,1
DA:589,1
DA:590,1
DA:591,1
DA:592,1
DA:593,1
BRF:0
BRH:0
LF:251
LH:231
end_of_record
SF:/home/ubuntu/Code/ExpressGateway/crates/lb-l4-xdp/src/sim.rs
FN:143,_RNCNvMNtCsliGSWXv581y_9lb_l4_xdp3simNtB4_11ConntrackV66decide0B6_
FN:187,_RNCNvMs_NtCsliGSWXv581y_9lb_l4_xdp3simNtB6_7AclTrie13longest_match0B8_
FN:143,_RNCNvMNtCs1TpOoA2oLim_9lb_l4_xdp3simNtB4_11ConntrackV66decide0B6_
FN:187,_RNCNvMs_NtCs1TpOoA2oLim_9lb_l4_xdp3simNtB6_7AclTrie13longest_match0B8_
FN:123,_RNvMNtCs1TpOoA2oLim_9lb_l4_xdp3simNtB2_11ConntrackV63new
FN:140,_RNvMNtCs1TpOoA2oLim_9lb_l4_xdp3simNtB2_11ConntrackV66decide
FN:130,_RNvMNtCs1TpOoA2oLim_9lb_l4_xdp3simNtB2_11ConntrackV66insert
FN:183,_RNvMs_NtCs1TpOoA2oLim_9lb_l4_xdp3simNtB4_7AclTrie13longest_match
FN:162,_RNvMs_NtCs1TpOoA2oLim_9lb_l4_xdp3simNtB4_7AclTrie3new
FN:170,_RNvMs_NtCs1TpOoA2oLim_9lb_l4_xdp3simNtB4_7AclTrie4deny
FN:200,_RNvMs_NtCs1TpOoA2oLim_9lb_l4_xdp3simNtB4_7AclTrie6denies
FN:46,_RNvNtCs1TpOoA2oLim_9lb_l4_xdp3sim10strip_vlan
FN:226,_RNvNtCs1TpOoA2oLim_9lb_l4_xdp3sim13csum16_updateB3_
FN:235,_RNvNtCs1TpOoA2oLim_9lb_l4_xdp3sim13full_checksum
FN:217,_RNvNtCs1TpOoA2oLim_9lb_l4_xdp3sim6fold32B3_
FN:324,_RNvNtNtCs1TpOoA2oLim_9lb_l4_xdp3sim5testss_27lpm_trie_acl_matches_prefix
FN:409,_RNvNtNtCs1TpOoA2oLim_9lb_l4_xdp3sim5testss_31rfc_1624_incremental_reversible
FN:292,_RNvNtNtCs1TpOoA2oLim_9lb_l4_xdp3sim5testss_33truncated_vlan_frame_returns_none
FN:261,_RNvNtNtCs1TpOoA2oLim_9lb_l4_xdp3sim5testss_35vlan_tag_stripped_before_ipv4_parse
FN:279,_RNvNtNtCs1TpOoA2oLim_9lb_l4_xdp3sim5testss_36untagged_frame_has_14_byte_l3_offset
FN:303,_RNvNtNtCs1TpOoA2oLim_9lb_l4_xdp3sim5testss_38ipv6_conntrack_hit_triggers_xdp_tx_sim
FN:341,_RNvNtNtCs1TpOoA2oLim_9lb_l4_xdp3sim5testss_39lpm_trie_zero_prefix_matches_everything
FN:356,_RNvNtNtCs1TpOoA2oLim_9lb_l4_xdp3sim5testss_47rfc_1624_incremental_checksum_matches_recompute
FN:358,_RNvNvNtNtCs1TpOoA2oLim_9lb_l4_xdp3sim5testss_47rfc_1624_incremental_checksum_matches_recompute8xorshift
FNDA:0,_RNCNvMNtCsliGSWXv581y_9lb_l4_xdp3simNtB4_11ConntrackV66decide0B6_
FNDA:0,_RNCNvMs_NtCsliGSWXv581y_9lb_l4_xdp3simNtB6_7AclTrie13longest_match0B8_
FNDA:1,_RNCNvMNtCs1TpOoA2oLim_9lb_l4_xdp3simNtB4_11ConntrackV66decide0B6_
FNDA:14,_RNCNvMs_NtCs1TpOoA2oLim_9lb_l4_xdp3simNtB6_7AclTrie13longest_match0B8_
FNDA:1,_RNvMNtCs1TpOoA2oLim_9lb_l4_xdp3simNtB2_11ConntrackV63new
FNDA:2,_RNvMNtCs1TpOoA2oLim_9lb_l4_xdp3simNtB2_11ConntrackV66decide
FNDA:1,_RNvMNtCs1TpOoA2oLim_9lb_l4_xdp3simNtB2_11ConntrackV66insert
FNDA:7,_RNvMs_NtCs1TpOoA2oLim_9lb_l4_xdp3simNtB4_7AclTrie13longest_match
FNDA:2,_RNvMs_NtCs1TpOoA2oLim_9lb_l4_xdp3simNtB4_7AclTrie3new
FNDA:4,_RNvMs_NtCs1TpOoA2oLim_9lb_l4_xdp3simNtB4_7AclTrie4deny
FNDA:4,_RNvMs_NtCs1TpOoA2oLim_9lb_l4_xdp3simNtB4_7AclTrie6denies
FNDA:3,_RNvNtCs1TpOoA2oLim_9lb_l4_xdp3sim10strip_vlan
FNDA:10002,_RNvNtCs1TpOoA2oLim_9lb_l4_xdp3sim13csum16_updateB3_
FNDA:20000,_RNvNtCs1TpOoA2oLim_9lb_l4_xdp3sim13full_checksum
FNDA:30002,_RNvNtCs1TpOoA2oLim_9lb_l4_xdp3sim6fold32B3_
FNDA:1,_RNvNtNtCs1TpOoA2oLim_9lb_l4_xdp3sim5testss_27lpm_trie_acl_matches_prefix
FNDA:1,_RNvNtNtCs1TpOoA2oLim_9lb_l4_xdp3sim5testss_31rfc_1624_incremental_reversible
FNDA:1,_RNvNtNtCs1TpOoA2oLim_9lb_l4_xdp3sim5testss_33truncated_vlan_frame_returns_none
FNDA:1,_RNvNtNtCs1TpOoA2oLim_9lb_l4_xdp3sim5testss_35vlan_tag_stripped_before_ipv4_parse
FNDA:1,_RNvNtNtCs1TpOoA2oLim_9lb_l4_xdp3sim5testss_36untagged_frame_has_14_byte_l3_offset
FNDA:1,_RNvNtNtCs1TpOoA2oLim_9lb_l4_xdp3sim5testss_38ipv6_conntrack_hit_triggers_xdp_tx_sim
FNDA:1,_RNvNtNtCs1TpOoA2oLim_9lb_l4_xdp3sim5testss_39lpm_trie_zero_prefix_matches_everything
FNDA:1,_RNvNtNtCs1TpOoA2oLim_9lb_l4_xdp3sim5testss_47rfc_1624_incremental_checksum_matches_recompute
FNDA:420000,_RNvNvNtNtCs1TpOoA2oLim_9lb_l4_xdp3sim5testss_47rfc_1624_incremental_checksum_matches_recompute8xorshift
FNF:22
FNH:22
DA:46,3
DA:47,3
DA:48,0
DA:49,3
DA:50,3
DA:51,3
DA:52,3
DA:54,3
DA:55,2
DA:56,1
DA:57,1
DA:58,1
DA:59,1
DA:60,1
DA:61,1
DA:62,1
DA:63,1
DA:64,1
DA:65,1
DA:66,1
DA:68,1
DA:69,1
DA:70,1
DA:71,1
DA:72,1
DA:73,1
DA:74,1
DA:76,3
DA:123,1
DA:124,1
DA:125,1
DA:126,1
DA:127,1
DA:130,1
DA:131,1
DA:132,1
DA:133,1
DA:134,1
DA:135,1
DA:140,2
DA:141,2
DA:142,2
DA:143,2
DA:144,2
DA:162,2
DA:163,2
DA:164,2
DA:165,2
DA:166,2
DA:170,4
DA:171,4
DA:172,1
DA:174,3
DA:176,4
DA:177,4
DA:178,4
DA:183,7
DA:184,7
DA:185,7
DA:186,7
DA:187,14
DA:188,14
DA:189,2
DA:191,12
DA:193,14
DA:194,14
DA:195,7
DA:196,7
DA:200,4
DA:201,4
DA:202,4
DA:217,30002
DA:218,30002
DA:219,30002
DA:220,30002
DA:221,30002
DA:226,10002
DA:227,10002
DA:228,10002
DA:229,10002
DA:235,20000
DA:236,20000
DA:237,20000
DA:238,420000
DA:239,400000
DA:240,0
DA:242,400000
DA:244,20000
DA:245,0
DA:246,20000
DA:247,20000
DA:248,20000
DA:261,1
DA:262,1
DA:263,1
DA:264,1
DA:265,1
DA:266,1
DA:267,1
DA:268,1
DA:269,1
DA:270,1
DA:271,1
DA:272,1
DA:273,1
DA:274,1
DA:275,1
DA:279,1
DA:280,1
DA:281,1
DA:282,1
DA:283,1
DA:284,1
DA:285,1
DA:286,1
DA:287,1
DA:292,1
DA:293,1
DA:294,1
DA:295,1
DA:296,1
DA:297,1
DA:298,1
DA:303,1
DA:304,1
DA:305,1
DA:306,1
DA:307,1
DA:308,1
DA:309,1
DA:310,1
DA:311,1
DA:312,1
DA:313,1
DA:315,1
DA:316,1
DA:317,1
DA:318,1
DA:319,1
DA:320,1
DA:324,1
DA:325,1
DA:326,1
DA:327,1
DA:328,1
DA:329,1
DA:330,1
DA:331,1
DA:334,1
DA:335,1
DA:336,1
DA:337,1
DA:341,1
DA:342,1
DA:343,1
DA:344,1
DA:345,1
DA:346,1
DA:356,1
DA:358,420000
DA:359,420000
DA:360,420000
DA:361,420000
DA:362,420000
DA:363,420000
DA:365,1
DA:366,1
DA:367,1
DA:368,1
DA:369,1
DA:370,1
DA:372,5
DA:373,4
DA:374,10004
DA:375,10000
DA:376,410000
DA:377,400000
DA:378,400000
DA:379,10000
DA:380,10000
DA:381,10000
DA:382,10000
DA:383,10000
DA:384,10000
DA:385,10000
DA:386,10000
DA:387,10000
DA:388,10000
DA:389,10000
DA:390,10000
DA:391,10000
DA:392,10000
DA:393,10000
DA:394,10000
DA:395,10000
DA:397,0
DA:398,0
DA:399,0
DA:400,0
DA:404,1
DA:409,1
DA:410,1
DA:411,1
DA:412,1
DA:413,1
DA:414,1
DA:415,1
DA:416,1
BRF:0
BRH:0
LF:211
LH:204
end_of_record
SF:/home/ubuntu/Code/ExpressGateway/crates/lb-l4-xdp/src/stats_export.rs
FN:352,_RNCNvNtCsliGSWXv581y_9lb_l4_xdp12stats_export10read_stats0B5_
FN:160,_RNCNvNtCsliGSWXv581y_9lb_l4_xdp12stats_export17record_pin_reused0B5_
FN:177,_RNCNvNtCsliGSWXv581y_9lb_l4_xdp12stats_export19pin_reused_snapshot0B5_
FN:323,_RNCNvNtCsliGSWXv581y_9lb_l4_xdp12stats_export20install_stats_handle0B5_
FN:326,_RNCNvNtCsliGSWXv581y_9lb_l4_xdp12stats_export20install_stats_handles_0B5_
FN:67,_RNvMNtCsliGSWXv581y_9lb_l4_xdp12stats_exportNtB2_15AttachModeLabel6as_str
FN:47,_RNvMNtCsliGSWXv581y_9lb_l4_xdp12stats_exportNtB2_15AttachModeLabel7as_byte
FN:55,_RNvMNtCsliGSWXv581y_9lb_l4_xdp12stats_exportNtB2_15AttachModeLabel9from_byte
FN:344,_RNvNtCsliGSWXv581y_9lb_l4_xdp12stats_export10read_stats
FN:159,_RNvNtCsliGSWXv581y_9lb_l4_xdp12stats_export17record_pin_reused
FN:90,_RNvNtCsliGSWXv581y_9lb_l4_xdp12stats_export18record_attach_mode
FN:98,_RNvNtCsliGSWXv581y_9lb_l4_xdp12stats_export19current_attach_mode
FN:172,_RNvNtCsliGSWXv581y_9lb_l4_xdp12stats_export19pin_reused_snapshot
FN:321,_RNvNtCsliGSWXv581y_9lb_l4_xdp12stats_export20install_stats_handle
FN:125,_RNvNtCsliGSWXv581y_9lb_l4_xdp12stats_export25attach_probe_failed_count
FN:118,_RNvNtCsliGSWXv581y_9lb_l4_xdp12stats_export26record_attach_probe_failed
FN:146,_RNvNtCsliGSWXv581y_9lb_l4_xdp12stats_export9pin_names
FN:352,_RNCNvNtCs1TpOoA2oLim_9lb_l4_xdp12stats_export10read_stats0B5_
FN:323,_RNCNvNtCs1TpOoA2oLim_9lb_l4_xdp12stats_export20install_stats_handle0B5_
FN:326,_RNCNvNtCs1TpOoA2oLim_9lb_l4_xdp12stats_export20install_stats_handles_0B5_
FN:344,_RNvNtCs1TpOoA2oLim_9lb_l4_xdp12stats_export10read_stats
FN:321,_RNvNtCs1TpOoA2oLim_9lb_l4_xdp12stats_export20install_stats_handle
FN:67,_RNvMNtCs1TpOoA2oLim_9lb_l4_xdp12stats_exportNtB2_15AttachModeLabel6as_str
FN:47,_RNvMNtCs1TpOoA2oLim_9lb_l4_xdp12stats_exportNtB2_15AttachModeLabel7as_byte
FN:55,_RNvMNtCs1TpOoA2oLim_9lb_l4_xdp12stats_exportNtB2_15AttachModeLabel9from_byte
FN:159,_RNvNtCs1TpOoA2oLim_9lb_l4_xdp12stats_export17record_pin_reused
FN:90,_RNvNtCs1TpOoA2oLim_9lb_l4_xdp12stats_export18record_attach_mode
FN:98,_RNvNtCs1TpOoA2oLim_9lb_l4_xdp12stats_export19current_attach_mode
FN:172,_RNvNtCs1TpOoA2oLim_9lb_l4_xdp12stats_export19pin_reused_snapshot
FN:125,_RNvNtCs1TpOoA2oLim_9lb_l4_xdp12stats_export25attach_probe_failed_count
FN:118,_RNvNtCs1TpOoA2oLim_9lb_l4_xdp12stats_export26record_attach_probe_failed
FN:146,_RNvNtCs1TpOoA2oLim_9lb_l4_xdp12stats_export9pin_names
FN:160,_RNCNvNtCs1TpOoA2oLim_9lb_l4_xdp12stats_export17record_pin_reused0B5_
FN:177,_RNCNvNtCs1TpOoA2oLim_9lb_l4_xdp12stats_export19pin_reused_snapshot0B5_
FN:379,_RNvNtNtCs1TpOoA2oLim_9lb_l4_xdp12stats_export5testss_18unset_returns_none
FN:386,_RNvNtNtCs1TpOoA2oLim_9lb_l4_xdp12stats_export5testss_20round_trip_all_modes
FN:463,_RNvNtNtCs1TpOoA2oLim_9lb_l4_xdp12stats_export5testss_22num_slots_matches_enum
FN:405,_RNvNtNtCs1TpOoA2oLim_9lb_l4_xdp12stats_export5testss_28pin_reuse_records_round_trip
FN:398,_RNvNtNtCs1TpOoA2oLim_9lb_l4_xdp12stats_export5testss_32label_strings_match_kernel_vocab
FN:420,_RNvNtNtCs1TpOoA2oLim_9lb_l4_xdp12stats_export5testss_32pin_reuse_unknown_name_is_silent
FN:428,_RNvNtNtCs1TpOoA2oLim_9lb_l4_xdp12stats_export5testss_33stat_slot_indices_are_wire_stable
FN:455,_RNvNtNtCs1TpOoA2oLim_9lb_l4_xdp12stats_export5testss_38attach_probe_failed_counter_round_trip
FN:411,_RNCNvNtNtCs1TpOoA2oLim_9lb_l4_xdp12stats_export5testss_28pin_reuse_records_round_trip0B7_
FN:413,_RNCNvNtNtCs1TpOoA2oLim_9lb_l4_xdp12stats_export5testss_28pin_reuse_records_round_trips0_0B7_
FN:414,_RNCNvNtNtCs1TpOoA2oLim_9lb_l4_xdp12stats_export5testss_28pin_reuse_records_round_trips1_0B7_
FN:415,_RNCNvNtNtCs1TpOoA2oLim_9lb_l4_xdp12stats_export5testss_28pin_reuse_records_round_trips2_0B7_
FN:416,_RNCNvNtNtCs1TpOoA2oLim_9lb_l4_xdp12stats_export5testss_28pin_reuse_records_round_trips3_0B7_
FN:412,_RNCNvNtNtCs1TpOoA2oLim_9lb_l4_xdp12stats_export5testss_28pin_reuse_records_round_trips_0B7_
FNDA:0,_RNCNvNtCsliGSWXv581y_9lb_l4_xdp12stats_export10read_stats0B5_
FNDA:0,_RNCNvNtCsliGSWXv581y_9lb_l4_xdp12stats_export17record_pin_reused0B5_
FNDA:0,_RNCNvNtCsliGSWXv581y_9lb_l4_xdp12stats_export19pin_reused_snapshot0B5_
FNDA:0,_RNCNvNtCsliGSWXv581y_9lb_l4_xdp12stats_export20install_stats_handle0B5_
FNDA:0,_RNCNvNtCsliGSWXv581y_9lb_l4_xdp12stats_export20install_stats_handles_0B5_
FNDA:0,_RNvMNtCsliGSWXv581y_9lb_l4_xdp12stats_exportNtB2_15AttachModeLabel6as_str
FNDA:3,_RNvMNtCsliGSWXv581y_9lb_l4_xdp12stats_exportNtB2_15AttachModeLabel7as_byte
FNDA:3,_RNvMNtCsliGSWXv581y_9lb_l4_xdp12stats_exportNtB2_15AttachModeLabel9from_byte
FNDA:1,_RNvNtCsliGSWXv581y_9lb_l4_xdp12stats_export10read_stats
FNDA:0,_RNvNtCsliGSWXv581y_9lb_l4_xdp12stats_export17record_pin_reused
FNDA:3,_RNvNtCsliGSWXv581y_9lb_l4_xdp12stats_export18record_attach_mode
FNDA:3,_RNvNtCsliGSWXv581y_9lb_l4_xdp12stats_export19current_attach_mode
FNDA:0,_RNvNtCsliGSWXv581y_9lb_l4_xdp12stats_export19pin_reused_snapshot
FNDA:0,_RNvNtCsliGSWXv581y_9lb_l4_xdp12stats_export20install_stats_handle
FNDA:2,_RNvNtCsliGSWXv581y_9lb_l4_xdp12stats_export25attach_probe_failed_count
FNDA:1,_RNvNtCsliGSWXv581y_9lb_l4_xdp12stats_export26record_attach_probe_failed
FNDA:0,_RNvNtCsliGSWXv581y_9lb_l4_xdp12stats_export9pin_names
FNDA:0,_RNCNvNtCs1TpOoA2oLim_9lb_l4_xdp12stats_export10read_stats0B5_
FNDA:0,_RNCNvNtCs1TpOoA2oLim_9lb_l4_xdp12stats_export20install_stats_handle0B5_
FNDA:0,_RNCNvNtCs1TpOoA2oLim_9lb_l4_xdp12stats_export20install_stats_handles_0B5_
FNDA:0,_RNvNtCs1TpOoA2oLim_9lb_l4_xdp12stats_export10read_stats
FNDA:0,_RNvNtCs1TpOoA2oLim_9lb_l4_xdp12stats_export20install_stats_handle
FNDA:3,_RNvMNtCs1TpOoA2oLim_9lb_l4_xdp12stats_exportNtB2_15AttachModeLabel6as_str
FNDA:3,_RNvMNtCs1TpOoA2oLim_9lb_l4_xdp12stats_exportNtB2_15AttachModeLabel7as_byte
FNDA:4,_RNvMNtCs1TpOoA2oLim_9lb_l4_xdp12stats_exportNtB2_15AttachModeLabel9from_byte
FNDA:3,_RNvNtCs1TpOoA2oLim_9lb_l4_xdp12stats_export17record_pin_reused
FNDA:3,_RNvNtCs1TpOoA2oLim_9lb_l4_xdp12stats_export18record_attach_mode
FNDA:4,_RNvNtCs1TpOoA2oLim_9lb_l4_xdp12stats_export19current_attach_mode
FNDA:1,_RNvNtCs1TpOoA2oLim_9lb_l4_xdp12stats_export19pin_reused_snapshot
FNDA:2,_RNvNtCs1TpOoA2oLim_9lb_l4_xdp12stats_export25attach_probe_failed_count
FNDA:2,_RNvNtCs1TpOoA2oLim_9lb_l4_xdp12stats_export26record_attach_probe_failed
FNDA:4,_RNvNtCs1TpOoA2oLim_9lb_l4_xdp12stats_export9pin_names
FNDA:11,_RNCNvNtCs1TpOoA2oLim_9lb_l4_xdp12stats_export17record_pin_reused0B5_
FNDA:5,_RNCNvNtCs1TpOoA2oLim_9lb_l4_xdp12stats_export19pin_reused_snapshot0B5_
FNDA:1,_RNvNtNtCs1TpOoA2oLim_9lb_l4_xdp12stats_export5testss_18unset_returns_none
FNDA:1,_RNvNtNtCs1TpOoA2oLim_9lb_l4_xdp12stats_export5testss_20round_trip_all_modes
FNDA:1,_RNvNtNtCs1TpOoA2oLim_9lb_l4_xdp12stats_export5testss_22num_slots_matches_enum
FNDA:1,_RNvNtNtCs1TpOoA2oLim_9lb_l4_xdp12stats_export5testss_28pin_reuse_records_round_trip
FNDA:1,_RNvNtNtCs1TpOoA2oLim_9lb_l4_xdp12stats_export5testss_32label_strings_match_kernel_vocab
FNDA:1,_RNvNtNtCs1TpOoA2oLim_9lb_l4_xdp12stats_export5testss_32pin_reuse_unknown_name_is_silent
FNDA:1,_RNvNtNtCs1TpOoA2oLim_9lb_l4_xdp12stats_export5testss_33stat_slot_indices_are_wire_stable
FNDA:1,_RNvNtNtCs1TpOoA2oLim_9lb_l4_xdp12stats_export5testss_38attach_probe_failed_counter_round_trip
FNDA:1,_RNCNvNtNtCs1TpOoA2oLim_9lb_l4_xdp12stats_export5testss_28pin_reuse_records_round_trip0B7_
FNDA:2,_RNCNvNtNtCs1TpOoA2oLim_9lb_l4_xdp12stats_export5testss_28pin_reuse_records_round_trips0_0B7_
FNDA:1,_RNCNvNtNtCs1TpOoA2oLim_9lb_l4_xdp12stats_export5testss_28pin_reuse_records_round_trips1_0B7_
FNDA:1,_RNCNvNtNtCs1TpOoA2oLim_9lb_l4_xdp12stats_export5testss_28pin_reuse_records_round_trips2_0B7_
FNDA:1,_RNCNvNtNtCs1TpOoA2oLim_9lb_l4_xdp12stats_export5testss_28pin_reuse_records_round_trips3_0B7_
FNDA:5,_RNCNvNtNtCs1TpOoA2oLim_9lb_l4_xdp12stats_export5testss_28pin_reuse_records_round_trips_0B7_
FNF:31
FNH:27
DA:47,6
DA:48,6
DA:49,2
DA:50,2
DA:51,2
DA:53,6
DA:55,7
DA:56,7
DA:57,2
DA:58,2
DA:59,2
DA:60,1
DA:62,7
DA:67,3
DA:68,3
DA:69,1
DA:70,1
DA:71,1
DA:73,3
DA:90,6
DA:91,6
DA:92,6
DA:98,7
DA:99,7
DA:100,7
DA:118,3
DA:119,3
DA:120,3
DA:125,4
DA:126,4
DA:127,4
DA:146,4
DA:147,4
DA:148,4
DA:149,4
DA:150,4
DA:151,4
DA:152,4
DA:153,4
DA:154,4
DA:159,3
DA:160,11
DA:161,2
DA:162,2
DA:163,2
DA:164,2
DA:165,0
DA:166,0
DA:167,1
DA:168,3
DA:172,1
DA:173,1
DA:174,1
DA:175,1
DA:176,1
DA:177,5
DA:178,1
DA:179,1
DA:321,0
DA:322,0
DA:323,0
DA:324,0
DA:325,0
DA:326,0
DA:327,0
DA:328,0
DA:344,1
DA:345,1
DA:346,0
DA:347,0
DA:348,0
DA:349,0
DA:350,0
DA:351,0
DA:352,0
DA:354,0
DA:355,0
DA:356,0
DA:357,0
DA:359,0
DA:360,1
DA:379,1
DA:380,1
DA:381,1
DA:382,1
DA:383,1
DA:386,1
DA:387,4
DA:388,4
DA:389,4
DA:390,4
DA:391,4
DA:392,3
DA:393,3
DA:395,1
DA:398,1
DA:399,1
DA:400,1
DA:401,1
DA:402,1
DA:405,1
DA:406,1
DA:407,1
DA:408,1
DA:409,1
DA:410,1
DA:411,1
DA:412,5
DA:413,2
DA:414,1
DA:415,1
DA:416,1
DA:417,1
DA:420,1
DA:421,1
DA:422,1
DA:423,1
DA:424,1
DA:425,1
DA:428,1
DA:429,1
DA:430,1
DA:431,1
DA:432,1
DA:433,1
DA:434,1
DA:435,1
DA:436,1
DA:437,1
DA:438,1
DA:439,1
DA:440,1
DA:441,1
DA:442,1
DA:443,1
DA:444,1
DA:445,1
DA:446,1
DA:447,1
DA:451,1
DA:452,1
DA:455,1
DA:456,1
DA:457,1
DA:458,1
DA:459,1
DA:460,1
DA:463,1
DA:464,1
DA:465,1
DA:466,1
DA:467,1
DA:468,1
BRF:0
BRH:0
LF:164
LH:139
end_of_record
SF:/home/ubuntu/Code/ExpressGateway/crates/lb-l7/src/authority.rs
FN:66,_RINvNtCs6ZJAmc5l35e_5lb_l79authority16validate_requestNtNtNtCsgB3dp6qvXvn_5hyper4body8incoming8IncomingEB4_
FN:71,_RNCINvNtCs6ZJAmc5l35e_5lb_l79authority16validate_requestNtNtNtCsgB3dp6qvXvn_5hyper4body8incoming8IncomingE0B6_
FN:75,_RNCINvNtCs6ZJAmc5l35e_5lb_l79authority16validate_requestNtNtNtCsgB3dp6qvXvn_5hyper4body8incoming8IncomingEs_0B6_
FN:95,_RNvNtNtCsddhi0hNOal7_5lb_l79authority5testss_29predicate_reexport_is_lb_core
FN:119,_RNvNtNtCsddhi0hNOal7_5lb_l79authority5testss_29request_host_header_validated
FN:143,_RNvNtNtCsddhi0hNOal7_5lb_l79authority5testss_30request_valid_authority_passes
FN:104,_RNvNtNtCsddhi0hNOal7_5lb_l79authority5testss_31request_uri_authority_validated
FN:135,_RNvNtNtCsddhi0hNOal7_5lb_l79authority5testss_42request_absent_and_empty_authority_skipped
FN:66,_RINvNtCsddhi0hNOal7_5lb_l79authority16validate_requestNtNtNtCsgB3dp6qvXvn_5hyper4body8incoming8IncomingEB4_
FN:66,_RINvNtCsddhi0hNOal7_5lb_l79authority16validate_requestuEB4_
FN:71,_RNCINvNtCsddhi0hNOal7_5lb_l79authority16validate_requestNtNtNtCsgB3dp6qvXvn_5hyper4body8incoming8IncomingE0B6_
FN:75,_RNCINvNtCsddhi0hNOal7_5lb_l79authority16validate_requestNtNtNtCsgB3dp6qvXvn_5hyper4body8incoming8IncomingEs_0B6_
FN:71,_RNCINvNtCsddhi0hNOal7_5lb_l79authority16validate_requestuE0B6_
FN:75,_RNCINvNtCsddhi0hNOal7_5lb_l79authority16validate_requestuEs_0B6_
FNDA:1152,_RINvNtCs6ZJAmc5l35e_5lb_l79authority16validate_requestNtNtNtCsgB3dp6qvXvn_5hyper4body8incoming8IncomingEB4_
FNDA:340,_RNCINvNtCs6ZJAmc5l35e_5lb_l79authority16validate_requestNtNtNtCsgB3dp6qvXvn_5hyper4body8incoming8IncomingE0B6_
FNDA:1140,_RNCINvNtCs6ZJAmc5l35e_5lb_l79authority16validate_requestNtNtNtCsgB3dp6qvXvn_5hyper4body8incoming8IncomingEs_0B6_
FNDA:1,_RNvNtNtCsddhi0hNOal7_5lb_l79authority5testss_29predicate_reexport_is_lb_core
FNDA:1,_RNvNtNtCsddhi0hNOal7_5lb_l79authority5testss_29request_host_header_validated
FNDA:1,_RNvNtNtCsddhi0hNOal7_5lb_l79authority5testss_30request_valid_authority_passes
FNDA:1,_RNvNtNtCsddhi0hNOal7_5lb_l79authority5testss_31request_uri_authority_validated
FNDA:1,_RNvNtNtCsddhi0hNOal7_5lb_l79authority5testss_42request_absent_and_empty_authority_skipped
FNDA:0,_RINvNtCsddhi0hNOal7_5lb_l79authority16validate_requestNtNtNtCsgB3dp6qvXvn_5hyper4body8incoming8IncomingEB4_
FNDA:4,_RINvNtCsddhi0hNOal7_5lb_l79authority16validate_requestuEB4_
FNDA:0,_RNCINvNtCsddhi0hNOal7_5lb_l79authority16validate_requestNtNtNtCsgB3dp6qvXvn_5hyper4body8incoming8IncomingE0B6_
FNDA:0,_RNCINvNtCsddhi0hNOal7_5lb_l79authority16validate_requestNtNtNtCsgB3dp6qvXvn_5hyper4body8incoming8IncomingEs_0B6_
FNDA:1,_RNCINvNtCsddhi0hNOal7_5lb_l79authority16validate_requestuE0B6_
FNDA:3,_RNCINvNtCsddhi0hNOal7_5lb_l79authority16validate_requestuEs_0B6_
FNF:8
FNH:8
DA:66,1156
DA:67,1156
DA:68,1156
DA:69,1156
DA:70,1156
DA:71,1156
DA:72,1156
DA:73,1156
DA:74,1156
DA:75,1156
DA:77,1143
DA:78,11
DA:79,1132
DA:81,1145
DA:82,1156
DA:95,1
DA:96,1
DA:97,1
DA:98,1
DA:99,1
DA:100,1
DA:101,1
DA:104,1
DA:105,1
DA:106,1
DA:107,1
DA:108,1
DA:109,1
DA:110,1
DA:111,1
DA:112,1
DA:113,1
DA:114,1
DA:115,1
DA:116,1
DA:119,1
DA:120,1
DA:121,1
DA:122,1
DA:123,1
DA:124,1
DA:125,1
DA:126,1
DA:127,1
DA:128,1
DA:129,1
DA:130,1
DA:131,1
DA:132,1
DA:135,1
DA:136,1
DA:137,1
DA:138,1
DA:139,1
DA:140,1
DA:143,1
DA:144,1
DA:145,1
DA:146,1
DA:147,1
DA:148,1
DA:149,1
BRF:0
BRH:0
LF:64
LH:64
end_of_record
SF:/home/ubuntu/Code/ExpressGateway/crates/lb-l7/src/grpc_proxy.rs
FN:279,_RINvNtCs6ZJAmc5l35e_5lb_l710grpc_proxy15is_grpc_requestNtNtNtCsgB3dp6qvXvn_5hyper4body8incoming8IncomingEB4_
FN:282,_RNCINvNtCs6ZJAmc5l35e_5lb_l710grpc_proxy15is_grpc_requestNtNtNtCsgB3dp6qvXvn_5hyper4body8incoming8IncomingE0B6_
FN:283,_RNCINvNtCs6ZJAmc5l35e_5lb_l710grpc_proxy15is_grpc_requestNtNtNtCsgB3dp6qvXvn_5hyper4body8incoming8IncomingEs_0B6_
FN:292,_RNCNCINvNtCs6ZJAmc5l35e_5lb_l710grpc_proxy15is_grpc_requestNtNtNtCsgB3dp6qvXvn_5hyper4body8incoming8IncomingEs_00B8_
FN:247,_RNCNCNvMs_NtCs6ZJAmc5l35e_5lb_l710grpc_proxyNtB8_9GrpcProxy7forward00Ba_
FN:389,_RNCNCNvNtCs6ZJAmc5l35e_5lb_l710grpc_proxy19handle_health_check00B7_
FN:149,_RNCNvMs_NtCs6ZJAmc5l35e_5lb_l710grpc_proxyNtB6_9GrpcProxy6handle0B8_
FN:170,_RNCNvMs_NtCs6ZJAmc5l35e_5lb_l710grpc_proxyNtB6_9GrpcProxy7forward0B8_
FN:596,_RNCNvNtCs6ZJAmc5l35e_5lb_l710grpc_proxy17finalize_upstream0B5_
FN:576,_RNCNvNtCs6ZJAmc5l35e_5lb_l710grpc_proxy19grpc_error_response0B5_
FN:384,_RNCNvNtCs6ZJAmc5l35e_5lb_l710grpc_proxy19handle_health_check0B5_
FN:307,_RNCNvNtCs6ZJAmc5l35e_5lb_l710grpc_proxy24rewrite_uri_for_upstream0B5_
FN:428,_RNCNvNtCs6ZJAmc5l35e_5lb_l710grpc_proxy29health_check_serving_response0B5_
FN:130,_RNvMs_NtCs6ZJAmc5l35e_5lb_l710grpc_proxyNtB4_9GrpcProxy20max_header_list_size
FN:113,_RNvMs_NtCs6ZJAmc5l35e_5lb_l710grpc_proxyNtB4_9GrpcProxy25with_max_header_list_size
FN:98,_RNvMs_NtCs6ZJAmc5l35e_5lb_l710grpc_proxyNtB4_9GrpcProxy3new
FN:120,_RNvMs_NtCs6ZJAmc5l35e_5lb_l710grpc_proxyNtB4_9GrpcProxy6config
FN:145,_RNvMs_NtCs6ZJAmc5l35e_5lb_l710grpc_proxyNtB4_9GrpcProxy6handle
FN:166,_RNvMs_NtCs6ZJAmc5l35e_5lb_l710grpc_proxyNtB4_9GrpcProxy7forward
FN:530,_RNvNtCs6ZJAmc5l35e_5lb_l710grpc_proxy11read_varint
FN:547,_RNvNtCs6ZJAmc5l35e_5lb_l710grpc_proxy14empty_fallback
FN:586,_RNvNtCs6ZJAmc5l35e_5lb_l710grpc_proxy17finalize_upstream
FN:559,_RNvNtCs6ZJAmc5l35e_5lb_l710grpc_proxy19grpc_error_response
FN:384,_RNvNtCs6ZJAmc5l35e_5lb_l710grpc_proxy19handle_health_check
FN:301,_RNvNtCs6ZJAmc5l35e_5lb_l710grpc_proxy24rewrite_uri_for_upstream
FN:445,_RNvNtCs6ZJAmc5l35e_5lb_l710grpc_proxy27decode_health_check_service
FN:333,_RNvNtCs6ZJAmc5l35e_5lb_l710grpc_proxy28parse_and_clamp_grpc_timeout
FN:404,_RNvNtCs6ZJAmc5l35e_5lb_l710grpc_proxy29health_check_serving_response
FN:64,_RNvXNtCs6ZJAmc5l35e_5lb_l710grpc_proxyNtB2_10GrpcConfigNtNtCs2va5m0jqTTM_4core7default7Default7default
FN:130,_RNvMs_NtCsddhi0hNOal7_5lb_l710grpc_proxyNtB4_9GrpcProxy20max_header_list_size
FN:113,_RNvMs_NtCsddhi0hNOal7_5lb_l710grpc_proxyNtB4_9GrpcProxy25with_max_header_list_size
FN:98,_RNvMs_NtCsddhi0hNOal7_5lb_l710grpc_proxyNtB4_9GrpcProxy3new
FN:64,_RNvXNtCsddhi0hNOal7_5lb_l710grpc_proxyNtB2_10GrpcConfigNtNtCs2va5m0jqTTM_4core7default7Default7default
FN:618,_RNvNtNtCsddhi0hNOal7_5lb_l710grpc_proxy5tests11req_with_ct
FN:774,_RNvNtNtCsddhi0hNOal7_5lb_l710grpc_proxy5tests12write_varint
FN:689,_RNvNtNtCsddhi0hNOal7_5lb_l710grpc_proxy5testss_32grpc_timeout_absent_returns_none
FN:680,_RNvNtNtCsddhi0hNOal7_5lb_l710grpc_proxy5testss_35grpc_timeout_below_max_is_preserved
FN:663,_RNvNtNtCsddhi0hNOal7_5lb_l710grpc_proxy5testss_35grpc_timeout_parse_and_clamp_at_max
FN:783,_RNvNtNtCsddhi0hNOal7_5lb_l710grpc_proxy5testss_38http_non_200_translates_to_grpc_status
FN:656,_RNvNtNtCsddhi0hNOal7_5lb_l710grpc_proxy5testss_39is_grpc_request_rejects_empty_extension
FN:628,_RNvNtNtCsddhi0hNOal7_5lb_l710grpc_proxy5testss_40is_grpc_request_matches_application_grpc
FN:638,_RNvNtNtCsddhi0hNOal7_5lb_l710grpc_proxy5testss_40is_grpc_request_matches_case_insensitive
FN:651,_RNvNtNtCsddhi0hNOal7_5lb_l710grpc_proxy5testss_40is_grpc_request_rejects_application_json
FN:695,_RNvNtNtCsddhi0hNOal7_5lb_l710grpc_proxy5testss_41health_check_serving_response_well_formed
FN:800,_RNvNtNtCsddhi0hNOal7_5lb_l710grpc_proxy5testss_42grpc_error_response_carries_trailer_status
FN:643,_RNvNtNtCsddhi0hNOal7_5lb_l710grpc_proxy5testss_46is_grpc_request_matches_with_charset_parameter
FN:739,_RNvNtNtCsddhi0hNOal7_5lb_l710grpc_proxy5testss_47decode_health_check_service_skips_unknown_field
FN:726,_RNvNtNtCsddhi0hNOal7_5lb_l710grpc_proxy5testss_48decode_health_check_service_decodes_string_field
FN:766,_RNvNtNtCsddhi0hNOal7_5lb_l710grpc_proxy5testss_49parse_and_clamp_grpc_timeout_absent_yields_absent
FN:633,_RNvNtNtCsddhi0hNOal7_5lb_l710grpc_proxy5testss_51is_grpc_request_matches_application_grpc_plus_proto
FN:714,_RNvNtNtCsddhi0hNOal7_5lb_l710grpc_proxy5testss_52decode_health_check_service_empty_body_returns_empty
FN:719,_RNvNtNtCsddhi0hNOal7_5lb_l710grpc_proxy5testss_55decode_health_check_service_empty_message_returns_empty
FN:755,_RNvNtNtCsddhi0hNOal7_5lb_l710grpc_proxy5testss_62parse_and_clamp_grpc_timeout_malformed_yields_invalid_argument
FN:279,_RINvNtCsddhi0hNOal7_5lb_l710grpc_proxy15is_grpc_requestINtNtCsedaG9KDMExI_14http_body_util5empty5EmptyNtNtCs7xJyEqPIUa9_5bytes5bytes5BytesEEB4_
FN:279,_RINvNtCsddhi0hNOal7_5lb_l710grpc_proxy15is_grpc_requestNtNtNtCsgB3dp6qvXvn_5hyper4body8incoming8IncomingEB4_
FN:282,_RNCINvNtCsddhi0hNOal7_5lb_l710grpc_proxy15is_grpc_requestINtNtCsedaG9KDMExI_14http_body_util5empty5EmptyNtNtCs7xJyEqPIUa9_5bytes5bytes5BytesEE0B6_
FN:283,_RNCINvNtCsddhi0hNOal7_5lb_l710grpc_proxy15is_grpc_requestINtNtCsedaG9KDMExI_14http_body_util5empty5EmptyNtNtCs7xJyEqPIUa9_5bytes5bytes5BytesEEs_0B6_
FN:282,_RNCINvNtCsddhi0hNOal7_5lb_l710grpc_proxy15is_grpc_requestNtNtNtCsgB3dp6qvXvn_5hyper4body8incoming8IncomingE0B6_
FN:283,_RNCINvNtCsddhi0hNOal7_5lb_l710grpc_proxy15is_grpc_requestNtNtNtCsgB3dp6qvXvn_5hyper4body8incoming8IncomingEs_0B6_
FN:292,_RNCNCINvNtCsddhi0hNOal7_5lb_l710grpc_proxy15is_grpc_requestINtNtCsedaG9KDMExI_14http_body_util5empty5EmptyNtNtCs7xJyEqPIUa9_5bytes5bytes5BytesEEs_00B8_
FN:292,_RNCNCINvNtCsddhi0hNOal7_5lb_l710grpc_proxy15is_grpc_requestNtNtNtCsgB3dp6qvXvn_5hyper4body8incoming8IncomingEs_00B8_
FN:247,_RNCNCNvMs_NtCsddhi0hNOal7_5lb_l710grpc_proxyNtB8_9GrpcProxy7forward00Ba_
FN:389,_RNCNCNvNtCsddhi0hNOal7_5lb_l710grpc_proxy19handle_health_check00B7_
FN:149,_RNCNvMs_NtCsddhi0hNOal7_5lb_l710grpc_proxyNtB6_9GrpcProxy6handle0B8_
FN:170,_RNCNvMs_NtCsddhi0hNOal7_5lb_l710grpc_proxyNtB6_9GrpcProxy7forward0B8_
FN:596,_RNCNvNtCsddhi0hNOal7_5lb_l710grpc_proxy17finalize_upstream0B5_
FN:576,_RNCNvNtCsddhi0hNOal7_5lb_l710grpc_proxy19grpc_error_response0B5_
FN:384,_RNCNvNtCsddhi0hNOal7_5lb_l710grpc_proxy19handle_health_check0B5_
FN:307,_RNCNvNtCsddhi0hNOal7_5lb_l710grpc_proxy24rewrite_uri_for_upstream0B5_
FN:428,_RNCNvNtCsddhi0hNOal7_5lb_l710grpc_proxy29health_check_serving_response0B5_
FN:695,_RNCNvNtNtCsddhi0hNOal7_5lb_l710grpc_proxy5testss_41health_check_serving_response_well_formed0B7_
FN:800,_RNCNvNtNtCsddhi0hNOal7_5lb_l710grpc_proxy5testss_42grpc_error_response_carries_trailer_status0B7_
FN:120,_RNvMs_NtCsddhi0hNOal7_5lb_l710grpc_proxyNtB4_9GrpcProxy6config
FN:145,_RNvMs_NtCsddhi0hNOal7_5lb_l710grpc_proxyNtB4_9GrpcProxy6handle
FN:166,_RNvMs_NtCsddhi0hNOal7_5lb_l710grpc_proxyNtB4_9GrpcProxy7forward
FN:530,_RNvNtCsddhi0hNOal7_5lb_l710grpc_proxy11read_varint
FN:547,_RNvNtCsddhi0hNOal7_5lb_l710grpc_proxy14empty_fallback
FN:586,_RNvNtCsddhi0hNOal7_5lb_l710grpc_proxy17finalize_upstream
FN:362,_RNvNtCsddhi0hNOal7_5lb_l710grpc_proxy18clamp_grpc_timeout
FN:559,_RNvNtCsddhi0hNOal7_5lb_l710grpc_proxy19grpc_error_response
FN:384,_RNvNtCsddhi0hNOal7_5lb_l710grpc_proxy19handle_health_check
FN:301,_RNvNtCsddhi0hNOal7_5lb_l710grpc_proxy24rewrite_uri_for_upstream
FN:445,_RNvNtCsddhi0hNOal7_5lb_l710grpc_proxy27decode_health_check_service
FN:333,_RNvNtCsddhi0hNOal7_5lb_l710grpc_proxy28parse_and_clamp_grpc_timeout
FN:404,_RNvNtCsddhi0hNOal7_5lb_l710grpc_proxy29health_check_serving_response
FNDA:12,_RINvNtCs6ZJAmc5l35e_5lb_l710grpc_proxy15is_grpc_requestNtNtNtCsgB3dp6qvXvn_5hyper4body8incoming8IncomingEB4_
FNDA:12,_RNCINvNtCs6ZJAmc5l35e_5lb_l710grpc_proxy15is_grpc_requestNtNtNtCsgB3dp6qvXvn_5hyper4body8incoming8IncomingE0B6_
FNDA:12,_RNCINvNtCs6ZJAmc5l35e_5lb_l710grpc_proxy15is_grpc_requestNtNtNtCsgB3dp6qvXvn_5hyper4body8incoming8IncomingEs_0B6_
FNDA:60,_RNCNCINvNtCs6ZJAmc5l35e_5lb_l710grpc_proxy15is_grpc_requestNtNtNtCsgB3dp6qvXvn_5hyper4body8incoming8IncomingEs_00B8_
FNDA:8,_RNCNCNvMs_NtCs6ZJAmc5l35e_5lb_l710grpc_proxyNtB8_9GrpcProxy7forward00Ba_
FNDA:0,_RNCNCNvNtCs6ZJAmc5l35e_5lb_l710grpc_proxy19handle_health_check00B7_
FNDA:12,_RNCNvMs_NtCs6ZJAmc5l35e_5lb_l710grpc_proxyNtB6_9GrpcProxy6handle0B8_
FNDA:9,_RNCNvMs_NtCs6ZJAmc5l35e_5lb_l710grpc_proxyNtB6_9GrpcProxy7forward0B8_
FNDA:0,_RNCNvNtCs6ZJAmc5l35e_5lb_l710grpc_proxy17finalize_upstream0B5_
FNDA:0,_RNCNvNtCs6ZJAmc5l35e_5lb_l710grpc_proxy19grpc_error_response0B5_
FNDA:3,_RNCNvNtCs6ZJAmc5l35e_5lb_l710grpc_proxy19handle_health_check0B5_
FNDA:0,_RNCNvNtCs6ZJAmc5l35e_5lb_l710grpc_proxy24rewrite_uri_for_upstream0B5_
FNDA:0,_RNCNvNtCs6ZJAmc5l35e_5lb_l710grpc_proxy29health_check_serving_response0B5_
FNDA:0,_RNvMs_NtCs6ZJAmc5l35e_5lb_l710grpc_proxyNtB4_9GrpcProxy20max_header_list_size
FNDA:13,_RNvMs_NtCs6ZJAmc5l35e_5lb_l710grpc_proxyNtB4_9GrpcProxy25with_max_header_list_size
FNDA:13,_RNvMs_NtCs6ZJAmc5l35e_5lb_l710grpc_proxyNtB4_9GrpcProxy3new
FNDA:12,_RNvMs_NtCs6ZJAmc5l35e_5lb_l710grpc_proxyNtB4_9GrpcProxy6config
FNDA:12,_RNvMs_NtCs6ZJAmc5l35e_5lb_l710grpc_proxyNtB4_9GrpcProxy6handle
FNDA:9,_RNvMs_NtCs6ZJAmc5l35e_5lb_l710grpc_proxyNtB4_9GrpcProxy7forward
FNDA:2,_RNvNtCs6ZJAmc5l35e_5lb_l710grpc_proxy11read_varint
FNDA:0,_RNvNtCs6ZJAmc5l35e_5lb_l710grpc_proxy14empty_fallback
FNDA:6,_RNvNtCs6ZJAmc5l35e_5lb_l710grpc_proxy17finalize_upstream
FNDA:5,_RNvNtCs6ZJAmc5l35e_5lb_l710grpc_proxy19grpc_error_response
FNDA:3,_RNvNtCs6ZJAmc5l35e_5lb_l710grpc_proxy19handle_health_check
FNDA:8,_RNvNtCs6ZJAmc5l35e_5lb_l710grpc_proxy24rewrite_uri_for_upstream
FNDA:3,_RNvNtCs6ZJAmc5l35e_5lb_l710grpc_proxy27decode_health_check_service
FNDA:9,_RNvNtCs6ZJAmc5l35e_5lb_l710grpc_proxy28parse_and_clamp_grpc_timeout
FNDA:2,_RNvNtCs6ZJAmc5l35e_5lb_l710grpc_proxy29health_check_serving_response
FNDA:13,_RNvXNtCs6ZJAmc5l35e_5lb_l710grpc_proxyNtB2_10GrpcConfigNtNtCs2va5m0jqTTM_4core7default7Default7default
FNDA:0,_RNvMs_NtCsddhi0hNOal7_5lb_l710grpc_proxyNtB4_9GrpcProxy20max_header_list_size
FNDA:0,_RNvMs_NtCsddhi0hNOal7_5lb_l710grpc_proxyNtB4_9GrpcProxy25with_max_header_list_size
FNDA:0,_RNvMs_NtCsddhi0hNOal7_5lb_l710grpc_proxyNtB4_9GrpcProxy3new
FNDA:0,_RNvXNtCsddhi0hNOal7_5lb_l710grpc_proxyNtB2_10GrpcConfigNtNtCs2va5m0jqTTM_4core7default7Default7default
FNDA:6,_RNvNtNtCsddhi0hNOal7_5lb_l710grpc_proxy5tests11req_with_ct
FNDA:2,_RNvNtNtCsddhi0hNOal7_5lb_l710grpc_proxy5tests12write_varint
FNDA:1,_RNvNtNtCsddhi0hNOal7_5lb_l710grpc_proxy5testss_32grpc_timeout_absent_returns_none
FNDA:1,_RNvNtNtCsddhi0hNOal7_5lb_l710grpc_proxy5testss_35grpc_timeout_below_max_is_preserved
FNDA:1,_RNvNtNtCsddhi0hNOal7_5lb_l710grpc_proxy5testss_35grpc_timeout_parse_and_clamp_at_max
FNDA:1,_RNvNtNtCsddhi0hNOal7_5lb_l710grpc_proxy5testss_38http_non_200_translates_to_grpc_status
FNDA:1,_RNvNtNtCsddhi0hNOal7_5lb_l710grpc_proxy5testss_39is_grpc_request_rejects_empty_extension
FNDA:1,_RNvNtNtCsddhi0hNOal7_5lb_l710grpc_proxy5testss_40is_grpc_request_matches_application_grpc
FNDA:1,_RNvNtNtCsddhi0hNOal7_5lb_l710grpc_proxy5testss_40is_grpc_request_matches_case_insensitive
FNDA:1,_RNvNtNtCsddhi0hNOal7_5lb_l710grpc_proxy5testss_40is_grpc_request_rejects_application_json
FNDA:1,_RNvNtNtCsddhi0hNOal7_5lb_l710grpc_proxy5testss_41health_check_serving_response_well_formed
FNDA:1,_RNvNtNtCsddhi0hNOal7_5lb_l710grpc_proxy5testss_42grpc_error_response_carries_trailer_status
FNDA:1,_RNvNtNtCsddhi0hNOal7_5lb_l710grpc_proxy5testss_46is_grpc_request_matches_with_charset_parameter
FNDA:1,_RNvNtNtCsddhi0hNOal7_5lb_l710grpc_proxy5testss_47decode_health_check_service_skips_unknown_field
FNDA:1,_RNvNtNtCsddhi0hNOal7_5lb_l710grpc_proxy5testss_48decode_health_check_service_decodes_string_field
FNDA:1,_RNvNtNtCsddhi0hNOal7_5lb_l710grpc_proxy5testss_49parse_and_clamp_grpc_timeout_absent_yields_absent
FNDA:1,_RNvNtNtCsddhi0hNOal7_5lb_l710grpc_proxy5testss_51is_grpc_request_matches_application_grpc_plus_proto
FNDA:1,_RNvNtNtCsddhi0hNOal7_5lb_l710grpc_proxy5testss_52decode_health_check_service_empty_body_returns_empty
FNDA:1,_RNvNtNtCsddhi0hNOal7_5lb_l710grpc_proxy5testss_55decode_health_check_service_empty_message_returns_empty
FNDA:1,_RNvNtNtCsddhi0hNOal7_5lb_l710grpc_proxy5testss_62parse_and_clamp_grpc_timeout_malformed_yields_invalid_argument
FNDA:6,_RINvNtCsddhi0hNOal7_5lb_l710grpc_proxy15is_grpc_requestINtNtCsedaG9KDMExI_14http_body_util5empty5EmptyNtNtCs7xJyEqPIUa9_5bytes5bytes5BytesEEB4_
FNDA:0,_RINvNtCsddhi0hNOal7_5lb_l710grpc_proxy15is_grpc_requestNtNtNtCsgB3dp6qvXvn_5hyper4body8incoming8IncomingEB4_
FNDA:6,_RNCINvNtCsddhi0hNOal7_5lb_l710grpc_proxy15is_grpc_requestINtNtCsedaG9KDMExI_14http_body_util5empty5EmptyNtNtCs7xJyEqPIUa9_5bytes5bytes5BytesEE0B6_
FNDA:6,_RNCINvNtCsddhi0hNOal7_5lb_l710grpc_proxy15is_grpc_requestINtNtCsedaG9KDMExI_14http_body_util5empty5EmptyNtNtCs7xJyEqPIUa9_5bytes5bytes5BytesEEs_0B6_
FNDA:0,_RNCINvNtCsddhi0hNOal7_5lb_l710grpc_proxy15is_grpc_requestNtNtNtCsgB3dp6qvXvn_5hyper4body8incoming8IncomingE0B6_
FNDA:0,_RNCINvNtCsddhi0hNOal7_5lb_l710grpc_proxy15is_grpc_requestNtNtNtCsgB3dp6qvXvn_5hyper4body8incoming8IncomingEs_0B6_
FNDA:9,_RNCNCINvNtCsddhi0hNOal7_5lb_l710grpc_proxy15is_grpc_requestINtNtCsedaG9KDMExI_14http_body_util5empty5EmptyNtNtCs7xJyEqPIUa9_5bytes5bytes5BytesEEs_00B8_
FNDA:0,_RNCNCINvNtCsddhi0hNOal7_5lb_l710grpc_proxy15is_grpc_requestNtNtNtCsgB3dp6qvXvn_5hyper4body8incoming8IncomingEs_00B8_
FNDA:0,_RNCNCNvMs_NtCsddhi0hNOal7_5lb_l710grpc_proxyNtB8_9GrpcProxy7forward00Ba_
FNDA:0,_RNCNCNvNtCsddhi0hNOal7_5lb_l710grpc_proxy19handle_health_check00B7_
FNDA:0,_RNCNvMs_NtCsddhi0hNOal7_5lb_l710grpc_proxyNtB6_9GrpcProxy6handle0B8_
FNDA:0,_RNCNvMs_NtCsddhi0hNOal7_5lb_l710grpc_proxyNtB6_9GrpcProxy7forward0B8_
FNDA:0,_RNCNvNtCsddhi0hNOal7_5lb_l710grpc_proxy17finalize_upstream0B5_
FNDA:0,_RNCNvNtCsddhi0hNOal7_5lb_l710grpc_proxy19grpc_error_response0B5_
FNDA:0,_RNCNvNtCsddhi0hNOal7_5lb_l710grpc_proxy19handle_health_check0B5_
FNDA:0,_RNCNvNtCsddhi0hNOal7_5lb_l710grpc_proxy24rewrite_uri_for_upstream0B5_
FNDA:0,_RNCNvNtCsddhi0hNOal7_5lb_l710grpc_proxy29health_check_serving_response0B5_
FNDA:1,_RNCNvNtNtCsddhi0hNOal7_5lb_l710grpc_proxy5testss_41health_check_serving_response_well_formed0B7_
FNDA:1,_RNCNvNtNtCsddhi0hNOal7_5lb_l710grpc_proxy5testss_42grpc_error_response_carries_trailer_status0B7_
FNDA:0,_RNvMs_NtCsddhi0hNOal7_5lb_l710grpc_proxyNtB4_9GrpcProxy6config
FNDA:0,_RNvMs_NtCsddhi0hNOal7_5lb_l710grpc_proxyNtB4_9GrpcProxy6handle
FNDA:0,_RNvMs_NtCsddhi0hNOal7_5lb_l710grpc_proxyNtB4_9GrpcProxy7forward
FNDA:4,_RNvNtCsddhi0hNOal7_5lb_l710grpc_proxy11read_varint
FNDA:0,_RNvNtCsddhi0hNOal7_5lb_l710grpc_proxy14empty_fallback
FNDA:0,_RNvNtCsddhi0hNOal7_5lb_l710grpc_proxy17finalize_upstream
FNDA:3,_RNvNtCsddhi0hNOal7_5lb_l710grpc_proxy18clamp_grpc_timeout
FNDA:1,_RNvNtCsddhi0hNOal7_5lb_l710grpc_proxy19grpc_error_response
FNDA:0,_RNvNtCsddhi0hNOal7_5lb_l710grpc_proxy19handle_health_check
FNDA:0,_RNvNtCsddhi0hNOal7_5lb_l710grpc_proxy24rewrite_uri_for_upstream
FNDA:4,_RNvNtCsddhi0hNOal7_5lb_l710grpc_proxy27decode_health_check_service
FNDA:5,_RNvNtCsddhi0hNOal7_5lb_l710grpc_proxy28parse_and_clamp_grpc_timeout
FNDA:1,_RNvNtCsddhi0hNOal7_5lb_l710grpc_proxy29health_check_serving_response
FNF:52
FNH:45
DA:64,13
DA:65,13
DA:66,13
DA:67,13
DA:68,13
DA:69,13
DA:70,13
DA:98,13
DA:99,13
DA:100,13
DA:101,13
DA:102,13
DA:103,13
DA:104,13
DA:113,13
DA:114,13
DA:115,13
DA:116,13
DA:120,12
DA:121,12
DA:122,12
DA:130,0
DA:131,0
DA:132,0
DA:145,12
DA:146,12
DA:147,12
DA:148,12
DA:149,12
DA:150,12
DA:151,12
DA:152,12
DA:154,3
DA:155,9
DA:156,9
DA:157,12
DA:166,9
DA:167,9
DA:168,9
DA:169,9
DA:170,9
DA:171,9
DA:178,8
DA:179,9
DA:180,6
DA:181,2
DA:182,1
DA:183,1
DA:184,1
DA:185,1
DA:186,1
DA:194,8
DA:195,8
DA:196,8
DA:202,8
DA:203,8
DA:204,8
DA:210,8
DA:211,8
DA:215,8
DA:216,8
DA:217,0
DA:218,0
DA:219,0
DA:220,0
DA:221,0
DA:224,8
DA:225,0
DA:233,8
DA:234,8
DA:235,8
DA:236,8
DA:237,8
DA:239,8
DA:240,0
DA:241,0
DA:242,0
DA:243,0
DA:244,0
DA:247,8
DA:248,8
DA:249,8
DA:250,8
DA:251,8
DA:252,8
DA:253,2
DA:254,2
DA:255,1
DA:257,1
DA:258,1
DA:261,6
DA:264,7
DA:265,6
DA:266,1
DA:267,1
DA:268,1
DA:271,6
DA:272,6
DA:273,6
DA:274,9
DA:279,18
DA:280,18
DA:281,18
DA:282,18
DA:283,18
DA:284,18
DA:285,18
DA:286,18
DA:287,2
DA:288,16
DA:289,16
DA:290,1
DA:292,69
DA:293,18
DA:294,18
DA:301,8
DA:302,8
DA:303,8
DA:304,8
DA:305,8
DA:306,8
DA:307,8
DA:308,8
DA:309,8
DA:310,8
DA:333,14
DA:334,14
DA:335,8
DA:337,6
DA:339,0
DA:341,6
DA:342,6
DA:343,2
DA:345,4
DA:346,4
DA:347,4
DA:348,4
DA:349,4
DA:350,4
DA:351,4
DA:352,14
DA:362,3
DA:363,3
DA:364,2
DA:365,1
DA:367,3
DA:384,3
DA:388,3
DA:389,3
DA:390,3
DA:391,3
DA:392,3
DA:393,2
DA:394,1
DA:395,1
DA:396,1
DA:397,1
DA:398,1
DA:399,3
DA:404,3
DA:405,3
DA:406,3
DA:407,3
DA:408,3
DA:409,3
DA:410,3
DA:411,3
DA:412,3
DA:413,3
DA:414,3
DA:415,3
DA:416,3
DA:417,3
DA:418,3
DA:419,3
DA:420,3
DA:421,3
DA:422,3
DA:423,3
DA:424,3
DA:425,3
DA:426,3
DA:427,3
DA:428,3
DA:429,3
DA:445,7
DA:446,7
DA:447,7
DA:448,1
DA:449,6
DA:451,6
DA:452,0
DA:456,6
DA:457,0
DA:458,6
DA:459,6
DA:460,6
DA:461,6
DA:462,6
DA:463,6
DA:464,7
DA:465,3
DA:466,0
DA:468,3
DA:469,3
DA:470,3
DA:471,3
DA:474,2
DA:475,0
DA:477,2
DA:478,2
DA:479,0
DA:481,2
DA:482,0
DA:484,2
DA:485,0
DA:486,2
DA:487,2
DA:488,0
DA:490,2
DA:491,0
DA:493,2
DA:497,1
DA:498,0
DA:500,1
DA:504,0
DA:505,0
DA:507,0
DA:508,0
DA:509,0
DA:511,0
DA:512,0
DA:514,0
DA:515,0
DA:516,0
DA:517,0
DA:519,0
DA:520,0
DA:521,0
DA:524,4
DA:525,7
DA:530,6
DA:531,6
DA:532,6
DA:533,6
DA:534,7
DA:535,7
DA:536,7
DA:537,7
DA:538,7
DA:539,7
DA:540,6
DA:541,1
DA:542,1
DA:544,0
DA:545,6
DA:547,0
DA:548,0
DA:549,0
DA:550,0
DA:551,0
DA:552,0
DA:553,0
DA:559,6
DA:560,6
DA:561,6
DA:562,6
DA:563,6
DA:564,6
DA:565,6
DA:566,6
DA:567,6
DA:568,6
DA:569,6
DA:570,6
DA:571,6
DA:572,6
DA:573,6
DA:574,6
DA:575,6
DA:576,6
DA:577,6
DA:586,6
DA:587,6
DA:588,6
DA:589,5
DA:590,5
DA:591,5
DA:592,15
DA:593,10
DA:594,10
DA:595,0
DA:596,5
DA:597,1
DA:598,1
DA:599,1
DA:600,6
DA:618,6
DA:619,6
DA:620,6
DA:621,6
DA:622,6
DA:623,6
DA:624,6
DA:625,6
DA:628,1
DA:629,1
DA:630,1
DA:633,1
DA:634,1
DA:635,1
DA:638,1
DA:639,1
DA:640,1
DA:643,1
DA:644,1
DA:645,1
DA:646,1
DA:647,1
DA:648,1
DA:651,1
DA:652,1
DA:653,1
DA:656,1
DA:657,1
DA:658,1
DA:659,1
DA:660,1
DA:663,1
DA:664,1
DA:665,1
DA:666,1
DA:667,1
DA:668,1
DA:669,1
DA:670,1
DA:671,1
DA:672,1
DA:673,1
DA:674,1
DA:675,1
DA:676,1
DA:677,1
DA:680,1
DA:681,1
DA:682,1
DA:683,1
DA:684,1
DA:685,1
DA:686,1
DA:689,1
DA:690,1
DA:691,1
DA:692,1
DA:695,1
DA:696,1
DA:697,1
DA:698,1
DA:699,1
DA:700,1
DA:701,1
DA:702,1
DA:703,1
DA:704,1
DA:705,1
DA:706,1
DA:707,1
DA:708,1
DA:709,1
DA:710,1
DA:711,1
DA:714,1
DA:715,1
DA:716,1
DA:719,1
DA:720,1
DA:721,1
DA:722,1
DA:723,1
DA:726,1
DA:727,1
DA:728,1
DA:729,1
DA:730,1
DA:731,1
DA:732,1
DA:733,1
DA:734,1
DA:735,1
DA:736,1
DA:739,1
DA:740,1
DA:741,1
DA:742,1
DA:743,1
DA:744,1
DA:745,1
DA:746,1
DA:747,1
DA:748,1
DA:749,1
DA:750,1
DA:751,1
DA:752,1
DA:755,1
DA:756,1
DA:757,1
DA:758,1
DA:759,1
DA:760,1
DA:761,0
DA:763,1
DA:766,1
DA:767,1
DA:768,1
DA:769,1
DA:770,0
DA:772,1
DA:774,2
DA:775,3
DA:776,1
DA:777,1
DA:778,1
DA:779,2
DA:780,2
DA:783,1
DA:784,1
DA:785,1
DA:786,1
DA:787,1
DA:788,1
DA:789,1
DA:790,1
DA:791,1
DA:792,1
DA:793,1
DA:794,1
DA:795,1
DA:796,1
DA:797,1
DA:800,1
DA:801,1
DA:802,1
DA:803,1
DA:804,1
DA:805,1
DA:806,1
DA:807,1
BRF:0
BRH:0
LF:485
LH:430
end_of_record
SF:/home/ubuntu/Code/ExpressGateway/crates/lb-l7/src/h1_proxy.rs
FN:201,_RNvMs0_NtCs6ZJAmc5l35e_5lb_l78h1_proxyNtB5_12AltSvcConfig12header_value
FN:278,_RNvMs2_NtCs6ZJAmc5l35e_5lb_l78h1_proxyNtB5_15RoundRobinAddrs3new
FN:468,_RNvMs4_NtCs6ZJAmc5l35e_5lb_l78h1_proxyNtB5_7H1Proxy10with_hooks
FN:483,_RNvMs4_NtCs6ZJAmc5l35e_5lb_l78h1_proxyNtB5_7H1Proxy13with_watchdog
FN:576,_RNvMs4_NtCs6ZJAmc5l35e_5lb_l78h1_proxyNtB5_7H1Proxy14with_websocket
FN:541,_RNvMs4_NtCs6ZJAmc5l35e_5lb_l78h1_proxyNtB5_7H1Proxy15has_h2_upstream
FN:548,_RNvMs4_NtCs6ZJAmc5l35e_5lb_l78h1_proxyNtB5_7H1Proxy15has_h3_upstream
FN:524,_RNvMs4_NtCs6ZJAmc5l35e_5lb_l78h1_proxyNtB5_7H1Proxy16with_h2_upstream
FN:532,_RNvMs4_NtCs6ZJAmc5l35e_5lb_l78h1_proxyNtB5_7H1Proxy16with_h3_upstream
FN:431,_RNvMs4_NtCs6ZJAmc5l35e_5lb_l78h1_proxyNtB5_7H1Proxy16with_multi_proto
FN:516,_RNvMs4_NtCs6ZJAmc5l35e_5lb_l78h1_proxyNtB5_7H1Proxy17with_expected_sni
FN:493,_RNvMs4_NtCs6ZJAmc5l35e_5lb_l78h1_proxyNtB5_7H1Proxy19with_smuggle_strict
FN:557,_RNvMs4_NtCs6ZJAmc5l35e_5lb_l78h1_proxyNtB5_7H1Proxy27with_max_keepalive_requests
FN:504,_RNvMs4_NtCs6ZJAmc5l35e_5lb_l78h1_proxyNtB5_7H1Proxy29with_header_underscore_policy
FN:567,_RNvMs4_NtCs6ZJAmc5l35e_5lb_l78h1_proxyNtB5_7H1Proxy33keepalive_cap_termination_counter
FN:387,_RNvMs4_NtCs6ZJAmc5l35e_5lb_l78h1_proxyNtB5_7H1Proxy3new
FN:874,_RNvMs6_NtCs6ZJAmc5l35e_5lb_l78h1_proxyNtB5_7H1Proxy12handle_inner
FN:1196,_RNvMs6_NtCs6ZJAmc5l35e_5lb_l78h1_proxyNtB5_7H1Proxy13proxy_request
FN:2033,_RNvMs6_NtCs6ZJAmc5l35e_5lb_l78h1_proxyNtB5_7H1Proxy14proxy_h1_to_h2
FN:2100,_RNvMs6_NtCs6ZJAmc5l35e_5lb_l78h1_proxyNtB5_7H1Proxy14proxy_h1_to_h3
FN:2529,_RNvMs6_NtCs6ZJAmc5l35e_5lb_l78h1_proxyNtB5_7H1Proxy17finalize_response
FN:2409,_RNvMs6_NtCs6ZJAmc5l35e_5lb_l78h1_proxyNtB5_7H1Proxy17handle_ws_upgrade
FN:1673,_RNvMs6_NtCs6ZJAmc5l35e_5lb_l78h1_proxyNtB5_7H1Proxy22proxy_h1_to_h2_request
FN:842,_RNvMs6_NtCs6ZJAmc5l35e_5lb_l78h1_proxyNtB5_7H1Proxy6handle
FN:2772,_RNvNtCs6ZJAmc5l35e_5lb_l78h1_proxy10append_via
FN:2732,_RNvNtCs6ZJAmc5l35e_5lb_l78h1_proxy10append_xff
FN:2654,_RNvNtCs6ZJAmc5l35e_5lb_l78h1_proxy14error_response
FN:2893,_RNvNtCs6ZJAmc5l35e_5lb_l78h1_proxy16concat_h1_chunks
FN:2574,_RNvNtCs6ZJAmc5l35e_5lb_l78h1_proxy16dial_upstream_ws
FN:2698,_RNvNtCs6ZJAmc5l35e_5lb_l78h1_proxy16strip_hop_by_hop
FN:2879,_RNvNtCs6ZJAmc5l35e_5lb_l78h1_proxy18h1_to_h2_proxy_err
FN:3241,_RNvNtCs6ZJAmc5l35e_5lb_l78h1_proxy18record_retained_h1
FN:2678,_RNvNtCs6ZJAmc5l35e_5lb_l78h1_proxy18reject_to_response
FN:2633,_RNvNtCs6ZJAmc5l35e_5lb_l78h1_proxy21run_h1_ws_splice_task
FN:3019,_RNvNtCs6ZJAmc5l35e_5lb_l78h1_proxy23upstream_response_to_h1
FN:2955,_RNvNtCs6ZJAmc5l35e_5lb_l78h1_proxy24build_body_with_trailers
FN:3158,_RNvNtCs6ZJAmc5l35e_5lb_l78h1_proxy24build_h1_to_h3_fieldlist
FN:2943,_RNvNtCs6ZJAmc5l35e_5lb_l78h1_proxy27build_h1_streaming_response
FN:2917,_RNvNtCs6ZJAmc5l35e_5lb_l78h1_proxy28h3_decoded_resp_head_builder
FN:166,_RNvNtCs6ZJAmc5l35e_5lb_l78h1_proxy28validate_h1_request_trailers
FN:2814,_RNvNtCs6ZJAmc5l35e_5lb_l78h1_proxy29build_h1_to_h2_upstream_parts
FN:3085,_RNvNtCs6ZJAmc5l35e_5lb_l78h1_proxy31build_h1_response_with_trailers
FN:2761,_RNvNtCs6ZJAmc5l35e_5lb_l78h1_proxy7set_xfh
FN:2753,_RNvNtCs6ZJAmc5l35e_5lb_l78h1_proxy7set_xfp
FN:141,_RNvXNtCs6ZJAmc5l35e_5lb_l78h1_proxyNtB2_11H1PumpAbortNtNtCs2va5m0jqTTM_4core3fmt7Display3fmt
FN:227,_RNvXs1_NtCs6ZJAmc5l35e_5lb_l78h1_proxyNtB5_12HttpTimeoutsNtNtCs2va5m0jqTTM_4core7default7Default7default
FN:290,_RNvXs3_NtCs6ZJAmc5l35e_5lb_l78h1_proxyNtB5_15RoundRobinAddrsNtB5_13BackendPicker4pick
FN:791,_RNvXs5_NtCs6ZJAmc5l35e_5lb_l78h1_proxyNtB5_12ProxyServiceINtNtNtCsgB3dp6qvXvn_5hyper7service7service7ServiceINtNtCsjFxw70quGA5_4http7request7RequestNtNtNtB10_4body8incoming8IncomingEE4call
FN:2214,_RNCNCNCNCNCNvMs6_NtCs6ZJAmc5l35e_5lb_l78h1_proxyNtBf_7H1Proxy14proxy_h1_to_h300000Bh_
FN:2213,_RNCNCNCNCNvMs6_NtCs6ZJAmc5l35e_5lb_l78h1_proxyNtBd_7H1Proxy14proxy_h1_to_h30000Bf_
FN:1769,_RNCNCNCNCNvMs6_NtCs6ZJAmc5l35e_5lb_l78h1_proxyNtBd_7H1Proxy22proxy_h1_to_h2_request0000Bf_
FN:1067,_RNCNCNCNvMs6_NtCs6ZJAmc5l35e_5lb_l78h1_proxyNtBb_7H1Proxy12handle_inner0s5_00Bd_
FN:1101,_RNCNCNCNvMs6_NtCs6ZJAmc5l35e_5lb_l78h1_proxyNtBb_7H1Proxy12handle_inner0s6_00Bd_
FN:1325,_RNCNCNCNvMs6_NtCs6ZJAmc5l35e_5lb_l78h1_proxyNtBb_7H1Proxy13proxy_request0s3_00Bd_
FN:1334,_RNCNCNCNvMs6_NtCs6ZJAmc5l35e_5lb_l78h1_proxyNtBb_7H1Proxy13proxy_request0s3_0s_0Bd_
FN:2211,_RNCNCNCNvMs6_NtCs6ZJAmc5l35e_5lb_l78h1_proxyNtBb_7H1Proxy14proxy_h1_to_h3000Bd_
FN:1766,_RNCNCNCNvMs6_NtCs6ZJAmc5l35e_5lb_l78h1_proxyNtBb_7H1Proxy22proxy_h1_to_h2_request000Bd_
FN:1839,_RNCNCNCNvMs6_NtCs6ZJAmc5l35e_5lb_l78h1_proxyNtBb_7H1Proxy22proxy_h1_to_h2_request0s2_00Bd_
FN:1844,_RNCNCNCNvMs6_NtCs6ZJAmc5l35e_5lb_l78h1_proxyNtBb_7H1Proxy22proxy_h1_to_h2_request0s2_0s_0Bd_
FN:919,_RNCNCNvMs6_NtCs6ZJAmc5l35e_5lb_l78h1_proxyNtB9_7H1Proxy12handle_inner00Bb_
FN:942,_RNCNCNvMs6_NtCs6ZJAmc5l35e_5lb_l78h1_proxyNtB9_7H1Proxy12handle_inner0s0_0Bb_
FN:970,_RNCNCNvMs6_NtCs6ZJAmc5l35e_5lb_l78h1_proxyNtB9_7H1Proxy12handle_inner0s1_0Bb_
FN:982,_RNCNCNvMs6_NtCs6ZJAmc5l35e_5lb_l78h1_proxyNtB9_7H1Proxy12handle_inner0s2_0Bb_
FN:1010,_RNCNCNvMs6_NtCs6ZJAmc5l35e_5lb_l78h1_proxyNtB9_7H1Proxy12handle_inner0s3_0Bb_
FN:1037,_RNCNCNvMs6_NtCs6ZJAmc5l35e_5lb_l78h1_proxyNtB9_7H1Proxy12handle_inner0s4_0Bb_
FN:1064,_RNCNCNvMs6_NtCs6ZJAmc5l35e_5lb_l78h1_proxyNtB9_7H1Proxy12handle_inner0s5_0Bb_
FN:1085,_RNCNCNvMs6_NtCs6ZJAmc5l35e_5lb_l78h1_proxyNtB9_7H1Proxy12handle_inner0s6_0Bb_
FN:1112,_RNCNCNvMs6_NtCs6ZJAmc5l35e_5lb_l78h1_proxyNtB9_7H1Proxy12handle_inner0s7_0Bb_
FN:920,_RNCNCNvMs6_NtCs6ZJAmc5l35e_5lb_l78h1_proxyNtB9_7H1Proxy12handle_inner0s_0Bb_
FN:1235,_RNCNCNvMs6_NtCs6ZJAmc5l35e_5lb_l78h1_proxyNtB9_7H1Proxy13proxy_request00Bb_
FN:1256,_RNCNCNvMs6_NtCs6ZJAmc5l35e_5lb_l78h1_proxyNtB9_7H1Proxy13proxy_request0s0_0Bb_
FN:1258,_RNCNCNvMs6_NtCs6ZJAmc5l35e_5lb_l78h1_proxyNtB9_7H1Proxy13proxy_request0s1_0Bb_
FN:1288,_RNCNCNvMs6_NtCs6ZJAmc5l35e_5lb_l78h1_proxyNtB9_7H1Proxy13proxy_request0s2_0Bb_
FN:1320,_RNCNCNvMs6_NtCs6ZJAmc5l35e_5lb_l78h1_proxyNtB9_7H1Proxy13proxy_request0s3_0Bb_
FN:1608,_RNCNCNvMs6_NtCs6ZJAmc5l35e_5lb_l78h1_proxyNtB9_7H1Proxy13proxy_request0s4_0Bb_
FN:1244,_RNCNCNvMs6_NtCs6ZJAmc5l35e_5lb_l78h1_proxyNtB9_7H1Proxy13proxy_request0s_0Bb_
FN:2146,_RNCNCNvMs6_NtCs6ZJAmc5l35e_5lb_l78h1_proxyNtB9_7H1Proxy14proxy_h1_to_h300Bb_
FN:2300,_RNCNCNvMs6_NtCs6ZJAmc5l35e_5lb_l78h1_proxyNtB9_7H1Proxy14proxy_h1_to_h30s0_0Bb_
FN:2339,_RNCNCNvMs6_NtCs6ZJAmc5l35e_5lb_l78h1_proxyNtB9_7H1Proxy14proxy_h1_to_h30s1_0Bb_
FN:2350,_RNCNCNvMs6_NtCs6ZJAmc5l35e_5lb_l78h1_proxyNtB9_7H1Proxy14proxy_h1_to_h30s2_0Bb_
FN:2271,_RNCNCNvMs6_NtCs6ZJAmc5l35e_5lb_l78h1_proxyNtB9_7H1Proxy14proxy_h1_to_h30s_0Bb_
FN:2436,_RNCNCNvMs6_NtCs6ZJAmc5l35e_5lb_l78h1_proxyNtB9_7H1Proxy17handle_ws_upgrade00Bb_
FN:2509,_RNCNCNvMs6_NtCs6ZJAmc5l35e_5lb_l78h1_proxyNtB9_7H1Proxy17handle_ws_upgrade0s0_0Bb_
FN:2510,_RNCNCNvMs6_NtCs6ZJAmc5l35e_5lb_l78h1_proxyNtB9_7H1Proxy17handle_ws_upgrade0s1_0Bb_
FN:2512,_RNCNCNvMs6_NtCs6ZJAmc5l35e_5lb_l78h1_proxyNtB9_7H1Proxy17handle_ws_upgrade0s2_0Bb_
FN:2513,_RNCNCNvMs6_NtCs6ZJAmc5l35e_5lb_l78h1_proxyNtB9_7H1Proxy17handle_ws_upgrade0s3_0Bb_
FN:2524,_RNCNCNvMs6_NtCs6ZJAmc5l35e_5lb_l78h1_proxyNtB9_7H1Proxy17handle_ws_upgrade0s5_0Bb_
FN:2440,_RNCNCNvMs6_NtCs6ZJAmc5l35e_5lb_l78h1_proxyNtB9_7H1Proxy17handle_ws_upgrade0s_0Bb_
FN:1764,_RNCNCNvMs6_NtCs6ZJAmc5l35e_5lb_l78h1_proxyNtB9_7H1Proxy22proxy_h1_to_h2_request00Bb_
FN:1807,_RNCNCNvMs6_NtCs6ZJAmc5l35e_5lb_l78h1_proxyNtB9_7H1Proxy22proxy_h1_to_h2_request0s0_0Bb_
FN:1816,_RNCNCNvMs6_NtCs6ZJAmc5l35e_5lb_l78h1_proxyNtB9_7H1Proxy22proxy_h1_to_h2_request0s1_0Bb_
FN:1838,_RNCNCNvMs6_NtCs6ZJAmc5l35e_5lb_l78h1_proxyNtB9_7H1Proxy22proxy_h1_to_h2_request0s2_0Bb_
FN:1782,_RNCNCNvMs6_NtCs6ZJAmc5l35e_5lb_l78h1_proxyNtB9_7H1Proxy22proxy_h1_to_h2_request0s_0Bb_
FN:2589,_RNCNCNvNtCs6ZJAmc5l35e_5lb_l78h1_proxy16dial_upstream_ws00B7_
FN:2596,_RNCNCNvNtCs6ZJAmc5l35e_5lb_l78h1_proxy16dial_upstream_ws0s0_0B7_
FN:2624,_RNCNCNvNtCs6ZJAmc5l35e_5lb_l78h1_proxy16dial_upstream_ws0s1_0B7_
FN:2592,_RNCNCNvNtCs6ZJAmc5l35e_5lb_l78h1_proxy16dial_upstream_ws0s_0B7_
FN:3183,_RNCNCNvNtCs6ZJAmc5l35e_5lb_l78h1_proxy24build_h1_to_h3_fieldlists1_00B7_
FN:2830,_RNCNCNvNtCs6ZJAmc5l35e_5lb_l78h1_proxy29build_h1_to_h2_upstream_partss_00B7_
FN:880,_RNCNvMs6_NtCs6ZJAmc5l35e_5lb_l78h1_proxyNtB7_7H1Proxy12handle_inner0B9_
FN:1200,_RNCNvMs6_NtCs6ZJAmc5l35e_5lb_l78h1_proxyNtB7_7H1Proxy13proxy_request0B9_
FN:2037,_RNCNvMs6_NtCs6ZJAmc5l35e_5lb_l78h1_proxyNtB7_7H1Proxy14proxy_h1_to_h20B9_
FN:2104,_RNCNvMs6_NtCs6ZJAmc5l35e_5lb_l78h1_proxyNtB7_7H1Proxy14proxy_h1_to_h30B9_
FN:2543,_RNCNvMs6_NtCs6ZJAmc5l35e_5lb_l78h1_proxyNtB7_7H1Proxy17finalize_response0B9_
FN:2413,_RNCNvMs6_NtCs6ZJAmc5l35e_5lb_l78h1_proxyNtB7_7H1Proxy17handle_ws_upgrade0B9_
FN:1678,_RNCNvMs6_NtCs6ZJAmc5l35e_5lb_l78h1_proxyNtB7_7H1Proxy22proxy_h1_to_h2_request0B9_
FN:847,_RNCNvMs6_NtCs6ZJAmc5l35e_5lb_l78h1_proxyNtB7_7H1Proxy6handle0B9_
FN:2582,_RNCNvNtCs6ZJAmc5l35e_5lb_l78h1_proxy16dial_upstream_ws0B5_
FN:2704,_RNCNvNtCs6ZJAmc5l35e_5lb_l78h1_proxy16strip_hop_by_hop0B5_
FN:2707,_RNCNvNtCs6ZJAmc5l35e_5lb_l78h1_proxy16strip_hop_by_hops0_0B5_
FN:2708,_RNCNvNtCs6ZJAmc5l35e_5lb_l78h1_proxy16strip_hop_by_hops1_0B5_
FN:2705,_RNCNvNtCs6ZJAmc5l35e_5lb_l78h1_proxy16strip_hop_by_hops_0B5_
FN:2637,_RNCNvNtCs6ZJAmc5l35e_5lb_l78h1_proxy21run_h1_ws_splice_task0B5_
FN:3055,_RNCNvNtCs6ZJAmc5l35e_5lb_l78h1_proxy23upstream_response_to_h10B5_
FN:3058,_RNCNvNtCs6ZJAmc5l35e_5lb_l78h1_proxy23upstream_response_to_h1s_0B5_
FN:3166,_RNCNvNtCs6ZJAmc5l35e_5lb_l78h1_proxy24build_h1_to_h3_fieldlist0B5_
FN:3175,_RNCNvNtCs6ZJAmc5l35e_5lb_l78h1_proxy24build_h1_to_h3_fieldlists0_0B5_
FN:3180,_RNCNvNtCs6ZJAmc5l35e_5lb_l78h1_proxy24build_h1_to_h3_fieldlists1_0B5_
FN:3187,_RNCNvNtCs6ZJAmc5l35e_5lb_l78h1_proxy24build_h1_to_h3_fieldlists2_0B5_
FN:3200,_RNCNvNtCs6ZJAmc5l35e_5lb_l78h1_proxy24build_h1_to_h3_fieldlists3_0B5_
FN:3204,_RNCNvNtCs6ZJAmc5l35e_5lb_l78h1_proxy24build_h1_to_h3_fieldlists4_0B5_
FN:3167,_RNCNvNtCs6ZJAmc5l35e_5lb_l78h1_proxy24build_h1_to_h3_fieldlists_0B5_
FN:2947,_RNCNvNtCs6ZJAmc5l35e_5lb_l78h1_proxy27build_h1_streaming_response0B5_
FN:177,_RNCNvNtCs6ZJAmc5l35e_5lb_l78h1_proxy28validate_h1_request_trailers0B5_
FN:2823,_RNCNvNtCs6ZJAmc5l35e_5lb_l78h1_proxy29build_h1_to_h2_upstream_parts0B5_
FN:2839,_RNCNvNtCs6ZJAmc5l35e_5lb_l78h1_proxy29build_h1_to_h2_upstream_partss0_0B5_
FN:2845,_RNCNvNtCs6ZJAmc5l35e_5lb_l78h1_proxy29build_h1_to_h2_upstream_partss1_0B5_
FN:2846,_RNCNvNtCs6ZJAmc5l35e_5lb_l78h1_proxy29build_h1_to_h2_upstream_partss2_0B5_
FN:2847,_RNCNvNtCs6ZJAmc5l35e_5lb_l78h1_proxy29build_h1_to_h2_upstream_partss3_0B5_
FN:2869,_RNCNvNtCs6ZJAmc5l35e_5lb_l78h1_proxy29build_h1_to_h2_upstream_partss4_0B5_
FN:2827,_RNCNvNtCs6ZJAmc5l35e_5lb_l78h1_proxy29build_h1_to_h2_upstream_partss_0B5_
FN:3121,_RNCNvNtCs6ZJAmc5l35e_5lb_l78h1_proxy31build_h1_response_with_trailers0B5_
FN:3144,_RNCNvNtCs6ZJAmc5l35e_5lb_l78h1_proxy31build_h1_response_with_trailerss0_0B5_
FN:3142,_RNCNvNtCs6ZJAmc5l35e_5lb_l78h1_proxy31build_h1_response_with_trailerss_0B5_
FN:806,_RNCNvXs5_NtCs6ZJAmc5l35e_5lb_l78h1_proxyNtB7_12ProxyServiceINtNtNtCsgB3dp6qvXvn_5hyper7service7service7ServiceINtNtCsjFxw70quGA5_4http7request7RequestNtNtNtB12_4body8incoming8IncomingEE4call0B9_
FN:594,_RINvMs4_NtCs6ZJAmc5l35e_5lb_l78h1_proxyNtB6_7H1Proxy16serve_connectionpEB8_
FN:629,_RINvMs4_NtCs6ZJAmc5l35e_5lb_l78h1_proxyNtB6_7H1Proxy28serve_connection_with_cancelpEB8_
FN:660,_RINvMs4_NtCs6ZJAmc5l35e_5lb_l78h1_proxyNtB6_7H1Proxy32serve_connection_with_cancel_snipEB8_
FN:597,_RNCINvMs4_NtCs6ZJAmc5l35e_5lb_l78h1_proxyNtB8_7H1Proxy16serve_connectionpE0Ba_
FN:637,_RNCINvMs4_NtCs6ZJAmc5l35e_5lb_l78h1_proxyNtB8_7H1Proxy28serve_connection_with_cancelpE0Ba_
FN:669,_RNCINvMs4_NtCs6ZJAmc5l35e_5lb_l78h1_proxyNtB8_7H1Proxy32serve_connection_with_cancel_snipE0Ba_
FN:629,_RINvMs4_NtCs6ZJAmc5l35e_5lb_l78h1_proxyNtB6_7H1Proxy28serve_connection_with_cancelNtNtNtNtCsfWKKmeeA0Vo_5tokio3net3tcp6stream9TcpStreamECsfji7v5okg5d_14expressgateway
FN:660,_RINvMs4_NtCs6ZJAmc5l35e_5lb_l78h1_proxyNtB6_7H1Proxy32serve_connection_with_cancel_sniINtNtCs7m3feRqGqA4_12tokio_rustls6server9TlsStreamNtNtNtNtCsfWKKmeeA0Vo_5tokio3net3tcp6stream9TcpStreamEECsfji7v5okg5d_14expressgateway
FN:660,_RINvMs4_NtCs6ZJAmc5l35e_5lb_l78h1_proxyNtB6_7H1Proxy32serve_connection_with_cancel_sniNtNtNtNtCsfWKKmeeA0Vo_5tokio3net3tcp6stream9TcpStreamECsfji7v5okg5d_14expressgateway
FN:637,_RNCINvMs4_NtCs6ZJAmc5l35e_5lb_l78h1_proxyNtB8_7H1Proxy28serve_connection_with_cancelNtNtNtNtCsfWKKmeeA0Vo_5tokio3net3tcp6stream9TcpStreamE0Csfji7v5okg5d_14expressgateway
FN:669,_RNCINvMs4_NtCs6ZJAmc5l35e_5lb_l78h1_proxyNtB8_7H1Proxy32serve_connection_with_cancel_sniINtNtCs7m3feRqGqA4_12tokio_rustls6server9TlsStreamNtNtNtNtCsfWKKmeeA0Vo_5tokio3net3tcp6stream9TcpStreamEE0Csfji7v5okg5d_14expressgateway
FN:669,_RNCINvMs4_NtCs6ZJAmc5l35e_5lb_l78h1_proxyNtB8_7H1Proxy32serve_connection_with_cancel_sniNtNtNtNtCsfWKKmeeA0Vo_5tokio3net3tcp6stream9TcpStreamE0Csfji7v5okg5d_14expressgateway
FN:594,_RINvMs4_NtCs6ZJAmc5l35e_5lb_l78h1_proxyNtB6_7H1Proxy16serve_connectionINtNtCs7m3feRqGqA4_12tokio_rustls6server9TlsStreamNtNtNtNtCsfWKKmeeA0Vo_5tokio3net3tcp6stream9TcpStreamEECs4ujPilILCsX_12h1_proxy_e2e
FN:594,_RINvMs4_NtCs6ZJAmc5l35e_5lb_l78h1_proxyNtB6_7H1Proxy16serve_connectionNtNtNtNtCsfWKKmeeA0Vo_5tokio3net3tcp6stream9TcpStreamECs4ujPilILCsX_12h1_proxy_e2e
FN:629,_RINvMs4_NtCs6ZJAmc5l35e_5lb_l78h1_proxyNtB6_7H1Proxy28serve_connection_with_cancelINtNtCs7m3feRqGqA4_12tokio_rustls6server9TlsStreamNtNtNtNtCsfWKKmeeA0Vo_5tokio3net3tcp6stream9TcpStreamEECs4ujPilILCsX_12h1_proxy_e2e
FN:629,_RINvMs4_NtCs6ZJAmc5l35e_5lb_l78h1_proxyNtB6_7H1Proxy28serve_connection_with_cancelNtNtNtNtCsfWKKmeeA0Vo_5tokio3net3tcp6stream9TcpStreamECs4ujPilILCsX_12h1_proxy_e2e
FN:660,_RINvMs4_NtCs6ZJAmc5l35e_5lb_l78h1_proxyNtB6_7H1Proxy32serve_connection_with_cancel_sniINtNtCs7m3feRqGqA4_12tokio_rustls6server9TlsStreamNtNtNtNtCsfWKKmeeA0Vo_5tokio3net3tcp6stream9TcpStreamEECs4ujPilILCsX_12h1_proxy_e2e
FN:660,_RINvMs4_NtCs6ZJAmc5l35e_5lb_l78h1_proxyNtB6_7H1Proxy32serve_connection_with_cancel_sniNtNtNtNtCsfWKKmeeA0Vo_5tokio3net3tcp6stream9TcpStreamECs4ujPilILCsX_12h1_proxy_e2e
FN:597,_RNCINvMs4_NtCs6ZJAmc5l35e_5lb_l78h1_proxyNtB8_7H1Proxy16serve_connectionINtNtCs7m3feRqGqA4_12tokio_rustls6server9TlsStreamNtNtNtNtCsfWKKmeeA0Vo_5tokio3net3tcp6stream9TcpStreamEE0Cs4ujPilILCsX_12h1_proxy_e2e
FN:597,_RNCINvMs4_NtCs6ZJAmc5l35e_5lb_l78h1_proxyNtB8_7H1Proxy16serve_connectionNtNtNtNtCsfWKKmeeA0Vo_5tokio3net3tcp6stream9TcpStreamE0Cs4ujPilILCsX_12h1_proxy_e2e
FN:637,_RNCINvMs4_NtCs6ZJAmc5l35e_5lb_l78h1_proxyNtB8_7H1Proxy28serve_connection_with_cancelINtNtCs7m3feRqGqA4_12tokio_rustls6server9TlsStreamNtNtNtNtCsfWKKmeeA0Vo_5tokio3net3tcp6stream9TcpStreamEE0Cs4ujPilILCsX_12h1_proxy_e2e
FN:637,_RNCINvMs4_NtCs6ZJAmc5l35e_5lb_l78h1_proxyNtB8_7H1Proxy28serve_connection_with_cancelNtNtNtNtCsfWKKmeeA0Vo_5tokio3net3tcp6stream9TcpStreamE0Cs4ujPilILCsX_12h1_proxy_e2e
FN:669,_RNCINvMs4_NtCs6ZJAmc5l35e_5lb_l78h1_proxyNtB8_7H1Proxy32serve_connection_with_cancel_sniINtNtCs7m3feRqGqA4_12tokio_rustls6server9TlsStreamNtNtNtNtCsfWKKmeeA0Vo_5tokio3net3tcp6stream9TcpStreamEE0Cs4ujPilILCsX_12h1_proxy_e2e
FN:669,_RNCINvMs4_NtCs6ZJAmc5l35e_5lb_l78h1_proxyNtB8_7H1Proxy32serve_connection_with_cancel_sniNtNtNtNtCsfWKKmeeA0Vo_5tokio3net3tcp6stream9TcpStreamE0Cs4ujPilILCsX_12h1_proxy_e2e
FN:594,_RINvMs4_NtCs6ZJAmc5l35e_5lb_l78h1_proxyNtB6_7H1Proxy16serve_connectionNtNtNtNtCsfWKKmeeA0Vo_5tokio3net3tcp6stream9TcpStreamECsdcCJoHSPVYC_15h1_rejects_grpc
FN:629,_RINvMs4_NtCs6ZJAmc5l35e_5lb_l78h1_proxyNtB6_7H1Proxy28serve_connection_with_cancelNtNtNtNtCsfWKKmeeA0Vo_5tokio3net3tcp6stream9TcpStreamECsdcCJoHSPVYC_15h1_rejects_grpc
FN:660,_RINvMs4_NtCs6ZJAmc5l35e_5lb_l78h1_proxyNtB6_7H1Proxy32serve_connection_with_cancel_sniNtNtNtNtCsfWKKmeeA0Vo_5tokio3net3tcp6stream9TcpStreamECsdcCJoHSPVYC_15h1_rejects_grpc
FN:597,_RNCINvMs4_NtCs6ZJAmc5l35e_5lb_l78h1_proxyNtB8_7H1Proxy16serve_connectionNtNtNtNtCsfWKKmeeA0Vo_5tokio3net3tcp6stream9TcpStreamE0CsdcCJoHSPVYC_15h1_rejects_grpc
FN:637,_RNCINvMs4_NtCs6ZJAmc5l35e_5lb_l78h1_proxyNtB8_7H1Proxy28serve_connection_with_cancelNtNtNtNtCsfWKKmeeA0Vo_5tokio3net3tcp6stream9TcpStreamE0CsdcCJoHSPVYC_15h1_rejects_grpc
FN:669,_RNCINvMs4_NtCs6ZJAmc5l35e_5lb_l78h1_proxyNtB8_7H1Proxy32serve_connection_with_cancel_sniNtNtNtNtCsfWKKmeeA0Vo_5tokio3net3tcp6stream9TcpStreamE0CsdcCJoHSPVYC_15h1_rejects_grpc
FN:594,_RINvMs4_NtCs6ZJAmc5l35e_5lb_l78h1_proxyNtB6_7H1Proxy16serve_connectionNtNtNtNtCsfWKKmeeA0Vo_5tokio3net3tcp6stream9TcpStreamECsj8u8XiskGsQ_24h1h1_md_streaming_verify
FN:629,_RINvMs4_NtCs6ZJAmc5l35e_5lb_l78h1_proxyNtB6_7H1Proxy28serve_connection_with_cancelNtNtNtNtCsfWKKmeeA0Vo_5tokio3net3tcp6stream9TcpStreamECsj8u8XiskGsQ_24h1h1_md_streaming_verify
FN:660,_RINvMs4_NtCs6ZJAmc5l35e_5lb_l78h1_proxyNtB6_7H1Proxy32serve_connection_with_cancel_sniNtNtNtNtCsfWKKmeeA0Vo_5tokio3net3tcp6stream9TcpStreamECsj8u8XiskGsQ_24h1h1_md_streaming_verify
FN:597,_RNCINvMs4_NtCs6ZJAmc5l35e_5lb_l78h1_proxyNtB8_7H1Proxy16serve_connectionNtNtNtNtCsfWKKmeeA0Vo_5tokio3net3tcp6stream9TcpStreamE0Csj8u8XiskGsQ_24h1h1_md_streaming_verify
FN:637,_RNCINvMs4_NtCs6ZJAmc5l35e_5lb_l78h1_proxyNtB8_7H1Proxy28serve_connection_with_cancelNtNtNtNtCsfWKKmeeA0Vo_5tokio3net3tcp6stream9TcpStreamE0Csj8u8XiskGsQ_24h1h1_md_streaming_verify
FN:669,_RNCINvMs4_NtCs6ZJAmc5l35e_5lb_l78h1_proxyNtB8_7H1Proxy32serve_connection_with_cancel_sniNtNtNtNtCsfWKKmeeA0Vo_5tokio3net3tcp6stream9TcpStreamE0Csj8u8XiskGsQ_24h1h1_md_streaming_verify
FN:594,_RINvMs4_NtCs6ZJAmc5l35e_5lb_l78h1_proxyNtB6_7H1Proxy16serve_connectionNtNtNtNtCsfWKKmeeA0Vo_5tokio3net3tcp6stream9TcpStreamECshZDqrukkfGG_24h1h2_md_streaming_verify
FN:629,_RINvMs4_NtCs6ZJAmc5l35e_5lb_l78h1_proxyNtB6_7H1Proxy28serve_connection_with_cancelNtNtNtNtCsfWKKmeeA0Vo_5tokio3net3tcp6stream9TcpStreamECshZDqrukkfGG_24h1h2_md_streaming_verify
FN:660,_RINvMs4_NtCs6ZJAmc5l35e_5lb_l78h1_proxyNtB6_7H1Proxy32serve_connection_with_cancel_sniNtNtNtNtCsfWKKmeeA0Vo_5tokio3net3tcp6stream9TcpStreamECshZDqrukkfGG_24h1h2_md_streaming_verify
FN:597,_RNCINvMs4_NtCs6ZJAmc5l35e_5lb_l78h1_proxyNtB8_7H1Proxy16serve_connectionNtNtNtNtCsfWKKmeeA0Vo_5tokio3net3tcp6stream9TcpStreamE0CshZDqrukkfGG_24h1h2_md_streaming_verify
FN:637,_RNCINvMs4_NtCs6ZJAmc5l35e_5lb_l78h1_proxyNtB8_7H1Proxy28serve_connection_with_cancelNtNtNtNtCsfWKKmeeA0Vo_5tokio3net3tcp6stream9TcpStreamE0CshZDqrukkfGG_24h1h2_md_streaming_verify
FN:669,_RNCINvMs4_NtCs6ZJAmc5l35e_5lb_l78h1_proxyNtB8_7H1Proxy32serve_connection_with_cancel_sniNtNtNtNtCsfWKKmeeA0Vo_5tokio3net3tcp6stream9TcpStreamE0CshZDqrukkfGG_24h1h2_md_streaming_verify
FN:594,_RINvMs4_NtCs6ZJAmc5l35e_5lb_l78h1_proxyNtB6_7H1Proxy16serve_connectionNtNtNtNtCsfWKKmeeA0Vo_5tokio3net3tcp6stream9TcpStreamECsc8VKmNY1NQd_26h1h2_resp_streaming_verify
FN:629,_RINvMs4_NtCs6ZJAmc5l35e_5lb_l78h1_proxyNtB6_7H1Proxy28serve_connection_with_cancelNtNtNtNtCsfWKKmeeA0Vo_5tokio3net3tcp6stream9TcpStreamECsc8VKmNY1NQd_26h1h2_resp_streaming_verify
FN:660,_RINvMs4_NtCs6ZJAmc5l35e_5lb_l78h1_proxyNtB6_7H1Proxy32serve_connection_with_cancel_sniNtNtNtNtCsfWKKmeeA0Vo_5tokio3net3tcp6stream9TcpStreamECsc8VKmNY1NQd_26h1h2_resp_streaming_verify
FN:597,_RNCINvMs4_NtCs6ZJAmc5l35e_5lb_l78h1_proxyNtB8_7H1Proxy16serve_connectionNtNtNtNtCsfWKKmeeA0Vo_5tokio3net3tcp6stream9TcpStreamE0Csc8VKmNY1NQd_26h1h2_resp_streaming_verify
FN:637,_RNCINvMs4_NtCs6ZJAmc5l35e_5lb_l78h1_proxyNtB8_7H1Proxy28serve_connection_with_cancelNtNtNtNtCsfWKKmeeA0Vo_5tokio3net3tcp6stream9TcpStreamE0Csc8VKmNY1NQd_26h1h2_resp_streaming_verify
FN:669,_RNCINvMs4_NtCs6ZJAmc5l35e_5lb_l78h1_proxyNtB8_7H1Proxy32serve_connection_with_cancel_sniNtNtNtNtCsfWKKmeeA0Vo_5tokio3net3tcp6stream9TcpStreamE0Csc8VKmNY1NQd_26h1h2_resp_streaming_verify
FN:594,_RINvMs4_NtCs6ZJAmc5l35e_5lb_l78h1_proxyNtB6_7H1Proxy16serve_connectionNtNtNtNtCsfWKKmeeA0Vo_5tokio3net3tcp6stream9TcpStreamECshaCDYBu2GsK_24h1h3_md_streaming_verify
FN:629,_RINvMs4_NtCs6ZJAmc5l35e_5lb_l78h1_proxyNtB6_7H1Proxy28serve_connection_with_cancelNtNtNtNtCsfWKKmeeA0Vo_5tokio3net3tcp6stream9TcpStreamECshaCDYBu2GsK_24h1h3_md_streaming_verify
FN:660,_RINvMs4_NtCs6ZJAmc5l35e_5lb_l78h1_proxyNtB6_7H1Proxy32serve_connection_with_cancel_sniNtNtNtNtCsfWKKmeeA0Vo_5tokio3net3tcp6stream9TcpStreamECshaCDYBu2GsK_24h1h3_md_streaming_verify
FN:597,_RNCINvMs4_NtCs6ZJAmc5l35e_5lb_l78h1_proxyNtB8_7H1Proxy16serve_connectionNtNtNtNtCsfWKKmeeA0Vo_5tokio3net3tcp6stream9TcpStreamE0CshaCDYBu2GsK_24h1h3_md_streaming_verify
FN:637,_RNCINvMs4_NtCs6ZJAmc5l35e_5lb_l78h1_proxyNtB8_7H1Proxy28serve_connection_with_cancelNtNtNtNtCsfWKKmeeA0Vo_5tokio3net3tcp6stream9TcpStreamE0CshaCDYBu2GsK_24h1h3_md_streaming_verify
FN:669,_RNCINvMs4_NtCs6ZJAmc5l35e_5lb_l78h1_proxyNtB8_7H1Proxy32serve_connection_with_cancel_sniNtNtNtNtCsfWKKmeeA0Vo_5tokio3net3tcp6stream9TcpStreamE0CshaCDYBu2GsK_24h1h3_md_streaming_verify
FN:594,_RINvMs4_NtCs6ZJAmc5l35e_5lb_l78h1_proxyNtB6_7H1Proxy16serve_connectionINtNtCs7m3feRqGqA4_12tokio_rustls6server9TlsStreamNtNtNtNtCsfWKKmeeA0Vo_5tokio3net3tcp6stream9TcpStreamEECsh67KVgTJPQh_12h2_proxy_e2e
FN:629,_RINvMs4_NtCs6ZJAmc5l35e_5lb_l78h1_proxyNtB6_7H1Proxy28serve_connection_with_cancelINtNtCs7m3feRqGqA4_12tokio_rustls6server9TlsStreamNtNtNtNtCsfWKKmeeA0Vo_5tokio3net3tcp6stream9TcpStreamEECsh67KVgTJPQh_12h2_proxy_e2e
FN:660,_RINvMs4_NtCs6ZJAmc5l35e_5lb_l78h1_proxyNtB6_7H1Proxy32serve_connection_with_cancel_sniINtNtCs7m3feRqGqA4_12tokio_rustls6server9TlsStreamNtNtNtNtCsfWKKmeeA0Vo_5tokio3net3tcp6stream9TcpStreamEECsh67KVgTJPQh_12h2_proxy_e2e
FN:597,_RNCINvMs4_NtCs6ZJAmc5l35e_5lb_l78h1_proxyNtB8_7H1Proxy16serve_connectionINtNtCs7m3feRqGqA4_12tokio_rustls6server9TlsStreamNtNtNtNtCsfWKKmeeA0Vo_5tokio3net3tcp6stream9TcpStreamEE0Csh67KVgTJPQh_12h2_proxy_e2e
FN:637,_RNCINvMs4_NtCs6ZJAmc5l35e_5lb_l78h1_proxyNtB8_7H1Proxy28serve_connection_with_cancelINtNtCs7m3feRqGqA4_12tokio_rustls6server9TlsStreamNtNtNtNtCsfWKKmeeA0Vo_5tokio3net3tcp6stream9TcpStreamEE0Csh67KVgTJPQh_12h2_proxy_e2e
FN:669,_RNCINvMs4_NtCs6ZJAmc5l35e_5lb_l78h1_proxyNtB8_7H1Proxy32serve_connection_with_cancel_sniINtNtCs7m3feRqGqA4_12tokio_rustls6server9TlsStreamNtNtNtNtCsfWKKmeeA0Vo_5tokio3net3tcp6stream9TcpStreamEE0Csh67KVgTJPQh_12h2_proxy_e2e
FN:594,_RINvMs4_NtCs6ZJAmc5l35e_5lb_l78h1_proxyNtB6_7H1Proxy16serve_connectionINtNtCs7m3feRqGqA4_12tokio_rustls6server9TlsStreamNtNtNtNtCsfWKKmeeA0Vo_5tokio3net3tcp6stream9TcpStreamEECs9kij9MV5WNj_32h2_rapid_reset_goaway_under_load
FN:629,_RINvMs4_NtCs6ZJAmc5l35e_5lb_l78h1_proxyNtB6_7H1Proxy28serve_connection_with_cancelINtNtCs7m3feRqGqA4_12tokio_rustls6server9TlsStreamNtNtNtNtCsfWKKmeeA0Vo_5tokio3net3tcp6stream9TcpStreamEECs9kij9MV5WNj_32h2_rapid_reset_goaway_under_load
FN:660,_RINvMs4_NtCs6ZJAmc5l35e_5lb_l78h1_proxyNtB6_7H1Proxy32serve_connection_with_cancel_sniINtNtCs7m3feRqGqA4_12tokio_rustls6server9TlsStreamNtNtNtNtCsfWKKmeeA0Vo_5tokio3net3tcp6stream9TcpStreamEECs9kij9MV5WNj_32h2_rapid_reset_goaway_under_load
FN:597,_RNCINvMs4_NtCs6ZJAmc5l35e_5lb_l78h1_proxyNtB8_7H1Proxy16serve_connectionINtNtCs7m3feRqGqA4_12tokio_rustls6server9TlsStreamNtNtNtNtCsfWKKmeeA0Vo_5tokio3net3tcp6stream9TcpStreamEE0Cs9kij9MV5WNj_32h2_rapid_reset_goaway_under_load
FN:637,_RNCINvMs4_NtCs6ZJAmc5l35e_5lb_l78h1_proxyNtB8_7H1Proxy28serve_connection_with_cancelINtNtCs7m3feRqGqA4_12tokio_rustls6server9TlsStreamNtNtNtNtCsfWKKmeeA0Vo_5tokio3net3tcp6stream9TcpStreamEE0Cs9kij9MV5WNj_32h2_rapid_reset_goaway_under_load
FN:669,_RNCINvMs4_NtCs6ZJAmc5l35e_5lb_l78h1_proxyNtB8_7H1Proxy32serve_connection_with_cancel_sniINtNtCs7m3feRqGqA4_12tokio_rustls6server9TlsStreamNtNtNtNtCsfWKKmeeA0Vo_5tokio3net3tcp6stream9TcpStreamEE0Cs9kij9MV5WNj_32h2_rapid_reset_goaway_under_load
FN:594,_RINvMs4_NtCs6ZJAmc5l35e_5lb_l78h1_proxyNtB6_7H1Proxy16serve_connectionINtNtCs7m3feRqGqA4_12tokio_rustls6server9TlsStreamNtNtNtNtCsfWKKmeeA0Vo_5tokio3net3tcp6stream9TcpStreamEECsjnAyk1lmpQR_16h2_security_live
FN:629,_RINvMs4_NtCs6ZJAmc5l35e_5lb_l78h1_proxyNtB6_7H1Proxy28serve_connection_with_cancelINtNtCs7m3feRqGqA4_12tokio_rustls6server9TlsStreamNtNtNtNtCsfWKKmeeA0Vo_5tokio3net3tcp6stream9TcpStreamEECsjnAyk1lmpQR_16h2_security_live
FN:660,_RINvMs4_NtCs6ZJAmc5l35e_5lb_l78h1_proxyNtB6_7H1Proxy32serve_connection_with_cancel_sniINtNtCs7m3feRqGqA4_12tokio_rustls6server9TlsStreamNtNtNtNtCsfWKKmeeA0Vo_5tokio3net3tcp6stream9TcpStreamEECsjnAyk1lmpQR_16h2_security_live
FN:597,_RNCINvMs4_NtCs6ZJAmc5l35e_5lb_l78h1_proxyNtB8_7H1Proxy16serve_connectionINtNtCs7m3feRqGqA4_12tokio_rustls6server9TlsStreamNtNtNtNtCsfWKKmeeA0Vo_5tokio3net3tcp6stream9TcpStreamEE0CsjnAyk1lmpQR_16h2_security_live
FN:637,_RNCINvMs4_NtCs6ZJAmc5l35e_5lb_l78h1_proxyNtB8_7H1Proxy28serve_connection_with_cancelINtNtCs7m3feRqGqA4_12tokio_rustls6server9TlsStreamNtNtNtNtCsfWKKmeeA0Vo_5tokio3net3tcp6stream9TcpStreamEE0CsjnAyk1lmpQR_16h2_security_live
FN:669,_RNCINvMs4_NtCs6ZJAmc5l35e_5lb_l78h1_proxyNtB8_7H1Proxy32serve_connection_with_cancel_sniINtNtCs7m3feRqGqA4_12tokio_rustls6server9TlsStreamNtNtNtNtCsfWKKmeeA0Vo_5tokio3net3tcp6stream9TcpStreamEE0CsjnAyk1lmpQR_16h2_security_live
FN:594,_RINvMs4_NtCs6ZJAmc5l35e_5lb_l78h1_proxyNtB6_7H1Proxy16serve_connectionINtNtCs7m3feRqGqA4_12tokio_rustls6server9TlsStreamNtNtNtNtCsfWKKmeeA0Vo_5tokio3net3tcp6stream9TcpStreamEECsdh65SmFEAMO_28h2_validation_before_forward
FN:629,_RINvMs4_NtCs6ZJAmc5l35e_5lb_l78h1_proxyNtB6_7H1Proxy28serve_connection_with_cancelINtNtCs7m3feRqGqA4_12tokio_rustls6server9TlsStreamNtNtNtNtCsfWKKmeeA0Vo_5tokio3net3tcp6stream9TcpStreamEECsdh65SmFEAMO_28h2_validation_before_forward
FN:660,_RINvMs4_NtCs6ZJAmc5l35e_5lb_l78h1_proxyNtB6_7H1Proxy32serve_connection_with_cancel_sniINtNtCs7m3feRqGqA4_12tokio_rustls6server9TlsStreamNtNtNtNtCsfWKKmeeA0Vo_5tokio3net3tcp6stream9TcpStreamEECsdh65SmFEAMO_28h2_validation_before_forward
FN:597,_RNCINvMs4_NtCs6ZJAmc5l35e_5lb_l78h1_proxyNtB8_7H1Proxy16serve_connectionINtNtCs7m3feRqGqA4_12tokio_rustls6server9TlsStreamNtNtNtNtCsfWKKmeeA0Vo_5tokio3net3tcp6stream9TcpStreamEE0Csdh65SmFEAMO_28h2_validation_before_forward
FN:637,_RNCINvMs4_NtCs6ZJAmc5l35e_5lb_l78h1_proxyNtB8_7H1Proxy28serve_connection_with_cancelINtNtCs7m3feRqGqA4_12tokio_rustls6server9TlsStreamNtNtNtNtCsfWKKmeeA0Vo_5tokio3net3tcp6stream9TcpStreamEE0Csdh65SmFEAMO_28h2_validation_before_forward
FN:669,_RNCINvMs4_NtCs6ZJAmc5l35e_5lb_l78h1_proxyNtB8_7H1Proxy32serve_connection_with_cancel_sniINtNtCs7m3feRqGqA4_12tokio_rustls6server9TlsStreamNtNtNtNtCsfWKKmeeA0Vo_5tokio3net3tcp6stream9TcpStreamEE0Csdh65SmFEAMO_28h2_validation_before_forward
FN:594,_RINvMs4_NtCs6ZJAmc5l35e_5lb_l78h1_proxyNtB6_7H1Proxy16serve_connectionINtNtCs7m3feRqGqA4_12tokio_rustls6server9TlsStreamNtNtNtNtCsfWKKmeeA0Vo_5tokio3net3tcp6stream9TcpStreamEECs73VvMAfNUoD_23h2h1_md_coverage_driver
FN:629,_RINvMs4_NtCs6ZJAmc5l35e_5lb_l78h1_proxyNtB6_7H1Proxy28serve_connection_with_cancelINtNtCs7m3feRqGqA4_12tokio_rustls6server9TlsStreamNtNtNtNtCsfWKKmeeA0Vo_5tokio3net3tcp6stream9TcpStreamEECs73VvMAfNUoD_23h2h1_md_coverage_driver
FN:660,_RINvMs4_NtCs6ZJAmc5l35e_5lb_l78h1_proxyNtB6_7H1Proxy32serve_connection_with_cancel_sniINtNtCs7m3feRqGqA4_12tokio_rustls6server9TlsStreamNtNtNtNtCsfWKKmeeA0Vo_5tokio3net3tcp6stream9TcpStreamEECs73VvMAfNUoD_23h2h1_md_coverage_driver
FN:597,_RNCINvMs4_NtCs6ZJAmc5l35e_5lb_l78h1_proxyNtB8_7H1Proxy16serve_connectionINtNtCs7m3feRqGqA4_12tokio_rustls6server9TlsStreamNtNtNtNtCsfWKKmeeA0Vo_5tokio3net3tcp6stream9TcpStreamEE0Cs73VvMAfNUoD_23h2h1_md_coverage_driver
FN:637,_RNCINvMs4_NtCs6ZJAmc5l35e_5lb_l78h1_proxyNtB8_7H1Proxy28serve_connection_with_cancelINtNtCs7m3feRqGqA4_12tokio_rustls6server9TlsStreamNtNtNtNtCsfWKKmeeA0Vo_5tokio3net3tcp6stream9TcpStreamEE0Cs73VvMAfNUoD_23h2h1_md_coverage_driver
FN:669,_RNCINvMs4_NtCs6ZJAmc5l35e_5lb_l78h1_proxyNtB8_7H1Proxy32serve_connection_with_cancel_sniINtNtCs7m3feRqGqA4_12tokio_rustls6server9TlsStreamNtNtNtNtCsfWKKmeeA0Vo_5tokio3net3tcp6stream9TcpStreamEE0Cs73VvMAfNUoD_23h2h1_md_coverage_driver
FN:594,_RINvMs4_NtCs6ZJAmc5l35e_5lb_l78h1_proxyNtB6_7H1Proxy16serve_connectionINtNtCs7m3feRqGqA4_12tokio_rustls6server9TlsStreamNtNtNtNtCsfWKKmeeA0Vo_5tokio3net3tcp6stream9TcpStreamEECsb7vxiqqaUW_24h2h1_md_streaming_verify
FN:629,_RINvMs4_NtCs6ZJAmc5l35e_5lb_l78h1_proxyNtB6_7H1Proxy28serve_connection_with_cancelINtNtCs7m3feRqGqA4_12tokio_rustls6server9TlsStreamNtNtNtNtCsfWKKmeeA0Vo_5tokio3net3tcp6stream9TcpStreamEECsb7vxiqqaUW_24h2h1_md_streaming_verify
FN:660,_RINvMs4_NtCs6ZJAmc5l35e_5lb_l78h1_proxyNtB6_7H1Proxy32serve_connection_with_cancel_sniINtNtCs7m3feRqGqA4_12tokio_rustls6server9TlsStreamNtNtNtNtCsfWKKmeeA0Vo_5tokio3net3tcp6stream9TcpStreamEECsb7vxiqqaUW_24h2h1_md_streaming_verify
FN:597,_RNCINvMs4_NtCs6ZJAmc5l35e_5lb_l78h1_proxyNtB8_7H1Proxy16serve_connectionINtNtCs7m3feRqGqA4_12tokio_rustls6server9TlsStreamNtNtNtNtCsfWKKmeeA0Vo_5tokio3net3tcp6stream9TcpStreamEE0Csb7vxiqqaUW_24h2h1_md_streaming_verify
FN:637,_RNCINvMs4_NtCs6ZJAmc5l35e_5lb_l78h1_proxyNtB8_7H1Proxy28serve_connection_with_cancelINtNtCs7m3feRqGqA4_12tokio_rustls6server9TlsStreamNtNtNtNtCsfWKKmeeA0Vo_5tokio3net3tcp6stream9TcpStreamEE0Csb7vxiqqaUW_24h2h1_md_streaming_verify
FN:669,_RNCINvMs4_NtCs6ZJAmc5l35e_5lb_l78h1_proxyNtB8_7H1Proxy32serve_connection_with_cancel_sniINtNtCs7m3feRqGqA4_12tokio_rustls6server9TlsStreamNtNtNtNtCsfWKKmeeA0Vo_5tokio3net3tcp6stream9TcpStreamEE0Csb7vxiqqaUW_24h2h1_md_streaming_verify
FN:594,_RINvMs4_NtCs6ZJAmc5l35e_5lb_l78h1_proxyNtB6_7H1Proxy16serve_connectionINtNtCs7m3feRqGqA4_12tokio_rustls6server9TlsStreamNtNtNtNtCsfWKKmeeA0Vo_5tokio3net3tcp6stream9TcpStreamEECshyQSFE8JoQS_6h2spec
FN:629,_RINvMs4_NtCs6ZJAmc5l35e_5lb_l78h1_proxyNtB6_7H1Proxy28serve_connection_with_cancelINtNtCs7m3feRqGqA4_12tokio_rustls6server9TlsStreamNtNtNtNtCsfWKKmeeA0Vo_5tokio3net3tcp6stream9TcpStreamEECshyQSFE8JoQS_6h2spec
FN:660,_RINvMs4_NtCs6ZJAmc5l35e_5lb_l78h1_proxyNtB6_7H1Proxy32serve_connection_with_cancel_sniINtNtCs7m3feRqGqA4_12tokio_rustls6server9TlsStreamNtNtNtNtCsfWKKmeeA0Vo_5tokio3net3tcp6stream9TcpStreamEECshyQSFE8JoQS_6h2spec
FN:597,_RNCINvMs4_NtCs6ZJAmc5l35e_5lb_l78h1_proxyNtB8_7H1Proxy16serve_connectionINtNtCs7m3feRqGqA4_12tokio_rustls6server9TlsStreamNtNtNtNtCsfWKKmeeA0Vo_5tokio3net3tcp6stream9TcpStreamEE0CshyQSFE8JoQS_6h2spec
FN:637,_RNCINvMs4_NtCs6ZJAmc5l35e_5lb_l78h1_proxyNtB8_7H1Proxy28serve_connection_with_cancelINtNtCs7m3feRqGqA4_12tokio_rustls6server9TlsStreamNtNtNtNtCsfWKKmeeA0Vo_5tokio3net3tcp6stream9TcpStreamEE0CshyQSFE8JoQS_6h2spec
FN:669,_RNCINvMs4_NtCs6ZJAmc5l35e_5lb_l78h1_proxyNtB8_7H1Proxy32serve_connection_with_cancel_sniINtNtCs7m3feRqGqA4_12tokio_rustls6server9TlsStreamNtNtNtNtCsfWKKmeeA0Vo_5tokio3net3tcp6stream9TcpStreamEE0CshyQSFE8JoQS_6h2spec
FN:594,_RINvMs4_NtCs6ZJAmc5l35e_5lb_l78h1_proxyNtB6_7H1Proxy16serve_connectionINtNtCs7m3feRqGqA4_12tokio_rustls6server9TlsStreamNtNtNtNtCsfWKKmeeA0Vo_5tokio3net3tcp6stream9TcpStreamEECs7AsNjy3CYYg_25h2spec_server_conformance
FN:629,_RINvMs4_NtCs6ZJAmc5l35e_5lb_l78h1_proxyNtB6_7H1Proxy28serve_connection_with_cancelINtNtCs7m3feRqGqA4_12tokio_rustls6server9TlsStreamNtNtNtNtCsfWKKmeeA0Vo_5tokio3net3tcp6stream9TcpStreamEECs7AsNjy3CYYg_25h2spec_server_conformance
FN:660,_RINvMs4_NtCs6ZJAmc5l35e_5lb_l78h1_proxyNtB6_7H1Proxy32serve_connection_with_cancel_sniINtNtCs7m3feRqGqA4_12tokio_rustls6server9TlsStreamNtNtNtNtCsfWKKmeeA0Vo_5tokio3net3tcp6stream9TcpStreamEECs7AsNjy3CYYg_25h2spec_server_conformance
FN:597,_RNCINvMs4_NtCs6ZJAmc5l35e_5lb_l78h1_proxyNtB8_7H1Proxy16serve_connectionINtNtCs7m3feRqGqA4_12tokio_rustls6server9TlsStreamNtNtNtNtCsfWKKmeeA0Vo_5tokio3net3tcp6stream9TcpStreamEE0Cs7AsNjy3CYYg_25h2spec_server_conformance
FN:637,_RNCINvMs4_NtCs6ZJAmc5l35e_5lb_l78h1_proxyNtB8_7H1Proxy28serve_connection_with_cancelINtNtCs7m3feRqGqA4_12tokio_rustls6server9TlsStreamNtNtNtNtCsfWKKmeeA0Vo_5tokio3net3tcp6stream9TcpStreamEE0Cs7AsNjy3CYYg_25h2spec_server_conformance
FN:669,_RNCINvMs4_NtCs6ZJAmc5l35e_5lb_l78h1_proxyNtB8_7H1Proxy32serve_connection_with_cancel_sniINtNtCs7m3feRqGqA4_12tokio_rustls6server9TlsStreamNtNtNtNtCsfWKKmeeA0Vo_5tokio3net3tcp6stream9TcpStreamEE0Cs7AsNjy3CYYg_25h2spec_server_conformance
FN:594,_RINvMs4_NtCsddhi0hNOal7_5lb_l78h1_proxyNtB6_7H1Proxy16serve_connectionpEB8_
FN:597,_RNCINvMs4_NtCsddhi0hNOal7_5lb_l78h1_proxyNtB8_7H1Proxy16serve_connectionpE0Ba_
FN:3121,_RNCNvNtCsddhi0hNOal7_5lb_l78h1_proxy31build_h1_response_with_trailers0B5_
FN:3144,_RNCNvNtCsddhi0hNOal7_5lb_l78h1_proxy31build_h1_response_with_trailerss0_0B5_
FN:3142,_RNCNvNtCsddhi0hNOal7_5lb_l78h1_proxy31build_h1_response_with_trailerss_0B5_
FN:468,_RNvMs4_NtCsddhi0hNOal7_5lb_l78h1_proxyNtB5_7H1Proxy10with_hooks
FN:483,_RNvMs4_NtCsddhi0hNOal7_5lb_l78h1_proxyNtB5_7H1Proxy13with_watchdog
FN:576,_RNvMs4_NtCsddhi0hNOal7_5lb_l78h1_proxyNtB5_7H1Proxy14with_websocket
FN:541,_RNvMs4_NtCsddhi0hNOal7_5lb_l78h1_proxyNtB5_7H1Proxy15has_h2_upstream
FN:548,_RNvMs4_NtCsddhi0hNOal7_5lb_l78h1_proxyNtB5_7H1Proxy15has_h3_upstream
FN:524,_RNvMs4_NtCsddhi0hNOal7_5lb_l78h1_proxyNtB5_7H1Proxy16with_h2_upstream
FN:532,_RNvMs4_NtCsddhi0hNOal7_5lb_l78h1_proxyNtB5_7H1Proxy16with_h3_upstream
FN:431,_RNvMs4_NtCsddhi0hNOal7_5lb_l78h1_proxyNtB5_7H1Proxy16with_multi_proto
FN:516,_RNvMs4_NtCsddhi0hNOal7_5lb_l78h1_proxyNtB5_7H1Proxy17with_expected_sni
FN:493,_RNvMs4_NtCsddhi0hNOal7_5lb_l78h1_proxyNtB5_7H1Proxy19with_smuggle_strict
FN:557,_RNvMs4_NtCsddhi0hNOal7_5lb_l78h1_proxyNtB5_7H1Proxy27with_max_keepalive_requests
FN:504,_RNvMs4_NtCsddhi0hNOal7_5lb_l78h1_proxyNtB5_7H1Proxy29with_header_underscore_policy
FN:567,_RNvMs4_NtCsddhi0hNOal7_5lb_l78h1_proxyNtB5_7H1Proxy33keepalive_cap_termination_counter
FN:3085,_RNvNtCsddhi0hNOal7_5lb_l78h1_proxy31build_h1_response_with_trailers
FN:3356,_RNCNvNtNtCsddhi0hNOal7_5lb_l78h1_proxy5testss_23via_two_lines_preserved0B7_
FN:3332,_RNCNvNtNtCsddhi0hNOal7_5lb_l78h1_proxy5testss_35x_forwarded_for_two_lines_preserved0B7_
FN:3431,_RNCNvNtNtCsddhi0hNOal7_5lb_l78h1_proxy5testss_42test_sigterm_h1_graceful_shutdown_resolves0B7_
FN:3263,_RNvNtNtCsddhi0hNOal7_5lb_l78h1_proxy5tests8map_with
FN:3365,_RNvNtNtCsddhi0hNOal7_5lb_l78h1_proxy5testss_12via_appended
FN:3348,_RNvNtNtCsddhi0hNOal7_5lb_l78h1_proxy5testss_23via_two_lines_preserved
FN:3295,_RNvNtNtCsddhi0hNOal7_5lb_l78h1_proxy5testss_24x_forwarded_for_appended
FN:3407,_RNvNtNtCsddhi0hNOal7_5lb_l78h1_proxy5testss_25round_robin_picker_cycles
FN:3417,_RNvNtNtCsddhi0hNOal7_5lb_l78h1_proxy5testss_30round_robin_empty_returns_none
FN:3372,_RNvNtNtCsddhi0hNOal7_5lb_l78h1_proxy5testss_32alt_svc_injected_when_configured
FN:3384,_RNvNtNtCsddhi0hNOal7_5lb_l78h1_proxy5testss_34alt_svc_absent_when_not_configured
FN:3303,_RNvNtNtCsddhi0hNOal7_5lb_l78h1_proxy5testss_35x_forwarded_for_created_when_absent
FN:3317,_RNvNtNtCsddhi0hNOal7_5lb_l78h1_proxy5testss_35x_forwarded_for_two_lines_preserved
FN:3275,_RNvNtNtCsddhi0hNOal7_5lb_l78h1_proxy5testss_40hop_by_hop_headers_stripped_from_request
FN:3431,_RNvNtNtCsddhi0hNOal7_5lb_l78h1_proxy5testss_42test_sigterm_h1_graceful_shutdown_resolves
FN:3390,_RNvNtNtCsddhi0hNOal7_5lb_l78h1_proxy5testss_65hop_by_hop_response_strips_te_and_transfer_encoding_keeps_trailer
FN:201,_RNvMs0_NtCsddhi0hNOal7_5lb_l78h1_proxyNtB5_12AltSvcConfig12header_value
FN:278,_RNvMs2_NtCsddhi0hNOal7_5lb_l78h1_proxyNtB5_15RoundRobinAddrs3new
FN:387,_RNvMs4_NtCsddhi0hNOal7_5lb_l78h1_proxyNtB5_7H1Proxy3new
FN:874,_RNvMs6_NtCsddhi0hNOal7_5lb_l78h1_proxyNtB5_7H1Proxy12handle_inner
FN:1196,_RNvMs6_NtCsddhi0hNOal7_5lb_l78h1_proxyNtB5_7H1Proxy13proxy_request
FN:2033,_RNvMs6_NtCsddhi0hNOal7_5lb_l78h1_proxyNtB5_7H1Proxy14proxy_h1_to_h2
FN:2100,_RNvMs6_NtCsddhi0hNOal7_5lb_l78h1_proxyNtB5_7H1Proxy14proxy_h1_to_h3
FN:2529,_RNvMs6_NtCsddhi0hNOal7_5lb_l78h1_proxyNtB5_7H1Proxy17finalize_response
FN:2409,_RNvMs6_NtCsddhi0hNOal7_5lb_l78h1_proxyNtB5_7H1Proxy17handle_ws_upgrade
FN:1673,_RNvMs6_NtCsddhi0hNOal7_5lb_l78h1_proxyNtB5_7H1Proxy22proxy_h1_to_h2_request
FN:842,_RNvMs6_NtCsddhi0hNOal7_5lb_l78h1_proxyNtB5_7H1Proxy6handle
FN:2772,_RNvNtCsddhi0hNOal7_5lb_l78h1_proxy10append_via
FN:2732,_RNvNtCsddhi0hNOal7_5lb_l78h1_proxy10append_xff
FN:2654,_RNvNtCsddhi0hNOal7_5lb_l78h1_proxy14error_response
FN:2893,_RNvNtCsddhi0hNOal7_5lb_l78h1_proxy16concat_h1_chunks
FN:2574,_RNvNtCsddhi0hNOal7_5lb_l78h1_proxy16dial_upstream_ws
FN:2698,_RNvNtCsddhi0hNOal7_5lb_l78h1_proxy16strip_hop_by_hop
FN:2879,_RNvNtCsddhi0hNOal7_5lb_l78h1_proxy18h1_to_h2_proxy_err
FN:3241,_RNvNtCsddhi0hNOal7_5lb_l78h1_proxy18record_retained_h1
FN:2678,_RNvNtCsddhi0hNOal7_5lb_l78h1_proxy18reject_to_response
FN:2633,_RNvNtCsddhi0hNOal7_5lb_l78h1_proxy21run_h1_ws_splice_task
FN:3019,_RNvNtCsddhi0hNOal7_5lb_l78h1_proxy23upstream_response_to_h1
FN:2955,_RNvNtCsddhi0hNOal7_5lb_l78h1_proxy24build_body_with_trailers
FN:3158,_RNvNtCsddhi0hNOal7_5lb_l78h1_proxy24build_h1_to_h3_fieldlist
FN:2943,_RNvNtCsddhi0hNOal7_5lb_l78h1_proxy27build_h1_streaming_response
FN:2917,_RNvNtCsddhi0hNOal7_5lb_l78h1_proxy28h3_decoded_resp_head_builder
FN:166,_RNvNtCsddhi0hNOal7_5lb_l78h1_proxy28validate_h1_request_trailers
FN:2814,_RNvNtCsddhi0hNOal7_5lb_l78h1_proxy29build_h1_to_h2_upstream_parts
FN:2761,_RNvNtCsddhi0hNOal7_5lb_l78h1_proxy7set_xfh
FN:2753,_RNvNtCsddhi0hNOal7_5lb_l78h1_proxy7set_xfp
FN:141,_RNvXNtCsddhi0hNOal7_5lb_l78h1_proxyNtB2_11H1PumpAbortNtNtCs2va5m0jqTTM_4core3fmt7Display3fmt
FN:227,_RNvXs1_NtCsddhi0hNOal7_5lb_l78h1_proxyNtB5_12HttpTimeoutsNtNtCs2va5m0jqTTM_4core7default7Default7default
FN:290,_RNvXs3_NtCsddhi0hNOal7_5lb_l78h1_proxyNtB5_15RoundRobinAddrsNtB5_13BackendPicker4pick
FN:791,_RNvXs5_NtCsddhi0hNOal7_5lb_l78h1_proxyNtB5_12ProxyServiceINtNtNtCsgB3dp6qvXvn_5hyper7service7service7ServiceINtNtCsjFxw70quGA5_4http7request7RequestNtNtNtB10_4body8incoming8IncomingEE4call
FN:629,_RINvMs4_NtCsddhi0hNOal7_5lb_l78h1_proxyNtB6_7H1Proxy28serve_connection_with_cancelNtNtNtNtCsfWKKmeeA0Vo_5tokio2io4util3mem12DuplexStreamEB8_
FN:660,_RINvMs4_NtCsddhi0hNOal7_5lb_l78h1_proxyNtB6_7H1Proxy32serve_connection_with_cancel_sniNtNtNtNtCsfWKKmeeA0Vo_5tokio2io4util3mem12DuplexStreamEB8_
FN:637,_RNCINvMs4_NtCsddhi0hNOal7_5lb_l78h1_proxyNtB8_7H1Proxy28serve_connection_with_cancelNtNtNtNtCsfWKKmeeA0Vo_5tokio2io4util3mem12DuplexStreamE0Ba_
FN:669,_RNCINvMs4_NtCsddhi0hNOal7_5lb_l78h1_proxyNtB8_7H1Proxy32serve_connection_with_cancel_sniNtNtNtNtCsfWKKmeeA0Vo_5tokio2io4util3mem12DuplexStreamE0Ba_
FN:2214,_RNCNCNCNCNCNvMs6_NtCsddhi0hNOal7_5lb_l78h1_proxyNtBf_7H1Proxy14proxy_h1_to_h300000Bh_
FN:2213,_RNCNCNCNCNvMs6_NtCsddhi0hNOal7_5lb_l78h1_proxyNtBd_7H1Proxy14proxy_h1_to_h30000Bf_
FN:1769,_RNCNCNCNCNvMs6_NtCsddhi0hNOal7_5lb_l78h1_proxyNtBd_7H1Proxy22proxy_h1_to_h2_request0000Bf_
FN:1067,_RNCNCNCNvMs6_NtCsddhi0hNOal7_5lb_l78h1_proxyNtBb_7H1Proxy12handle_inner0s5_00Bd_
FN:1101,_RNCNCNCNvMs6_NtCsddhi0hNOal7_5lb_l78h1_proxyNtBb_7H1Proxy12handle_inner0s6_00Bd_
FN:1325,_RNCNCNCNvMs6_NtCsddhi0hNOal7_5lb_l78h1_proxyNtBb_7H1Proxy13proxy_request0s3_00Bd_
FN:1334,_RNCNCNCNvMs6_NtCsddhi0hNOal7_5lb_l78h1_proxyNtBb_7H1Proxy13proxy_request0s3_0s_0Bd_
FN:2211,_RNCNCNCNvMs6_NtCsddhi0hNOal7_5lb_l78h1_proxyNtBb_7H1Proxy14proxy_h1_to_h3000Bd_
FN:1766,_RNCNCNCNvMs6_NtCsddhi0hNOal7_5lb_l78h1_proxyNtBb_7H1Proxy22proxy_h1_to_h2_request000Bd_
FN:1839,_RNCNCNCNvMs6_NtCsddhi0hNOal7_5lb_l78h1_proxyNtBb_7H1Proxy22proxy_h1_to_h2_request0s2_00Bd_
FN:1844,_RNCNCNCNvMs6_NtCsddhi0hNOal7_5lb_l78h1_proxyNtBb_7H1Proxy22proxy_h1_to_h2_request0s2_0s_0Bd_
FN:919,_RNCNCNvMs6_NtCsddhi0hNOal7_5lb_l78h1_proxyNtB9_7H1Proxy12handle_inner00Bb_
FN:942,_RNCNCNvMs6_NtCsddhi0hNOal7_5lb_l78h1_proxyNtB9_7H1Proxy12handle_inner0s0_0Bb_
FN:970,_RNCNCNvMs6_NtCsddhi0hNOal7_5lb_l78h1_proxyNtB9_7H1Proxy12handle_inner0s1_0Bb_
FN:982,_RNCNCNvMs6_NtCsddhi0hNOal7_5lb_l78h1_proxyNtB9_7H1Proxy12handle_inner0s2_0Bb_
FN:1010,_RNCNCNvMs6_NtCsddhi0hNOal7_5lb_l78h1_proxyNtB9_7H1Proxy12handle_inner0s3_0Bb_
FN:1037,_RNCNCNvMs6_NtCsddhi0hNOal7_5lb_l78h1_proxyNtB9_7H1Proxy12handle_inner0s4_0Bb_
FN:1064,_RNCNCNvMs6_NtCsddhi0hNOal7_5lb_l78h1_proxyNtB9_7H1Proxy12handle_inner0s5_0Bb_
FN:1085,_RNCNCNvMs6_NtCsddhi0hNOal7_5lb_l78h1_proxyNtB9_7H1Proxy12handle_inner0s6_0Bb_
FN:1112,_RNCNCNvMs6_NtCsddhi0hNOal7_5lb_l78h1_proxyNtB9_7H1Proxy12handle_inner0s7_0Bb_
FN:920,_RNCNCNvMs6_NtCsddhi0hNOal7_5lb_l78h1_proxyNtB9_7H1Proxy12handle_inner0s_0Bb_
FN:1235,_RNCNCNvMs6_NtCsddhi0hNOal7_5lb_l78h1_proxyNtB9_7H1Proxy13proxy_request00Bb_
FN:1256,_RNCNCNvMs6_NtCsddhi0hNOal7_5lb_l78h1_proxyNtB9_7H1Proxy13proxy_request0s0_0Bb_
FN:1258,_RNCNCNvMs6_NtCsddhi0hNOal7_5lb_l78h1_proxyNtB9_7H1Proxy13proxy_request0s1_0Bb_
FN:1288,_RNCNCNvMs6_NtCsddhi0hNOal7_5lb_l78h1_proxyNtB9_7H1Proxy13proxy_request0s2_0Bb_
FN:1320,_RNCNCNvMs6_NtCsddhi0hNOal7_5lb_l78h1_proxyNtB9_7H1Proxy13proxy_request0s3_0Bb_
FN:1608,_RNCNCNvMs6_NtCsddhi0hNOal7_5lb_l78h1_proxyNtB9_7H1Proxy13proxy_request0s4_0Bb_
FN:1244,_RNCNCNvMs6_NtCsddhi0hNOal7_5lb_l78h1_proxyNtB9_7H1Proxy13proxy_request0s_0Bb_
FN:2146,_RNCNCNvMs6_NtCsddhi0hNOal7_5lb_l78h1_proxyNtB9_7H1Proxy14proxy_h1_to_h300Bb_
FN:2300,_RNCNCNvMs6_NtCsddhi0hNOal7_5lb_l78h1_proxyNtB9_7H1Proxy14proxy_h1_to_h30s0_0Bb_
FN:2339,_RNCNCNvMs6_NtCsddhi0hNOal7_5lb_l78h1_proxyNtB9_7H1Proxy14proxy_h1_to_h30s1_0Bb_
FN:2350,_RNCNCNvMs6_NtCsddhi0hNOal7_5lb_l78h1_proxyNtB9_7H1Proxy14proxy_h1_to_h30s2_0Bb_
FN:2271,_RNCNCNvMs6_NtCsddhi0hNOal7_5lb_l78h1_proxyNtB9_7H1Proxy14proxy_h1_to_h30s_0Bb_
FN:2436,_RNCNCNvMs6_NtCsddhi0hNOal7_5lb_l78h1_proxyNtB9_7H1Proxy17handle_ws_upgrade00Bb_
FN:2509,_RNCNCNvMs6_NtCsddhi0hNOal7_5lb_l78h1_proxyNtB9_7H1Proxy17handle_ws_upgrade0s0_0Bb_
FN:2510,_RNCNCNvMs6_NtCsddhi0hNOal7_5lb_l78h1_proxyNtB9_7H1Proxy17handle_ws_upgrade0s1_0Bb_
FN:2512,_RNCNCNvMs6_NtCsddhi0hNOal7_5lb_l78h1_proxyNtB9_7H1Proxy17handle_ws_upgrade0s2_0Bb_
FN:2513,_RNCNCNvMs6_NtCsddhi0hNOal7_5lb_l78h1_proxyNtB9_7H1Proxy17handle_ws_upgrade0s3_0Bb_
FN:2524,_RNCNCNvMs6_NtCsddhi0hNOal7_5lb_l78h1_proxyNtB9_7H1Proxy17handle_ws_upgrade0s5_0Bb_
FN:2440,_RNCNCNvMs6_NtCsddhi0hNOal7_5lb_l78h1_proxyNtB9_7H1Proxy17handle_ws_upgrade0s_0Bb_
FN:1764,_RNCNCNvMs6_NtCsddhi0hNOal7_5lb_l78h1_proxyNtB9_7H1Proxy22proxy_h1_to_h2_request00Bb_
FN:1807,_RNCNCNvMs6_NtCsddhi0hNOal7_5lb_l78h1_proxyNtB9_7H1Proxy22proxy_h1_to_h2_request0s0_0Bb_
FN:1816,_RNCNCNvMs6_NtCsddhi0hNOal7_5lb_l78h1_proxyNtB9_7H1Proxy22proxy_h1_to_h2_request0s1_0Bb_
FN:1838,_RNCNCNvMs6_NtCsddhi0hNOal7_5lb_l78h1_proxyNtB9_7H1Proxy22proxy_h1_to_h2_request0s2_0Bb_
FN:1782,_RNCNCNvMs6_NtCsddhi0hNOal7_5lb_l78h1_proxyNtB9_7H1Proxy22proxy_h1_to_h2_request0s_0Bb_
FN:2589,_RNCNCNvNtCsddhi0hNOal7_5lb_l78h1_proxy16dial_upstream_ws00B7_
FN:2596,_RNCNCNvNtCsddhi0hNOal7_5lb_l78h1_proxy16dial_upstream_ws0s0_0B7_
FN:2624,_RNCNCNvNtCsddhi0hNOal7_5lb_l78h1_proxy16dial_upstream_ws0s1_0B7_
FN:2592,_RNCNCNvNtCsddhi0hNOal7_5lb_l78h1_proxy16dial_upstream_ws0s_0B7_
FN:3183,_RNCNCNvNtCsddhi0hNOal7_5lb_l78h1_proxy24build_h1_to_h3_fieldlists1_00B7_
FN:2830,_RNCNCNvNtCsddhi0hNOal7_5lb_l78h1_proxy29build_h1_to_h2_upstream_partss_00B7_
FN:880,_RNCNvMs6_NtCsddhi0hNOal7_5lb_l78h1_proxyNtB7_7H1Proxy12handle_inner0B9_
FN:1200,_RNCNvMs6_NtCsddhi0hNOal7_5lb_l78h1_proxyNtB7_7H1Proxy13proxy_request0B9_
FN:2037,_RNCNvMs6_NtCsddhi0hNOal7_5lb_l78h1_proxyNtB7_7H1Proxy14proxy_h1_to_h20B9_
FN:2104,_RNCNvMs6_NtCsddhi0hNOal7_5lb_l78h1_proxyNtB7_7H1Proxy14proxy_h1_to_h30B9_
FN:2543,_RNCNvMs6_NtCsddhi0hNOal7_5lb_l78h1_proxyNtB7_7H1Proxy17finalize_response0B9_
FN:2413,_RNCNvMs6_NtCsddhi0hNOal7_5lb_l78h1_proxyNtB7_7H1Proxy17handle_ws_upgrade0B9_
FN:1678,_RNCNvMs6_NtCsddhi0hNOal7_5lb_l78h1_proxyNtB7_7H1Proxy22proxy_h1_to_h2_request0B9_
FN:847,_RNCNvMs6_NtCsddhi0hNOal7_5lb_l78h1_proxyNtB7_7H1Proxy6handle0B9_
FN:2582,_RNCNvNtCsddhi0hNOal7_5lb_l78h1_proxy16dial_upstream_ws0B5_
FN:2704,_RNCNvNtCsddhi0hNOal7_5lb_l78h1_proxy16strip_hop_by_hop0B5_
FN:2707,_RNCNvNtCsddhi0hNOal7_5lb_l78h1_proxy16strip_hop_by_hops0_0B5_
FN:2708,_RNCNvNtCsddhi0hNOal7_5lb_l78h1_proxy16strip_hop_by_hops1_0B5_
FN:2705,_RNCNvNtCsddhi0hNOal7_5lb_l78h1_proxy16strip_hop_by_hops_0B5_
FN:2637,_RNCNvNtCsddhi0hNOal7_5lb_l78h1_proxy21run_h1_ws_splice_task0B5_
FN:3055,_RNCNvNtCsddhi0hNOal7_5lb_l78h1_proxy23upstream_response_to_h10B5_
FN:3058,_RNCNvNtCsddhi0hNOal7_5lb_l78h1_proxy23upstream_response_to_h1s_0B5_
FN:3166,_RNCNvNtCsddhi0hNOal7_5lb_l78h1_proxy24build_h1_to_h3_fieldlist0B5_
FN:3175,_RNCNvNtCsddhi0hNOal7_5lb_l78h1_proxy24build_h1_to_h3_fieldlists0_0B5_
FN:3180,_RNCNvNtCsddhi0hNOal7_5lb_l78h1_proxy24build_h1_to_h3_fieldlists1_0B5_
FN:3187,_RNCNvNtCsddhi0hNOal7_5lb_l78h1_proxy24build_h1_to_h3_fieldlists2_0B5_
FN:3200,_RNCNvNtCsddhi0hNOal7_5lb_l78h1_proxy24build_h1_to_h3_fieldlists3_0B5_
FN:3204,_RNCNvNtCsddhi0hNOal7_5lb_l78h1_proxy24build_h1_to_h3_fieldlists4_0B5_
FN:3167,_RNCNvNtCsddhi0hNOal7_5lb_l78h1_proxy24build_h1_to_h3_fieldlists_0B5_
FN:2947,_RNCNvNtCsddhi0hNOal7_5lb_l78h1_proxy27build_h1_streaming_response0B5_
FN:177,_RNCNvNtCsddhi0hNOal7_5lb_l78h1_proxy28validate_h1_request_trailers0B5_
FN:2823,_RNCNvNtCsddhi0hNOal7_5lb_l78h1_proxy29build_h1_to_h2_upstream_parts0B5_
FN:2839,_RNCNvNtCsddhi0hNOal7_5lb_l78h1_proxy29build_h1_to_h2_upstream_partss0_0B5_
FN:2845,_RNCNvNtCsddhi0hNOal7_5lb_l78h1_proxy29build_h1_to_h2_upstream_partss1_0B5_
FN:2846,_RNCNvNtCsddhi0hNOal7_5lb_l78h1_proxy29build_h1_to_h2_upstream_partss2_0B5_
FN:2847,_RNCNvNtCsddhi0hNOal7_5lb_l78h1_proxy29build_h1_to_h2_upstream_partss3_0B5_
FN:2869,_RNCNvNtCsddhi0hNOal7_5lb_l78h1_proxy29build_h1_to_h2_upstream_partss4_0B5_
FN:2827,_RNCNvNtCsddhi0hNOal7_5lb_l78h1_proxy29build_h1_to_h2_upstream_partss_0B5_
FN:806,_RNCNvXs5_NtCsddhi0hNOal7_5lb_l78h1_proxyNtB7_12ProxyServiceINtNtNtCsgB3dp6qvXvn_5hyper7service7service7ServiceINtNtCsjFxw70quGA5_4http7request7RequestNtNtNtB12_4body8incoming8IncomingEE4call0B9_
FN:594,_RINvMs4_NtCs6ZJAmc5l35e_5lb_l78h1_proxyNtB6_7H1Proxy16serve_connectionNtNtNtNtCsfWKKmeeA0Vo_5tokio3net3tcp6stream9TcpStreamECskyWkMh8oLxU_21proto_translation_e2e
FN:629,_RINvMs4_NtCs6ZJAmc5l35e_5lb_l78h1_proxyNtB6_7H1Proxy28serve_connection_with_cancelNtNtNtNtCsfWKKmeeA0Vo_5tokio3net3tcp6stream9TcpStreamECskyWkMh8oLxU_21proto_translation_e2e
FN:660,_RINvMs4_NtCs6ZJAmc5l35e_5lb_l78h1_proxyNtB6_7H1Proxy32serve_connection_with_cancel_sniNtNtNtNtCsfWKKmeeA0Vo_5tokio3net3tcp6stream9TcpStreamECskyWkMh8oLxU_21proto_translation_e2e
FN:597,_RNCINvMs4_NtCs6ZJAmc5l35e_5lb_l78h1_proxyNtB8_7H1Proxy16serve_connectionNtNtNtNtCsfWKKmeeA0Vo_5tokio3net3tcp6stream9TcpStreamE0CskyWkMh8oLxU_21proto_translation_e2e
FN:637,_RNCINvMs4_NtCs6ZJAmc5l35e_5lb_l78h1_proxyNtB8_7H1Proxy28serve_connection_with_cancelNtNtNtNtCsfWKKmeeA0Vo_5tokio3net3tcp6stream9TcpStreamE0CskyWkMh8oLxU_21proto_translation_e2e
FN:669,_RNCINvMs4_NtCs6ZJAmc5l35e_5lb_l78h1_proxyNtB8_7H1Proxy32serve_connection_with_cancel_sniNtNtNtNtCsfWKKmeeA0Vo_5tokio3net3tcp6stream9TcpStreamE0CskyWkMh8oLxU_21proto_translation_e2e
FN:594,_RINvMs4_NtCs6ZJAmc5l35e_5lb_l78h1_proxyNtB6_7H1Proxy16serve_connectionNtNtNtNtCsfWKKmeeA0Vo_5tokio3net3tcp6stream9TcpStreamECsj6PmBtcNvrc_25round8_authority_enforced
FN:629,_RINvMs4_NtCs6ZJAmc5l35e_5lb_l78h1_proxyNtB6_7H1Proxy28serve_connection_with_cancelNtNtNtNtCsfWKKmeeA0Vo_5tokio3net3tcp6stream9TcpStreamECsj6PmBtcNvrc_25round8_authority_enforced
FN:660,_RINvMs4_NtCs6ZJAmc5l35e_5lb_l78h1_proxyNtB6_7H1Proxy32serve_connection_with_cancel_sniNtNtNtNtCsfWKKmeeA0Vo_5tokio3net3tcp6stream9TcpStreamECsj6PmBtcNvrc_25round8_authority_enforced
FN:597,_RNCINvMs4_NtCs6ZJAmc5l35e_5lb_l78h1_proxyNtB8_7H1Proxy16serve_connectionNtNtNtNtCsfWKKmeeA0Vo_5tokio3net3tcp6stream9TcpStreamE0Csj6PmBtcNvrc_25round8_authority_enforced
FN:637,_RNCINvMs4_NtCs6ZJAmc5l35e_5lb_l78h1_proxyNtB8_7H1Proxy28serve_connection_with_cancelNtNtNtNtCsfWKKmeeA0Vo_5tokio3net3tcp6stream9TcpStreamE0Csj6PmBtcNvrc_25round8_authority_enforced
FN:669,_RNCINvMs4_NtCs6ZJAmc5l35e_5lb_l78h1_proxyNtB8_7H1Proxy32serve_connection_with_cancel_sniNtNtNtNtCsfWKKmeeA0Vo_5tokio3net3tcp6stream9TcpStreamE0Csj6PmBtcNvrc_25round8_authority_enforced
FN:594,_RINvMs4_NtCs6ZJAmc5l35e_5lb_l78h1_proxyNtB6_7H1Proxy16serve_connectionNtNtNtNtCsfWKKmeeA0Vo_5tokio3net3tcp6stream9TcpStreamECsbtzgV3oqg7R_26round8_keepalive_count_cap
FN:629,_RINvMs4_NtCs6ZJAmc5l35e_5lb_l78h1_proxyNtB6_7H1Proxy28serve_connection_with_cancelNtNtNtNtCsfWKKmeeA0Vo_5tokio3net3tcp6stream9TcpStreamECsbtzgV3oqg7R_26round8_keepalive_count_cap
FN:660,_RINvMs4_NtCs6ZJAmc5l35e_5lb_l78h1_proxyNtB6_7H1Proxy32serve_connection_with_cancel_sniNtNtNtNtCsfWKKmeeA0Vo_5tokio3net3tcp6stream9TcpStreamECsbtzgV3oqg7R_26round8_keepalive_count_cap
