SF:/home/ubuntu/Code/ExpressGateway/crates/lb-l7/src/authority.rs
FN:66,_RINvNtCscRJcA2zm81b_5lb_l79authority16validate_requestNtNtNtCsgB3dp6qvXvn_5hyper4body8incoming8IncomingEB4_
FN:71,_RNCINvNtCscRJcA2zm81b_5lb_l79authority16validate_requestNtNtNtCsgB3dp6qvXvn_5hyper4body8incoming8IncomingE0B6_
FN:75,_RNCINvNtCscRJcA2zm81b_5lb_l79authority16validate_requestNtNtNtCsgB3dp6qvXvn_5hyper4body8incoming8IncomingEs_0B6_
FN:66,_RINvNtCsijo3INtYyGB_5lb_l79authority16validate_requestNtNtNtCsgB3dp6qvXvn_5hyper4body8incoming8IncomingEB4_
FN:66,_RINvNtCsijo3INtYyGB_5lb_l79authority16validate_requestuEB4_
FN:71,_RNCINvNtCsijo3INtYyGB_5lb_l79authority16validate_requestNtNtNtCsgB3dp6qvXvn_5hyper4body8incoming8IncomingE0B6_
FN:75,_RNCINvNtCsijo3INtYyGB_5lb_l79authority16validate_requestNtNtNtCsgB3dp6qvXvn_5hyper4body8incoming8IncomingEs_0B6_
FN:71,_RNCINvNtCsijo3INtYyGB_5lb_l79authority16validate_requestuE0B6_
FN:75,_RNCINvNtCsijo3INtYyGB_5lb_l79authority16validate_requestuEs_0B6_
FN:95,_RNvNtNtCsijo3INtYyGB_5lb_l79authority5testss_29predicate_reexport_is_lb_core
FN:119,_RNvNtNtCsijo3INtYyGB_5lb_l79authority5testss_29request_host_header_validated
FN:143,_RNvNtNtCsijo3INtYyGB_5lb_l79authority5testss_30request_valid_authority_passes
FN:104,_RNvNtNtCsijo3INtYyGB_5lb_l79authority5testss_31request_uri_authority_validated
FN:135,_RNvNtNtCsijo3INtYyGB_5lb_l79authority5testss_42request_absent_and_empty_authority_skipped
FNDA:49,_RINvNtCscRJcA2zm81b_5lb_l79authority16validate_requestNtNtNtCsgB3dp6qvXvn_5hyper4body8incoming8IncomingEB4_
FNDA:42,_RNCINvNtCscRJcA2zm81b_5lb_l79authority16validate_requestNtNtNtCsgB3dp6qvXvn_5hyper4body8incoming8IncomingE0B6_
FNDA:49,_RNCINvNtCscRJcA2zm81b_5lb_l79authority16validate_requestNtNtNtCsgB3dp6qvXvn_5hyper4body8incoming8IncomingEs_0B6_
FNDA:0,_RINvNtCsijo3INtYyGB_5lb_l79authority16validate_requestNtNtNtCsgB3dp6qvXvn_5hyper4body8incoming8IncomingEB4_
FNDA:4,_RINvNtCsijo3INtYyGB_5lb_l79authority16validate_requestuEB4_
FNDA:0,_RNCINvNtCsijo3INtYyGB_5lb_l79authority16validate_requestNtNtNtCsgB3dp6qvXvn_5hyper4body8incoming8IncomingE0B6_
FNDA:0,_RNCINvNtCsijo3INtYyGB_5lb_l79authority16validate_requestNtNtNtCsgB3dp6qvXvn_5hyper4body8incoming8IncomingEs_0B6_
FNDA:1,_RNCINvNtCsijo3INtYyGB_5lb_l79authority16validate_requestuE0B6_
FNDA:3,_RNCINvNtCsijo3INtYyGB_5lb_l79authority16validate_requestuEs_0B6_
FNDA:1,_RNvNtNtCsijo3INtYyGB_5lb_l79authority5testss_29predicate_reexport_is_lb_core
FNDA:1,_RNvNtNtCsijo3INtYyGB_5lb_l79authority5testss_29request_host_header_validated
FNDA:1,_RNvNtNtCsijo3INtYyGB_5lb_l79authority5testss_30request_valid_authority_passes
FNDA:1,_RNvNtNtCsijo3INtYyGB_5lb_l79authority5testss_31request_uri_authority_validated
FNDA:1,_RNvNtNtCsijo3INtYyGB_5lb_l79authority5testss_42request_absent_and_empty_authority_skipped
FNF:8
FNH:8
DA:66,53
DA:67,53
DA:68,53
DA:69,53
DA:70,53
DA:71,53
DA:72,53
DA:73,53
DA:74,53
DA:75,53
DA:77,52
DA:78,11
DA:79,41
DA:81,42
DA:82,53
DA:95,1
DA:96,1
DA:97,1
DA:98,1
DA:99,1
DA:100,1
DA:101,1
DA:104,1
DA:105,1
DA:106,1
DA:107,1
DA:108,1
DA:109,1
DA:110,1
DA:111,1
DA:112,1
DA:113,1
DA:114,1
DA:115,1
DA:116,1
DA:119,1
DA:120,1
DA:121,1
DA:122,1
DA:123,1
DA:124,1
DA:125,1
DA:126,1
DA:127,1
DA:128,1
DA:129,1
DA:130,1
DA:131,1
DA:132,1
DA:135,1
DA:136,1
DA:137,1
DA:138,1
DA:139,1
DA:140,1
DA:143,1
DA:144,1
DA:145,1
DA:146,1
DA:147,1
DA:148,1
DA:149,1
BRF:0
BRH:0
LF:64
LH:64
end_of_record
SF:/home/ubuntu/Code/ExpressGateway/crates/lb-l7/src/grpc_proxy.rs
FN:279,_RINvNtCscRJcA2zm81b_5lb_l710grpc_proxy15is_grpc_requestNtNtNtCsgB3dp6qvXvn_5hyper4body8incoming8IncomingEB4_
FN:282,_RNCINvNtCscRJcA2zm81b_5lb_l710grpc_proxy15is_grpc_requestNtNtNtCsgB3dp6qvXvn_5hyper4body8incoming8IncomingE0B6_
FN:283,_RNCINvNtCscRJcA2zm81b_5lb_l710grpc_proxy15is_grpc_requestNtNtNtCsgB3dp6qvXvn_5hyper4body8incoming8IncomingEs_0B6_
FN:292,_RNCNCINvNtCscRJcA2zm81b_5lb_l710grpc_proxy15is_grpc_requestNtNtNtCsgB3dp6qvXvn_5hyper4body8incoming8IncomingEs_00B8_
FN:247,_RNCNCNvMs_NtCscRJcA2zm81b_5lb_l710grpc_proxyNtB8_9GrpcProxy7forward00Ba_
FN:389,_RNCNCNvNtCscRJcA2zm81b_5lb_l710grpc_proxy19handle_health_check00B7_
FN:149,_RNCNvMs_NtCscRJcA2zm81b_5lb_l710grpc_proxyNtB6_9GrpcProxy6handle0B8_
FN:170,_RNCNvMs_NtCscRJcA2zm81b_5lb_l710grpc_proxyNtB6_9GrpcProxy7forward0B8_
FN:596,_RNCNvNtCscRJcA2zm81b_5lb_l710grpc_proxy17finalize_upstream0B5_
FN:576,_RNCNvNtCscRJcA2zm81b_5lb_l710grpc_proxy19grpc_error_response0B5_
FN:384,_RNCNvNtCscRJcA2zm81b_5lb_l710grpc_proxy19handle_health_check0B5_
FN:307,_RNCNvNtCscRJcA2zm81b_5lb_l710grpc_proxy24rewrite_uri_for_upstream0B5_
FN:428,_RNCNvNtCscRJcA2zm81b_5lb_l710grpc_proxy29health_check_serving_response0B5_
FN:130,_RNvMs_NtCscRJcA2zm81b_5lb_l710grpc_proxyNtB4_9GrpcProxy20max_header_list_size
FN:113,_RNvMs_NtCscRJcA2zm81b_5lb_l710grpc_proxyNtB4_9GrpcProxy25with_max_header_list_size
FN:98,_RNvMs_NtCscRJcA2zm81b_5lb_l710grpc_proxyNtB4_9GrpcProxy3new
FN:120,_RNvMs_NtCscRJcA2zm81b_5lb_l710grpc_proxyNtB4_9GrpcProxy6config
FN:145,_RNvMs_NtCscRJcA2zm81b_5lb_l710grpc_proxyNtB4_9GrpcProxy6handle
FN:166,_RNvMs_NtCscRJcA2zm81b_5lb_l710grpc_proxyNtB4_9GrpcProxy7forward
FN:530,_RNvNtCscRJcA2zm81b_5lb_l710grpc_proxy11read_varint
FN:547,_RNvNtCscRJcA2zm81b_5lb_l710grpc_proxy14empty_fallback
FN:586,_RNvNtCscRJcA2zm81b_5lb_l710grpc_proxy17finalize_upstream
FN:559,_RNvNtCscRJcA2zm81b_5lb_l710grpc_proxy19grpc_error_response
FN:384,_RNvNtCscRJcA2zm81b_5lb_l710grpc_proxy19handle_health_check
FN:301,_RNvNtCscRJcA2zm81b_5lb_l710grpc_proxy24rewrite_uri_for_upstream
FN:445,_RNvNtCscRJcA2zm81b_5lb_l710grpc_proxy27decode_health_check_service
FN:333,_RNvNtCscRJcA2zm81b_5lb_l710grpc_proxy28parse_and_clamp_grpc_timeout
FN:404,_RNvNtCscRJcA2zm81b_5lb_l710grpc_proxy29health_check_serving_response
FN:64,_RNvXNtCscRJcA2zm81b_5lb_l710grpc_proxyNtB2_10GrpcConfigNtNtCs2va5m0jqTTM_4core7default7Default7default
FN:130,_RNvMs_NtCsijo3INtYyGB_5lb_l710grpc_proxyNtB4_9GrpcProxy20max_header_list_size
FN:113,_RNvMs_NtCsijo3INtYyGB_5lb_l710grpc_proxyNtB4_9GrpcProxy25with_max_header_list_size
FN:98,_RNvMs_NtCsijo3INtYyGB_5lb_l710grpc_proxyNtB4_9GrpcProxy3new
FN:64,_RNvXNtCsijo3INtYyGB_5lb_l710grpc_proxyNtB2_10GrpcConfigNtNtCs2va5m0jqTTM_4core7default7Default7default
FN:695,_RNCNvNtNtCsijo3INtYyGB_5lb_l710grpc_proxy5testss_41health_check_serving_response_well_formed0B7_
FN:800,_RNCNvNtNtCsijo3INtYyGB_5lb_l710grpc_proxy5testss_42grpc_error_response_carries_trailer_status0B7_
FN:279,_RINvNtCsijo3INtYyGB_5lb_l710grpc_proxy15is_grpc_requestINtNtCsedaG9KDMExI_14http_body_util5empty5EmptyNtNtCs7xJyEqPIUa9_5bytes5bytes5BytesEEB4_
FN:279,_RINvNtCsijo3INtYyGB_5lb_l710grpc_proxy15is_grpc_requestNtNtNtCsgB3dp6qvXvn_5hyper4body8incoming8IncomingEB4_
FN:282,_RNCINvNtCsijo3INtYyGB_5lb_l710grpc_proxy15is_grpc_requestINtNtCsedaG9KDMExI_14http_body_util5empty5EmptyNtNtCs7xJyEqPIUa9_5bytes5bytes5BytesEE0B6_
FN:283,_RNCINvNtCsijo3INtYyGB_5lb_l710grpc_proxy15is_grpc_requestINtNtCsedaG9KDMExI_14http_body_util5empty5EmptyNtNtCs7xJyEqPIUa9_5bytes5bytes5BytesEEs_0B6_
FN:282,_RNCINvNtCsijo3INtYyGB_5lb_l710grpc_proxy15is_grpc_requestNtNtNtCsgB3dp6qvXvn_5hyper4body8incoming8IncomingE0B6_
FN:283,_RNCINvNtCsijo3INtYyGB_5lb_l710grpc_proxy15is_grpc_requestNtNtNtCsgB3dp6qvXvn_5hyper4body8incoming8IncomingEs_0B6_
FN:292,_RNCNCINvNtCsijo3INtYyGB_5lb_l710grpc_proxy15is_grpc_requestINtNtCsedaG9KDMExI_14http_body_util5empty5EmptyNtNtCs7xJyEqPIUa9_5bytes5bytes5BytesEEs_00B8_
FN:292,_RNCNCINvNtCsijo3INtYyGB_5lb_l710grpc_proxy15is_grpc_requestNtNtNtCsgB3dp6qvXvn_5hyper4body8incoming8IncomingEs_00B8_
FN:247,_RNCNCNvMs_NtCsijo3INtYyGB_5lb_l710grpc_proxyNtB8_9GrpcProxy7forward00Ba_
FN:389,_RNCNCNvNtCsijo3INtYyGB_5lb_l710grpc_proxy19handle_health_check00B7_
FN:149,_RNCNvMs_NtCsijo3INtYyGB_5lb_l710grpc_proxyNtB6_9GrpcProxy6handle0B8_
FN:170,_RNCNvMs_NtCsijo3INtYyGB_5lb_l710grpc_proxyNtB6_9GrpcProxy7forward0B8_
FN:596,_RNCNvNtCsijo3INtYyGB_5lb_l710grpc_proxy17finalize_upstream0B5_
FN:576,_RNCNvNtCsijo3INtYyGB_5lb_l710grpc_proxy19grpc_error_response0B5_
FN:384,_RNCNvNtCsijo3INtYyGB_5lb_l710grpc_proxy19handle_health_check0B5_
FN:307,_RNCNvNtCsijo3INtYyGB_5lb_l710grpc_proxy24rewrite_uri_for_upstream0B5_
FN:428,_RNCNvNtCsijo3INtYyGB_5lb_l710grpc_proxy29health_check_serving_response0B5_
FN:120,_RNvMs_NtCsijo3INtYyGB_5lb_l710grpc_proxyNtB4_9GrpcProxy6config
FN:145,_RNvMs_NtCsijo3INtYyGB_5lb_l710grpc_proxyNtB4_9GrpcProxy6handle
FN:166,_RNvMs_NtCsijo3INtYyGB_5lb_l710grpc_proxyNtB4_9GrpcProxy7forward
FN:530,_RNvNtCsijo3INtYyGB_5lb_l710grpc_proxy11read_varint
FN:547,_RNvNtCsijo3INtYyGB_5lb_l710grpc_proxy14empty_fallback
FN:586,_RNvNtCsijo3INtYyGB_5lb_l710grpc_proxy17finalize_upstream
FN:362,_RNvNtCsijo3INtYyGB_5lb_l710grpc_proxy18clamp_grpc_timeout
FN:559,_RNvNtCsijo3INtYyGB_5lb_l710grpc_proxy19grpc_error_response
FN:384,_RNvNtCsijo3INtYyGB_5lb_l710grpc_proxy19handle_health_check
FN:301,_RNvNtCsijo3INtYyGB_5lb_l710grpc_proxy24rewrite_uri_for_upstream
FN:445,_RNvNtCsijo3INtYyGB_5lb_l710grpc_proxy27decode_health_check_service
FN:333,_RNvNtCsijo3INtYyGB_5lb_l710grpc_proxy28parse_and_clamp_grpc_timeout
FN:404,_RNvNtCsijo3INtYyGB_5lb_l710grpc_proxy29health_check_serving_response
FN:618,_RNvNtNtCsijo3INtYyGB_5lb_l710grpc_proxy5tests11req_with_ct
FN:774,_RNvNtNtCsijo3INtYyGB_5lb_l710grpc_proxy5tests12write_varint
FN:689,_RNvNtNtCsijo3INtYyGB_5lb_l710grpc_proxy5testss_32grpc_timeout_absent_returns_none
FN:680,_RNvNtNtCsijo3INtYyGB_5lb_l710grpc_proxy5testss_35grpc_timeout_below_max_is_preserved
FN:663,_RNvNtNtCsijo3INtYyGB_5lb_l710grpc_proxy5testss_35grpc_timeout_parse_and_clamp_at_max
FN:783,_RNvNtNtCsijo3INtYyGB_5lb_l710grpc_proxy5testss_38http_non_200_translates_to_grpc_status
FN:656,_RNvNtNtCsijo3INtYyGB_5lb_l710grpc_proxy5testss_39is_grpc_request_rejects_empty_extension
FN:628,_RNvNtNtCsijo3INtYyGB_5lb_l710grpc_proxy5testss_40is_grpc_request_matches_application_grpc
FN:638,_RNvNtNtCsijo3INtYyGB_5lb_l710grpc_proxy5testss_40is_grpc_request_matches_case_insensitive
FN:651,_RNvNtNtCsijo3INtYyGB_5lb_l710grpc_proxy5testss_40is_grpc_request_rejects_application_json
FN:695,_RNvNtNtCsijo3INtYyGB_5lb_l710grpc_proxy5testss_41health_check_serving_response_well_formed
FN:800,_RNvNtNtCsijo3INtYyGB_5lb_l710grpc_proxy5testss_42grpc_error_response_carries_trailer_status
FN:643,_RNvNtNtCsijo3INtYyGB_5lb_l710grpc_proxy5testss_46is_grpc_request_matches_with_charset_parameter
FN:739,_RNvNtNtCsijo3INtYyGB_5lb_l710grpc_proxy5testss_47decode_health_check_service_skips_unknown_field
FN:726,_RNvNtNtCsijo3INtYyGB_5lb_l710grpc_proxy5testss_48decode_health_check_service_decodes_string_field
FN:766,_RNvNtNtCsijo3INtYyGB_5lb_l710grpc_proxy5testss_49parse_and_clamp_grpc_timeout_absent_yields_absent
FN:633,_RNvNtNtCsijo3INtYyGB_5lb_l710grpc_proxy5testss_51is_grpc_request_matches_application_grpc_plus_proto
FN:714,_RNvNtNtCsijo3INtYyGB_5lb_l710grpc_proxy5testss_52decode_health_check_service_empty_body_returns_empty
FN:719,_RNvNtNtCsijo3INtYyGB_5lb_l710grpc_proxy5testss_55decode_health_check_service_empty_message_returns_empty
FN:755,_RNvNtNtCsijo3INtYyGB_5lb_l710grpc_proxy5testss_62parse_and_clamp_grpc_timeout_malformed_yields_invalid_argument
FNDA:0,_RINvNtCscRJcA2zm81b_5lb_l710grpc_proxy15is_grpc_requestNtNtNtCsgB3dp6qvXvn_5hyper4body8incoming8IncomingEB4_
FNDA:0,_RNCINvNtCscRJcA2zm81b_5lb_l710grpc_proxy15is_grpc_requestNtNtNtCsgB3dp6qvXvn_5hyper4body8incoming8IncomingE0B6_
FNDA:0,_RNCINvNtCscRJcA2zm81b_5lb_l710grpc_proxy15is_grpc_requestNtNtNtCsgB3dp6qvXvn_5hyper4body8incoming8IncomingEs_0B6_
FNDA:0,_RNCNCINvNtCscRJcA2zm81b_5lb_l710grpc_proxy15is_grpc_requestNtNtNtCsgB3dp6qvXvn_5hyper4body8incoming8IncomingEs_00B8_
FNDA:0,_RNCNCNvMs_NtCscRJcA2zm81b_5lb_l710grpc_proxyNtB8_9GrpcProxy7forward00Ba_
FNDA:0,_RNCNCNvNtCscRJcA2zm81b_5lb_l710grpc_proxy19handle_health_check00B7_
FNDA:0,_RNCNvMs_NtCscRJcA2zm81b_5lb_l710grpc_proxyNtB6_9GrpcProxy6handle0B8_
FNDA:0,_RNCNvMs_NtCscRJcA2zm81b_5lb_l710grpc_proxyNtB6_9GrpcProxy7forward0B8_
FNDA:0,_RNCNvNtCscRJcA2zm81b_5lb_l710grpc_proxy17finalize_upstream0B5_
FNDA:0,_RNCNvNtCscRJcA2zm81b_5lb_l710grpc_proxy19grpc_error_response0B5_
FNDA:0,_RNCNvNtCscRJcA2zm81b_5lb_l710grpc_proxy19handle_health_check0B5_
FNDA:0,_RNCNvNtCscRJcA2zm81b_5lb_l710grpc_proxy24rewrite_uri_for_upstream0B5_
FNDA:0,_RNCNvNtCscRJcA2zm81b_5lb_l710grpc_proxy29health_check_serving_response0B5_
FNDA:0,_RNvMs_NtCscRJcA2zm81b_5lb_l710grpc_proxyNtB4_9GrpcProxy20max_header_list_size
FNDA:1,_RNvMs_NtCscRJcA2zm81b_5lb_l710grpc_proxyNtB4_9GrpcProxy25with_max_header_list_size
FNDA:1,_RNvMs_NtCscRJcA2zm81b_5lb_l710grpc_proxyNtB4_9GrpcProxy3new
FNDA:0,_RNvMs_NtCscRJcA2zm81b_5lb_l710grpc_proxyNtB4_9GrpcProxy6config
FNDA:0,_RNvMs_NtCscRJcA2zm81b_5lb_l710grpc_proxyNtB4_9GrpcProxy6handle
FNDA:0,_RNvMs_NtCscRJcA2zm81b_5lb_l710grpc_proxyNtB4_9GrpcProxy7forward
FNDA:0,_RNvNtCscRJcA2zm81b_5lb_l710grpc_proxy11read_varint
FNDA:0,_RNvNtCscRJcA2zm81b_5lb_l710grpc_proxy14empty_fallback
FNDA:0,_RNvNtCscRJcA2zm81b_5lb_l710grpc_proxy17finalize_upstream
FNDA:0,_RNvNtCscRJcA2zm81b_5lb_l710grpc_proxy19grpc_error_response
FNDA:0,_RNvNtCscRJcA2zm81b_5lb_l710grpc_proxy19handle_health_check
FNDA:0,_RNvNtCscRJcA2zm81b_5lb_l710grpc_proxy24rewrite_uri_for_upstream
FNDA:0,_RNvNtCscRJcA2zm81b_5lb_l710grpc_proxy27decode_health_check_service
FNDA:0,_RNvNtCscRJcA2zm81b_5lb_l710grpc_proxy28parse_and_clamp_grpc_timeout
FNDA:0,_RNvNtCscRJcA2zm81b_5lb_l710grpc_proxy29health_check_serving_response
FNDA:1,_RNvXNtCscRJcA2zm81b_5lb_l710grpc_proxyNtB2_10GrpcConfigNtNtCs2va5m0jqTTM_4core7default7Default7default
FNDA:0,_RNvMs_NtCsijo3INtYyGB_5lb_l710grpc_proxyNtB4_9GrpcProxy20max_header_list_size
FNDA:0,_RNvMs_NtCsijo3INtYyGB_5lb_l710grpc_proxyNtB4_9GrpcProxy25with_max_header_list_size
FNDA:0,_RNvMs_NtCsijo3INtYyGB_5lb_l710grpc_proxyNtB4_9GrpcProxy3new
FNDA:0,_RNvXNtCsijo3INtYyGB_5lb_l710grpc_proxyNtB2_10GrpcConfigNtNtCs2va5m0jqTTM_4core7default7Default7default
FNDA:1,_RNCNvNtNtCsijo3INtYyGB_5lb_l710grpc_proxy5testss_41health_check_serving_response_well_formed0B7_
FNDA:1,_RNCNvNtNtCsijo3INtYyGB_5lb_l710grpc_proxy5testss_42grpc_error_response_carries_trailer_status0B7_
FNDA:6,_RINvNtCsijo3INtYyGB_5lb_l710grpc_proxy15is_grpc_requestINtNtCsedaG9KDMExI_14http_body_util5empty5EmptyNtNtCs7xJyEqPIUa9_5bytes5bytes5BytesEEB4_
FNDA:0,_RINvNtCsijo3INtYyGB_5lb_l710grpc_proxy15is_grpc_requestNtNtNtCsgB3dp6qvXvn_5hyper4body8incoming8IncomingEB4_
FNDA:6,_RNCINvNtCsijo3INtYyGB_5lb_l710grpc_proxy15is_grpc_requestINtNtCsedaG9KDMExI_14http_body_util5empty5EmptyNtNtCs7xJyEqPIUa9_5bytes5bytes5BytesEE0B6_
FNDA:6,_RNCINvNtCsijo3INtYyGB_5lb_l710grpc_proxy15is_grpc_requestINtNtCsedaG9KDMExI_14http_body_util5empty5EmptyNtNtCs7xJyEqPIUa9_5bytes5bytes5BytesEEs_0B6_
FNDA:0,_RNCINvNtCsijo3INtYyGB_5lb_l710grpc_proxy15is_grpc_requestNtNtNtCsgB3dp6qvXvn_5hyper4body8incoming8IncomingE0B6_
FNDA:0,_RNCINvNtCsijo3INtYyGB_5lb_l710grpc_proxy15is_grpc_requestNtNtNtCsgB3dp6qvXvn_5hyper4body8incoming8IncomingEs_0B6_
FNDA:9,_RNCNCINvNtCsijo3INtYyGB_5lb_l710grpc_proxy15is_grpc_requestINtNtCsedaG9KDMExI_14http_body_util5empty5EmptyNtNtCs7xJyEqPIUa9_5bytes5bytes5BytesEEs_00B8_
FNDA:0,_RNCNCINvNtCsijo3INtYyGB_5lb_l710grpc_proxy15is_grpc_requestNtNtNtCsgB3dp6qvXvn_5hyper4body8incoming8IncomingEs_00B8_
FNDA:0,_RNCNCNvMs_NtCsijo3INtYyGB_5lb_l710grpc_proxyNtB8_9GrpcProxy7forward00Ba_
FNDA:0,_RNCNCNvNtCsijo3INtYyGB_5lb_l710grpc_proxy19handle_health_check00B7_
FNDA:0,_RNCNvMs_NtCsijo3INtYyGB_5lb_l710grpc_proxyNtB6_9GrpcProxy6handle0B8_
FNDA:0,_RNCNvMs_NtCsijo3INtYyGB_5lb_l710grpc_proxyNtB6_9GrpcProxy7forward0B8_
FNDA:0,_RNCNvNtCsijo3INtYyGB_5lb_l710grpc_proxy17finalize_upstream0B5_
FNDA:0,_RNCNvNtCsijo3INtYyGB_5lb_l710grpc_proxy19grpc_error_response0B5_
FNDA:0,_RNCNvNtCsijo3INtYyGB_5lb_l710grpc_proxy19handle_health_check0B5_
FNDA:0,_RNCNvNtCsijo3INtYyGB_5lb_l710grpc_proxy24rewrite_uri_for_upstream0B5_
FNDA:0,_RNCNvNtCsijo3INtYyGB_5lb_l710grpc_proxy29health_check_serving_response0B5_
FNDA:0,_RNvMs_NtCsijo3INtYyGB_5lb_l710grpc_proxyNtB4_9GrpcProxy6config
FNDA:0,_RNvMs_NtCsijo3INtYyGB_5lb_l710grpc_proxyNtB4_9GrpcProxy6handle
FNDA:0,_RNvMs_NtCsijo3INtYyGB_5lb_l710grpc_proxyNtB4_9GrpcProxy7forward
FNDA:4,_RNvNtCsijo3INtYyGB_5lb_l710grpc_proxy11read_varint
FNDA:0,_RNvNtCsijo3INtYyGB_5lb_l710grpc_proxy14empty_fallback
FNDA:0,_RNvNtCsijo3INtYyGB_5lb_l710grpc_proxy17finalize_upstream
FNDA:3,_RNvNtCsijo3INtYyGB_5lb_l710grpc_proxy18clamp_grpc_timeout
FNDA:1,_RNvNtCsijo3INtYyGB_5lb_l710grpc_proxy19grpc_error_response
FNDA:0,_RNvNtCsijo3INtYyGB_5lb_l710grpc_proxy19handle_health_check
FNDA:0,_RNvNtCsijo3INtYyGB_5lb_l710grpc_proxy24rewrite_uri_for_upstream
FNDA:4,_RNvNtCsijo3INtYyGB_5lb_l710grpc_proxy27decode_health_check_service
FNDA:5,_RNvNtCsijo3INtYyGB_5lb_l710grpc_proxy28parse_and_clamp_grpc_timeout
FNDA:1,_RNvNtCsijo3INtYyGB_5lb_l710grpc_proxy29health_check_serving_response
FNDA:6,_RNvNtNtCsijo3INtYyGB_5lb_l710grpc_proxy5tests11req_with_ct
FNDA:2,_RNvNtNtCsijo3INtYyGB_5lb_l710grpc_proxy5tests12write_varint
FNDA:1,_RNvNtNtCsijo3INtYyGB_5lb_l710grpc_proxy5testss_32grpc_timeout_absent_returns_none
FNDA:1,_RNvNtNtCsijo3INtYyGB_5lb_l710grpc_proxy5testss_35grpc_timeout_below_max_is_preserved
FNDA:1,_RNvNtNtCsijo3INtYyGB_5lb_l710grpc_proxy5testss_35grpc_timeout_parse_and_clamp_at_max
FNDA:1,_RNvNtNtCsijo3INtYyGB_5lb_l710grpc_proxy5testss_38http_non_200_translates_to_grpc_status
FNDA:1,_RNvNtNtCsijo3INtYyGB_5lb_l710grpc_proxy5testss_39is_grpc_request_rejects_empty_extension
FNDA:1,_RNvNtNtCsijo3INtYyGB_5lb_l710grpc_proxy5testss_40is_grpc_request_matches_application_grpc
FNDA:1,_RNvNtNtCsijo3INtYyGB_5lb_l710grpc_proxy5testss_40is_grpc_request_matches_case_insensitive
FNDA:1,_RNvNtNtCsijo3INtYyGB_5lb_l710grpc_proxy5testss_40is_grpc_request_rejects_application_json
FNDA:1,_RNvNtNtCsijo3INtYyGB_5lb_l710grpc_proxy5testss_41health_check_serving_response_well_formed
FNDA:1,_RNvNtNtCsijo3INtYyGB_5lb_l710grpc_proxy5testss_42grpc_error_response_carries_trailer_status
FNDA:1,_RNvNtNtCsijo3INtYyGB_5lb_l710grpc_proxy5testss_46is_grpc_request_matches_with_charset_parameter
FNDA:1,_RNvNtNtCsijo3INtYyGB_5lb_l710grpc_proxy5testss_47decode_health_check_service_skips_unknown_field
FNDA:1,_RNvNtNtCsijo3INtYyGB_5lb_l710grpc_proxy5testss_48decode_health_check_service_decodes_string_field
FNDA:1,_RNvNtNtCsijo3INtYyGB_5lb_l710grpc_proxy5testss_49parse_and_clamp_grpc_timeout_absent_yields_absent
FNDA:1,_RNvNtNtCsijo3INtYyGB_5lb_l710grpc_proxy5testss_51is_grpc_request_matches_application_grpc_plus_proto
FNDA:1,_RNvNtNtCsijo3INtYyGB_5lb_l710grpc_proxy5testss_52decode_health_check_service_empty_body_returns_empty
FNDA:1,_RNvNtNtCsijo3INtYyGB_5lb_l710grpc_proxy5testss_55decode_health_check_service_empty_message_returns_empty
FNDA:1,_RNvNtNtCsijo3INtYyGB_5lb_l710grpc_proxy5testss_62parse_and_clamp_grpc_timeout_malformed_yields_invalid_argument
FNF:52
FNH:35
DA:64,1
DA:65,1
DA:66,1
DA:67,1
DA:68,1
DA:69,1
DA:70,1
DA:98,1
DA:99,1
DA:100,1
DA:101,1
DA:102,1
DA:103,1
DA:104,1
DA:113,1
DA:114,1
DA:115,1
DA:116,1
DA:120,0
DA:121,0
DA:122,0
DA:130,0
DA:131,0
DA:132,0
DA:145,0
DA:146,0
DA:147,0
DA:148,0
DA:149,0
DA:150,0
DA:151,0
DA:152,0
DA:154,0
DA:155,0
DA:156,0
DA:157,0
DA:166,0
DA:167,0
DA:168,0
DA:169,0
DA:170,0
DA:171,0
DA:178,0
DA:179,0
DA:180,0
DA:181,0
DA:182,0
DA:183,0
DA:184,0
DA:185,0
DA:186,0
DA:194,0
DA:195,0
DA:196,0
DA:202,0
DA:203,0
DA:204,0
DA:210,0
DA:211,0
DA:215,0
DA:216,0
DA:217,0
DA:218,0
DA:219,0
DA:220,0
DA:221,0
DA:224,0
DA:225,0
DA:233,0
DA:234,0
DA:235,0
DA:236,0
DA:237,0
DA:239,0
DA:240,0
DA:241,0
DA:242,0
DA:243,0
DA:244,0
DA:247,0
DA:248,0
DA:249,0
DA:250,0
DA:251,0
DA:252,0
DA:253,0
DA:254,0
DA:255,0
DA:257,0
DA:258,0
DA:261,0
DA:264,0
DA:265,0
DA:266,0
DA:267,0
DA:268,0
DA:271,0
DA:272,0
DA:273,0
DA:274,0
DA:279,6
DA:280,6
DA:281,6
DA:282,6
DA:283,6
DA:284,6
DA:285,6
DA:286,6
DA:287,2
DA:288,4
DA:289,4
DA:290,1
DA:292,9
DA:293,6
DA:294,6
DA:301,0
DA:302,0
DA:303,0
DA:304,0
DA:305,0
DA:306,0
DA:307,0
DA:308,0
DA:309,0
DA:310,0
DA:333,5
DA:334,5
DA:335,2
DA:337,3
DA:339,0
DA:341,3
DA:342,3
DA:343,1
DA:345,2
DA:346,2
DA:347,2
DA:348,2
DA:349,2
DA:350,2
DA:351,2
DA:352,5
DA:362,3
DA:363,3
DA:364,2
DA:365,1
DA:367,3
DA:384,0
DA:388,0
DA:389,0
DA:390,0
DA:391,0
DA:392,0
DA:393,0
DA:394,0
DA:395,0
DA:396,0
DA:397,0
DA:398,0
DA:399,0
DA:404,1
DA:405,1
DA:406,1
DA:407,1
DA:408,1
DA:409,1
DA:410,1
DA:411,1
DA:412,1
DA:413,1
DA:414,1
DA:415,1
DA:416,1
DA:417,1
DA:418,1
DA:419,1
DA:420,1
DA:421,1
DA:422,1
DA:423,1
DA:424,1
DA:425,1
DA:426,1
DA:427,1
DA:428,1
DA:429,1
DA:445,4
DA:446,4
DA:447,4
DA:448,1
DA:449,3
DA:451,3
DA:452,0
DA:456,3
DA:457,0
DA:458,3
DA:459,3
DA:460,3
DA:461,3
DA:462,3
DA:463,3
DA:464,4
DA:465,2
DA:466,0
DA:468,2
DA:469,2
DA:470,2
DA:471,2
DA:474,1
DA:475,0
DA:477,1
DA:478,1
DA:479,0
DA:481,1
DA:482,0
DA:484,1
DA:485,0
DA:486,1
DA:487,1
DA:488,0
DA:490,1
DA:491,0
DA:493,1
DA:497,1
DA:498,0
DA:500,1
DA:504,0
DA:505,0
DA:507,0
DA:508,0
DA:509,0
DA:511,0
DA:512,0
DA:514,0
DA:515,0
DA:516,0
DA:517,0
DA:519,0
DA:520,0
DA:521,0
DA:524,2
DA:525,4
DA:530,4
DA:531,4
DA:532,4
DA:533,4
DA:534,5
DA:535,5
DA:536,5
DA:537,5
DA:538,5
DA:539,5
DA:540,4
DA:541,1
DA:542,1
DA:544,0
DA:545,4
DA:547,0
DA:548,0
DA:549,0
DA:550,0
DA:551,0
DA:552,0
DA:553,0
DA:559,1
DA:560,1
DA:561,1
DA:562,1
DA:563,1
DA:564,1
DA:565,1
DA:566,1
DA:567,1
DA:568,1
DA:569,1
DA:570,1
DA:571,1
DA:572,1
DA:573,1
DA:574,1
DA:575,1
DA:576,1
DA:577,1
DA:586,0
DA:587,0
DA:588,0
DA:589,0
DA:590,0
DA:591,0
DA:592,0
DA:593,0
DA:594,0
DA:595,0
DA:596,0
DA:597,0
DA:598,0
DA:599,0
DA:600,0
DA:618,6
DA:619,6
DA:620,6
DA:621,6
DA:622,6
DA:623,6
DA:624,6
DA:625,6
DA:628,1
DA:629,1
DA:630,1
DA:633,1
DA:634,1
DA:635,1
DA:638,1
DA:639,1
DA:640,1
DA:643,1
DA:644,1
DA:645,1
DA:646,1
DA:647,1
DA:648,1
DA:651,1
DA:652,1
DA:653,1
DA:656,1
DA:657,1
DA:658,1
DA:659,1
DA:660,1
DA:663,1
DA:664,1
DA:665,1
DA:666,1
DA:667,1
DA:668,1
DA:669,1
DA:670,1
DA:671,1
DA:672,1
DA:673,1
DA:674,1
DA:675,1
DA:676,1
DA:677,1
DA:680,1
DA:681,1
DA:682,1
DA:683,1
DA:684,1
DA:685,1
DA:686,1
DA:689,1
DA:690,1
DA:691,1
DA:692,1
DA:695,1
DA:696,1
DA:697,1
DA:698,1
DA:699,1
DA:700,1
DA:701,1
DA:702,1
DA:703,1
DA:704,1
DA:705,1
DA:706,1
DA:707,1
DA:708,1
DA:709,1
DA:710,1
DA:711,1
DA:714,1
DA:715,1
DA:716,1
DA:719,1
DA:720,1
DA:721,1
DA:722,1
DA:723,1
DA:726,1
DA:727,1
DA:728,1
DA:729,1
DA:730,1
DA:731,1
DA:732,1
DA:733,1
DA:734,1
DA:735,1
DA:736,1
DA:739,1
DA:740,1
DA:741,1
DA:742,1
DA:743,1
DA:744,1
DA:745,1
DA:746,1
DA:747,1
DA:748,1
DA:749,1
DA:750,1
DA:751,1
DA:752,1
DA:755,1
DA:756,1
DA:757,1
DA:758,1
DA:759,1
DA:760,1
DA:761,0
DA:763,1
DA:766,1
DA:767,1
DA:768,1
DA:769,1
DA:770,0
DA:772,1
DA:774,2
DA:775,3
DA:776,1
DA:777,1
DA:778,1
DA:779,2
DA:780,2
DA:783,1
DA:784,1
DA:785,1
DA:786,1
DA:787,1
DA:788,1
DA:789,1
DA:790,1
DA:791,1
DA:792,1
DA:793,1
DA:794,1
DA:795,1
DA:796,1
DA:797,1
DA:800,1
DA:801,1
DA:802,1
DA:803,1
DA:804,1
DA:805,1
DA:806,1
DA:807,1
BRF:0
BRH:0
LF:485
LH:320
end_of_record
SF:/home/ubuntu/Code/ExpressGateway/crates/lb-l7/src/h1_proxy.rs
FN:594,_RINvMs4_NtCscRJcA2zm81b_5lb_l78h1_proxyNtB6_7H1Proxy16serve_connectionpEB8_
FN:629,_RINvMs4_NtCscRJcA2zm81b_5lb_l78h1_proxyNtB6_7H1Proxy28serve_connection_with_cancelpEB8_
FN:660,_RINvMs4_NtCscRJcA2zm81b_5lb_l78h1_proxyNtB6_7H1Proxy32serve_connection_with_cancel_snipEB8_
FN:597,_RNCINvMs4_NtCscRJcA2zm81b_5lb_l78h1_proxyNtB8_7H1Proxy16serve_connectionpE0Ba_
FN:637,_RNCINvMs4_NtCscRJcA2zm81b_5lb_l78h1_proxyNtB8_7H1Proxy28serve_connection_with_cancelpE0Ba_
FN:669,_RNCINvMs4_NtCscRJcA2zm81b_5lb_l78h1_proxyNtB8_7H1Proxy32serve_connection_with_cancel_snipE0Ba_
FN:201,_RNvMs0_NtCscRJcA2zm81b_5lb_l78h1_proxyNtB5_12AltSvcConfig12header_value
FN:278,_RNvMs2_NtCscRJcA2zm81b_5lb_l78h1_proxyNtB5_15RoundRobinAddrs3new
FN:468,_RNvMs4_NtCscRJcA2zm81b_5lb_l78h1_proxyNtB5_7H1Proxy10with_hooks
FN:483,_RNvMs4_NtCscRJcA2zm81b_5lb_l78h1_proxyNtB5_7H1Proxy13with_watchdog
FN:576,_RNvMs4_NtCscRJcA2zm81b_5lb_l78h1_proxyNtB5_7H1Proxy14with_websocket
FN:541,_RNvMs4_NtCscRJcA2zm81b_5lb_l78h1_proxyNtB5_7H1Proxy15has_h2_upstream
FN:548,_RNvMs4_NtCscRJcA2zm81b_5lb_l78h1_proxyNtB5_7H1Proxy15has_h3_upstream
FN:524,_RNvMs4_NtCscRJcA2zm81b_5lb_l78h1_proxyNtB5_7H1Proxy16with_h2_upstream
FN:532,_RNvMs4_NtCscRJcA2zm81b_5lb_l78h1_proxyNtB5_7H1Proxy16with_h3_upstream
FN:431,_RNvMs4_NtCscRJcA2zm81b_5lb_l78h1_proxyNtB5_7H1Proxy16with_multi_proto
FN:516,_RNvMs4_NtCscRJcA2zm81b_5lb_l78h1_proxyNtB5_7H1Proxy17with_expected_sni
FN:493,_RNvMs4_NtCscRJcA2zm81b_5lb_l78h1_proxyNtB5_7H1Proxy19with_smuggle_strict
FN:557,_RNvMs4_NtCscRJcA2zm81b_5lb_l78h1_proxyNtB5_7H1Proxy27with_max_keepalive_requests
FN:504,_RNvMs4_NtCscRJcA2zm81b_5lb_l78h1_proxyNtB5_7H1Proxy29with_header_underscore_policy
FN:567,_RNvMs4_NtCscRJcA2zm81b_5lb_l78h1_proxyNtB5_7H1Proxy33keepalive_cap_termination_counter
FN:387,_RNvMs4_NtCscRJcA2zm81b_5lb_l78h1_proxyNtB5_7H1Proxy3new
FN:874,_RNvMs6_NtCscRJcA2zm81b_5lb_l78h1_proxyNtB5_7H1Proxy12handle_inner
FN:1196,_RNvMs6_NtCscRJcA2zm81b_5lb_l78h1_proxyNtB5_7H1Proxy13proxy_request
FN:2033,_RNvMs6_NtCscRJcA2zm81b_5lb_l78h1_proxyNtB5_7H1Proxy14proxy_h1_to_h2
FN:2100,_RNvMs6_NtCscRJcA2zm81b_5lb_l78h1_proxyNtB5_7H1Proxy14proxy_h1_to_h3
FN:2529,_RNvMs6_NtCscRJcA2zm81b_5lb_l78h1_proxyNtB5_7H1Proxy17finalize_response
FN:2409,_RNvMs6_NtCscRJcA2zm81b_5lb_l78h1_proxyNtB5_7H1Proxy17handle_ws_upgrade
FN:1673,_RNvMs6_NtCscRJcA2zm81b_5lb_l78h1_proxyNtB5_7H1Proxy22proxy_h1_to_h2_request
FN:842,_RNvMs6_NtCscRJcA2zm81b_5lb_l78h1_proxyNtB5_7H1Proxy6handle
FN:2772,_RNvNtCscRJcA2zm81b_5lb_l78h1_proxy10append_via
FN:2732,_RNvNtCscRJcA2zm81b_5lb_l78h1_proxy10append_xff
FN:2654,_RNvNtCscRJcA2zm81b_5lb_l78h1_proxy14error_response
FN:2893,_RNvNtCscRJcA2zm81b_5lb_l78h1_proxy16concat_h1_chunks
FN:2574,_RNvNtCscRJcA2zm81b_5lb_l78h1_proxy16dial_upstream_ws
FN:2698,_RNvNtCscRJcA2zm81b_5lb_l78h1_proxy16strip_hop_by_hop
FN:2879,_RNvNtCscRJcA2zm81b_5lb_l78h1_proxy18h1_to_h2_proxy_err
FN:3241,_RNvNtCscRJcA2zm81b_5lb_l78h1_proxy18record_retained_h1
FN:2678,_RNvNtCscRJcA2zm81b_5lb_l78h1_proxy18reject_to_response
FN:2633,_RNvNtCscRJcA2zm81b_5lb_l78h1_proxy21run_h1_ws_splice_task
FN:3019,_RNvNtCscRJcA2zm81b_5lb_l78h1_proxy23upstream_response_to_h1
FN:2955,_RNvNtCscRJcA2zm81b_5lb_l78h1_proxy24build_body_with_trailers
FN:3158,_RNvNtCscRJcA2zm81b_5lb_l78h1_proxy24build_h1_to_h3_fieldlist
FN:2943,_RNvNtCscRJcA2zm81b_5lb_l78h1_proxy27build_h1_streaming_response
FN:2917,_RNvNtCscRJcA2zm81b_5lb_l78h1_proxy28h3_decoded_resp_head_builder
FN:166,_RNvNtCscRJcA2zm81b_5lb_l78h1_proxy28validate_h1_request_trailers
FN:2814,_RNvNtCscRJcA2zm81b_5lb_l78h1_proxy29build_h1_to_h2_upstream_parts
FN:3085,_RNvNtCscRJcA2zm81b_5lb_l78h1_proxy31build_h1_response_with_trailers
FN:2761,_RNvNtCscRJcA2zm81b_5lb_l78h1_proxy7set_xfh
FN:2753,_RNvNtCscRJcA2zm81b_5lb_l78h1_proxy7set_xfp
FN:141,_RNvXNtCscRJcA2zm81b_5lb_l78h1_proxyNtB2_11H1PumpAbortNtNtCs2va5m0jqTTM_4core3fmt7Display3fmt
FN:227,_RNvXs1_NtCscRJcA2zm81b_5lb_l78h1_proxyNtB5_12HttpTimeoutsNtNtCs2va5m0jqTTM_4core7default7Default7default
FN:290,_RNvXs3_NtCscRJcA2zm81b_5lb_l78h1_proxyNtB5_15RoundRobinAddrsNtB5_13BackendPicker4pick
FN:791,_RNvXs5_NtCscRJcA2zm81b_5lb_l78h1_proxyNtB5_12ProxyServiceINtNtNtCsgB3dp6qvXvn_5hyper7service7service7ServiceINtNtCsjFxw70quGA5_4http7request7RequestNtNtNtB10_4body8incoming8IncomingEE4call
FN:2214,_RNCNCNCNCNCNvMs6_NtCscRJcA2zm81b_5lb_l78h1_proxyNtBf_7H1Proxy14proxy_h1_to_h300000Bh_
FN:2213,_RNCNCNCNCNvMs6_NtCscRJcA2zm81b_5lb_l78h1_proxyNtBd_7H1Proxy14proxy_h1_to_h30000Bf_
FN:1769,_RNCNCNCNCNvMs6_NtCscRJcA2zm81b_5lb_l78h1_proxyNtBd_7H1Proxy22proxy_h1_to_h2_request0000Bf_
FN:1067,_RNCNCNCNvMs6_NtCscRJcA2zm81b_5lb_l78h1_proxyNtBb_7H1Proxy12handle_inner0s5_00Bd_
FN:1101,_RNCNCNCNvMs6_NtCscRJcA2zm81b_5lb_l78h1_proxyNtBb_7H1Proxy12handle_inner0s6_00Bd_
FN:1325,_RNCNCNCNvMs6_NtCscRJcA2zm81b_5lb_l78h1_proxyNtBb_7H1Proxy13proxy_request0s3_00Bd_
FN:1334,_RNCNCNCNvMs6_NtCscRJcA2zm81b_5lb_l78h1_proxyNtBb_7H1Proxy13proxy_request0s3_0s_0Bd_
FN:2211,_RNCNCNCNvMs6_NtCscRJcA2zm81b_5lb_l78h1_proxyNtBb_7H1Proxy14proxy_h1_to_h3000Bd_
FN:1766,_RNCNCNCNvMs6_NtCscRJcA2zm81b_5lb_l78h1_proxyNtBb_7H1Proxy22proxy_h1_to_h2_request000Bd_
FN:1839,_RNCNCNCNvMs6_NtCscRJcA2zm81b_5lb_l78h1_proxyNtBb_7H1Proxy22proxy_h1_to_h2_request0s2_00Bd_
FN:1844,_RNCNCNCNvMs6_NtCscRJcA2zm81b_5lb_l78h1_proxyNtBb_7H1Proxy22proxy_h1_to_h2_request0s2_0s_0Bd_
FN:919,_RNCNCNvMs6_NtCscRJcA2zm81b_5lb_l78h1_proxyNtB9_7H1Proxy12handle_inner00Bb_
FN:942,_RNCNCNvMs6_NtCscRJcA2zm81b_5lb_l78h1_proxyNtB9_7H1Proxy12handle_inner0s0_0Bb_
FN:970,_RNCNCNvMs6_NtCscRJcA2zm81b_5lb_l78h1_proxyNtB9_7H1Proxy12handle_inner0s1_0Bb_
FN:982,_RNCNCNvMs6_NtCscRJcA2zm81b_5lb_l78h1_proxyNtB9_7H1Proxy12handle_inner0s2_0Bb_
FN:1010,_RNCNCNvMs6_NtCscRJcA2zm81b_5lb_l78h1_proxyNtB9_7H1Proxy12handle_inner0s3_0Bb_
FN:1037,_RNCNCNvMs6_NtCscRJcA2zm81b_5lb_l78h1_proxyNtB9_7H1Proxy12handle_inner0s4_0Bb_
FN:1064,_RNCNCNvMs6_NtCscRJcA2zm81b_5lb_l78h1_proxyNtB9_7H1Proxy12handle_inner0s5_0Bb_
FN:1085,_RNCNCNvMs6_NtCscRJcA2zm81b_5lb_l78h1_proxyNtB9_7H1Proxy12handle_inner0s6_0Bb_
FN:1112,_RNCNCNvMs6_NtCscRJcA2zm81b_5lb_l78h1_proxyNtB9_7H1Proxy12handle_inner0s7_0Bb_
FN:920,_RNCNCNvMs6_NtCscRJcA2zm81b_5lb_l78h1_proxyNtB9_7H1Proxy12handle_inner0s_0Bb_
FN:1235,_RNCNCNvMs6_NtCscRJcA2zm81b_5lb_l78h1_proxyNtB9_7H1Proxy13proxy_request00Bb_
FN:1256,_RNCNCNvMs6_NtCscRJcA2zm81b_5lb_l78h1_proxyNtB9_7H1Proxy13proxy_request0s0_0Bb_
FN:1258,_RNCNCNvMs6_NtCscRJcA2zm81b_5lb_l78h1_proxyNtB9_7H1Proxy13proxy_request0s1_0Bb_
FN:1288,_RNCNCNvMs6_NtCscRJcA2zm81b_5lb_l78h1_proxyNtB9_7H1Proxy13proxy_request0s2_0Bb_
FN:1320,_RNCNCNvMs6_NtCscRJcA2zm81b_5lb_l78h1_proxyNtB9_7H1Proxy13proxy_request0s3_0Bb_
FN:1608,_RNCNCNvMs6_NtCscRJcA2zm81b_5lb_l78h1_proxyNtB9_7H1Proxy13proxy_request0s4_0Bb_
FN:1244,_RNCNCNvMs6_NtCscRJcA2zm81b_5lb_l78h1_proxyNtB9_7H1Proxy13proxy_request0s_0Bb_
FN:2146,_RNCNCNvMs6_NtCscRJcA2zm81b_5lb_l78h1_proxyNtB9_7H1Proxy14proxy_h1_to_h300Bb_
FN:2300,_RNCNCNvMs6_NtCscRJcA2zm81b_5lb_l78h1_proxyNtB9_7H1Proxy14proxy_h1_to_h30s0_0Bb_
FN:2339,_RNCNCNvMs6_NtCscRJcA2zm81b_5lb_l78h1_proxyNtB9_7H1Proxy14proxy_h1_to_h30s1_0Bb_
FN:2350,_RNCNCNvMs6_NtCscRJcA2zm81b_5lb_l78h1_proxyNtB9_7H1Proxy14proxy_h1_to_h30s2_0Bb_
FN:2271,_RNCNCNvMs6_NtCscRJcA2zm81b_5lb_l78h1_proxyNtB9_7H1Proxy14proxy_h1_to_h30s_0Bb_
FN:2436,_RNCNCNvMs6_NtCscRJcA2zm81b_5lb_l78h1_proxyNtB9_7H1Proxy17handle_ws_upgrade00Bb_
FN:2509,_RNCNCNvMs6_NtCscRJcA2zm81b_5lb_l78h1_proxyNtB9_7H1Proxy17handle_ws_upgrade0s0_0Bb_
FN:2510,_RNCNCNvMs6_NtCscRJcA2zm81b_5lb_l78h1_proxyNtB9_7H1Proxy17handle_ws_upgrade0s1_0Bb_
FN:2512,_RNCNCNvMs6_NtCscRJcA2zm81b_5lb_l78h1_proxyNtB9_7H1Proxy17handle_ws_upgrade0s2_0Bb_
FN:2513,_RNCNCNvMs6_NtCscRJcA2zm81b_5lb_l78h1_proxyNtB9_7H1Proxy17handle_ws_upgrade0s3_0Bb_
FN:2524,_RNCNCNvMs6_NtCscRJcA2zm81b_5lb_l78h1_proxyNtB9_7H1Proxy17handle_ws_upgrade0s5_0Bb_
FN:2440,_RNCNCNvMs6_NtCscRJcA2zm81b_5lb_l78h1_proxyNtB9_7H1Proxy17handle_ws_upgrade0s_0Bb_
FN:1764,_RNCNCNvMs6_NtCscRJcA2zm81b_5lb_l78h1_proxyNtB9_7H1Proxy22proxy_h1_to_h2_request00Bb_
FN:1807,_RNCNCNvMs6_NtCscRJcA2zm81b_5lb_l78h1_proxyNtB9_7H1Proxy22proxy_h1_to_h2_request0s0_0Bb_
FN:1816,_RNCNCNvMs6_NtCscRJcA2zm81b_5lb_l78h1_proxyNtB9_7H1Proxy22proxy_h1_to_h2_request0s1_0Bb_
FN:1838,_RNCNCNvMs6_NtCscRJcA2zm81b_5lb_l78h1_proxyNtB9_7H1Proxy22proxy_h1_to_h2_request0s2_0Bb_
FN:1782,_RNCNCNvMs6_NtCscRJcA2zm81b_5lb_l78h1_proxyNtB9_7H1Proxy22proxy_h1_to_h2_request0s_0Bb_
FN:2589,_RNCNCNvNtCscRJcA2zm81b_5lb_l78h1_proxy16dial_upstream_ws00B7_
FN:2596,_RNCNCNvNtCscRJcA2zm81b_5lb_l78h1_proxy16dial_upstream_ws0s0_0B7_
FN:2624,_RNCNCNvNtCscRJcA2zm81b_5lb_l78h1_proxy16dial_upstream_ws0s1_0B7_
FN:2592,_RNCNCNvNtCscRJcA2zm81b_5lb_l78h1_proxy16dial_upstream_ws0s_0B7_
FN:3183,_RNCNCNvNtCscRJcA2zm81b_5lb_l78h1_proxy24build_h1_to_h3_fieldlists1_00B7_
FN:2830,_RNCNCNvNtCscRJcA2zm81b_5lb_l78h1_proxy29build_h1_to_h2_upstream_partss_00B7_
FN:880,_RNCNvMs6_NtCscRJcA2zm81b_5lb_l78h1_proxyNtB7_7H1Proxy12handle_inner0B9_
FN:1200,_RNCNvMs6_NtCscRJcA2zm81b_5lb_l78h1_proxyNtB7_7H1Proxy13proxy_request0B9_
FN:2037,_RNCNvMs6_NtCscRJcA2zm81b_5lb_l78h1_proxyNtB7_7H1Proxy14proxy_h1_to_h20B9_
FN:2104,_RNCNvMs6_NtCscRJcA2zm81b_5lb_l78h1_proxyNtB7_7H1Proxy14proxy_h1_to_h30B9_
FN:2543,_RNCNvMs6_NtCscRJcA2zm81b_5lb_l78h1_proxyNtB7_7H1Proxy17finalize_response0B9_
FN:2413,_RNCNvMs6_NtCscRJcA2zm81b_5lb_l78h1_proxyNtB7_7H1Proxy17handle_ws_upgrade0B9_
FN:1678,_RNCNvMs6_NtCscRJcA2zm81b_5lb_l78h1_proxyNtB7_7H1Proxy22proxy_h1_to_h2_request0B9_
FN:847,_RNCNvMs6_NtCscRJcA2zm81b_5lb_l78h1_proxyNtB7_7H1Proxy6handle0B9_
FN:2582,_RNCNvNtCscRJcA2zm81b_5lb_l78h1_proxy16dial_upstream_ws0B5_
FN:2704,_RNCNvNtCscRJcA2zm81b_5lb_l78h1_proxy16strip_hop_by_hop0B5_
FN:2707,_RNCNvNtCscRJcA2zm81b_5lb_l78h1_proxy16strip_hop_by_hops0_0B5_
FN:2708,_RNCNvNtCscRJcA2zm81b_5lb_l78h1_proxy16strip_hop_by_hops1_0B5_
FN:2705,_RNCNvNtCscRJcA2zm81b_5lb_l78h1_proxy16strip_hop_by_hops_0B5_
FN:2637,_RNCNvNtCscRJcA2zm81b_5lb_l78h1_proxy21run_h1_ws_splice_task0B5_
FN:3055,_RNCNvNtCscRJcA2zm81b_5lb_l78h1_proxy23upstream_response_to_h10B5_
FN:3058,_RNCNvNtCscRJcA2zm81b_5lb_l78h1_proxy23upstream_response_to_h1s_0B5_
FN:3166,_RNCNvNtCscRJcA2zm81b_5lb_l78h1_proxy24build_h1_to_h3_fieldlist0B5_
FN:3175,_RNCNvNtCscRJcA2zm81b_5lb_l78h1_proxy24build_h1_to_h3_fieldlists0_0B5_
FN:3180,_RNCNvNtCscRJcA2zm81b_5lb_l78h1_proxy24build_h1_to_h3_fieldlists1_0B5_
FN:3187,_RNCNvNtCscRJcA2zm81b_5lb_l78h1_proxy24build_h1_to_h3_fieldlists2_0B5_
FN:3200,_RNCNvNtCscRJcA2zm81b_5lb_l78h1_proxy24build_h1_to_h3_fieldlists3_0B5_
FN:3204,_RNCNvNtCscRJcA2zm81b_5lb_l78h1_proxy24build_h1_to_h3_fieldlists4_0B5_
FN:3167,_RNCNvNtCscRJcA2zm81b_5lb_l78h1_proxy24build_h1_to_h3_fieldlists_0B5_
FN:2947,_RNCNvNtCscRJcA2zm81b_5lb_l78h1_proxy27build_h1_streaming_response0B5_
FN:177,_RNCNvNtCscRJcA2zm81b_5lb_l78h1_proxy28validate_h1_request_trailers0B5_
FN:2823,_RNCNvNtCscRJcA2zm81b_5lb_l78h1_proxy29build_h1_to_h2_upstream_parts0B5_
FN:2839,_RNCNvNtCscRJcA2zm81b_5lb_l78h1_proxy29build_h1_to_h2_upstream_partss0_0B5_
FN:2845,_RNCNvNtCscRJcA2zm81b_5lb_l78h1_proxy29build_h1_to_h2_upstream_partss1_0B5_
FN:2846,_RNCNvNtCscRJcA2zm81b_5lb_l78h1_proxy29build_h1_to_h2_upstream_partss2_0B5_
FN:2847,_RNCNvNtCscRJcA2zm81b_5lb_l78h1_proxy29build_h1_to_h2_upstream_partss3_0B5_
FN:2869,_RNCNvNtCscRJcA2zm81b_5lb_l78h1_proxy29build_h1_to_h2_upstream_partss4_0B5_
FN:2827,_RNCNvNtCscRJcA2zm81b_5lb_l78h1_proxy29build_h1_to_h2_upstream_partss_0B5_
FN:3121,_RNCNvNtCscRJcA2zm81b_5lb_l78h1_proxy31build_h1_response_with_trailers0B5_
FN:3144,_RNCNvNtCscRJcA2zm81b_5lb_l78h1_proxy31build_h1_response_with_trailerss0_0B5_
FN:3142,_RNCNvNtCscRJcA2zm81b_5lb_l78h1_proxy31build_h1_response_with_trailerss_0B5_
FN:806,_RNCNvXs5_NtCscRJcA2zm81b_5lb_l78h1_proxyNtB7_12ProxyServiceINtNtNtCsgB3dp6qvXvn_5hyper7service7service7ServiceINtNtCsjFxw70quGA5_4http7request7RequestNtNtNtB12_4body8incoming8IncomingEE4call0B9_
FN:629,_RINvMs4_NtCscRJcA2zm81b_5lb_l78h1_proxyNtB6_7H1Proxy28serve_connection_with_cancelNtNtNtNtCsfWKKmeeA0Vo_5tokio3net3tcp6stream9TcpStreamECsg9xlZenf2AU_14expressgateway
FN:660,_RINvMs4_NtCscRJcA2zm81b_5lb_l78h1_proxyNtB6_7H1Proxy32serve_connection_with_cancel_sniINtNtCs7m3feRqGqA4_12tokio_rustls6server9TlsStreamNtNtNtNtCsfWKKmeeA0Vo_5tokio3net3tcp6stream9TcpStreamEECsg9xlZenf2AU_14expressgateway
FN:660,_RINvMs4_NtCscRJcA2zm81b_5lb_l78h1_proxyNtB6_7H1Proxy32serve_connection_with_cancel_sniNtNtNtNtCsfWKKmeeA0Vo_5tokio3net3tcp6stream9TcpStreamECsg9xlZenf2AU_14expressgateway
FN:637,_RNCINvMs4_NtCscRJcA2zm81b_5lb_l78h1_proxyNtB8_7H1Proxy28serve_connection_with_cancelNtNtNtNtCsfWKKmeeA0Vo_5tokio3net3tcp6stream9TcpStreamE0Csg9xlZenf2AU_14expressgateway
FN:669,_RNCINvMs4_NtCscRJcA2zm81b_5lb_l78h1_proxyNtB8_7H1Proxy32serve_connection_with_cancel_sniINtNtCs7m3feRqGqA4_12tokio_rustls6server9TlsStreamNtNtNtNtCsfWKKmeeA0Vo_5tokio3net3tcp6stream9TcpStreamEE0Csg9xlZenf2AU_14expressgateway
FN:669,_RNCINvMs4_NtCscRJcA2zm81b_5lb_l78h1_proxyNtB8_7H1Proxy32serve_connection_with_cancel_sniNtNtNtNtCsfWKKmeeA0Vo_5tokio3net3tcp6stream9TcpStreamE0Csg9xlZenf2AU_14expressgateway
FN:201,_RNvMs0_NtCsijo3INtYyGB_5lb_l78h1_proxyNtB5_12AltSvcConfig12header_value
FN:278,_RNvMs2_NtCsijo3INtYyGB_5lb_l78h1_proxyNtB5_15RoundRobinAddrs3new
FN:387,_RNvMs4_NtCsijo3INtYyGB_5lb_l78h1_proxyNtB5_7H1Proxy3new
FN:874,_RNvMs6_NtCsijo3INtYyGB_5lb_l78h1_proxyNtB5_7H1Proxy12handle_inner
FN:1196,_RNvMs6_NtCsijo3INtYyGB_5lb_l78h1_proxyNtB5_7H1Proxy13proxy_request
FN:2033,_RNvMs6_NtCsijo3INtYyGB_5lb_l78h1_proxyNtB5_7H1Proxy14proxy_h1_to_h2
FN:2100,_RNvMs6_NtCsijo3INtYyGB_5lb_l78h1_proxyNtB5_7H1Proxy14proxy_h1_to_h3
FN:2529,_RNvMs6_NtCsijo3INtYyGB_5lb_l78h1_proxyNtB5_7H1Proxy17finalize_response
FN:2409,_RNvMs6_NtCsijo3INtYyGB_5lb_l78h1_proxyNtB5_7H1Proxy17handle_ws_upgrade
FN:1673,_RNvMs6_NtCsijo3INtYyGB_5lb_l78h1_proxyNtB5_7H1Proxy22proxy_h1_to_h2_request
FN:842,_RNvMs6_NtCsijo3INtYyGB_5lb_l78h1_proxyNtB5_7H1Proxy6handle
FN:2772,_RNvNtCsijo3INtYyGB_5lb_l78h1_proxy10append_via
FN:2732,_RNvNtCsijo3INtYyGB_5lb_l78h1_proxy10append_xff
FN:2654,_RNvNtCsijo3INtYyGB_5lb_l78h1_proxy14error_response
FN:2893,_RNvNtCsijo3INtYyGB_5lb_l78h1_proxy16concat_h1_chunks
FN:2574,_RNvNtCsijo3INtYyGB_5lb_l78h1_proxy16dial_upstream_ws
FN:2698,_RNvNtCsijo3INtYyGB_5lb_l78h1_proxy16strip_hop_by_hop
FN:2879,_RNvNtCsijo3INtYyGB_5lb_l78h1_proxy18h1_to_h2_proxy_err
FN:3241,_RNvNtCsijo3INtYyGB_5lb_l78h1_proxy18record_retained_h1
FN:2678,_RNvNtCsijo3INtYyGB_5lb_l78h1_proxy18reject_to_response
FN:2633,_RNvNtCsijo3INtYyGB_5lb_l78h1_proxy21run_h1_ws_splice_task
FN:3019,_RNvNtCsijo3INtYyGB_5lb_l78h1_proxy23upstream_response_to_h1
FN:2955,_RNvNtCsijo3INtYyGB_5lb_l78h1_proxy24build_body_with_trailers
FN:3158,_RNvNtCsijo3INtYyGB_5lb_l78h1_proxy24build_h1_to_h3_fieldlist
FN:2943,_RNvNtCsijo3INtYyGB_5lb_l78h1_proxy27build_h1_streaming_response
FN:2917,_RNvNtCsijo3INtYyGB_5lb_l78h1_proxy28h3_decoded_resp_head_builder
FN:166,_RNvNtCsijo3INtYyGB_5lb_l78h1_proxy28validate_h1_request_trailers
FN:2814,_RNvNtCsijo3INtYyGB_5lb_l78h1_proxy29build_h1_to_h2_upstream_parts
FN:2761,_RNvNtCsijo3INtYyGB_5lb_l78h1_proxy7set_xfh
FN:2753,_RNvNtCsijo3INtYyGB_5lb_l78h1_proxy7set_xfp
FN:141,_RNvXNtCsijo3INtYyGB_5lb_l78h1_proxyNtB2_11H1PumpAbortNtNtCs2va5m0jqTTM_4core3fmt7Display3fmt
FN:227,_RNvXs1_NtCsijo3INtYyGB_5lb_l78h1_proxyNtB5_12HttpTimeoutsNtNtCs2va5m0jqTTM_4core7default7Default7default
FN:290,_RNvXs3_NtCsijo3INtYyGB_5lb_l78h1_proxyNtB5_15RoundRobinAddrsNtB5_13BackendPicker4pick
FN:791,_RNvXs5_NtCsijo3INtYyGB_5lb_l78h1_proxyNtB5_12ProxyServiceINtNtNtCsgB3dp6qvXvn_5hyper7service7service7ServiceINtNtCsjFxw70quGA5_4http7request7RequestNtNtNtB10_4body8incoming8IncomingEE4call
FN:629,_RINvMs4_NtCsijo3INtYyGB_5lb_l78h1_proxyNtB6_7H1Proxy28serve_connection_with_cancelNtNtNtNtCsfWKKmeeA0Vo_5tokio2io4util3mem12DuplexStreamEB8_
FN:660,_RINvMs4_NtCsijo3INtYyGB_5lb_l78h1_proxyNtB6_7H1Proxy32serve_connection_with_cancel_sniNtNtNtNtCsfWKKmeeA0Vo_5tokio2io4util3mem12DuplexStreamEB8_
FN:637,_RNCINvMs4_NtCsijo3INtYyGB_5lb_l78h1_proxyNtB8_7H1Proxy28serve_connection_with_cancelNtNtNtNtCsfWKKmeeA0Vo_5tokio2io4util3mem12DuplexStreamE0Ba_
FN:669,_RNCINvMs4_NtCsijo3INtYyGB_5lb_l78h1_proxyNtB8_7H1Proxy32serve_connection_with_cancel_sniNtNtNtNtCsfWKKmeeA0Vo_5tokio2io4util3mem12DuplexStreamE0Ba_
FN:2214,_RNCNCNCNCNCNvMs6_NtCsijo3INtYyGB_5lb_l78h1_proxyNtBf_7H1Proxy14proxy_h1_to_h300000Bh_
FN:2213,_RNCNCNCNCNvMs6_NtCsijo3INtYyGB_5lb_l78h1_proxyNtBd_7H1Proxy14proxy_h1_to_h30000Bf_
FN:1769,_RNCNCNCNCNvMs6_NtCsijo3INtYyGB_5lb_l78h1_proxyNtBd_7H1Proxy22proxy_h1_to_h2_request0000Bf_
FN:1067,_RNCNCNCNvMs6_NtCsijo3INtYyGB_5lb_l78h1_proxyNtBb_7H1Proxy12handle_inner0s5_00Bd_
FN:1101,_RNCNCNCNvMs6_NtCsijo3INtYyGB_5lb_l78h1_proxyNtBb_7H1Proxy12handle_inner0s6_00Bd_
FN:1325,_RNCNCNCNvMs6_NtCsijo3INtYyGB_5lb_l78h1_proxyNtBb_7H1Proxy13proxy_request0s3_00Bd_
FN:1334,_RNCNCNCNvMs6_NtCsijo3INtYyGB_5lb_l78h1_proxyNtBb_7H1Proxy13proxy_request0s3_0s_0Bd_
FN:2211,_RNCNCNCNvMs6_NtCsijo3INtYyGB_5lb_l78h1_proxyNtBb_7H1Proxy14proxy_h1_to_h3000Bd_
FN:1766,_RNCNCNCNvMs6_NtCsijo3INtYyGB_5lb_l78h1_proxyNtBb_7H1Proxy22proxy_h1_to_h2_request000Bd_
FN:1839,_RNCNCNCNvMs6_NtCsijo3INtYyGB_5lb_l78h1_proxyNtBb_7H1Proxy22proxy_h1_to_h2_request0s2_00Bd_
FN:1844,_RNCNCNCNvMs6_NtCsijo3INtYyGB_5lb_l78h1_proxyNtBb_7H1Proxy22proxy_h1_to_h2_request0s2_0s_0Bd_
FN:919,_RNCNCNvMs6_NtCsijo3INtYyGB_5lb_l78h1_proxyNtB9_7H1Proxy12handle_inner00Bb_
FN:942,_RNCNCNvMs6_NtCsijo3INtYyGB_5lb_l78h1_proxyNtB9_7H1Proxy12handle_inner0s0_0Bb_
FN:970,_RNCNCNvMs6_NtCsijo3INtYyGB_5lb_l78h1_proxyNtB9_7H1Proxy12handle_inner0s1_0Bb_
FN:982,_RNCNCNvMs6_NtCsijo3INtYyGB_5lb_l78h1_proxyNtB9_7H1Proxy12handle_inner0s2_0Bb_
FN:1010,_RNCNCNvMs6_NtCsijo3INtYyGB_5lb_l78h1_proxyNtB9_7H1Proxy12handle_inner0s3_0Bb_
FN:1037,_RNCNCNvMs6_NtCsijo3INtYyGB_5lb_l78h1_proxyNtB9_7H1Proxy12handle_inner0s4_0Bb_
FN:1064,_RNCNCNvMs6_NtCsijo3INtYyGB_5lb_l78h1_proxyNtB9_7H1Proxy12handle_inner0s5_0Bb_
FN:1085,_RNCNCNvMs6_NtCsijo3INtYyGB_5lb_l78h1_proxyNtB9_7H1Proxy12handle_inner0s6_0Bb_
FN:1112,_RNCNCNvMs6_NtCsijo3INtYyGB_5lb_l78h1_proxyNtB9_7H1Proxy12handle_inner0s7_0Bb_
FN:920,_RNCNCNvMs6_NtCsijo3INtYyGB_5lb_l78h1_proxyNtB9_7H1Proxy12handle_inner0s_0Bb_
FN:1235,_RNCNCNvMs6_NtCsijo3INtYyGB_5lb_l78h1_proxyNtB9_7H1Proxy13proxy_request00Bb_
FN:1256,_RNCNCNvMs6_NtCsijo3INtYyGB_5lb_l78h1_proxyNtB9_7H1Proxy13proxy_request0s0_0Bb_
FN:1258,_RNCNCNvMs6_NtCsijo3INtYyGB_5lb_l78h1_proxyNtB9_7H1Proxy13proxy_request0s1_0Bb_
FN:1288,_RNCNCNvMs6_NtCsijo3INtYyGB_5lb_l78h1_proxyNtB9_7H1Proxy13proxy_request0s2_0Bb_
FN:1320,_RNCNCNvMs6_NtCsijo3INtYyGB_5lb_l78h1_proxyNtB9_7H1Proxy13proxy_request0s3_0Bb_
FN:1608,_RNCNCNvMs6_NtCsijo3INtYyGB_5lb_l78h1_proxyNtB9_7H1Proxy13proxy_request0s4_0Bb_
FN:1244,_RNCNCNvMs6_NtCsijo3INtYyGB_5lb_l78h1_proxyNtB9_7H1Proxy13proxy_request0s_0Bb_
FN:2146,_RNCNCNvMs6_NtCsijo3INtYyGB_5lb_l78h1_proxyNtB9_7H1Proxy14proxy_h1_to_h300Bb_
FN:2300,_RNCNCNvMs6_NtCsijo3INtYyGB_5lb_l78h1_proxyNtB9_7H1Proxy14proxy_h1_to_h30s0_0Bb_
FN:2339,_RNCNCNvMs6_NtCsijo3INtYyGB_5lb_l78h1_proxyNtB9_7H1Proxy14proxy_h1_to_h30s1_0Bb_
FN:2350,_RNCNCNvMs6_NtCsijo3INtYyGB_5lb_l78h1_proxyNtB9_7H1Proxy14proxy_h1_to_h30s2_0Bb_
FN:2271,_RNCNCNvMs6_NtCsijo3INtYyGB_5lb_l78h1_proxyNtB9_7H1Proxy14proxy_h1_to_h30s_0Bb_
FN:2436,_RNCNCNvMs6_NtCsijo3INtYyGB_5lb_l78h1_proxyNtB9_7H1Proxy17handle_ws_upgrade00Bb_
FN:2509,_RNCNCNvMs6_NtCsijo3INtYyGB_5lb_l78h1_proxyNtB9_7H1Proxy17handle_ws_upgrade0s0_0Bb_
FN:2510,_RNCNCNvMs6_NtCsijo3INtYyGB_5lb_l78h1_proxyNtB9_7H1Proxy17handle_ws_upgrade0s1_0Bb_
FN:2512,_RNCNCNvMs6_NtCsijo3INtYyGB_5lb_l78h1_proxyNtB9_7H1Proxy17handle_ws_upgrade0s2_0Bb_
FN:2513,_RNCNCNvMs6_NtCsijo3INtYyGB_5lb_l78h1_proxyNtB9_7H1Proxy17handle_ws_upgrade0s3_0Bb_
FN:2524,_RNCNCNvMs6_NtCsijo3INtYyGB_5lb_l78h1_proxyNtB9_7H1Proxy17handle_ws_upgrade0s5_0Bb_
FN:2440,_RNCNCNvMs6_NtCsijo3INtYyGB_5lb_l78h1_proxyNtB9_7H1Proxy17handle_ws_upgrade0s_0Bb_
FN:1764,_RNCNCNvMs6_NtCsijo3INtYyGB_5lb_l78h1_proxyNtB9_7H1Proxy22proxy_h1_to_h2_request00Bb_
FN:1807,_RNCNCNvMs6_NtCsijo3INtYyGB_5lb_l78h1_proxyNtB9_7H1Proxy22proxy_h1_to_h2_request0s0_0Bb_
FN:1816,_RNCNCNvMs6_NtCsijo3INtYyGB_5lb_l78h1_proxyNtB9_7H1Proxy22proxy_h1_to_h2_request0s1_0Bb_
FN:1838,_RNCNCNvMs6_NtCsijo3INtYyGB_5lb_l78h1_proxyNtB9_7H1Proxy22proxy_h1_to_h2_request0s2_0Bb_
FN:1782,_RNCNCNvMs6_NtCsijo3INtYyGB_5lb_l78h1_proxyNtB9_7H1Proxy22proxy_h1_to_h2_request0s_0Bb_
FN:2589,_RNCNCNvNtCsijo3INtYyGB_5lb_l78h1_proxy16dial_upstream_ws00B7_
FN:2596,_RNCNCNvNtCsijo3INtYyGB_5lb_l78h1_proxy16dial_upstream_ws0s0_0B7_
FN:2624,_RNCNCNvNtCsijo3INtYyGB_5lb_l78h1_proxy16dial_upstream_ws0s1_0B7_
FN:2592,_RNCNCNvNtCsijo3INtYyGB_5lb_l78h1_proxy16dial_upstream_ws0s_0B7_
FN:3183,_RNCNCNvNtCsijo3INtYyGB_5lb_l78h1_proxy24build_h1_to_h3_fieldlists1_00B7_
FN:2830,_RNCNCNvNtCsijo3INtYyGB_5lb_l78h1_proxy29build_h1_to_h2_upstream_partss_00B7_
FN:880,_RNCNvMs6_NtCsijo3INtYyGB_5lb_l78h1_proxyNtB7_7H1Proxy12handle_inner0B9_
FN:1200,_RNCNvMs6_NtCsijo3INtYyGB_5lb_l78h1_proxyNtB7_7H1Proxy13proxy_request0B9_
FN:2037,_RNCNvMs6_NtCsijo3INtYyGB_5lb_l78h1_proxyNtB7_7H1Proxy14proxy_h1_to_h20B9_
FN:2104,_RNCNvMs6_NtCsijo3INtYyGB_5lb_l78h1_proxyNtB7_7H1Proxy14proxy_h1_to_h30B9_
FN:2543,_RNCNvMs6_NtCsijo3INtYyGB_5lb_l78h1_proxyNtB7_7H1Proxy17finalize_response0B9_
FN:2413,_RNCNvMs6_NtCsijo3INtYyGB_5lb_l78h1_proxyNtB7_7H1Proxy17handle_ws_upgrade0B9_
FN:1678,_RNCNvMs6_NtCsijo3INtYyGB_5lb_l78h1_proxyNtB7_7H1Proxy22proxy_h1_to_h2_request0B9_
FN:847,_RNCNvMs6_NtCsijo3INtYyGB_5lb_l78h1_proxyNtB7_7H1Proxy6handle0B9_
FN:2582,_RNCNvNtCsijo3INtYyGB_5lb_l78h1_proxy16dial_upstream_ws0B5_
FN:2704,_RNCNvNtCsijo3INtYyGB_5lb_l78h1_proxy16strip_hop_by_hop0B5_
FN:2707,_RNCNvNtCsijo3INtYyGB_5lb_l78h1_proxy16strip_hop_by_hops0_0B5_
FN:2708,_RNCNvNtCsijo3INtYyGB_5lb_l78h1_proxy16strip_hop_by_hops1_0B5_
FN:2705,_RNCNvNtCsijo3INtYyGB_5lb_l78h1_proxy16strip_hop_by_hops_0B5_
FN:2637,_RNCNvNtCsijo3INtYyGB_5lb_l78h1_proxy21run_h1_ws_splice_task0B5_
FN:3055,_RNCNvNtCsijo3INtYyGB_5lb_l78h1_proxy23upstream_response_to_h10B5_
FN:3058,_RNCNvNtCsijo3INtYyGB_5lb_l78h1_proxy23upstream_response_to_h1s_0B5_
FN:3166,_RNCNvNtCsijo3INtYyGB_5lb_l78h1_proxy24build_h1_to_h3_fieldlist0B5_
FN:3175,_RNCNvNtCsijo3INtYyGB_5lb_l78h1_proxy24build_h1_to_h3_fieldlists0_0B5_
FN:3180,_RNCNvNtCsijo3INtYyGB_5lb_l78h1_proxy24build_h1_to_h3_fieldlists1_0B5_
FN:3187,_RNCNvNtCsijo3INtYyGB_5lb_l78h1_proxy24build_h1_to_h3_fieldlists2_0B5_
FN:3200,_RNCNvNtCsijo3INtYyGB_5lb_l78h1_proxy24build_h1_to_h3_fieldlists3_0B5_
FN:3204,_RNCNvNtCsijo3INtYyGB_5lb_l78h1_proxy24build_h1_to_h3_fieldlists4_0B5_
FN:3167,_RNCNvNtCsijo3INtYyGB_5lb_l78h1_proxy24build_h1_to_h3_fieldlists_0B5_
FN:2947,_RNCNvNtCsijo3INtYyGB_5lb_l78h1_proxy27build_h1_streaming_response0B5_
FN:177,_RNCNvNtCsijo3INtYyGB_5lb_l78h1_proxy28validate_h1_request_trailers0B5_
FN:2823,_RNCNvNtCsijo3INtYyGB_5lb_l78h1_proxy29build_h1_to_h2_upstream_parts0B5_
FN:2839,_RNCNvNtCsijo3INtYyGB_5lb_l78h1_proxy29build_h1_to_h2_upstream_partss0_0B5_
FN:2845,_RNCNvNtCsijo3INtYyGB_5lb_l78h1_proxy29build_h1_to_h2_upstream_partss1_0B5_
FN:2846,_RNCNvNtCsijo3INtYyGB_5lb_l78h1_proxy29build_h1_to_h2_upstream_partss2_0B5_
FN:2847,_RNCNvNtCsijo3INtYyGB_5lb_l78h1_proxy29build_h1_to_h2_upstream_partss3_0B5_
FN:2869,_RNCNvNtCsijo3INtYyGB_5lb_l78h1_proxy29build_h1_to_h2_upstream_partss4_0B5_
FN:2827,_RNCNvNtCsijo3INtYyGB_5lb_l78h1_proxy29build_h1_to_h2_upstream_partss_0B5_
FN:806,_RNCNvXs5_NtCsijo3INtYyGB_5lb_l78h1_proxyNtB7_12ProxyServiceINtNtNtCsgB3dp6qvXvn_5hyper7service7service7ServiceINtNtCsjFxw70quGA5_4http7request7RequestNtNtNtB12_4body8incoming8IncomingEE4call0B9_
FN:594,_RINvMs4_NtCsijo3INtYyGB_5lb_l78h1_proxyNtB6_7H1Proxy16serve_connectionpEB8_
FN:597,_RNCINvMs4_NtCsijo3INtYyGB_5lb_l78h1_proxyNtB8_7H1Proxy16serve_connectionpE0Ba_
FN:3121,_RNCNvNtCsijo3INtYyGB_5lb_l78h1_proxy31build_h1_response_with_trailers0B5_
FN:3144,_RNCNvNtCsijo3INtYyGB_5lb_l78h1_proxy31build_h1_response_with_trailerss0_0B5_
FN:3142,_RNCNvNtCsijo3INtYyGB_5lb_l78h1_proxy31build_h1_response_with_trailerss_0B5_
FN:468,_RNvMs4_NtCsijo3INtYyGB_5lb_l78h1_proxyNtB5_7H1Proxy10with_hooks
FN:483,_RNvMs4_NtCsijo3INtYyGB_5lb_l78h1_proxyNtB5_7H1Proxy13with_watchdog
FN:576,_RNvMs4_NtCsijo3INtYyGB_5lb_l78h1_proxyNtB5_7H1Proxy14with_websocket
FN:541,_RNvMs4_NtCsijo3INtYyGB_5lb_l78h1_proxyNtB5_7H1Proxy15has_h2_upstream
FN:548,_RNvMs4_NtCsijo3INtYyGB_5lb_l78h1_proxyNtB5_7H1Proxy15has_h3_upstream
FN:524,_RNvMs4_NtCsijo3INtYyGB_5lb_l78h1_proxyNtB5_7H1Proxy16with_h2_upstream
FN:532,_RNvMs4_NtCsijo3INtYyGB_5lb_l78h1_proxyNtB5_7H1Proxy16with_h3_upstream
FN:431,_RNvMs4_NtCsijo3INtYyGB_5lb_l78h1_proxyNtB5_7H1Proxy16with_multi_proto
FN:516,_RNvMs4_NtCsijo3INtYyGB_5lb_l78h1_proxyNtB5_7H1Proxy17with_expected_sni
FN:493,_RNvMs4_NtCsijo3INtYyGB_5lb_l78h1_proxyNtB5_7H1Proxy19with_smuggle_strict
FN:557,_RNvMs4_NtCsijo3INtYyGB_5lb_l78h1_proxyNtB5_7H1Proxy27with_max_keepalive_requests
FN:504,_RNvMs4_NtCsijo3INtYyGB_5lb_l78h1_proxyNtB5_7H1Proxy29with_header_underscore_policy
FN:567,_RNvMs4_NtCsijo3INtYyGB_5lb_l78h1_proxyNtB5_7H1Proxy33keepalive_cap_termination_counter
FN:3085,_RNvNtCsijo3INtYyGB_5lb_l78h1_proxy31build_h1_response_with_trailers
FN:3356,_RNCNvNtNtCsijo3INtYyGB_5lb_l78h1_proxy5testss_23via_two_lines_preserved0B7_
FN:3332,_RNCNvNtNtCsijo3INtYyGB_5lb_l78h1_proxy5testss_35x_forwarded_for_two_lines_preserved0B7_
FN:3431,_RNCNvNtNtCsijo3INtYyGB_5lb_l78h1_proxy5testss_42test_sigterm_h1_graceful_shutdown_resolves0B7_
FN:3263,_RNvNtNtCsijo3INtYyGB_5lb_l78h1_proxy5tests8map_with
FN:3365,_RNvNtNtCsijo3INtYyGB_5lb_l78h1_proxy5testss_12via_appended
FN:3348,_RNvNtNtCsijo3INtYyGB_5lb_l78h1_proxy5testss_23via_two_lines_preserved
FN:3295,_RNvNtNtCsijo3INtYyGB_5lb_l78h1_proxy5testss_24x_forwarded_for_appended
FN:3407,_RNvNtNtCsijo3INtYyGB_5lb_l78h1_proxy5testss_25round_robin_picker_cycles
FN:3417,_RNvNtNtCsijo3INtYyGB_5lb_l78h1_proxy5testss_30round_robin_empty_returns_none
FN:3372,_RNvNtNtCsijo3INtYyGB_5lb_l78h1_proxy5testss_32alt_svc_injected_when_configured
FN:3384,_RNvNtNtCsijo3INtYyGB_5lb_l78h1_proxy5testss_34alt_svc_absent_when_not_configured
FN:3303,_RNvNtNtCsijo3INtYyGB_5lb_l78h1_proxy5testss_35x_forwarded_for_created_when_absent
FN:3317,_RNvNtNtCsijo3INtYyGB_5lb_l78h1_proxy5testss_35x_forwarded_for_two_lines_preserved
FN:3275,_RNvNtNtCsijo3INtYyGB_5lb_l78h1_proxy5testss_40hop_by_hop_headers_stripped_from_request
FN:3431,_RNvNtNtCsijo3INtYyGB_5lb_l78h1_proxy5testss_42test_sigterm_h1_graceful_shutdown_resolves
FN:3390,_RNvNtNtCsijo3INtYyGB_5lb_l78h1_proxy5testss_65hop_by_hop_response_strips_te_and_transfer_encoding_keeps_trailer
FN:594,_RINvMs4_NtCscRJcA2zm81b_5lb_l78h1_proxyNtB6_7H1Proxy16serve_connectionNtNtNtNtCsfWKKmeeA0Vo_5tokio3net3tcp6stream9TcpStreamECshNrGFH5ArmH_25round8_authority_enforced
FN:629,_RINvMs4_NtCscRJcA2zm81b_5lb_l78h1_proxyNtB6_7H1Proxy28serve_connection_with_cancelNtNtNtNtCsfWKKmeeA0Vo_5tokio3net3tcp6stream9TcpStreamECshNrGFH5ArmH_25round8_authority_enforced
FN:660,_RINvMs4_NtCscRJcA2zm81b_5lb_l78h1_proxyNtB6_7H1Proxy32serve_connection_with_cancel_sniNtNtNtNtCsfWKKmeeA0Vo_5tokio3net3tcp6stream9TcpStreamECshNrGFH5ArmH_25round8_authority_enforced
FN:597,_RNCINvMs4_NtCscRJcA2zm81b_5lb_l78h1_proxyNtB8_7H1Proxy16serve_connectionNtNtNtNtCsfWKKmeeA0Vo_5tokio3net3tcp6stream9TcpStreamE0CshNrGFH5ArmH_25round8_authority_enforced
FN:637,_RNCINvMs4_NtCscRJcA2zm81b_5lb_l78h1_proxyNtB8_7H1Proxy28serve_connection_with_cancelNtNtNtNtCsfWKKmeeA0Vo_5tokio3net3tcp6stream9TcpStreamE0CshNrGFH5ArmH_25round8_authority_enforced
FN:669,_RNCINvMs4_NtCscRJcA2zm81b_5lb_l78h1_proxyNtB8_7H1Proxy32serve_connection_with_cancel_sniNtNtNtNtCsfWKKmeeA0Vo_5tokio3net3tcp6stream9TcpStreamE0CshNrGFH5ArmH_25round8_authority_enforced
FN:594,_RINvMs4_NtCscRJcA2zm81b_5lb_l78h1_proxyNtB6_7H1Proxy16serve_connectionNtNtNtNtCsfWKKmeeA0Vo_5tokio3net3tcp6stream9TcpStreamECs7FY36ZOtpKW_26round8_keepalive_count_cap
FN:629,_RINvMs4_NtCscRJcA2zm81b_5lb_l78h1_proxyNtB6_7H1Proxy28serve_connection_with_cancelNtNtNtNtCsfWKKmeeA0Vo_5tokio3net3tcp6stream9TcpStreamECs7FY36ZOtpKW_26round8_keepalive_count_cap
FN:660,_RINvMs4_NtCscRJcA2zm81b_5lb_l78h1_proxyNtB6_7H1Proxy32serve_connection_with_cancel_sniNtNtNtNtCsfWKKmeeA0Vo_5tokio3net3tcp6stream9TcpStreamECs7FY36ZOtpKW_26round8_keepalive_count_cap
FN:597,_RNCINvMs4_NtCscRJcA2zm81b_5lb_l78h1_proxyNtB8_7H1Proxy16serve_connectionNtNtNtNtCsfWKKmeeA0Vo_5tokio3net3tcp6stream9TcpStreamE0Cs7FY36ZOtpKW_26round8_keepalive_count_cap
FN:637,_RNCINvMs4_NtCscRJcA2zm81b_5lb_l78h1_proxyNtB8_7H1Proxy28serve_connection_with_cancelNtNtNtNtCsfWKKmeeA0Vo_5tokio3net3tcp6stream9TcpStreamE0Cs7FY36ZOtpKW_26round8_keepalive_count_cap
FN:669,_RNCINvMs4_NtCscRJcA2zm81b_5lb_l78h1_proxyNtB8_7H1Proxy32serve_connection_with_cancel_sniNtNtNtNtCsfWKKmeeA0Vo_5tokio3net3tcp6stream9TcpStreamE0Cs7FY36ZOtpKW_26round8_keepalive_count_cap
FN:594,_RINvMs4_NtCscRJcA2zm81b_5lb_l78h1_proxyNtB6_7H1Proxy16serve_connectionNtNtNtNtCsfWKKmeeA0Vo_5tokio3net3tcp6stream9TcpStreamECsJeLKJNhM6d_30round8_traceparent_propagation
FN:629,_RINvMs4_NtCscRJcA2zm81b_5lb_l78h1_proxyNtB6_7H1Proxy28serve_connection_with_cancelNtNtNtNtCsfWKKmeeA0Vo_5tokio3net3tcp6stream9TcpStreamECsJeLKJNhM6d_30round8_traceparent_propagation
FN:660,_RINvMs4_NtCscRJcA2zm81b_5lb_l78h1_proxyNtB6_7H1Proxy32serve_connection_with_cancel_sniNtNtNtNtCsfWKKmeeA0Vo_5tokio3net3tcp6stream9TcpStreamECsJeLKJNhM6d_30round8_traceparent_propagation
FN:597,_RNCINvMs4_NtCscRJcA2zm81b_5lb_l78h1_proxyNtB8_7H1Proxy16serve_connectionNtNtNtNtCsfWKKmeeA0Vo_5tokio3net3tcp6stream9TcpStreamE0CsJeLKJNhM6d_30round8_traceparent_propagation
FN:637,_RNCINvMs4_NtCscRJcA2zm81b_5lb_l78h1_proxyNtB8_7H1Proxy28serve_connection_with_cancelNtNtNtNtCsfWKKmeeA0Vo_5tokio3net3tcp6stream9TcpStreamE0CsJeLKJNhM6d_30round8_traceparent_propagation
FN:669,_RNCINvMs4_NtCscRJcA2zm81b_5lb_l78h1_proxyNtB8_7H1Proxy32serve_connection_with_cancel_sniNtNtNtNtCsfWKKmeeA0Vo_5tokio3net3tcp6stream9TcpStreamE0CsJeLKJNhM6d_30round8_traceparent_propagation
FN:594,_RINvMs4_NtCscRJcA2zm81b_5lb_l78h1_proxyNtB6_7H1Proxy16serve_connectionNtNtNtNtCsfWKKmeeA0Vo_5tokio3net3tcp6stream9TcpStreamECsau1g18OdraT_23round8_ws_upgrade_defer
FN:629,_RINvMs4_NtCscRJcA2zm81b_5lb_l78h1_proxyNtB6_7H1Proxy28serve_connection_with_cancelNtNtNtNtCsfWKKmeeA0Vo_5tokio3net3tcp6stream9TcpStreamECsau1g18OdraT_23round8_ws_upgrade_defer
FN:660,_RINvMs4_NtCscRJcA2zm81b_5lb_l78h1_proxyNtB6_7H1Proxy32serve_connection_with_cancel_sniNtNtNtNtCsfWKKmeeA0Vo_5tokio3net3tcp6stream9TcpStreamECsau1g18OdraT_23round8_ws_upgrade_defer
FN:597,_RNCINvMs4_NtCscRJcA2zm81b_5lb_l78h1_proxyNtB8_7H1Proxy16serve_connectionNtNtNtNtCsfWKKmeeA0Vo_5tokio3net3tcp6stream9TcpStreamE0Csau1g18OdraT_23round8_ws_upgrade_defer
FN:637,_RNCINvMs4_NtCscRJcA2zm81b_5lb_l78h1_proxyNtB8_7H1Proxy28serve_connection_with_cancelNtNtNtNtCsfWKKmeeA0Vo_5tokio3net3tcp6stream9TcpStreamE0Csau1g18OdraT_23round8_ws_upgrade_defer
FN:669,_RNCINvMs4_NtCscRJcA2zm81b_5lb_l78h1_proxyNtB8_7H1Proxy32serve_connection_with_cancel_sniNtNtNtNtCsfWKKmeeA0Vo_5tokio3net3tcp6stream9TcpStreamE0Csau1g18OdraT_23round8_ws_upgrade_defer
FN:660,_RINvMs4_NtCscRJcA2zm81b_5lb_l78h1_proxyNtB6_7H1Proxy32serve_connection_with_cancel_sniINtNtCs7m3feRqGqA4_12tokio_rustls6server9TlsStreamNtNtNtNtCsfWKKmeeA0Vo_5tokio2io4util3mem12DuplexStreamEECs6qxhBmUT9yO_17sni_authority_421
FN:669,_RNCINvMs4_NtCscRJcA2zm81b_5lb_l78h1_proxyNtB8_7H1Proxy32serve_connection_with_cancel_sniINtNtCs7m3feRqGqA4_12tokio_rustls6server9TlsStreamNtNtNtNtCsfWKKmeeA0Vo_5tokio2io4util3mem12DuplexStreamEE0Cs6qxhBmUT9yO_17sni_authority_421
FNDA:0,_RINvMs4_NtCscRJcA2zm81b_5lb_l78h1_proxyNtB6_7H1Proxy16serve_connectionpEB8_
FNDA:0,_RINvMs4_NtCscRJcA2zm81b_5lb_l78h1_proxyNtB6_7H1Proxy28serve_connection_with_cancelpEB8_
FNDA:0,_RINvMs4_NtCscRJcA2zm81b_5lb_l78h1_proxyNtB6_7H1Proxy32serve_connection_with_cancel_snipEB8_
FNDA:0,_RNCINvMs4_NtCscRJcA2zm81b_5lb_l78h1_proxyNtB8_7H1Proxy16serve_connectionpE0Ba_
FNDA:0,_RNCINvMs4_NtCscRJcA2zm81b_5lb_l78h1_proxyNtB8_7H1Proxy28serve_connection_with_cancelpE0Ba_
FNDA:0,_RNCINvMs4_NtCscRJcA2zm81b_5lb_l78h1_proxyNtB8_7H1Proxy32serve_connection_with_cancel_snipE0Ba_
FNDA:0,_RNvMs0_NtCscRJcA2zm81b_5lb_l78h1_proxyNtB5_12AltSvcConfig12header_value
FNDA:18,_RNvMs2_NtCscRJcA2zm81b_5lb_l78h1_proxyNtB5_15RoundRobinAddrs3new
FNDA:0,_RNvMs4_NtCscRJcA2zm81b_5lb_l78h1_proxyNtB5_7H1Proxy10with_hooks
FNDA:0,_RNvMs4_NtCscRJcA2zm81b_5lb_l78h1_proxyNtB5_7H1Proxy13with_watchdog
FNDA:5,_RNvMs4_NtCscRJcA2zm81b_5lb_l78h1_proxyNtB5_7H1Proxy14with_websocket
FNDA:0,_RNvMs4_NtCscRJcA2zm81b_5lb_l78h1_proxyNtB5_7H1Proxy15has_h2_upstream
FNDA:0,_RNvMs4_NtCscRJcA2zm81b_5lb_l78h1_proxyNtB5_7H1Proxy15has_h3_upstream
FNDA:0,_RNvMs4_NtCscRJcA2zm81b_5lb_l78h1_proxyNtB5_7H1Proxy16with_h2_upstream
FNDA:0,_RNvMs4_NtCscRJcA2zm81b_5lb_l78h1_proxyNtB5_7H1Proxy16with_h3_upstream
FNDA:0,_RNvMs4_NtCscRJcA2zm81b_5lb_l78h1_proxyNtB5_7H1Proxy16with_multi_proto
FNDA:0,_RNvMs4_NtCscRJcA2zm81b_5lb_l78h1_proxyNtB5_7H1Proxy17with_expected_sni
FNDA:0,_RNvMs4_NtCscRJcA2zm81b_5lb_l78h1_proxyNtB5_7H1Proxy19with_smuggle_strict
FNDA:3,_RNvMs4_NtCscRJcA2zm81b_5lb_l78h1_proxyNtB5_7H1Proxy27with_max_keepalive_requests
FNDA:0,_RNvMs4_NtCscRJcA2zm81b_5lb_l78h1_proxyNtB5_7H1Proxy29with_header_underscore_policy
FNDA:1,_RNvMs4_NtCscRJcA2zm81b_5lb_l78h1_proxyNtB5_7H1Proxy33keepalive_cap_termination_counter
FNDA:13,_RNvMs4_NtCscRJcA2zm81b_5lb_l78h1_proxyNtB5_7H1Proxy3new
FNDA:42,_RNvMs6_NtCscRJcA2zm81b_5lb_l78h1_proxyNtB5_7H1Proxy12handle_inner
FNDA:34,_RNvMs6_NtCscRJcA2zm81b_5lb_l78h1_proxyNtB5_7H1Proxy13proxy_request
FNDA:0,_RNvMs6_NtCscRJcA2zm81b_5lb_l78h1_proxyNtB5_7H1Proxy14proxy_h1_to_h2
FNDA:0,_RNvMs6_NtCscRJcA2zm81b_5lb_l78h1_proxyNtB5_7H1Proxy14proxy_h1_to_h3
FNDA:30,_RNvMs6_NtCscRJcA2zm81b_5lb_l78h1_proxyNtB5_7H1Proxy17finalize_response
FNDA:4,_RNvMs6_NtCscRJcA2zm81b_5lb_l78h1_proxyNtB5_7H1Proxy17handle_ws_upgrade
FNDA:0,_RNvMs6_NtCscRJcA2zm81b_5lb_l78h1_proxyNtB5_7H1Proxy22proxy_h1_to_h2_request
FNDA:42,_RNvMs6_NtCscRJcA2zm81b_5lb_l78h1_proxyNtB5_7H1Proxy6handle
FNDA:35,_RNvNtCscRJcA2zm81b_5lb_l78h1_proxy10append_via
FNDA:35,_RNvNtCscRJcA2zm81b_5lb_l78h1_proxy10append_xff
FNDA:12,_RNvNtCscRJcA2zm81b_5lb_l78h1_proxy14error_response
FNDA:0,_RNvNtCscRJcA2zm81b_5lb_l78h1_proxy16concat_h1_chunks
FNDA:4,_RNvNtCscRJcA2zm81b_5lb_l78h1_proxy16dial_upstream_ws
FNDA:73,_RNvNtCscRJcA2zm81b_5lb_l78h1_proxy16strip_hop_by_hop
FNDA:0,_RNvNtCscRJcA2zm81b_5lb_l78h1_proxy18h1_to_h2_proxy_err
FNDA:0,_RNvNtCscRJcA2zm81b_5lb_l78h1_proxy18record_retained_h1
FNDA:0,_RNvNtCscRJcA2zm81b_5lb_l78h1_proxy18reject_to_response
FNDA:0,_RNvNtCscRJcA2zm81b_5lb_l78h1_proxy21run_h1_ws_splice_task
FNDA:0,_RNvNtCscRJcA2zm81b_5lb_l78h1_proxy23upstream_response_to_h1
FNDA:2,_RNvNtCscRJcA2zm81b_5lb_l78h1_proxy24build_body_with_trailers
FNDA:0,_RNvNtCscRJcA2zm81b_5lb_l78h1_proxy24build_h1_to_h3_fieldlist
FNDA:0,_RNvNtCscRJcA2zm81b_5lb_l78h1_proxy27build_h1_streaming_response
FNDA:0,_RNvNtCscRJcA2zm81b_5lb_l78h1_proxy28h3_decoded_resp_head_builder
FNDA:0,_RNvNtCscRJcA2zm81b_5lb_l78h1_proxy28validate_h1_request_trailers
FNDA:0,_RNvNtCscRJcA2zm81b_5lb_l78h1_proxy29build_h1_to_h2_upstream_parts
FNDA:2,_RNvNtCscRJcA2zm81b_5lb_l78h1_proxy31build_h1_response_with_trailers
FNDA:35,_RNvNtCscRJcA2zm81b_5lb_l78h1_proxy7set_xfh
FNDA:35,_RNvNtCscRJcA2zm81b_5lb_l78h1_proxy7set_xfp
FNDA:0,_RNvXNtCscRJcA2zm81b_5lb_l78h1_proxyNtB2_11H1PumpAbortNtNtCs2va5m0jqTTM_4core3fmt7Display3fmt
FNDA:0,_RNvXs1_NtCscRJcA2zm81b_5lb_l78h1_proxyNtB5_12HttpTimeoutsNtNtCs2va5m0jqTTM_4core7default7Default7default
FNDA:39,_RNvXs3_NtCscRJcA2zm81b_5lb_l78h1_proxyNtB5_15RoundRobinAddrsNtB5_13BackendPicker4pick
FNDA:42,_RNvXs5_NtCscRJcA2zm81b_5lb_l78h1_proxyNtB5_12ProxyServiceINtNtNtCsgB3dp6qvXvn_5hyper7service7service7ServiceINtNtCsjFxw70quGA5_4http7request7RequestNtNtNtB10_4body8incoming8IncomingEE4call
FNDA:0,_RNCNCNCNCNCNvMs6_NtCscRJcA2zm81b_5lb_l78h1_proxyNtBf_7H1Proxy14proxy_h1_to_h300000Bh_
FNDA:0,_RNCNCNCNCNvMs6_NtCscRJcA2zm81b_5lb_l78h1_proxyNtBd_7H1Proxy14proxy_h1_to_h30000Bf_
FNDA:0,_RNCNCNCNCNvMs6_NtCscRJcA2zm81b_5lb_l78h1_proxyNtBd_7H1Proxy22proxy_h1_to_h2_request0000Bf_
FNDA:37,_RNCNCNCNvMs6_NtCscRJcA2zm81b_5lb_l78h1_proxyNtBb_7H1Proxy12handle_inner0s5_00Bd_
FNDA:0,_RNCNCNCNvMs6_NtCscRJcA2zm81b_5lb_l78h1_proxyNtBb_7H1Proxy12handle_inner0s6_00Bd_
FNDA:0,_RNCNCNCNvMs6_NtCscRJcA2zm81b_5lb_l78h1_proxyNtBb_7H1Proxy13proxy_request0s3_00Bd_
FNDA:30,_RNCNCNCNvMs6_NtCscRJcA2zm81b_5lb_l78h1_proxyNtBb_7H1Proxy13proxy_request0s3_0s_0Bd_
FNDA:0,_RNCNCNCNvMs6_NtCscRJcA2zm81b_5lb_l78h1_proxyNtBb_7H1Proxy14proxy_h1_to_h3000Bd_
FNDA:0,_RNCNCNCNvMs6_NtCscRJcA2zm81b_5lb_l78h1_proxyNtBb_7H1Proxy22proxy_h1_to_h2_request000Bd_
FNDA:0,_RNCNCNCNvMs6_NtCscRJcA2zm81b_5lb_l78h1_proxyNtBb_7H1Proxy22proxy_h1_to_h2_request0s2_00Bd_
FNDA:0,_RNCNCNCNvMs6_NtCscRJcA2zm81b_5lb_l78h1_proxyNtBb_7H1Proxy22proxy_h1_to_h2_request0s2_0s_0Bd_
FNDA:0,_RNCNCNvMs6_NtCscRJcA2zm81b_5lb_l78h1_proxyNtB9_7H1Proxy12handle_inner00Bb_
FNDA:5,_RNCNCNvMs6_NtCscRJcA2zm81b_5lb_l78h1_proxyNtB9_7H1Proxy12handle_inner0s0_0Bb_
FNDA:38,_RNCNCNvMs6_NtCscRJcA2zm81b_5lb_l78h1_proxyNtB9_7H1Proxy12handle_inner0s1_0Bb_
FNDA:0,_RNCNCNvMs6_NtCscRJcA2zm81b_5lb_l78h1_proxyNtB9_7H1Proxy12handle_inner0s2_0Bb_
FNDA:0,_RNCNCNvMs6_NtCscRJcA2zm81b_5lb_l78h1_proxyNtB9_7H1Proxy12handle_inner0s3_0Bb_
FNDA:1,_RNCNCNvMs6_NtCscRJcA2zm81b_5lb_l78h1_proxyNtB9_7H1Proxy12handle_inner0s4_0Bb_
FNDA:37,_RNCNCNvMs6_NtCscRJcA2zm81b_5lb_l78h1_proxyNtB9_7H1Proxy12handle_inner0s5_0Bb_
FNDA:0,_RNCNCNvMs6_NtCscRJcA2zm81b_5lb_l78h1_proxyNtB9_7H1Proxy12handle_inner0s6_0Bb_
FNDA:34,_RNCNCNvMs6_NtCscRJcA2zm81b_5lb_l78h1_proxyNtB9_7H1Proxy12handle_inner0s7_0Bb_
FNDA:0,_RNCNCNvMs6_NtCscRJcA2zm81b_5lb_l78h1_proxyNtB9_7H1Proxy12handle_inner0s_0Bb_
FNDA:4,_RNCNCNvMs6_NtCscRJcA2zm81b_5lb_l78h1_proxyNtB9_7H1Proxy13proxy_request00Bb_
FNDA:0,_RNCNCNvMs6_NtCscRJcA2zm81b_5lb_l78h1_proxyNtB9_7H1Proxy13proxy_request0s0_0Bb_
FNDA:30,_RNCNCNvMs6_NtCscRJcA2zm81b_5lb_l78h1_proxyNtB9_7H1Proxy13proxy_request0s1_0Bb_
FNDA:0,_RNCNCNvMs6_NtCscRJcA2zm81b_5lb_l78h1_proxyNtB9_7H1Proxy13proxy_request0s2_0Bb_
FNDA:30,_RNCNCNvMs6_NtCscRJcA2zm81b_5lb_l78h1_proxyNtB9_7H1Proxy13proxy_request0s3_0Bb_
FNDA:0,_RNCNCNvMs6_NtCscRJcA2zm81b_5lb_l78h1_proxyNtB9_7H1Proxy13proxy_request0s4_0Bb_
FNDA:0,_RNCNCNvMs6_NtCscRJcA2zm81b_5lb_l78h1_proxyNtB9_7H1Proxy13proxy_request0s_0Bb_
FNDA:0,_RNCNCNvMs6_NtCscRJcA2zm81b_5lb_l78h1_proxyNtB9_7H1Proxy14proxy_h1_to_h300Bb_
FNDA:0,_RNCNCNvMs6_NtCscRJcA2zm81b_5lb_l78h1_proxyNtB9_7H1Proxy14proxy_h1_to_h30s0_0Bb_
FNDA:0,_RNCNCNvMs6_NtCscRJcA2zm81b_5lb_l78h1_proxyNtB9_7H1Proxy14proxy_h1_to_h30s1_0Bb_
FNDA:0,_RNCNCNvMs6_NtCscRJcA2zm81b_5lb_l78h1_proxyNtB9_7H1Proxy14proxy_h1_to_h30s2_0Bb_
FNDA:0,_RNCNCNvMs6_NtCscRJcA2zm81b_5lb_l78h1_proxyNtB9_7H1Proxy14proxy_h1_to_h30s_0Bb_
FNDA:0,_RNCNCNvMs6_NtCscRJcA2zm81b_5lb_l78h1_proxyNtB9_7H1Proxy17handle_ws_upgrade00Bb_
FNDA:0,_RNCNCNvMs6_NtCscRJcA2zm81b_5lb_l78h1_proxyNtB9_7H1Proxy17handle_ws_upgrade0s0_0Bb_
FNDA:0,_RNCNCNvMs6_NtCscRJcA2zm81b_5lb_l78h1_proxyNtB9_7H1Proxy17handle_ws_upgrade0s1_0Bb_
FNDA:0,_RNCNCNvMs6_NtCscRJcA2zm81b_5lb_l78h1_proxyNtB9_7H1Proxy17handle_ws_upgrade0s2_0Bb_
FNDA:0,_RNCNCNvMs6_NtCscRJcA2zm81b_5lb_l78h1_proxyNtB9_7H1Proxy17handle_ws_upgrade0s3_0Bb_
FNDA:0,_RNCNCNvMs6_NtCscRJcA2zm81b_5lb_l78h1_proxyNtB9_7H1Proxy17handle_ws_upgrade0s5_0Bb_
FNDA:0,_RNCNCNvMs6_NtCscRJcA2zm81b_5lb_l78h1_proxyNtB9_7H1Proxy17handle_ws_upgrade0s_0Bb_
FNDA:0,_RNCNCNvMs6_NtCscRJcA2zm81b_5lb_l78h1_proxyNtB9_7H1Proxy22proxy_h1_to_h2_request00Bb_
FNDA:0,_RNCNCNvMs6_NtCscRJcA2zm81b_5lb_l78h1_proxyNtB9_7H1Proxy22proxy_h1_to_h2_request0s0_0Bb_
FNDA:0,_RNCNCNvMs6_NtCscRJcA2zm81b_5lb_l78h1_proxyNtB9_7H1Proxy22proxy_h1_to_h2_request0s1_0Bb_
FNDA:0,_RNCNCNvMs6_NtCscRJcA2zm81b_5lb_l78h1_proxyNtB9_7H1Proxy22proxy_h1_to_h2_request0s2_0Bb_
FNDA:0,_RNCNCNvMs6_NtCscRJcA2zm81b_5lb_l78h1_proxyNtB9_7H1Proxy22proxy_h1_to_h2_request0s_0Bb_
FNDA:0,_RNCNCNvNtCscRJcA2zm81b_5lb_l78h1_proxy16dial_upstream_ws00B7_
FNDA:0,_RNCNCNvNtCscRJcA2zm81b_5lb_l78h1_proxy16dial_upstream_ws0s0_0B7_
FNDA:3,_RNCNCNvNtCscRJcA2zm81b_5lb_l78h1_proxy16dial_upstream_ws0s1_0B7_
FNDA:0,_RNCNCNvNtCscRJcA2zm81b_5lb_l78h1_proxy16dial_upstream_ws0s_0B7_
FNDA:0,_RNCNCNvNtCscRJcA2zm81b_5lb_l78h1_proxy24build_h1_to_h3_fieldlists1_00B7_
FNDA:0,_RNCNCNvNtCscRJcA2zm81b_5lb_l78h1_proxy29build_h1_to_h2_upstream_partss_00B7_
FNDA:42,_RNCNvMs6_NtCscRJcA2zm81b_5lb_l78h1_proxyNtB7_7H1Proxy12handle_inner0B9_
FNDA:34,_RNCNvMs6_NtCscRJcA2zm81b_5lb_l78h1_proxyNtB7_7H1Proxy13proxy_request0B9_
FNDA:0,_RNCNvMs6_NtCscRJcA2zm81b_5lb_l78h1_proxyNtB7_7H1Proxy14proxy_h1_to_h20B9_
FNDA:0,_RNCNvMs6_NtCscRJcA2zm81b_5lb_l78h1_proxyNtB7_7H1Proxy14proxy_h1_to_h30B9_
FNDA:0,_RNCNvMs6_NtCscRJcA2zm81b_5lb_l78h1_proxyNtB7_7H1Proxy17finalize_response0B9_
FNDA:4,_RNCNvMs6_NtCscRJcA2zm81b_5lb_l78h1_proxyNtB7_7H1Proxy17handle_ws_upgrade0B9_
FNDA:0,_RNCNvMs6_NtCscRJcA2zm81b_5lb_l78h1_proxyNtB7_7H1Proxy22proxy_h1_to_h2_request0B9_
FNDA:42,_RNCNvMs6_NtCscRJcA2zm81b_5lb_l78h1_proxyNtB7_7H1Proxy6handle0B9_
FNDA:4,_RNCNvNtCscRJcA2zm81b_5lb_l78h1_proxy16dial_upstream_ws0B5_
FNDA:7,_RNCNvNtCscRJcA2zm81b_5lb_l78h1_proxy16strip_hop_by_hop0B5_
FNDA:9,_RNCNvNtCscRJcA2zm81b_5lb_l78h1_proxy16strip_hop_by_hops0_0B5_
FNDA:9,_RNCNvNtCscRJcA2zm81b_5lb_l78h1_proxy16strip_hop_by_hops1_0B5_
FNDA:7,_RNCNvNtCscRJcA2zm81b_5lb_l78h1_proxy16strip_hop_by_hops_0B5_
FNDA:0,_RNCNvNtCscRJcA2zm81b_5lb_l78h1_proxy21run_h1_ws_splice_task0B5_
FNDA:0,_RNCNvNtCscRJcA2zm81b_5lb_l78h1_proxy23upstream_response_to_h10B5_
FNDA:0,_RNCNvNtCscRJcA2zm81b_5lb_l78h1_proxy23upstream_response_to_h1s_0B5_
FNDA:0,_RNCNvNtCscRJcA2zm81b_5lb_l78h1_proxy24build_h1_to_h3_fieldlist0B5_
FNDA:0,_RNCNvNtCscRJcA2zm81b_5lb_l78h1_proxy24build_h1_to_h3_fieldlists0_0B5_
FNDA:0,_RNCNvNtCscRJcA2zm81b_5lb_l78h1_proxy24build_h1_to_h3_fieldlists1_0B5_
FNDA:0,_RNCNvNtCscRJcA2zm81b_5lb_l78h1_proxy24build_h1_to_h3_fieldlists2_0B5_
FNDA:0,_RNCNvNtCscRJcA2zm81b_5lb_l78h1_proxy24build_h1_to_h3_fieldlists3_0B5_
FNDA:0,_RNCNvNtCscRJcA2zm81b_5lb_l78h1_proxy24build_h1_to_h3_fieldlists4_0B5_
FNDA:0,_RNCNvNtCscRJcA2zm81b_5lb_l78h1_proxy24build_h1_to_h3_fieldlists_0B5_
FNDA:0,_RNCNvNtCscRJcA2zm81b_5lb_l78h1_proxy27build_h1_streaming_response0B5_
FNDA:0,_RNCNvNtCscRJcA2zm81b_5lb_l78h1_proxy28validate_h1_request_trailers0B5_
FNDA:0,_RNCNvNtCscRJcA2zm81b_5lb_l78h1_proxy29build_h1_to_h2_upstream_parts0B5_
FNDA:0,_RNCNvNtCscRJcA2zm81b_5lb_l78h1_proxy29build_h1_to_h2_upstream_partss0_0B5_
FNDA:0,_RNCNvNtCscRJcA2zm81b_5lb_l78h1_proxy29build_h1_to_h2_upstream_partss1_0B5_
FNDA:0,_RNCNvNtCscRJcA2zm81b_5lb_l78h1_proxy29build_h1_to_h2_upstream_partss2_0B5_
FNDA:0,_RNCNvNtCscRJcA2zm81b_5lb_l78h1_proxy29build_h1_to_h2_upstream_partss3_0B5_
FNDA:0,_RNCNvNtCscRJcA2zm81b_5lb_l78h1_proxy29build_h1_to_h2_upstream_partss4_0B5_
FNDA:0,_RNCNvNtCscRJcA2zm81b_5lb_l78h1_proxy29build_h1_to_h2_upstream_partss_0B5_
FNDA:4,_RNCNvNtCscRJcA2zm81b_5lb_l78h1_proxy31build_h1_response_with_trailers0B5_
FNDA:0,_RNCNvNtCscRJcA2zm81b_5lb_l78h1_proxy31build_h1_response_with_trailerss0_0B5_
FNDA:0,_RNCNvNtCscRJcA2zm81b_5lb_l78h1_proxy31build_h1_response_with_trailerss_0B5_
FNDA:42,_RNCNvXs5_NtCscRJcA2zm81b_5lb_l78h1_proxyNtB7_12ProxyServiceINtNtNtCsgB3dp6qvXvn_5hyper7service7service7ServiceINtNtCsjFxw70quGA5_4http7request7RequestNtNtNtB12_4body8incoming8IncomingEE4call0B9_
FNDA:0,_RINvMs4_NtCscRJcA2zm81b_5lb_l78h1_proxyNtB6_7H1Proxy28serve_connection_with_cancelNtNtNtNtCsfWKKmeeA0Vo_5tokio3net3tcp6stream9TcpStreamECsg9xlZenf2AU_14expressgateway
FNDA:0,_RINvMs4_NtCscRJcA2zm81b_5lb_l78h1_proxyNtB6_7H1Proxy32serve_connection_with_cancel_sniINtNtCs7m3feRqGqA4_12tokio_rustls6server9TlsStreamNtNtNtNtCsfWKKmeeA0Vo_5tokio3net3tcp6stream9TcpStreamEECsg9xlZenf2AU_14expressgateway
FNDA:0,_RINvMs4_NtCscRJcA2zm81b_5lb_l78h1_proxyNtB6_7H1Proxy32serve_connection_with_cancel_sniNtNtNtNtCsfWKKmeeA0Vo_5tokio3net3tcp6stream9TcpStreamECsg9xlZenf2AU_14expressgateway
FNDA:0,_RNCINvMs4_NtCscRJcA2zm81b_5lb_l78h1_proxyNtB8_7H1Proxy28serve_connection_with_cancelNtNtNtNtCsfWKKmeeA0Vo_5tokio3net3tcp6stream9TcpStreamE0Csg9xlZenf2AU_14expressgateway
FNDA:0,_RNCINvMs4_NtCscRJcA2zm81b_5lb_l78h1_proxyNtB8_7H1Proxy32serve_connection_with_cancel_sniINtNtCs7m3feRqGqA4_12tokio_rustls6server9TlsStreamNtNtNtNtCsfWKKmeeA0Vo_5tokio3net3tcp6stream9TcpStreamEE0Csg9xlZenf2AU_14expressgateway
FNDA:0,_RNCINvMs4_NtCscRJcA2zm81b_5lb_l78h1_proxyNtB8_7H1Proxy32serve_connection_with_cancel_sniNtNtNtNtCsfWKKmeeA0Vo_5tokio3net3tcp6stream9TcpStreamE0Csg9xlZenf2AU_14expressgateway
FNDA:2,_RNvMs0_NtCsijo3INtYyGB_5lb_l78h1_proxyNtB5_12AltSvcConfig12header_value
FNDA:4,_RNvMs2_NtCsijo3INtYyGB_5lb_l78h1_proxyNtB5_15RoundRobinAddrs3new
FNDA:1,_RNvMs4_NtCsijo3INtYyGB_5lb_l78h1_proxyNtB5_7H1Proxy3new
FNDA:0,_RNvMs6_NtCsijo3INtYyGB_5lb_l78h1_proxyNtB5_7H1Proxy12handle_inner
FNDA:0,_RNvMs6_NtCsijo3INtYyGB_5lb_l78h1_proxyNtB5_7H1Proxy13proxy_request
FNDA:0,_RNvMs6_NtCsijo3INtYyGB_5lb_l78h1_proxyNtB5_7H1Proxy14proxy_h1_to_h2
FNDA:0,_RNvMs6_NtCsijo3INtYyGB_5lb_l78h1_proxyNtB5_7H1Proxy14proxy_h1_to_h3
FNDA:0,_RNvMs6_NtCsijo3INtYyGB_5lb_l78h1_proxyNtB5_7H1Proxy17finalize_response
FNDA:0,_RNvMs6_NtCsijo3INtYyGB_5lb_l78h1_proxyNtB5_7H1Proxy17handle_ws_upgrade
FNDA:0,_RNvMs6_NtCsijo3INtYyGB_5lb_l78h1_proxyNtB5_7H1Proxy22proxy_h1_to_h2_request
FNDA:0,_RNvMs6_NtCsijo3INtYyGB_5lb_l78h1_proxyNtB5_7H1Proxy6handle
FNDA:2,_RNvNtCsijo3INtYyGB_5lb_l78h1_proxy10append_via
FNDA:4,_RNvNtCsijo3INtYyGB_5lb_l78h1_proxy10append_xff
FNDA:0,_RNvNtCsijo3INtYyGB_5lb_l78h1_proxy14error_response
FNDA:0,_RNvNtCsijo3INtYyGB_5lb_l78h1_proxy16concat_h1_chunks
FNDA:0,_RNvNtCsijo3INtYyGB_5lb_l78h1_proxy16dial_upstream_ws
FNDA:5,_RNvNtCsijo3INtYyGB_5lb_l78h1_proxy16strip_hop_by_hop
FNDA:0,_RNvNtCsijo3INtYyGB_5lb_l78h1_proxy18h1_to_h2_proxy_err
FNDA:0,_RNvNtCsijo3INtYyGB_5lb_l78h1_proxy18record_retained_h1
FNDA:0,_RNvNtCsijo3INtYyGB_5lb_l78h1_proxy18reject_to_response
FNDA:0,_RNvNtCsijo3INtYyGB_5lb_l78h1_proxy21run_h1_ws_splice_task
FNDA:0,_RNvNtCsijo3INtYyGB_5lb_l78h1_proxy23upstream_response_to_h1
FNDA:0,_RNvNtCsijo3INtYyGB_5lb_l78h1_proxy24build_body_with_trailers
FNDA:0,_RNvNtCsijo3INtYyGB_5lb_l78h1_proxy24build_h1_to_h3_fieldlist
FNDA:0,_RNvNtCsijo3INtYyGB_5lb_l78h1_proxy27build_h1_streaming_response
FNDA:0,_RNvNtCsijo3INtYyGB_5lb_l78h1_proxy28h3_decoded_resp_head_builder
FNDA:0,_RNvNtCsijo3INtYyGB_5lb_l78h1_proxy28validate_h1_request_trailers
FNDA:0,_RNvNtCsijo3INtYyGB_5lb_l78h1_proxy29build_h1_to_h2_upstream_parts
FNDA:0,_RNvNtCsijo3INtYyGB_5lb_l78h1_proxy7set_xfh
FNDA:0,_RNvNtCsijo3INtYyGB_5lb_l78h1_proxy7set_xfp
FNDA:0,_RNvXNtCsijo3INtYyGB_5lb_l78h1_proxyNtB2_11H1PumpAbortNtNtCs2va5m0jqTTM_4core3fmt7Display3fmt
FNDA:2,_RNvXs1_NtCsijo3INtYyGB_5lb_l78h1_proxyNtB5_12HttpTimeoutsNtNtCs2va5m0jqTTM_4core7default7Default7default
FNDA:3,_RNvXs3_NtCsijo3INtYyGB_5lb_l78h1_proxyNtB5_15RoundRobinAddrsNtB5_13BackendPicker4pick
FNDA:0,_RNvXs5_NtCsijo3INtYyGB_5lb_l78h1_proxyNtB5_12ProxyServiceINtNtNtCsgB3dp6qvXvn_5hyper7service7service7ServiceINtNtCsjFxw70quGA5_4http7request7RequestNtNtNtB10_4body8incoming8IncomingEE4call
FNDA:1,_RINvMs4_NtCsijo3INtYyGB_5lb_l78h1_proxyNtB6_7H1Proxy28serve_connection_with_cancelNtNtNtNtCsfWKKmeeA0Vo_5tokio2io4util3mem12DuplexStreamEB8_
FNDA:1,_RINvMs4_NtCsijo3INtYyGB_5lb_l78h1_proxyNtB6_7H1Proxy32serve_connection_with_cancel_sniNtNtNtNtCsfWKKmeeA0Vo_5tokio2io4util3mem12DuplexStreamEB8_
FNDA:1,_RNCINvMs4_NtCsijo3INtYyGB_5lb_l78h1_proxyNtB8_7H1Proxy28serve_connection_with_cancelNtNtNtNtCsfWKKmeeA0Vo_5tokio2io4util3mem12DuplexStreamE0Ba_
FNDA:1,_RNCINvMs4_NtCsijo3INtYyGB_5lb_l78h1_proxyNtB8_7H1Proxy32serve_connection_with_cancel_sniNtNtNtNtCsfWKKmeeA0Vo_5tokio2io4util3mem12DuplexStreamE0Ba_
FNDA:0,_RNCNCNCNCNCNvMs6_NtCsijo3INtYyGB_5lb_l78h1_proxyNtBf_7H1Proxy14proxy_h1_to_h300000Bh_
FNDA:0,_RNCNCNCNCNvMs6_NtCsijo3INtYyGB_5lb_l78h1_proxyNtBd_7H1Proxy14proxy_h1_to_h30000Bf_
FNDA:0,_RNCNCNCNCNvMs6_NtCsijo3INtYyGB_5lb_l78h1_proxyNtBd_7H1Proxy22proxy_h1_to_h2_request0000Bf_
FNDA:0,_RNCNCNCNvMs6_NtCsijo3INtYyGB_5lb_l78h1_proxyNtBb_7H1Proxy12handle_inner0s5_00Bd_
FNDA:0,_RNCNCNCNvMs6_NtCsijo3INtYyGB_5lb_l78h1_proxyNtBb_7H1Proxy12handle_inner0s6_00Bd_
FNDA:0,_RNCNCNCNvMs6_NtCsijo3INtYyGB_5lb_l78h1_proxyNtBb_7H1Proxy13proxy_request0s3_00Bd_
FNDA:0,_RNCNCNCNvMs6_NtCsijo3INtYyGB_5lb_l78h1_proxyNtBb_7H1Proxy13proxy_request0s3_0s_0Bd_
FNDA:0,_RNCNCNCNvMs6_NtCsijo3INtYyGB_5lb_l78h1_proxyNtBb_7H1Proxy14proxy_h1_to_h3000Bd_
FNDA:0,_RNCNCNCNvMs6_NtCsijo3INtYyGB_5lb_l78h1_proxyNtBb_7H1Proxy22proxy_h1_to_h2_request000Bd_
FNDA:0,_RNCNCNCNvMs6_NtCsijo3INtYyGB_5lb_l78h1_proxyNtBb_7H1Proxy22proxy_h1_to_h2_request0s2_00Bd_
FNDA:0,_RNCNCNCNvMs6_NtCsijo3INtYyGB_5lb_l78h1_proxyNtBb_7H1Proxy22proxy_h1_to_h2_request0s2_0s_0Bd_
FNDA:0,_RNCNCNvMs6_NtCsijo3INtYyGB_5lb_l78h1_proxyNtB9_7H1Proxy12handle_inner00Bb_
FNDA:0,_RNCNCNvMs6_NtCsijo3INtYyGB_5lb_l78h1_proxyNtB9_7H1Proxy12handle_inner0s0_0Bb_
FNDA:0,_RNCNCNvMs6_NtCsijo3INtYyGB_5lb_l78h1_proxyNtB9_7H1Proxy12handle_inner0s1_0Bb_
FNDA:0,_RNCNCNvMs6_NtCsijo3INtYyGB_5lb_l78h1_proxyNtB9_7H1Proxy12handle_inner0s2_0Bb_
FNDA:0,_RNCNCNvMs6_NtCsijo3INtYyGB_5lb_l78h1_proxyNtB9_7H1Proxy12handle_inner0s3_0Bb_
FNDA:0,_RNCNCNvMs6_NtCsijo3INtYyGB_5lb_l78h1_proxyNtB9_7H1Proxy12handle_inner0s4_0Bb_
FNDA:0,_RNCNCNvMs6_NtCsijo3INtYyGB_5lb_l78h1_proxyNtB9_7H1Proxy12handle_inner0s5_0Bb_
FNDA:0,_RNCNCNvMs6_NtCsijo3INtYyGB_5lb_l78h1_proxyNtB9_7H1Proxy12handle_inner0s6_0Bb_
FNDA:0,_RNCNCNvMs6_NtCsijo3INtYyGB_5lb_l78h1_proxyNtB9_7H1Proxy12handle_inner0s7_0Bb_
FNDA:0,_RNCNCNvMs6_NtCsijo3INtYyGB_5lb_l78h1_proxyNtB9_7H1Proxy12handle_inner0s_0Bb_
FNDA:0,_RNCNCNvMs6_NtCsijo3INtYyGB_5lb_l78h1_proxyNtB9_7H1Proxy13proxy_request00Bb_
FNDA:0,_RNCNCNvMs6_NtCsijo3INtYyGB_5lb_l78h1_proxyNtB9_7H1Proxy13proxy_request0s0_0Bb_
FNDA:0,_RNCNCNvMs6_NtCsijo3INtYyGB_5lb_l78h1_proxyNtB9_7H1Proxy13proxy_request0s1_0Bb_
FNDA:0,_RNCNCNvMs6_NtCsijo3INtYyGB_5lb_l78h1_proxyNtB9_7H1Proxy13proxy_request0s2_0Bb_
FNDA:0,_RNCNCNvMs6_NtCsijo3INtYyGB_5lb_l78h1_proxyNtB9_7H1Proxy13proxy_request0s3_0Bb_
FNDA:0,_RNCNCNvMs6_NtCsijo3INtYyGB_5lb_l78h1_proxyNtB9_7H1Proxy13proxy_request0s4_0Bb_
FNDA:0,_RNCNCNvMs6_NtCsijo3INtYyGB_5lb_l78h1_proxyNtB9_7H1Proxy13proxy_request0s_0Bb_
FNDA:0,_RNCNCNvMs6_NtCsijo3INtYyGB_5lb_l78h1_proxyNtB9_7H1Proxy14proxy_h1_to_h300Bb_
FNDA:0,_RNCNCNvMs6_NtCsijo3INtYyGB_5lb_l78h1_proxyNtB9_7H1Proxy14proxy_h1_to_h30s0_0Bb_
FNDA:0,_RNCNCNvMs6_NtCsijo3INtYyGB_5lb_l78h1_proxyNtB9_7H1Proxy14proxy_h1_to_h30s1_0Bb_
FNDA:0,_RNCNCNvMs6_NtCsijo3INtYyGB_5lb_l78h1_proxyNtB9_7H1Proxy14proxy_h1_to_h30s2_0Bb_
FNDA:0,_RNCNCNvMs6_NtCsijo3INtYyGB_5lb_l78h1_proxyNtB9_7H1Proxy14proxy_h1_to_h30s_0Bb_
FNDA:0,_RNCNCNvMs6_NtCsijo3INtYyGB_5lb_l78h1_proxyNtB9_7H1Proxy17handle_ws_upgrade00Bb_
FNDA:0,_RNCNCNvMs6_NtCsijo3INtYyGB_5lb_l78h1_proxyNtB9_7H1Proxy17handle_ws_upgrade0s0_0Bb_
FNDA:0,_RNCNCNvMs6_NtCsijo3INtYyGB_5lb_l78h1_proxyNtB9_7H1Proxy17handle_ws_upgrade0s1_0Bb_
FNDA:0,_RNCNCNvMs6_NtCsijo3INtYyGB_5lb_l78h1_proxyNtB9_7H1Proxy17handle_ws_upgrade0s2_0Bb_
FNDA:0,_RNCNCNvMs6_NtCsijo3INtYyGB_5lb_l78h1_proxyNtB9_7H1Proxy17handle_ws_upgrade0s3_0Bb_
FNDA:0,_RNCNCNvMs6_NtCsijo3INtYyGB_5lb_l78h1_proxyNtB9_7H1Proxy17handle_ws_upgrade0s5_0Bb_
FNDA:0,_RNCNCNvMs6_NtCsijo3INtYyGB_5lb_l78h1_proxyNtB9_7H1Proxy17handle_ws_upgrade0s_0Bb_
FNDA:0,_RNCNCNvMs6_NtCsijo3INtYyGB_5lb_l78h1_proxyNtB9_7H1Proxy22proxy_h1_to_h2_request00Bb_
FNDA:0,_RNCNCNvMs6_NtCsijo3INtYyGB_5lb_l78h1_proxyNtB9_7H1Proxy22proxy_h1_to_h2_request0s0_0Bb_
FNDA:0,_RNCNCNvMs6_NtCsijo3INtYyGB_5lb_l78h1_proxyNtB9_7H1Proxy22proxy_h1_to_h2_request0s1_0Bb_
FNDA:0,_RNCNCNvMs6_NtCsijo3INtYyGB_5lb_l78h1_proxyNtB9_7H1Proxy22proxy_h1_to_h2_request0s2_0Bb_
FNDA:0,_RNCNCNvMs6_NtCsijo3INtYyGB_5lb_l78h1_proxyNtB9_7H1Proxy22proxy_h1_to_h2_request0s_0Bb_
FNDA:0,_RNCNCNvNtCsijo3INtYyGB_5lb_l78h1_proxy16dial_upstream_ws00B7_
FNDA:0,_RNCNCNvNtCsijo3INtYyGB_5lb_l78h1_proxy16dial_upstream_ws0s0_0B7_
FNDA:0,_RNCNCNvNtCsijo3INtYyGB_5lb_l78h1_proxy16dial_upstream_ws0s1_0B7_
FNDA:0,_RNCNCNvNtCsijo3INtYyGB_5lb_l78h1_proxy16dial_upstream_ws0s_0B7_
FNDA:0,_RNCNCNvNtCsijo3INtYyGB_5lb_l78h1_proxy24build_h1_to_h3_fieldlists1_00B7_
FNDA:0,_RNCNCNvNtCsijo3INtYyGB_5lb_l78h1_proxy29build_h1_to_h2_upstream_partss_00B7_
FNDA:0,_RNCNvMs6_NtCsijo3INtYyGB_5lb_l78h1_proxyNtB7_7H1Proxy12handle_inner0B9_
FNDA:0,_RNCNvMs6_NtCsijo3INtYyGB_5lb_l78h1_proxyNtB7_7H1Proxy13proxy_request0B9_
FNDA:0,_RNCNvMs6_NtCsijo3INtYyGB_5lb_l78h1_proxyNtB7_7H1Proxy14proxy_h1_to_h20B9_
FNDA:0,_RNCNvMs6_NtCsijo3INtYyGB_5lb_l78h1_proxyNtB7_7H1Proxy14proxy_h1_to_h30B9_
FNDA:0,_RNCNvMs6_NtCsijo3INtYyGB_5lb_l78h1_proxyNtB7_7H1Proxy17finalize_response0B9_
FNDA:0,_RNCNvMs6_NtCsijo3INtYyGB_5lb_l78h1_proxyNtB7_7H1Proxy17handle_ws_upgrade0B9_
FNDA:0,_RNCNvMs6_NtCsijo3INtYyGB_5lb_l78h1_proxyNtB7_7H1Proxy22proxy_h1_to_h2_request0B9_
FNDA:0,_RNCNvMs6_NtCsijo3INtYyGB_5lb_l78h1_proxyNtB7_7H1Proxy6handle0B9_
FNDA:0,_RNCNvNtCsijo3INtYyGB_5lb_l78h1_proxy16dial_upstream_ws0B5_
FNDA:3,_RNCNvNtCsijo3INtYyGB_5lb_l78h1_proxy16strip_hop_by_hop0B5_
FNDA:5,_RNCNvNtCsijo3INtYyGB_5lb_l78h1_proxy16strip_hop_by_hops0_0B5_
FNDA:5,_RNCNvNtCsijo3INtYyGB_5lb_l78h1_proxy16strip_hop_by_hops1_0B5_
FNDA:3,_RNCNvNtCsijo3INtYyGB_5lb_l78h1_proxy16strip_hop_by_hops_0B5_
FNDA:0,_RNCNvNtCsijo3INtYyGB_5lb_l78h1_proxy21run_h1_ws_splice_task0B5_
FNDA:0,_RNCNvNtCsijo3INtYyGB_5lb_l78h1_proxy23upstream_response_to_h10B5_
FNDA:0,_RNCNvNtCsijo3INtYyGB_5lb_l78h1_proxy23upstream_response_to_h1s_0B5_
FNDA:0,_RNCNvNtCsijo3INtYyGB_5lb_l78h1_proxy24build_h1_to_h3_fieldlist0B5_
FNDA:0,_RNCNvNtCsijo3INtYyGB_5lb_l78h1_proxy24build_h1_to_h3_fieldlists0_0B5_
FNDA:0,_RNCNvNtCsijo3INtYyGB_5lb_l78h1_proxy24build_h1_to_h3_fieldlists1_0B5_
FNDA:0,_RNCNvNtCsijo3INtYyGB_5lb_l78h1_proxy24build_h1_to_h3_fieldlists2_0B5_
FNDA:0,_RNCNvNtCsijo3INtYyGB_5lb_l78h1_proxy24build_h1_to_h3_fieldlists3_0B5_
FNDA:0,_RNCNvNtCsijo3INtYyGB_5lb_l78h1_proxy24build_h1_to_h3_fieldlists4_0B5_
FNDA:0,_RNCNvNtCsijo3INtYyGB_5lb_l78h1_proxy24build_h1_to_h3_fieldlists_0B5_
FNDA:0,_RNCNvNtCsijo3INtYyGB_5lb_l78h1_proxy27build_h1_streaming_response0B5_
FNDA:0,_RNCNvNtCsijo3INtYyGB_5lb_l78h1_proxy28validate_h1_request_trailers0B5_
FNDA:0,_RNCNvNtCsijo3INtYyGB_5lb_l78h1_proxy29build_h1_to_h2_upstream_parts0B5_
FNDA:0,_RNCNvNtCsijo3INtYyGB_5lb_l78h1_proxy29build_h1_to_h2_upstream_partss0_0B5_
FNDA:0,_RNCNvNtCsijo3INtYyGB_5lb_l78h1_proxy29build_h1_to_h2_upstream_partss1_0B5_
FNDA:0,_RNCNvNtCsijo3INtYyGB_5lb_l78h1_proxy29build_h1_to_h2_upstream_partss2_0B5_
FNDA:0,_RNCNvNtCsijo3INtYyGB_5lb_l78h1_proxy29build_h1_to_h2_upstream_partss3_0B5_
FNDA:0,_RNCNvNtCsijo3INtYyGB_5lb_l78h1_proxy29build_h1_to_h2_upstream_partss4_0B5_
FNDA:0,_RNCNvNtCsijo3INtYyGB_5lb_l78h1_proxy29build_h1_to_h2_upstream_partss_0B5_
FNDA:0,_RNCNvXs5_NtCsijo3INtYyGB_5lb_l78h1_proxyNtB7_12ProxyServiceINtNtNtCsgB3dp6qvXvn_5hyper7service7service7ServiceINtNtCsjFxw70quGA5_4http7request7RequestNtNtNtB12_4body8incoming8IncomingEE4call0B9_
FNDA:0,_RINvMs4_NtCsijo3INtYyGB_5lb_l78h1_proxyNtB6_7H1Proxy16serve_connectionpEB8_
FNDA:0,_RNCINvMs4_NtCsijo3INtYyGB_5lb_l78h1_proxyNtB8_7H1Proxy16serve_connectionpE0Ba_
FNDA:0,_RNCNvNtCsijo3INtYyGB_5lb_l78h1_proxy31build_h1_response_with_trailers0B5_
FNDA:0,_RNCNvNtCsijo3INtYyGB_5lb_l78h1_proxy31build_h1_response_with_trailerss0_0B5_
FNDA:0,_RNCNvNtCsijo3INtYyGB_5lb_l78h1_proxy31build_h1_response_with_trailerss_0B5_
FNDA:0,_RNvMs4_NtCsijo3INtYyGB_5lb_l78h1_proxyNtB5_7H1Proxy10with_hooks
FNDA:0,_RNvMs4_NtCsijo3INtYyGB_5lb_l78h1_proxyNtB5_7H1Proxy13with_watchdog
FNDA:0,_RNvMs4_NtCsijo3INtYyGB_5lb_l78h1_proxyNtB5_7H1Proxy14with_websocket
FNDA:0,_RNvMs4_NtCsijo3INtYyGB_5lb_l78h1_proxyNtB5_7H1Proxy15has_h2_upstream
FNDA:0,_RNvMs4_NtCsijo3INtYyGB_5lb_l78h1_proxyNtB5_7H1Proxy15has_h3_upstream
FNDA:0,_RNvMs4_NtCsijo3INtYyGB_5lb_l78h1_proxyNtB5_7H1Proxy16with_h2_upstream
FNDA:0,_RNvMs4_NtCsijo3INtYyGB_5lb_l78h1_proxyNtB5_7H1Proxy16with_h3_upstream
FNDA:0,_RNvMs4_NtCsijo3INtYyGB_5lb_l78h1_proxyNtB5_7H1Proxy16with_multi_proto
FNDA:0,_RNvMs4_NtCsijo3INtYyGB_5lb_l78h1_proxyNtB5_7H1Proxy17with_expected_sni
FNDA:0,_RNvMs4_NtCsijo3INtYyGB_5lb_l78h1_proxyNtB5_7H1Proxy19with_smuggle_strict
FNDA:0,_RNvMs4_NtCsijo3INtYyGB_5lb_l78h1_proxyNtB5_7H1Proxy27with_max_keepalive_requests
FNDA:0,_RNvMs4_NtCsijo3INtYyGB_5lb_l78h1_proxyNtB5_7H1Proxy29with_header_underscore_policy
FNDA:0,_RNvMs4_NtCsijo3INtYyGB_5lb_l78h1_proxyNtB5_7H1Proxy33keepalive_cap_termination_counter
FNDA:0,_RNvNtCsijo3INtYyGB_5lb_l78h1_proxy31build_h1_response_with_trailers
FNDA:1,_RNCNvNtNtCsijo3INtYyGB_5lb_l78h1_proxy5testss_23via_two_lines_preserved0B7_
FNDA:1,_RNCNvNtNtCsijo3INtYyGB_5lb_l78h1_proxy5testss_35x_forwarded_for_two_lines_preserved0B7_
FNDA:1,_RNCNvNtNtCsijo3INtYyGB_5lb_l78h1_proxy5testss_42test_sigterm_h1_graceful_shutdown_resolves0B7_
FNDA:4,_RNvNtNtCsijo3INtYyGB_5lb_l78h1_proxy5tests8map_with
FNDA:1,_RNvNtNtCsijo3INtYyGB_5lb_l78h1_proxy5testss_12via_appended
FNDA:1,_RNvNtNtCsijo3INtYyGB_5lb_l78h1_proxy5testss_23via_two_lines_preserved
FNDA:1,_RNvNtNtCsijo3INtYyGB_5lb_l78h1_proxy5testss_24x_forwarded_for_appended
FNDA:1,_RNvNtNtCsijo3INtYyGB_5lb_l78h1_proxy5testss_25round_robin_picker_cycles
FNDA:1,_RNvNtNtCsijo3INtYyGB_5lb_l78h1_proxy5testss_30round_robin_empty_returns_none
FNDA:1,_RNvNtNtCsijo3INtYyGB_5lb_l78h1_proxy5testss_32alt_svc_injected_when_configured
FNDA:1,_RNvNtNtCsijo3INtYyGB_5lb_l78h1_proxy5testss_34alt_svc_absent_when_not_configured
FNDA:1,_RNvNtNtCsijo3INtYyGB_5lb_l78h1_proxy5testss_35x_forwarded_for_created_when_absent
FNDA:1,_RNvNtNtCsijo3INtYyGB_5lb_l78h1_proxy5testss_35x_forwarded_for_two_lines_preserved
FNDA:1,_RNvNtNtCsijo3INtYyGB_5lb_l78h1_proxy5testss_40hop_by_hop_headers_stripped_from_request
FNDA:1,_RNvNtNtCsijo3INtYyGB_5lb_l78h1_proxy5testss_42test_sigterm_h1_graceful_shutdown_resolves
FNDA:1,_RNvNtNtCsijo3INtYyGB_5lb_l78h1_proxy5testss_65hop_by_hop_response_strips_te_and_transfer_encoding_keeps_trailer
FNDA:4,_RINvMs4_NtCscRJcA2zm81b_5lb_l78h1_proxyNtB6_7H1Proxy16serve_connectionNtNtNtNtCsfWKKmeeA0Vo_5tokio3net3tcp6stream9TcpStreamECshNrGFH5ArmH_25round8_authority_enforced
FNDA:4,_RINvMs4_NtCscRJcA2zm81b_5lb_l78h1_proxyNtB6_7H1Proxy28serve_connection_with_cancelNtNtNtNtCsfWKKmeeA0Vo_5tokio3net3tcp6stream9TcpStreamECshNrGFH5ArmH_25round8_authority_enforced
FNDA:4,_RINvMs4_NtCscRJcA2zm81b_5lb_l78h1_proxyNtB6_7H1Proxy32serve_connection_with_cancel_sniNtNtNtNtCsfWKKmeeA0Vo_5tokio3net3tcp6stream9TcpStreamECshNrGFH5ArmH_25round8_authority_enforced
FNDA:4,_RNCINvMs4_NtCscRJcA2zm81b_5lb_l78h1_proxyNtB8_7H1Proxy16serve_connectionNtNtNtNtCsfWKKmeeA0Vo_5tokio3net3tcp6stream9TcpStreamE0CshNrGFH5ArmH_25round8_authority_enforced
FNDA:4,_RNCINvMs4_NtCscRJcA2zm81b_5lb_l78h1_proxyNtB8_7H1Proxy28serve_connection_with_cancelNtNtNtNtCsfWKKmeeA0Vo_5tokio3net3tcp6stream9TcpStreamE0CshNrGFH5ArmH_25round8_authority_enforced
FNDA:4,_RNCINvMs4_NtCscRJcA2zm81b_5lb_l78h1_proxyNtB8_7H1Proxy32serve_connection_with_cancel_sniNtNtNtNtCsfWKKmeeA0Vo_5tokio3net3tcp6stream9TcpStreamE0CshNrGFH5ArmH_25round8_authority_enforced
FNDA:3,_RINvMs4_NtCscRJcA2zm81b_5lb_l78h1_proxyNtB6_7H1Proxy16serve_connectionNtNtNtNtCsfWKKmeeA0Vo_5tokio3net3tcp6stream9TcpStreamECs7FY36ZOtpKW_26round8_keepalive_count_cap
FNDA:3,_RINvMs4_NtCscRJcA2zm81b_5lb_l78h1_proxyNtB6_7H1Proxy28serve_connection_with_cancelNtNtNtNtCsfWKKmeeA0Vo_5tokio3net3tcp6stream9TcpStreamECs7FY36ZOtpKW_26round8_keepalive_count_cap
FNDA:3,_RINvMs4_NtCscRJcA2zm81b_5lb_l78h1_proxyNtB6_7H1Proxy32serve_connection_with_cancel_sniNtNtNtNtCsfWKKmeeA0Vo_5tokio3net3tcp6stream9TcpStreamECs7FY36ZOtpKW_26round8_keepalive_count_cap
FNDA:3,_RNCINvMs4_NtCscRJcA2zm81b_5lb_l78h1_proxyNtB8_7H1Proxy16serve_connectionNtNtNtNtCsfWKKmeeA0Vo_5tokio3net3tcp6stream9TcpStreamE0Cs7FY36ZOtpKW_26round8_keepalive_count_cap
FNDA:3,_RNCINvMs4_NtCscRJcA2zm81b_5lb_l78h1_proxyNtB8_7H1Proxy28serve_connection_with_cancelNtNtNtNtCsfWKKmeeA0Vo_5tokio3net3tcp6stream9TcpStreamE0Cs7FY36ZOtpKW_26round8_keepalive_count_cap
FNDA:3,_RNCINvMs4_NtCscRJcA2zm81b_5lb_l78h1_proxyNtB8_7H1Proxy32serve_connection_with_cancel_sniNtNtNtNtCsfWKKmeeA0Vo_5tokio3net3tcp6stream9TcpStreamE0Cs7FY36ZOtpKW_26round8_keepalive_count_cap
FNDA:1,_RINvMs4_NtCscRJcA2zm81b_5lb_l78h1_proxyNtB6_7H1Proxy16serve_connectionNtNtNtNtCsfWKKmeeA0Vo_5tokio3net3tcp6stream9TcpStreamECsJeLKJNhM6d_30round8_traceparent_propagation
FNDA:1,_RINvMs4_NtCscRJcA2zm81b_5lb_l78h1_proxyNtB6_7H1Proxy28serve_connection_with_cancelNtNtNtNtCsfWKKmeeA0Vo_5tokio3net3tcp6stream9TcpStreamECsJeLKJNhM6d_30round8_traceparent_propagation
FNDA:1,_RINvMs4_NtCscRJcA2zm81b_5lb_l78h1_proxyNtB6_7H1Proxy32serve_connection_with_cancel_sniNtNtNtNtCsfWKKmeeA0Vo_5tokio3net3tcp6stream9TcpStreamECsJeLKJNhM6d_30round8_traceparent_propagation
FNDA:1,_RNCINvMs4_NtCscRJcA2zm81b_5lb_l78h1_proxyNtB8_7H1Proxy16serve_connectionNtNtNtNtCsfWKKmeeA0Vo_5tokio3net3tcp6stream9TcpStreamE0CsJeLKJNhM6d_30round8_traceparent_propagation
FNDA:1,_RNCINvMs4_NtCscRJcA2zm81b_5lb_l78h1_proxyNtB8_7H1Proxy28serve_connection_with_cancelNtNtNtNtCsfWKKmeeA0Vo_5tokio3net3tcp6stream9TcpStreamE0CsJeLKJNhM6d_30round8_traceparent_propagation
FNDA:1,_RNCINvMs4_NtCscRJcA2zm81b_5lb_l78h1_proxyNtB8_7H1Proxy32serve_connection_with_cancel_sniNtNtNtNtCsfWKKmeeA0Vo_5tokio3net3tcp6stream9TcpStreamE0CsJeLKJNhM6d_30round8_traceparent_propagation
FNDA:4,_RINvMs4_NtCscRJcA2zm81b_5lb_l78h1_proxyNtB6_7H1Proxy16serve_connectionNtNtNtNtCsfWKKmeeA0Vo_5tokio3net3tcp6stream9TcpStreamECsau1g18OdraT_23round8_ws_upgrade_defer
FNDA:4,_RINvMs4_NtCscRJcA2zm81b_5lb_l78h1_proxyNtB6_7H1Proxy28serve_connection_with_cancelNtNtNtNtCsfWKKmeeA0Vo_5tokio3net3tcp6stream9TcpStreamECsau1g18OdraT_23round8_ws_upgrade_defer
FNDA:4,_RINvMs4_NtCscRJcA2zm81b_5lb_l78h1_proxyNtB6_7H1Proxy32serve_connection_with_cancel_sniNtNtNtNtCsfWKKmeeA0Vo_5tokio3net3tcp6stream9TcpStreamECsau1g18OdraT_23round8_ws_upgrade_defer
FNDA:4,_RNCINvMs4_NtCscRJcA2zm81b_5lb_l78h1_proxyNtB8_7H1Proxy16serve_connectionNtNtNtNtCsfWKKmeeA0Vo_5tokio3net3tcp6stream9TcpStreamE0Csau1g18OdraT_23round8_ws_upgrade_defer
FNDA:4,_RNCINvMs4_NtCscRJcA2zm81b_5lb_l78h1_proxyNtB8_7H1Proxy28serve_connection_with_cancelNtNtNtNtCsfWKKmeeA0Vo_5tokio3net3tcp6stream9TcpStreamE0Csau1g18OdraT_23round8_ws_upgrade_defer
FNDA:4,_RNCINvMs4_NtCscRJcA2zm81b_5lb_l78h1_proxyNtB8_7H1Proxy32serve_connection_with_cancel_sniNtNtNtNtCsfWKKmeeA0Vo_5tokio3net3tcp6stream9TcpStreamE0Csau1g18OdraT_23round8_ws_upgrade_defer
FNDA:2,_RINvMs4_NtCscRJcA2zm81b_5lb_l78h1_proxyNtB6_7H1Proxy32serve_connection_with_cancel_sniINtNtCs7m3feRqGqA4_12tokio_rustls6server9TlsStreamNtNtNtNtCsfWKKmeeA0Vo_5tokio2io4util3mem12DuplexStreamEECs6qxhBmUT9yO_17sni_authority_421
FNDA:2,_RNCINvMs4_NtCscRJcA2zm81b_5lb_l78h1_proxyNtB8_7H1Proxy32serve_connection_with_cancel_sniINtNtCs7m3feRqGqA4_12tokio_rustls6server9TlsStreamNtNtNtNtCsfWKKmeeA0Vo_5tokio2io4util3mem12DuplexStreamEE0Cs6qxhBmUT9yO_17sni_authority_421
FNF:157
FNH:67
DA:141,0
DA:142,0
DA:143,0
DA:166,0
DA:168,0
DA:171,0
DA:172,0
DA:173,0
DA:174,0
DA:175,0
DA:176,0
DA:177,0
DA:179,0
DA:180,0
DA:181,0
DA:182,0
DA:183,0
DA:185,0
DA:186,0
DA:201,2
DA:202,2
DA:203,2
DA:227,2
DA:228,2
DA:229,2
DA:230,2
DA:231,2
DA:232,2
DA:233,2
DA:234,2
DA:278,22
DA:279,22
DA:280,1
DA:281,21
DA:282,21
DA:283,21
DA:284,21
DA:285,21
DA:286,22
DA:290,42
DA:291,42
DA:292,0
DA:293,42
DA:294,42
DA:295,42
DA:296,42
DA:297,42
DA:298,42
DA:299,42
DA:300,42
DA:301,42
DA:387,14
DA:388,14
DA:389,14
DA:390,14
DA:391,14
DA:392,14
DA:393,14
DA:394,14
DA:395,14
DA:396,14
DA:397,14
DA:398,14
DA:399,14
DA:400,14
DA:401,14
DA:402,14
DA:403,14
DA:404,14
DA:405,14
DA:406,14
DA:407,14
DA:408,14
DA:409,14
DA:410,14
DA:411,14
DA:412,14
DA:413,14
DA:414,14
DA:415,14
DA:416,14
DA:431,0
DA:432,0
DA:433,0
DA:434,0
DA:435,0
DA:436,0
DA:437,0
DA:438,0
DA:439,0
DA:440,0
DA:441,0
DA:442,0
DA:443,0
DA:444,0
DA:445,0
DA:446,0
DA:447,0
DA:448,0
DA:449,0
DA:450,0
DA:451,0
DA:452,0
DA:453,0
DA:454,0
DA:455,0
DA:456,0
DA:457,0
DA:458,0
DA:459,0
DA:468,0
DA:469,0
DA:470,0
DA:471,0
DA:483,0
DA:484,0
DA:485,0
DA:486,0
DA:493,0
DA:494,0
DA:495,0
DA:496,0
DA:504,0
DA:505,0
DA:506,0
DA:507,0
DA:516,0
DA:517,0
DA:518,0
DA:519,0
DA:524,0
DA:525,0
DA:526,0
DA:527,0
DA:532,0
DA:533,0
DA:534,0
DA:535,0
DA:541,0
DA:542,0
DA:543,0
DA:548,0
DA:549,0
DA:550,0
DA:557,3
DA:558,3
DA:559,3
DA:560,3
DA:567,1
DA:568,1
DA:569,1
DA:576,5
DA:577,5
DA:578,5
DA:579,5
DA:594,12
DA:595,12
DA:596,12
DA:597,12
DA:598,12
DA:599,12
DA:600,12
DA:601,12
DA:602,12
DA:603,6
DA:629,13
DA:630,13
DA:631,13
DA:632,13
DA:633,13
DA:634,13
DA:635,13
DA:636,13
DA:637,13
DA:638,13
DA:639,13
DA:640,13
DA:641,13
DA:642,13
DA:643,13
DA:644,13
DA:645,7
DA:660,15
DA:661,15
DA:662,15
DA:663,15
DA:664,15
DA:665,15
DA:666,15
DA:667,15
DA:668,15
DA:669,15
DA:670,15
DA:671,15
DA:672,15
DA:673,15
DA:674,15
DA:675,15
DA:676,15
DA:677,15
DA:678,15
DA:679,15
DA:680,15
DA:681,15
DA:682,15
DA:683,15
DA:684,15
DA:685,15
DA:686,15
DA:687,15
DA:688,15
DA:689,15
DA:690,15
DA:691,15
DA:692,15
DA:693,15
DA:694,15
DA:695,15
DA:696,15
DA:697,15
DA:698,15
DA:699,15
DA:700,15
DA:701,15
DA:702,15
DA:706,15
DA:717,1
DA:718,1
DA:719,1
DA:720,0
DA:721,0
DA:722,0
DA:723,0
DA:724,0
DA:727,15
DA:728,6
DA:729,0
DA:731,15
DA:732,2
DA:733,2
DA:734,2
DA:743,15
DA:744,0
DA:745,0
DA:746,0
DA:747,0
DA:748,0
DA:749,0
DA:750,0
DA:751,0
DA:752,0
DA:753,0
DA:757,9
DA:791,42
DA:792,42
DA:793,42
DA:794,42
DA:795,42
DA:796,42
DA:797,42
DA:798,42
DA:799,42
DA:800,42
DA:801,42
DA:802,42
DA:803,42
DA:804,42
DA:805,42
DA:806,42
DA:807,42
DA:808,42
DA:815,2
DA:816,2
DA:817,2
DA:818,2
DA:819,2
DA:820,2
DA:821,40
DA:822,42
DA:823,42
DA:824,42
DA:842,42
DA:843,42
DA:844,42
DA:845,42
DA:846,42
DA:847,42
DA:852,42
DA:853,42
DA:854,42
DA:855,42
DA:856,42
DA:857,42
DA:858,42
DA:859,42
DA:860,42
DA:861,42
DA:862,42
DA:863,42
DA:864,42
DA:865,42
DA:866,42
DA:867,42
DA:870,42
DA:871,42
DA:872,42
DA:874,42
DA:875,42
DA:876,42
DA:877,42
DA:878,42
DA:879,42
DA:880,42
DA:893,42
DA:894,3
DA:898,0
DA:900,3
DA:901,39
DA:902,39
DA:903,39
DA:904,39
DA:905,39
DA:906,39
DA:907,39
DA:908,39
DA:909,39
DA:910,39
DA:911,39
DA:912,39
DA:913,39
DA:914,39
DA:915,39
DA:916,39
DA:917,39
DA:918,39
DA:919,39
DA:920,39
DA:921,0
DA:922,0
DA:923,0
DA:924,0
DA:925,0
DA:926,0
DA:927,0
DA:928,39
DA:930,0
DA:931,0
DA:932,0
DA:933,0
DA:934,39
DA:935,39
DA:936,39
DA:937,39
DA:938,39
DA:939,39
DA:940,39
DA:941,39
DA:942,39
DA:944,4
DA:945,35
DA:946,35
DA:947,35
DA:960,35
DA:961,0
DA:963,35
DA:965,35
DA:967,35
DA:968,35
DA:969,35
DA:970,38
DA:972,0
DA:973,0
DA:974,0
DA:975,0
DA:976,35
DA:979,0
DA:980,0
DA:981,0
DA:982,0
DA:983,0
DA:984,0
DA:986,0
DA:988,0
DA:989,0
DA:990,0
DA:991,0
DA:992,0
DA:994,0
DA:1002,35
DA:1003,35
DA:1004,35
DA:1005,35
DA:1006,35
DA:1007,73
DA:1008,38
DA:1009,38
DA:1010,35
DA:1012,35
DA:1013,0
DA:1014,35
DA:1015,35
DA:1016,35
DA:1017,35
DA:1018,35
DA:1019,35
DA:1020,35
DA:1021,35
DA:1022,35
DA:1023,35
DA:1024,35
DA:1025,35
DA:1026,35
DA:1027,35
DA:1028,35
DA:1029,35
DA:1030,35
DA:1031,35
DA:1032,35
DA:1033,35
DA:1034,1
DA:1035,1
DA:1036,1
DA:1037,1
DA:1038,1
DA:1039,1
DA:1040,1
DA:1042,1
DA:1046,0
DA:1048,1
DA:1049,1
DA:1050,0
DA:1051,34
DA:1061,34
DA:1062,34
DA:1063,34
DA:1064,37
DA:1065,37
DA:1066,37
DA:1067,37
DA:1068,37
DA:1069,34
DA:1070,34
DA:1071,0
DA:1073,34
DA:1075,34
DA:1076,0
DA:1077,0
DA:1078,34
DA:1079,34
DA:1080,34
DA:1081,34
DA:1082,34
DA:1083,34
DA:1084,34
DA:1085,34
DA:1086,0
DA:1087,0
DA:1088,0
DA:1089,0
DA:1090,0
DA:1091,0
DA:1092,0
DA:1093,0
DA:1094,0
DA:1095,0
DA:1096,0
DA:1097,0
DA:1098,0
DA:1099,0
DA:1100,0
DA:1101,0
DA:1102,0
DA:1103,0
DA:1104,0
DA:1105,0
DA:1106,0
DA:1107,34
DA:1108,34
DA:1109,34
DA:1110,34
DA:1111,34
DA:1112,34
DA:1113,34
DA:1114,34
DA:1115,34
DA:1116,34
DA:1117,34
DA:1118,34
DA:1119,34
DA:1120,34
DA:1121,34
DA:1122,34
DA:1123,34
DA:1124,34
DA:1125,34
DA:1126,34
DA:1127,34
DA:1128,34
DA:1129,34
DA:1130,34
DA:1133,34
DA:1134,0
DA:1137,34
DA:1138,34
DA:1139,30
DA:1140,4
DA:1142,0
DA:1147,0
DA:1149,0
DA:1150,0
DA:1151,0
DA:1152,0
DA:1154,0
DA:1155,0
DA:1160,34
DA:1161,0
DA:1162,34
DA:1163,34
DA:1164,42
DA:1196,34
DA:1197,34
DA:1198,34
DA:1199,34
DA:1200,34
DA:1203,34
DA:1204,34
DA:1205,34
DA:1206,34
DA:1207,34
DA:1208,34
DA:1209,34
DA:1210,34
DA:1211,34
DA:1212,34
DA:1213,34
DA:1214,34
DA:1215,34
DA:1216,34
DA:1217,34
DA:1218,34
DA:1219,34
DA:1220,34
DA:1231,34
DA:1232,34
DA:1233,34
DA:1234,34
DA:1235,34
DA:1242,30
DA:1243,30
DA:1244,30
DA:1251,30
DA:1252,30
DA:1253,30
DA:1254,30
DA:1255,30
DA:1256,30
DA:1258,30
DA:1259,30
DA:1260,30
DA:1261,30
DA:1262,30
DA:1263,30
DA:1264,30
DA:1265,30
DA:1266,30
DA:1267,30
DA:1268,30
DA:1269,30
DA:1270,30
DA:1271,30
DA:1272,30
DA:1273,30
DA:1274,30
DA:1275,30
DA:1276,30
DA:1277,30
DA:1278,30
DA:1279,30
DA:1280,30
DA:1281,30
DA:1282,30
DA:1283,30
DA:1284,30
DA:1285,30
DA:1286,30
DA:1287,30
DA:1288,30
DA:1289,0
DA:1290,0
DA:1291,0
DA:1292,0
DA:1293,0
DA:1294,0
DA:1295,0
DA:1296,30
DA:1297,30
DA:1298,30
DA:1299,30
DA:1300,30
DA:1301,30
DA:1302,30
DA:1303,30
DA:1304,30
DA:1305,30
DA:1306,30
DA:1307,30
DA:1308,30
DA:1309,30
DA:1310,30
DA:1311,30
DA:1312,30
DA:1313,30
DA:1314,30
DA:1315,30
DA:1316,30
DA:1317,30
DA:1318,30
DA:1319,30
DA:1320,30
DA:1321,30
DA:1322,30
DA:1323,30
DA:1324,30
DA:1325,30
DA:1326,0
DA:1327,0
DA:1328,0
DA:1329,0
DA:1334,30
DA:1335,30
DA:1336,30
DA:1341,30
DA:1431,30
DA:1467,30
DA:1468,30
DA:1469,30
DA:1471,0
DA:1472,0
DA:1477,0
DA:1478,0
DA:1479,0
DA:1480,0
DA:1486,0
DA:1489,0
DA:1490,0
DA:1491,0
DA:1492,0
DA:1494,0
DA:1495,0
DA:1496,0
DA:1497,0
DA:1498,0
DA:1499,0
DA:1500,0
DA:1501,0
DA:1502,0
DA:1503,0
DA:1506,0
DA:1507,0
DA:1508,0
DA:1509,0
DA:1516,0
DA:1517,0
DA:1518,0
DA:1519,0
DA:1520,0
DA:1524,0
DA:1525,0
DA:1526,0
DA:1527,0
DA:1529,0
DA:1530,0
DA:1531,0
DA:1532,0
DA:1533,0
DA:1534,0
DA:1535,0
DA:1536,0
DA:1537,0
DA:1538,0
DA:1539,0
DA:1540,0
DA:1541,0
DA:1542,0
DA:1543,0
DA:1544,0
DA:1545,0
DA:1546,0
DA:1550,30
DA:1551,30
DA:1552,30
DA:1553,30
DA:1554,30
DA:1555,30
DA:1556,30
DA:1557,30
DA:1558,30
DA:1559,30
DA:1560,30
DA:1561,30
DA:1562,30
DA:1563,30
DA:1564,30
DA:1565,30
DA:1566,30
DA:1567,30
DA:1568,30
DA:1569,30
DA:1570,30
DA:1571,30
DA:1572,30
DA:1573,30
DA:1574,30
DA:1575,30
DA:1576,30
DA:1577,30
DA:1578,30
DA:1579,30
DA:1580,30
DA:1582,30
DA:1583,0
DA:1596,0
DA:1597,0
DA:1598,0
DA:1603,0
DA:1605,0
DA:1606,0
DA:1607,0
DA:1608,0
DA:1609,0
DA:1611,0
DA:1612,0
DA:1613,0
DA:1614,0
DA:1615,0
DA:1616,0
DA:1617,0
DA:1623,30
DA:1627,30
DA:1628,30
DA:1630,0
DA:1631,0
DA:1632,0
DA:1633,0
DA:1634,0
DA:1635,0
DA:1636,0
DA:1641,0
DA:1642,0
DA:1643,0
DA:1644,0
DA:1647,34
DA:1673,0
DA:1674,0
DA:1675,0
DA:1676,0
DA:1677,0
DA:1678,0
DA:1685,0
DA:1686,0
DA:1694,0
DA:1695,0
DA:1696,0
DA:1702,0
DA:1703,0
DA:1704,0
DA:1705,0
DA:1710,0
DA:1711,0
DA:1712,0
DA:1713,0
DA:1714,0
DA:1715,0
DA:1716,0
DA:1724,0
DA:1725,0
DA:1727,0
DA:1728,0
DA:1729,0
DA:1730,0
DA:1731,0
DA:1732,0
DA:1733,0
DA:1734,0
DA:1735,0
DA:1736,0
DA:1737,0
DA:1738,0
DA:1739,0
DA:1740,0
DA:1742,0
DA:1743,0
DA:1744,0
DA:1745,0
DA:1746,0
DA:1747,0
DA:1748,0
DA:1749,0
DA:1754,0
DA:1759,0
DA:1760,0
DA:1761,0
DA:1762,0
DA:1763,0
DA:1764,0
DA:1765,0
DA:1766,0
DA:1767,0
DA:1768,0
DA:1769,0
DA:1770,0
DA:1771,0
DA:1772,0
DA:1773,0
DA:1774,0
DA:1775,0
DA:1776,0
DA:1777,0
DA:1778,0
DA:1779,0
DA:1780,0
DA:1781,0
DA:1782,0
DA:1783,0
DA:1784,0
DA:1785,0
DA:1786,0
DA:1787,0
DA:1788,0
DA:1789,0
DA:1791,0
DA:1792,0
DA:1793,0
DA:1794,0
DA:1795,0
DA:1796,0
DA:1797,0
DA:1798,0
DA:1799,0
DA:1800,0
DA:1801,0
DA:1802,0
DA:1803,0
DA:1804,0
DA:1805,0
DA:1806,0
DA:1807,0
DA:1808,0
DA:1809,0
DA:1810,0
DA:1811,0
DA:1812,0
DA:1813,0
DA:1814,0
DA:1815,0
DA:1816,0
DA:1817,0
DA:1818,0
DA:1819,0
DA:1820,0
DA:1821,0
DA:1822,0
DA:1823,0
DA:1824,0
DA:1825,0
DA:1826,0
DA:1827,0
DA:1828,0
DA:1829,0
DA:1830,0
DA:1831,0
DA:1832,0
DA:1833,0
DA:1834,0
DA:1835,0
DA:1836,0
DA:1837,0
DA:1838,0
DA:1839,0
DA:1840,0
DA:1841,0
DA:1842,0
DA:1843,0
DA:1844,0
DA:1845,0
DA:1846,0
DA:1848,0
DA:1849,0
DA:1933,0
DA:1934,0
DA:1935,0
DA:1936,0
DA:1937,0
DA:1941,0
DA:1949,0
DA:1950,0
DA:1951,0
DA:1953,0
DA:1954,0
DA:1955,0
DA:1956,0
DA:1957,0
DA:1958,0
DA:1960,0
DA:1963,0
DA:1964,0
DA:1965,0
DA:1966,0
DA:1968,0
DA:1969,0
DA:1970,0
DA:1971,0
DA:1974,0
DA:1975,0
DA:1976,0
DA:1977,0
DA:1978,0
DA:1979,0
DA:1980,0
DA:1981,0
DA:1982,0
DA:1983,0
DA:1984,0
DA:1985,0
DA:1986,0
DA:1988,0
DA:1989,0
DA:1990,0
DA:1991,0
DA:1992,0
DA:1993,0
DA:1994,0
DA:1995,0
DA:1996,0
DA:1997,0
DA:2001,0
DA:2002,0
DA:2003,0
DA:2004,0
DA:2005,0
DA:2006,0
DA:2007,0
DA:2008,0
DA:2009,0
DA:2010,0
DA:2011,0
DA:2012,0
DA:2013,0
DA:2014,0
DA:2015,0
DA:2016,0
DA:2017,0
DA:2018,0
DA:2019,0
DA:2020,0
DA:2021,0
DA:2022,0
DA:2033,0
DA:2034,0
DA:2035,0
DA:2036,0
DA:2037,0
DA:2038,0
DA:2039,0
DA:2040,0
DA:2041,0
DA:2042,0
DA:2051,0
DA:2052,0
DA:2053,0
DA:2055,0
DA:2056,0
DA:2058,0
DA:2060,0
DA:2061,0
DA:2062,0
DA:2063,0
DA:2064,0
DA:2066,0
DA:2100,0
DA:2101,0
DA:2102,0
DA:2103,0
DA:2104,0
DA:2108,0
DA:2109,0
DA:2110,0
DA:2111,0
DA:2112,0
DA:2114,0
DA:2115,0
DA:2116,0
DA:2117,0
DA:2118,0
DA:2119,0
DA:2120,0
DA:2121,0
DA:2122,0
DA:2123,0
DA:2130,0
DA:2131,0
DA:2132,0
DA:2133,0
DA:2134,0
DA:2135,0
DA:2136,0
DA:2137,0
DA:2138,0
DA:2139,0
DA:2140,0
DA:2141,0
DA:2142,0
DA:2143,0
DA:2144,0
DA:2145,0
DA:2146,0
DA:2147,0
DA:2148,0
DA:2149,0
DA:2150,0
DA:2151,0
DA:2152,0
DA:2153,0
DA:2154,0
DA:2185,0
DA:2190,0
DA:2191,0
DA:2192,0
DA:2193,0
DA:2194,0
DA:2195,0
DA:2197,0
DA:2198,0
DA:2204,0
DA:2205,0
DA:2206,0
DA:2207,0
DA:2209,0
DA:2210,0
DA:2211,0
DA:2212,0
DA:2213,0
DA:2214,0
DA:2215,0
DA:2216,0
DA:2217,0
DA:2218,0
DA:2219,0
DA:2220,0
DA:2221,0
DA:2222,0
DA:2223,0
DA:2226,0
DA:2227,0
DA:2230,0
DA:2231,0
DA:2236,0
DA:2237,0
DA:2238,0
DA:2239,0
DA:2240,0
DA:2241,0
DA:2244,0
DA:2245,0
DA:2246,0
DA:2248,0
DA:2249,0
DA:2250,0
DA:2251,0
DA:2252,0
DA:2253,0
DA:2254,0
DA:2258,0
DA:2259,0
DA:2260,0
DA:2261,0
DA:2262,0
DA:2263,0
DA:2264,0
DA:2265,0
DA:2266,0
DA:2267,0
DA:2268,0
DA:2269,0
DA:2270,0
DA:2271,0
DA:2272,0
DA:2273,0
DA:2274,0
DA:2275,0
DA:2276,0
DA:2277,0
DA:2278,0
DA:2279,0
DA:2285,0
DA:2286,0
DA:2287,0
DA:2288,0
DA:2289,0
DA:2290,0
DA:2291,0
DA:2292,0
DA:2293,0
DA:2294,0
DA:2295,0
DA:2296,0
DA:2297,0
DA:2298,0
DA:2299,0
DA:2300,0
DA:2301,0
DA:2302,0
DA:2303,0
DA:2304,0
DA:2305,0
DA:2306,0
DA:2308,0
DA:2309,0
DA:2310,0
DA:2311,0
DA:2312,0
DA:2313,0
DA:2314,0
DA:2315,0
DA:2316,0
DA:2318,0
DA:2320,0
DA:2323,0
DA:2324,0
DA:2329,0
DA:2330,0
DA:2334,0
DA:2335,0
DA:2336,0
DA:2337,0
DA:2338,0
DA:2339,0
DA:2340,0
DA:2341,0
DA:2342,0
DA:2343,0
DA:2344,0
DA:2345,0
DA:2346,0
DA:2347,0
DA:2348,0
DA:2349,0
DA:2350,0
DA:2351,0
DA:2352,0
DA:2357,0
DA:2358,0
DA:2359,0
DA:2360,0
DA:2361,0
DA:2362,0
DA:2366,0
DA:2367,0
DA:2368,0
DA:2371,0
DA:2409,4
DA:2410,4
DA:2411,4
DA:2412,4
DA:2413,4
DA:2414,4
DA:2415,0
DA:2417,4
DA:2418,0
DA:2420,4
DA:2421,0
DA:2425,4
DA:2426,0
DA:2427,0
DA:2428,0
DA:2429,0
DA:2430,4
DA:2431,4
DA:2432,4
DA:2433,4
DA:2434,4
DA:2435,4
DA:2436,4
DA:2437,4
DA:2438,4
DA:2439,4
DA:2440,4
DA:2441,4
DA:2442,4
DA:2443,4
DA:2444,4
DA:2445,4
DA:2446,4
DA:2447,4
DA:2448,4
DA:2449,4
DA:2450,4
DA:2451,4
DA:2452,4
DA:2453,4
DA:2454,4
DA:2455,4
DA:2456,4
DA:2457,4
DA:2458,4
DA:2459,4
DA:2460,0
DA:2461,3
DA:2462,3
DA:2463,3
DA:2464,3
DA:2465,3
DA:2466,3
DA:2469,0
DA:2470,0
DA:2471,0
DA:2472,0
DA:2473,0
DA:2479,0
DA:2480,0
DA:2481,0
DA:2482,0
DA:2484,1
DA:2485,1
DA:2486,1
DA:2487,1
DA:2488,1
DA:2489,1
DA:2497,0
DA:2498,0
DA:2499,0
DA:2500,0
DA:2501,0
DA:2502,0
DA:2503,0
DA:2504,0
DA:2505,0
DA:2506,0
DA:2507,0
DA:2508,0
DA:2509,0
DA:2510,0
DA:2511,0
DA:2512,0
DA:2513,0
DA:2514,0
DA:2515,0
DA:2516,0
DA:2517,0
DA:2518,0
DA:2519,0
DA:2520,0
DA:2521,0
DA:2522,0
DA:2523,0
DA:2524,0
DA:2525,0
DA:2526,0
DA:2527,4
DA:2529,30
DA:2530,30
DA:2531,30
DA:2532,30
DA:2535,0
DA:2536,0
DA:2537,0
DA:2538,30
DA:2541,30
DA:2542,30
DA:2543,30
DA:2544,30
DA:2545,30
DA:2546,30
DA:2574,4
DA:2575,4
DA:2576,4
DA:2577,4
DA:2578,4
DA:2579,4
DA:2580,4
DA:2581,4
DA:2582,4
DA:2586,4
DA:2587,4
DA:2588,4
DA:2589,4
DA:2590,4
DA:2591,4
DA:2592,4
DA:2594,4
DA:2595,4
DA:2596,4
DA:2597,4
DA:2598,4
DA:2599,0
DA:2600,0
DA:2601,0
DA:2602,0
DA:2603,0
DA:2605,4
DA:2609,4
DA:2610,4
DA:2611,4
DA:2612,4
DA:2613,4
DA:2614,0
DA:2615,4
DA:2617,4
DA:2618,4
DA:2619,4
DA:2620,4
DA:2621,4
DA:2622,4
DA:2623,4
DA:2624,3
DA:2625,0
DA:2626,3
DA:2633,0
DA:2634,0
DA:2635,0
DA:2636,0
DA:2637,0
DA:2638,0
DA:2639,0
DA:2640,0
DA:2641,0
DA:2642,0
DA:2643,0
DA:2644,0
DA:2647,0
DA:2648,0
DA:2649,0
DA:2650,0
DA:2651,0
DA:2652,0
DA:2654,12
DA:2655,12
DA:2656,12
DA:2657,12
DA:2658,12
DA:2659,12
DA:2660,12
DA:2661,12
DA:2678,0
DA:2679,0
DA:2680,0
DA:2681,0
DA:2683,0
DA:2684,0
DA:2685,0
DA:2686,0
DA:2689,0
DA:2698,78
DA:2699,78
DA:2700,78
DA:2701,78
DA:2702,78
DA:2703,78
DA:2704,78
DA:2705,78
DA:2706,78
DA:2707,78
DA:2708,78
DA:2709,78
DA:2711,624
DA:2712,624
DA:2713,624
DA:2714,624
DA:2715,92
DA:2716,14
DA:2717,14
DA:2718,78
DA:2732,39
DA:2733,39
DA:2734,39
DA:2735,39
DA:2736,4
DA:2737,4
DA:2738,1
DA:2739,3
DA:2740,4
DA:2741,0
DA:2743,39
DA:2744,3
DA:2745,36
DA:2746,39
DA:2747,39
DA:2748,39
DA:2749,39
DA:2750,39
DA:2753,35
DA:2754,35
DA:2755,35
DA:2756,35
DA:2757,35
DA:2758,35
DA:2761,35
DA:2762,35
DA:2763,35
DA:2764,35
DA:2765,35
DA:2772,37
DA:2774,37
DA:2775,37
DA:2776,3
DA:2777,3
DA:2778,1
DA:2779,2
DA:2780,3
DA:2781,0
DA:2783,37
DA:2784,2
DA:2785,35
DA:2786,37
DA:2787,37
DA:2788,37
DA:2789,37
DA:2790,37
DA:2814,0
DA:2815,0
DA:2816,0
DA:2817,0
DA:2818,0
DA:2819,0
DA:2820,0
DA:2821,0
DA:2822,0
DA:2823,0
DA:2824,0
DA:2825,0
DA:2826,0
DA:2827,0
DA:2828,0
DA:2829,0
DA:2830,0
DA:2831,0
DA:2832,0
DA:2833,0
DA:2834,0
DA:2835,0
DA:2836,0
DA:2837,0
DA:2838,0
DA:2839,0
DA:2842,0
DA:2843,0
DA:2844,0
DA:2845,0
DA:2846,0
DA:2847,0
DA:2848,0
DA:2849,0
DA:2850,0
DA:2851,0
DA:2852,0
DA:2853,0
DA:2854,0
DA:2855,0
DA:2856,0
DA:2859,0
DA:2860,0
DA:2861,0
DA:2862,0
DA:2863,0
DA:2867,0
DA:2868,0
DA:2869,0
DA:2870,0
DA:2871,0
DA:2872,0
DA:2879,0
DA:2880,0
DA:2881,0
DA:2882,0
DA:2883,0
DA:2884,0
DA:2886,0
DA:2893,0
DA:2894,0
DA:2895,0
DA:2896,0
DA:2897,0
DA:2898,0
DA:2899,0
DA:2900,0
DA:2901,0
DA:2902,0
DA:2917,0
DA:2918,0
DA:2919,0
DA:2920,0
DA:2921,0
DA:2922,0
DA:2923,0
DA:2924,0
DA:2925,0
DA:2926,0
DA:2927,0
DA:2928,0
DA:2929,0
DA:2930,0
DA:2931,0
DA:2933,0
DA:2934,0
DA:2935,0
DA:2936,0
DA:2937,0
DA:2938,0
DA:2939,0
DA:2943,0
DA:2944,0
DA:2945,0
DA:2946,0
DA:2947,0
DA:2948,0
DA:2949,0
DA:2950,0
DA:2951,0
DA:2952,0
DA:2953,0
DA:2955,2
DA:2956,2
DA:2957,2
DA:2958,2
DA:2963,2
DA:2964,0
DA:2965,0
DA:2966,0
DA:2967,2
DA:2968,2
DA:2969,6
DA:2970,4
DA:2971,4
DA:2972,4
DA:2973,4
DA:2974,4
DA:2975,4
DA:2977,2
DA:2978,0
DA:2980,2
DA:2982,2
DA:2983,2
DA:3019,0
DA:3020,0
DA:3021,0
DA:3022,0
DA:3023,0
DA:3024,0
DA:3025,0
DA:3026,0
DA:3027,0
DA:3028,0
DA:3029,0
DA:3030,0
DA:3031,0
DA:3032,0
DA:3033,0
DA:3034,0
DA:3035,0
DA:3036,0
DA:3037,0
DA:3038,0
DA:3039,0
DA:3040,0
DA:3041,0
DA:3042,0
DA:3043,0
DA:3045,0
DA:3046,0
DA:3047,0
DA:3048,0
DA:3049,0
DA:3053,0
DA:3054,0
DA:3055,0
DA:3056,0
DA:3057,0
DA:3058,0
DA:3059,0
DA:3060,0
DA:3061,0
DA:3062,0
DA:3063,0
DA:3064,0
DA:3085,2
DA:3086,2
DA:3087,2
DA:3088,2
DA:3089,2
DA:3090,2
DA:3091,2
DA:3092,5
DA:3093,3
DA:3094,0
DA:3095,3
DA:3096,3
DA:3097,3
DA:3098,3
DA:3099,3
DA:3100,3
DA:3101,3
DA:3102,3
DA:3103,3
DA:3104,3
DA:3105,3
DA:3106,3
DA:3107,2
DA:3109,1
DA:3110,2
DA:3111,2
DA:3113,2
DA:3118,2
DA:3119,2
DA:3120,2
DA:3121,4
DA:3122,2
DA:3123,2
DA:3124,2
DA:3125,2
DA:3126,2
DA:3127,2
DA:3128,2
DA:3129,2
DA:3130,2
DA:3131,0
DA:3132,2
DA:3133,0
DA:3134,0
DA:3135,0
DA:3136,2
DA:3141,2
DA:3142,2
DA:3143,2
DA:3144,2
DA:3145,0
DA:3146,0
DA:3147,0
DA:3148,0
DA:3149,2
DA:3150,2
DA:3158,0
DA:3159,0
DA:3160,0
DA:3161,0
DA:3162,0
DA:3163,0
DA:3164,0
DA:3165,0
DA:3166,0
DA:3167,0
DA:3168,0
DA:3169,0
DA:3170,0
DA:3171,0
DA:3172,0
DA:3173,0
DA:3174,0
DA:3175,0
DA:3176,0
DA:3177,0
DA:3178,0
DA:3179,0
DA:3180,0
DA:3181,0
DA:3182,0
DA:3183,0
DA:3184,0
DA:3185,0
DA:3186,0
DA:3187,0
DA:3188,0
DA:3189,0
DA:3190,0
DA:3191,0
DA:3192,0
DA:3193,0
DA:3194,0
DA:3195,0
DA:3196,0
DA:3198,0
DA:3199,0
DA:3200,0
DA:3201,0
DA:3202,0
DA:3203,0
DA:3204,0
DA:3205,0
DA:3206,0
DA:3207,0
DA:3208,0
DA:3209,0
DA:3241,0
DA:3243,0
DA:3244,0
DA:3245,0
DA:3246,0
DA:3247,0
DA:3248,0
DA:3249,0
DA:3250,0
DA:3251,0
DA:3252,0
DA:3255,0
DA:3263,4
DA:3264,4
DA:3265,15
DA:3266,11
DA:3267,11
DA:3268,11
DA:3269,11
DA:3270,11
DA:3271,4
DA:3272,4
DA:3275,1
DA:3276,1
DA:3277,1
DA:3278,1
DA:3279,1
DA:3280,1
DA:3281,1
DA:3282,1
DA:3283,1
DA:3284,1
DA:3285,1
DA:3286,1
DA:3287,1
DA:3288,0
DA:3290,1
DA:3291,1
DA:3292,1
DA:3295,1
DA:3296,1
DA:3297,1
DA:3298,1
DA:3299,1
DA:3300,1
DA:3303,1
DA:3304,1
DA:3305,1
DA:3306,1
DA:3307,1
DA:3308,1
DA:3317,1
DA:3318,1
DA:3319,1
DA:3320,1
DA:3321,1
DA:3322,1
DA:3323,1
DA:3324,1
DA:3325,1
DA:3326,1
DA:3327,1
DA:3328,1
DA:3329,1
DA:3330,1
DA:3331,1
DA:3332,1
DA:3333,1
DA:3334,1
DA:3335,1
DA:3337,0
DA:3340,1
DA:3341,1
DA:3342,1
DA:3343,1
DA:3348,1
DA:3349,1
DA:3350,1
DA:3351,1
DA:3352,1
DA:3353,1
DA:3354,1
DA:3355,1
DA:3356,1
DA:3357,1
DA:3358,1
DA:3359,1
DA:3360,1
DA:3361,1
DA:3362,1
DA:3365,1
DA:3366,1
DA:3367,1
DA:3368,1
DA:3369,1
DA:3372,1
DA:3373,1
DA:3374,1
DA:3375,1
DA:3376,1
DA:3377,1
DA:3378,1
DA:3379,1
DA:3380,1
DA:3381,1
DA:3384,1
DA:3385,1
DA:3386,1
DA:3387,1
DA:3390,1
DA:3391,1
DA:3392,1
DA:3393,1
DA:3394,1
DA:3395,1
DA:3396,1
DA:3397,1
DA:3398,1
DA:3399,1
DA:3400,1
DA:3401,1
DA:3402,1
DA:3403,1
DA:3404,1
DA:3407,1
DA:3408,1
DA:3409,1
DA:3410,1
DA:3411,1
DA:3412,1
DA:3413,1
DA:3414,1
DA:3417,1
DA:3418,1
DA:3419,1
DA:3431,1
DA:3432,1
DA:3433,1
DA:3434,1
DA:3435,1
DA:3436,1
DA:3437,1
DA:3438,1
DA:3439,1
DA:3440,1
DA:3441,1
DA:3442,1
DA:3443,1
DA:3444,1
DA:3445,1
DA:3446,1
DA:3447,1
DA:3448,1
DA:3449,1
DA:3450,1
DA:3451,1
DA:3452,1
DA:3453,1
DA:3454,1
DA:3455,1
DA:3456,1
DA:3457,1
DA:3458,1
DA:3459,1
DA:3460,1
DA:3461,1
DA:3462,1
DA:3463,1
DA:3464,1
DA:3465,1
DA:3466,1
BRF:0
BRH:0
LF:2010
LH:946
end_of_record
SF:/home/ubuntu/Code/ExpressGateway/crates/lb-l7/src/h1_to_h1.rs
FN:34,_RNvNtCscRJcA2zm81b_5lb_l78h1_to_h114is_te_trailers
FN:21,_RNvNtCscRJcA2zm81b_5lb_l78h1_to_h124connection_named_headers
FN:123,_RNvXNtCscRJcA2zm81b_5lb_l78h1_to_h1NtB2_12H1ToH1BridgeNtB4_6Bridge13dest_protocol
FN:42,_RNvXNtCscRJcA2zm81b_5lb_l78h1_to_h1NtB2_12H1ToH1BridgeNtB4_6Bridge14bridge_request
FN:85,_RNvXNtCscRJcA2zm81b_5lb_l78h1_to_h1NtB2_12H1ToH1BridgeNtB4_6Bridge15bridge_response
FN:119,_RNvXNtCscRJcA2zm81b_5lb_l78h1_to_h1NtB2_12H1ToH1BridgeNtB4_6Bridge15source_protocol
FN:27,_RNCNCNvNtCscRJcA2zm81b_5lb_l78h1_to_h124connection_named_headerss_00B7_
FN:28,_RNCNCNvNtCscRJcA2zm81b_5lb_l78h1_to_h124connection_named_headerss_0s_0B7_
FN:24,_RNCNvNtCscRJcA2zm81b_5lb_l78h1_to_h124connection_named_headers0B5_
FN:25,_RNCNvNtCscRJcA2zm81b_5lb_l78h1_to_h124connection_named_headerss_0B5_
FN:50,_RNCNvXNtCscRJcA2zm81b_5lb_l78h1_to_h1NtB4_12H1ToH1BridgeNtB6_6Bridge14bridge_request0B6_
FN:96,_RNCNvXNtCscRJcA2zm81b_5lb_l78h1_to_h1NtB4_12H1ToH1BridgeNtB6_6Bridge15bridge_response0B6_
FN:34,_RNvNtCsijo3INtYyGB_5lb_l78h1_to_h114is_te_trailers
FN:21,_RNvNtCsijo3INtYyGB_5lb_l78h1_to_h124connection_named_headers
FN:123,_RNvXNtCsijo3INtYyGB_5lb_l78h1_to_h1NtB2_12H1ToH1BridgeNtB4_6Bridge13dest_protocol
FN:42,_RNvXNtCsijo3INtYyGB_5lb_l78h1_to_h1NtB2_12H1ToH1BridgeNtB4_6Bridge14bridge_request
FN:85,_RNvXNtCsijo3INtYyGB_5lb_l78h1_to_h1NtB2_12H1ToH1BridgeNtB4_6Bridge15bridge_response
FN:119,_RNvXNtCsijo3INtYyGB_5lb_l78h1_to_h1NtB2_12H1ToH1BridgeNtB4_6Bridge15source_protocol
FN:27,_RNCNCNvNtCsijo3INtYyGB_5lb_l78h1_to_h124connection_named_headerss_00B7_
FN:28,_RNCNCNvNtCsijo3INtYyGB_5lb_l78h1_to_h124connection_named_headerss_0s_0B7_
FN:24,_RNCNvNtCsijo3INtYyGB_5lb_l78h1_to_h124connection_named_headers0B5_
FN:25,_RNCNvNtCsijo3INtYyGB_5lb_l78h1_to_h124connection_named_headerss_0B5_
FN:50,_RNCNvXNtCsijo3INtYyGB_5lb_l78h1_to_h1NtB4_12H1ToH1BridgeNtB6_6Bridge14bridge_request0B6_
FN:96,_RNCNvXNtCsijo3INtYyGB_5lb_l78h1_to_h1NtB4_12H1ToH1BridgeNtB6_6Bridge15bridge_response0B6_
FNDA:0,_RNvNtCscRJcA2zm81b_5lb_l78h1_to_h114is_te_trailers
FNDA:3,_RNvNtCscRJcA2zm81b_5lb_l78h1_to_h124connection_named_headers
FNDA:0,_RNvXNtCscRJcA2zm81b_5lb_l78h1_to_h1NtB2_12H1ToH1BridgeNtB4_6Bridge13dest_protocol
FNDA:2,_RNvXNtCscRJcA2zm81b_5lb_l78h1_to_h1NtB2_12H1ToH1BridgeNtB4_6Bridge14bridge_request
FNDA:1,_RNvXNtCscRJcA2zm81b_5lb_l78h1_to_h1NtB2_12H1ToH1BridgeNtB4_6Bridge15bridge_response
FNDA:0,_RNvXNtCscRJcA2zm81b_5lb_l78h1_to_h1NtB2_12H1ToH1BridgeNtB4_6Bridge15source_protocol
FNDA:0,_RNCNCNvNtCscRJcA2zm81b_5lb_l78h1_to_h124connection_named_headerss_00B7_
FNDA:0,_RNCNCNvNtCscRJcA2zm81b_5lb_l78h1_to_h124connection_named_headerss_0s_0B7_
FNDA:8,_RNCNvNtCscRJcA2zm81b_5lb_l78h1_to_h124connection_named_headers0B5_
FNDA:0,_RNCNvNtCscRJcA2zm81b_5lb_l78h1_to_h124connection_named_headerss_0B5_
FNDA:7,_RNCNvXNtCscRJcA2zm81b_5lb_l78h1_to_h1NtB4_12H1ToH1BridgeNtB6_6Bridge14bridge_request0B6_
FNDA:1,_RNCNvXNtCscRJcA2zm81b_5lb_l78h1_to_h1NtB4_12H1ToH1BridgeNtB6_6Bridge15bridge_response0B6_
FNDA:0,_RNvNtCsijo3INtYyGB_5lb_l78h1_to_h114is_te_trailers
FNDA:2,_RNvNtCsijo3INtYyGB_5lb_l78h1_to_h124connection_named_headers
FNDA:1,_RNvXNtCsijo3INtYyGB_5lb_l78h1_to_h1NtB2_12H1ToH1BridgeNtB4_6Bridge13dest_protocol
FNDA:2,_RNvXNtCsijo3INtYyGB_5lb_l78h1_to_h1NtB2_12H1ToH1BridgeNtB4_6Bridge14bridge_request
FNDA:1,_RNvXNtCsijo3INtYyGB_5lb_l78h1_to_h1NtB2_12H1ToH1BridgeNtB4_6Bridge15bridge_response
FNDA:1,_RNvXNtCsijo3INtYyGB_5lb_l78h1_to_h1NtB2_12H1ToH1BridgeNtB4_6Bridge15source_protocol
FNDA:2,_RNCNCNvNtCsijo3INtYyGB_5lb_l78h1_to_h124connection_named_headerss_00B7_
FNDA:2,_RNCNCNvNtCsijo3INtYyGB_5lb_l78h1_to_h124connection_named_headerss_0s_0B7_
FNDA:7,_RNCNvNtCsijo3INtYyGB_5lb_l78h1_to_h124connection_named_headers0B5_
FNDA:1,_RNCNvNtCsijo3INtYyGB_5lb_l78h1_to_h124connection_named_headerss_0B5_
FNDA:5,_RNCNvXNtCsijo3INtYyGB_5lb_l78h1_to_h1NtB4_12H1ToH1BridgeNtB6_6Bridge14bridge_request0B6_
FNDA:2,_RNCNvXNtCsijo3INtYyGB_5lb_l78h1_to_h1NtB4_12H1ToH1BridgeNtB6_6Bridge15bridge_response0B6_
FNF:12
FNH:11
DA:21,5
DA:22,5
DA:23,5
DA:24,15
DA:25,5
DA:26,1
DA:27,2
DA:28,2
DA:29,5
DA:30,5
DA:31,5
DA:34,0
DA:35,0
DA:36,0
DA:42,4
DA:43,4
DA:45,3
DA:46,3
DA:47,3
DA:48,3
DA:49,3
DA:50,12
DA:51,12
DA:52,12
DA:53,12
DA:54,0
DA:55,0
DA:57,0
DA:59,12
DA:60,12
DA:61,2
DA:62,10
DA:63,10
DA:64,1
DA:65,9
DA:66,9
DA:67,12
DA:68,3
DA:69,3
DA:70,3
DA:72,3
DA:73,3
DA:74,3
DA:75,3
DA:76,3
DA:77,3
DA:78,3
DA:79,3
DA:80,3
DA:81,3
DA:82,3
DA:83,4
DA:85,2
DA:86,2
DA:88,2
DA:89,2
DA:90,2
DA:91,2
DA:92,2
DA:93,2
DA:94,2
DA:95,2
DA:96,3
DA:97,3
DA:98,3
DA:99,1
DA:100,2
DA:101,2
DA:102,0
DA:103,2
DA:104,2
DA:105,3
DA:106,2
DA:107,2
DA:108,2
DA:110,2
DA:111,2
DA:112,2
DA:113,2
DA:114,2
DA:115,2
DA:116,2
DA:117,2
DA:119,1
DA:120,1
DA:121,1
DA:123,1
DA:124,1
DA:125,1
BRF:0
BRH:0
LF:98
LH:91
end_of_record
SF:/home/ubuntu/Code/ExpressGateway/crates/lb-l7/src/h1_to_h2.rs
FN:27,_RNCNCNvNtCscRJcA2zm81b_5lb_l78h1_to_h224connection_named_headerss_00B7_
FN:28,_RNCNCNvNtCscRJcA2zm81b_5lb_l78h1_to_h224connection_named_headerss_0s_0B7_
FN:24,_RNCNvNtCscRJcA2zm81b_5lb_l78h1_to_h224connection_named_headers0B5_
FN:25,_RNCNvNtCscRJcA2zm81b_5lb_l78h1_to_h224connection_named_headerss_0B5_
FN:49,_RNCNvXNtCscRJcA2zm81b_5lb_l78h1_to_h2NtB4_12H1ToH2BridgeNtB6_6Bridge14bridge_request0B6_
FN:50,_RNCNvXNtCscRJcA2zm81b_5lb_l78h1_to_h2NtB4_12H1ToH2BridgeNtB6_6Bridge14bridge_requests_0B6_
FN:107,_RNCNvXNtCscRJcA2zm81b_5lb_l78h1_to_h2NtB4_12H1ToH2BridgeNtB6_6Bridge15bridge_response0B6_
FN:117,_RNCNvXNtCscRJcA2zm81b_5lb_l78h1_to_h2NtB4_12H1ToH2BridgeNtB6_6Bridge15bridge_responses_0B6_
FN:21,_RNvNtCscRJcA2zm81b_5lb_l78h1_to_h224connection_named_headers
FN:135,_RNvXNtCscRJcA2zm81b_5lb_l78h1_to_h2NtB2_12H1ToH2BridgeNtB4_6Bridge13dest_protocol
FN:37,_RNvXNtCscRJcA2zm81b_5lb_l78h1_to_h2NtB2_12H1ToH2BridgeNtB4_6Bridge14bridge_request
FN:99,_RNvXNtCscRJcA2zm81b_5lb_l78h1_to_h2NtB2_12H1ToH2BridgeNtB4_6Bridge15bridge_response
FN:131,_RNvXNtCscRJcA2zm81b_5lb_l78h1_to_h2NtB2_12H1ToH2BridgeNtB4_6Bridge15source_protocol
FN:27,_RNCNCNvNtCsijo3INtYyGB_5lb_l78h1_to_h224connection_named_headerss_00B7_
FN:28,_RNCNCNvNtCsijo3INtYyGB_5lb_l78h1_to_h224connection_named_headerss_0s_0B7_
FN:24,_RNCNvNtCsijo3INtYyGB_5lb_l78h1_to_h224connection_named_headers0B5_
FN:25,_RNCNvNtCsijo3INtYyGB_5lb_l78h1_to_h224connection_named_headerss_0B5_
FN:49,_RNCNvXNtCsijo3INtYyGB_5lb_l78h1_to_h2NtB4_12H1ToH2BridgeNtB6_6Bridge14bridge_request0B6_
FN:50,_RNCNvXNtCsijo3INtYyGB_5lb_l78h1_to_h2NtB4_12H1ToH2BridgeNtB6_6Bridge14bridge_requests_0B6_
FN:107,_RNCNvXNtCsijo3INtYyGB_5lb_l78h1_to_h2NtB4_12H1ToH2BridgeNtB6_6Bridge15bridge_response0B6_
FN:117,_RNCNvXNtCsijo3INtYyGB_5lb_l78h1_to_h2NtB4_12H1ToH2BridgeNtB6_6Bridge15bridge_responses_0B6_
FN:21,_RNvNtCsijo3INtYyGB_5lb_l78h1_to_h224connection_named_headers
FN:135,_RNvXNtCsijo3INtYyGB_5lb_l78h1_to_h2NtB2_12H1ToH2BridgeNtB4_6Bridge13dest_protocol
FN:37,_RNvXNtCsijo3INtYyGB_5lb_l78h1_to_h2NtB2_12H1ToH2BridgeNtB4_6Bridge14bridge_request
FN:99,_RNvXNtCsijo3INtYyGB_5lb_l78h1_to_h2NtB2_12H1ToH2BridgeNtB4_6Bridge15bridge_response
FN:131,_RNvXNtCsijo3INtYyGB_5lb_l78h1_to_h2NtB2_12H1ToH2BridgeNtB4_6Bridge15source_protocol
FNDA:1,_RNCNCNvNtCscRJcA2zm81b_5lb_l78h1_to_h224connection_named_headerss_00B7_
FNDA:1,_RNCNCNvNtCscRJcA2zm81b_5lb_l78h1_to_h224connection_named_headerss_0s_0B7_
FNDA:9,_RNCNvNtCscRJcA2zm81b_5lb_l78h1_to_h224connection_named_headers0B5_
FNDA:1,_RNCNvNtCscRJcA2zm81b_5lb_l78h1_to_h224connection_named_headerss_0B5_
FNDA:6,_RNCNvXNtCscRJcA2zm81b_5lb_l78h1_to_h2NtB4_12H1ToH2BridgeNtB6_6Bridge14bridge_request0B6_
FNDA:1,_RNCNvXNtCscRJcA2zm81b_5lb_l78h1_to_h2NtB4_12H1ToH2BridgeNtB6_6Bridge14bridge_requests_0B6_
FNDA:1,_RNCNvXNtCscRJcA2zm81b_5lb_l78h1_to_h2NtB4_12H1ToH2BridgeNtB6_6Bridge15bridge_response0B6_
FNDA:1,_RNCNvXNtCscRJcA2zm81b_5lb_l78h1_to_h2NtB4_12H1ToH2BridgeNtB6_6Bridge15bridge_responses_0B6_
FNDA:3,_RNvNtCscRJcA2zm81b_5lb_l78h1_to_h224connection_named_headers
FNDA:0,_RNvXNtCscRJcA2zm81b_5lb_l78h1_to_h2NtB2_12H1ToH2BridgeNtB4_6Bridge13dest_protocol
FNDA:2,_RNvXNtCscRJcA2zm81b_5lb_l78h1_to_h2NtB2_12H1ToH2BridgeNtB4_6Bridge14bridge_request
FNDA:1,_RNvXNtCscRJcA2zm81b_5lb_l78h1_to_h2NtB2_12H1ToH2BridgeNtB4_6Bridge15bridge_response
FNDA:0,_RNvXNtCscRJcA2zm81b_5lb_l78h1_to_h2NtB2_12H1ToH2BridgeNtB4_6Bridge15source_protocol
FNDA:0,_RNCNCNvNtCsijo3INtYyGB_5lb_l78h1_to_h224connection_named_headerss_00B7_
FNDA:0,_RNCNCNvNtCsijo3INtYyGB_5lb_l78h1_to_h224connection_named_headerss_0s_0B7_
FNDA:2,_RNCNvNtCsijo3INtYyGB_5lb_l78h1_to_h224connection_named_headers0B5_
FNDA:0,_RNCNvNtCsijo3INtYyGB_5lb_l78h1_to_h224connection_named_headerss_0B5_
FNDA:2,_RNCNvXNtCsijo3INtYyGB_5lb_l78h1_to_h2NtB4_12H1ToH2BridgeNtB6_6Bridge14bridge_request0B6_
FNDA:2,_RNCNvXNtCsijo3INtYyGB_5lb_l78h1_to_h2NtB4_12H1ToH2BridgeNtB6_6Bridge14bridge_requests_0B6_
FNDA:0,_RNCNvXNtCsijo3INtYyGB_5lb_l78h1_to_h2NtB4_12H1ToH2BridgeNtB6_6Bridge15bridge_response0B6_
FNDA:0,_RNCNvXNtCsijo3INtYyGB_5lb_l78h1_to_h2NtB4_12H1ToH2BridgeNtB6_6Bridge15bridge_responses_0B6_
FNDA:2,_RNvNtCsijo3INtYyGB_5lb_l78h1_to_h224connection_named_headers
FNDA:1,_RNvXNtCsijo3INtYyGB_5lb_l78h1_to_h2NtB2_12H1ToH2BridgeNtB4_6Bridge13dest_protocol
FNDA:2,_RNvXNtCsijo3INtYyGB_5lb_l78h1_to_h2NtB2_12H1ToH2BridgeNtB4_6Bridge14bridge_request
FNDA:0,_RNvXNtCsijo3INtYyGB_5lb_l78h1_to_h2NtB2_12H1ToH2BridgeNtB4_6Bridge15bridge_response
FNDA:1,_RNvXNtCsijo3INtYyGB_5lb_l78h1_to_h2NtB2_12H1ToH2BridgeNtB4_6Bridge15source_protocol
FNF:13
FNH:13
DA:21,5
DA:22,5
DA:23,5
DA:24,11
DA:25,5
DA:26,1
DA:27,1
DA:28,1
DA:29,5
DA:30,5
DA:31,5
DA:37,4
DA:38,4
DA:40,4
DA:41,4
DA:42,4
DA:43,4
DA:44,4
DA:45,4
DA:46,4
DA:47,4
DA:48,4
DA:49,8
DA:50,4
DA:51,4
DA:52,4
DA:53,4
DA:54,4
DA:55,4
DA:56,4
DA:58,4
DA:59,3
DA:60,3
DA:64,14
DA:65,10
DA:66,10
DA:67,3
DA:68,7
DA:69,7
DA:70,7
DA:71,0
DA:72,0
DA:73,0
DA:74,0
DA:75,7
DA:76,7
DA:77,1
DA:78,6
DA:79,6
DA:80,0
DA:81,6
DA:82,6
DA:85,4
DA:86,4
DA:88,4
DA:89,4
DA:90,4
DA:91,4
DA:92,4
DA:93,4
DA:94,4
DA:95,4
DA:96,4
DA:97,4
DA:99,1
DA:100,1
DA:102,1
DA:103,1
DA:104,1
DA:105,1
DA:106,1
DA:107,1
DA:108,1
DA:109,1
DA:110,0
DA:111,1
DA:112,1
DA:113,0
DA:114,1
DA:115,1
DA:116,1
DA:117,1
DA:118,1
DA:119,1
DA:120,1
DA:122,1
DA:123,1
DA:124,1
DA:125,1
DA:126,1
DA:127,1
DA:128,1
DA:129,1
DA:131,1
DA:132,1
DA:133,1
DA:135,1
DA:136,1
DA:137,1
BRF:0
BRH:0
LF:109
LH:102
end_of_record
SF:/home/ubuntu/Code/ExpressGateway/crates/lb-l7/src/h1_to_h3.rs
FN:27,_RNCNCNvNtCscRJcA2zm81b_5lb_l78h1_to_h324connection_named_headerss_00B7_
FN:28,_RNCNCNvNtCscRJcA2zm81b_5lb_l78h1_to_h324connection_named_headerss_0s_0B7_
FN:24,_RNCNvNtCscRJcA2zm81b_5lb_l78h1_to_h324connection_named_headers0B5_
FN:25,_RNCNvNtCscRJcA2zm81b_5lb_l78h1_to_h324connection_named_headerss_0B5_
FN:49,_RNCNvXNtCscRJcA2zm81b_5lb_l78h1_to_h3NtB4_12H1ToH3BridgeNtB6_6Bridge14bridge_request0B6_
FN:50,_RNCNvXNtCscRJcA2zm81b_5lb_l78h1_to_h3NtB4_12H1ToH3BridgeNtB6_6Bridge14bridge_requests_0B6_
FN:107,_RNCNvXNtCscRJcA2zm81b_5lb_l78h1_to_h3NtB4_12H1ToH3BridgeNtB6_6Bridge15bridge_response0B6_
FN:117,_RNCNvXNtCscRJcA2zm81b_5lb_l78h1_to_h3NtB4_12H1ToH3BridgeNtB6_6Bridge15bridge_responses_0B6_
FN:21,_RNvNtCscRJcA2zm81b_5lb_l78h1_to_h324connection_named_headers
FN:135,_RNvXNtCscRJcA2zm81b_5lb_l78h1_to_h3NtB2_12H1ToH3BridgeNtB4_6Bridge13dest_protocol
FN:37,_RNvXNtCscRJcA2zm81b_5lb_l78h1_to_h3NtB2_12H1ToH3BridgeNtB4_6Bridge14bridge_request
FN:99,_RNvXNtCscRJcA2zm81b_5lb_l78h1_to_h3NtB2_12H1ToH3BridgeNtB4_6Bridge15bridge_response
FN:131,_RNvXNtCscRJcA2zm81b_5lb_l78h1_to_h3NtB2_12H1ToH3BridgeNtB4_6Bridge15source_protocol
FN:27,_RNCNCNvNtCsijo3INtYyGB_5lb_l78h1_to_h324connection_named_headerss_00B7_
FN:28,_RNCNCNvNtCsijo3INtYyGB_5lb_l78h1_to_h324connection_named_headerss_0s_0B7_
FN:24,_RNCNvNtCsijo3INtYyGB_5lb_l78h1_to_h324connection_named_headers0B5_
FN:25,_RNCNvNtCsijo3INtYyGB_5lb_l78h1_to_h324connection_named_headerss_0B5_
FN:49,_RNCNvXNtCsijo3INtYyGB_5lb_l78h1_to_h3NtB4_12H1ToH3BridgeNtB6_6Bridge14bridge_request0B6_
FN:50,_RNCNvXNtCsijo3INtYyGB_5lb_l78h1_to_h3NtB4_12H1ToH3BridgeNtB6_6Bridge14bridge_requests_0B6_
FN:107,_RNCNvXNtCsijo3INtYyGB_5lb_l78h1_to_h3NtB4_12H1ToH3BridgeNtB6_6Bridge15bridge_response0B6_
FN:117,_RNCNvXNtCsijo3INtYyGB_5lb_l78h1_to_h3NtB4_12H1ToH3BridgeNtB6_6Bridge15bridge_responses_0B6_
FN:21,_RNvNtCsijo3INtYyGB_5lb_l78h1_to_h324connection_named_headers
FN:135,_RNvXNtCsijo3INtYyGB_5lb_l78h1_to_h3NtB2_12H1ToH3BridgeNtB4_6Bridge13dest_protocol
FN:37,_RNvXNtCsijo3INtYyGB_5lb_l78h1_to_h3NtB2_12H1ToH3BridgeNtB4_6Bridge14bridge_request
FN:99,_RNvXNtCsijo3INtYyGB_5lb_l78h1_to_h3NtB2_12H1ToH3BridgeNtB4_6Bridge15bridge_response
FN:131,_RNvXNtCsijo3INtYyGB_5lb_l78h1_to_h3NtB2_12H1ToH3BridgeNtB4_6Bridge15source_protocol
FNDA:1,_RNCNCNvNtCscRJcA2zm81b_5lb_l78h1_to_h324connection_named_headerss_00B7_
FNDA:1,_RNCNCNvNtCscRJcA2zm81b_5lb_l78h1_to_h324connection_named_headerss_0s_0B7_
FNDA:15,_RNCNvNtCscRJcA2zm81b_5lb_l78h1_to_h324connection_named_headers0B5_
FNDA:1,_RNCNvNtCscRJcA2zm81b_5lb_l78h1_to_h324connection_named_headerss_0B5_
FNDA:11,_RNCNvXNtCscRJcA2zm81b_5lb_l78h1_to_h3NtB4_12H1ToH3BridgeNtB6_6Bridge14bridge_request0B6_
FNDA:1,_RNCNvXNtCscRJcA2zm81b_5lb_l78h1_to_h3NtB4_12H1ToH3BridgeNtB6_6Bridge14bridge_requests_0B6_
FNDA:2,_RNCNvXNtCscRJcA2zm81b_5lb_l78h1_to_h3NtB4_12H1ToH3BridgeNtB6_6Bridge15bridge_response0B6_
FNDA:2,_RNCNvXNtCscRJcA2zm81b_5lb_l78h1_to_h3NtB4_12H1ToH3BridgeNtB6_6Bridge15bridge_responses_0B6_
FNDA:5,_RNvNtCscRJcA2zm81b_5lb_l78h1_to_h324connection_named_headers
FNDA:0,_RNvXNtCscRJcA2zm81b_5lb_l78h1_to_h3NtB2_12H1ToH3BridgeNtB4_6Bridge13dest_protocol
FNDA:3,_RNvXNtCscRJcA2zm81b_5lb_l78h1_to_h3NtB2_12H1ToH3BridgeNtB4_6Bridge14bridge_request
FNDA:2,_RNvXNtCscRJcA2zm81b_5lb_l78h1_to_h3NtB2_12H1ToH3BridgeNtB4_6Bridge15bridge_response
FNDA:0,_RNvXNtCscRJcA2zm81b_5lb_l78h1_to_h3NtB2_12H1ToH3BridgeNtB4_6Bridge15source_protocol
FNDA:0,_RNCNCNvNtCsijo3INtYyGB_5lb_l78h1_to_h324connection_named_headerss_00B7_
FNDA:0,_RNCNCNvNtCsijo3INtYyGB_5lb_l78h1_to_h324connection_named_headerss_0s_0B7_
FNDA:0,_RNCNvNtCsijo3INtYyGB_5lb_l78h1_to_h324connection_named_headers0B5_
FNDA:0,_RNCNvNtCsijo3INtYyGB_5lb_l78h1_to_h324connection_named_headerss_0B5_
FNDA:0,_RNCNvXNtCsijo3INtYyGB_5lb_l78h1_to_h3NtB4_12H1ToH3BridgeNtB6_6Bridge14bridge_request0B6_
FNDA:0,_RNCNvXNtCsijo3INtYyGB_5lb_l78h1_to_h3NtB4_12H1ToH3BridgeNtB6_6Bridge14bridge_requests_0B6_
FNDA:0,_RNCNvXNtCsijo3INtYyGB_5lb_l78h1_to_h3NtB4_12H1ToH3BridgeNtB6_6Bridge15bridge_response0B6_
FNDA:0,_RNCNvXNtCsijo3INtYyGB_5lb_l78h1_to_h3NtB4_12H1ToH3BridgeNtB6_6Bridge15bridge_responses_0B6_
FNDA:0,_RNvNtCsijo3INtYyGB_5lb_l78h1_to_h324connection_named_headers
FNDA:1,_RNvXNtCsijo3INtYyGB_5lb_l78h1_to_h3NtB2_12H1ToH3BridgeNtB4_6Bridge13dest_protocol
FNDA:0,_RNvXNtCsijo3INtYyGB_5lb_l78h1_to_h3NtB2_12H1ToH3BridgeNtB4_6Bridge14bridge_request
FNDA:0,_RNvXNtCsijo3INtYyGB_5lb_l78h1_to_h3NtB2_12H1ToH3BridgeNtB4_6Bridge15bridge_response
FNDA:1,_RNvXNtCsijo3INtYyGB_5lb_l78h1_to_h3NtB2_12H1ToH3BridgeNtB4_6Bridge15source_protocol
FNF:13
FNH:13
DA:21,5
DA:22,5
DA:23,5
DA:24,15
DA:25,5
DA:26,1
DA:27,1
DA:28,1
DA:29,5
DA:30,5
DA:31,5
DA:37,3
DA:38,3
DA:40,3
DA:41,3
DA:42,3
DA:43,3
DA:44,3
DA:45,3
DA:46,3
DA:47,3
DA:48,3
DA:49,11
DA:50,3
DA:51,3
DA:52,3
DA:53,3
DA:54,3
DA:55,3
DA:56,3
DA:58,3
DA:59,1
DA:60,2
DA:64,16
DA:65,13
DA:66,13
DA:67,1
DA:68,12
DA:69,12
DA:70,12
DA:71,0
DA:72,0
DA:73,0
DA:74,0
DA:75,12
DA:76,12
DA:77,1
DA:78,11
DA:79,11
DA:80,0
DA:81,11
DA:82,11
DA:85,3
DA:86,3
DA:88,3
DA:89,3
DA:90,3
DA:91,3
DA:92,3
DA:93,3
DA:94,3
DA:95,3
DA:96,3
DA:97,3
DA:99,2
DA:100,2
DA:102,2
DA:103,2
DA:104,2
DA:105,2
DA:106,2
DA:107,2
DA:108,2
DA:109,2
DA:110,0
DA:111,2
DA:112,2
DA:113,0
DA:114,2
DA:115,2
DA:116,2
DA:117,2
DA:118,2
DA:119,2
DA:120,2
DA:122,2
DA:123,2
DA:124,2
DA:125,2
DA:126,2
DA:127,2
DA:128,2
DA:129,2
DA:131,1
DA:132,1
DA:133,1
DA:135,1
DA:136,1
DA:137,1
BRF:0
BRH:0
LF:109
LH:102
end_of_record
SF:/home/ubuntu/Code/ExpressGateway/crates/lb-l7/src/h2_proxy.rs
FN:719,_RINvMs5_NtCscRJcA2zm81b_5lb_l78h2_proxyNtB6_7H2Proxy16serve_connectionpEB8_
FN:748,_RINvMs5_NtCscRJcA2zm81b_5lb_l78h2_proxyNtB6_7H2Proxy28serve_connection_with_cancelpEB8_
FN:771,_RINvMs5_NtCscRJcA2zm81b_5lb_l78h2_proxyNtB6_7H2Proxy32serve_connection_with_cancel_snipEB8_
FN:722,_RNCINvMs5_NtCscRJcA2zm81b_5lb_l78h2_proxyNtB8_7H2Proxy16serve_connectionpE0Ba_
FN:756,_RNCINvMs5_NtCscRJcA2zm81b_5lb_l78h2_proxyNtB8_7H2Proxy28serve_connection_with_cancelpE0Ba_
FN:780,_RNCINvMs5_NtCscRJcA2zm81b_5lb_l78h2_proxyNtB8_7H2Proxy32serve_connection_with_cancel_snipE0Ba_
FN:792,_RNCNCINvMs5_NtCscRJcA2zm81b_5lb_l78h2_proxyNtBa_7H2Proxy32serve_connection_with_cancel_snipE00Bc_
FN:793,_RNCNCNCINvMs5_NtCscRJcA2zm81b_5lb_l78h2_proxyNtBc_7H2Proxy32serve_connection_with_cancel_snipE000Be_
FN:346,_RNvMs2_NtCscRJcA2zm81b_5lb_l78h2_proxyINtB5_12CleanCloseIopE3newB7_
FN:358,_RNvXININtCscRJcA2zm81b_5lb_l78h2_proxys3_0pEINtB5_12CleanCloseIopENtNtNtCsfWKKmeeA0Vo_5tokio2io10async_read9AsyncRead9poll_readB7_
FN:376,_RNvXININtCscRJcA2zm81b_5lb_l78h2_proxys4_0pEINtB5_12CleanCloseIopENtNtNtCsfWKKmeeA0Vo_5tokio2io11async_write10AsyncWrite10poll_flushB7_
FN:368,_RNvXININtCscRJcA2zm81b_5lb_l78h2_proxys4_0pEINtB5_12CleanCloseIopENtNtNtCsfWKKmeeA0Vo_5tokio2io11async_write10AsyncWrite10poll_writeB7_
FN:380,_RNvXININtCscRJcA2zm81b_5lb_l78h2_proxys4_0pEINtB5_12CleanCloseIopENtNtNtCsfWKKmeeA0Vo_5tokio2io11async_write10AsyncWrite13poll_shutdownB7_
FN:1168,_RNCNCNCNvMs8_NtCscRJcA2zm81b_5lb_l78h2_proxyNtBb_7H2Proxy12handle_inner0s4_00Bd_
FN:1224,_RNCNCNCNvMs8_NtCscRJcA2zm81b_5lb_l78h2_proxyNtBb_7H2Proxy12handle_inner0s5_00Bd_
FN:1260,_RNCNCNCNvMs8_NtCscRJcA2zm81b_5lb_l78h2_proxyNtBb_7H2Proxy12handle_inner0s6_00Bd_
FN:1279,_RNCNCNCNvMs8_NtCscRJcA2zm81b_5lb_l78h2_proxyNtBb_7H2Proxy12handle_inner0s8_00Bd_
FN:1814,_RNCNCNCNvMs8_NtCscRJcA2zm81b_5lb_l78h2_proxyNtBb_7H2Proxy13proxy_request0s7_00Bd_
FN:1913,_RNCNCNCNvMs8_NtCscRJcA2zm81b_5lb_l78h2_proxyNtBb_7H2Proxy13proxy_request0s7_0s0_0Bd_
FN:1913,_RNCNCNCNvMs8_NtCscRJcA2zm81b_5lb_l78h2_proxyNtBb_7H2Proxy13proxy_request0s7_0s1_0Bd_
FN:1819,_RNCNCNCNvMs8_NtCscRJcA2zm81b_5lb_l78h2_proxyNtBb_7H2Proxy13proxy_request0s7_0s_0Bd_
FN:2371,_RNCNCNCNvMs8_NtCscRJcA2zm81b_5lb_l78h2_proxyNtBb_7H2Proxy22proxy_h2_to_h2_request0s1_00Bd_
FN:2433,_RNCNCNCNvMs8_NtCscRJcA2zm81b_5lb_l78h2_proxyNtBb_7H2Proxy22proxy_h2_to_h2_request0s1_0s0_0Bd_
FN:2433,_RNCNCNCNvMs8_NtCscRJcA2zm81b_5lb_l78h2_proxyNtBb_7H2Proxy22proxy_h2_to_h2_request0s1_0s1_0Bd_
FN:2376,_RNCNCNCNvMs8_NtCscRJcA2zm81b_5lb_l78h2_proxyNtBb_7H2Proxy22proxy_h2_to_h2_request0s1_0s_0Bd_
FN:1449,_RNCNCNCNvMs8_NtCscRJcA2zm81b_5lb_l78h2_proxyNtBb_7H2Proxy26handle_ws_extended_connect0s0_00Bd_
FN:1455,_RNCNCNCNvMs8_NtCscRJcA2zm81b_5lb_l78h2_proxyNtBb_7H2Proxy26handle_ws_extended_connect0s0_0s0_0Bd_
FN:1478,_RNCNCNCNvMs8_NtCscRJcA2zm81b_5lb_l78h2_proxyNtBb_7H2Proxy26handle_ws_extended_connect0s0_0s1_0Bd_
FN:1452,_RNCNCNCNvMs8_NtCscRJcA2zm81b_5lb_l78h2_proxyNtBb_7H2Proxy26handle_ws_extended_connect0s0_0s_0Bd_
FN:3292,_RNCNCNCNvNtCscRJcA2zm81b_5lb_l78h2_proxy22drive_h2_upstream_send00s_0B9_
FN:1059,_RNCNCNvMs8_NtCscRJcA2zm81b_5lb_l78h2_proxyNtB9_7H2Proxy12handle_inner00Bb_
FN:1088,_RNCNCNvMs8_NtCscRJcA2zm81b_5lb_l78h2_proxyNtB9_7H2Proxy12handle_inner0s0_0Bb_
FN:1104,_RNCNCNvMs8_NtCscRJcA2zm81b_5lb_l78h2_proxyNtB9_7H2Proxy12handle_inner0s1_0Bb_
FN:1123,_RNCNCNvMs8_NtCscRJcA2zm81b_5lb_l78h2_proxyNtB9_7H2Proxy12handle_inner0s2_0Bb_
FN:1150,_RNCNCNvMs8_NtCscRJcA2zm81b_5lb_l78h2_proxyNtB9_7H2Proxy12handle_inner0s3_0Bb_
FN:1165,_RNCNCNvMs8_NtCscRJcA2zm81b_5lb_l78h2_proxyNtB9_7H2Proxy12handle_inner0s4_0Bb_
FN:1220,_RNCNCNvMs8_NtCscRJcA2zm81b_5lb_l78h2_proxyNtB9_7H2Proxy12handle_inner0s5_0Bb_
FN:1248,_RNCNCNvMs8_NtCscRJcA2zm81b_5lb_l78h2_proxyNtB9_7H2Proxy12handle_inner0s6_0Bb_
FN:1274,_RNCNCNvMs8_NtCscRJcA2zm81b_5lb_l78h2_proxyNtB9_7H2Proxy12handle_inner0s7_0Bb_
FN:1275,_RNCNCNvMs8_NtCscRJcA2zm81b_5lb_l78h2_proxyNtB9_7H2Proxy12handle_inner0s8_0Bb_
FN:1066,_RNCNCNvMs8_NtCscRJcA2zm81b_5lb_l78h2_proxyNtB9_7H2Proxy12handle_inner0s_0Bb_
FN:1689,_RNCNCNvMs8_NtCscRJcA2zm81b_5lb_l78h2_proxyNtB9_7H2Proxy13proxy_request00Bb_
FN:1700,_RNCNCNvMs8_NtCscRJcA2zm81b_5lb_l78h2_proxyNtB9_7H2Proxy13proxy_request0s0_0Bb_
FN:1701,_RNCNCNvMs8_NtCscRJcA2zm81b_5lb_l78h2_proxyNtB9_7H2Proxy13proxy_request0s1_0Bb_
FN:1737,_RNCNCNvMs8_NtCscRJcA2zm81b_5lb_l78h2_proxyNtB9_7H2Proxy13proxy_request0s2_0Bb_
FN:1740,_RNCNCNvMs8_NtCscRJcA2zm81b_5lb_l78h2_proxyNtB9_7H2Proxy13proxy_request0s3_0Bb_
FN:1751,_RNCNCNvMs8_NtCscRJcA2zm81b_5lb_l78h2_proxyNtB9_7H2Proxy13proxy_request0s4_0Bb_
FN:1752,_RNCNCNvMs8_NtCscRJcA2zm81b_5lb_l78h2_proxyNtB9_7H2Proxy13proxy_request0s5_0Bb_
FN:1782,_RNCNCNvMs8_NtCscRJcA2zm81b_5lb_l78h2_proxyNtB9_7H2Proxy13proxy_request0s6_0Bb_
FN:1810,_RNCNCNvMs8_NtCscRJcA2zm81b_5lb_l78h2_proxyNtB9_7H2Proxy13proxy_request0s7_0Bb_
FN:2107,_RNCNCNvMs8_NtCscRJcA2zm81b_5lb_l78h2_proxyNtB9_7H2Proxy13proxy_request0s8_0Bb_
FN:1694,_RNCNCNvMs8_NtCscRJcA2zm81b_5lb_l78h2_proxyNtB9_7H2Proxy13proxy_request0s_0Bb_
FN:2665,_RNCNCNvMs8_NtCscRJcA2zm81b_5lb_l78h2_proxyNtB9_7H2Proxy14proxy_h2_to_h300Bb_
FN:2808,_RNCNCNvMs8_NtCscRJcA2zm81b_5lb_l78h2_proxyNtB9_7H2Proxy14proxy_h2_to_h30s0_0Bb_
FN:2847,_RNCNCNvMs8_NtCscRJcA2zm81b_5lb_l78h2_proxyNtB9_7H2Proxy14proxy_h2_to_h30s1_0Bb_
FN:2858,_RNCNCNvMs8_NtCscRJcA2zm81b_5lb_l78h2_proxyNtB9_7H2Proxy14proxy_h2_to_h30s2_0Bb_
FN:2860,_RNCNCNvMs8_NtCscRJcA2zm81b_5lb_l78h2_proxyNtB9_7H2Proxy14proxy_h2_to_h30s3_0Bb_
FN:2778,_RNCNCNvMs8_NtCscRJcA2zm81b_5lb_l78h2_proxyNtB9_7H2Proxy14proxy_h2_to_h30s_0Bb_
FN:2314,_RNCNCNvMs8_NtCscRJcA2zm81b_5lb_l78h2_proxyNtB9_7H2Proxy22proxy_h2_to_h2_request00Bb_
FN:2350,_RNCNCNvMs8_NtCscRJcA2zm81b_5lb_l78h2_proxyNtB9_7H2Proxy22proxy_h2_to_h2_request0s0_0Bb_
FN:2370,_RNCNCNvMs8_NtCscRJcA2zm81b_5lb_l78h2_proxyNtB9_7H2Proxy22proxy_h2_to_h2_request0s1_0Bb_
FN:2341,_RNCNCNvMs8_NtCscRJcA2zm81b_5lb_l78h2_proxyNtB9_7H2Proxy22proxy_h2_to_h2_request0s_0Bb_
FN:1430,_RNCNCNvMs8_NtCscRJcA2zm81b_5lb_l78h2_proxyNtB9_7H2Proxy26handle_ws_extended_connect00Bb_
FN:1445,_RNCNCNvMs8_NtCscRJcA2zm81b_5lb_l78h2_proxyNtB9_7H2Proxy26handle_ws_extended_connect0s0_0Bb_
FN:1514,_RNCNCNvMs8_NtCscRJcA2zm81b_5lb_l78h2_proxyNtB9_7H2Proxy26handle_ws_extended_connect0s1_0Bb_
FN:1536,_RNCNCNvMs8_NtCscRJcA2zm81b_5lb_l78h2_proxyNtB9_7H2Proxy26handle_ws_extended_connect0s3_0Bb_
FN:1435,_RNCNCNvMs8_NtCscRJcA2zm81b_5lb_l78h2_proxyNtB9_7H2Proxy26handle_ws_extended_connect0s_0Bb_
FN:3208,_RNCNCNvNtCscRJcA2zm81b_5lb_l78h2_proxy22drive_h2_upstream_send00B7_
FN:3358,_RNCNCNvNtCscRJcA2zm81b_5lb_l78h2_proxy24build_h2_to_h3_fieldlists1_00B7_
FN:3376,_RNCNCNvNtCscRJcA2zm81b_5lb_l78h2_proxy24build_h2_to_h3_fieldlists4_00B7_
FN:2921,_RNCNCNvNtCscRJcA2zm81b_5lb_l78h2_proxy31build_h2_upstream_request_partss1_00B7_
FN:2937,_RNCNCNvNtCscRJcA2zm81b_5lb_l78h2_proxy31build_h2_upstream_request_partss3_00B7_
FN:1019,_RNCNvMs8_NtCscRJcA2zm81b_5lb_l78h2_proxyNtB7_7H2Proxy12handle_inner0B9_
FN:1545,_RNCNvMs8_NtCscRJcA2zm81b_5lb_l78h2_proxyNtB7_7H2Proxy13proxy_request0B9_
FN:2180,_RNCNvMs8_NtCscRJcA2zm81b_5lb_l78h2_proxyNtB7_7H2Proxy14proxy_h2_to_h20B9_
FN:2616,_RNCNvMs8_NtCscRJcA2zm81b_5lb_l78h2_proxyNtB7_7H2Proxy14proxy_h2_to_h30B9_
FN:2155,_RNCNvMs8_NtCscRJcA2zm81b_5lb_l78h2_proxyNtB7_7H2Proxy17finalize_response0B9_
FN:2220,_RNCNvMs8_NtCscRJcA2zm81b_5lb_l78h2_proxyNtB7_7H2Proxy22proxy_h2_to_h2_request0B9_
FN:1366,_RNCNvMs8_NtCscRJcA2zm81b_5lb_l78h2_proxyNtB7_7H2Proxy26handle_ws_extended_connect0B9_
FN:987,_RNCNvMs8_NtCscRJcA2zm81b_5lb_l78h2_proxyNtB7_7H2Proxy6handle0B9_
FN:3536,_RNCNvNtCscRJcA2zm81b_5lb_l78h2_proxy15split_host_port0B5_
FN:3541,_RNCNvNtCscRJcA2zm81b_5lb_l78h2_proxy15split_host_ports_0B5_
FN:3179,_RNCNvNtCscRJcA2zm81b_5lb_l78h2_proxy22drive_h2_upstream_send0B5_
FN:3349,_RNCNvNtCscRJcA2zm81b_5lb_l78h2_proxy24build_h2_to_h3_fieldlist0B5_
FN:3353,_RNCNvNtCscRJcA2zm81b_5lb_l78h2_proxy24build_h2_to_h3_fieldlists0_0B5_
FN:3354,_RNCNvNtCscRJcA2zm81b_5lb_l78h2_proxy24build_h2_to_h3_fieldlists1_0B5_
FN:3361,_RNCNvNtCscRJcA2zm81b_5lb_l78h2_proxy24build_h2_to_h3_fieldlists2_0B5_
FN:3369,_RNCNvNtCscRJcA2zm81b_5lb_l78h2_proxy24build_h2_to_h3_fieldlists3_0B5_
FN:3373,_RNCNvNtCscRJcA2zm81b_5lb_l78h2_proxy24build_h2_to_h3_fieldlists4_0B5_
FN:3397,_RNCNvNtCscRJcA2zm81b_5lb_l78h2_proxy24build_h2_to_h3_fieldlists5_0B5_
FN:3349,_RNCNvNtCscRJcA2zm81b_5lb_l78h2_proxy24build_h2_to_h3_fieldlists_0B5_
FN:3135,_RNCNvNtCscRJcA2zm81b_5lb_l78h2_proxy26upstream_h2_response_to_h20B5_
FN:3138,_RNCNvNtCscRJcA2zm81b_5lb_l78h2_proxy26upstream_h2_response_to_h2s_0B5_
FN:3484,_RNCNvNtCscRJcA2zm81b_5lb_l78h2_proxy30check_authority_host_agreement0B5_
FN:2912,_RNCNvNtCscRJcA2zm81b_5lb_l78h2_proxy31build_h2_upstream_request_parts0B5_
FN:2916,_RNCNvNtCscRJcA2zm81b_5lb_l78h2_proxy31build_h2_upstream_request_partss0_0B5_
FN:2917,_RNCNvNtCscRJcA2zm81b_5lb_l78h2_proxy31build_h2_upstream_request_partss1_0B5_
FN:2927,_RNCNvNtCscRJcA2zm81b_5lb_l78h2_proxy31build_h2_upstream_request_partss2_0B5_
FN:2934,_RNCNvNtCscRJcA2zm81b_5lb_l78h2_proxy31build_h2_upstream_request_partss3_0B5_
FN:2964,_RNCNvNtCscRJcA2zm81b_5lb_l78h2_proxy31build_h2_upstream_request_partss4_0B5_
FN:2981,_RNCNvNtCscRJcA2zm81b_5lb_l78h2_proxy31build_h2_upstream_request_partss5_0B5_
FN:2912,_RNCNvNtCscRJcA2zm81b_5lb_l78h2_proxy31build_h2_upstream_request_partss_0B5_
FN:966,_RNCNvXs7_NtCscRJcA2zm81b_5lb_l78h2_proxyNtB7_12ProxyServiceINtNtNtCsgB3dp6qvXvn_5hyper7service7service7ServiceINtNtCsjFxw70quGA5_4http7request7RequestNtNtNtB12_4body8incoming8IncomingEE4call0B9_
FN:563,_RNvMs5_NtCscRJcA2zm81b_5lb_l78h2_proxyNtB5_7H2Proxy10with_hooks
FN:598,_RNvMs5_NtCscRJcA2zm81b_5lb_l78h2_proxyNtB5_7H2Proxy13with_glitches
FN:489,_RNvMs5_NtCscRJcA2zm81b_5lb_l78h2_proxyNtB5_7H2Proxy13with_security
FN:574,_RNvMs5_NtCscRJcA2zm81b_5lb_l78h2_proxyNtB5_7H2Proxy13with_watchdog
FN:676,_RNvMs5_NtCscRJcA2zm81b_5lb_l78h2_proxyNtB5_7H2Proxy14with_websocket
FN:657,_RNvMs5_NtCscRJcA2zm81b_5lb_l78h2_proxyNtB5_7H2Proxy15has_h2_upstream
FN:664,_RNvMs5_NtCscRJcA2zm81b_5lb_l78h2_proxyNtB5_7H2Proxy15has_h3_upstream
FN:641,_RNvMs5_NtCscRJcA2zm81b_5lb_l78h2_proxyNtB5_7H2Proxy16with_h2_upstream
FN:649,_RNvMs5_NtCscRJcA2zm81b_5lb_l78h2_proxyNtB5_7H2Proxy16with_h3_upstream
FN:528,_RNvMs5_NtCscRJcA2zm81b_5lb_l78h2_proxyNtB5_7H2Proxy16with_multi_proto
FN:619,_RNvMs5_NtCscRJcA2zm81b_5lb_l78h2_proxyNtB5_7H2Proxy17with_expected_sni
FN:687,_RNvMs5_NtCscRJcA2zm81b_5lb_l78h2_proxyNtB5_7H2Proxy24with_h2_extended_connect
FN:630,_RNvMs5_NtCscRJcA2zm81b_5lb_l78h2_proxyNtB5_7H2Proxy29with_header_underscore_policy
FN:467,_RNvMs5_NtCscRJcA2zm81b_5lb_l78h2_proxyNtB5_7H2Proxy3new
FN:701,_RNvMs5_NtCscRJcA2zm81b_5lb_l78h2_proxyNtB5_7H2Proxy9with_grpc
FN:913,_RNvMs6_NtCscRJcA2zm81b_5lb_l78h2_proxyNtB5_15GlitchConnState6record
FN:1013,_RNvMs8_NtCscRJcA2zm81b_5lb_l78h2_proxyNtB5_7H2Proxy12handle_inner
FN:1541,_RNvMs8_NtCscRJcA2zm81b_5lb_l78h2_proxyNtB5_7H2Proxy13proxy_request
FN:2176,_RNvMs8_NtCscRJcA2zm81b_5lb_l78h2_proxyNtB5_7H2Proxy14proxy_h2_to_h2
FN:2612,_RNvMs8_NtCscRJcA2zm81b_5lb_l78h2_proxyNtB5_7H2Proxy14proxy_h2_to_h3
FN:2144,_RNvMs8_NtCscRJcA2zm81b_5lb_l78h2_proxyNtB5_7H2Proxy17finalize_response
FN:2215,_RNvMs8_NtCscRJcA2zm81b_5lb_l78h2_proxyNtB5_7H2Proxy22proxy_h2_to_h2_request
FN:1363,_RNvMs8_NtCscRJcA2zm81b_5lb_l78h2_proxyNtB5_7H2Proxy26handle_ws_extended_connect
FN:981,_RNvMs8_NtCscRJcA2zm81b_5lb_l78h2_proxyNtB5_7H2Proxy6handle
FN:3050,_RNvNtCscRJcA2zm81b_5lb_l78h2_proxy13concat_chunks
FN:3453,_RNvNtCscRJcA2zm81b_5lb_l78h2_proxy14error_response
FN:3565,_RNvNtCscRJcA2zm81b_5lb_l78h2_proxy15record_retained
FN:3529,_RNvNtCscRJcA2zm81b_5lb_l78h2_proxy15split_host_port
FN:3508,_RNvNtCscRJcA2zm81b_5lb_l78h2_proxy22authority_matches_host
FN:3167,_RNvNtCscRJcA2zm81b_5lb_l78h2_proxy22drive_h2_upstream_send
FN:3342,_RNvNtCscRJcA2zm81b_5lb_l78h2_proxy24build_h2_to_h3_fieldlist
FN:3028,_RNvNtCscRJcA2zm81b_5lb_l78h2_proxy25validate_request_trailers
FN:3106,_RNvNtCscRJcA2zm81b_5lb_l78h2_proxy26upstream_h2_response_to_h2
FN:3061,_RNvNtCscRJcA2zm81b_5lb_l78h2_proxy27build_h2_body_with_trailers
FN:3411,_RNvNtCscRJcA2zm81b_5lb_l78h2_proxy28h2_decoded_resp_head_builder
FN:3477,_RNvNtCscRJcA2zm81b_5lb_l78h2_proxy30check_authority_host_agreement
FN:2905,_RNvNtCscRJcA2zm81b_5lb_l78h2_proxy31build_h2_upstream_request_parts
FN:111,_RNvXNtCscRJcA2zm81b_5lb_l78h2_proxyNtB2_9PumpAbortNtNtCs2va5m0jqTTM_4core3fmt7Display3fmt
FN:132,_RNvXs0_NtCscRJcA2zm81b_5lb_l78h2_proxyNtB5_11H2RespAbortNtNtCs2va5m0jqTTM_4core3fmt7Display3fmt
FN:961,_RNvXs7_NtCscRJcA2zm81b_5lb_l78h2_proxyNtB5_12ProxyServiceINtNtNtCsgB3dp6qvXvn_5hyper7service7service7ServiceINtNtCsjFxw70quGA5_4http7request7RequestNtNtNtB10_4body8incoming8IncomingEE4call
FN:771,_RINvMs5_NtCscRJcA2zm81b_5lb_l78h2_proxyNtB6_7H2Proxy32serve_connection_with_cancel_sniINtNtCs7m3feRqGqA4_12tokio_rustls6server9TlsStreamNtNtNtNtCsfWKKmeeA0Vo_5tokio3net3tcp6stream9TcpStreamEECsg9xlZenf2AU_14expressgateway
FN:780,_RNCINvMs5_NtCscRJcA2zm81b_5lb_l78h2_proxyNtB8_7H2Proxy32serve_connection_with_cancel_sniINtNtCs7m3feRqGqA4_12tokio_rustls6server9TlsStreamNtNtNtNtCsfWKKmeeA0Vo_5tokio3net3tcp6stream9TcpStreamEE0Csg9xlZenf2AU_14expressgateway
FN:792,_RNCNCINvMs5_NtCscRJcA2zm81b_5lb_l78h2_proxyNtBa_7H2Proxy32serve_connection_with_cancel_sniINtNtCs7m3feRqGqA4_12tokio_rustls6server9TlsStreamNtNtNtNtCsfWKKmeeA0Vo_5tokio3net3tcp6stream9TcpStreamEE00Csg9xlZenf2AU_14expressgateway
FN:793,_RNCNCNCINvMs5_NtCscRJcA2zm81b_5lb_l78h2_proxyNtBc_7H2Proxy32serve_connection_with_cancel_sniINtNtCs7m3feRqGqA4_12tokio_rustls6server9TlsStreamNtNtNtNtCsfWKKmeeA0Vo_5tokio3net3tcp6stream9TcpStreamEE000Csg9xlZenf2AU_14expressgateway
FN:346,_RNvMs2_NtCscRJcA2zm81b_5lb_l78h2_proxyINtB5_12CleanCloseIoINtNtCs7m3feRqGqA4_12tokio_rustls6server9TlsStreamNtNtNtNtCsfWKKmeeA0Vo_5tokio3net3tcp6stream9TcpStreamEE3newCsg9xlZenf2AU_14expressgateway
FN:358,_RNvXs3_NtCscRJcA2zm81b_5lb_l78h2_proxyINtB5_12CleanCloseIoINtNtCs7m3feRqGqA4_12tokio_rustls6server9TlsStreamNtNtNtNtCsfWKKmeeA0Vo_5tokio3net3tcp6stream9TcpStreamEENtNtNtB1Q_2io10async_read9AsyncRead9poll_readCsg9xlZenf2AU_14expressgateway
FN:376,_RNvXs4_NtCscRJcA2zm81b_5lb_l78h2_proxyINtB5_12CleanCloseIoINtNtCs7m3feRqGqA4_12tokio_rustls6server9TlsStreamNtNtNtNtCsfWKKmeeA0Vo_5tokio3net3tcp6stream9TcpStreamEENtNtNtB1Q_2io11async_write10AsyncWrite10poll_flushCsg9xlZenf2AU_14expressgateway
FN:368,_RNvXs4_NtCscRJcA2zm81b_5lb_l78h2_proxyINtB5_12CleanCloseIoINtNtCs7m3feRqGqA4_12tokio_rustls6server9TlsStreamNtNtNtNtCsfWKKmeeA0Vo_5tokio3net3tcp6stream9TcpStreamEENtNtNtB1Q_2io11async_write10AsyncWrite10poll_writeCsg9xlZenf2AU_14expressgateway
FN:380,_RNvXs4_NtCscRJcA2zm81b_5lb_l78h2_proxyINtB5_12CleanCloseIoINtNtCs7m3feRqGqA4_12tokio_rustls6server9TlsStreamNtNtNtNtCsfWKKmeeA0Vo_5tokio3net3tcp6stream9TcpStreamEENtNtNtB1Q_2io11async_write10AsyncWrite13poll_shutdownCsg9xlZenf2AU_14expressgateway
FN:3867,_RNCNvNtNtCsijo3INtYyGB_5lb_l78h2_proxy5testss_31clean_close_io_drain_is_bounded0B7_
FN:3696,_RNCNvNtNtCsijo3INtYyGB_5lb_l78h2_proxy5testss_34test_sigterm_emits_two_step_goaway0B7_
FN:3932,_RNCNvNtNtCsijo3INtYyGB_5lb_l78h2_proxy5testss_53clean_close_io_does_not_resolve_while_peer_still_open0B7_
FN:3834,_RNCNvNtNtCsijo3INtYyGB_5lb_l78h2_proxy5testss_53clean_close_io_drains_inbound_to_eof_before_resolving0B7_
FN:489,_RNvMs5_NtCsijo3INtYyGB_5lb_l78h2_proxyNtB5_7H2Proxy13with_security
FN:467,_RNvMs5_NtCsijo3INtYyGB_5lb_l78h2_proxyNtB5_7H2Proxy3new
FN:913,_RNvMs6_NtCsijo3INtYyGB_5lb_l78h2_proxyNtB5_15GlitchConnState6record
FN:1013,_RNvMs8_NtCsijo3INtYyGB_5lb_l78h2_proxyNtB5_7H2Proxy12handle_inner
FN:1541,_RNvMs8_NtCsijo3INtYyGB_5lb_l78h2_proxyNtB5_7H2Proxy13proxy_request
FN:2176,_RNvMs8_NtCsijo3INtYyGB_5lb_l78h2_proxyNtB5_7H2Proxy14proxy_h2_to_h2
FN:2612,_RNvMs8_NtCsijo3INtYyGB_5lb_l78h2_proxyNtB5_7H2Proxy14proxy_h2_to_h3
FN:2144,_RNvMs8_NtCsijo3INtYyGB_5lb_l78h2_proxyNtB5_7H2Proxy17finalize_response
FN:2215,_RNvMs8_NtCsijo3INtYyGB_5lb_l78h2_proxyNtB5_7H2Proxy22proxy_h2_to_h2_request
FN:1363,_RNvMs8_NtCsijo3INtYyGB_5lb_l78h2_proxyNtB5_7H2Proxy26handle_ws_extended_connect
FN:981,_RNvMs8_NtCsijo3INtYyGB_5lb_l78h2_proxyNtB5_7H2Proxy6handle
FN:3050,_RNvNtCsijo3INtYyGB_5lb_l78h2_proxy13concat_chunks
FN:3453,_RNvNtCsijo3INtYyGB_5lb_l78h2_proxy14error_response
FN:3565,_RNvNtCsijo3INtYyGB_5lb_l78h2_proxy15record_retained
FN:3529,_RNvNtCsijo3INtYyGB_5lb_l78h2_proxy15split_host_port
FN:3508,_RNvNtCsijo3INtYyGB_5lb_l78h2_proxy22authority_matches_host
FN:3167,_RNvNtCsijo3INtYyGB_5lb_l78h2_proxy22drive_h2_upstream_send
FN:3342,_RNvNtCsijo3INtYyGB_5lb_l78h2_proxy24build_h2_to_h3_fieldlist
FN:3028,_RNvNtCsijo3INtYyGB_5lb_l78h2_proxy25validate_request_trailers
FN:3106,_RNvNtCsijo3INtYyGB_5lb_l78h2_proxy26upstream_h2_response_to_h2
FN:3061,_RNvNtCsijo3INtYyGB_5lb_l78h2_proxy27build_h2_body_with_trailers
FN:3411,_RNvNtCsijo3INtYyGB_5lb_l78h2_proxy28h2_decoded_resp_head_builder
FN:3477,_RNvNtCsijo3INtYyGB_5lb_l78h2_proxy30check_authority_host_agreement
FN:2905,_RNvNtCsijo3INtYyGB_5lb_l78h2_proxy31build_h2_upstream_request_parts
FN:3003,_RNvNtCsijo3INtYyGB_5lb_l78h2_proxy41capture_request_trailers_rejecting_pseudo
FN:111,_RNvXNtCsijo3INtYyGB_5lb_l78h2_proxyNtB2_9PumpAbortNtNtCs2va5m0jqTTM_4core3fmt7Display3fmt
FN:132,_RNvXs0_NtCsijo3INtYyGB_5lb_l78h2_proxyNtB5_11H2RespAbortNtNtCs2va5m0jqTTM_4core3fmt7Display3fmt
FN:961,_RNvXs7_NtCsijo3INtYyGB_5lb_l78h2_proxyNtB5_12ProxyServiceINtNtNtCsgB3dp6qvXvn_5hyper7service7service7ServiceINtNtCsjFxw70quGA5_4http7request7RequestNtNtNtB10_4body8incoming8IncomingEE4call
FN:719,_RINvMs5_NtCsijo3INtYyGB_5lb_l78h2_proxyNtB6_7H2Proxy16serve_connectionpEB8_
FN:722,_RNCINvMs5_NtCsijo3INtYyGB_5lb_l78h2_proxyNtB8_7H2Proxy16serve_connectionpE0Ba_
FN:563,_RNvMs5_NtCsijo3INtYyGB_5lb_l78h2_proxyNtB5_7H2Proxy10with_hooks
FN:598,_RNvMs5_NtCsijo3INtYyGB_5lb_l78h2_proxyNtB5_7H2Proxy13with_glitches
FN:574,_RNvMs5_NtCsijo3INtYyGB_5lb_l78h2_proxyNtB5_7H2Proxy13with_watchdog
FN:676,_RNvMs5_NtCsijo3INtYyGB_5lb_l78h2_proxyNtB5_7H2Proxy14with_websocket
FN:657,_RNvMs5_NtCsijo3INtYyGB_5lb_l78h2_proxyNtB5_7H2Proxy15has_h2_upstream
FN:664,_RNvMs5_NtCsijo3INtYyGB_5lb_l78h2_proxyNtB5_7H2Proxy15has_h3_upstream
FN:641,_RNvMs5_NtCsijo3INtYyGB_5lb_l78h2_proxyNtB5_7H2Proxy16with_h2_upstream
FN:649,_RNvMs5_NtCsijo3INtYyGB_5lb_l78h2_proxyNtB5_7H2Proxy16with_h3_upstream
FN:528,_RNvMs5_NtCsijo3INtYyGB_5lb_l78h2_proxyNtB5_7H2Proxy16with_multi_proto
FN:619,_RNvMs5_NtCsijo3INtYyGB_5lb_l78h2_proxyNtB5_7H2Proxy17with_expected_sni
FN:687,_RNvMs5_NtCsijo3INtYyGB_5lb_l78h2_proxyNtB5_7H2Proxy24with_h2_extended_connect
FN:630,_RNvMs5_NtCsijo3INtYyGB_5lb_l78h2_proxyNtB5_7H2Proxy29with_header_underscore_policy
FN:701,_RNvMs5_NtCsijo3INtYyGB_5lb_l78h2_proxyNtB5_7H2Proxy9with_grpc
FN:3979,_RNvXs0_NCNvNtNtCsijo3INtYyGB_5lb_l78h2_proxy5testss_53clean_close_io_does_not_resolve_while_peer_still_open0NtB5_6SharedNtNtNtCsfWKKmeeA0Vo_5tokio2io11async_write10AsyncWrite10poll_flush
FN:3972,_RNvXs0_NCNvNtNtCsijo3INtYyGB_5lb_l78h2_proxy5testss_53clean_close_io_does_not_resolve_while_peer_still_open0NtB5_6SharedNtNtNtCsfWKKmeeA0Vo_5tokio2io11async_write10AsyncWrite10poll_write
FN:3812,_RNvXs0_NtNtCsijo3INtYyGB_5lb_l78h2_proxy5testsNtB5_5ProbeNtNtNtCsfWKKmeeA0Vo_5tokio2io11async_write10AsyncWrite10poll_flush
FN:3805,_RNvXs0_NtNtCsijo3INtYyGB_5lb_l78h2_proxy5testsNtB5_5ProbeNtNtNtCsfWKKmeeA0Vo_5tokio2io11async_write10AsyncWrite10poll_write
FN:3895,_RNvXs_NCNvNtNtCsijo3INtYyGB_5lb_l78h2_proxy5testss_31clean_close_io_drain_is_bounded0NtB4_9EndlessIoNtNtNtCsfWKKmeeA0Vo_5tokio2io11async_write10AsyncWrite10poll_flush
FN:3888,_RNvXs_NCNvNtNtCsijo3INtYyGB_5lb_l78h2_proxy5testss_31clean_close_io_drain_is_bounded0NtB4_9EndlessIoNtNtNtCsfWKKmeeA0Vo_5tokio2io11async_write10AsyncWrite10poll_write
FN:3773,_RNvMNtNtCsijo3INtYyGB_5lb_l78h2_proxy5testsNtB2_5Probe3new
FN:3588,_RNvNtNtCsijo3INtYyGB_5lb_l78h2_proxy5tests8map_with
FN:3678,_RNvNtNtCsijo3INtYyGB_5lb_l78h2_proxy5testss_21h2_proxy_xff_appended
FN:3640,_RNvNtNtCsijo3INtYyGB_5lb_l78h2_proxy5testss_25h2_proxy_alt_svc_injected
FN:3656,_RNvNtNtCsijo3INtYyGB_5lb_l78h2_proxy5testss_28h2_proxy_hop_by_hop_stripped
FN:3606,_RNvNtNtCsijo3INtYyGB_5lb_l78h2_proxy5testss_30h2_req_window_constants_pinned
FN:3867,_RNvNtNtCsijo3INtYyGB_5lb_l78h2_proxy5testss_31clean_close_io_drain_is_bounded
FN:3696,_RNvNtNtCsijo3INtYyGB_5lb_l78h2_proxy5testss_34test_sigterm_emits_two_step_goaway
FN:4066,_RNvNtNtCsijo3INtYyGB_5lb_l78h2_proxy5testss_38capture_request_trailers_accepts_valid
FN:3627,_RNvNtNtCsijo3INtYyGB_5lb_l78h2_proxy5testss_38h2_req_record_retained_is_monotone_max
FN:3932,_RNvNtNtCsijo3INtYyGB_5lb_l78h2_proxy5testss_53clean_close_io_does_not_resolve_while_peer_still_open
FN:3834,_RNvNtNtCsijo3INtYyGB_5lb_l78h2_proxy5testss_53clean_close_io_drains_inbound_to_eof_before_resolving
FN:3875,_RNvXNCNvNtNtCsijo3INtYyGB_5lb_l78h2_proxy5testss_31clean_close_io_drain_is_bounded0NtB2_9EndlessIoNtNtNtCsfWKKmeeA0Vo_5tokio2io10async_read9AsyncRead9poll_read
FN:3947,_RNvXNCNvNtNtCsijo3INtYyGB_5lb_l78h2_proxy5testss_53clean_close_io_does_not_resolve_while_peer_still_open0NtB2_8NoopWakeNtNtCs8GO9KFlE3Dq_5alloc4task4Wake4wake
FN:3982,_RNvXs0_NCNvNtNtCsijo3INtYyGB_5lb_l78h2_proxy5testss_53clean_close_io_does_not_resolve_while_peer_still_open0NtB5_6SharedNtNtNtCsfWKKmeeA0Vo_5tokio2io11async_write10AsyncWrite13poll_shutdown
FN:3815,_RNvXs0_NtNtCsijo3INtYyGB_5lb_l78h2_proxy5testsNtB5_5ProbeNtNtNtCsfWKKmeeA0Vo_5tokio2io11async_write10AsyncWrite13poll_shutdown
FN:3898,_RNvXs_NCNvNtNtCsijo3INtYyGB_5lb_l78h2_proxy5testss_31clean_close_io_drain_is_bounded0NtB4_9EndlessIoNtNtNtCsfWKKmeeA0Vo_5tokio2io11async_write10AsyncWrite13poll_shutdown
FN:3956,_RNvXs_NCNvNtNtCsijo3INtYyGB_5lb_l78h2_proxy5testss_53clean_close_io_does_not_resolve_while_peer_still_open0NtB4_6SharedNtNtNtCsfWKKmeeA0Vo_5tokio2io10async_read9AsyncRead9poll_read
FN:3785,_RNvXs_NtNtCsijo3INtYyGB_5lb_l78h2_proxy5testsNtB4_5ProbeNtNtNtCsfWKKmeeA0Vo_5tokio2io10async_read9AsyncRead9poll_read
FN:748,_RINvMs5_NtCsijo3INtYyGB_5lb_l78h2_proxyNtB6_7H2Proxy28serve_connection_with_cancelNtNtNtNtCsfWKKmeeA0Vo_5tokio2io4util3mem12DuplexStreamEB8_
FN:771,_RINvMs5_NtCsijo3INtYyGB_5lb_l78h2_proxyNtB6_7H2Proxy32serve_connection_with_cancel_sniNtNtNtNtCsfWKKmeeA0Vo_5tokio2io4util3mem12DuplexStreamEB8_
FN:756,_RNCINvMs5_NtCsijo3INtYyGB_5lb_l78h2_proxyNtB8_7H2Proxy28serve_connection_with_cancelNtNtNtNtCsfWKKmeeA0Vo_5tokio2io4util3mem12DuplexStreamE0Ba_
FN:780,_RNCINvMs5_NtCsijo3INtYyGB_5lb_l78h2_proxyNtB8_7H2Proxy32serve_connection_with_cancel_sniNtNtNtNtCsfWKKmeeA0Vo_5tokio2io4util3mem12DuplexStreamE0Ba_
FN:792,_RNCNCINvMs5_NtCsijo3INtYyGB_5lb_l78h2_proxyNtBa_7H2Proxy32serve_connection_with_cancel_sniNtNtNtNtCsfWKKmeeA0Vo_5tokio2io4util3mem12DuplexStreamE00Bc_
FN:793,_RNCNCNCINvMs5_NtCsijo3INtYyGB_5lb_l78h2_proxyNtBc_7H2Proxy32serve_connection_with_cancel_sniNtNtNtNtCsfWKKmeeA0Vo_5tokio2io4util3mem12DuplexStreamE000Be_
FN:1168,_RNCNCNCNvMs8_NtCsijo3INtYyGB_5lb_l78h2_proxyNtBb_7H2Proxy12handle_inner0s4_00Bd_
FN:1224,_RNCNCNCNvMs8_NtCsijo3INtYyGB_5lb_l78h2_proxyNtBb_7H2Proxy12handle_inner0s5_00Bd_
FN:1260,_RNCNCNCNvMs8_NtCsijo3INtYyGB_5lb_l78h2_proxyNtBb_7H2Proxy12handle_inner0s6_00Bd_
FN:1279,_RNCNCNCNvMs8_NtCsijo3INtYyGB_5lb_l78h2_proxyNtBb_7H2Proxy12handle_inner0s8_00Bd_
FN:1814,_RNCNCNCNvMs8_NtCsijo3INtYyGB_5lb_l78h2_proxyNtBb_7H2Proxy13proxy_request0s7_00Bd_
FN:1913,_RNCNCNCNvMs8_NtCsijo3INtYyGB_5lb_l78h2_proxyNtBb_7H2Proxy13proxy_request0s7_0s0_0Bd_
FN:1913,_RNCNCNCNvMs8_NtCsijo3INtYyGB_5lb_l78h2_proxyNtBb_7H2Proxy13proxy_request0s7_0s1_0Bd_
FN:1819,_RNCNCNCNvMs8_NtCsijo3INtYyGB_5lb_l78h2_proxyNtBb_7H2Proxy13proxy_request0s7_0s_0Bd_
FN:2371,_RNCNCNCNvMs8_NtCsijo3INtYyGB_5lb_l78h2_proxyNtBb_7H2Proxy22proxy_h2_to_h2_request0s1_00Bd_
FN:2433,_RNCNCNCNvMs8_NtCsijo3INtYyGB_5lb_l78h2_proxyNtBb_7H2Proxy22proxy_h2_to_h2_request0s1_0s0_0Bd_
FN:2433,_RNCNCNCNvMs8_NtCsijo3INtYyGB_5lb_l78h2_proxyNtBb_7H2Proxy22proxy_h2_to_h2_request0s1_0s1_0Bd_
FN:2376,_RNCNCNCNvMs8_NtCsijo3INtYyGB_5lb_l78h2_proxyNtBb_7H2Proxy22proxy_h2_to_h2_request0s1_0s_0Bd_
FN:1449,_RNCNCNCNvMs8_NtCsijo3INtYyGB_5lb_l78h2_proxyNtBb_7H2Proxy26handle_ws_extended_connect0s0_00Bd_
FN:1455,_RNCNCNCNvMs8_NtCsijo3INtYyGB_5lb_l78h2_proxyNtBb_7H2Proxy26handle_ws_extended_connect0s0_0s0_0Bd_
FN:1478,_RNCNCNCNvMs8_NtCsijo3INtYyGB_5lb_l78h2_proxyNtBb_7H2Proxy26handle_ws_extended_connect0s0_0s1_0Bd_
FN:1452,_RNCNCNCNvMs8_NtCsijo3INtYyGB_5lb_l78h2_proxyNtBb_7H2Proxy26handle_ws_extended_connect0s0_0s_0Bd_
FN:3292,_RNCNCNCNvNtCsijo3INtYyGB_5lb_l78h2_proxy22drive_h2_upstream_send00s_0B9_
FN:1059,_RNCNCNvMs8_NtCsijo3INtYyGB_5lb_l78h2_proxyNtB9_7H2Proxy12handle_inner00Bb_
FN:1088,_RNCNCNvMs8_NtCsijo3INtYyGB_5lb_l78h2_proxyNtB9_7H2Proxy12handle_inner0s0_0Bb_
FN:1104,_RNCNCNvMs8_NtCsijo3INtYyGB_5lb_l78h2_proxyNtB9_7H2Proxy12handle_inner0s1_0Bb_
FN:1123,_RNCNCNvMs8_NtCsijo3INtYyGB_5lb_l78h2_proxyNtB9_7H2Proxy12handle_inner0s2_0Bb_
FN:1150,_RNCNCNvMs8_NtCsijo3INtYyGB_5lb_l78h2_proxyNtB9_7H2Proxy12handle_inner0s3_0Bb_
FN:1165,_RNCNCNvMs8_NtCsijo3INtYyGB_5lb_l78h2_proxyNtB9_7H2Proxy12handle_inner0s4_0Bb_
FN:1220,_RNCNCNvMs8_NtCsijo3INtYyGB_5lb_l78h2_proxyNtB9_7H2Proxy12handle_inner0s5_0Bb_
FN:1248,_RNCNCNvMs8_NtCsijo3INtYyGB_5lb_l78h2_proxyNtB9_7H2Proxy12handle_inner0s6_0Bb_
FN:1274,_RNCNCNvMs8_NtCsijo3INtYyGB_5lb_l78h2_proxyNtB9_7H2Proxy12handle_inner0s7_0Bb_
FN:1275,_RNCNCNvMs8_NtCsijo3INtYyGB_5lb_l78h2_proxyNtB9_7H2Proxy12handle_inner0s8_0Bb_
FN:1066,_RNCNCNvMs8_NtCsijo3INtYyGB_5lb_l78h2_proxyNtB9_7H2Proxy12handle_inner0s_0Bb_
FN:1689,_RNCNCNvMs8_NtCsijo3INtYyGB_5lb_l78h2_proxyNtB9_7H2Proxy13proxy_request00Bb_
FN:1700,_RNCNCNvMs8_NtCsijo3INtYyGB_5lb_l78h2_proxyNtB9_7H2Proxy13proxy_request0s0_0Bb_
FN:1701,_RNCNCNvMs8_NtCsijo3INtYyGB_5lb_l78h2_proxyNtB9_7H2Proxy13proxy_request0s1_0Bb_
FN:1737,_RNCNCNvMs8_NtCsijo3INtYyGB_5lb_l78h2_proxyNtB9_7H2Proxy13proxy_request0s2_0Bb_
FN:1740,_RNCNCNvMs8_NtCsijo3INtYyGB_5lb_l78h2_proxyNtB9_7H2Proxy13proxy_request0s3_0Bb_
FN:1751,_RNCNCNvMs8_NtCsijo3INtYyGB_5lb_l78h2_proxyNtB9_7H2Proxy13proxy_request0s4_0Bb_
FN:1752,_RNCNCNvMs8_NtCsijo3INtYyGB_5lb_l78h2_proxyNtB9_7H2Proxy13proxy_request0s5_0Bb_
FN:1782,_RNCNCNvMs8_NtCsijo3INtYyGB_5lb_l78h2_proxyNtB9_7H2Proxy13proxy_request0s6_0Bb_
FN:1810,_RNCNCNvMs8_NtCsijo3INtYyGB_5lb_l78h2_proxyNtB9_7H2Proxy13proxy_request0s7_0Bb_
FN:2107,_RNCNCNvMs8_NtCsijo3INtYyGB_5lb_l78h2_proxyNtB9_7H2Proxy13proxy_request0s8_0Bb_
FN:1694,_RNCNCNvMs8_NtCsijo3INtYyGB_5lb_l78h2_proxyNtB9_7H2Proxy13proxy_request0s_0Bb_
FN:2665,_RNCNCNvMs8_NtCsijo3INtYyGB_5lb_l78h2_proxyNtB9_7H2Proxy14proxy_h2_to_h300Bb_
FN:2808,_RNCNCNvMs8_NtCsijo3INtYyGB_5lb_l78h2_proxyNtB9_7H2Proxy14proxy_h2_to_h30s0_0Bb_
FN:2847,_RNCNCNvMs8_NtCsijo3INtYyGB_5lb_l78h2_proxyNtB9_7H2Proxy14proxy_h2_to_h30s1_0Bb_
FN:2858,_RNCNCNvMs8_NtCsijo3INtYyGB_5lb_l78h2_proxyNtB9_7H2Proxy14proxy_h2_to_h30s2_0Bb_
FN:2860,_RNCNCNvMs8_NtCsijo3INtYyGB_5lb_l78h2_proxyNtB9_7H2Proxy14proxy_h2_to_h30s3_0Bb_
FN:2778,_RNCNCNvMs8_NtCsijo3INtYyGB_5lb_l78h2_proxyNtB9_7H2Proxy14proxy_h2_to_h30s_0Bb_
FN:2314,_RNCNCNvMs8_NtCsijo3INtYyGB_5lb_l78h2_proxyNtB9_7H2Proxy22proxy_h2_to_h2_request00Bb_
FN:2350,_RNCNCNvMs8_NtCsijo3INtYyGB_5lb_l78h2_proxyNtB9_7H2Proxy22proxy_h2_to_h2_request0s0_0Bb_
FN:2370,_RNCNCNvMs8_NtCsijo3INtYyGB_5lb_l78h2_proxyNtB9_7H2Proxy22proxy_h2_to_h2_request0s1_0Bb_
FN:2341,_RNCNCNvMs8_NtCsijo3INtYyGB_5lb_l78h2_proxyNtB9_7H2Proxy22proxy_h2_to_h2_request0s_0Bb_
FN:1430,_RNCNCNvMs8_NtCsijo3INtYyGB_5lb_l78h2_proxyNtB9_7H2Proxy26handle_ws_extended_connect00Bb_
FN:1445,_RNCNCNvMs8_NtCsijo3INtYyGB_5lb_l78h2_proxyNtB9_7H2Proxy26handle_ws_extended_connect0s0_0Bb_
FN:1514,_RNCNCNvMs8_NtCsijo3INtYyGB_5lb_l78h2_proxyNtB9_7H2Proxy26handle_ws_extended_connect0s1_0Bb_
FN:1536,_RNCNCNvMs8_NtCsijo3INtYyGB_5lb_l78h2_proxyNtB9_7H2Proxy26handle_ws_extended_connect0s3_0Bb_
FN:1435,_RNCNCNvMs8_NtCsijo3INtYyGB_5lb_l78h2_proxyNtB9_7H2Proxy26handle_ws_extended_connect0s_0Bb_
FN:3208,_RNCNCNvNtCsijo3INtYyGB_5lb_l78h2_proxy22drive_h2_upstream_send00B7_
FN:3358,_RNCNCNvNtCsijo3INtYyGB_5lb_l78h2_proxy24build_h2_to_h3_fieldlists1_00B7_
FN:3376,_RNCNCNvNtCsijo3INtYyGB_5lb_l78h2_proxy24build_h2_to_h3_fieldlists4_00B7_
FN:2921,_RNCNCNvNtCsijo3INtYyGB_5lb_l78h2_proxy31build_h2_upstream_request_partss1_00B7_
FN:2937,_RNCNCNvNtCsijo3INtYyGB_5lb_l78h2_proxy31build_h2_upstream_request_partss3_00B7_
FN:1019,_RNCNvMs8_NtCsijo3INtYyGB_5lb_l78h2_proxyNtB7_7H2Proxy12handle_inner0B9_
FN:1545,_RNCNvMs8_NtCsijo3INtYyGB_5lb_l78h2_proxyNtB7_7H2Proxy13proxy_request0B9_
FN:2180,_RNCNvMs8_NtCsijo3INtYyGB_5lb_l78h2_proxyNtB7_7H2Proxy14proxy_h2_to_h20B9_
FN:2616,_RNCNvMs8_NtCsijo3INtYyGB_5lb_l78h2_proxyNtB7_7H2Proxy14proxy_h2_to_h30B9_
FN:2155,_RNCNvMs8_NtCsijo3INtYyGB_5lb_l78h2_proxyNtB7_7H2Proxy17finalize_response0B9_
FN:2220,_RNCNvMs8_NtCsijo3INtYyGB_5lb_l78h2_proxyNtB7_7H2Proxy22proxy_h2_to_h2_request0B9_
FN:1366,_RNCNvMs8_NtCsijo3INtYyGB_5lb_l78h2_proxyNtB7_7H2Proxy26handle_ws_extended_connect0B9_
FN:987,_RNCNvMs8_NtCsijo3INtYyGB_5lb_l78h2_proxyNtB7_7H2Proxy6handle0B9_
FN:3536,_RNCNvNtCsijo3INtYyGB_5lb_l78h2_proxy15split_host_port0B5_
FN:3541,_RNCNvNtCsijo3INtYyGB_5lb_l78h2_proxy15split_host_ports_0B5_
FN:3179,_RNCNvNtCsijo3INtYyGB_5lb_l78h2_proxy22drive_h2_upstream_send0B5_
FN:3349,_RNCNvNtCsijo3INtYyGB_5lb_l78h2_proxy24build_h2_to_h3_fieldlist0B5_
FN:3353,_RNCNvNtCsijo3INtYyGB_5lb_l78h2_proxy24build_h2_to_h3_fieldlists0_0B5_
FN:3354,_RNCNvNtCsijo3INtYyGB_5lb_l78h2_proxy24build_h2_to_h3_fieldlists1_0B5_
FN:3361,_RNCNvNtCsijo3INtYyGB_5lb_l78h2_proxy24build_h2_to_h3_fieldlists2_0B5_
FN:3369,_RNCNvNtCsijo3INtYyGB_5lb_l78h2_proxy24build_h2_to_h3_fieldlists3_0B5_
FN:3373,_RNCNvNtCsijo3INtYyGB_5lb_l78h2_proxy24build_h2_to_h3_fieldlists4_0B5_
FN:3397,_RNCNvNtCsijo3INtYyGB_5lb_l78h2_proxy24build_h2_to_h3_fieldlists5_0B5_
FN:3349,_RNCNvNtCsijo3INtYyGB_5lb_l78h2_proxy24build_h2_to_h3_fieldlists_0B5_
FN:3135,_RNCNvNtCsijo3INtYyGB_5lb_l78h2_proxy26upstream_h2_response_to_h20B5_
FN:3138,_RNCNvNtCsijo3INtYyGB_5lb_l78h2_proxy26upstream_h2_response_to_h2s_0B5_
FN:3484,_RNCNvNtCsijo3INtYyGB_5lb_l78h2_proxy30check_authority_host_agreement0B5_
FN:2912,_RNCNvNtCsijo3INtYyGB_5lb_l78h2_proxy31build_h2_upstream_request_parts0B5_
FN:2916,_RNCNvNtCsijo3INtYyGB_5lb_l78h2_proxy31build_h2_upstream_request_partss0_0B5_
FN:2917,_RNCNvNtCsijo3INtYyGB_5lb_l78h2_proxy31build_h2_upstream_request_partss1_0B5_
FN:2927,_RNCNvNtCsijo3INtYyGB_5lb_l78h2_proxy31build_h2_upstream_request_partss2_0B5_
FN:2934,_RNCNvNtCsijo3INtYyGB_5lb_l78h2_proxy31build_h2_upstream_request_partss3_0B5_
FN:2964,_RNCNvNtCsijo3INtYyGB_5lb_l78h2_proxy31build_h2_upstream_request_partss4_0B5_
FN:2981,_RNCNvNtCsijo3INtYyGB_5lb_l78h2_proxy31build_h2_upstream_request_partss5_0B5_
FN:2912,_RNCNvNtCsijo3INtYyGB_5lb_l78h2_proxy31build_h2_upstream_request_partss_0B5_
FN:966,_RNCNvXs7_NtCsijo3INtYyGB_5lb_l78h2_proxyNtB7_12ProxyServiceINtNtNtCsgB3dp6qvXvn_5hyper7service7service7ServiceINtNtCsjFxw70quGA5_4http7request7RequestNtNtNtB12_4body8incoming8IncomingEE4call0B9_
FN:346,_RNvMs2_NtCsijo3INtYyGB_5lb_l78h2_proxyINtB5_12CleanCloseIoNtNCNvNtB5_5testss_31clean_close_io_drain_is_bounded09EndlessIoE3newB7_
FN:346,_RNvMs2_NtCsijo3INtYyGB_5lb_l78h2_proxyINtB5_12CleanCloseIoNtNCNvNtB5_5testss_53clean_close_io_does_not_resolve_while_peer_still_open06SharedE3newB7_
FN:346,_RNvMs2_NtCsijo3INtYyGB_5lb_l78h2_proxyINtB5_12CleanCloseIoNtNtB5_5tests5ProbeE3newB7_
FN:346,_RNvMs2_NtCsijo3INtYyGB_5lb_l78h2_proxyINtB5_12CleanCloseIoNtNtNtNtCsfWKKmeeA0Vo_5tokio2io4util3mem12DuplexStreamE3newB7_
FN:358,_RNvXs3_NtCsijo3INtYyGB_5lb_l78h2_proxyINtB5_12CleanCloseIoNtNtNtNtCsfWKKmeeA0Vo_5tokio2io4util3mem12DuplexStreamENtNtB10_10async_read9AsyncRead9poll_readB7_
FN:380,_RNvXs4_NtCsijo3INtYyGB_5lb_l78h2_proxyINtB5_12CleanCloseIoNtNCNvNtB5_5testss_31clean_close_io_drain_is_bounded09EndlessIoENtNtNtCsfWKKmeeA0Vo_5tokio2io11async_write10AsyncWrite13poll_shutdownB7_
FN:380,_RNvXs4_NtCsijo3INtYyGB_5lb_l78h2_proxyINtB5_12CleanCloseIoNtNCNvNtB5_5testss_53clean_close_io_does_not_resolve_while_peer_still_open06SharedENtNtNtCsfWKKmeeA0Vo_5tokio2io11async_write10AsyncWrite13poll_shutdownB7_
FN:380,_RNvXs4_NtCsijo3INtYyGB_5lb_l78h2_proxyINtB5_12CleanCloseIoNtNtB5_5tests5ProbeENtNtNtCsfWKKmeeA0Vo_5tokio2io11async_write10AsyncWrite13poll_shutdownB7_
FN:376,_RNvXs4_NtCsijo3INtYyGB_5lb_l78h2_proxyINtB5_12CleanCloseIoNtNtNtNtCsfWKKmeeA0Vo_5tokio2io4util3mem12DuplexStreamENtNtB10_11async_write10AsyncWrite10poll_flushB7_
FN:368,_RNvXs4_NtCsijo3INtYyGB_5lb_l78h2_proxyINtB5_12CleanCloseIoNtNtNtNtCsfWKKmeeA0Vo_5tokio2io4util3mem12DuplexStreamENtNtB10_11async_write10AsyncWrite10poll_writeB7_
FN:380,_RNvXs4_NtCsijo3INtYyGB_5lb_l78h2_proxyINtB5_12CleanCloseIoNtNtNtNtCsfWKKmeeA0Vo_5tokio2io4util3mem12DuplexStreamENtNtB10_11async_write10AsyncWrite13poll_shutdownB7_
FN:719,_RINvMs5_NtCscRJcA2zm81b_5lb_l78h2_proxyNtB6_7H2Proxy16serve_connectionNtNtNtNtCsfWKKmeeA0Vo_5tokio3net3tcp6stream9TcpStreamECshNrGFH5ArmH_25round8_authority_enforced
FN:748,_RINvMs5_NtCscRJcA2zm81b_5lb_l78h2_proxyNtB6_7H2Proxy28serve_connection_with_cancelNtNtNtNtCsfWKKmeeA0Vo_5tokio3net3tcp6stream9TcpStreamECshNrGFH5ArmH_25round8_authority_enforced
FN:771,_RINvMs5_NtCscRJcA2zm81b_5lb_l78h2_proxyNtB6_7H2Proxy32serve_connection_with_cancel_sniNtNtNtNtCsfWKKmeeA0Vo_5tokio3net3tcp6stream9TcpStreamECshNrGFH5ArmH_25round8_authority_enforced
FN:722,_RNCINvMs5_NtCscRJcA2zm81b_5lb_l78h2_proxyNtB8_7H2Proxy16serve_connectionNtNtNtNtCsfWKKmeeA0Vo_5tokio3net3tcp6stream9TcpStreamE0CshNrGFH5ArmH_25round8_authority_enforced
FN:756,_RNCINvMs5_NtCscRJcA2zm81b_5lb_l78h2_proxyNtB8_7H2Proxy28serve_connection_with_cancelNtNtNtNtCsfWKKmeeA0Vo_5tokio3net3tcp6stream9TcpStreamE0CshNrGFH5ArmH_25round8_authority_enforced
FN:780,_RNCINvMs5_NtCscRJcA2zm81b_5lb_l78h2_proxyNtB8_7H2Proxy32serve_connection_with_cancel_sniNtNtNtNtCsfWKKmeeA0Vo_5tokio3net3tcp6stream9TcpStreamE0CshNrGFH5ArmH_25round8_authority_enforced
FN:792,_RNCNCINvMs5_NtCscRJcA2zm81b_5lb_l78h2_proxyNtBa_7H2Proxy32serve_connection_with_cancel_sniNtNtNtNtCsfWKKmeeA0Vo_5tokio3net3tcp6stream9TcpStreamE00CshNrGFH5ArmH_25round8_authority_enforced
FN:793,_RNCNCNCINvMs5_NtCscRJcA2zm81b_5lb_l78h2_proxyNtBc_7H2Proxy32serve_connection_with_cancel_sniNtNtNtNtCsfWKKmeeA0Vo_5tokio3net3tcp6stream9TcpStreamE000CshNrGFH5ArmH_25round8_authority_enforced
FN:346,_RNvMs2_NtCscRJcA2zm81b_5lb_l78h2_proxyINtB5_12CleanCloseIoNtNtNtNtCsfWKKmeeA0Vo_5tokio3net3tcp6stream9TcpStreamE3newCshNrGFH5ArmH_25round8_authority_enforced
FN:358,_RNvXs3_NtCscRJcA2zm81b_5lb_l78h2_proxyINtB5_12CleanCloseIoNtNtNtNtCsfWKKmeeA0Vo_5tokio3net3tcp6stream9TcpStreamENtNtNtB12_2io10async_read9AsyncRead9poll_readCshNrGFH5ArmH_25round8_authority_enforced
FN:376,_RNvXs4_NtCscRJcA2zm81b_5lb_l78h2_proxyINtB5_12CleanCloseIoNtNtNtNtCsfWKKmeeA0Vo_5tokio3net3tcp6stream9TcpStreamENtNtNtB12_2io11async_write10AsyncWrite10poll_flushCshNrGFH5ArmH_25round8_authority_enforced
FN:368,_RNvXs4_NtCscRJcA2zm81b_5lb_l78h2_proxyINtB5_12CleanCloseIoNtNtNtNtCsfWKKmeeA0Vo_5tokio3net3tcp6stream9TcpStreamENtNtNtB12_2io11async_write10AsyncWrite10poll_writeCshNrGFH5ArmH_25round8_authority_enforced
FN:380,_RNvXs4_NtCscRJcA2zm81b_5lb_l78h2_proxyINtB5_12CleanCloseIoNtNtNtNtCsfWKKmeeA0Vo_5tokio3net3tcp6stream9TcpStreamENtNtNtB12_2io11async_write10AsyncWrite13poll_shutdownCshNrGFH5ArmH_25round8_authority_enforced
FN:719,_RINvMs5_NtCscRJcA2zm81b_5lb_l78h2_proxyNtB6_7H2Proxy16serve_connectionNtNtNtNtCsfWKKmeeA0Vo_5tokio3net3tcp6stream9TcpStreamECszCkIpWOTQT_24round8_glitches_enforced
FN:748,_RINvMs5_NtCscRJcA2zm81b_5lb_l78h2_proxyNtB6_7H2Proxy28serve_connection_with_cancelNtNtNtNtCsfWKKmeeA0Vo_5tokio3net3tcp6stream9TcpStreamECszCkIpWOTQT_24round8_glitches_enforced
FN:771,_RINvMs5_NtCscRJcA2zm81b_5lb_l78h2_proxyNtB6_7H2Proxy32serve_connection_with_cancel_sniNtNtNtNtCsfWKKmeeA0Vo_5tokio3net3tcp6stream9TcpStreamECszCkIpWOTQT_24round8_glitches_enforced
FN:722,_RNCINvMs5_NtCscRJcA2zm81b_5lb_l78h2_proxyNtB8_7H2Proxy16serve_connectionNtNtNtNtCsfWKKmeeA0Vo_5tokio3net3tcp6stream9TcpStreamE0CszCkIpWOTQT_24round8_glitches_enforced
FN:756,_RNCINvMs5_NtCscRJcA2zm81b_5lb_l78h2_proxyNtB8_7H2Proxy28serve_connection_with_cancelNtNtNtNtCsfWKKmeeA0Vo_5tokio3net3tcp6stream9TcpStreamE0CszCkIpWOTQT_24round8_glitches_enforced
FN:780,_RNCINvMs5_NtCscRJcA2zm81b_5lb_l78h2_proxyNtB8_7H2Proxy32serve_connection_with_cancel_sniNtNtNtNtCsfWKKmeeA0Vo_5tokio3net3tcp6stream9TcpStreamE0CszCkIpWOTQT_24round8_glitches_enforced
FN:792,_RNCNCINvMs5_NtCscRJcA2zm81b_5lb_l78h2_proxyNtBa_7H2Proxy32serve_connection_with_cancel_sniNtNtNtNtCsfWKKmeeA0Vo_5tokio3net3tcp6stream9TcpStreamE00CszCkIpWOTQT_24round8_glitches_enforced
FN:793,_RNCNCNCINvMs5_NtCscRJcA2zm81b_5lb_l78h2_proxyNtBc_7H2Proxy32serve_connection_with_cancel_sniNtNtNtNtCsfWKKmeeA0Vo_5tokio3net3tcp6stream9TcpStreamE000CszCkIpWOTQT_24round8_glitches_enforced
FN:346,_RNvMs2_NtCscRJcA2zm81b_5lb_l78h2_proxyINtB5_12CleanCloseIoNtNtNtNtCsfWKKmeeA0Vo_5tokio3net3tcp6stream9TcpStreamE3newCszCkIpWOTQT_24round8_glitches_enforced
FN:358,_RNvXs3_NtCscRJcA2zm81b_5lb_l78h2_proxyINtB5_12CleanCloseIoNtNtNtNtCsfWKKmeeA0Vo_5tokio3net3tcp6stream9TcpStreamENtNtNtB12_2io10async_read9AsyncRead9poll_readCszCkIpWOTQT_24round8_glitches_enforced
FN:376,_RNvXs4_NtCscRJcA2zm81b_5lb_l78h2_proxyINtB5_12CleanCloseIoNtNtNtNtCsfWKKmeeA0Vo_5tokio3net3tcp6stream9TcpStreamENtNtNtB12_2io11async_write10AsyncWrite10poll_flushCszCkIpWOTQT_24round8_glitches_enforced
FN:368,_RNvXs4_NtCscRJcA2zm81b_5lb_l78h2_proxyINtB5_12CleanCloseIoNtNtNtNtCsfWKKmeeA0Vo_5tokio3net3tcp6stream9TcpStreamENtNtNtB12_2io11async_write10AsyncWrite10poll_writeCszCkIpWOTQT_24round8_glitches_enforced
FN:380,_RNvXs4_NtCscRJcA2zm81b_5lb_l78h2_proxyINtB5_12CleanCloseIoNtNtNtNtCsfWKKmeeA0Vo_5tokio3net3tcp6stream9TcpStreamENtNtNtB12_2io11async_write10AsyncWrite13poll_shutdownCszCkIpWOTQT_24round8_glitches_enforced
FNDA:0,_RINvMs5_NtCscRJcA2zm81b_5lb_l78h2_proxyNtB6_7H2Proxy16serve_connectionpEB8_
FNDA:0,_RINvMs5_NtCscRJcA2zm81b_5lb_l78h2_proxyNtB6_7H2Proxy28serve_connection_with_cancelpEB8_
FNDA:0,_RINvMs5_NtCscRJcA2zm81b_5lb_l78h2_proxyNtB6_7H2Proxy32serve_connection_with_cancel_snipEB8_
FNDA:0,_RNCINvMs5_NtCscRJcA2zm81b_5lb_l78h2_proxyNtB8_7H2Proxy16serve_connectionpE0Ba_
FNDA:0,_RNCINvMs5_NtCscRJcA2zm81b_5lb_l78h2_proxyNtB8_7H2Proxy28serve_connection_with_cancelpE0Ba_
FNDA:0,_RNCINvMs5_NtCscRJcA2zm81b_5lb_l78h2_proxyNtB8_7H2Proxy32serve_connection_with_cancel_snipE0Ba_
FNDA:0,_RNCNCINvMs5_NtCscRJcA2zm81b_5lb_l78h2_proxyNtBa_7H2Proxy32serve_connection_with_cancel_snipE00Bc_
FNDA:0,_RNCNCNCINvMs5_NtCscRJcA2zm81b_5lb_l78h2_proxyNtBc_7H2Proxy32serve_connection_with_cancel_snipE000Be_
FNDA:0,_RNvMs2_NtCscRJcA2zm81b_5lb_l78h2_proxyINtB5_12CleanCloseIopE3newB7_
FNDA:0,_RNvXININtCscRJcA2zm81b_5lb_l78h2_proxys3_0pEINtB5_12CleanCloseIopENtNtNtCsfWKKmeeA0Vo_5tokio2io10async_read9AsyncRead9poll_readB7_
FNDA:0,_RNvXININtCscRJcA2zm81b_5lb_l78h2_proxys4_0pEINtB5_12CleanCloseIopENtNtNtCsfWKKmeeA0Vo_5tokio2io11async_write10AsyncWrite10poll_flushB7_
FNDA:0,_RNvXININtCscRJcA2zm81b_5lb_l78h2_proxys4_0pEINtB5_12CleanCloseIopENtNtNtCsfWKKmeeA0Vo_5tokio2io11async_write10AsyncWrite10poll_writeB7_
FNDA:0,_RNvXININtCscRJcA2zm81b_5lb_l78h2_proxys4_0pEINtB5_12CleanCloseIopENtNtNtCsfWKKmeeA0Vo_5tokio2io11async_write10AsyncWrite13poll_shutdownB7_
FNDA:1,_RNCNCNCNvMs8_NtCscRJcA2zm81b_5lb_l78h2_proxyNtBb_7H2Proxy12handle_inner0s4_00Bd_
FNDA:0,_RNCNCNCNvMs8_NtCscRJcA2zm81b_5lb_l78h2_proxyNtBb_7H2Proxy12handle_inner0s5_00Bd_
FNDA:0,_RNCNCNCNvMs8_NtCscRJcA2zm81b_5lb_l78h2_proxyNtBb_7H2Proxy12handle_inner0s6_00Bd_
FNDA:0,_RNCNCNCNvMs8_NtCscRJcA2zm81b_5lb_l78h2_proxyNtBb_7H2Proxy12handle_inner0s8_00Bd_
FNDA:0,_RNCNCNCNvMs8_NtCscRJcA2zm81b_5lb_l78h2_proxyNtBb_7H2Proxy13proxy_request0s7_00Bd_
FNDA:0,_RNCNCNCNvMs8_NtCscRJcA2zm81b_5lb_l78h2_proxyNtBb_7H2Proxy13proxy_request0s7_0s0_0Bd_
FNDA:0,_RNCNCNCNvMs8_NtCscRJcA2zm81b_5lb_l78h2_proxyNtBb_7H2Proxy13proxy_request0s7_0s1_0Bd_
FNDA:0,_RNCNCNCNvMs8_NtCscRJcA2zm81b_5lb_l78h2_proxyNtBb_7H2Proxy13proxy_request0s7_0s_0Bd_
FNDA:0,_RNCNCNCNvMs8_NtCscRJcA2zm81b_5lb_l78h2_proxyNtBb_7H2Proxy22proxy_h2_to_h2_request0s1_00Bd_
FNDA:0,_RNCNCNCNvMs8_NtCscRJcA2zm81b_5lb_l78h2_proxyNtBb_7H2Proxy22proxy_h2_to_h2_request0s1_0s0_0Bd_
FNDA:0,_RNCNCNCNvMs8_NtCscRJcA2zm81b_5lb_l78h2_proxyNtBb_7H2Proxy22proxy_h2_to_h2_request0s1_0s1_0Bd_
FNDA:0,_RNCNCNCNvMs8_NtCscRJcA2zm81b_5lb_l78h2_proxyNtBb_7H2Proxy22proxy_h2_to_h2_request0s1_0s_0Bd_
FNDA:0,_RNCNCNCNvMs8_NtCscRJcA2zm81b_5lb_l78h2_proxyNtBb_7H2Proxy26handle_ws_extended_connect0s0_00Bd_
FNDA:0,_RNCNCNCNvMs8_NtCscRJcA2zm81b_5lb_l78h2_proxyNtBb_7H2Proxy26handle_ws_extended_connect0s0_0s0_0Bd_
FNDA:0,_RNCNCNCNvMs8_NtCscRJcA2zm81b_5lb_l78h2_proxyNtBb_7H2Proxy26handle_ws_extended_connect0s0_0s1_0Bd_
FNDA:0,_RNCNCNCNvMs8_NtCscRJcA2zm81b_5lb_l78h2_proxyNtBb_7H2Proxy26handle_ws_extended_connect0s0_0s_0Bd_
FNDA:0,_RNCNCNCNvNtCscRJcA2zm81b_5lb_l78h2_proxy22drive_h2_upstream_send00s_0B9_
FNDA:0,_RNCNCNvMs8_NtCscRJcA2zm81b_5lb_l78h2_proxyNtB9_7H2Proxy12handle_inner00Bb_
FNDA:0,_RNCNCNvMs8_NtCscRJcA2zm81b_5lb_l78h2_proxyNtB9_7H2Proxy12handle_inner0s0_0Bb_
FNDA:1,_RNCNCNvMs8_NtCscRJcA2zm81b_5lb_l78h2_proxyNtB9_7H2Proxy12handle_inner0s1_0Bb_
FNDA:0,_RNCNCNvMs8_NtCscRJcA2zm81b_5lb_l78h2_proxyNtB9_7H2Proxy12handle_inner0s2_0Bb_
FNDA:0,_RNCNCNvMs8_NtCscRJcA2zm81b_5lb_l78h2_proxyNtB9_7H2Proxy12handle_inner0s3_0Bb_
FNDA:1,_RNCNCNvMs8_NtCscRJcA2zm81b_5lb_l78h2_proxyNtB9_7H2Proxy12handle_inner0s4_0Bb_
FNDA:0,_RNCNCNvMs8_NtCscRJcA2zm81b_5lb_l78h2_proxyNtB9_7H2Proxy12handle_inner0s5_0Bb_
FNDA:0,_RNCNCNvMs8_NtCscRJcA2zm81b_5lb_l78h2_proxyNtB9_7H2Proxy12handle_inner0s6_0Bb_
FNDA:1,_RNCNCNvMs8_NtCscRJcA2zm81b_5lb_l78h2_proxyNtB9_7H2Proxy12handle_inner0s7_0Bb_
FNDA:0,_RNCNCNvMs8_NtCscRJcA2zm81b_5lb_l78h2_proxyNtB9_7H2Proxy12handle_inner0s8_0Bb_
FNDA:0,_RNCNCNvMs8_NtCscRJcA2zm81b_5lb_l78h2_proxyNtB9_7H2Proxy12handle_inner0s_0Bb_
FNDA:1,_RNCNCNvMs8_NtCscRJcA2zm81b_5lb_l78h2_proxyNtB9_7H2Proxy13proxy_request00Bb_
FNDA:0,_RNCNCNvMs8_NtCscRJcA2zm81b_5lb_l78h2_proxyNtB9_7H2Proxy13proxy_request0s0_0Bb_
FNDA:0,_RNCNCNvMs8_NtCscRJcA2zm81b_5lb_l78h2_proxyNtB9_7H2Proxy13proxy_request0s1_0Bb_
FNDA:0,_RNCNCNvMs8_NtCscRJcA2zm81b_5lb_l78h2_proxyNtB9_7H2Proxy13proxy_request0s2_0Bb_
FNDA:0,_RNCNCNvMs8_NtCscRJcA2zm81b_5lb_l78h2_proxyNtB9_7H2Proxy13proxy_request0s3_0Bb_
FNDA:0,_RNCNCNvMs8_NtCscRJcA2zm81b_5lb_l78h2_proxyNtB9_7H2Proxy13proxy_request0s4_0Bb_
FNDA:0,_RNCNCNvMs8_NtCscRJcA2zm81b_5lb_l78h2_proxyNtB9_7H2Proxy13proxy_request0s5_0Bb_
FNDA:0,_RNCNCNvMs8_NtCscRJcA2zm81b_5lb_l78h2_proxyNtB9_7H2Proxy13proxy_request0s6_0Bb_
FNDA:0,_RNCNCNvMs8_NtCscRJcA2zm81b_5lb_l78h2_proxyNtB9_7H2Proxy13proxy_request0s7_0Bb_
FNDA:0,_RNCNCNvMs8_NtCscRJcA2zm81b_5lb_l78h2_proxyNtB9_7H2Proxy13proxy_request0s8_0Bb_
FNDA:0,_RNCNCNvMs8_NtCscRJcA2zm81b_5lb_l78h2_proxyNtB9_7H2Proxy13proxy_request0s_0Bb_
FNDA:0,_RNCNCNvMs8_NtCscRJcA2zm81b_5lb_l78h2_proxyNtB9_7H2Proxy14proxy_h2_to_h300Bb_
FNDA:0,_RNCNCNvMs8_NtCscRJcA2zm81b_5lb_l78h2_proxyNtB9_7H2Proxy14proxy_h2_to_h30s0_0Bb_
FNDA:0,_RNCNCNvMs8_NtCscRJcA2zm81b_5lb_l78h2_proxyNtB9_7H2Proxy14proxy_h2_to_h30s1_0Bb_
FNDA:0,_RNCNCNvMs8_NtCscRJcA2zm81b_5lb_l78h2_proxyNtB9_7H2Proxy14proxy_h2_to_h30s2_0Bb_
FNDA:0,_RNCNCNvMs8_NtCscRJcA2zm81b_5lb_l78h2_proxyNtB9_7H2Proxy14proxy_h2_to_h30s3_0Bb_
FNDA:0,_RNCNCNvMs8_NtCscRJcA2zm81b_5lb_l78h2_proxyNtB9_7H2Proxy14proxy_h2_to_h30s_0Bb_
FNDA:0,_RNCNCNvMs8_NtCscRJcA2zm81b_5lb_l78h2_proxyNtB9_7H2Proxy22proxy_h2_to_h2_request00Bb_
FNDA:0,_RNCNCNvMs8_NtCscRJcA2zm81b_5lb_l78h2_proxyNtB9_7H2Proxy22proxy_h2_to_h2_request0s0_0Bb_
FNDA:0,_RNCNCNvMs8_NtCscRJcA2zm81b_5lb_l78h2_proxyNtB9_7H2Proxy22proxy_h2_to_h2_request0s1_0Bb_
FNDA:0,_RNCNCNvMs8_NtCscRJcA2zm81b_5lb_l78h2_proxyNtB9_7H2Proxy22proxy_h2_to_h2_request0s_0Bb_
FNDA:0,_RNCNCNvMs8_NtCscRJcA2zm81b_5lb_l78h2_proxyNtB9_7H2Proxy26handle_ws_extended_connect00Bb_
FNDA:0,_RNCNCNvMs8_NtCscRJcA2zm81b_5lb_l78h2_proxyNtB9_7H2Proxy26handle_ws_extended_connect0s0_0Bb_
FNDA:0,_RNCNCNvMs8_NtCscRJcA2zm81b_5lb_l78h2_proxyNtB9_7H2Proxy26handle_ws_extended_connect0s1_0Bb_
FNDA:0,_RNCNCNvMs8_NtCscRJcA2zm81b_5lb_l78h2_proxyNtB9_7H2Proxy26handle_ws_extended_connect0s3_0Bb_
FNDA:0,_RNCNCNvMs8_NtCscRJcA2zm81b_5lb_l78h2_proxyNtB9_7H2Proxy26handle_ws_extended_connect0s_0Bb_
FNDA:0,_RNCNCNvNtCscRJcA2zm81b_5lb_l78h2_proxy22drive_h2_upstream_send00B7_
FNDA:0,_RNCNCNvNtCscRJcA2zm81b_5lb_l78h2_proxy24build_h2_to_h3_fieldlists1_00B7_
FNDA:0,_RNCNCNvNtCscRJcA2zm81b_5lb_l78h2_proxy24build_h2_to_h3_fieldlists4_00B7_
FNDA:0,_RNCNCNvNtCscRJcA2zm81b_5lb_l78h2_proxy31build_h2_upstream_request_partss1_00B7_
FNDA:0,_RNCNCNvNtCscRJcA2zm81b_5lb_l78h2_proxy31build_h2_upstream_request_partss3_00B7_
FNDA:7,_RNCNvMs8_NtCscRJcA2zm81b_5lb_l78h2_proxyNtB7_7H2Proxy12handle_inner0B9_
FNDA:1,_RNCNvMs8_NtCscRJcA2zm81b_5lb_l78h2_proxyNtB7_7H2Proxy13proxy_request0B9_
FNDA:0,_RNCNvMs8_NtCscRJcA2zm81b_5lb_l78h2_proxyNtB7_7H2Proxy14proxy_h2_to_h20B9_
FNDA:0,_RNCNvMs8_NtCscRJcA2zm81b_5lb_l78h2_proxyNtB7_7H2Proxy14proxy_h2_to_h30B9_
FNDA:0,_RNCNvMs8_NtCscRJcA2zm81b_5lb_l78h2_proxyNtB7_7H2Proxy17finalize_response0B9_
FNDA:0,_RNCNvMs8_NtCscRJcA2zm81b_5lb_l78h2_proxyNtB7_7H2Proxy22proxy_h2_to_h2_request0B9_
FNDA:0,_RNCNvMs8_NtCscRJcA2zm81b_5lb_l78h2_proxyNtB7_7H2Proxy26handle_ws_extended_connect0B9_
FNDA:7,_RNCNvMs8_NtCscRJcA2zm81b_5lb_l78h2_proxyNtB7_7H2Proxy6handle0B9_
FNDA:2,_RNCNvNtCscRJcA2zm81b_5lb_l78h2_proxy15split_host_port0B5_
FNDA:22,_RNCNvNtCscRJcA2zm81b_5lb_l78h2_proxy15split_host_ports_0B5_
FNDA:0,_RNCNvNtCscRJcA2zm81b_5lb_l78h2_proxy22drive_h2_upstream_send0B5_
FNDA:0,_RNCNvNtCscRJcA2zm81b_5lb_l78h2_proxy24build_h2_to_h3_fieldlist0B5_
FNDA:0,_RNCNvNtCscRJcA2zm81b_5lb_l78h2_proxy24build_h2_to_h3_fieldlists0_0B5_
FNDA:0,_RNCNvNtCscRJcA2zm81b_5lb_l78h2_proxy24build_h2_to_h3_fieldlists1_0B5_
FNDA:0,_RNCNvNtCscRJcA2zm81b_5lb_l78h2_proxy24build_h2_to_h3_fieldlists2_0B5_
FNDA:0,_RNCNvNtCscRJcA2zm81b_5lb_l78h2_proxy24build_h2_to_h3_fieldlists3_0B5_
FNDA:0,_RNCNvNtCscRJcA2zm81b_5lb_l78h2_proxy24build_h2_to_h3_fieldlists4_0B5_
FNDA:0,_RNCNvNtCscRJcA2zm81b_5lb_l78h2_proxy24build_h2_to_h3_fieldlists5_0B5_
FNDA:0,_RNCNvNtCscRJcA2zm81b_5lb_l78h2_proxy24build_h2_to_h3_fieldlists_0B5_
FNDA:0,_RNCNvNtCscRJcA2zm81b_5lb_l78h2_proxy26upstream_h2_response_to_h20B5_
FNDA:0,_RNCNvNtCscRJcA2zm81b_5lb_l78h2_proxy26upstream_h2_response_to_h2s_0B5_
FNDA:12,_RNCNvNtCscRJcA2zm81b_5lb_l78h2_proxy30check_authority_host_agreement0B5_
FNDA:0,_RNCNvNtCscRJcA2zm81b_5lb_l78h2_proxy31build_h2_upstream_request_parts0B5_
FNDA:0,_RNCNvNtCscRJcA2zm81b_5lb_l78h2_proxy31build_h2_upstream_request_partss0_0B5_
FNDA:0,_RNCNvNtCscRJcA2zm81b_5lb_l78h2_proxy31build_h2_upstream_request_partss1_0B5_
FNDA:0,_RNCNvNtCscRJcA2zm81b_5lb_l78h2_proxy31build_h2_upstream_request_partss2_0B5_
FNDA:0,_RNCNvNtCscRJcA2zm81b_5lb_l78h2_proxy31build_h2_upstream_request_partss3_0B5_
FNDA:0,_RNCNvNtCscRJcA2zm81b_5lb_l78h2_proxy31build_h2_upstream_request_partss4_0B5_
FNDA:0,_RNCNvNtCscRJcA2zm81b_5lb_l78h2_proxy31build_h2_upstream_request_partss5_0B5_
FNDA:0,_RNCNvNtCscRJcA2zm81b_5lb_l78h2_proxy31build_h2_upstream_request_partss_0B5_
FNDA:7,_RNCNvXs7_NtCscRJcA2zm81b_5lb_l78h2_proxyNtB7_12ProxyServiceINtNtNtCsgB3dp6qvXvn_5hyper7service7service7ServiceINtNtCsjFxw70quGA5_4http7request7RequestNtNtNtB12_4body8incoming8IncomingEE4call0B9_
FNDA:0,_RNvMs5_NtCscRJcA2zm81b_5lb_l78h2_proxyNtB5_7H2Proxy10with_hooks
FNDA:1,_RNvMs5_NtCscRJcA2zm81b_5lb_l78h2_proxyNtB5_7H2Proxy13with_glitches
FNDA:5,_RNvMs5_NtCscRJcA2zm81b_5lb_l78h2_proxyNtB5_7H2Proxy13with_security
FNDA:0,_RNvMs5_NtCscRJcA2zm81b_5lb_l78h2_proxyNtB5_7H2Proxy13with_watchdog
FNDA:1,_RNvMs5_NtCscRJcA2zm81b_5lb_l78h2_proxyNtB5_7H2Proxy14with_websocket
FNDA:0,_RNvMs5_NtCscRJcA2zm81b_5lb_l78h2_proxyNtB5_7H2Proxy15has_h2_upstream
FNDA:0,_RNvMs5_NtCscRJcA2zm81b_5lb_l78h2_proxyNtB5_7H2Proxy15has_h3_upstream
FNDA:0,_RNvMs5_NtCscRJcA2zm81b_5lb_l78h2_proxyNtB5_7H2Proxy16with_h2_upstream
FNDA:0,_RNvMs5_NtCscRJcA2zm81b_5lb_l78h2_proxyNtB5_7H2Proxy16with_h3_upstream
FNDA:0,_RNvMs5_NtCscRJcA2zm81b_5lb_l78h2_proxyNtB5_7H2Proxy16with_multi_proto
FNDA:0,_RNvMs5_NtCscRJcA2zm81b_5lb_l78h2_proxyNtB5_7H2Proxy17with_expected_sni
FNDA:1,_RNvMs5_NtCscRJcA2zm81b_5lb_l78h2_proxyNtB5_7H2Proxy24with_h2_extended_connect
FNDA:0,_RNvMs5_NtCscRJcA2zm81b_5lb_l78h2_proxyNtB5_7H2Proxy29with_header_underscore_policy
FNDA:5,_RNvMs5_NtCscRJcA2zm81b_5lb_l78h2_proxyNtB5_7H2Proxy3new
FNDA:1,_RNvMs5_NtCscRJcA2zm81b_5lb_l78h2_proxyNtB5_7H2Proxy9with_grpc
FNDA:3,_RNvMs6_NtCscRJcA2zm81b_5lb_l78h2_proxyNtB5_15GlitchConnState6record
FNDA:7,_RNvMs8_NtCscRJcA2zm81b_5lb_l78h2_proxyNtB5_7H2Proxy12handle_inner
FNDA:1,_RNvMs8_NtCscRJcA2zm81b_5lb_l78h2_proxyNtB5_7H2Proxy13proxy_request
FNDA:0,_RNvMs8_NtCscRJcA2zm81b_5lb_l78h2_proxyNtB5_7H2Proxy14proxy_h2_to_h2
FNDA:0,_RNvMs8_NtCscRJcA2zm81b_5lb_l78h2_proxyNtB5_7H2Proxy14proxy_h2_to_h3
FNDA:0,_RNvMs8_NtCscRJcA2zm81b_5lb_l78h2_proxyNtB5_7H2Proxy17finalize_response
FNDA:0,_RNvMs8_NtCscRJcA2zm81b_5lb_l78h2_proxyNtB5_7H2Proxy22proxy_h2_to_h2_request
FNDA:0,_RNvMs8_NtCscRJcA2zm81b_5lb_l78h2_proxyNtB5_7H2Proxy26handle_ws_extended_connect
FNDA:7,_RNvMs8_NtCscRJcA2zm81b_5lb_l78h2_proxyNtB5_7H2Proxy6handle
FNDA:0,_RNvNtCscRJcA2zm81b_5lb_l78h2_proxy13concat_chunks
FNDA:7,_RNvNtCscRJcA2zm81b_5lb_l78h2_proxy14error_response
FNDA:1,_RNvNtCscRJcA2zm81b_5lb_l78h2_proxy15record_retained
FNDA:22,_RNvNtCscRJcA2zm81b_5lb_l78h2_proxy15split_host_port
FNDA:11,_RNvNtCscRJcA2zm81b_5lb_l78h2_proxy22authority_matches_host
FNDA:0,_RNvNtCscRJcA2zm81b_5lb_l78h2_proxy22drive_h2_upstream_send
FNDA:0,_RNvNtCscRJcA2zm81b_5lb_l78h2_proxy24build_h2_to_h3_fieldlist
FNDA:1,_RNvNtCscRJcA2zm81b_5lb_l78h2_proxy25validate_request_trailers
FNDA:0,_RNvNtCscRJcA2zm81b_5lb_l78h2_proxy26upstream_h2_response_to_h2
FNDA:0,_RNvNtCscRJcA2zm81b_5lb_l78h2_proxy27build_h2_body_with_trailers
FNDA:0,_RNvNtCscRJcA2zm81b_5lb_l78h2_proxy28h2_decoded_resp_head_builder
FNDA:14,_RNvNtCscRJcA2zm81b_5lb_l78h2_proxy30check_authority_host_agreement
FNDA:0,_RNvNtCscRJcA2zm81b_5lb_l78h2_proxy31build_h2_upstream_request_parts
FNDA:0,_RNvXNtCscRJcA2zm81b_5lb_l78h2_proxyNtB2_9PumpAbortNtNtCs2va5m0jqTTM_4core3fmt7Display3fmt
FNDA:0,_RNvXs0_NtCscRJcA2zm81b_5lb_l78h2_proxyNtB5_11H2RespAbortNtNtCs2va5m0jqTTM_4core3fmt7Display3fmt
FNDA:7,_RNvXs7_NtCscRJcA2zm81b_5lb_l78h2_proxyNtB5_12ProxyServiceINtNtNtCsgB3dp6qvXvn_5hyper7service7service7ServiceINtNtCsjFxw70quGA5_4http7request7RequestNtNtNtB10_4body8incoming8IncomingEE4call
FNDA:0,_RINvMs5_NtCscRJcA2zm81b_5lb_l78h2_proxyNtB6_7H2Proxy32serve_connection_with_cancel_sniINtNtCs7m3feRqGqA4_12tokio_rustls6server9TlsStreamNtNtNtNtCsfWKKmeeA0Vo_5tokio3net3tcp6stream9TcpStreamEECsg9xlZenf2AU_14expressgateway
FNDA:0,_RNCINvMs5_NtCscRJcA2zm81b_5lb_l78h2_proxyNtB8_7H2Proxy32serve_connection_with_cancel_sniINtNtCs7m3feRqGqA4_12tokio_rustls6server9TlsStreamNtNtNtNtCsfWKKmeeA0Vo_5tokio3net3tcp6stream9TcpStreamEE0Csg9xlZenf2AU_14expressgateway
FNDA:0,_RNCNCINvMs5_NtCscRJcA2zm81b_5lb_l78h2_proxyNtBa_7H2Proxy32serve_connection_with_cancel_sniINtNtCs7m3feRqGqA4_12tokio_rustls6server9TlsStreamNtNtNtNtCsfWKKmeeA0Vo_5tokio3net3tcp6stream9TcpStreamEE00Csg9xlZenf2AU_14expressgateway
FNDA:0,_RNCNCNCINvMs5_NtCscRJcA2zm81b_5lb_l78h2_proxyNtBc_7H2Proxy32serve_connection_with_cancel_sniINtNtCs7m3feRqGqA4_12tokio_rustls6server9TlsStreamNtNtNtNtCsfWKKmeeA0Vo_5tokio3net3tcp6stream9TcpStreamEE000Csg9xlZenf2AU_14expressgateway
FNDA:0,_RNvMs2_NtCscRJcA2zm81b_5lb_l78h2_proxyINtB5_12CleanCloseIoINtNtCs7m3feRqGqA4_12tokio_rustls6server9TlsStreamNtNtNtNtCsfWKKmeeA0Vo_5tokio3net3tcp6stream9TcpStreamEE3newCsg9xlZenf2AU_14expressgateway
FNDA:0,_RNvXs3_NtCscRJcA2zm81b_5lb_l78h2_proxyINtB5_12CleanCloseIoINtNtCs7m3feRqGqA4_12tokio_rustls6server9TlsStreamNtNtNtNtCsfWKKmeeA0Vo_5tokio3net3tcp6stream9TcpStreamEENtNtNtB1Q_2io10async_read9AsyncRead9poll_readCsg9xlZenf2AU_14expressgateway
FNDA:0,_RNvXs4_NtCscRJcA2zm81b_5lb_l78h2_proxyINtB5_12CleanCloseIoINtNtCs7m3feRqGqA4_12tokio_rustls6server9TlsStreamNtNtNtNtCsfWKKmeeA0Vo_5tokio3net3tcp6stream9TcpStreamEENtNtNtB1Q_2io11async_write10AsyncWrite10poll_flushCsg9xlZenf2AU_14expressgateway
FNDA:0,_RNvXs4_NtCscRJcA2zm81b_5lb_l78h2_proxyINtB5_12CleanCloseIoINtNtCs7m3feRqGqA4_12tokio_rustls6server9TlsStreamNtNtNtNtCsfWKKmeeA0Vo_5tokio3net3tcp6stream9TcpStreamEENtNtNtB1Q_2io11async_write10AsyncWrite10poll_writeCsg9xlZenf2AU_14expressgateway
FNDA:0,_RNvXs4_NtCscRJcA2zm81b_5lb_l78h2_proxyINtB5_12CleanCloseIoINtNtCs7m3feRqGqA4_12tokio_rustls6server9TlsStreamNtNtNtNtCsfWKKmeeA0Vo_5tokio3net3tcp6stream9TcpStreamEENtNtNtB1Q_2io11async_write10AsyncWrite13poll_shutdownCsg9xlZenf2AU_14expressgateway
FNDA:1,_RNCNvNtNtCsijo3INtYyGB_5lb_l78h2_proxy5testss_31clean_close_io_drain_is_bounded0B7_
FNDA:1,_RNCNvNtNtCsijo3INtYyGB_5lb_l78h2_proxy5testss_34test_sigterm_emits_two_step_goaway0B7_
FNDA:1,_RNCNvNtNtCsijo3INtYyGB_5lb_l78h2_proxy5testss_53clean_close_io_does_not_resolve_while_peer_still_open0B7_
FNDA:1,_RNCNvNtNtCsijo3INtYyGB_5lb_l78h2_proxy5testss_53clean_close_io_drains_inbound_to_eof_before_resolving0B7_
FNDA:1,_RNvMs5_NtCsijo3INtYyGB_5lb_l78h2_proxyNtB5_7H2Proxy13with_security
FNDA:1,_RNvMs5_NtCsijo3INtYyGB_5lb_l78h2_proxyNtB5_7H2Proxy3new
FNDA:0,_RNvMs6_NtCsijo3INtYyGB_5lb_l78h2_proxyNtB5_15GlitchConnState6record
FNDA:0,_RNvMs8_NtCsijo3INtYyGB_5lb_l78h2_proxyNtB5_7H2Proxy12handle_inner
FNDA:0,_RNvMs8_NtCsijo3INtYyGB_5lb_l78h2_proxyNtB5_7H2Proxy13proxy_request
FNDA:0,_RNvMs8_NtCsijo3INtYyGB_5lb_l78h2_proxyNtB5_7H2Proxy14proxy_h2_to_h2
FNDA:0,_RNvMs8_NtCsijo3INtYyGB_5lb_l78h2_proxyNtB5_7H2Proxy14proxy_h2_to_h3
FNDA:0,_RNvMs8_NtCsijo3INtYyGB_5lb_l78h2_proxyNtB5_7H2Proxy17finalize_response
FNDA:0,_RNvMs8_NtCsijo3INtYyGB_5lb_l78h2_proxyNtB5_7H2Proxy22proxy_h2_to_h2_request
FNDA:0,_RNvMs8_NtCsijo3INtYyGB_5lb_l78h2_proxyNtB5_7H2Proxy26handle_ws_extended_connect
FNDA:0,_RNvMs8_NtCsijo3INtYyGB_5lb_l78h2_proxyNtB5_7H2Proxy6handle
FNDA:0,_RNvNtCsijo3INtYyGB_5lb_l78h2_proxy13concat_chunks
FNDA:0,_RNvNtCsijo3INtYyGB_5lb_l78h2_proxy14error_response
FNDA:3,_RNvNtCsijo3INtYyGB_5lb_l78h2_proxy15record_retained
FNDA:0,_RNvNtCsijo3INtYyGB_5lb_l78h2_proxy15split_host_port
FNDA:0,_RNvNtCsijo3INtYyGB_5lb_l78h2_proxy22authority_matches_host
FNDA:0,_RNvNtCsijo3INtYyGB_5lb_l78h2_proxy22drive_h2_upstream_send
FNDA:0,_RNvNtCsijo3INtYyGB_5lb_l78h2_proxy24build_h2_to_h3_fieldlist
FNDA:0,_RNvNtCsijo3INtYyGB_5lb_l78h2_proxy25validate_request_trailers
FNDA:0,_RNvNtCsijo3INtYyGB_5lb_l78h2_proxy26upstream_h2_response_to_h2
FNDA:0,_RNvNtCsijo3INtYyGB_5lb_l78h2_proxy27build_h2_body_with_trailers
FNDA:0,_RNvNtCsijo3INtYyGB_5lb_l78h2_proxy28h2_decoded_resp_head_builder
FNDA:0,_RNvNtCsijo3INtYyGB_5lb_l78h2_proxy30check_authority_host_agreement
FNDA:0,_RNvNtCsijo3INtYyGB_5lb_l78h2_proxy31build_h2_upstream_request_parts
FNDA:1,_RNvNtCsijo3INtYyGB_5lb_l78h2_proxy41capture_request_trailers_rejecting_pseudo
FNDA:0,_RNvXNtCsijo3INtYyGB_5lb_l78h2_proxyNtB2_9PumpAbortNtNtCs2va5m0jqTTM_4core3fmt7Display3fmt
FNDA:0,_RNvXs0_NtCsijo3INtYyGB_5lb_l78h2_proxyNtB5_11H2RespAbortNtNtCs2va5m0jqTTM_4core3fmt7Display3fmt
FNDA:0,_RNvXs7_NtCsijo3INtYyGB_5lb_l78h2_proxyNtB5_12ProxyServiceINtNtNtCsgB3dp6qvXvn_5hyper7service7service7ServiceINtNtCsjFxw70quGA5_4http7request7RequestNtNtNtB10_4body8incoming8IncomingEE4call
FNDA:0,_RINvMs5_NtCsijo3INtYyGB_5lb_l78h2_proxyNtB6_7H2Proxy16serve_connectionpEB8_
FNDA:0,_RNCINvMs5_NtCsijo3INtYyGB_5lb_l78h2_proxyNtB8_7H2Proxy16serve_connectionpE0Ba_
FNDA:0,_RNvMs5_NtCsijo3INtYyGB_5lb_l78h2_proxyNtB5_7H2Proxy10with_hooks
FNDA:0,_RNvMs5_NtCsijo3INtYyGB_5lb_l78h2_proxyNtB5_7H2Proxy13with_glitches
FNDA:0,_RNvMs5_NtCsijo3INtYyGB_5lb_l78h2_proxyNtB5_7H2Proxy13with_watchdog
FNDA:0,_RNvMs5_NtCsijo3INtYyGB_5lb_l78h2_proxyNtB5_7H2Proxy14with_websocket
FNDA:0,_RNvMs5_NtCsijo3INtYyGB_5lb_l78h2_proxyNtB5_7H2Proxy15has_h2_upstream
FNDA:0,_RNvMs5_NtCsijo3INtYyGB_5lb_l78h2_proxyNtB5_7H2Proxy15has_h3_upstream
FNDA:0,_RNvMs5_NtCsijo3INtYyGB_5lb_l78h2_proxyNtB5_7H2Proxy16with_h2_upstream
FNDA:0,_RNvMs5_NtCsijo3INtYyGB_5lb_l78h2_proxyNtB5_7H2Proxy16with_h3_upstream
FNDA:0,_RNvMs5_NtCsijo3INtYyGB_5lb_l78h2_proxyNtB5_7H2Proxy16with_multi_proto
FNDA:0,_RNvMs5_NtCsijo3INtYyGB_5lb_l78h2_proxyNtB5_7H2Proxy17with_expected_sni
FNDA:0,_RNvMs5_NtCsijo3INtYyGB_5lb_l78h2_proxyNtB5_7H2Proxy24with_h2_extended_connect
FNDA:0,_RNvMs5_NtCsijo3INtYyGB_5lb_l78h2_proxyNtB5_7H2Proxy29with_header_underscore_policy
FNDA:0,_RNvMs5_NtCsijo3INtYyGB_5lb_l78h2_proxyNtB5_7H2Proxy9with_grpc
FNDA:0,_RNvXs0_NCNvNtNtCsijo3INtYyGB_5lb_l78h2_proxy5testss_53clean_close_io_does_not_resolve_while_peer_still_open0NtB5_6SharedNtNtNtCsfWKKmeeA0Vo_5tokio2io11async_write10AsyncWrite10poll_flush
FNDA:0,_RNvXs0_NCNvNtNtCsijo3INtYyGB_5lb_l78h2_proxy5testss_53clean_close_io_does_not_resolve_while_peer_still_open0NtB5_6SharedNtNtNtCsfWKKmeeA0Vo_5tokio2io11async_write10AsyncWrite10poll_write
FNDA:0,_RNvXs0_NtNtCsijo3INtYyGB_5lb_l78h2_proxy5testsNtB5_5ProbeNtNtNtCsfWKKmeeA0Vo_5tokio2io11async_write10AsyncWrite10poll_flush
FNDA:0,_RNvXs0_NtNtCsijo3INtYyGB_5lb_l78h2_proxy5testsNtB5_5ProbeNtNtNtCsfWKKmeeA0Vo_5tokio2io11async_write10AsyncWrite10poll_write
FNDA:0,_RNvXs_NCNvNtNtCsijo3INtYyGB_5lb_l78h2_proxy5testss_31clean_close_io_drain_is_bounded0NtB4_9EndlessIoNtNtNtCsfWKKmeeA0Vo_5tokio2io11async_write10AsyncWrite10poll_flush
FNDA:0,_RNvXs_NCNvNtNtCsijo3INtYyGB_5lb_l78h2_proxy5testss_31clean_close_io_drain_is_bounded0NtB4_9EndlessIoNtNtNtCsfWKKmeeA0Vo_5tokio2io11async_write10AsyncWrite10poll_write
FNDA:1,_RNvMNtNtCsijo3INtYyGB_5lb_l78h2_proxy5testsNtB2_5Probe3new
FNDA:2,_RNvNtNtCsijo3INtYyGB_5lb_l78h2_proxy5tests8map_with
FNDA:1,_RNvNtNtCsijo3INtYyGB_5lb_l78h2_proxy5testss_21h2_proxy_xff_appended
FNDA:1,_RNvNtNtCsijo3INtYyGB_5lb_l78h2_proxy5testss_25h2_proxy_alt_svc_injected
FNDA:1,_RNvNtNtCsijo3INtYyGB_5lb_l78h2_proxy5testss_28h2_proxy_hop_by_hop_stripped
FNDA:1,_RNvNtNtCsijo3INtYyGB_5lb_l78h2_proxy5testss_30h2_req_window_constants_pinned
FNDA:1,_RNvNtNtCsijo3INtYyGB_5lb_l78h2_proxy5testss_31clean_close_io_drain_is_bounded
FNDA:1,_RNvNtNtCsijo3INtYyGB_5lb_l78h2_proxy5testss_34test_sigterm_emits_two_step_goaway
FNDA:1,_RNvNtNtCsijo3INtYyGB_5lb_l78h2_proxy5testss_38capture_request_trailers_accepts_valid
FNDA:1,_RNvNtNtCsijo3INtYyGB_5lb_l78h2_proxy5testss_38h2_req_record_retained_is_monotone_max
FNDA:1,_RNvNtNtCsijo3INtYyGB_5lb_l78h2_proxy5testss_53clean_close_io_does_not_resolve_while_peer_still_open
FNDA:1,_RNvNtNtCsijo3INtYyGB_5lb_l78h2_proxy5testss_53clean_close_io_drains_inbound_to_eof_before_resolving
FNDA:32,_RNvXNCNvNtNtCsijo3INtYyGB_5lb_l78h2_proxy5testss_31clean_close_io_drain_is_bounded0NtB2_9EndlessIoNtNtNtCsfWKKmeeA0Vo_5tokio2io10async_read9AsyncRead9poll_read
FNDA:0,_RNvXNCNvNtNtCsijo3INtYyGB_5lb_l78h2_proxy5testss_53clean_close_io_does_not_resolve_while_peer_still_open0NtB2_8NoopWakeNtNtCs8GO9KFlE3Dq_5alloc4task4Wake4wake
FNDA:1,_RNvXs0_NCNvNtNtCsijo3INtYyGB_5lb_l78h2_proxy5testss_53clean_close_io_does_not_resolve_while_peer_still_open0NtB5_6SharedNtNtNtCsfWKKmeeA0Vo_5tokio2io11async_write10AsyncWrite13poll_shutdown
FNDA:1,_RNvXs0_NtNtCsijo3INtYyGB_5lb_l78h2_proxy5testsNtB5_5ProbeNtNtNtCsfWKKmeeA0Vo_5tokio2io11async_write10AsyncWrite13poll_shutdown
FNDA:1,_RNvXs_NCNvNtNtCsijo3INtYyGB_5lb_l78h2_proxy5testss_31clean_close_io_drain_is_bounded0NtB4_9EndlessIoNtNtNtCsfWKKmeeA0Vo_5tokio2io11async_write10AsyncWrite13poll_shutdown
FNDA:9,_RNvXs_NCNvNtNtCsijo3INtYyGB_5lb_l78h2_proxy5testss_53clean_close_io_does_not_resolve_while_peer_still_open0NtB4_6SharedNtNtNtCsfWKKmeeA0Vo_5tokio2io10async_read9AsyncRead9poll_read
FNDA:51,_RNvXs_NtNtCsijo3INtYyGB_5lb_l78h2_proxy5testsNtB4_5ProbeNtNtNtCsfWKKmeeA0Vo_5tokio2io10async_read9AsyncRead9poll_read
FNDA:1,_RINvMs5_NtCsijo3INtYyGB_5lb_l78h2_proxyNtB6_7H2Proxy28serve_connection_with_cancelNtNtNtNtCsfWKKmeeA0Vo_5tokio2io4util3mem12DuplexStreamEB8_
FNDA:1,_RINvMs5_NtCsijo3INtYyGB_5lb_l78h2_proxyNtB6_7H2Proxy32serve_connection_with_cancel_sniNtNtNtNtCsfWKKmeeA0Vo_5tokio2io4util3mem12DuplexStreamEB8_
FNDA:1,_RNCINvMs5_NtCsijo3INtYyGB_5lb_l78h2_proxyNtB8_7H2Proxy28serve_connection_with_cancelNtNtNtNtCsfWKKmeeA0Vo_5tokio2io4util3mem12DuplexStreamE0Ba_
FNDA:1,_RNCINvMs5_NtCsijo3INtYyGB_5lb_l78h2_proxyNtB8_7H2Proxy32serve_connection_with_cancel_sniNtNtNtNtCsfWKKmeeA0Vo_5tokio2io4util3mem12DuplexStreamE0Ba_
FNDA:0,_RNCNCINvMs5_NtCsijo3INtYyGB_5lb_l78h2_proxyNtBa_7H2Proxy32serve_connection_with_cancel_sniNtNtNtNtCsfWKKmeeA0Vo_5tokio2io4util3mem12DuplexStreamE00Bc_
FNDA:0,_RNCNCNCINvMs5_NtCsijo3INtYyGB_5lb_l78h2_proxyNtBc_7H2Proxy32serve_connection_with_cancel_sniNtNtNtNtCsfWKKmeeA0Vo_5tokio2io4util3mem12DuplexStreamE000Be_
FNDA:0,_RNCNCNCNvMs8_NtCsijo3INtYyGB_5lb_l78h2_proxyNtBb_7H2Proxy12handle_inner0s4_00Bd_
FNDA:0,_RNCNCNCNvMs8_NtCsijo3INtYyGB_5lb_l78h2_proxyNtBb_7H2Proxy12handle_inner0s5_00Bd_
FNDA:0,_RNCNCNCNvMs8_NtCsijo3INtYyGB_5lb_l78h2_proxyNtBb_7H2Proxy12handle_inner0s6_00Bd_
FNDA:0,_RNCNCNCNvMs8_NtCsijo3INtYyGB_5lb_l78h2_proxyNtBb_7H2Proxy12handle_inner0s8_00Bd_
FNDA:0,_RNCNCNCNvMs8_NtCsijo3INtYyGB_5lb_l78h2_proxyNtBb_7H2Proxy13proxy_request0s7_00Bd_
FNDA:0,_RNCNCNCNvMs8_NtCsijo3INtYyGB_5lb_l78h2_proxyNtBb_7H2Proxy13proxy_request0s7_0s0_0Bd_
FNDA:0,_RNCNCNCNvMs8_NtCsijo3INtYyGB_5lb_l78h2_proxyNtBb_7H2Proxy13proxy_request0s7_0s1_0Bd_
FNDA:0,_RNCNCNCNvMs8_NtCsijo3INtYyGB_5lb_l78h2_proxyNtBb_7H2Proxy13proxy_request0s7_0s_0Bd_
FNDA:0,_RNCNCNCNvMs8_NtCsijo3INtYyGB_5lb_l78h2_proxyNtBb_7H2Proxy22proxy_h2_to_h2_request0s1_00Bd_
FNDA:0,_RNCNCNCNvMs8_NtCsijo3INtYyGB_5lb_l78h2_proxyNtBb_7H2Proxy22proxy_h2_to_h2_request0s1_0s0_0Bd_
FNDA:0,_RNCNCNCNvMs8_NtCsijo3INtYyGB_5lb_l78h2_proxyNtBb_7H2Proxy22proxy_h2_to_h2_request0s1_0s1_0Bd_
FNDA:0,_RNCNCNCNvMs8_NtCsijo3INtYyGB_5lb_l78h2_proxyNtBb_7H2Proxy22proxy_h2_to_h2_request0s1_0s_0Bd_
FNDA:0,_RNCNCNCNvMs8_NtCsijo3INtYyGB_5lb_l78h2_proxyNtBb_7H2Proxy26handle_ws_extended_connect0s0_00Bd_
FNDA:0,_RNCNCNCNvMs8_NtCsijo3INtYyGB_5lb_l78h2_proxyNtBb_7H2Proxy26handle_ws_extended_connect0s0_0s0_0Bd_
FNDA:0,_RNCNCNCNvMs8_NtCsijo3INtYyGB_5lb_l78h2_proxyNtBb_7H2Proxy26handle_ws_extended_connect0s0_0s1_0Bd_
FNDA:0,_RNCNCNCNvMs8_NtCsijo3INtYyGB_5lb_l78h2_proxyNtBb_7H2Proxy26handle_ws_extended_connect0s0_0s_0Bd_
FNDA:0,_RNCNCNCNvNtCsijo3INtYyGB_5lb_l78h2_proxy22drive_h2_upstream_send00s_0B9_
FNDA:0,_RNCNCNvMs8_NtCsijo3INtYyGB_5lb_l78h2_proxyNtB9_7H2Proxy12handle_inner00Bb_
FNDA:0,_RNCNCNvMs8_NtCsijo3INtYyGB_5lb_l78h2_proxyNtB9_7H2Proxy12handle_inner0s0_0Bb_
FNDA:0,_RNCNCNvMs8_NtCsijo3INtYyGB_5lb_l78h2_proxyNtB9_7H2Proxy12handle_inner0s1_0Bb_
FNDA:0,_RNCNCNvMs8_NtCsijo3INtYyGB_5lb_l78h2_proxyNtB9_7H2Proxy12handle_inner0s2_0Bb_
FNDA:0,_RNCNCNvMs8_NtCsijo3INtYyGB_5lb_l78h2_proxyNtB9_7H2Proxy12handle_inner0s3_0Bb_
FNDA:0,_RNCNCNvMs8_NtCsijo3INtYyGB_5lb_l78h2_proxyNtB9_7H2Proxy12handle_inner0s4_0Bb_
FNDA:0,_RNCNCNvMs8_NtCsijo3INtYyGB_5lb_l78h2_proxyNtB9_7H2Proxy12handle_inner0s5_0Bb_
FNDA:0,_RNCNCNvMs8_NtCsijo3INtYyGB_5lb_l78h2_proxyNtB9_7H2Proxy12handle_inner0s6_0Bb_
FNDA:0,_RNCNCNvMs8_NtCsijo3INtYyGB_5lb_l78h2_proxyNtB9_7H2Proxy12handle_inner0s7_0Bb_
FNDA:0,_RNCNCNvMs8_NtCsijo3INtYyGB_5lb_l78h2_proxyNtB9_7H2Proxy12handle_inner0s8_0Bb_
FNDA:0,_RNCNCNvMs8_NtCsijo3INtYyGB_5lb_l78h2_proxyNtB9_7H2Proxy12handle_inner0s_0Bb_
FNDA:0,_RNCNCNvMs8_NtCsijo3INtYyGB_5lb_l78h2_proxyNtB9_7H2Proxy13proxy_request00Bb_
FNDA:0,_RNCNCNvMs8_NtCsijo3INtYyGB_5lb_l78h2_proxyNtB9_7H2Proxy13proxy_request0s0_0Bb_
FNDA:0,_RNCNCNvMs8_NtCsijo3INtYyGB_5lb_l78h2_proxyNtB9_7H2Proxy13proxy_request0s1_0Bb_
FNDA:0,_RNCNCNvMs8_NtCsijo3INtYyGB_5lb_l78h2_proxyNtB9_7H2Proxy13proxy_request0s2_0Bb_
FNDA:0,_RNCNCNvMs8_NtCsijo3INtYyGB_5lb_l78h2_proxyNtB9_7H2Proxy13proxy_request0s3_0Bb_
FNDA:0,_RNCNCNvMs8_NtCsijo3INtYyGB_5lb_l78h2_proxyNtB9_7H2Proxy13proxy_request0s4_0Bb_
FNDA:0,_RNCNCNvMs8_NtCsijo3INtYyGB_5lb_l78h2_proxyNtB9_7H2Proxy13proxy_request0s5_0Bb_
FNDA:0,_RNCNCNvMs8_NtCsijo3INtYyGB_5lb_l78h2_proxyNtB9_7H2Proxy13proxy_request0s6_0Bb_
FNDA:0,_RNCNCNvMs8_NtCsijo3INtYyGB_5lb_l78h2_proxyNtB9_7H2Proxy13proxy_request0s7_0Bb_
FNDA:0,_RNCNCNvMs8_NtCsijo3INtYyGB_5lb_l78h2_proxyNtB9_7H2Proxy13proxy_request0s8_0Bb_
FNDA:0,_RNCNCNvMs8_NtCsijo3INtYyGB_5lb_l78h2_proxyNtB9_7H2Proxy13proxy_request0s_0Bb_
FNDA:0,_RNCNCNvMs8_NtCsijo3INtYyGB_5lb_l78h2_proxyNtB9_7H2Proxy14proxy_h2_to_h300Bb_
FNDA:0,_RNCNCNvMs8_NtCsijo3INtYyGB_5lb_l78h2_proxyNtB9_7H2Proxy14proxy_h2_to_h30s0_0Bb_
FNDA:0,_RNCNCNvMs8_NtCsijo3INtYyGB_5lb_l78h2_proxyNtB9_7H2Proxy14proxy_h2_to_h30s1_0Bb_
FNDA:0,_RNCNCNvMs8_NtCsijo3INtYyGB_5lb_l78h2_proxyNtB9_7H2Proxy14proxy_h2_to_h30s2_0Bb_
FNDA:0,_RNCNCNvMs8_NtCsijo3INtYyGB_5lb_l78h2_proxyNtB9_7H2Proxy14proxy_h2_to_h30s3_0Bb_
FNDA:0,_RNCNCNvMs8_NtCsijo3INtYyGB_5lb_l78h2_proxyNtB9_7H2Proxy14proxy_h2_to_h30s_0Bb_
FNDA:0,_RNCNCNvMs8_NtCsijo3INtYyGB_5lb_l78h2_proxyNtB9_7H2Proxy22proxy_h2_to_h2_request00Bb_
FNDA:0,_RNCNCNvMs8_NtCsijo3INtYyGB_5lb_l78h2_proxyNtB9_7H2Proxy22proxy_h2_to_h2_request0s0_0Bb_
FNDA:0,_RNCNCNvMs8_NtCsijo3INtYyGB_5lb_l78h2_proxyNtB9_7H2Proxy22proxy_h2_to_h2_request0s1_0Bb_
FNDA:0,_RNCNCNvMs8_NtCsijo3INtYyGB_5lb_l78h2_proxyNtB9_7H2Proxy22proxy_h2_to_h2_request0s_0Bb_
FNDA:0,_RNCNCNvMs8_NtCsijo3INtYyGB_5lb_l78h2_proxyNtB9_7H2Proxy26handle_ws_extended_connect00Bb_
FNDA:0,_RNCNCNvMs8_NtCsijo3INtYyGB_5lb_l78h2_proxyNtB9_7H2Proxy26handle_ws_extended_connect0s0_0Bb_
FNDA:0,_RNCNCNvMs8_NtCsijo3INtYyGB_5lb_l78h2_proxyNtB9_7H2Proxy26handle_ws_extended_connect0s1_0Bb_
FNDA:0,_RNCNCNvMs8_NtCsijo3INtYyGB_5lb_l78h2_proxyNtB9_7H2Proxy26handle_ws_extended_connect0s3_0Bb_
FNDA:0,_RNCNCNvMs8_NtCsijo3INtYyGB_5lb_l78h2_proxyNtB9_7H2Proxy26handle_ws_extended_connect0s_0Bb_
FNDA:0,_RNCNCNvNtCsijo3INtYyGB_5lb_l78h2_proxy22drive_h2_upstream_send00B7_
FNDA:0,_RNCNCNvNtCsijo3INtYyGB_5lb_l78h2_proxy24build_h2_to_h3_fieldlists1_00B7_
FNDA:0,_RNCNCNvNtCsijo3INtYyGB_5lb_l78h2_proxy24build_h2_to_h3_fieldlists4_00B7_
FNDA:0,_RNCNCNvNtCsijo3INtYyGB_5lb_l78h2_proxy31build_h2_upstream_request_partss1_00B7_
FNDA:0,_RNCNCNvNtCsijo3INtYyGB_5lb_l78h2_proxy31build_h2_upstream_request_partss3_00B7_
FNDA:0,_RNCNvMs8_NtCsijo3INtYyGB_5lb_l78h2_proxyNtB7_7H2Proxy12handle_inner0B9_
FNDA:0,_RNCNvMs8_NtCsijo3INtYyGB_5lb_l78h2_proxyNtB7_7H2Proxy13proxy_request0B9_
FNDA:0,_RNCNvMs8_NtCsijo3INtYyGB_5lb_l78h2_proxyNtB7_7H2Proxy14proxy_h2_to_h20B9_
FNDA:0,_RNCNvMs8_NtCsijo3INtYyGB_5lb_l78h2_proxyNtB7_7H2Proxy14proxy_h2_to_h30B9_
FNDA:0,_RNCNvMs8_NtCsijo3INtYyGB_5lb_l78h2_proxyNtB7_7H2Proxy17finalize_response0B9_
FNDA:0,_RNCNvMs8_NtCsijo3INtYyGB_5lb_l78h2_proxyNtB7_7H2Proxy22proxy_h2_to_h2_request0B9_
FNDA:0,_RNCNvMs8_NtCsijo3INtYyGB_5lb_l78h2_proxyNtB7_7H2Proxy26handle_ws_extended_connect0B9_
FNDA:0,_RNCNvMs8_NtCsijo3INtYyGB_5lb_l78h2_proxyNtB7_7H2Proxy6handle0B9_
FNDA:0,_RNCNvNtCsijo3INtYyGB_5lb_l78h2_proxy15split_host_port0B5_
FNDA:0,_RNCNvNtCsijo3INtYyGB_5lb_l78h2_proxy15split_host_ports_0B5_
FNDA:0,_RNCNvNtCsijo3INtYyGB_5lb_l78h2_proxy22drive_h2_upstream_send0B5_
FNDA:0,_RNCNvNtCsijo3INtYyGB_5lb_l78h2_proxy24build_h2_to_h3_fieldlist0B5_
FNDA:0,_RNCNvNtCsijo3INtYyGB_5lb_l78h2_proxy24build_h2_to_h3_fieldlists0_0B5_
FNDA:0,_RNCNvNtCsijo3INtYyGB_5lb_l78h2_proxy24build_h2_to_h3_fieldlists1_0B5_
FNDA:0,_RNCNvNtCsijo3INtYyGB_5lb_l78h2_proxy24build_h2_to_h3_fieldlists2_0B5_
FNDA:0,_RNCNvNtCsijo3INtYyGB_5lb_l78h2_proxy24build_h2_to_h3_fieldlists3_0B5_
FNDA:0,_RNCNvNtCsijo3INtYyGB_5lb_l78h2_proxy24build_h2_to_h3_fieldlists4_0B5_
FNDA:0,_RNCNvNtCsijo3INtYyGB_5lb_l78h2_proxy24build_h2_to_h3_fieldlists5_0B5_
FNDA:0,_RNCNvNtCsijo3INtYyGB_5lb_l78h2_proxy24build_h2_to_h3_fieldlists_0B5_
FNDA:0,_RNCNvNtCsijo3INtYyGB_5lb_l78h2_proxy26upstream_h2_response_to_h20B5_
FNDA:0,_RNCNvNtCsijo3INtYyGB_5lb_l78h2_proxy26upstream_h2_response_to_h2s_0B5_
FNDA:0,_RNCNvNtCsijo3INtYyGB_5lb_l78h2_proxy30check_authority_host_agreement0B5_
FNDA:0,_RNCNvNtCsijo3INtYyGB_5lb_l78h2_proxy31build_h2_upstream_request_parts0B5_
FNDA:0,_RNCNvNtCsijo3INtYyGB_5lb_l78h2_proxy31build_h2_upstream_request_partss0_0B5_
FNDA:0,_RNCNvNtCsijo3INtYyGB_5lb_l78h2_proxy31build_h2_upstream_request_partss1_0B5_
FNDA:0,_RNCNvNtCsijo3INtYyGB_5lb_l78h2_proxy31build_h2_upstream_request_partss2_0B5_
FNDA:0,_RNCNvNtCsijo3INtYyGB_5lb_l78h2_proxy31build_h2_upstream_request_partss3_0B5_
FNDA:0,_RNCNvNtCsijo3INtYyGB_5lb_l78h2_proxy31build_h2_upstream_request_partss4_0B5_
FNDA:0,_RNCNvNtCsijo3INtYyGB_5lb_l78h2_proxy31build_h2_upstream_request_partss5_0B5_
FNDA:0,_RNCNvNtCsijo3INtYyGB_5lb_l78h2_proxy31build_h2_upstream_request_partss_0B5_
FNDA:0,_RNCNvXs7_NtCsijo3INtYyGB_5lb_l78h2_proxyNtB7_12ProxyServiceINtNtNtCsgB3dp6qvXvn_5hyper7service7service7ServiceINtNtCsjFxw70quGA5_4http7request7RequestNtNtNtB12_4body8incoming8IncomingEE4call0B9_
FNDA:1,_RNvMs2_NtCsijo3INtYyGB_5lb_l78h2_proxyINtB5_12CleanCloseIoNtNCNvNtB5_5testss_31clean_close_io_drain_is_bounded09EndlessIoE3newB7_
FNDA:1,_RNvMs2_NtCsijo3INtYyGB_5lb_l78h2_proxyINtB5_12CleanCloseIoNtNCNvNtB5_5testss_53clean_close_io_does_not_resolve_while_peer_still_open06SharedE3newB7_
FNDA:1,_RNvMs2_NtCsijo3INtYyGB_5lb_l78h2_proxyINtB5_12CleanCloseIoNtNtB5_5tests5ProbeE3newB7_
FNDA:1,_RNvMs2_NtCsijo3INtYyGB_5lb_l78h2_proxyINtB5_12CleanCloseIoNtNtNtNtCsfWKKmeeA0Vo_5tokio2io4util3mem12DuplexStreamE3newB7_
FNDA:0,_RNvXs3_NtCsijo3INtYyGB_5lb_l78h2_proxyINtB5_12CleanCloseIoNtNtNtNtCsfWKKmeeA0Vo_5tokio2io4util3mem12DuplexStreamENtNtB10_10async_read9AsyncRead9poll_readB7_
FNDA:1,_RNvXs4_NtCsijo3INtYyGB_5lb_l78h2_proxyINtB5_12CleanCloseIoNtNCNvNtB5_5testss_31clean_close_io_drain_is_bounded09EndlessIoENtNtNtCsfWKKmeeA0Vo_5tokio2io11async_write10AsyncWrite13poll_shutdownB7_
FNDA:9,_RNvXs4_NtCsijo3INtYyGB_5lb_l78h2_proxyINtB5_12CleanCloseIoNtNCNvNtB5_5testss_53clean_close_io_does_not_resolve_while_peer_still_open06SharedENtNtNtCsfWKKmeeA0Vo_5tokio2io11async_write10AsyncWrite13poll_shutdownB7_
FNDA:1,_RNvXs4_NtCsijo3INtYyGB_5lb_l78h2_proxyINtB5_12CleanCloseIoNtNtB5_5tests5ProbeENtNtNtCsfWKKmeeA0Vo_5tokio2io11async_write10AsyncWrite13poll_shutdownB7_
FNDA:0,_RNvXs4_NtCsijo3INtYyGB_5lb_l78h2_proxyINtB5_12CleanCloseIoNtNtNtNtCsfWKKmeeA0Vo_5tokio2io4util3mem12DuplexStreamENtNtB10_11async_write10AsyncWrite10poll_flushB7_
FNDA:1,_RNvXs4_NtCsijo3INtYyGB_5lb_l78h2_proxyINtB5_12CleanCloseIoNtNtNtNtCsfWKKmeeA0Vo_5tokio2io4util3mem12DuplexStreamENtNtB10_11async_write10AsyncWrite10poll_writeB7_
FNDA:0,_RNvXs4_NtCsijo3INtYyGB_5lb_l78h2_proxyINtB5_12CleanCloseIoNtNtNtNtCsfWKKmeeA0Vo_5tokio2io4util3mem12DuplexStreamENtNtB10_11async_write10AsyncWrite13poll_shutdownB7_
FNDA:4,_RINvMs5_NtCscRJcA2zm81b_5lb_l78h2_proxyNtB6_7H2Proxy16serve_connectionNtNtNtNtCsfWKKmeeA0Vo_5tokio3net3tcp6stream9TcpStreamECshNrGFH5ArmH_25round8_authority_enforced
FNDA:4,_RINvMs5_NtCscRJcA2zm81b_5lb_l78h2_proxyNtB6_7H2Proxy28serve_connection_with_cancelNtNtNtNtCsfWKKmeeA0Vo_5tokio3net3tcp6stream9TcpStreamECshNrGFH5ArmH_25round8_authority_enforced
FNDA:4,_RINvMs5_NtCscRJcA2zm81b_5lb_l78h2_proxyNtB6_7H2Proxy32serve_connection_with_cancel_sniNtNtNtNtCsfWKKmeeA0Vo_5tokio3net3tcp6stream9TcpStreamECshNrGFH5ArmH_25round8_authority_enforced
FNDA:4,_RNCINvMs5_NtCscRJcA2zm81b_5lb_l78h2_proxyNtB8_7H2Proxy16serve_connectionNtNtNtNtCsfWKKmeeA0Vo_5tokio3net3tcp6stream9TcpStreamE0CshNrGFH5ArmH_25round8_authority_enforced
FNDA:4,_RNCINvMs5_NtCscRJcA2zm81b_5lb_l78h2_proxyNtB8_7H2Proxy28serve_connection_with_cancelNtNtNtNtCsfWKKmeeA0Vo_5tokio3net3tcp6stream9TcpStreamE0CshNrGFH5ArmH_25round8_authority_enforced
FNDA:4,_RNCINvMs5_NtCscRJcA2zm81b_5lb_l78h2_proxyNtB8_7H2Proxy32serve_connection_with_cancel_sniNtNtNtNtCsfWKKmeeA0Vo_5tokio3net3tcp6stream9TcpStreamE0CshNrGFH5ArmH_25round8_authority_enforced
FNDA:0,_RNCNCINvMs5_NtCscRJcA2zm81b_5lb_l78h2_proxyNtBa_7H2Proxy32serve_connection_with_cancel_sniNtNtNtNtCsfWKKmeeA0Vo_5tokio3net3tcp6stream9TcpStreamE00CshNrGFH5ArmH_25round8_authority_enforced
FNDA:0,_RNCNCNCINvMs5_NtCscRJcA2zm81b_5lb_l78h2_proxyNtBc_7H2Proxy32serve_connection_with_cancel_sniNtNtNtNtCsfWKKmeeA0Vo_5tokio3net3tcp6stream9TcpStreamE000CshNrGFH5ArmH_25round8_authority_enforced
FNDA:4,_RNvMs2_NtCscRJcA2zm81b_5lb_l78h2_proxyINtB5_12CleanCloseIoNtNtNtNtCsfWKKmeeA0Vo_5tokio3net3tcp6stream9TcpStreamE3newCshNrGFH5ArmH_25round8_authority_enforced
FNDA:26,_RNvXs3_NtCscRJcA2zm81b_5lb_l78h2_proxyINtB5_12CleanCloseIoNtNtNtNtCsfWKKmeeA0Vo_5tokio3net3tcp6stream9TcpStreamENtNtNtB12_2io10async_read9AsyncRead9poll_readCshNrGFH5ArmH_25round8_authority_enforced
FNDA:19,_RNvXs4_NtCscRJcA2zm81b_5lb_l78h2_proxyINtB5_12CleanCloseIoNtNtNtNtCsfWKKmeeA0Vo_5tokio3net3tcp6stream9TcpStreamENtNtNtB12_2io11async_write10AsyncWrite10poll_flushCshNrGFH5ArmH_25round8_authority_enforced
FNDA:16,_RNvXs4_NtCscRJcA2zm81b_5lb_l78h2_proxyINtB5_12CleanCloseIoNtNtNtNtCsfWKKmeeA0Vo_5tokio3net3tcp6stream9TcpStreamENtNtNtB12_2io11async_write10AsyncWrite10poll_writeCshNrGFH5ArmH_25round8_authority_enforced
FNDA:0,_RNvXs4_NtCscRJcA2zm81b_5lb_l78h2_proxyINtB5_12CleanCloseIoNtNtNtNtCsfWKKmeeA0Vo_5tokio3net3tcp6stream9TcpStreamENtNtNtB12_2io11async_write10AsyncWrite13poll_shutdownCshNrGFH5ArmH_25round8_authority_enforced
FNDA:1,_RINvMs5_NtCscRJcA2zm81b_5lb_l78h2_proxyNtB6_7H2Proxy16serve_connectionNtNtNtNtCsfWKKmeeA0Vo_5tokio3net3tcp6stream9TcpStreamECszCkIpWOTQT_24round8_glitches_enforced
FNDA:1,_RINvMs5_NtCscRJcA2zm81b_5lb_l78h2_proxyNtB6_7H2Proxy28serve_connection_with_cancelNtNtNtNtCsfWKKmeeA0Vo_5tokio3net3tcp6stream9TcpStreamECszCkIpWOTQT_24round8_glitches_enforced
FNDA:1,_RINvMs5_NtCscRJcA2zm81b_5lb_l78h2_proxyNtB6_7H2Proxy32serve_connection_with_cancel_sniNtNtNtNtCsfWKKmeeA0Vo_5tokio3net3tcp6stream9TcpStreamECszCkIpWOTQT_24round8_glitches_enforced
FNDA:1,_RNCINvMs5_NtCscRJcA2zm81b_5lb_l78h2_proxyNtB8_7H2Proxy16serve_connectionNtNtNtNtCsfWKKmeeA0Vo_5tokio3net3tcp6stream9TcpStreamE0CszCkIpWOTQT_24round8_glitches_enforced
FNDA:1,_RNCINvMs5_NtCscRJcA2zm81b_5lb_l78h2_proxyNtB8_7H2Proxy28serve_connection_with_cancelNtNtNtNtCsfWKKmeeA0Vo_5tokio3net3tcp6stream9TcpStreamE0CszCkIpWOTQT_24round8_glitches_enforced
FNDA:1,_RNCINvMs5_NtCscRJcA2zm81b_5lb_l78h2_proxyNtB8_7H2Proxy32serve_connection_with_cancel_sniNtNtNtNtCsfWKKmeeA0Vo_5tokio3net3tcp6stream9TcpStreamE0CszCkIpWOTQT_24round8_glitches_enforced
FNDA:1,_RNCNCINvMs5_NtCscRJcA2zm81b_5lb_l78h2_proxyNtBa_7H2Proxy32serve_connection_with_cancel_sniNtNtNtNtCsfWKKmeeA0Vo_5tokio3net3tcp6stream9TcpStreamE00CszCkIpWOTQT_24round8_glitches_enforced
FNDA:1,_RNCNCNCINvMs5_NtCscRJcA2zm81b_5lb_l78h2_proxyNtBc_7H2Proxy32serve_connection_with_cancel_sniNtNtNtNtCsfWKKmeeA0Vo_5tokio3net3tcp6stream9TcpStreamE000CszCkIpWOTQT_24round8_glitches_enforced
FNDA:1,_RNvMs2_NtCscRJcA2zm81b_5lb_l78h2_proxyINtB5_12CleanCloseIoNtNtNtNtCsfWKKmeeA0Vo_5tokio3net3tcp6stream9TcpStreamE3newCszCkIpWOTQT_24round8_glitches_enforced
FNDA:15,_RNvXs3_NtCscRJcA2zm81b_5lb_l78h2_proxyINtB5_12CleanCloseIoNtNtNtNtCsfWKKmeeA0Vo_5tokio3net3tcp6stream9TcpStreamENtNtNtB12_2io10async_read9AsyncRead9poll_readCszCkIpWOTQT_24round8_glitches_enforced
FNDA:11,_RNvXs4_NtCscRJcA2zm81b_5lb_l78h2_proxyINtB5_12CleanCloseIoNtNtNtNtCsfWKKmeeA0Vo_5tokio3net3tcp6stream9TcpStreamENtNtNtB12_2io11async_write10AsyncWrite10poll_flushCszCkIpWOTQT_24round8_glitches_enforced
FNDA:6,_RNvXs4_NtCscRJcA2zm81b_5lb_l78h2_proxyINtB5_12CleanCloseIoNtNtNtNtCsfWKKmeeA0Vo_5tokio3net3tcp6stream9TcpStreamENtNtNtB12_2io11async_write10AsyncWrite10poll_writeCszCkIpWOTQT_24round8_glitches_enforced
FNDA:0,_RNvXs4_NtCscRJcA2zm81b_5lb_l78h2_proxyINtB5_12CleanCloseIoNtNtNtNtCsfWKKmeeA0Vo_5tokio3net3tcp6stream9TcpStreamENtNtNtB12_2io11async_write10AsyncWrite13poll_shutdownCszCkIpWOTQT_24round8_glitches_enforced
FNF:171
FNH:65
DA:111,0
DA:112,0
DA:113,0
DA:132,0
DA:133,0
DA:134,0
DA:346,9
DA:347,9
DA:348,9
DA:349,9
DA:350,9
DA:351,9
DA:352,9
DA:353,9
DA:354,9
DA:358,41
DA:359,41
DA:360,41
DA:361,41
DA:362,41
DA:363,41
DA:364,41
DA:368,23
DA:369,23
DA:370,23
DA:371,23
DA:372,23
DA:373,23
DA:374,23
DA:376,30
DA:377,30
DA:378,30
DA:380,11
DA:381,11
DA:382,11
DA:383,11
DA:384,11
DA:385,11
DA:386,11
DA:387,11
DA:388,11
DA:389,11
DA:390,11
DA:391,11
DA:392,3
DA:393,3
DA:394,3
DA:395,3
DA:396,8
DA:406,11
DA:407,11
DA:409,93
DA:410,1
DA:411,92
DA:412,92
DA:413,92
DA:414,0
DA:416,92
DA:417,92
DA:419,84
DA:420,84
DA:424,2
DA:425,82
DA:426,82
DA:430,0
DA:441,8
DA:442,8
DA:443,0
DA:444,8
DA:446,0
DA:451,3
DA:452,0
DA:453,3
DA:454,11
DA:467,6
DA:468,6
DA:469,6
DA:470,6
DA:471,6
DA:472,6
DA:473,6
DA:474,6
DA:475,6
DA:476,6
DA:477,6
DA:478,6
DA:479,6
DA:480,6
DA:481,6
DA:482,6
DA:489,6
DA:490,6
DA:491,6
DA:492,6
DA:493,6
DA:494,6
DA:495,6
DA:496,6
DA:497,6
DA:498,6
DA:499,6
DA:500,6
DA:501,6
DA:502,6
DA:503,6
DA:504,6
DA:505,6
DA:506,6
DA:507,6
DA:508,6
DA:509,6
DA:510,6
DA:511,6
DA:512,6
DA:513,6
DA:514,6
DA:515,6
DA:516,6
DA:517,6
DA:518,6
DA:528,0
DA:529,0
DA:530,0
DA:531,0
DA:532,0
DA:533,0
DA:534,0
DA:535,0
DA:536,0
DA:537,0
DA:538,0
DA:539,0
DA:540,0
DA:541,0
DA:542,0
DA:543,0
DA:544,0
DA:545,0
DA:546,0
DA:547,0
DA:548,0
DA:549,0
DA:550,0
DA:551,0
DA:552,0
DA:553,0
DA:554,0
DA:555,0
DA:556,0
DA:563,0
DA:564,0
DA:565,0
DA:566,0
DA:574,0
DA:575,0
DA:576,0
DA:577,0
DA:598,1
DA:599,1
DA:600,1
DA:601,1
DA:602,1
DA:603,1
DA:604,0
DA:606,1
DA:608,1
DA:609,1
DA:610,1
DA:619,0
DA:620,0
DA:621,0
DA:622,0
DA:630,0
DA:631,0
DA:632,0
DA:633,0
DA:634,0
DA:635,0
DA:636,0
DA:641,0
DA:642,0
DA:643,0
DA:644,0
DA:649,0
DA:650,0
DA:651,0
DA:652,0
DA:657,0
DA:658,0
DA:659,0
DA:664,0
DA:665,0
DA:666,0
DA:676,1
DA:677,1
DA:678,1
DA:679,1
DA:687,1
DA:688,1
DA:689,1
DA:690,1
DA:701,1
DA:702,1
DA:703,1
DA:704,1
DA:705,1
DA:719,5
DA:720,5
DA:721,5
DA:722,5
DA:723,5
DA:724,5
DA:725,5
DA:726,5
DA:727,5
DA:728,0
DA:748,6
DA:749,6
DA:750,6
DA:751,6
DA:752,6
DA:753,6
DA:754,6
DA:755,6
DA:756,6
DA:757,6
DA:758,6
DA:759,6
DA:760,6
DA:761,6
DA:762,1
DA:771,6
DA:772,6
DA:773,6
DA:774,6
DA:775,6
DA:776,6
DA:777,6
DA:778,6
DA:779,6
DA:780,6
DA:781,6
DA:782,6
DA:783,6
DA:784,6
DA:785,6
DA:786,6
DA:787,6
DA:788,6
DA:789,6
DA:790,6
DA:791,6
DA:792,6
DA:793,1
DA:794,1
DA:795,1
DA:796,1
DA:797,1
DA:798,1
DA:799,1
DA:800,1
DA:801,1
DA:802,1
DA:803,1
DA:804,1
DA:805,1
DA:806,1
DA:807,1
DA:808,1
DA:809,6
DA:810,6
DA:811,6
DA:812,6
DA:813,6
DA:814,6
DA:815,6
DA:816,6
DA:817,6
DA:818,6
DA:819,6
DA:820,6
DA:821,6
DA:822,6
DA:823,6
DA:824,6
DA:825,6
DA:826,6
DA:827,6
DA:828,6
DA:829,6
DA:830,6
DA:831,6
DA:832,6
DA:833,6
DA:834,6
DA:835,6
DA:836,6
DA:837,6
DA:838,6
DA:839,6
DA:840,6
DA:841,6
DA:842,1
DA:843,5
DA:850,6
DA:851,6
DA:852,6
DA:853,6
DA:854,6
DA:855,6
DA:856,6
DA:857,6
DA:858,6
DA:859,6
DA:863,6
DA:867,2
DA:868,2
DA:869,2
DA:870,2
DA:871,2
DA:872,0
DA:873,1
DA:874,0
DA:875,0
DA:876,0
DA:877,0
DA:880,6
DA:881,0
DA:882,0
DA:884,6
DA:885,0
DA:886,0
DA:887,0
DA:889,1
DA:913,3
DA:914,3
DA:915,3
DA:916,3
DA:917,3
DA:918,3
DA:919,3
DA:920,3
DA:921,3
DA:922,1
DA:923,1
DA:925,2
DA:927,3
DA:961,7
DA:962,7
DA:963,7
DA:964,7
DA:965,7
DA:966,7
DA:967,7
DA:968,7
DA:969,7
DA:981,7
DA:982,7
DA:983,7
DA:984,7
DA:985,7
DA:986,7
DA:987,7
DA:989,7
DA:990,7
DA:991,7
DA:992,7
DA:993,7
DA:994,7
DA:995,7
DA:996,7
DA:997,7
DA:998,7
DA:999,7
DA:1000,7
DA:1001,7
DA:1002,7
DA:1003,7
DA:1004,7
DA:1005,7
DA:1006,7
DA:1007,7
DA:1008,7
DA:1009,7
DA:1010,7
DA:1011,7
DA:1013,7
DA:1014,7
DA:1015,7
DA:1016,7
DA:1017,7
DA:1018,7
DA:1019,7
DA:1032,7
DA:1033,6
DA:1037,0
DA:1041,6
DA:1042,3
DA:1043,3
DA:1044,6
DA:1045,1
DA:1046,1
DA:1047,1
DA:1048,1
DA:1049,1
DA:1050,1
DA:1051,1
DA:1052,1
DA:1053,1
DA:1054,1
DA:1055,1
DA:1056,0
DA:1057,0
DA:1058,0
DA:1059,0
DA:1061,0
DA:1062,1
DA:1063,1
DA:1064,1
DA:1065,1
DA:1066,1
DA:1073,0
DA:1074,0
DA:1076,0
DA:1077,0
DA:1078,0
DA:1079,0
DA:1080,0
DA:1081,0
DA:1084,0
DA:1085,0
DA:1086,0
DA:1087,0
DA:1088,0
DA:1089,0
DA:1090,0
DA:1091,1
DA:1092,1
DA:1093,1
DA:1094,1
DA:1095,1
DA:1096,1
DA:1097,1
DA:1098,1
DA:1099,1
DA:1101,1
DA:1102,1
DA:1103,1
DA:1104,1
DA:1110,0
DA:1111,0
DA:1112,0
DA:1113,0
DA:1114,0
DA:1115,0
DA:1116,0
DA:1117,1
DA:1120,0
DA:1121,0
DA:1122,0
DA:1123,0
DA:1124,0
DA:1125,0
DA:1127,0
DA:1129,0
DA:1130,0
DA:1131,0
DA:1132,0
DA:1133,0
DA:1135,0
DA:1142,1
DA:1143,1
DA:1144,1
DA:1145,1
DA:1146,1
DA:1147,2
DA:1148,1
DA:1149,1
DA:1150,1
DA:1152,1
DA:1153,0
DA:1154,1
DA:1155,1
DA:1156,1
DA:1157,1
DA:1158,1
DA:1159,1
DA:1160,1
DA:1161,1
DA:1162,1
DA:1163,1
DA:1164,1
DA:1165,1
DA:1166,1
DA:1167,1
DA:1168,1
DA:1169,1
DA:1170,1
DA:1171,1
DA:1172,0
DA:1177,0
DA:1178,0
DA:1179,0
DA:1180,0
DA:1181,1
DA:1194,1
DA:1195,0
DA:1198,0
DA:1199,0
DA:1200,0
DA:1201,0
DA:1202,1
DA:1203,1
DA:1204,1
DA:1205,1
DA:1206,1
DA:1207,1
DA:1208,1
DA:1209,1
DA:1210,1
DA:1211,1
DA:1212,1
DA:1213,1
DA:1214,1
DA:1215,1
DA:1216,0
DA:1217,0
DA:1218,0
DA:1219,0
DA:1220,0
DA:1221,0
DA:1222,0
DA:1223,0
DA:1224,0
DA:1225,0
DA:1226,0
DA:1227,0
DA:1228,0
DA:1230,0
DA:1234,0
DA:1238,0
DA:1239,0
DA:1240,0
DA:1241,0
DA:1242,0
DA:1243,0
DA:1244,1
DA:1248,1
DA:1249,0
DA:1250,0
DA:1251,0
DA:1252,0
DA:1253,0
DA:1254,0
DA:1255,0
DA:1256,0
DA:1257,0
DA:1258,0
DA:1259,0
DA:1260,0
DA:1261,0
DA:1262,0
DA:1263,0
DA:1264,0
DA:1265,0
DA:1266,1
DA:1267,1
DA:1268,1
DA:1269,1
DA:1270,1
DA:1271,1
DA:1272,1
DA:1273,1
DA:1274,1
DA:1275,1
DA:1276,0
DA:1277,0
DA:1278,0
DA:1279,0
DA:1280,0
DA:1281,1
DA:1282,1
DA:1283,1
DA:1284,1
DA:1285,1
DA:1286,1
DA:1287,1
DA:1288,1
DA:1289,1
DA:1290,1
DA:1291,1
DA:1292,1
DA:1293,1
DA:1294,1
DA:1295,1
DA:1296,1
DA:1297,1
DA:1298,1
DA:1299,1
DA:1300,0
DA:1301,0
DA:1302,1
DA:1305,1
DA:1306,0
DA:1309,1
DA:1310,1
DA:1311,0
DA:1312,1
DA:1314,0
DA:1318,0
DA:1319,0
DA:1320,0
DA:1321,0
DA:1326,0
DA:1328,0
DA:1329,0
DA:1333,1
DA:1334,0
DA:1335,1
DA:1336,1
DA:1337,7
DA:1363,0
DA:1364,0
DA:1365,0
DA:1366,0
DA:1367,0
DA:1368,0
DA:1370,0
DA:1371,0
DA:1373,0
DA:1374,0
DA:1375,0
DA:1376,0
DA:1377,0
DA:1378,0
DA:1379,0
DA:1399,0
DA:1400,0
DA:1401,0
DA:1402,0
DA:1404,0
DA:1405,0
DA:1406,0
DA:1407,0
DA:1408,0
DA:1410,0
DA:1411,0
DA:1412,0
DA:1413,0
DA:1414,0
DA:1415,0
DA:1416,0
DA:1417,0
DA:1418,0
DA:1419,0
DA:1420,0
DA:1421,0
DA:1422,0
DA:1423,0
DA:1424,0
DA:1425,0
DA:1426,0
DA:1427,0
DA:1428,0
DA:1429,0
DA:1430,0
DA:1431,0
DA:1432,0
DA:1433,0
DA:1434,0
DA:1435,0
DA:1436,0
DA:1437,0
DA:1438,0
DA:1439,0
DA:1440,0
DA:1441,0
DA:1442,0
DA:1443,0
DA:1444,0
DA:1445,0
DA:1446,0
DA:1447,0
DA:1448,0
DA:1449,0
DA:1450,0
DA:1451,0
DA:1452,0
DA:1453,0
DA:1454,0
DA:1455,0
DA:1456,0
DA:1457,0
DA:1462,0
DA:1463,0
DA:1464,0
DA:1465,0
DA:1466,0
DA:1467,0
DA:1468,0
DA:1469,0
DA:1470,0
DA:1471,0
DA:1472,0
DA:1473,0
DA:1474,0
DA:1475,0
DA:1476,0
DA:1477,0
DA:1478,0
DA:1479,0
DA:1480,0
DA:1482,0
DA:1483,0
DA:1484,0
DA:1485,0
DA:1486,0
DA:1487,0
DA:1488,0
DA:1489,0
DA:1491,0
DA:1492,0
DA:1493,0
DA:1494,0
DA:1495,0
DA:1496,0
DA:1498,0
DA:1499,0
DA:1500,0
DA:1501,0
DA:1502,0
DA:1503,0
DA:1513,0
DA:1514,0
DA:1515,0
DA:1516,0
DA:1517,0
DA:1518,0
DA:1519,0
DA:1520,0
DA:1521,0
DA:1524,0
DA:1525,0
DA:1526,0
DA:1527,0
DA:1528,0
DA:1529,0
DA:1530,0
DA:1531,0
DA:1532,0
DA:1533,0
DA:1534,0
DA:1535,0
DA:1536,0
DA:1537,0
DA:1538,0
DA:1539,0
DA:1541,1
DA:1542,1
DA:1543,1
DA:1544,1
DA:1545,1
DA:1546,1
DA:1547,1
DA:1548,1
DA:1549,1
DA:1550,1
DA:1551,1
DA:1552,1
DA:1553,1
DA:1554,1
DA:1555,1
DA:1556,1
DA:1557,1
DA:1558,1
DA:1559,1
DA:1560,1
DA:1561,1
DA:1562,1
DA:1563,1
DA:1564,1
DA:1565,1
DA:1566,1
DA:1567,1
DA:1568,1
DA:1569,1
DA:1570,1
DA:1571,1
DA:1572,1
DA:1604,1
DA:1605,1
DA:1606,1
DA:1607,1
DA:1608,1
DA:1609,1
DA:1610,1
DA:1617,1
DA:1618,1
DA:1619,1
DA:1620,1
DA:1621,1
DA:1622,1
DA:1623,0
DA:1624,1
DA:1625,1
DA:1626,1
DA:1636,1
DA:1637,1
DA:1638,1
DA:1639,0
DA:1640,0
DA:1641,0
DA:1642,0
DA:1643,0
DA:1644,0
DA:1646,0
DA:1647,0
DA:1651,0
DA:1652,0
DA:1653,0
DA:1654,0
DA:1655,0
DA:1656,0
DA:1657,0
DA:1658,0
DA:1659,0
DA:1662,0
DA:1663,0
DA:1664,0
DA:1665,0
DA:1667,0
DA:1668,0
DA:1669,0
DA:1670,0
DA:1671,0
DA:1672,0
DA:1673,0
DA:1674,0
DA:1675,0
DA:1680,1
DA:1686,1
DA:1688,0
DA:1689,1
DA:1690,1
DA:1691,1
DA:1692,0
DA:1693,0
DA:1694,0
DA:1695,0
DA:1696,0
DA:1697,0
DA:1698,0
DA:1699,0
DA:1700,0
DA:1701,0
DA:1702,0
DA:1703,0
DA:1704,0
DA:1705,0
DA:1706,0
DA:1707,0
DA:1708,0
DA:1709,0
DA:1716,0
DA:1717,0
DA:1718,0
DA:1719,0
DA:1720,0
DA:1723,0
DA:1724,0
DA:1727,0
DA:1728,0
DA:1729,0
DA:1733,0
DA:1734,0
DA:1735,0
DA:1736,0
DA:1737,0
DA:1738,0
DA:1739,0
DA:1740,0
DA:1746,0
DA:1747,0
DA:1748,0
DA:1749,0
DA:1750,0
DA:1751,0
DA:1752,0
DA:1753,0
DA:1754,0
DA:1755,0
DA:1756,0
DA:1757,0
DA:1758,0
DA:1759,0
DA:1760,0
DA:1761,0
DA:1762,0
DA:1763,0
DA:1764,0
DA:1765,0
DA:1766,0
DA:1767,0
DA:1768,0
DA:1769,0
DA:1770,0
DA:1771,0
DA:1772,0
DA:1773,0
DA:1774,0
DA:1775,0
DA:1776,0
DA:1777,0
DA:1778,0
DA:1779,0
DA:1780,0
DA:1781,0
DA:1782,0
DA:1783,0
DA:1784,0
DA:1785,0
DA:1786,0
DA:1787,0
DA:1788,0
DA:1789,0
DA:1790,0
DA:1791,0
DA:1792,0
DA:1793,0
DA:1794,0
DA:1795,0
DA:1796,0
DA:1797,0
DA:1798,0
DA:1799,0
DA:1800,0
DA:1801,0
DA:1802,0
DA:1803,0
DA:1804,0
DA:1805,0
DA:1806,0
DA:1807,0
DA:1808,0
DA:1809,0
DA:1810,0
DA:1811,0
DA:1812,0
DA:1813,0
DA:1814,0
DA:1815,0
DA:1816,0
DA:1817,0
DA:1818,0
DA:1819,0
DA:1820,0
DA:1821,0
DA:1827,0
DA:1828,0
DA:1829,0
DA:1830,0
DA:1913,0
DA:1935,0
DA:1936,0
DA:1939,0
DA:1940,0
DA:1941,0
DA:1945,0
DA:1970,0
DA:1971,0
DA:1972,0
DA:1973,0
DA:1974,0
DA:1975,0
DA:1976,0
DA:1977,0
DA:1978,0
DA:1984,0
DA:1985,0
DA:1986,0
DA:1987,0
DA:1988,0
DA:1989,0
DA:1991,0
DA:1993,0
DA:1994,0
DA:1997,0
DA:1999,0
DA:2002,0
DA:2003,0
DA:2004,0
DA:2005,0
DA:2007,0
DA:2008,0
DA:2009,0
DA:2010,0
DA:2011,0
DA:2012,0
DA:2013,0
DA:2014,0
DA:2017,0
DA:2018,0
DA:2019,0
DA:2020,0
DA:2028,0
DA:2029,0
DA:2030,0
DA:2031,0
DA:2032,0
DA:2036,0
DA:2037,0
DA:2038,0
DA:2039,0
DA:2041,0
DA:2042,0
DA:2043,0
DA:2044,0
DA:2045,0
DA:2046,0
DA:2047,0
DA:2048,0
DA:2049,0
DA:2050,0
DA:2051,0
DA:2052,0
DA:2053,0
DA:2054,0
DA:2055,0
DA:2056,0
DA:2060,0
DA:2061,0
DA:2062,0
DA:2063,0
DA:2064,0
DA:2065,0
DA:2066,0
DA:2067,0
DA:2068,0
DA:2069,0
DA:2070,0
DA:2071,0
DA:2072,0
DA:2073,0
DA:2074,0
DA:2075,0
DA:2076,0
DA:2077,0
DA:2078,0
DA:2079,0
DA:2081,0
DA:2082,0
DA:2095,0
DA:2096,0
DA:2097,0
DA:2102,0
DA:2104,0
DA:2105,0
DA:2106,0
DA:2107,0
DA:2108,0
DA:2110,0
DA:2111,0
DA:2112,0
DA:2113,0
DA:2114,0
DA:2115,0
DA:2116,0
DA:2122,0
DA:2124,0
DA:2125,0
DA:2127,0
DA:2128,0
DA:2129,0
DA:2130,0
DA:2131,0
DA:2136,0
DA:2137,0
DA:2138,0
DA:2139,0
DA:2142,1
DA:2144,0
DA:2145,0
DA:2146,0
DA:2147,0
DA:2148,0
DA:2149,0
DA:2150,0
DA:2151,0
DA:2153,0
DA:2154,0
DA:2155,0
DA:2156,0
DA:2157,0
DA:2158,0
DA:2176,0
DA:2177,0
DA:2178,0
DA:2179,0
DA:2180,0
DA:2181,0
DA:2182,0
DA:2183,0
DA:2184,0
DA:2185,0
DA:2187,0
DA:2188,0
DA:2189,0
DA:2191,0
DA:2192,0
DA:2194,0
DA:2197,0
DA:2198,0
DA:2199,0
DA:2200,0
DA:2204,0
DA:2206,0
DA:2215,0
DA:2216,0
DA:2217,0
DA:2218,0
DA:2219,0
DA:2220,0
DA:2225,0
DA:2226,0
DA:2237,0
DA:2238,0
DA:2239,0
DA:2247,0
DA:2248,0
DA:2249,0
DA:2250,0
DA:2255,0
DA:2256,0
DA:2257,0
DA:2258,0
DA:2259,0
DA:2260,0
DA:2261,0
DA:2267,0
DA:2268,0
DA:2269,0
DA:2270,0
DA:2271,0
DA:2272,0
DA:2273,0
DA:2274,0
DA:2275,0
DA:2277,0
DA:2278,0
DA:2279,0
DA:2280,0
DA:2281,0
DA:2282,0
DA:2283,0
DA:2284,0
DA:2285,0
DA:2286,0
DA:2287,0
DA:2288,0
DA:2289,0
DA:2290,0
DA:2292,0
DA:2293,0
DA:2294,0
DA:2295,0
DA:2296,0
DA:2297,0
DA:2302,0
DA:2307,0
DA:2309,0
DA:2310,0
DA:2311,0
DA:2312,0
DA:2313,0
DA:2314,0
DA:2315,0
DA:2316,0
DA:2317,0
DA:2318,0
DA:2319,0
DA:2320,0
DA:2321,0
DA:2323,0
DA:2324,0
DA:2325,0
DA:2326,0
DA:2327,0
DA:2328,0
DA:2329,0
DA:2330,0
DA:2331,0
DA:2332,0
DA:2333,0
DA:2334,0
DA:2335,0
DA:2336,0
DA:2337,0
DA:2338,0
DA:2339,0
DA:2340,0
DA:2341,0
DA:2342,0
DA:2343,0
DA:2344,0
DA:2345,0
DA:2346,0
DA:2347,0
DA:2348,0
DA:2349,0
DA:2350,0
DA:2351,0
DA:2352,0
DA:2353,0
DA:2354,0
DA:2355,0
DA:2356,0
DA:2357,0
DA:2358,0
DA:2359,0
DA:2360,0
DA:2361,0
DA:2362,0
DA:2363,0
DA:2364,0
DA:2365,0
DA:2366,0
DA:2367,0
DA:2368,0
DA:2369,0
DA:2370,0
DA:2371,0
DA:2372,0
DA:2373,0
DA:2374,0
DA:2375,0
DA:2376,0
DA:2377,0
DA:2378,0
DA:2380,0
DA:2381,0
DA:2433,0
DA:2486,0
DA:2487,0
DA:2488,0
DA:2489,0
DA:2490,0
DA:2494,0
DA:2499,0
DA:2500,0
DA:2501,0
DA:2502,0
DA:2503,0
DA:2504,0
DA:2505,0
DA:2506,0
DA:2507,0
DA:2508,0
DA:2509,0
DA:2510,0
DA:2512,0
DA:2514,0
DA:2515,0
DA:2516,0
DA:2518,0
DA:2521,0
DA:2522,0
DA:2523,0
DA:2524,0
DA:2526,0
DA:2527,0
DA:2528,0
DA:2529,0
DA:2532,0
DA:2533,0
DA:2534,0
DA:2535,0
DA:2536,0
DA:2537,0
DA:2538,0
DA:2539,0
DA:2540,0
DA:2541,0
DA:2542,0
DA:2543,0
DA:2544,0
DA:2546,0
DA:2547,0
DA:2548,0
DA:2549,0
DA:2550,0
DA:2551,0
DA:2555,0
DA:2556,0
DA:2557,0
DA:2558,0
DA:2559,0
DA:2560,0
DA:2561,0
DA:2562,0
DA:2563,0
DA:2564,0
DA:2565,0
DA:2566,0
DA:2567,0
DA:2568,0
DA:2569,0
DA:2570,0
DA:2571,0
DA:2572,0
DA:2573,0
DA:2574,0
DA:2575,0
DA:2576,0
DA:2577,0
DA:2612,0
DA:2613,0
DA:2614,0
DA:2615,0
DA:2616,0
DA:2621,0
DA:2622,0
DA:2623,0
DA:2624,0
DA:2625,0
DA:2627,0
DA:2628,0
DA:2629,0
DA:2630,0
DA:2631,0
DA:2632,0
DA:2633,0
DA:2634,0
DA:2635,0
DA:2636,0
DA:2644,0
DA:2645,0
DA:2646,0
DA:2647,0
DA:2648,0
DA:2649,0
DA:2650,0
DA:2651,0
DA:2652,0
DA:2653,0
DA:2654,0
DA:2655,0
DA:2656,0
DA:2657,0
DA:2658,0
DA:2659,0
DA:2660,0
DA:2661,0
DA:2662,0
DA:2663,0
DA:2664,0
DA:2665,0
DA:2666,0
DA:2667,0
DA:2668,0
DA:2669,0
DA:2670,0
DA:2671,0
DA:2700,0
DA:2711,0
DA:2712,0
DA:2713,0
DA:2714,0
DA:2715,0
DA:2716,0
DA:2718,0
DA:2720,0
DA:2722,0
DA:2723,0
DA:2729,0
DA:2730,0
DA:2731,0
DA:2732,0
DA:2735,0
DA:2738,0
DA:2739,0
DA:2740,0
DA:2745,0
DA:2746,0
DA:2747,0
DA:2748,0
DA:2749,0
DA:2750,0
DA:2753,0
DA:2754,0
DA:2755,0
DA:2757,0
DA:2758,0
DA:2759,0
DA:2760,0
DA:2761,0
DA:2762,0
DA:2766,0
DA:2767,0
DA:2768,0
DA:2769,0
DA:2770,0
DA:2771,0
DA:2772,0
DA:2773,0
DA:2774,0
DA:2775,0
DA:2776,0
DA:2777,0
DA:2778,0
DA:2779,0
DA:2780,0
DA:2781,0
DA:2782,0
DA:2783,0
DA:2784,0
DA:2785,0
DA:2786,0
DA:2787,0
DA:2788,0
DA:2789,0
DA:2790,0
DA:2791,0
DA:2792,0
DA:2793,0
DA:2794,0
DA:2795,0
DA:2796,0
DA:2797,0
DA:2798,0
DA:2799,0
DA:2800,0
DA:2801,0
DA:2802,0
DA:2803,0
DA:2804,0
DA:2805,0
DA:2806,0
DA:2807,0
DA:2808,0
DA:2809,0
DA:2810,0
DA:2811,0
DA:2812,0
DA:2813,0
DA:2814,0
DA:2816,0
DA:2817,0
DA:2818,0
DA:2819,0
DA:2820,0
DA:2821,0
DA:2822,0
DA:2823,0
DA:2824,0
DA:2826,0
DA:2828,0
DA:2831,0
DA:2832,0
DA:2837,0
DA:2838,0
DA:2842,0
DA:2843,0
DA:2844,0
DA:2845,0
DA:2846,0
DA:2847,0
DA:2848,0
DA:2849,0
DA:2850,0
DA:2851,0
DA:2852,0
DA:2853,0
DA:2854,0
DA:2855,0
DA:2856,0
DA:2857,0
DA:2858,0
DA:2859,0
DA:2860,0
DA:2861,0
DA:2862,0
DA:2863,0
DA:2864,0
DA:2865,0
DA:2870,0
DA:2871,0
DA:2872,0
DA:2873,0
DA:2874,0
DA:2875,0
DA:2879,0
DA:2880,0
DA:2881,0
DA:2884,0
DA:2905,0
DA:2906,0
DA:2907,0
DA:2908,0
DA:2909,0
DA:2910,0
DA:2911,0
DA:2912,0
DA:2913,0
DA:2914,0
DA:2915,0
DA:2916,0
DA:2917,0
DA:2918,0
DA:2919,0
DA:2920,0
DA:2921,0
DA:2922,0
DA:2923,0
DA:2924,0
DA:2925,0
DA:2926,0
DA:2927,0
DA:2928,0
DA:2929,0
DA:2930,0
DA:2931,0
DA:2932,0
DA:2933,0
DA:2934,0
DA:2935,0
DA:2936,0
DA:2937,0
DA:2938,0
DA:2939,0
DA:2940,0
DA:2941,0
DA:2942,0
DA:2943,0
DA:2944,0
DA:2945,0
DA:2946,0
DA:2947,0
DA:2948,0
DA:2949,0
DA:2950,0
DA:2951,0
DA:2952,0
DA:2953,0
DA:2954,0
DA:2955,0
DA:2956,0
DA:2957,0
DA:2958,0
DA:2959,0
DA:2960,0
DA:2962,0
DA:2963,0
DA:2964,0
DA:2966,0
DA:2967,0
DA:2968,0
DA:2969,0
DA:2970,0
DA:2971,0
DA:2972,0
DA:2973,0
DA:2974,0
DA:2975,0
DA:2976,0
DA:2977,0
DA:2979,0
DA:2980,0
DA:2981,0
DA:2982,0
DA:2983,0
DA:2984,0
DA:3003,1
DA:3004,1
DA:3005,1
DA:3006,1
DA:3007,1
DA:3008,2
DA:3009,1
DA:3010,0
DA:3011,1
DA:3012,1
DA:3013,1
DA:3014,1
DA:3016,0
DA:3017,1
DA:3018,1
DA:3028,1
DA:3029,1
DA:3030,1
DA:3031,1
DA:3032,1
DA:3033,0
DA:3034,0
DA:3035,0
DA:3036,0
DA:3037,0
DA:3038,0
DA:3039,0
DA:3040,0
DA:3041,0
DA:3043,1
DA:3044,1
DA:3045,1
DA:3050,0
DA:3051,0
DA:3052,0
DA:3053,0
DA:3054,0
DA:3055,0
DA:3056,0
DA:3057,0
DA:3058,0
DA:3059,0
DA:3061,0
DA:3062,0
DA:3063,0
DA:3064,0
DA:3069,0
DA:3070,0
DA:3071,0
DA:3072,0
DA:3073,0
DA:3074,0
DA:3075,0
DA:3076,0
DA:3077,0
DA:3078,0
DA:3079,0
DA:3080,0
DA:3081,0
DA:3083,0
DA:3084,0
DA:3086,0
DA:3088,0
DA:3089,0
DA:3106,0
DA:3107,0
DA:3108,0
DA:3109,0
DA:3110,0
DA:3111,0
DA:3112,0
DA:3113,0
DA:3114,0
DA:3115,0
DA:3116,0
DA:3117,0
DA:3118,0
DA:3119,0
DA:3120,0
DA:3121,0
DA:3122,0
DA:3123,0
DA:3125,0
DA:3126,0
DA:3127,0
DA:3128,0
DA:3129,0
DA:3133,0
DA:3134,0
DA:3135,0
DA:3136,0
DA:3137,0
DA:3138,0
DA:3139,0
DA:3140,0
DA:3141,0
DA:3142,0
DA:3143,0
DA:3144,0
DA:3167,0
DA:3168,0
DA:3169,0
DA:3170,0
DA:3171,0
DA:3172,0
DA:3173,0
DA:3174,0
DA:3175,0
DA:3176,0
DA:3177,0
DA:3178,0
DA:3179,0
DA:3205,0
DA:3206,0
DA:3207,0
DA:3208,0
DA:3209,0
DA:3210,0
DA:3211,0
DA:3212,0
DA:3213,0
DA:3214,0
DA:3215,0
DA:3216,0
DA:3217,0
DA:3218,0
DA:3219,0
DA:3220,0
DA:3221,0
DA:3222,0
DA:3223,0
DA:3224,0
DA:3228,0
DA:3233,0
DA:3234,0
DA:3240,0
DA:3241,0
DA:3242,0
DA:3243,0
DA:3244,0
DA:3249,0
DA:3250,0
DA:3251,0
DA:3252,0
DA:3254,0
DA:3255,0
DA:3260,0
DA:3261,0
DA:3262,0
DA:3263,0
DA:3264,0
DA:3268,0
DA:3269,0
DA:3271,0
DA:3272,0
DA:3273,0
DA:3275,0
DA:3282,0
DA:3283,0
DA:3285,0
DA:3286,0
DA:3287,0
DA:3289,0
DA:3290,0
DA:3291,0
DA:3292,0
DA:3293,0
DA:3299,0
DA:3305,0
DA:3306,0
DA:3307,0
DA:3308,0
DA:3309,0
DA:3312,0
DA:3313,0
DA:3314,0
DA:3315,0
DA:3318,0
DA:3319,0
DA:3320,0
DA:3321,0
DA:3322,0
DA:3323,0
DA:3324,0
DA:3325,0
DA:3328,0
DA:3329,0
DA:3330,0
DA:3332,0
DA:3342,0
DA:3343,0
DA:3344,0
DA:3345,0
DA:3346,0
DA:3347,0
DA:3348,0
DA:3349,0
DA:3350,0
DA:3351,0
DA:3352,0
DA:3353,0
DA:3354,0
DA:3355,0
DA:3356,0
DA:3357,0
DA:3358,0
DA:3359,0
DA:3360,0
DA:3361,0
DA:3362,0
DA:3363,0
DA:3364,0
DA:3365,0
DA:3366,0
DA:3367,0
DA:3368,0
DA:3369,0
DA:3370,0
DA:3371,0
DA:3372,0
DA:3373,0
DA:3374,0
DA:3375,0
DA:3376,0
DA:3377,0
DA:3378,0
DA:3379,0
DA:3380,0
DA:3381,0
DA:3382,0
DA:3383,0
DA:3384,0
DA:3385,0
DA:3386,0
DA:3387,0
DA:3388,0
DA:3389,0
DA:3390,0
DA:3391,0
DA:3392,0
DA:3393,0
DA:3394,0
DA:3395,0
DA:3396,0
DA:3397,0
DA:3398,0
DA:3399,0
DA:3411,0
DA:3412,0
DA:3413,0
DA:3414,0
DA:3415,0
DA:3416,0
DA:3417,0
DA:3418,0
DA:3419,0
DA:3420,0
DA:3421,0
DA:3422,0
DA:3424,0
DA:3425,0
DA:3426,0
DA:3427,0
DA:3428,0
DA:3429,0
DA:3430,0
DA:3453,7
DA:3454,7
DA:3455,7
DA:3456,7
DA:3457,7
DA:3458,7
DA:3459,7
DA:3460,7
DA:3477,14
DA:3478,14
DA:3479,14
DA:3480,14
DA:3481,14
DA:3482,14
DA:3483,14
DA:3484,14
DA:3485,14
DA:3486,11
DA:3487,11
DA:3488,6
DA:3490,5
DA:3493,3
DA:3495,14
DA:3508,11
DA:3509,11
DA:3510,11
DA:3511,11
DA:3512,1
DA:3513,10
DA:3514,10
DA:3515,2
DA:3516,8
DA:3517,8
DA:3518,3
DA:3520,5
DA:3522,11
DA:3529,22
DA:3530,22
DA:3532,5
DA:3533,5
DA:3534,5
DA:3535,5
DA:3536,5
DA:3537,0
DA:3538,0
DA:3539,17
DA:3540,17
DA:3541,22
DA:3542,11
DA:3544,22
DA:3565,4
DA:3567,4
DA:3568,4
DA:3569,2
DA:3570,2
DA:3571,2
DA:3572,2
DA:3573,2
DA:3574,2
DA:3575,2
DA:3576,0
DA:3579,4
DA:3588,2
DA:3589,2
DA:3590,9
DA:3591,7
DA:3592,7
DA:3593,7
DA:3594,7
DA:3595,7
DA:3596,2
DA:3597,2
DA:3606,1
DA:3607,1
DA:3608,1
DA:3610,1
DA:3611,1
DA:3612,1
DA:3613,0
DA:3619,1
DA:3620,1
DA:3621,1
DA:3622,1
DA:3627,1
DA:3629,1
DA:3630,1
DA:3631,1
DA:3632,1
DA:3633,1
DA:3634,1
DA:3635,1
DA:3636,1
DA:3637,1
DA:3640,1
DA:3641,1
DA:3642,1
DA:3643,1
DA:3644,1
DA:3645,1
DA:3646,1
DA:3647,1
DA:3648,1
DA:3649,1
DA:3650,1
DA:3651,1
DA:3652,1
DA:3653,1
DA:3656,1
DA:3657,1
DA:3658,1
DA:3659,1
DA:3660,1
DA:3661,1
DA:3662,1
DA:3663,1
DA:3664,1
DA:3665,1
DA:3666,1
DA:3667,1
DA:3668,1
DA:3669,1
DA:3670,1
DA:3671,1
DA:3672,1
DA:3673,1
DA:3674,1
DA:3675,1
DA:3678,1
DA:3679,1
DA:3680,1
DA:3681,1
DA:3682,1
DA:3683,1
DA:3684,1
DA:3696,1
DA:3697,1
DA:3698,1
DA:3699,1
DA:3700,1
DA:3701,1
DA:3702,1
DA:3703,1
DA:3704,1
DA:3705,1
DA:3706,1
DA:3707,1
DA:3708,1
DA:3709,1
DA:3710,1
DA:3711,1
DA:3712,1
DA:3713,1
DA:3714,1
DA:3715,1
DA:3716,1
DA:3717,1
DA:3718,1
DA:3719,1
DA:3720,1
DA:3721,1
DA:3722,1
DA:3723,1
DA:3724,1
DA:3725,1
DA:3726,1
DA:3727,1
DA:3728,1
DA:3729,1
DA:3730,1
DA:3731,1
DA:3732,1
DA:3733,1
DA:3734,1
DA:3735,1
DA:3773,1
DA:3774,1
DA:3775,1
DA:3776,1
DA:3777,1
DA:3778,1
DA:3779,1
DA:3780,1
DA:3781,1
DA:3785,51
DA:3786,51
DA:3787,51
DA:3788,51
DA:3789,51
DA:3790,51
DA:3791,51
DA:3792,51
DA:3793,1
DA:3794,1
DA:3795,50
DA:3796,50
DA:3797,50
DA:3798,50
DA:3799,50
DA:3800,50
DA:3801,51
DA:3805,0
DA:3806,0
DA:3807,0
DA:3808,0
DA:3809,0
DA:3810,0
DA:3811,0
DA:3812,0
DA:3813,0
DA:3814,0
DA:3815,1
DA:3816,1
DA:3817,1
DA:3818,1
DA:3834,1
DA:3835,1
DA:3836,1
DA:3837,1
DA:3838,1
DA:3839,1
DA:3840,1
DA:3841,1
DA:3842,1
DA:3843,1
DA:3844,1
DA:3845,1
DA:3846,1
DA:3847,1
DA:3848,1
DA:3849,1
DA:3850,0
DA:3851,0
DA:3852,1
DA:3853,1
DA:3854,1
DA:3855,1
DA:3856,1
DA:3857,0
DA:3858,1
DA:3859,1
DA:3867,1
DA:3868,1
DA:3869,1
DA:3870,1
DA:3871,1
DA:3872,1
DA:3873,1
DA:3874,1
DA:3875,32
DA:3876,32
DA:3877,32
DA:3878,32
DA:3879,32
DA:3880,32
DA:3881,32
DA:3882,32
DA:3883,32
DA:3884,32
DA:3885,32
DA:3886,1
DA:3887,1
DA:3888,1
DA:3889,0
DA:3890,0
DA:3891,0
DA:3892,0
DA:3893,0
DA:3894,0
DA:3895,1
DA:3896,0
DA:3897,0
DA:3898,1
DA:3899,1
DA:3900,1
DA:3901,1
DA:3902,1
DA:3903,1
DA:3904,1
DA:3905,1
DA:3906,1
DA:3907,1
DA:3908,1
DA:3909,1
DA:3910,1
DA:3911,1
DA:3912,1
DA:3913,1
DA:3914,1
DA:3915,1
DA:3916,1
DA:3917,1
DA:3918,1
DA:3932,1
DA:3933,1
DA:3934,1
DA:3935,1
DA:3936,1
DA:3937,1
DA:3938,1
DA:3939,1
DA:3940,1
DA:3941,1
DA:3942,1
DA:3943,1
DA:3944,1
DA:3945,1
DA:3946,1
DA:3947,1
DA:3948,1
DA:3949,1
DA:3950,1
DA:3951,1
DA:3952,1
DA:3953,1
DA:3954,1
DA:3955,1
DA:3956,9
DA:3957,9
DA:3958,9
DA:3959,9
DA:3960,9
DA:3961,9
DA:3962,9
DA:3963,9
DA:3964,1
DA:3965,1
DA:3966,1
DA:3967,8
DA:3968,1
DA:3969,9
DA:3970,1
DA:3971,1
DA:3972,1
DA:3973,0
DA:3974,0
DA:3975,0
DA:3976,0
DA:3977,0
DA:3978,0
DA:3979,1
DA:3980,0
DA:3981,0
DA:3982,1
DA:3983,1
DA:3984,1
DA:3985,1
DA:3986,1
DA:3987,1
DA:3988,1
DA:3989,1
DA:3990,1
DA:3991,1
DA:3992,1
DA:3993,1
DA:3994,1
DA:3995,1
DA:3996,1
DA:3997,1
DA:3998,1
DA:3999,1
DA:4000,1
DA:4001,1
DA:4002,1
DA:4003,9
DA:4004,8
DA:4005,8
DA:4006,1
DA:4007,0
DA:4008,0
DA:4009,1
DA:4010,1
DA:4011,1
DA:4012,1
DA:4013,1
DA:4014,0
DA:4015,1
DA:4016,1
DA:4017,1
DA:4018,1
DA:4019,1
DA:4020,1
DA:4021,1
DA:4022,1
DA:4023,1
DA:4024,1
DA:4025,1
DA:4026,1
DA:4027,1
DA:4028,1
DA:4029,0
DA:4030,1
DA:4031,1
DA:4032,1
DA:4033,1
DA:4034,1
DA:4035,1
DA:4066,1
DA:4067,1
DA:4068,1
DA:4069,1
DA:4070,1
DA:4071,1
DA:4072,1
DA:4073,1
DA:4074,1
DA:4075,1
BRF:0
BRH:0
LF:2512
LH:1028
end_of_record
SF:/home/ubuntu/Code/ExpressGateway/crates/lb-l7/src/h2_security.rs
FN:111,_RINvMs_NtCscRJcA2zm81b_5lb_l711h2_securityNtB5_20H2SecurityThresholds5applypEB7_
FN:104,_RNvMs_NtCscRJcA2zm81b_5lb_l711h2_securityNtB4_20H2SecurityThresholds22from_detector_defaults
FN:73,_RNvXNtCscRJcA2zm81b_5lb_l711h2_securityNtB2_20H2SecurityThresholdsNtNtCs2va5m0jqTTM_4core7default7Default7default
FN:111,_RINvMs_NtCscRJcA2zm81b_5lb_l711h2_securityNtB5_20H2SecurityThresholds5applyNtNtNtCs86YdmMopYMP_10hyper_util2rt5tokio13TokioExecutorECsg9xlZenf2AU_14expressgateway
FN:73,_RNvXNtCsijo3INtYyGB_5lb_l711h2_securityNtB2_20H2SecurityThresholdsNtNtCs2va5m0jqTTM_4core7default7Default7default
FN:104,_RNvMs_NtCsijo3INtYyGB_5lb_l711h2_securityNtB4_20H2SecurityThresholds22from_detector_defaults
FN:111,_RINvMs_NtCsijo3INtYyGB_5lb_l711h2_securityNtB5_20H2SecurityThresholds5applyNtNtNtCs86YdmMopYMP_10hyper_util2rt5tokio13TokioExecutorEB7_
FN:144,_RNvNtNtCsijo3INtYyGB_5lb_l711h2_security5testss_34apply_does_not_panic_with_defaults
FN:130,_RNvNtNtCsijo3INtYyGB_5lb_l711h2_security5testss_35defaults_align_with_lb_h2_constants
FN:111,_RINvMs_NtCscRJcA2zm81b_5lb_l711h2_securityNtB5_20H2SecurityThresholds5applyNtNtNtCs86YdmMopYMP_10hyper_util2rt5tokio13TokioExecutorECshNrGFH5ArmH_25round8_authority_enforced
FN:111,_RINvMs_NtCscRJcA2zm81b_5lb_l711h2_securityNtB5_20H2SecurityThresholds5applyNtNtNtCs86YdmMopYMP_10hyper_util2rt5tokio13TokioExecutorECszCkIpWOTQT_24round8_glitches_enforced
FNDA:0,_RINvMs_NtCscRJcA2zm81b_5lb_l711h2_securityNtB5_20H2SecurityThresholds5applypEB7_
FNDA:0,_RNvMs_NtCscRJcA2zm81b_5lb_l711h2_securityNtB4_20H2SecurityThresholds22from_detector_defaults
FNDA:7,_RNvXNtCscRJcA2zm81b_5lb_l711h2_securityNtB2_20H2SecurityThresholdsNtNtCs2va5m0jqTTM_4core7default7Default7default
FNDA:0,_RINvMs_NtCscRJcA2zm81b_5lb_l711h2_securityNtB5_20H2SecurityThresholds5applyNtNtNtCs86YdmMopYMP_10hyper_util2rt5tokio13TokioExecutorECsg9xlZenf2AU_14expressgateway
FNDA:3,_RNvXNtCsijo3INtYyGB_5lb_l711h2_securityNtB2_20H2SecurityThresholdsNtNtCs2va5m0jqTTM_4core7default7Default7default
FNDA:0,_RNvMs_NtCsijo3INtYyGB_5lb_l711h2_securityNtB4_20H2SecurityThresholds22from_detector_defaults
FNDA:2,_RINvMs_NtCsijo3INtYyGB_5lb_l711h2_securityNtB5_20H2SecurityThresholds5applyNtNtNtCs86YdmMopYMP_10hyper_util2rt5tokio13TokioExecutorEB7_
FNDA:1,_RNvNtNtCsijo3INtYyGB_5lb_l711h2_security5testss_34apply_does_not_panic_with_defaults
FNDA:1,_RNvNtNtCsijo3INtYyGB_5lb_l711h2_security5testss_35defaults_align_with_lb_h2_constants
FNDA:4,_RINvMs_NtCscRJcA2zm81b_5lb_l711h2_securityNtB5_20H2SecurityThresholds5applyNtNtNtCs86YdmMopYMP_10hyper_util2rt5tokio13TokioExecutorECshNrGFH5ArmH_25round8_authority_enforced
FNDA:1,_RINvMs_NtCscRJcA2zm81b_5lb_l711h2_securityNtB5_20H2SecurityThresholds5applyNtNtNtCs86YdmMopYMP_10hyper_util2rt5tokio13TokioExecutorECszCkIpWOTQT_24round8_glitches_enforced
FNF:5
FNH:4
DA:73,10
DA:74,10
DA:75,10
DA:76,10
DA:77,10
DA:78,10
DA:79,10
DA:80,10
DA:81,10
DA:82,10
DA:83,10
DA:84,10
DA:85,10
DA:86,10
DA:87,10
DA:88,10
DA:89,10
DA:90,10
DA:91,10
DA:92,10
DA:93,10
DA:94,10
DA:95,10
DA:96,10
DA:104,0
DA:105,0
DA:106,0
DA:111,7
DA:112,7
DA:113,7
DA:114,7
DA:115,7
DA:116,7
DA:117,7
DA:118,7
DA:119,7
DA:120,7
DA:121,7
DA:122,7
DA:130,1
DA:131,1
DA:132,1
DA:133,1
DA:134,1
DA:135,1
DA:136,1
DA:137,1
DA:138,1
DA:139,1
DA:140,1
DA:141,1
DA:144,1
DA:150,1
DA:151,1
DA:152,1
DA:153,1
DA:154,1
DA:155,1
BRF:0
BRH:0
LF:58
LH:55
end_of_record
SF:/home/ubuntu/Code/ExpressGateway/crates/lb-l7/src/h2_to_h1.rs
FN:200,_RNCNvNtCscRJcA2zm81b_5lb_l78h2_to_h115split_host_port0B5_
FN:205,_RNCNvNtCscRJcA2zm81b_5lb_l78h2_to_h115split_host_ports_0B5_
FN:84,_RNCNvXNtCscRJcA2zm81b_5lb_l78h2_to_h1NtB4_12H2ToH1BridgeNtB6_6Bridge14bridge_request0B6_
FN:91,_RNCNvXNtCscRJcA2zm81b_5lb_l78h2_to_h1NtB4_12H2ToH1BridgeNtB6_6Bridge14bridge_requests0_0B6_
FN:106,_RNCNvXNtCscRJcA2zm81b_5lb_l78h2_to_h1NtB4_12H2ToH1BridgeNtB6_6Bridge14bridge_requests1_0B6_
FN:90,_RNCNvXNtCscRJcA2zm81b_5lb_l78h2_to_h1NtB4_12H2ToH1BridgeNtB6_6Bridge14bridge_requests_0B6_
FN:139,_RNCNvXNtCscRJcA2zm81b_5lb_l78h2_to_h1NtB4_12H2ToH1BridgeNtB6_6Bridge15bridge_response0B6_
FN:146,_RNCNvXNtCscRJcA2zm81b_5lb_l78h2_to_h1NtB4_12H2ToH1BridgeNtB6_6Bridge15bridge_responses_0B6_
FN:194,_RNvNtCscRJcA2zm81b_5lb_l78h2_to_h115split_host_port
FN:175,_RNvNtCscRJcA2zm81b_5lb_l78h2_to_h131authority_host_components_agree
FN:164,_RNvXNtCscRJcA2zm81b_5lb_l78h2_to_h1NtB2_12H2ToH1BridgeNtB4_6Bridge13dest_protocol
FN:44,_RNvXNtCscRJcA2zm81b_5lb_l78h2_to_h1NtB2_12H2ToH1BridgeNtB4_6Bridge14bridge_request
FN:133,_RNvXNtCscRJcA2zm81b_5lb_l78h2_to_h1NtB2_12H2ToH1BridgeNtB4_6Bridge15bridge_response
FN:160,_RNvXNtCscRJcA2zm81b_5lb_l78h2_to_h1NtB2_12H2ToH1BridgeNtB4_6Bridge15source_protocol
FN:200,_RNCNvNtCsijo3INtYyGB_5lb_l78h2_to_h115split_host_port0B5_
FN:205,_RNCNvNtCsijo3INtYyGB_5lb_l78h2_to_h115split_host_ports_0B5_
FN:84,_RNCNvXNtCsijo3INtYyGB_5lb_l78h2_to_h1NtB4_12H2ToH1BridgeNtB6_6Bridge14bridge_request0B6_
FN:91,_RNCNvXNtCsijo3INtYyGB_5lb_l78h2_to_h1NtB4_12H2ToH1BridgeNtB6_6Bridge14bridge_requests0_0B6_
FN:106,_RNCNvXNtCsijo3INtYyGB_5lb_l78h2_to_h1NtB4_12H2ToH1BridgeNtB6_6Bridge14bridge_requests1_0B6_
FN:90,_RNCNvXNtCsijo3INtYyGB_5lb_l78h2_to_h1NtB4_12H2ToH1BridgeNtB6_6Bridge14bridge_requests_0B6_
FN:139,_RNCNvXNtCsijo3INtYyGB_5lb_l78h2_to_h1NtB4_12H2ToH1BridgeNtB6_6Bridge15bridge_response0B6_
FN:146,_RNCNvXNtCsijo3INtYyGB_5lb_l78h2_to_h1NtB4_12H2ToH1BridgeNtB6_6Bridge15bridge_responses_0B6_
FN:237,_RNvNtNtCsijo3INtYyGB_5lb_l78h2_to_h15testss_38bridge_accepts_matching_authority_host
FN:215,_RNvNtNtCsijo3INtYyGB_5lb_l78h2_to_h15testss_42bridge_rejects_authority_host_disagreement
FN:194,_RNvNtCsijo3INtYyGB_5lb_l78h2_to_h115split_host_port
FN:175,_RNvNtCsijo3INtYyGB_5lb_l78h2_to_h131authority_host_components_agree
FN:164,_RNvXNtCsijo3INtYyGB_5lb_l78h2_to_h1NtB2_12H2ToH1BridgeNtB4_6Bridge13dest_protocol
FN:44,_RNvXNtCsijo3INtYyGB_5lb_l78h2_to_h1NtB2_12H2ToH1BridgeNtB4_6Bridge14bridge_request
FN:133,_RNvXNtCsijo3INtYyGB_5lb_l78h2_to_h1NtB2_12H2ToH1BridgeNtB4_6Bridge15bridge_response
FN:160,_RNvXNtCsijo3INtYyGB_5lb_l78h2_to_h1NtB2_12H2ToH1BridgeNtB4_6Bridge15source_protocol
FN:256,_RNCNvNtNtCsijo3INtYyGB_5lb_l78h2_to_h15testss_38bridge_accepts_matching_authority_host0B7_
FN:257,_RNCNvNtNtCsijo3INtYyGB_5lb_l78h2_to_h15testss_38bridge_accepts_matching_authority_hosts_0B7_
FNDA:0,_RNCNvNtCscRJcA2zm81b_5lb_l78h2_to_h115split_host_port0B5_
FNDA:0,_RNCNvNtCscRJcA2zm81b_5lb_l78h2_to_h115split_host_ports_0B5_
FNDA:5,_RNCNvXNtCscRJcA2zm81b_5lb_l78h2_to_h1NtB4_12H2ToH1BridgeNtB6_6Bridge14bridge_request0B6_
FNDA:0,_RNCNvXNtCscRJcA2zm81b_5lb_l78h2_to_h1NtB4_12H2ToH1BridgeNtB6_6Bridge14bridge_requests0_0B6_
FNDA:5,_RNCNvXNtCscRJcA2zm81b_5lb_l78h2_to_h1NtB4_12H2ToH1BridgeNtB6_6Bridge14bridge_requests1_0B6_
FNDA:4,_RNCNvXNtCscRJcA2zm81b_5lb_l78h2_to_h1NtB4_12H2ToH1BridgeNtB6_6Bridge14bridge_requests_0B6_
FNDA:1,_RNCNvXNtCscRJcA2zm81b_5lb_l78h2_to_h1NtB4_12H2ToH1BridgeNtB6_6Bridge15bridge_response0B6_
FNDA:1,_RNCNvXNtCscRJcA2zm81b_5lb_l78h2_to_h1NtB4_12H2ToH1BridgeNtB6_6Bridge15bridge_responses_0B6_
FNDA:0,_RNvNtCscRJcA2zm81b_5lb_l78h2_to_h115split_host_port
FNDA:0,_RNvNtCscRJcA2zm81b_5lb_l78h2_to_h131authority_host_components_agree
FNDA:0,_RNvXNtCscRJcA2zm81b_5lb_l78h2_to_h1NtB2_12H2ToH1BridgeNtB4_6Bridge13dest_protocol
FNDA:9,_RNvXNtCscRJcA2zm81b_5lb_l78h2_to_h1NtB2_12H2ToH1BridgeNtB4_6Bridge14bridge_request
FNDA:1,_RNvXNtCscRJcA2zm81b_5lb_l78h2_to_h1NtB2_12H2ToH1BridgeNtB4_6Bridge15bridge_response
FNDA:0,_RNvXNtCscRJcA2zm81b_5lb_l78h2_to_h1NtB2_12H2ToH1BridgeNtB4_6Bridge15source_protocol
FNDA:0,_RNCNvNtCsijo3INtYyGB_5lb_l78h2_to_h115split_host_port0B5_
FNDA:8,_RNCNvNtCsijo3INtYyGB_5lb_l78h2_to_h115split_host_ports_0B5_
FNDA:0,_RNCNvXNtCsijo3INtYyGB_5lb_l78h2_to_h1NtB4_12H2ToH1BridgeNtB6_6Bridge14bridge_request0B6_
FNDA:2,_RNCNvXNtCsijo3INtYyGB_5lb_l78h2_to_h1NtB4_12H2ToH1BridgeNtB6_6Bridge14bridge_requests0_0B6_
FNDA:2,_RNCNvXNtCsijo3INtYyGB_5lb_l78h2_to_h1NtB4_12H2ToH1BridgeNtB6_6Bridge14bridge_requests1_0B6_
FNDA:3,_RNCNvXNtCsijo3INtYyGB_5lb_l78h2_to_h1NtB4_12H2ToH1BridgeNtB6_6Bridge14bridge_requests_0B6_
FNDA:1,_RNCNvXNtCsijo3INtYyGB_5lb_l78h2_to_h1NtB4_12H2ToH1BridgeNtB6_6Bridge15bridge_response0B6_
FNDA:1,_RNCNvXNtCsijo3INtYyGB_5lb_l78h2_to_h1NtB4_12H2ToH1BridgeNtB6_6Bridge15bridge_responses_0B6_
FNDA:1,_RNvNtNtCsijo3INtYyGB_5lb_l78h2_to_h15testss_38bridge_accepts_matching_authority_host
FNDA:1,_RNvNtNtCsijo3INtYyGB_5lb_l78h2_to_h15testss_42bridge_rejects_authority_host_disagreement
FNDA:4,_RNvNtCsijo3INtYyGB_5lb_l78h2_to_h115split_host_port
FNDA:2,_RNvNtCsijo3INtYyGB_5lb_l78h2_to_h131authority_host_components_agree
FNDA:1,_RNvXNtCsijo3INtYyGB_5lb_l78h2_to_h1NtB2_12H2ToH1BridgeNtB4_6Bridge13dest_protocol
FNDA:4,_RNvXNtCsijo3INtYyGB_5lb_l78h2_to_h1NtB2_12H2ToH1BridgeNtB4_6Bridge14bridge_request
FNDA:1,_RNvXNtCsijo3INtYyGB_5lb_l78h2_to_h1NtB2_12H2ToH1BridgeNtB4_6Bridge15bridge_response
FNDA:1,_RNvXNtCsijo3INtYyGB_5lb_l78h2_to_h1NtB2_12H2ToH1BridgeNtB4_6Bridge15source_protocol
FNDA:1,_RNCNvNtNtCsijo3INtYyGB_5lb_l78h2_to_h15testss_38bridge_accepts_matching_authority_host0B7_
FNDA:1,_RNCNvNtNtCsijo3INtYyGB_5lb_l78h2_to_h15testss_38bridge_accepts_matching_authority_hosts_0B7_
FNF:18
FNH:17
DA:44,13
DA:45,13
DA:47,13
DA:48,13
DA:49,13
DA:50,13
DA:53,76
DA:54,63
DA:55,63
DA:56,50
DA:57,37
DA:58,25
DA:59,13
DA:60,0
DA:61,0
DA:62,13
DA:63,13
DA:64,13
DA:83,13
DA:84,13
DA:89,8
DA:90,8
DA:91,8
DA:103,6
DA:104,6
DA:105,6
DA:106,7
DA:108,2
DA:109,1
DA:110,1
DA:111,1
DA:112,1
DA:113,1
DA:114,1
DA:115,1
DA:116,4
DA:118,5
DA:119,5
DA:120,5
DA:122,5
DA:123,5
DA:124,5
DA:125,5
DA:126,5
DA:127,5
DA:128,5
DA:129,5
DA:130,5
DA:131,13
DA:133,2
DA:134,2
DA:136,2
DA:137,2
DA:138,2
DA:139,2
DA:140,2
DA:141,0
DA:142,2
DA:143,2
DA:144,2
DA:145,2
DA:146,2
DA:147,2
DA:148,2
DA:149,2
DA:151,2
DA:152,2
DA:153,2
DA:154,2
DA:155,2
DA:156,2
DA:157,2
DA:158,2
DA:160,1
DA:161,1
DA:162,1
DA:164,1
DA:165,1
DA:166,1
DA:175,2
DA:176,2
DA:177,2
DA:178,2
DA:179,0
DA:180,2
DA:181,2
DA:182,1
DA:183,1
DA:184,1
DA:185,1
DA:186,0
DA:188,2
DA:194,4
DA:195,4
DA:196,0
DA:197,0
DA:198,0
DA:199,0
DA:200,0
DA:201,0
DA:202,0
DA:203,4
DA:204,4
DA:205,8
DA:206,2
DA:208,4
DA:215,1
DA:216,1
DA:217,1
DA:218,1
DA:219,1
DA:220,1
DA:221,1
DA:222,1
DA:223,1
DA:224,1
DA:225,1
DA:226,1
DA:227,1
DA:228,1
DA:229,1
DA:230,1
DA:231,1
DA:232,1
DA:233,1
DA:234,1
DA:237,1
DA:238,1
DA:239,1
DA:240,1
DA:241,1
DA:242,1
DA:243,1
DA:244,1
DA:245,1
DA:246,1
DA:247,1
DA:248,1
DA:249,1
DA:250,1
DA:251,1
DA:252,1
DA:253,1
DA:254,1
DA:255,1
DA:256,1
DA:257,1
DA:258,1
DA:259,1
BRF:0
BRH:0
LF:160
LH:146
end_of_record
SF:/home/ubuntu/Code/ExpressGateway/crates/lb-l7/src/h2_to_h2.rs
FN:60,_RNvXNtCscRJcA2zm81b_5lb_l78h2_to_h2NtB2_12H2ToH2BridgeNtB4_6Bridge13dest_protocol
FN:12,_RNvXNtCscRJcA2zm81b_5lb_l78h2_to_h2NtB2_12H2ToH2BridgeNtB4_6Bridge14bridge_request
FN:38,_RNvXNtCscRJcA2zm81b_5lb_l78h2_to_h2NtB2_12H2ToH2BridgeNtB4_6Bridge15bridge_response
FN:56,_RNvXNtCscRJcA2zm81b_5lb_l78h2_to_h2NtB2_12H2ToH2BridgeNtB4_6Bridge15source_protocol
FN:18,_RNCNvXNtCscRJcA2zm81b_5lb_l78h2_to_h2NtB4_12H2ToH2BridgeNtB6_6Bridge14bridge_request0B6_
FN:44,_RNCNvXNtCscRJcA2zm81b_5lb_l78h2_to_h2NtB4_12H2ToH2BridgeNtB6_6Bridge15bridge_response0B6_
FN:18,_RNCNvXNtCsijo3INtYyGB_5lb_l78h2_to_h2NtB4_12H2ToH2BridgeNtB6_6Bridge14bridge_request0B6_
FN:44,_RNCNvXNtCsijo3INtYyGB_5lb_l78h2_to_h2NtB4_12H2ToH2BridgeNtB6_6Bridge15bridge_response0B6_
FN:60,_RNvXNtCsijo3INtYyGB_5lb_l78h2_to_h2NtB2_12H2ToH2BridgeNtB4_6Bridge13dest_protocol
FN:12,_RNvXNtCsijo3INtYyGB_5lb_l78h2_to_h2NtB2_12H2ToH2BridgeNtB4_6Bridge14bridge_request
FN:38,_RNvXNtCsijo3INtYyGB_5lb_l78h2_to_h2NtB2_12H2ToH2BridgeNtB4_6Bridge15bridge_response
FN:56,_RNvXNtCsijo3INtYyGB_5lb_l78h2_to_h2NtB2_12H2ToH2BridgeNtB4_6Bridge15source_protocol
FNDA:0,_RNvXNtCscRJcA2zm81b_5lb_l78h2_to_h2NtB2_12H2ToH2BridgeNtB4_6Bridge13dest_protocol
FNDA:2,_RNvXNtCscRJcA2zm81b_5lb_l78h2_to_h2NtB2_12H2ToH2BridgeNtB4_6Bridge14bridge_request
FNDA:1,_RNvXNtCscRJcA2zm81b_5lb_l78h2_to_h2NtB2_12H2ToH2BridgeNtB4_6Bridge15bridge_response
FNDA:0,_RNvXNtCscRJcA2zm81b_5lb_l78h2_to_h2NtB2_12H2ToH2BridgeNtB4_6Bridge15source_protocol
FNDA:10,_RNCNvXNtCscRJcA2zm81b_5lb_l78h2_to_h2NtB4_12H2ToH2BridgeNtB6_6Bridge14bridge_request0B6_
FNDA:1,_RNCNvXNtCscRJcA2zm81b_5lb_l78h2_to_h2NtB4_12H2ToH2BridgeNtB6_6Bridge15bridge_response0B6_
FNDA:0,_RNCNvXNtCsijo3INtYyGB_5lb_l78h2_to_h2NtB4_12H2ToH2BridgeNtB6_6Bridge14bridge_request0B6_
FNDA:0,_RNCNvXNtCsijo3INtYyGB_5lb_l78h2_to_h2NtB4_12H2ToH2BridgeNtB6_6Bridge15bridge_response0B6_
FNDA:1,_RNvXNtCsijo3INtYyGB_5lb_l78h2_to_h2NtB2_12H2ToH2BridgeNtB4_6Bridge13dest_protocol
FNDA:0,_RNvXNtCsijo3INtYyGB_5lb_l78h2_to_h2NtB2_12H2ToH2BridgeNtB4_6Bridge14bridge_request
FNDA:0,_RNvXNtCsijo3INtYyGB_5lb_l78h2_to_h2NtB2_12H2ToH2BridgeNtB4_6Bridge15bridge_response
FNDA:1,_RNvXNtCsijo3INtYyGB_5lb_l78h2_to_h2NtB2_12H2ToH2BridgeNtB4_6Bridge15source_protocol
FNF:6
FNH:6
DA:12,2
DA:13,2
DA:15,2
DA:16,2
DA:17,2
DA:18,10
DA:19,10
DA:20,8
DA:22,2
DA:24,10
DA:25,2
DA:26,2
DA:27,2
DA:28,2
DA:29,2
DA:30,2
DA:31,2
DA:32,2
DA:33,2
DA:34,2
DA:35,2
DA:36,2
DA:38,1
DA:39,1
DA:41,1
DA:42,1
DA:43,1
DA:44,1
DA:45,1
DA:46,1
DA:47,1
DA:48,1
DA:49,1
DA:50,1
DA:51,1
DA:52,1
DA:53,1
DA:54,1
DA:56,1
DA:57,1
DA:58,1
DA:60,1
DA:61,1
DA:62,1
BRF:0
BRH:0
LF:47
LH:47
end_of_record
SF:/home/ubuntu/Code/ExpressGateway/crates/lb-l7/src/h2_to_h3.rs
FN:60,_RNvXNtCscRJcA2zm81b_5lb_l78h2_to_h3NtB2_12H2ToH3BridgeNtB4_6Bridge13dest_protocol
FN:12,_RNvXNtCscRJcA2zm81b_5lb_l78h2_to_h3NtB2_12H2ToH3BridgeNtB4_6Bridge14bridge_request
FN:38,_RNvXNtCscRJcA2zm81b_5lb_l78h2_to_h3NtB2_12H2ToH3BridgeNtB4_6Bridge15bridge_response
FN:56,_RNvXNtCscRJcA2zm81b_5lb_l78h2_to_h3NtB2_12H2ToH3BridgeNtB4_6Bridge15source_protocol
FN:18,_RNCNvXNtCscRJcA2zm81b_5lb_l78h2_to_h3NtB4_12H2ToH3BridgeNtB6_6Bridge14bridge_request0B6_
FN:44,_RNCNvXNtCscRJcA2zm81b_5lb_l78h2_to_h3NtB4_12H2ToH3BridgeNtB6_6Bridge15bridge_response0B6_
FN:60,_RNvXNtCsijo3INtYyGB_5lb_l78h2_to_h3NtB2_12H2ToH3BridgeNtB4_6Bridge13dest_protocol
FN:12,_RNvXNtCsijo3INtYyGB_5lb_l78h2_to_h3NtB2_12H2ToH3BridgeNtB4_6Bridge14bridge_request
FN:38,_RNvXNtCsijo3INtYyGB_5lb_l78h2_to_h3NtB2_12H2ToH3BridgeNtB4_6Bridge15bridge_response
FN:56,_RNvXNtCsijo3INtYyGB_5lb_l78h2_to_h3NtB2_12H2ToH3BridgeNtB4_6Bridge15source_protocol
FN:18,_RNCNvXNtCsijo3INtYyGB_5lb_l78h2_to_h3NtB4_12H2ToH3BridgeNtB6_6Bridge14bridge_request0B6_
FN:44,_RNCNvXNtCsijo3INtYyGB_5lb_l78h2_to_h3NtB4_12H2ToH3BridgeNtB6_6Bridge15bridge_response0B6_
FNDA:0,_RNvXNtCscRJcA2zm81b_5lb_l78h2_to_h3NtB2_12H2ToH3BridgeNtB4_6Bridge13dest_protocol
FNDA:3,_RNvXNtCscRJcA2zm81b_5lb_l78h2_to_h3NtB2_12H2ToH3BridgeNtB4_6Bridge14bridge_request
FNDA:2,_RNvXNtCscRJcA2zm81b_5lb_l78h2_to_h3NtB2_12H2ToH3BridgeNtB4_6Bridge15bridge_response
FNDA:0,_RNvXNtCscRJcA2zm81b_5lb_l78h2_to_h3NtB2_12H2ToH3BridgeNtB4_6Bridge15source_protocol
FNDA:15,_RNCNvXNtCscRJcA2zm81b_5lb_l78h2_to_h3NtB4_12H2ToH3BridgeNtB6_6Bridge14bridge_request0B6_
FNDA:2,_RNCNvXNtCscRJcA2zm81b_5lb_l78h2_to_h3NtB4_12H2ToH3BridgeNtB6_6Bridge15bridge_response0B6_
FNDA:1,_RNvXNtCsijo3INtYyGB_5lb_l78h2_to_h3NtB2_12H2ToH3BridgeNtB4_6Bridge13dest_protocol
FNDA:0,_RNvXNtCsijo3INtYyGB_5lb_l78h2_to_h3NtB2_12H2ToH3BridgeNtB4_6Bridge14bridge_request
FNDA:0,_RNvXNtCsijo3INtYyGB_5lb_l78h2_to_h3NtB2_12H2ToH3BridgeNtB4_6Bridge15bridge_response
FNDA:1,_RNvXNtCsijo3INtYyGB_5lb_l78h2_to_h3NtB2_12H2ToH3BridgeNtB4_6Bridge15source_protocol
FNDA:0,_RNCNvXNtCsijo3INtYyGB_5lb_l78h2_to_h3NtB4_12H2ToH3BridgeNtB6_6Bridge14bridge_request0B6_
FNDA:0,_RNCNvXNtCsijo3INtYyGB_5lb_l78h2_to_h3NtB4_12H2ToH3BridgeNtB6_6Bridge15bridge_response0B6_
FNF:6
FNH:6
DA:12,3
DA:13,3
DA:15,3
DA:16,3
DA:17,3
DA:18,15
DA:19,15
DA:20,12
DA:22,3
DA:24,15
DA:25,3
DA:26,3
DA:27,3
DA:28,3
DA:29,3
DA:30,3
DA:31,3
DA:32,3
DA:33,3
DA:34,3
DA:35,3
DA:36,3
DA:38,2
DA:39,2
DA:41,2
DA:42,2
DA:43,2
DA:44,2
DA:45,2
DA:46,2
DA:47,2
DA:48,2
DA:49,2
DA:50,2
DA:51,2
DA:52,2
DA:53,2
DA:54,2
DA:56,1
DA:57,1
DA:58,1
DA:60,1
DA:61,1
DA:62,1
BRF:0
BRH:0
LF:47
LH:47
end_of_record
SF:/home/ubuntu/Code/ExpressGateway/crates/lb-l7/src/h3_to_h1.rs
FN:101,_RNvXNtCscRJcA2zm81b_5lb_l78h3_to_h1NtB2_12H3ToH1BridgeNtB4_6Bridge13dest_protocol
FN:25,_RNvXNtCscRJcA2zm81b_5lb_l78h3_to_h1NtB2_12H3ToH1BridgeNtB4_6Bridge14bridge_request
FN:70,_RNvXNtCscRJcA2zm81b_5lb_l78h3_to_h1NtB2_12H3ToH1BridgeNtB4_6Bridge15bridge_response
FN:97,_RNvXNtCscRJcA2zm81b_5lb_l78h3_to_h1NtB2_12H3ToH1BridgeNtB4_6Bridge15source_protocol
FN:53,_RNCNvXNtCscRJcA2zm81b_5lb_l78h3_to_h1NtB4_12H3ToH1BridgeNtB6_6Bridge14bridge_request0B6_
FN:54,_RNCNvXNtCscRJcA2zm81b_5lb_l78h3_to_h1NtB4_12H3ToH1BridgeNtB6_6Bridge14bridge_requests_0B6_
FN:76,_RNCNvXNtCscRJcA2zm81b_5lb_l78h3_to_h1NtB4_12H3ToH1BridgeNtB6_6Bridge15bridge_response0B6_
FN:83,_RNCNvXNtCscRJcA2zm81b_5lb_l78h3_to_h1NtB4_12H3ToH1BridgeNtB6_6Bridge15bridge_responses_0B6_
FN:53,_RNCNvXNtCsijo3INtYyGB_5lb_l78h3_to_h1NtB4_12H3ToH1BridgeNtB6_6Bridge14bridge_request0B6_
FN:54,_RNCNvXNtCsijo3INtYyGB_5lb_l78h3_to_h1NtB4_12H3ToH1BridgeNtB6_6Bridge14bridge_requests_0B6_
FN:76,_RNCNvXNtCsijo3INtYyGB_5lb_l78h3_to_h1NtB4_12H3ToH1BridgeNtB6_6Bridge15bridge_response0B6_
FN:83,_RNCNvXNtCsijo3INtYyGB_5lb_l78h3_to_h1NtB4_12H3ToH1BridgeNtB6_6Bridge15bridge_responses_0B6_
FN:101,_RNvXNtCsijo3INtYyGB_5lb_l78h3_to_h1NtB2_12H3ToH1BridgeNtB4_6Bridge13dest_protocol
FN:25,_RNvXNtCsijo3INtYyGB_5lb_l78h3_to_h1NtB2_12H3ToH1BridgeNtB4_6Bridge14bridge_request
FN:70,_RNvXNtCsijo3INtYyGB_5lb_l78h3_to_h1NtB2_12H3ToH1BridgeNtB4_6Bridge15bridge_response
FN:97,_RNvXNtCsijo3INtYyGB_5lb_l78h3_to_h1NtB2_12H3ToH1BridgeNtB4_6Bridge15source_protocol
FNDA:0,_RNvXNtCscRJcA2zm81b_5lb_l78h3_to_h1NtB2_12H3ToH1BridgeNtB4_6Bridge13dest_protocol
FNDA:3,_RNvXNtCscRJcA2zm81b_5lb_l78h3_to_h1NtB2_12H3ToH1BridgeNtB4_6Bridge14bridge_request
FNDA:2,_RNvXNtCscRJcA2zm81b_5lb_l78h3_to_h1NtB2_12H3ToH1BridgeNtB4_6Bridge15bridge_response
FNDA:0,_RNvXNtCscRJcA2zm81b_5lb_l78h3_to_h1NtB2_12H3ToH1BridgeNtB4_6Bridge15source_protocol
FNDA:3,_RNCNvXNtCscRJcA2zm81b_5lb_l78h3_to_h1NtB4_12H3ToH1BridgeNtB6_6Bridge14bridge_request0B6_
FNDA:0,_RNCNvXNtCscRJcA2zm81b_5lb_l78h3_to_h1NtB4_12H3ToH1BridgeNtB6_6Bridge14bridge_requests_0B6_
FNDA:2,_RNCNvXNtCscRJcA2zm81b_5lb_l78h3_to_h1NtB4_12H3ToH1BridgeNtB6_6Bridge15bridge_response0B6_
FNDA:2,_RNCNvXNtCscRJcA2zm81b_5lb_l78h3_to_h1NtB4_12H3ToH1BridgeNtB6_6Bridge15bridge_responses_0B6_
FNDA:1,_RNCNvXNtCsijo3INtYyGB_5lb_l78h3_to_h1NtB4_12H3ToH1BridgeNtB6_6Bridge14bridge_request0B6_
FNDA:1,_RNCNvXNtCsijo3INtYyGB_5lb_l78h3_to_h1NtB4_12H3ToH1BridgeNtB6_6Bridge14bridge_requests_0B6_
FNDA:0,_RNCNvXNtCsijo3INtYyGB_5lb_l78h3_to_h1NtB4_12H3ToH1BridgeNtB6_6Bridge15bridge_response0B6_
FNDA:0,_RNCNvXNtCsijo3INtYyGB_5lb_l78h3_to_h1NtB4_12H3ToH1BridgeNtB6_6Bridge15bridge_responses_0B6_
FNDA:1,_RNvXNtCsijo3INtYyGB_5lb_l78h3_to_h1NtB2_12H3ToH1BridgeNtB4_6Bridge13dest_protocol
FNDA:1,_RNvXNtCsijo3INtYyGB_5lb_l78h3_to_h1NtB2_12H3ToH1BridgeNtB4_6Bridge14bridge_request
FNDA:0,_RNvXNtCsijo3INtYyGB_5lb_l78h3_to_h1NtB2_12H3ToH1BridgeNtB4_6Bridge15bridge_response
FNDA:1,_RNvXNtCsijo3INtYyGB_5lb_l78h3_to_h1NtB2_12H3ToH1BridgeNtB4_6Bridge15source_protocol
FNF:8
FNH:8
DA:25,4
DA:26,4
DA:28,4
DA:29,4
DA:30,4
DA:31,4
DA:34,23
DA:35,19
DA:36,19
DA:37,15
DA:38,11
DA:39,7
DA:40,3
DA:41,0
DA:42,0
DA:43,3
DA:44,3
DA:45,3
DA:52,4
DA:53,4
DA:54,4
DA:55,3
DA:56,3
DA:57,3
DA:59,3
DA:60,3
DA:61,3
DA:62,3
DA:63,3
DA:64,3
DA:65,3
DA:66,3
DA:67,3
DA:68,4
DA:70,2
DA:71,2
DA:73,2
DA:74,2
DA:75,2
DA:76,2
DA:77,2
DA:78,0
DA:79,2
DA:80,2
DA:81,2
DA:82,2
DA:83,2
DA:84,2
DA:85,2
DA:86,2
DA:88,2
DA:89,2
DA:90,2
DA:91,2
DA:92,2
DA:93,2
DA:94,2
DA:95,2
DA:97,1
DA:98,1
DA:99,1
DA:101,1
DA:102,1
DA:103,1
BRF:0
BRH:0
LF:69
LH:66
end_of_record
SF:/home/ubuntu/Code/ExpressGateway/crates/lb-l7/src/h3_to_h2.rs
FN:60,_RNvXNtCscRJcA2zm81b_5lb_l78h3_to_h2NtB2_12H3ToH2BridgeNtB4_6Bridge13dest_protocol
FN:12,_RNvXNtCscRJcA2zm81b_5lb_l78h3_to_h2NtB2_12H3ToH2BridgeNtB4_6Bridge14bridge_request
FN:38,_RNvXNtCscRJcA2zm81b_5lb_l78h3_to_h2NtB2_12H3ToH2BridgeNtB4_6Bridge15bridge_response
FN:56,_RNvXNtCscRJcA2zm81b_5lb_l78h3_to_h2NtB2_12H3ToH2BridgeNtB4_6Bridge15source_protocol
FN:18,_RNCNvXNtCscRJcA2zm81b_5lb_l78h3_to_h2NtB4_12H3ToH2BridgeNtB6_6Bridge14bridge_request0B6_
FN:44,_RNCNvXNtCscRJcA2zm81b_5lb_l78h3_to_h2NtB4_12H3ToH2BridgeNtB6_6Bridge15bridge_response0B6_
FN:60,_RNvXNtCsijo3INtYyGB_5lb_l78h3_to_h2NtB2_12H3ToH2BridgeNtB4_6Bridge13dest_protocol
FN:12,_RNvXNtCsijo3INtYyGB_5lb_l78h3_to_h2NtB2_12H3ToH2BridgeNtB4_6Bridge14bridge_request
FN:38,_RNvXNtCsijo3INtYyGB_5lb_l78h3_to_h2NtB2_12H3ToH2BridgeNtB4_6Bridge15bridge_response
FN:56,_RNvXNtCsijo3INtYyGB_5lb_l78h3_to_h2NtB2_12H3ToH2BridgeNtB4_6Bridge15source_protocol
FN:18,_RNCNvXNtCsijo3INtYyGB_5lb_l78h3_to_h2NtB4_12H3ToH2BridgeNtB6_6Bridge14bridge_request0B6_
FN:44,_RNCNvXNtCsijo3INtYyGB_5lb_l78h3_to_h2NtB4_12H3ToH2BridgeNtB6_6Bridge15bridge_response0B6_
FNDA:0,_RNvXNtCscRJcA2zm81b_5lb_l78h3_to_h2NtB2_12H3ToH2BridgeNtB4_6Bridge13dest_protocol
FNDA:3,_RNvXNtCscRJcA2zm81b_5lb_l78h3_to_h2NtB2_12H3ToH2BridgeNtB4_6Bridge14bridge_request
FNDA:2,_RNvXNtCscRJcA2zm81b_5lb_l78h3_to_h2NtB2_12H3ToH2BridgeNtB4_6Bridge15bridge_response
FNDA:0,_RNvXNtCscRJcA2zm81b_5lb_l78h3_to_h2NtB2_12H3ToH2BridgeNtB4_6Bridge15source_protocol
FNDA:15,_RNCNvXNtCscRJcA2zm81b_5lb_l78h3_to_h2NtB4_12H3ToH2BridgeNtB6_6Bridge14bridge_request0B6_
FNDA:2,_RNCNvXNtCscRJcA2zm81b_5lb_l78h3_to_h2NtB4_12H3ToH2BridgeNtB6_6Bridge15bridge_response0B6_
FNDA:1,_RNvXNtCsijo3INtYyGB_5lb_l78h3_to_h2NtB2_12H3ToH2BridgeNtB4_6Bridge13dest_protocol
FNDA:0,_RNvXNtCsijo3INtYyGB_5lb_l78h3_to_h2NtB2_12H3ToH2BridgeNtB4_6Bridge14bridge_request
FNDA:0,_RNvXNtCsijo3INtYyGB_5lb_l78h3_to_h2NtB2_12H3ToH2BridgeNtB4_6Bridge15bridge_response
FNDA:1,_RNvXNtCsijo3INtYyGB_5lb_l78h3_to_h2NtB2_12H3ToH2BridgeNtB4_6Bridge15source_protocol
FNDA:0,_RNCNvXNtCsijo3INtYyGB_5lb_l78h3_to_h2NtB4_12H3ToH2BridgeNtB6_6Bridge14bridge_request0B6_
FNDA:0,_RNCNvXNtCsijo3INtYyGB_5lb_l78h3_to_h2NtB4_12H3ToH2BridgeNtB6_6Bridge15bridge_response0B6_
FNF:6
FNH:6
DA:12,3
DA:13,3
DA:15,3
DA:16,3
DA:17,3
DA:18,15
DA:19,15
DA:20,12
DA:22,3
DA:24,15
DA:25,3
DA:26,3
DA:27,3
DA:28,3
DA:29,3
DA:30,3
DA:31,3
DA:32,3
DA:33,3
DA:34,3
DA:35,3
DA:36,3
DA:38,2
DA:39,2
DA:41,2
DA:42,2
DA:43,2
DA:44,2
DA:45,2
DA:46,2
DA:47,2
DA:48,2
DA:49,2
DA:50,2
DA:51,2
DA:52,2
DA:53,2
DA:54,2
DA:56,1
DA:57,1
DA:58,1
DA:60,1
DA:61,1
DA:62,1
BRF:0
BRH:0
LF:47
LH:47
end_of_record
SF:/home/ubuntu/Code/ExpressGateway/crates/lb-l7/src/h3_to_h3.rs
FN:60,_RNvXNtCscRJcA2zm81b_5lb_l78h3_to_h3NtB2_12H3ToH3BridgeNtB4_6Bridge13dest_protocol
FN:12,_RNvXNtCscRJcA2zm81b_5lb_l78h3_to_h3NtB2_12H3ToH3BridgeNtB4_6Bridge14bridge_request
FN:38,_RNvXNtCscRJcA2zm81b_5lb_l78h3_to_h3NtB2_12H3ToH3BridgeNtB4_6Bridge15bridge_response
FN:56,_RNvXNtCscRJcA2zm81b_5lb_l78h3_to_h3NtB2_12H3ToH3BridgeNtB4_6Bridge15source_protocol
FN:18,_RNCNvXNtCscRJcA2zm81b_5lb_l78h3_to_h3NtB4_12H3ToH3BridgeNtB6_6Bridge14bridge_request0B6_
FN:44,_RNCNvXNtCscRJcA2zm81b_5lb_l78h3_to_h3NtB4_12H3ToH3BridgeNtB6_6Bridge15bridge_response0B6_
FN:60,_RNvXNtCsijo3INtYyGB_5lb_l78h3_to_h3NtB2_12H3ToH3BridgeNtB4_6Bridge13dest_protocol
FN:12,_RNvXNtCsijo3INtYyGB_5lb_l78h3_to_h3NtB2_12H3ToH3BridgeNtB4_6Bridge14bridge_request
FN:38,_RNvXNtCsijo3INtYyGB_5lb_l78h3_to_h3NtB2_12H3ToH3BridgeNtB4_6Bridge15bridge_response
FN:56,_RNvXNtCsijo3INtYyGB_5lb_l78h3_to_h3NtB2_12H3ToH3BridgeNtB4_6Bridge15source_protocol
FN:18,_RNCNvXNtCsijo3INtYyGB_5lb_l78h3_to_h3NtB4_12H3ToH3BridgeNtB6_6Bridge14bridge_request0B6_
FN:44,_RNCNvXNtCsijo3INtYyGB_5lb_l78h3_to_h3NtB4_12H3ToH3BridgeNtB6_6Bridge15bridge_response0B6_
FNDA:0,_RNvXNtCscRJcA2zm81b_5lb_l78h3_to_h3NtB2_12H3ToH3BridgeNtB4_6Bridge13dest_protocol
FNDA:3,_RNvXNtCscRJcA2zm81b_5lb_l78h3_to_h3NtB2_12H3ToH3BridgeNtB4_6Bridge14bridge_request
FNDA:2,_RNvXNtCscRJcA2zm81b_5lb_l78h3_to_h3NtB2_12H3ToH3BridgeNtB4_6Bridge15bridge_response
FNDA:0,_RNvXNtCscRJcA2zm81b_5lb_l78h3_to_h3NtB2_12H3ToH3BridgeNtB4_6Bridge15source_protocol
FNDA:14,_RNCNvXNtCscRJcA2zm81b_5lb_l78h3_to_h3NtB4_12H3ToH3BridgeNtB6_6Bridge14bridge_request0B6_
FNDA:2,_RNCNvXNtCscRJcA2zm81b_5lb_l78h3_to_h3NtB4_12H3ToH3BridgeNtB6_6Bridge15bridge_response0B6_
FNDA:1,_RNvXNtCsijo3INtYyGB_5lb_l78h3_to_h3NtB2_12H3ToH3BridgeNtB4_6Bridge13dest_protocol
FNDA:0,_RNvXNtCsijo3INtYyGB_5lb_l78h3_to_h3NtB2_12H3ToH3BridgeNtB4_6Bridge14bridge_request
FNDA:0,_RNvXNtCsijo3INtYyGB_5lb_l78h3_to_h3NtB2_12H3ToH3BridgeNtB4_6Bridge15bridge_response
FNDA:1,_RNvXNtCsijo3INtYyGB_5lb_l78h3_to_h3NtB2_12H3ToH3BridgeNtB4_6Bridge15source_protocol
FNDA:0,_RNCNvXNtCsijo3INtYyGB_5lb_l78h3_to_h3NtB4_12H3ToH3BridgeNtB6_6Bridge14bridge_request0B6_
FNDA:0,_RNCNvXNtCsijo3INtYyGB_5lb_l78h3_to_h3NtB4_12H3ToH3BridgeNtB6_6Bridge15bridge_response0B6_
FNF:6
FNH:6
DA:12,3
DA:13,3
DA:15,3
DA:16,3
DA:17,3
DA:18,14
DA:19,14
DA:20,12
DA:22,2
DA:24,14
DA:25,3
DA:26,3
DA:27,3
DA:28,3
DA:29,3
DA:30,3
DA:31,3
DA:32,3
DA:33,3
DA:34,3
DA:35,3
DA:36,3
DA:38,2
DA:39,2
DA:41,2
DA:42,2
DA:43,2
DA:44,2
DA:45,2
DA:46,2
DA:47,2
DA:48,2
DA:49,2
DA:50,2
DA:51,2
DA:52,2
DA:53,2
DA:54,2
DA:56,1
DA:57,1
DA:58,1
DA:60,1
DA:61,1
DA:62,1
BRF:0
BRH:0
LF:47
LH:47
end_of_record
SF:/home/ubuntu/Code/ExpressGateway/crates/lb-l7/src/lib.rs
FN:219,_RNvCscRJcA2zm81b_5lb_l713create_bridge
FN:173,_RNvCscRJcA2zm81b_5lb_l718check_header_count
FN:103,_RNvXCscRJcA2zm81b_5lb_l7NtB2_13BridgeRequestNtNtCs2va5m0jqTTM_4core7default7Default7default
FN:130,_RNvXs_CscRJcA2zm81b_5lb_l7NtB4_14BridgeResponseNtNtCs2va5m0jqTTM_4core7default7Default7default
FN:259,_RNvNtCsijo3INtYyGB_5lb_l75testss_21bridge_preserves_body
FN:291,_RNvNtCsijo3INtYyGB_5lb_l75testss_25too_many_headers_rejected
FN:416,_RNvNtCsijo3INtYyGB_5lb_l75testss_27h1_to_h2_uses_custom_scheme
FN:355,_RNvNtCsijo3INtYyGB_5lb_l75testss_31h2_to_h1_empty_authority_errors
FN:375,_RNvNtCsijo3INtYyGB_5lb_l75testss_31h3_to_h1_empty_authority_errors
FN:335,_RNvNtCsijo3INtYyGB_5lb_l75testss_33h2_to_h1_missing_authority_errors
FN:309,_RNvNtCsijo3INtYyGB_5lb_l75testss_34h1_to_h1_strips_hop_by_hop_headers
FN:395,_RNvNtCsijo3INtYyGB_5lb_l75testss_36h1_to_h1_response_strips_te_trailers
FN:276,_RNvNtCsijo3INtYyGB_5lb_l75testss_41bridge_response_preserves_status_and_body
FN:238,_RNvNtCsijo3INtYyGB_5lb_l75testss_48all_bridge_combinations_report_correct_protocols
FN:293,_RNCNvNtCsijo3INtYyGB_5lb_l75testss_25too_many_headers_rejected0B5_
FN:430,_RNCNvNtCsijo3INtYyGB_5lb_l75testss_27h1_to_h2_uses_custom_scheme0B5_
FN:431,_RNCNvNtCsijo3INtYyGB_5lb_l75testss_27h1_to_h2_uses_custom_schemes_0B5_
FN:326,_RNCNvNtCsijo3INtYyGB_5lb_l75testss_34h1_to_h1_strips_hop_by_hop_headers0B5_
FN:407,_RNCNvNtCsijo3INtYyGB_5lb_l75testss_36h1_to_h1_response_strips_te_trailers0B5_
FN:103,_RNvXCsijo3INtYyGB_5lb_l7NtB2_13BridgeRequestNtNtCs2va5m0jqTTM_4core7default7Default7default
FN:130,_RNvXs_Csijo3INtYyGB_5lb_l7NtB4_14BridgeResponseNtNtCs2va5m0jqTTM_4core7default7Default7default
FN:219,_RNvCsijo3INtYyGB_5lb_l713create_bridge
FN:173,_RNvCsijo3INtYyGB_5lb_l718check_header_count
FNDA:39,_RNvCscRJcA2zm81b_5lb_l713create_bridge
FNDA:65,_RNvCscRJcA2zm81b_5lb_l718check_header_count
FNDA:0,_RNvXCscRJcA2zm81b_5lb_l7NtB2_13BridgeRequestNtNtCs2va5m0jqTTM_4core7default7Default7default
FNDA:0,_RNvXs_CscRJcA2zm81b_5lb_l7NtB4_14BridgeResponseNtNtCs2va5m0jqTTM_4core7default7Default7default
FNDA:1,_RNvNtCsijo3INtYyGB_5lb_l75testss_21bridge_preserves_body
FNDA:1,_RNvNtCsijo3INtYyGB_5lb_l75testss_25too_many_headers_rejected
FNDA:1,_RNvNtCsijo3INtYyGB_5lb_l75testss_27h1_to_h2_uses_custom_scheme
FNDA:1,_RNvNtCsijo3INtYyGB_5lb_l75testss_31h2_to_h1_empty_authority_errors
FNDA:1,_RNvNtCsijo3INtYyGB_5lb_l75testss_31h3_to_h1_empty_authority_errors
FNDA:1,_RNvNtCsijo3INtYyGB_5lb_l75testss_33h2_to_h1_missing_authority_errors
FNDA:1,_RNvNtCsijo3INtYyGB_5lb_l75testss_34h1_to_h1_strips_hop_by_hop_headers
FNDA:1,_RNvNtCsijo3INtYyGB_5lb_l75testss_36h1_to_h1_response_strips_te_trailers
FNDA:1,_RNvNtCsijo3INtYyGB_5lb_l75testss_41bridge_response_preserves_status_and_body
FNDA:1,_RNvNtCsijo3INtYyGB_5lb_l75testss_48all_bridge_combinations_report_correct_protocols
FNDA:257,_RNCNvNtCsijo3INtYyGB_5lb_l75testss_25too_many_headers_rejected0B5_
FNDA:3,_RNCNvNtCsijo3INtYyGB_5lb_l75testss_27h1_to_h2_uses_custom_scheme0B5_
FNDA:1,_RNCNvNtCsijo3INtYyGB_5lb_l75testss_27h1_to_h2_uses_custom_schemes_0B5_
FNDA:2,_RNCNvNtCsijo3INtYyGB_5lb_l75testss_34h1_to_h1_strips_hop_by_hop_headers0B5_
FNDA:1,_RNCNvNtCsijo3INtYyGB_5lb_l75testss_36h1_to_h1_response_strips_te_trailers0B5_
FNDA:0,_RNvXCsijo3INtYyGB_5lb_l7NtB2_13BridgeRequestNtNtCs2va5m0jqTTM_4core7default7Default7default
FNDA:0,_RNvXs_Csijo3INtYyGB_5lb_l7NtB4_14BridgeResponseNtNtCs2va5m0jqTTM_4core7default7Default7default
FNDA:18,_RNvCsijo3INtYyGB_5lb_l713create_bridge
FNDA:17,_RNvCsijo3INtYyGB_5lb_l718check_header_count
FNF:19
FNH:17
DA:103,0
DA:104,0
DA:105,0
DA:106,0
DA:107,0
DA:108,0
DA:109,0
DA:110,0
DA:111,0
DA:112,0
DA:130,0
DA:131,0
DA:132,0
DA:133,0
DA:134,0
DA:135,0
DA:136,0
DA:137,0
DA:173,82
DA:174,82
DA:175,1
DA:176,1
DA:177,1
DA:178,1
DA:179,81
DA:180,81
DA:181,82
DA:219,57
DA:220,57
DA:221,7
DA:222,6
DA:223,5
DA:224,14
DA:225,4
DA:226,5
DA:227,6
DA:228,5
DA:229,5
DA:231,57
DA:238,1
DA:239,1
DA:240,1
DA:241,1
DA:242,1
DA:243,1
DA:244,1
DA:245,1
DA:246,1
DA:247,1
DA:248,1
DA:249,1
DA:251,10
DA:252,9
DA:253,9
DA:254,9
DA:256,1
DA:259,1
DA:260,1
DA:261,1
DA:262,1
DA:263,1
DA:264,1
DA:265,1
DA:266,1
DA:267,1
DA:268,1
DA:269,1
DA:270,1
DA:271,1
DA:272,1
DA:273,1
DA:276,1
DA:277,1
DA:278,1
DA:279,1
DA:280,1
DA:281,1
DA:282,1
DA:283,1
DA:284,1
DA:285,1
DA:286,1
DA:287,1
DA:288,1
DA:291,1
DA:292,1
DA:293,257
DA:294,1
DA:295,1
DA:296,1
DA:297,1
DA:298,1
DA:299,1
DA:300,1
DA:301,1
DA:302,1
DA:303,1
DA:304,1
DA:305,1
DA:306,1
DA:309,1
DA:310,1
DA:311,1
DA:312,1
DA:313,1
DA:314,1
DA:315,1
DA:316,1
DA:317,1
DA:318,1
DA:319,1
DA:320,1
DA:321,1
DA:322,1
DA:323,1
DA:324,1
DA:325,1
DA:326,2
DA:327,1
DA:328,1
DA:329,1
DA:330,1
DA:331,1
DA:332,1
DA:335,1
DA:336,1
DA:337,1
DA:338,1
DA:339,1
DA:340,1
DA:341,1
DA:342,1
DA:343,1
DA:344,1
DA:345,1
DA:346,1
DA:347,1
DA:348,1
DA:349,1
DA:350,1
DA:351,1
DA:352,1
DA:355,1
DA:356,1
DA:357,1
DA:358,1
DA:359,1
DA:360,1
DA:361,1
DA:362,1
DA:363,1
DA:364,1
DA:365,1
DA:366,1
DA:367,1
DA:368,1
DA:369,1
DA:370,1
DA:371,1
DA:372,1
DA:375,1
DA:376,1
DA:377,1
DA:378,1
DA:379,1
DA:380,1
DA:381,1
DA:382,1
DA:383,1
DA:384,1
DA:385,1
DA:386,1
DA:387,1
DA:388,1
DA:389,1
DA:390,1
DA:391,1
DA:392,1
DA:395,1
DA:396,1
DA:397,1
DA:398,1
DA:399,1
DA:400,1
DA:401,1
DA:402,1
DA:403,1
DA:404,1
DA:405,1
DA:406,1
DA:407,1
DA:408,1
DA:409,1
DA:410,0
DA:412,1
DA:413,1
DA:416,1
DA:417,1
DA:418,1
DA:419,1
DA:420,1
DA:421,1
DA:422,1
DA:423,1
DA:424,1
DA:425,1
DA:426,1
DA:427,1
DA:428,1
DA:429,1
DA:430,3
DA:431,1
DA:432,1
DA:433,1
BRF:0
BRH:0
LF:219
LH:200
end_of_record
SF:/home/ubuntu/Code/ExpressGateway/crates/lb-l7/src/security_hooks.rs
FN:113,_RNvMs1_NtCscRJcA2zm81b_5lb_l714security_hooksNtB5_9NoopHooks3new
FN:138,_RNvNtCscRJcA2zm81b_5lb_l714security_hooks13default_hooks
FN:103,_RNvXs0_NtCscRJcA2zm81b_5lb_l714security_hooksNtB5_9NoopHooksNtNtCs2va5m0jqTTM_4core3fmt5Debug3fmt
FN:129,_RNvXs2_NtCscRJcA2zm81b_5lb_l714security_hooksNtB5_9NoopHooksNtNtCsgphuHPmxLkZ_11lb_security5hooks13SecurityHooks16admit_connection
FN:97,_RNvXs_NtCscRJcA2zm81b_5lb_l714security_hooksNtB4_9NoopHooksNtNtCs2va5m0jqTTM_4core7default7Default7default
FN:121,_RINvXs2_NtCscRJcA2zm81b_5lb_l714security_hooksNtB6_9NoopHooksNtNtCsgphuHPmxLkZ_11lb_security5hooks13SecurityHooks15inspect_requestuEB8_
FN:74,_RNvXNtCscRJcA2zm81b_5lb_l714security_hooksNtB2_9NoopHooksNtB2_16DynSecurityHooks15inspect_requestB4_
FN:78,_RNvXNtCscRJcA2zm81b_5lb_l714security_hooksNtB2_9NoopHooksNtB2_16DynSecurityHooks16admit_connectionB4_
FN:74,_RNvXNtCscRJcA2zm81b_5lb_l714security_hooksNtNtCsgphuHPmxLkZ_11lb_security5hooks11HooksBundleNtB2_16DynSecurityHooks15inspect_requestCsg9xlZenf2AU_14expressgateway
FN:78,_RNvXNtCscRJcA2zm81b_5lb_l714security_hooksNtNtCsgphuHPmxLkZ_11lb_security5hooks11HooksBundleNtB2_16DynSecurityHooks16admit_connectionCsg9xlZenf2AU_14expressgateway
FN:74,_RNvXNtCscRJcA2zm81b_5lb_l714security_hooksNtNtCsgphuHPmxLkZ_11lb_security5hooks11HooksBundleNtB2_16DynSecurityHooks15inspect_requestCs5eBwyIsPj0k_14expressgateway
FN:78,_RNvXNtCscRJcA2zm81b_5lb_l714security_hooksNtNtCsgphuHPmxLkZ_11lb_security5hooks11HooksBundleNtB2_16DynSecurityHooks16admit_connectionCs5eBwyIsPj0k_14expressgateway
FN:103,_RNvXs0_NtCsijo3INtYyGB_5lb_l714security_hooksNtB5_9NoopHooksNtNtCs2va5m0jqTTM_4core3fmt5Debug3fmt
FN:97,_RNvXs_NtCsijo3INtYyGB_5lb_l714security_hooksNtB4_9NoopHooksNtNtCs2va5m0jqTTM_4core7default7Default7default
FN:121,_RINvXs2_NtCsijo3INtYyGB_5lb_l714security_hooksNtB6_9NoopHooksNtNtCsgphuHPmxLkZ_11lb_security5hooks13SecurityHooks15inspect_requestuEB8_
FN:74,_RNvXNtCsijo3INtYyGB_5lb_l714security_hooksNtB2_9NoopHooksNtB2_16DynSecurityHooks15inspect_requestB4_
FN:78,_RNvXNtCsijo3INtYyGB_5lb_l714security_hooksNtB2_9NoopHooksNtB2_16DynSecurityHooks16admit_connectionB4_
FN:113,_RNvMs1_NtCsijo3INtYyGB_5lb_l714security_hooksNtB5_9NoopHooks3new
FN:138,_RNvNtCsijo3INtYyGB_5lb_l714security_hooks13default_hooks
FN:129,_RNvXs2_NtCsijo3INtYyGB_5lb_l714security_hooksNtB5_9NoopHooksNtNtCsgphuHPmxLkZ_11lb_security5hooks13SecurityHooks16admit_connection
FN:162,_RNvNtNtCsijo3INtYyGB_5lb_l714security_hooks5testss_26default_hooks_returns_noop
FN:149,_RNvNtNtCsijo3INtYyGB_5lb_l714security_hooks5testss_30noop_inspect_request_always_ok
FN:156,_RNvNtNtCsijo3INtYyGB_5lb_l714security_hooks5testss_31noop_admit_connection_always_ok
FNDA:19,_RNvMs1_NtCscRJcA2zm81b_5lb_l714security_hooksNtB5_9NoopHooks3new
FNDA:0,_RNvNtCscRJcA2zm81b_5lb_l714security_hooks13default_hooks
FNDA:0,_RNvXs0_NtCscRJcA2zm81b_5lb_l714security_hooksNtB5_9NoopHooksNtNtCs2va5m0jqTTM_4core3fmt5Debug3fmt
FNDA:0,_RNvXs2_NtCscRJcA2zm81b_5lb_l714security_hooksNtB5_9NoopHooksNtNtCsgphuHPmxLkZ_11lb_security5hooks13SecurityHooks16admit_connection
FNDA:0,_RNvXs_NtCscRJcA2zm81b_5lb_l714security_hooksNtB4_9NoopHooksNtNtCs2va5m0jqTTM_4core7default7Default7default
FNDA:37,_RINvXs2_NtCscRJcA2zm81b_5lb_l714security_hooksNtB6_9NoopHooksNtNtCsgphuHPmxLkZ_11lb_security5hooks13SecurityHooks15inspect_requestuEB8_
FNDA:37,_RNvXNtCscRJcA2zm81b_5lb_l714security_hooksNtB2_9NoopHooksNtB2_16DynSecurityHooks15inspect_requestB4_
FNDA:0,_RNvXNtCscRJcA2zm81b_5lb_l714security_hooksNtB2_9NoopHooksNtB2_16DynSecurityHooks16admit_connectionB4_
FNDA:0,_RNvXNtCscRJcA2zm81b_5lb_l714security_hooksNtNtCsgphuHPmxLkZ_11lb_security5hooks11HooksBundleNtB2_16DynSecurityHooks15inspect_requestCsg9xlZenf2AU_14expressgateway
FNDA:0,_RNvXNtCscRJcA2zm81b_5lb_l714security_hooksNtNtCsgphuHPmxLkZ_11lb_security5hooks11HooksBundleNtB2_16DynSecurityHooks16admit_connectionCsg9xlZenf2AU_14expressgateway
FNDA:0,_RNvXNtCscRJcA2zm81b_5lb_l714security_hooksNtNtCsgphuHPmxLkZ_11lb_security5hooks11HooksBundleNtB2_16DynSecurityHooks15inspect_requestCs5eBwyIsPj0k_14expressgateway
FNDA:0,_RNvXNtCscRJcA2zm81b_5lb_l714security_hooksNtNtCsgphuHPmxLkZ_11lb_security5hooks11HooksBundleNtB2_16DynSecurityHooks16admit_connectionCs5eBwyIsPj0k_14expressgateway
FNDA:0,_RNvXs0_NtCsijo3INtYyGB_5lb_l714security_hooksNtB5_9NoopHooksNtNtCs2va5m0jqTTM_4core3fmt5Debug3fmt
FNDA:0,_RNvXs_NtCsijo3INtYyGB_5lb_l714security_hooksNtB4_9NoopHooksNtNtCs2va5m0jqTTM_4core7default7Default7default
FNDA:2,_RINvXs2_NtCsijo3INtYyGB_5lb_l714security_hooksNtB6_9NoopHooksNtNtCsgphuHPmxLkZ_11lb_security5hooks13SecurityHooks15inspect_requestuEB8_
FNDA:2,_RNvXNtCsijo3INtYyGB_5lb_l714security_hooksNtB2_9NoopHooksNtB2_16DynSecurityHooks15inspect_requestB4_
FNDA:1,_RNvXNtCsijo3INtYyGB_5lb_l714security_hooksNtB2_9NoopHooksNtB2_16DynSecurityHooks16admit_connectionB4_
FNDA:5,_RNvMs1_NtCsijo3INtYyGB_5lb_l714security_hooksNtB5_9NoopHooks3new
FNDA:1,_RNvNtCsijo3INtYyGB_5lb_l714security_hooks13default_hooks
FNDA:1,_RNvXs2_NtCsijo3INtYyGB_5lb_l714security_hooksNtB5_9NoopHooksNtNtCsgphuHPmxLkZ_11lb_security5hooks13SecurityHooks16admit_connection
FNDA:1,_RNvNtNtCsijo3INtYyGB_5lb_l714security_hooks5testss_26default_hooks_returns_noop
FNDA:1,_RNvNtNtCsijo3INtYyGB_5lb_l714security_hooks5testss_30noop_inspect_request_always_ok
FNDA:1,_RNvNtNtCsijo3INtYyGB_5lb_l714security_hooks5testss_31noop_admit_connection_always_ok
FNF:11
FNH:9
DA:74,39
DA:75,39
DA:76,39
DA:78,1
DA:79,1
DA:80,1
DA:97,0
DA:98,0
DA:99,0
DA:103,0
DA:104,0
DA:105,0
DA:113,24
DA:114,24
DA:115,24
DA:116,24
DA:117,24
DA:121,39
DA:122,39
DA:123,39
DA:124,39
DA:125,39
DA:126,39
DA:127,39
DA:129,1
DA:130,1
DA:131,1
DA:138,1
DA:139,1
DA:140,1
DA:149,1
DA:150,1
DA:151,1
DA:152,1
DA:153,1
DA:156,1
DA:157,1
DA:158,1
DA:159,1
DA:162,1
DA:163,1
DA:164,1
DA:165,1
DA:166,1
BRF:0
BRH:0
LF:44
LH:38
end_of_record
SF:/home/ubuntu/Code/ExpressGateway/crates/lb-l7/src/sni_authority.rs
FN:144,_RNCNvNtCscRJcA2zm81b_5lb_l713sni_authority15split_host_port0B5_
FN:149,_RNCNvNtCscRJcA2zm81b_5lb_l713sni_authority15split_host_ports_0B5_
FN:131,_RNvNtCscRJcA2zm81b_5lb_l713sni_authority14normalise_host
FN:138,_RNvNtCscRJcA2zm81b_5lb_l713sni_authority15split_host_port
FN:95,_RNvNtCscRJcA2zm81b_5lb_l713sni_authority19check_sni_authority
FN:123,_RNvNtCscRJcA2zm81b_5lb_l713sni_authority20misdirected_response
FN:55,_RNvXNtCscRJcA2zm81b_5lb_l713sni_authorityNtB2_11SniMismatchNtNtCs2va5m0jqTTM_4core3fmt7Display3fmt
FN:159,_RNvNtNtCsijo3INtYyGB_5lb_l713sni_authority5testss_13no_sni_passes
FN:203,_RNvNtNtCsijo3INtYyGB_5lb_l713sni_authority5testss_14ipv6_authority
FN:182,_RNvNtNtCsijo3INtYyGB_5lb_l713sni_authority5testss_17mismatch_rejected
FN:171,_RNvNtNtCsijo3INtYyGB_5lb_l713sni_authority5testss_20matching_pair_passes
FN:176,_RNvNtNtCsijo3INtYyGB_5lb_l713sni_authority5testss_22case_insensitive_match
FN:164,_RNvNtNtCsijo3INtYyGB_5lb_l713sni_authority5testss_22empty_authority_passes
FN:197,_RNvNtNtCsijo3INtYyGB_5lb_l713sni_authority5testss_23trailing_dot_normalised
FN:210,_RNvNtNtCsijo3INtYyGB_5lb_l713sni_authority5testss_27misdirected_response_is_421
FN:190,_RNvNtNtCsijo3INtYyGB_5lb_l713sni_authority5testss_41authority_with_port_compared_on_host_only
FN:144,_RNCNvNtCsijo3INtYyGB_5lb_l713sni_authority15split_host_port0B5_
FN:149,_RNCNvNtCsijo3INtYyGB_5lb_l713sni_authority15split_host_ports_0B5_
FN:131,_RNvNtCsijo3INtYyGB_5lb_l713sni_authority14normalise_host
FN:138,_RNvNtCsijo3INtYyGB_5lb_l713sni_authority15split_host_port
FN:95,_RNvNtCsijo3INtYyGB_5lb_l713sni_authority19check_sni_authority
FN:123,_RNvNtCsijo3INtYyGB_5lb_l713sni_authority20misdirected_response
FN:55,_RNvXNtCsijo3INtYyGB_5lb_l713sni_authorityNtB2_11SniMismatchNtNtCs2va5m0jqTTM_4core3fmt7Display3fmt
FNDA:1,_RNCNvNtCscRJcA2zm81b_5lb_l713sni_authority15split_host_port0B5_
FNDA:4,_RNCNvNtCscRJcA2zm81b_5lb_l713sni_authority15split_host_ports_0B5_
FNDA:16,_RNvNtCscRJcA2zm81b_5lb_l713sni_authority14normalise_host
FNDA:8,_RNvNtCscRJcA2zm81b_5lb_l713sni_authority15split_host_port
FNDA:9,_RNvNtCscRJcA2zm81b_5lb_l713sni_authority19check_sni_authority
FNDA:2,_RNvNtCscRJcA2zm81b_5lb_l713sni_authority20misdirected_response
FNDA:0,_RNvXNtCscRJcA2zm81b_5lb_l713sni_authorityNtB2_11SniMismatchNtNtCs2va5m0jqTTM_4core3fmt7Display3fmt
FNDA:1,_RNvNtNtCsijo3INtYyGB_5lb_l713sni_authority5testss_13no_sni_passes
FNDA:1,_RNvNtNtCsijo3INtYyGB_5lb_l713sni_authority5testss_14ipv6_authority
FNDA:1,_RNvNtNtCsijo3INtYyGB_5lb_l713sni_authority5testss_17mismatch_rejected
FNDA:1,_RNvNtNtCsijo3INtYyGB_5lb_l713sni_authority5testss_20matching_pair_passes
FNDA:1,_RNvNtNtCsijo3INtYyGB_5lb_l713sni_authority5testss_22case_insensitive_match
FNDA:1,_RNvNtNtCsijo3INtYyGB_5lb_l713sni_authority5testss_22empty_authority_passes
FNDA:1,_RNvNtNtCsijo3INtYyGB_5lb_l713sni_authority5testss_23trailing_dot_normalised
FNDA:1,_RNvNtNtCsijo3INtYyGB_5lb_l713sni_authority5testss_27misdirected_response_is_421
FNDA:1,_RNvNtNtCsijo3INtYyGB_5lb_l713sni_authority5testss_41authority_with_port_compared_on_host_only
FNDA:2,_RNCNvNtCsijo3INtYyGB_5lb_l713sni_authority15split_host_port0B5_
FNDA:4,_RNCNvNtCsijo3INtYyGB_5lb_l713sni_authority15split_host_ports_0B5_
FNDA:18,_RNvNtCsijo3INtYyGB_5lb_l713sni_authority14normalise_host
FNDA:9,_RNvNtCsijo3INtYyGB_5lb_l713sni_authority15split_host_port
FNDA:11,_RNvNtCsijo3INtYyGB_5lb_l713sni_authority19check_sni_authority
FNDA:1,_RNvNtCsijo3INtYyGB_5lb_l713sni_authority20misdirected_response
FNDA:1,_RNvXNtCsijo3INtYyGB_5lb_l713sni_authorityNtB2_11SniMismatchNtNtCs2va5m0jqTTM_4core3fmt7Display3fmt
FNF:16
FNH:16
DA:55,1
DA:56,1
DA:57,1
DA:58,1
DA:59,1
DA:60,1
DA:61,1
DA:95,20
DA:96,20
DA:97,2
DA:99,18
DA:100,1
DA:101,17
DA:102,17
DA:103,17
DA:104,17
DA:105,17
DA:106,12
DA:108,5
DA:109,5
DA:110,5
DA:111,5
DA:113,20
DA:123,3
DA:124,3
DA:125,3
DA:126,3
DA:127,3
DA:128,3
DA:131,34
DA:132,34
DA:133,34
DA:138,17
DA:139,17
DA:140,4
DA:141,4
DA:142,4
DA:143,4
DA:144,4
DA:145,0
DA:146,0
DA:147,13
DA:148,13
DA:149,8
DA:150,11
DA:152,17
DA:159,1
DA:160,1
DA:161,1
DA:164,1
DA:165,1
DA:166,1
DA:167,1
DA:168,1
DA:171,1
DA:172,1
DA:173,1
DA:176,1
DA:177,1
DA:178,1
DA:179,1
DA:182,1
DA:183,1
DA:184,1
DA:185,1
DA:186,1
DA:187,1
DA:190,1
DA:191,1
DA:192,1
DA:193,1
DA:194,1
DA:197,1
DA:198,1
DA:199,1
DA:200,1
DA:203,1
DA:204,1
DA:206,1
DA:207,1
DA:210,1
DA:211,1
DA:212,1
DA:213,1
DA:214,1
BRF:0
BRH:0
LF:87
LH:85
end_of_record
SF:/home/ubuntu/Code/ExpressGateway/crates/lb-l7/src/stripped_request.rs
FN:126,_RINvNtCscRJcA2zm81b_5lb_l716stripped_request14strip_for_testpEB4_
FN:72,_RNvMNtCscRJcA2zm81b_5lb_l716stripped_requestINtB2_15StrippedRequestpE10into_partsB4_
FN:45,_RNvMNtCscRJcA2zm81b_5lb_l716stripped_requestINtB2_15StrippedRequestpE5innerB4_
FN:88,_RINvNtCscRJcA2zm81b_5lb_l716stripped_request16strip_hop_by_hopNtNtNtCsgB3dp6qvXvn_5hyper4body8incoming8IncomingEB4_
FN:65,_RNvMNtCscRJcA2zm81b_5lb_l716stripped_requestINtB2_15StrippedRequestNtNtNtCsgB3dp6qvXvn_5hyper4body8incoming8IncomingE10into_innerB4_
FN:55,_RNvMNtCscRJcA2zm81b_5lb_l716stripped_requestINtB2_15StrippedRequestNtNtNtCsgB3dp6qvXvn_5hyper4body8incoming8IncomingE11headers_mutB4_
FN:137,_RNvNtNtCsijo3INtYyGB_5lb_l716stripped_request5testss_24strip_removes_hop_by_hop
FN:155,_RNvNtNtCsijo3INtYyGB_5lb_l716stripped_request5testss_25into_inner_yields_request
FN:163,_RNvNtNtCsijo3INtYyGB_5lb_l716stripped_request5testss_26repr_transparent_zero_cost
FN:126,_RINvNtCsijo3INtYyGB_5lb_l716stripped_request14strip_for_testpEB4_
FN:72,_RNvMNtCsijo3INtYyGB_5lb_l716stripped_requestINtB2_15StrippedRequestpE10into_partsB4_
FN:88,_RINvNtCsijo3INtYyGB_5lb_l716stripped_request16strip_hop_by_hopNtNtNtCsgB3dp6qvXvn_5hyper4body8incoming8IncomingEB4_
FN:88,_RINvNtCsijo3INtYyGB_5lb_l716stripped_request16strip_hop_by_hopuEB4_
FN:65,_RNvMNtCsijo3INtYyGB_5lb_l716stripped_requestINtB2_15StrippedRequestNtNtNtCsgB3dp6qvXvn_5hyper4body8incoming8IncomingE10into_innerB4_
FN:55,_RNvMNtCsijo3INtYyGB_5lb_l716stripped_requestINtB2_15StrippedRequestNtNtNtCsgB3dp6qvXvn_5hyper4body8incoming8IncomingE11headers_mutB4_
FN:65,_RNvMNtCsijo3INtYyGB_5lb_l716stripped_requestINtB2_15StrippedRequestuE10into_innerB4_
FN:45,_RNvMNtCsijo3INtYyGB_5lb_l716stripped_requestINtB2_15StrippedRequestuE5innerB4_
FN:126,_RINvNtCscRJcA2zm81b_5lb_l716stripped_request14strip_for_testuECs8uZJGGB973a_24stripped_request_newtype
FN:88,_RINvNtCscRJcA2zm81b_5lb_l716stripped_request16strip_hop_by_hopuECs8uZJGGB973a_24stripped_request_newtype
FN:65,_RNvMNtCscRJcA2zm81b_5lb_l716stripped_requestINtB2_15StrippedRequestuE10into_innerCs8uZJGGB973a_24stripped_request_newtype
FN:45,_RNvMNtCscRJcA2zm81b_5lb_l716stripped_requestINtB2_15StrippedRequestuE5innerCs8uZJGGB973a_24stripped_request_newtype
FNDA:0,_RINvNtCscRJcA2zm81b_5lb_l716stripped_request14strip_for_testpEB4_
FNDA:0,_RNvMNtCscRJcA2zm81b_5lb_l716stripped_requestINtB2_15StrippedRequestpE10into_partsB4_
FNDA:0,_RNvMNtCscRJcA2zm81b_5lb_l716stripped_requestINtB2_15StrippedRequestpE5innerB4_
FNDA:35,_RINvNtCscRJcA2zm81b_5lb_l716stripped_request16strip_hop_by_hopNtNtNtCsgB3dp6qvXvn_5hyper4body8incoming8IncomingEB4_
FNDA:35,_RNvMNtCscRJcA2zm81b_5lb_l716stripped_requestINtB2_15StrippedRequestNtNtNtCsgB3dp6qvXvn_5hyper4body8incoming8IncomingE10into_innerB4_
FNDA:35,_RNvMNtCscRJcA2zm81b_5lb_l716stripped_requestINtB2_15StrippedRequestNtNtNtCsgB3dp6qvXvn_5hyper4body8incoming8IncomingE11headers_mutB4_
FNDA:1,_RNvNtNtCsijo3INtYyGB_5lb_l716stripped_request5testss_24strip_removes_hop_by_hop
FNDA:1,_RNvNtNtCsijo3INtYyGB_5lb_l716stripped_request5testss_25into_inner_yields_request
FNDA:1,_RNvNtNtCsijo3INtYyGB_5lb_l716stripped_request5testss_26repr_transparent_zero_cost
FNDA:0,_RINvNtCsijo3INtYyGB_5lb_l716stripped_request14strip_for_testpEB4_
FNDA:0,_RNvMNtCsijo3INtYyGB_5lb_l716stripped_requestINtB2_15StrippedRequestpE10into_partsB4_
FNDA:0,_RINvNtCsijo3INtYyGB_5lb_l716stripped_request16strip_hop_by_hopNtNtNtCsgB3dp6qvXvn_5hyper4body8incoming8IncomingEB4_
FNDA:2,_RINvNtCsijo3INtYyGB_5lb_l716stripped_request16strip_hop_by_hopuEB4_
FNDA:0,_RNvMNtCsijo3INtYyGB_5lb_l716stripped_requestINtB2_15StrippedRequestNtNtNtCsgB3dp6qvXvn_5hyper4body8incoming8IncomingE10into_innerB4_
FNDA:0,_RNvMNtCsijo3INtYyGB_5lb_l716stripped_requestINtB2_15StrippedRequestNtNtNtCsgB3dp6qvXvn_5hyper4body8incoming8IncomingE11headers_mutB4_
FNDA:1,_RNvMNtCsijo3INtYyGB_5lb_l716stripped_requestINtB2_15StrippedRequestuE10into_innerB4_
FNDA:3,_RNvMNtCsijo3INtYyGB_5lb_l716stripped_requestINtB2_15StrippedRequestuE5innerB4_
FNDA:5,_RINvNtCscRJcA2zm81b_5lb_l716stripped_request14strip_for_testuECs8uZJGGB973a_24stripped_request_newtype
FNDA:5,_RINvNtCscRJcA2zm81b_5lb_l716stripped_request16strip_hop_by_hopuECs8uZJGGB973a_24stripped_request_newtype
FNDA:2,_RNvMNtCscRJcA2zm81b_5lb_l716stripped_requestINtB2_15StrippedRequestuE10into_innerCs8uZJGGB973a_24stripped_request_newtype
FNDA:4,_RNvMNtCscRJcA2zm81b_5lb_l716stripped_requestINtB2_15StrippedRequestuE5innerCs8uZJGGB973a_24stripped_request_newtype
FNF:9
FNH:8
DA:45,7
DA:46,7
DA:47,7
DA:55,35
DA:56,35
DA:57,35
DA:65,38
DA:66,38
DA:67,38
DA:72,0
DA:73,0
DA:74,0
DA:88,42
DA:89,42
DA:90,42
DA:91,42
DA:126,5
DA:127,5
DA:128,5
DA:137,1
DA:138,1
DA:139,1
DA:140,1
DA:141,1
DA:142,1
DA:143,1
DA:144,1
DA:145,1
DA:146,1
DA:147,1
DA:148,1
DA:149,1
DA:150,1
DA:151,1
DA:152,1
DA:155,1
DA:156,1
DA:157,1
DA:158,1
DA:159,1
DA:160,1
DA:163,1
DA:170,1
BRF:0
BRH:0
LF:43
LH:40
end_of_record
SF:/home/ubuntu/Code/ExpressGateway/crates/lb-l7/src/trace_ctx.rs
FN:99,_RNCNCNvNtCscRJcA2zm81b_5lb_l79trace_ctx13startup_nonce00B7_
FN:202,_RNCNvMs0_NtCscRJcA2zm81b_5lb_l79trace_ctxNtB7_12RequestTrace4open0B9_
FN:95,_RNCNvNtCscRJcA2zm81b_5lb_l79trace_ctx13startup_nonce0B5_
FN:133,_RNCNvNtCscRJcA2zm81b_5lb_l79trace_ctx14synth_trace_id0B5_
FN:52,_RNCNvXNtCscRJcA2zm81b_5lb_l79trace_ctxNtB4_12HyperHeadersNtNtCsjqkoZuoA1pp_16lb_observability19tracing_propagation9HeaderBag9get_first0B6_
FN:78,_RNCNvXs_NtCscRJcA2zm81b_5lb_l79trace_ctxNtB6_15HyperHeadersRefNtNtCsjqkoZuoA1pp_16lb_observability19tracing_propagation9HeaderBag9get_first0B8_
FN:238,_RNvMs0_NtCscRJcA2zm81b_5lb_l79trace_ctxNtB5_12RequestTrace15inject_upstream
FN:248,_RNvMs0_NtCscRJcA2zm81b_5lb_l79trace_ctxNtB5_12RequestTrace17child_traceparent
FN:177,_RNvMs0_NtCscRJcA2zm81b_5lb_l79trace_ctxNtB5_12RequestTrace4open
FN:115,_RNvNtCscRJcA2zm81b_5lb_l79trace_ctx12mint_span_id
FN:92,_RNvNtCscRJcA2zm81b_5lb_l79trace_ctx13startup_nonce
FN:127,_RNvNtCscRJcA2zm81b_5lb_l79trace_ctx14synth_trace_id
FN:141,_RNvNtCscRJcA2zm81b_5lb_l79trace_ctx3hex
FN:55,_RNvXNtCscRJcA2zm81b_5lb_l79trace_ctxNtB2_12HyperHeadersNtNtCsjqkoZuoA1pp_16lb_observability19tracing_propagation9HeaderBag6append
FN:64,_RNvXNtCscRJcA2zm81b_5lb_l79trace_ctxNtB2_12HyperHeadersNtNtCsjqkoZuoA1pp_16lb_observability19tracing_propagation9HeaderBag6remove
FN:49,_RNvXNtCscRJcA2zm81b_5lb_l79trace_ctxNtB2_12HyperHeadersNtNtCsjqkoZuoA1pp_16lb_observability19tracing_propagation9HeaderBag9get_first
FN:84,_RNvXs_NtCscRJcA2zm81b_5lb_l79trace_ctxNtB4_15HyperHeadersRefNtNtCsjqkoZuoA1pp_16lb_observability19tracing_propagation9HeaderBag6append
FN:85,_RNvXs_NtCscRJcA2zm81b_5lb_l79trace_ctxNtB4_15HyperHeadersRefNtNtCsjqkoZuoA1pp_16lb_observability19tracing_propagation9HeaderBag6remove
FN:75,_RNvXs_NtCscRJcA2zm81b_5lb_l79trace_ctxNtB4_15HyperHeadersRefNtNtCsjqkoZuoA1pp_16lb_observability19tracing_propagation9HeaderBag9get_first
FN:238,_RNvMs0_NtCsijo3INtYyGB_5lb_l79trace_ctxNtB5_12RequestTrace15inject_upstream
FN:248,_RNvMs0_NtCsijo3INtYyGB_5lb_l79trace_ctxNtB5_12RequestTrace17child_traceparent
FN:177,_RNvMs0_NtCsijo3INtYyGB_5lb_l79trace_ctxNtB5_12RequestTrace4open
FN:115,_RNvNtCsijo3INtYyGB_5lb_l79trace_ctx12mint_span_id
FN:92,_RNvNtCsijo3INtYyGB_5lb_l79trace_ctx13startup_nonce
FN:127,_RNvNtCsijo3INtYyGB_5lb_l79trace_ctx14synth_trace_id
FN:141,_RNvNtCsijo3INtYyGB_5lb_l79trace_ctx3hex
FN:55,_RNvXNtCsijo3INtYyGB_5lb_l79trace_ctxNtB2_12HyperHeadersNtNtCsjqkoZuoA1pp_16lb_observability19tracing_propagation9HeaderBag6append
FN:64,_RNvXNtCsijo3INtYyGB_5lb_l79trace_ctxNtB2_12HyperHeadersNtNtCsjqkoZuoA1pp_16lb_observability19tracing_propagation9HeaderBag6remove
FN:75,_RNvXs_NtCsijo3INtYyGB_5lb_l79trace_ctxNtB4_15HyperHeadersRefNtNtCsjqkoZuoA1pp_16lb_observability19tracing_propagation9HeaderBag9get_first
FN:52,_RNCNvXNtCsijo3INtYyGB_5lb_l79trace_ctxNtB4_12HyperHeadersNtNtCsjqkoZuoA1pp_16lb_observability19tracing_propagation9HeaderBag9get_first0B6_
FN:49,_RNvXNtCsijo3INtYyGB_5lb_l79trace_ctxNtB2_12HyperHeadersNtNtCsjqkoZuoA1pp_16lb_observability19tracing_propagation9HeaderBag9get_first
FN:84,_RNvXs_NtCsijo3INtYyGB_5lb_l79trace_ctxNtB4_15HyperHeadersRefNtNtCsjqkoZuoA1pp_16lb_observability19tracing_propagation9HeaderBag6append
FN:85,_RNvXs_NtCsijo3INtYyGB_5lb_l79trace_ctxNtB4_15HyperHeadersRefNtNtCsjqkoZuoA1pp_16lb_observability19tracing_propagation9HeaderBag6remove
FN:287,_RNCNvNtNtCsijo3INtYyGB_5lb_l79trace_ctx5testss_36child_keeps_trace_id_replaces_parent0B7_
FN:296,_RNCNvNtNtCsijo3INtYyGB_5lb_l79trace_ctx5testss_36missing_traceparent_synthesises_root0B7_
FN:297,_RNCNvNtNtCsijo3INtYyGB_5lb_l79trace_ctx5testss_36missing_traceparent_synthesises_roots_0B7_
FN:258,_RNvNtNtCsijo3INtYyGB_5lb_l79trace_ctx5tests2hm
FN:321,_RNvNtNtCsijo3INtYyGB_5lb_l79trace_ctx5testss_28span_ids_are_unique_per_call
FN:270,_RNvNtNtCsijo3INtYyGB_5lb_l79trace_ctx5testss_36child_keeps_trace_id_replaces_parent
FN:293,_RNvNtNtCsijo3INtYyGB_5lb_l79trace_ctx5testss_36missing_traceparent_synthesises_root
FN:303,_RNvNtNtCsijo3INtYyGB_5lb_l79trace_ctx5testss_37inject_round_trips_onto_hyper_headers
FN:99,_RNCNCNvNtCsijo3INtYyGB_5lb_l79trace_ctx13startup_nonce00B7_
FN:202,_RNCNvMs0_NtCsijo3INtYyGB_5lb_l79trace_ctxNtB7_12RequestTrace4open0B9_
FN:95,_RNCNvNtCsijo3INtYyGB_5lb_l79trace_ctx13startup_nonce0B5_
FN:133,_RNCNvNtCsijo3INtYyGB_5lb_l79trace_ctx14synth_trace_id0B5_
FN:78,_RNCNvXs_NtCsijo3INtYyGB_5lb_l79trace_ctxNtB6_15HyperHeadersRefNtNtCsjqkoZuoA1pp_16lb_observability19tracing_propagation9HeaderBag9get_first0B8_
FNDA:6,_RNCNCNvNtCscRJcA2zm81b_5lb_l79trace_ctx13startup_nonce00B7_
FNDA:2,_RNCNvMs0_NtCscRJcA2zm81b_5lb_l79trace_ctxNtB7_12RequestTrace4open0B9_
FNDA:6,_RNCNvNtCscRJcA2zm81b_5lb_l79trace_ctx13startup_nonce0B5_
FNDA:47,_RNCNvNtCscRJcA2zm81b_5lb_l79trace_ctx14synth_trace_id0B5_
FNDA:0,_RNCNvXNtCscRJcA2zm81b_5lb_l79trace_ctxNtB4_12HyperHeadersNtNtCsjqkoZuoA1pp_16lb_observability19tracing_propagation9HeaderBag9get_first0B6_
FNDA:2,_RNCNvXs_NtCscRJcA2zm81b_5lb_l79trace_ctxNtB6_15HyperHeadersRefNtNtCsjqkoZuoA1pp_16lb_observability19tracing_propagation9HeaderBag9get_first0B8_
FNDA:7,_RNvMs0_NtCscRJcA2zm81b_5lb_l79trace_ctxNtB5_12RequestTrace15inject_upstream
FNDA:4,_RNvMs0_NtCscRJcA2zm81b_5lb_l79trace_ctxNtB5_12RequestTrace17child_traceparent
FNDA:49,_RNvMs0_NtCscRJcA2zm81b_5lb_l79trace_ctxNtB5_12RequestTrace4open
FNDA:49,_RNvNtCscRJcA2zm81b_5lb_l79trace_ctx12mint_span_id
FNDA:143,_RNvNtCscRJcA2zm81b_5lb_l79trace_ctx13startup_nonce
FNDA:47,_RNvNtCscRJcA2zm81b_5lb_l79trace_ctx14synth_trace_id
FNDA:100,_RNvNtCscRJcA2zm81b_5lb_l79trace_ctx3hex
FNDA:7,_RNvXNtCscRJcA2zm81b_5lb_l79trace_ctxNtB2_12HyperHeadersNtNtCsjqkoZuoA1pp_16lb_observability19tracing_propagation9HeaderBag6append
FNDA:7,_RNvXNtCscRJcA2zm81b_5lb_l79trace_ctxNtB2_12HyperHeadersNtNtCsjqkoZuoA1pp_16lb_observability19tracing_propagation9HeaderBag6remove
FNDA:0,_RNvXNtCscRJcA2zm81b_5lb_l79trace_ctxNtB2_12HyperHeadersNtNtCsjqkoZuoA1pp_16lb_observability19tracing_propagation9HeaderBag9get_first
FNDA:0,_RNvXs_NtCscRJcA2zm81b_5lb_l79trace_ctxNtB4_15HyperHeadersRefNtNtCsjqkoZuoA1pp_16lb_observability19tracing_propagation9HeaderBag6append
FNDA:0,_RNvXs_NtCscRJcA2zm81b_5lb_l79trace_ctxNtB4_15HyperHeadersRefNtNtCsjqkoZuoA1pp_16lb_observability19tracing_propagation9HeaderBag6remove
FNDA:98,_RNvXs_NtCscRJcA2zm81b_5lb_l79trace_ctxNtB4_15HyperHeadersRefNtNtCsjqkoZuoA1pp_16lb_observability19tracing_propagation9HeaderBag9get_first
FNDA:1,_RNvMs0_NtCsijo3INtYyGB_5lb_l79trace_ctxNtB5_12RequestTrace15inject_upstream
FNDA:1,_RNvMs0_NtCsijo3INtYyGB_5lb_l79trace_ctxNtB5_12RequestTrace17child_traceparent
FNDA:5,_RNvMs0_NtCsijo3INtYyGB_5lb_l79trace_ctxNtB5_12RequestTrace4open
FNDA:5,_RNvNtCsijo3INtYyGB_5lb_l79trace_ctx12mint_span_id
FNDA:7,_RNvNtCsijo3INtYyGB_5lb_l79trace_ctx13startup_nonce
FNDA:1,_RNvNtCsijo3INtYyGB_5lb_l79trace_ctx14synth_trace_id
FNDA:14,_RNvNtCsijo3INtYyGB_5lb_l79trace_ctx3hex
FNDA:2,_RNvXNtCsijo3INtYyGB_5lb_l79trace_ctxNtB2_12HyperHeadersNtNtCsjqkoZuoA1pp_16lb_observability19tracing_propagation9HeaderBag6append
FNDA:2,_RNvXNtCsijo3INtYyGB_5lb_l79trace_ctxNtB2_12HyperHeadersNtNtCsjqkoZuoA1pp_16lb_observability19tracing_propagation9HeaderBag6remove
FNDA:10,_RNvXs_NtCsijo3INtYyGB_5lb_l79trace_ctxNtB4_15HyperHeadersRefNtNtCsjqkoZuoA1pp_16lb_observability19tracing_propagation9HeaderBag9get_first
FNDA:0,_RNCNvXNtCsijo3INtYyGB_5lb_l79trace_ctxNtB4_12HyperHeadersNtNtCsjqkoZuoA1pp_16lb_observability19tracing_propagation9HeaderBag9get_first0B6_
FNDA:0,_RNvXNtCsijo3INtYyGB_5lb_l79trace_ctxNtB2_12HyperHeadersNtNtCsjqkoZuoA1pp_16lb_observability19tracing_propagation9HeaderBag9get_first
FNDA:0,_RNvXs_NtCsijo3INtYyGB_5lb_l79trace_ctxNtB4_15HyperHeadersRefNtNtCsjqkoZuoA1pp_16lb_observability19tracing_propagation9HeaderBag6append
FNDA:0,_RNvXs_NtCsijo3INtYyGB_5lb_l79trace_ctxNtB4_15HyperHeadersRefNtNtCsjqkoZuoA1pp_16lb_observability19tracing_propagation9HeaderBag6remove
FNDA:1,_RNCNvNtNtCsijo3INtYyGB_5lb_l79trace_ctx5testss_36child_keeps_trace_id_replaces_parent0B7_
FNDA:1,_RNCNvNtNtCsijo3INtYyGB_5lb_l79trace_ctx5testss_36missing_traceparent_synthesises_root0B7_
FNDA:1,_RNCNvNtNtCsijo3INtYyGB_5lb_l79trace_ctx5testss_36missing_traceparent_synthesises_roots_0B7_
FNDA:4,_RNvNtNtCsijo3INtYyGB_5lb_l79trace_ctx5tests2hm
FNDA:1,_RNvNtNtCsijo3INtYyGB_5lb_l79trace_ctx5testss_28span_ids_are_unique_per_call
FNDA:1,_RNvNtNtCsijo3INtYyGB_5lb_l79trace_ctx5testss_36child_keeps_trace_id_replaces_parent
FNDA:1,_RNvNtNtCsijo3INtYyGB_5lb_l79trace_ctx5testss_36missing_traceparent_synthesises_root
FNDA:1,_RNvNtNtCsijo3INtYyGB_5lb_l79trace_ctx5testss_37inject_round_trips_onto_hyper_headers
FNDA:1,_RNCNCNvNtCsijo3INtYyGB_5lb_l79trace_ctx13startup_nonce00B7_
FNDA:4,_RNCNvMs0_NtCsijo3INtYyGB_5lb_l79trace_ctxNtB7_12RequestTrace4open0B9_
FNDA:1,_RNCNvNtCsijo3INtYyGB_5lb_l79trace_ctx13startup_nonce0B5_
FNDA:1,_RNCNvNtCsijo3INtYyGB_5lb_l79trace_ctx14synth_trace_id0B5_
FNDA:5,_RNCNvXs_NtCsijo3INtYyGB_5lb_l79trace_ctxNtB6_15HyperHeadersRefNtNtCsjqkoZuoA1pp_16lb_observability19tracing_propagation9HeaderBag9get_first0B8_
FNF:27
FNH:23
DA:49,0
DA:50,0
DA:51,0
DA:52,0
DA:53,0
DA:55,9
DA:56,9
DA:57,9
DA:58,9
DA:59,9
DA:60,9
DA:61,9
DA:62,9
DA:64,9
DA:65,9
DA:66,9
DA:67,9
DA:68,9
DA:75,108
DA:76,108
DA:77,108
DA:78,108
DA:79,108
DA:84,0
DA:85,0
DA:92,150
DA:95,150
DA:96,7
DA:97,7
DA:98,7
DA:99,7
DA:100,7
DA:101,7
DA:102,7
DA:103,7
DA:104,7
DA:105,7
DA:106,7
DA:107,7
DA:108,150
DA:109,150
DA:115,54
DA:116,54
DA:117,54
DA:118,54
DA:119,0
DA:120,54
DA:121,54
DA:122,54
DA:127,48
DA:128,48
DA:129,48
DA:130,48
DA:131,48
DA:132,48
DA:133,48
DA:134,0
DA:135,48
DA:136,48
DA:137,48
DA:141,114
DA:142,114
DA:143,1458
DA:144,1344
DA:145,1344
DA:146,1344
DA:147,114
DA:148,114
DA:177,54
DA:178,54
DA:179,54
DA:180,54
DA:181,54
DA:182,54
DA:183,54
DA:184,54
DA:185,54
DA:186,54
DA:187,54
DA:188,54
DA:189,54
DA:190,54
DA:191,54
DA:192,54
DA:193,54
DA:194,6
DA:197,48
DA:199,54
DA:200,54
DA:201,54
DA:202,54
DA:203,54
DA:205,54
DA:207,1
DA:208,1
DA:209,1
DA:210,1
DA:211,1
DA:212,1
DA:213,1
DA:221,54
DA:222,54
DA:223,54
DA:224,54
DA:225,54
DA:226,54
DA:227,54
DA:228,54
DA:229,54
DA:230,54
DA:231,54
DA:232,54
DA:238,8
DA:239,8
DA:240,8
DA:241,8
DA:248,5
DA:249,5
DA:250,5
DA:258,4
DA:259,4
DA:260,8
DA:261,4
DA:262,4
DA:263,4
DA:264,4
DA:265,4
DA:266,4
DA:267,4
DA:270,1
DA:271,1
DA:272,1
DA:273,1
DA:274,1
DA:275,1
DA:276,1
DA:277,1
DA:278,1
DA:279,1
DA:280,1
DA:281,1
DA:283,1
DA:284,1
DA:285,1
DA:286,1
DA:287,1
DA:289,1
DA:290,1
DA:293,1
DA:294,1
DA:295,1
DA:296,1
DA:297,1
DA:299,1
DA:300,1
DA:303,1
DA:304,1
DA:305,1
DA:306,1
DA:307,1
DA:308,1
DA:309,1
DA:310,1
DA:311,1
DA:312,1
DA:313,1
DA:314,1
DA:315,1
DA:316,1
DA:317,1
DA:318,1
DA:321,1
DA:322,1
DA:323,1
DA:324,1
DA:325,1
DA:326,1
DA:327,1
DA:328,1
DA:329,1
BRF:0
BRH:0
LF:190
LH:180
end_of_record
SF:/home/ubuntu/Code/ExpressGateway/crates/lb-l7/src/upstream.rs
FN:88,_RINvMNtCscRJcA2zm81b_5lb_l78upstreamNtB3_15UpstreamBackend2h3pEB5_
FN:68,_RNvMNtCscRJcA2zm81b_5lb_l78upstreamNtB2_15UpstreamBackend2h1
FN:78,_RNvMNtCscRJcA2zm81b_5lb_l78upstreamNtB2_15UpstreamBackend2h2
FN:153,_RNvMs1_NtCscRJcA2zm81b_5lb_l78upstreamNtB5_19RoundRobinUpstreams3new
FN:119,_RNvMs_NtCscRJcA2zm81b_5lb_l78upstreamNtB4_17SingleProtoPicker3new
FN:133,_RNvXs0_NtCscRJcA2zm81b_5lb_l78upstreamNtB5_17SingleProtoPickerNtB5_17BackendInfoPicker9pick_info
FN:165,_RNvXs2_NtCscRJcA2zm81b_5lb_l78upstreamNtB5_19RoundRobinUpstreamsNtB5_17BackendInfoPicker9pick_info
FN:68,_RNvMNtCsijo3INtYyGB_5lb_l78upstreamNtB2_15UpstreamBackend2h1
FN:78,_RNvMNtCsijo3INtYyGB_5lb_l78upstreamNtB2_15UpstreamBackend2h2
FN:153,_RNvMs1_NtCsijo3INtYyGB_5lb_l78upstreamNtB5_19RoundRobinUpstreams3new
FN:119,_RNvMs_NtCsijo3INtYyGB_5lb_l78upstreamNtB4_17SingleProtoPicker3new
FN:133,_RNvXs0_NtCsijo3INtYyGB_5lb_l78upstreamNtB5_17SingleProtoPickerNtB5_17BackendInfoPicker9pick_info
FN:165,_RNvXs2_NtCsijo3INtYyGB_5lb_l78upstreamNtB5_19RoundRobinUpstreamsNtB5_17BackendInfoPicker9pick_info
FN:88,_RINvMNtCsijo3INtYyGB_5lb_l78upstreamNtB3_15UpstreamBackend2h3ReEB5_
FN:195,_RNvNtNtCsijo3INtYyGB_5lb_l78upstream5testss_28round_robin_upstreams_cycles
FN:185,_RNvNtNtCsijo3INtYyGB_5lb_l78upstream5testss_39upstream_backend_constructors_set_proto
FN:211,_RNvNtNtCsijo3INtYyGB_5lb_l78upstream5testss_40round_robin_upstreams_empty_returns_none
FNDA:0,_RINvMNtCscRJcA2zm81b_5lb_l78upstreamNtB3_15UpstreamBackend2h3pEB5_
FNDA:0,_RNvMNtCscRJcA2zm81b_5lb_l78upstreamNtB2_15UpstreamBackend2h1
FNDA:0,_RNvMNtCscRJcA2zm81b_5lb_l78upstreamNtB2_15UpstreamBackend2h2
FNDA:0,_RNvMs1_NtCscRJcA2zm81b_5lb_l78upstreamNtB5_19RoundRobinUpstreams3new
FNDA:18,_RNvMs_NtCscRJcA2zm81b_5lb_l78upstreamNtB4_17SingleProtoPicker3new
FNDA:39,_RNvXs0_NtCscRJcA2zm81b_5lb_l78upstreamNtB5_17SingleProtoPickerNtB5_17BackendInfoPicker9pick_info
FNDA:0,_RNvXs2_NtCscRJcA2zm81b_5lb_l78upstreamNtB5_19RoundRobinUpstreamsNtB5_17BackendInfoPicker9pick_info
FNDA:2,_RNvMNtCsijo3INtYyGB_5lb_l78upstreamNtB2_15UpstreamBackend2h1
FNDA:2,_RNvMNtCsijo3INtYyGB_5lb_l78upstreamNtB2_15UpstreamBackend2h2
FNDA:2,_RNvMs1_NtCsijo3INtYyGB_5lb_l78upstreamNtB5_19RoundRobinUpstreams3new
FNDA:2,_RNvMs_NtCsijo3INtYyGB_5lb_l78upstreamNtB4_17SingleProtoPicker3new
FNDA:0,_RNvXs0_NtCsijo3INtYyGB_5lb_l78upstreamNtB5_17SingleProtoPickerNtB5_17BackendInfoPicker9pick_info
FNDA:3,_RNvXs2_NtCsijo3INtYyGB_5lb_l78upstreamNtB5_19RoundRobinUpstreamsNtB5_17BackendInfoPicker9pick_info
FNDA:1,_RINvMNtCsijo3INtYyGB_5lb_l78upstreamNtB3_15UpstreamBackend2h3ReEB5_
FNDA:1,_RNvNtNtCsijo3INtYyGB_5lb_l78upstream5testss_28round_robin_upstreams_cycles
FNDA:1,_RNvNtNtCsijo3INtYyGB_5lb_l78upstream5testss_39upstream_backend_constructors_set_proto
FNDA:1,_RNvNtNtCsijo3INtYyGB_5lb_l78upstream5testss_40round_robin_upstreams_empty_returns_none
FNF:10
FNH:10
DA:68,2
DA:69,2
DA:70,2
DA:71,2
DA:72,2
DA:73,2
DA:74,2
DA:78,2
DA:79,2
DA:80,2
DA:81,2
DA:82,2
DA:83,2
DA:84,2
DA:88,1
DA:89,1
DA:90,1
DA:91,1
DA:92,1
DA:93,1
DA:94,1
DA:119,20
DA:120,20
DA:121,20
DA:122,20
DA:123,20
DA:124,20
DA:125,20
DA:126,20
DA:127,20
DA:128,20
DA:129,20
DA:133,39
DA:134,39
DA:135,39
DA:136,39
DA:137,39
DA:138,39
DA:139,39
DA:140,39
DA:153,2
DA:154,2
DA:155,1
DA:156,1
DA:157,1
DA:158,1
DA:159,1
DA:160,1
DA:161,2
DA:165,3
DA:166,3
DA:167,0
DA:168,3
DA:169,3
DA:170,3
DA:171,3
DA:172,3
DA:173,3
DA:174,3
DA:175,3
DA:176,3
DA:185,1
DA:186,1
DA:187,1
DA:188,1
DA:189,1
DA:190,1
DA:191,1
DA:192,1
DA:195,1
DA:196,1
DA:197,1
DA:198,1
DA:199,1
DA:200,1
DA:201,1
DA:202,1
DA:203,1
DA:204,1
DA:205,1
DA:206,1
DA:207,1
DA:208,1
DA:211,1
DA:212,1
DA:213,1
BRF:0
BRH:0
LF:86
LH:85
end_of_record
SF:/home/ubuntu/Code/ExpressGateway/crates/lb-l7/src/ws_proxy.rs
FN:471,_RINvNtCscRJcA2zm81b_5lb_l78ws_proxy9client_wspEB4_
FN:474,_RNCINvNtCscRJcA2zm81b_5lb_l78ws_proxy9client_wspE0B6_
FN:506,_RNCNCNvNtCscRJcA2zm81b_5lb_l78ws_proxy15dial_backend_ws00B7_
FN:528,_RNCNCNvNtCscRJcA2zm81b_5lb_l78ws_proxy15dial_backend_ws0s0_0B7_
FN:522,_RNCNCNvNtCscRJcA2zm81b_5lb_l78ws_proxy15dial_backend_ws0s_0B7_
FN:503,_RNCNvNtCscRJcA2zm81b_5lb_l78ws_proxy15dial_backend_ws0B5_
FN:256,_RINvMs0_NtCscRJcA2zm81b_5lb_l78ws_proxyNtB6_7WsProxy12proxy_framesINtNtNtCs86YdmMopYMP_10hyper_util2rt5tokio7TokioIoNtNtCsgB3dp6qvXvn_5hyper7upgrade8UpgradedENtNtNtNtCsfWKKmeeA0Vo_5tokio3net3tcp6stream9TcpStreamEB8_
FN:436,_RINvNtCscRJcA2zm81b_5lb_l78ws_proxy18close_backpressureINtNtNtNtCsini5VYiF0RM_12futures_util6stream6stream5split9SplitSinkINtCs9nBo0KrKQU_17tokio_tungstenite15WebSocketStreamINtNtNtCs86YdmMopYMP_10hyper_util2rt5tokio7TokioIoNtNtCsgB3dp6qvXvn_5hyper7upgrade8UpgradedEENtNtNtCs9BlWMLnNaqT_11tungstenite8protocol7message7MessageEIBS_IB1X_NtNtNtNtCsfWKKmeeA0Vo_5tokio3net3tcp6stream9TcpStreamEB4h_EEB4_
FN:183,_RINvNtCscRJcA2zm81b_5lb_l78ws_proxy21is_h1_upgrade_requestNtNtNtCsgB3dp6qvXvn_5hyper4body8incoming8IncomingEB4_
FN:213,_RINvNtCscRJcA2zm81b_5lb_l78ws_proxy22is_h2_extended_connectNtNtNtCsgB3dp6qvXvn_5hyper4body8incoming8IncomingEB4_
FN:563,_RINvNtCscRJcA2zm81b_5lb_l78ws_proxy32build_handshake_response_headersNtNtNtCsgB3dp6qvXvn_5hyper4body8incoming8IncomingEB4_
FN:459,_RINvNtCscRJcA2zm81b_5lb_l78ws_proxy9server_wsINtNtNtCs86YdmMopYMP_10hyper_util2rt5tokio7TokioIoNtNtCsgB3dp6qvXvn_5hyper7upgrade8UpgradedEEB4_
FN:264,_RNCINvMs0_NtCscRJcA2zm81b_5lb_l78ws_proxyNtB8_7WsProxy12proxy_framesINtNtNtCs86YdmMopYMP_10hyper_util2rt5tokio7TokioIoNtNtCsgB3dp6qvXvn_5hyper7upgrade8UpgradedENtNtNtNtCsfWKKmeeA0Vo_5tokio3net3tcp6stream9TcpStreamE0Ba_
FN:443,_RNCINvNtCscRJcA2zm81b_5lb_l78ws_proxy18close_backpressureINtNtNtNtCsini5VYiF0RM_12futures_util6stream6stream5split9SplitSinkINtCs9nBo0KrKQU_17tokio_tungstenite15WebSocketStreamINtNtNtCs86YdmMopYMP_10hyper_util2rt5tokio7TokioIoNtNtCsgB3dp6qvXvn_5hyper7upgrade8UpgradedEENtNtNtCs9BlWMLnNaqT_11tungstenite8protocol7message7MessageEIBU_IB1Z_NtNtNtNtCsfWKKmeeA0Vo_5tokio3net3tcp6stream9TcpStreamEB4j_EE0B6_
FN:197,_RNCINvNtCscRJcA2zm81b_5lb_l78ws_proxy21is_h1_upgrade_requestNtNtNtCsgB3dp6qvXvn_5hyper4body8incoming8IncomingE0B6_
FN:203,_RNCINvNtCscRJcA2zm81b_5lb_l78ws_proxy21is_h1_upgrade_requestNtNtNtCsgB3dp6qvXvn_5hyper4body8incoming8IncomingEs0_0B6_
FN:204,_RNCINvNtCscRJcA2zm81b_5lb_l78ws_proxy21is_h1_upgrade_requestNtNtNtCsgB3dp6qvXvn_5hyper4body8incoming8IncomingEs1_0B6_
FN:198,_RNCINvNtCscRJcA2zm81b_5lb_l78ws_proxy21is_h1_upgrade_requestNtNtNtCsgB3dp6qvXvn_5hyper4body8incoming8IncomingEs_0B6_
FN:222,_RNCINvNtCscRJcA2zm81b_5lb_l78ws_proxy22is_h2_extended_connectNtNtNtCsgB3dp6qvXvn_5hyper4body8incoming8IncomingE0B6_
FN:462,_RNCINvNtCscRJcA2zm81b_5lb_l78ws_proxy9server_wsINtNtNtCs86YdmMopYMP_10hyper_util2rt5tokio7TokioIoNtNtCsgB3dp6qvXvn_5hyper7upgrade8UpgradedEE0B6_
FN:286,_RNCNCINvMs0_NtCscRJcA2zm81b_5lb_l78ws_proxyNtBa_7WsProxy12proxy_framesINtNtNtCs86YdmMopYMP_10hyper_util2rt5tokio7TokioIoNtNtCsgB3dp6qvXvn_5hyper7upgrade8UpgradedENtNtNtNtCsfWKKmeeA0Vo_5tokio3net3tcp6stream9TcpStreamE00Bc_
FN:296,_RNCNCNCINvMs0_NtCscRJcA2zm81b_5lb_l78ws_proxyNtBc_7WsProxy12proxy_framesINtNtNtCs86YdmMopYMP_10hyper_util2rt5tokio7TokioIoNtNtCsgB3dp6qvXvn_5hyper7upgrade8UpgradedENtNtNtNtCsfWKKmeeA0Vo_5tokio3net3tcp6stream9TcpStreamE00s0_0Be_
FN:291,_RNCNCNCINvMs0_NtCscRJcA2zm81b_5lb_l78ws_proxyNtBc_7WsProxy12proxy_framesINtNtNtCs86YdmMopYMP_10hyper_util2rt5tokio7TokioIoNtNtCsgB3dp6qvXvn_5hyper7upgrade8UpgradedENtNtNtNtCsfWKKmeeA0Vo_5tokio3net3tcp6stream9TcpStreamE00s_0Be_
FN:233,_RNvMs0_NtCscRJcA2zm81b_5lb_l78ws_proxyNtB5_7WsProxy3new
FN:239,_RNvMs0_NtCscRJcA2zm81b_5lb_l78ws_proxyNtB5_7WsProxy6config
FN:161,_RNvMs_NtCscRJcA2zm81b_5lb_l78ws_proxyNtB4_8WsConfig18tungstenite_config
FN:497,_RNvNtCscRJcA2zm81b_5lb_l78ws_proxy15dial_backend_ws
FN:541,_RNvNtCscRJcA2zm81b_5lb_l78ws_proxy21header_contains_token
FN:112,_RNvXNtCscRJcA2zm81b_5lb_l78ws_proxyNtB2_8WsConfigNtNtCs2va5m0jqTTM_4core7default7Default7default
FN:256,_RINvMs0_NtCscRJcA2zm81b_5lb_l78ws_proxyNtB6_7WsProxy12proxy_framesNtNtCskwRMVHy5hME_7lb_quic9ws_tunnel10H3WsTunnelNtNtNtNtCsfWKKmeeA0Vo_5tokio3net3tcp6stream9TcpStreamECsg9xlZenf2AU_14expressgateway
FN:436,_RINvNtCscRJcA2zm81b_5lb_l78ws_proxy18close_backpressureINtNtNtNtCsini5VYiF0RM_12futures_util6stream6stream5split9SplitSinkINtCs9nBo0KrKQU_17tokio_tungstenite15WebSocketStreamNtNtCskwRMVHy5hME_7lb_quic9ws_tunnel10H3WsTunnelENtNtNtCs9BlWMLnNaqT_11tungstenite8protocol7message7MessageEIBS_IB1X_NtNtNtNtCsfWKKmeeA0Vo_5tokio3net3tcp6stream9TcpStreamEB3z_EECsg9xlZenf2AU_14expressgateway
FN:459,_RINvNtCscRJcA2zm81b_5lb_l78ws_proxy9server_wsNtNtCskwRMVHy5hME_7lb_quic9ws_tunnel10H3WsTunnelECsg9xlZenf2AU_14expressgateway
FN:264,_RNCINvMs0_NtCscRJcA2zm81b_5lb_l78ws_proxyNtB8_7WsProxy12proxy_framesNtNtCskwRMVHy5hME_7lb_quic9ws_tunnel10H3WsTunnelNtNtNtNtCsfWKKmeeA0Vo_5tokio3net3tcp6stream9TcpStreamE0Csg9xlZenf2AU_14expressgateway
FN:443,_RNCINvNtCscRJcA2zm81b_5lb_l78ws_proxy18close_backpressureINtNtNtNtCsini5VYiF0RM_12futures_util6stream6stream5split9SplitSinkINtCs9nBo0KrKQU_17tokio_tungstenite15WebSocketStreamNtNtCskwRMVHy5hME_7lb_quic9ws_tunnel10H3WsTunnelENtNtNtCs9BlWMLnNaqT_11tungstenite8protocol7message7MessageEIBU_IB1Z_NtNtNtNtCsfWKKmeeA0Vo_5tokio3net3tcp6stream9TcpStreamEB3B_EE0Csg9xlZenf2AU_14expressgateway
FN:462,_RNCINvNtCscRJcA2zm81b_5lb_l78ws_proxy9server_wsNtNtCskwRMVHy5hME_7lb_quic9ws_tunnel10H3WsTunnelE0Csg9xlZenf2AU_14expressgateway
FN:286,_RNCNCINvMs0_NtCscRJcA2zm81b_5lb_l78ws_proxyNtBa_7WsProxy12proxy_framesNtNtCskwRMVHy5hME_7lb_quic9ws_tunnel10H3WsTunnelNtNtNtNtCsfWKKmeeA0Vo_5tokio3net3tcp6stream9TcpStreamE00Csg9xlZenf2AU_14expressgateway
FN:296,_RNCNCNCINvMs0_NtCscRJcA2zm81b_5lb_l78ws_proxyNtBc_7WsProxy12proxy_framesNtNtCskwRMVHy5hME_7lb_quic9ws_tunnel10H3WsTunnelNtNtNtNtCsfWKKmeeA0Vo_5tokio3net3tcp6stream9TcpStreamE00s0_0Csg9xlZenf2AU_14expressgateway
FN:291,_RNCNCNCINvMs0_NtCscRJcA2zm81b_5lb_l78ws_proxyNtBc_7WsProxy12proxy_framesNtNtCskwRMVHy5hME_7lb_quic9ws_tunnel10H3WsTunnelNtNtNtNtCsfWKKmeeA0Vo_5tokio3net3tcp6stream9TcpStreamE00s_0Csg9xlZenf2AU_14expressgateway
FN:506,_RNCNCNvNtCscRJcA2zm81b_5lb_l78ws_proxy15dial_backend_ws00Csg9xlZenf2AU_14expressgateway
FN:528,_RNCNCNvNtCscRJcA2zm81b_5lb_l78ws_proxy15dial_backend_ws0s0_0Csg9xlZenf2AU_14expressgateway
FN:522,_RNCNCNvNtCscRJcA2zm81b_5lb_l78ws_proxy15dial_backend_ws0s_0Csg9xlZenf2AU_14expressgateway
FN:503,_RNCNvNtCscRJcA2zm81b_5lb_l78ws_proxy15dial_backend_ws0Csg9xlZenf2AU_14expressgateway
FN:256,_RINvMs0_NtCscRJcA2zm81b_5lb_l78ws_proxyNtB6_7WsProxy12proxy_framesNtNtCskwRMVHy5hME_7lb_quic9ws_tunnel10H3WsTunnelNtNtNtNtCsfWKKmeeA0Vo_5tokio3net3tcp6stream9TcpStreamECs5eBwyIsPj0k_14expressgateway
FN:436,_RINvNtCscRJcA2zm81b_5lb_l78ws_proxy18close_backpressureINtNtNtNtCsini5VYiF0RM_12futures_util6stream6stream5split9SplitSinkINtCs9nBo0KrKQU_17tokio_tungstenite15WebSocketStreamNtNtCskwRMVHy5hME_7lb_quic9ws_tunnel10H3WsTunnelENtNtNtCs9BlWMLnNaqT_11tungstenite8protocol7message7MessageEIBS_IB1X_NtNtNtNtCsfWKKmeeA0Vo_5tokio3net3tcp6stream9TcpStreamEB3z_EECs5eBwyIsPj0k_14expressgateway
FN:459,_RINvNtCscRJcA2zm81b_5lb_l78ws_proxy9server_wsNtNtCskwRMVHy5hME_7lb_quic9ws_tunnel10H3WsTunnelECs5eBwyIsPj0k_14expressgateway
FN:264,_RNCINvMs0_NtCscRJcA2zm81b_5lb_l78ws_proxyNtB8_7WsProxy12proxy_framesNtNtCskwRMVHy5hME_7lb_quic9ws_tunnel10H3WsTunnelNtNtNtNtCsfWKKmeeA0Vo_5tokio3net3tcp6stream9TcpStreamE0Cs5eBwyIsPj0k_14expressgateway
FN:443,_RNCINvNtCscRJcA2zm81b_5lb_l78ws_proxy18close_backpressureINtNtNtNtCsini5VYiF0RM_12futures_util6stream6stream5split9SplitSinkINtCs9nBo0KrKQU_17tokio_tungstenite15WebSocketStreamNtNtCskwRMVHy5hME_7lb_quic9ws_tunnel10H3WsTunnelENtNtNtCs9BlWMLnNaqT_11tungstenite8protocol7message7MessageEIBU_IB1Z_NtNtNtNtCsfWKKmeeA0Vo_5tokio3net3tcp6stream9TcpStreamEB3B_EE0Cs5eBwyIsPj0k_14expressgateway
FN:462,_RNCINvNtCscRJcA2zm81b_5lb_l78ws_proxy9server_wsNtNtCskwRMVHy5hME_7lb_quic9ws_tunnel10H3WsTunnelE0Cs5eBwyIsPj0k_14expressgateway
FN:286,_RNCNCINvMs0_NtCscRJcA2zm81b_5lb_l78ws_proxyNtBa_7WsProxy12proxy_framesNtNtCskwRMVHy5hME_7lb_quic9ws_tunnel10H3WsTunnelNtNtNtNtCsfWKKmeeA0Vo_5tokio3net3tcp6stream9TcpStreamE00Cs5eBwyIsPj0k_14expressgateway
FN:296,_RNCNCNCINvMs0_NtCscRJcA2zm81b_5lb_l78ws_proxyNtBc_7WsProxy12proxy_framesNtNtCskwRMVHy5hME_7lb_quic9ws_tunnel10H3WsTunnelNtNtNtNtCsfWKKmeeA0Vo_5tokio3net3tcp6stream9TcpStreamE00s0_0Cs5eBwyIsPj0k_14expressgateway
FN:291,_RNCNCNCINvMs0_NtCscRJcA2zm81b_5lb_l78ws_proxyNtBc_7WsProxy12proxy_framesNtNtCskwRMVHy5hME_7lb_quic9ws_tunnel10H3WsTunnelNtNtNtNtCsfWKKmeeA0Vo_5tokio3net3tcp6stream9TcpStreamE00s_0Cs5eBwyIsPj0k_14expressgateway
FN:506,_RNCNCNvNtCscRJcA2zm81b_5lb_l78ws_proxy15dial_backend_ws00Cs5eBwyIsPj0k_14expressgateway
FN:528,_RNCNCNvNtCscRJcA2zm81b_5lb_l78ws_proxy15dial_backend_ws0s0_0Cs5eBwyIsPj0k_14expressgateway
FN:522,_RNCNCNvNtCscRJcA2zm81b_5lb_l78ws_proxy15dial_backend_ws0s_0Cs5eBwyIsPj0k_14expressgateway
FN:503,_RNCNvNtCscRJcA2zm81b_5lb_l78ws_proxy15dial_backend_ws0Cs5eBwyIsPj0k_14expressgateway
FN:590,_RNvNtNtCsijo3INtYyGB_5lb_l78ws_proxy5tests10ws_request
FN:621,_RNvNtNtCsijo3INtYyGB_5lb_l78ws_proxy5testss_15rejects_non_get
FN:650,_RNvNtNtCsijo3INtYyGB_5lb_l78ws_proxy5testss_19rejects_missing_key
FN:636,_RNvNtNtCsijo3INtYyGB_5lb_l78ws_proxy5testss_21rejects_wrong_version
FN:695,_RNvNtNtCsijo3INtYyGB_5lb_l78ws_proxy5testss_27plain_connect_not_websocket
FN:732,_RNvNtNtCsijo3INtYyGB_5lb_l78ws_proxy5testss_31close_code_1001_on_idle_timeout
FN:679,_RNvNtNtCsijo3INtYyGB_5lb_l78ws_proxy5testss_33rfc8441_extended_connect_detected
FN:610,_RNvNtNtCsijo3INtYyGB_5lb_l78ws_proxy5testss_34non_upgrade_request_passes_through
FN:604,_RNvNtNtCsijo3INtYyGB_5lb_l78ws_proxy5testss_34upgrade_request_detected_correctly
FN:707,_RNvNtNtCsijo3INtYyGB_5lb_l78ws_proxy5testss_42handshake_response_headers_includes_accept
FN:663,_RNvNtNtCsijo3INtYyGB_5lb_l78ws_proxy5testss_47connection_token_list_accepts_additional_tokens
FN:890,_RNvNtNtCsijo3INtYyGB_5lb_l78ws_proxy5testss_48close_backpressure_1008_on_forward_write_timeout
FN:796,_RNvNtNtCsijo3INtYyGB_5lb_l78ws_proxy5testss_51backpressure_plateaus_producer_when_consumer_stalls
FN:763,_RNCNCNvNtNtCsijo3INtYyGB_5lb_l78ws_proxy5testss_31close_code_1001_on_idle_timeout00B9_
FN:931,_RNCNCNvNtNtCsijo3INtYyGB_5lb_l78ws_proxy5testss_48close_backpressure_1008_on_forward_write_timeout00B9_
FN:956,_RNCNCNvNtNtCsijo3INtYyGB_5lb_l78ws_proxy5testss_48close_backpressure_1008_on_forward_write_timeout0s0_0B9_
FN:973,_RNCNCNvNtNtCsijo3INtYyGB_5lb_l78ws_proxy5testss_48close_backpressure_1008_on_forward_write_timeout0s1_0B9_
FN:943,_RNCNCNvNtNtCsijo3INtYyGB_5lb_l78ws_proxy5testss_48close_backpressure_1008_on_forward_write_timeout0s_0B9_
FN:828,_RNCNCNvNtNtCsijo3INtYyGB_5lb_l78ws_proxy5testss_51backpressure_plateaus_producer_when_consumer_stalls00B9_
FN:834,_RNCNCNvNtNtCsijo3INtYyGB_5lb_l78ws_proxy5testss_51backpressure_plateaus_producer_when_consumer_stalls0s_0B9_
FN:732,_RNCNvNtNtCsijo3INtYyGB_5lb_l78ws_proxy5testss_31close_code_1001_on_idle_timeout0B7_
FN:721,_RNCNvNtNtCsijo3INtYyGB_5lb_l78ws_proxy5testss_42handshake_response_headers_includes_accept0B7_
FN:722,_RNCNvNtNtCsijo3INtYyGB_5lb_l78ws_proxy5testss_42handshake_response_headers_includes_accepts_0B7_
FN:890,_RNCNvNtNtCsijo3INtYyGB_5lb_l78ws_proxy5testss_48close_backpressure_1008_on_forward_write_timeout0B7_
FN:796,_RNCNvNtNtCsijo3INtYyGB_5lb_l78ws_proxy5testss_51backpressure_plateaus_producer_when_consumer_stalls0B7_
FN:506,_RNCNCNvNtCsijo3INtYyGB_5lb_l78ws_proxy15dial_backend_ws00B7_
FN:528,_RNCNCNvNtCsijo3INtYyGB_5lb_l78ws_proxy15dial_backend_ws0s0_0B7_
FN:522,_RNCNCNvNtCsijo3INtYyGB_5lb_l78ws_proxy15dial_backend_ws0s_0B7_
FN:503,_RNCNvNtCsijo3INtYyGB_5lb_l78ws_proxy15dial_backend_ws0B5_
FN:497,_RNvNtCsijo3INtYyGB_5lb_l78ws_proxy15dial_backend_ws
FN:256,_RINvMs0_NtCsijo3INtYyGB_5lb_l78ws_proxyNtB6_7WsProxy12proxy_framesINtNtNtCs86YdmMopYMP_10hyper_util2rt5tokio7TokioIoNtNtCsgB3dp6qvXvn_5hyper7upgrade8UpgradedENtNtNtNtCsfWKKmeeA0Vo_5tokio3net3tcp6stream9TcpStreamEB8_
FN:256,_RINvMs0_NtCsijo3INtYyGB_5lb_l78ws_proxyNtB6_7WsProxy12proxy_framesNtNtNtNtCsfWKKmeeA0Vo_5tokio2io4util3mem12DuplexStreamB12_EB8_
FN:436,_RINvNtCsijo3INtYyGB_5lb_l78ws_proxy18close_backpressureINtNtNtNtCsini5VYiF0RM_12futures_util6stream6stream5split9SplitSinkINtCs9nBo0KrKQU_17tokio_tungstenite15WebSocketStreamINtNtNtCs86YdmMopYMP_10hyper_util2rt5tokio7TokioIoNtNtCsgB3dp6qvXvn_5hyper7upgrade8UpgradedEENtNtNtCs9BlWMLnNaqT_11tungstenite8protocol7message7MessageEIBS_IB1X_NtNtNtNtCsfWKKmeeA0Vo_5tokio3net3tcp6stream9TcpStreamEB4h_EEB4_
FN:436,_RINvNtCsijo3INtYyGB_5lb_l78ws_proxy18close_backpressureINtNtNtNtCsini5VYiF0RM_12futures_util6stream6stream5split9SplitSinkINtCs9nBo0KrKQU_17tokio_tungstenite15WebSocketStreamNtNtNtNtCsfWKKmeeA0Vo_5tokio2io4util3mem12DuplexStreamENtNtNtCs9BlWMLnNaqT_11tungstenite8protocol7message7MessageEBR_EB4_
FN:183,_RINvNtCsijo3INtYyGB_5lb_l78ws_proxy21is_h1_upgrade_requestINtNtCsedaG9KDMExI_14http_body_util5empty5EmptyNtNtCs7xJyEqPIUa9_5bytes5bytes5BytesEEB4_
FN:183,_RINvNtCsijo3INtYyGB_5lb_l78ws_proxy21is_h1_upgrade_requestNtNtNtCsgB3dp6qvXvn_5hyper4body8incoming8IncomingEB4_
FN:213,_RINvNtCsijo3INtYyGB_5lb_l78ws_proxy22is_h2_extended_connectINtNtCsedaG9KDMExI_14http_body_util5empty5EmptyNtNtCs7xJyEqPIUa9_5bytes5bytes5BytesEEB4_
FN:213,_RINvNtCsijo3INtYyGB_5lb_l78ws_proxy22is_h2_extended_connectNtNtNtCsgB3dp6qvXvn_5hyper4body8incoming8IncomingEB4_
FN:563,_RINvNtCsijo3INtYyGB_5lb_l78ws_proxy32build_handshake_response_headersINtNtCsedaG9KDMExI_14http_body_util5empty5EmptyNtNtCs7xJyEqPIUa9_5bytes5bytes5BytesEEB4_
FN:563,_RINvNtCsijo3INtYyGB_5lb_l78ws_proxy32build_handshake_response_headersNtNtNtCsgB3dp6qvXvn_5hyper4body8incoming8IncomingEB4_
FN:471,_RINvNtCsijo3INtYyGB_5lb_l78ws_proxy9client_wsNtNtNtNtCsfWKKmeeA0Vo_5tokio2io4util3mem12DuplexStreamEB4_
FN:459,_RINvNtCsijo3INtYyGB_5lb_l78ws_proxy9server_wsINtNtNtCs86YdmMopYMP_10hyper_util2rt5tokio7TokioIoNtNtCsgB3dp6qvXvn_5hyper7upgrade8UpgradedEEB4_
FN:459,_RINvNtCsijo3INtYyGB_5lb_l78ws_proxy9server_wsNtNtNtNtCsfWKKmeeA0Vo_5tokio2io4util3mem12DuplexStreamEB4_
FN:264,_RNCINvMs0_NtCsijo3INtYyGB_5lb_l78ws_proxyNtB8_7WsProxy12proxy_framesINtNtNtCs86YdmMopYMP_10hyper_util2rt5tokio7TokioIoNtNtCsgB3dp6qvXvn_5hyper7upgrade8UpgradedENtNtNtNtCsfWKKmeeA0Vo_5tokio3net3tcp6stream9TcpStreamE0Ba_
FN:264,_RNCINvMs0_NtCsijo3INtYyGB_5lb_l78ws_proxyNtB8_7WsProxy12proxy_framesNtNtNtNtCsfWKKmeeA0Vo_5tokio2io4util3mem12DuplexStreamB14_E0Ba_
FN:443,_RNCINvNtCsijo3INtYyGB_5lb_l78ws_proxy18close_backpressureINtNtNtNtCsini5VYiF0RM_12futures_util6stream6stream5split9SplitSinkINtCs9nBo0KrKQU_17tokio_tungstenite15WebSocketStreamINtNtNtCs86YdmMopYMP_10hyper_util2rt5tokio7TokioIoNtNtCsgB3dp6qvXvn_5hyper7upgrade8UpgradedEENtNtNtCs9BlWMLnNaqT_11tungstenite8protocol7message7MessageEIBU_IB1Z_NtNtNtNtCsfWKKmeeA0Vo_5tokio3net3tcp6stream9TcpStreamEB4j_EE0B6_
FN:443,_RNCINvNtCsijo3INtYyGB_5lb_l78ws_proxy18close_backpressureINtNtNtNtCsini5VYiF0RM_12futures_util6stream6stream5split9SplitSinkINtCs9nBo0KrKQU_17tokio_tungstenite15WebSocketStreamNtNtNtNtCsfWKKmeeA0Vo_5tokio2io4util3mem12DuplexStreamENtNtNtCs9BlWMLnNaqT_11tungstenite8protocol7message7MessageEBT_E0B6_
FN:197,_RNCINvNtCsijo3INtYyGB_5lb_l78ws_proxy21is_h1_upgrade_requestINtNtCsedaG9KDMExI_14http_body_util5empty5EmptyNtNtCs7xJyEqPIUa9_5bytes5bytes5BytesEE0B6_
FN:203,_RNCINvNtCsijo3INtYyGB_5lb_l78ws_proxy21is_h1_upgrade_requestINtNtCsedaG9KDMExI_14http_body_util5empty5EmptyNtNtCs7xJyEqPIUa9_5bytes5bytes5BytesEEs0_0B6_
FN:204,_RNCINvNtCsijo3INtYyGB_5lb_l78ws_proxy21is_h1_upgrade_requestINtNtCsedaG9KDMExI_14http_body_util5empty5EmptyNtNtCs7xJyEqPIUa9_5bytes5bytes5BytesEEs1_0B6_
FN:198,_RNCINvNtCsijo3INtYyGB_5lb_l78ws_proxy21is_h1_upgrade_requestINtNtCsedaG9KDMExI_14http_body_util5empty5EmptyNtNtCs7xJyEqPIUa9_5bytes5bytes5BytesEEs_0B6_
FN:197,_RNCINvNtCsijo3INtYyGB_5lb_l78ws_proxy21is_h1_upgrade_requestNtNtNtCsgB3dp6qvXvn_5hyper4body8incoming8IncomingE0B6_
FN:203,_RNCINvNtCsijo3INtYyGB_5lb_l78ws_proxy21is_h1_upgrade_requestNtNtNtCsgB3dp6qvXvn_5hyper4body8incoming8IncomingEs0_0B6_
FN:204,_RNCINvNtCsijo3INtYyGB_5lb_l78ws_proxy21is_h1_upgrade_requestNtNtNtCsgB3dp6qvXvn_5hyper4body8incoming8IncomingEs1_0B6_
FN:198,_RNCINvNtCsijo3INtYyGB_5lb_l78ws_proxy21is_h1_upgrade_requestNtNtNtCsgB3dp6qvXvn_5hyper4body8incoming8IncomingEs_0B6_
FN:222,_RNCINvNtCsijo3INtYyGB_5lb_l78ws_proxy22is_h2_extended_connectINtNtCsedaG9KDMExI_14http_body_util5empty5EmptyNtNtCs7xJyEqPIUa9_5bytes5bytes5BytesEE0B6_
FN:222,_RNCINvNtCsijo3INtYyGB_5lb_l78ws_proxy22is_h2_extended_connectNtNtNtCsgB3dp6qvXvn_5hyper4body8incoming8IncomingE0B6_
FN:474,_RNCINvNtCsijo3INtYyGB_5lb_l78ws_proxy9client_wsNtNtNtNtCsfWKKmeeA0Vo_5tokio2io4util3mem12DuplexStreamE0B6_
FN:462,_RNCINvNtCsijo3INtYyGB_5lb_l78ws_proxy9server_wsINtNtNtCs86YdmMopYMP_10hyper_util2rt5tokio7TokioIoNtNtCsgB3dp6qvXvn_5hyper7upgrade8UpgradedEE0B6_
FN:462,_RNCINvNtCsijo3INtYyGB_5lb_l78ws_proxy9server_wsNtNtNtNtCsfWKKmeeA0Vo_5tokio2io4util3mem12DuplexStreamE0B6_
FN:286,_RNCNCINvMs0_NtCsijo3INtYyGB_5lb_l78ws_proxyNtBa_7WsProxy12proxy_framesINtNtNtCs86YdmMopYMP_10hyper_util2rt5tokio7TokioIoNtNtCsgB3dp6qvXvn_5hyper7upgrade8UpgradedENtNtNtNtCsfWKKmeeA0Vo_5tokio3net3tcp6stream9TcpStreamE00Bc_
FN:286,_RNCNCINvMs0_NtCsijo3INtYyGB_5lb_l78ws_proxyNtBa_7WsProxy12proxy_framesNtNtNtNtCsfWKKmeeA0Vo_5tokio2io4util3mem12DuplexStreamB16_E00Bc_
FN:296,_RNCNCNCINvMs0_NtCsijo3INtYyGB_5lb_l78ws_proxyNtBc_7WsProxy12proxy_framesINtNtNtCs86YdmMopYMP_10hyper_util2rt5tokio7TokioIoNtNtCsgB3dp6qvXvn_5hyper7upgrade8UpgradedENtNtNtNtCsfWKKmeeA0Vo_5tokio3net3tcp6stream9TcpStreamE00s0_0Be_
FN:291,_RNCNCNCINvMs0_NtCsijo3INtYyGB_5lb_l78ws_proxyNtBc_7WsProxy12proxy_framesINtNtNtCs86YdmMopYMP_10hyper_util2rt5tokio7TokioIoNtNtCsgB3dp6qvXvn_5hyper7upgrade8UpgradedENtNtNtNtCsfWKKmeeA0Vo_5tokio3net3tcp6stream9TcpStreamE00s_0Be_
FN:296,_RNCNCNCINvMs0_NtCsijo3INtYyGB_5lb_l78ws_proxyNtBc_7WsProxy12proxy_framesNtNtNtNtCsfWKKmeeA0Vo_5tokio2io4util3mem12DuplexStreamB18_E00s0_0Be_
FN:291,_RNCNCNCINvMs0_NtCsijo3INtYyGB_5lb_l78ws_proxyNtBc_7WsProxy12proxy_framesNtNtNtNtCsfWKKmeeA0Vo_5tokio2io4util3mem12DuplexStreamB18_E00s_0Be_
FN:233,_RNvMs0_NtCsijo3INtYyGB_5lb_l78ws_proxyNtB5_7WsProxy3new
FN:239,_RNvMs0_NtCsijo3INtYyGB_5lb_l78ws_proxyNtB5_7WsProxy6config
FN:161,_RNvMs_NtCsijo3INtYyGB_5lb_l78ws_proxyNtB4_8WsConfig18tungstenite_config
FN:541,_RNvNtCsijo3INtYyGB_5lb_l78ws_proxy21header_contains_token
FN:112,_RNvXNtCsijo3INtYyGB_5lb_l78ws_proxyNtB2_8WsConfigNtNtCs2va5m0jqTTM_4core7default7Default7default
FNDA:0,_RINvNtCscRJcA2zm81b_5lb_l78ws_proxy9client_wspEB4_
FNDA:0,_RNCINvNtCscRJcA2zm81b_5lb_l78ws_proxy9client_wspE0B6_
FNDA:0,_RNCNCNvNtCscRJcA2zm81b_5lb_l78ws_proxy15dial_backend_ws00B7_
FNDA:0,_RNCNCNvNtCscRJcA2zm81b_5lb_l78ws_proxy15dial_backend_ws0s0_0B7_
FNDA:0,_RNCNCNvNtCscRJcA2zm81b_5lb_l78ws_proxy15dial_backend_ws0s_0B7_
FNDA:0,_RNCNvNtCscRJcA2zm81b_5lb_l78ws_proxy15dial_backend_ws0B5_
FNDA:0,_RINvMs0_NtCscRJcA2zm81b_5lb_l78ws_proxyNtB6_7WsProxy12proxy_framesINtNtNtCs86YdmMopYMP_10hyper_util2rt5tokio7TokioIoNtNtCsgB3dp6qvXvn_5hyper7upgrade8UpgradedENtNtNtNtCsfWKKmeeA0Vo_5tokio3net3tcp6stream9TcpStreamEB8_
FNDA:0,_RINvNtCscRJcA2zm81b_5lb_l78ws_proxy18close_backpressureINtNtNtNtCsini5VYiF0RM_12futures_util6stream6stream5split9SplitSinkINtCs9nBo0KrKQU_17tokio_tungstenite15WebSocketStreamINtNtNtCs86YdmMopYMP_10hyper_util2rt5tokio7TokioIoNtNtCsgB3dp6qvXvn_5hyper7upgrade8UpgradedEENtNtNtCs9BlWMLnNaqT_11tungstenite8protocol7message7MessageEIBS_IB1X_NtNtNtNtCsfWKKmeeA0Vo_5tokio3net3tcp6stream9TcpStreamEB4h_EEB4_
FNDA:5,_RINvNtCscRJcA2zm81b_5lb_l78ws_proxy21is_h1_upgrade_requestNtNtNtCsgB3dp6qvXvn_5hyper4body8incoming8IncomingEB4_
FNDA:0,_RINvNtCscRJcA2zm81b_5lb_l78ws_proxy22is_h2_extended_connectNtNtNtCsgB3dp6qvXvn_5hyper4body8incoming8IncomingEB4_
FNDA:4,_RINvNtCscRJcA2zm81b_5lb_l78ws_proxy32build_handshake_response_headersNtNtNtCsgB3dp6qvXvn_5hyper4body8incoming8IncomingEB4_
FNDA:0,_RINvNtCscRJcA2zm81b_5lb_l78ws_proxy9server_wsINtNtNtCs86YdmMopYMP_10hyper_util2rt5tokio7TokioIoNtNtCsgB3dp6qvXvn_5hyper7upgrade8UpgradedEEB4_
FNDA:0,_RNCINvMs0_NtCscRJcA2zm81b_5lb_l78ws_proxyNtB8_7WsProxy12proxy_framesINtNtNtCs86YdmMopYMP_10hyper_util2rt5tokio7TokioIoNtNtCsgB3dp6qvXvn_5hyper7upgrade8UpgradedENtNtNtNtCsfWKKmeeA0Vo_5tokio3net3tcp6stream9TcpStreamE0Ba_
FNDA:0,_RNCINvNtCscRJcA2zm81b_5lb_l78ws_proxy18close_backpressureINtNtNtNtCsini5VYiF0RM_12futures_util6stream6stream5split9SplitSinkINtCs9nBo0KrKQU_17tokio_tungstenite15WebSocketStreamINtNtNtCs86YdmMopYMP_10hyper_util2rt5tokio7TokioIoNtNtCsgB3dp6qvXvn_5hyper7upgrade8UpgradedEENtNtNtCs9BlWMLnNaqT_11tungstenite8protocol7message7MessageEIBU_IB1Z_NtNtNtNtCsfWKKmeeA0Vo_5tokio3net3tcp6stream9TcpStreamEB4j_EE0B6_
FNDA:4,_RNCINvNtCscRJcA2zm81b_5lb_l78ws_proxy21is_h1_upgrade_requestNtNtNtCsgB3dp6qvXvn_5hyper4body8incoming8IncomingE0B6_
FNDA:4,_RNCINvNtCscRJcA2zm81b_5lb_l78ws_proxy21is_h1_upgrade_requestNtNtNtCsgB3dp6qvXvn_5hyper4body8incoming8IncomingEs0_0B6_
FNDA:4,_RNCINvNtCscRJcA2zm81b_5lb_l78ws_proxy21is_h1_upgrade_requestNtNtNtCsgB3dp6qvXvn_5hyper4body8incoming8IncomingEs1_0B6_
FNDA:4,_RNCINvNtCscRJcA2zm81b_5lb_l78ws_proxy21is_h1_upgrade_requestNtNtNtCsgB3dp6qvXvn_5hyper4body8incoming8IncomingEs_0B6_
FNDA:0,_RNCINvNtCscRJcA2zm81b_5lb_l78ws_proxy22is_h2_extended_connectNtNtNtCsgB3dp6qvXvn_5hyper4body8incoming8IncomingE0B6_
FNDA:0,_RNCINvNtCscRJcA2zm81b_5lb_l78ws_proxy9server_wsINtNtNtCs86YdmMopYMP_10hyper_util2rt5tokio7TokioIoNtNtCsgB3dp6qvXvn_5hyper7upgrade8UpgradedEE0B6_
FNDA:0,_RNCNCINvMs0_NtCscRJcA2zm81b_5lb_l78ws_proxyNtBa_7WsProxy12proxy_framesINtNtNtCs86YdmMopYMP_10hyper_util2rt5tokio7TokioIoNtNtCsgB3dp6qvXvn_5hyper7upgrade8UpgradedENtNtNtNtCsfWKKmeeA0Vo_5tokio3net3tcp6stream9TcpStreamE00Bc_
FNDA:0,_RNCNCNCINvMs0_NtCscRJcA2zm81b_5lb_l78ws_proxyNtBc_7WsProxy12proxy_framesINtNtNtCs86YdmMopYMP_10hyper_util2rt5tokio7TokioIoNtNtCsgB3dp6qvXvn_5hyper7upgrade8UpgradedENtNtNtNtCsfWKKmeeA0Vo_5tokio3net3tcp6stream9TcpStreamE00s0_0Be_
FNDA:0,_RNCNCNCINvMs0_NtCscRJcA2zm81b_5lb_l78ws_proxyNtBc_7WsProxy12proxy_framesINtNtNtCs86YdmMopYMP_10hyper_util2rt5tokio7TokioIoNtNtCsgB3dp6qvXvn_5hyper7upgrade8UpgradedENtNtNtNtCsfWKKmeeA0Vo_5tokio3net3tcp6stream9TcpStreamE00s_0Be_
FNDA:13,_RNvMs0_NtCscRJcA2zm81b_5lb_l78ws_proxyNtB5_7WsProxy3new
FNDA:65,_RNvMs0_NtCscRJcA2zm81b_5lb_l78ws_proxyNtB5_7WsProxy6config
FNDA:115,_RNvMs_NtCscRJcA2zm81b_5lb_l78ws_proxyNtB4_8WsConfig18tungstenite_config
FNDA:56,_RNvNtCscRJcA2zm81b_5lb_l78ws_proxy15dial_backend_ws
FNDA:9,_RNvNtCscRJcA2zm81b_5lb_l78ws_proxy21header_contains_token
FNDA:6,_RNvXNtCscRJcA2zm81b_5lb_l78ws_proxyNtB2_8WsConfigNtNtCs2va5m0jqTTM_4core7default7Default7default
FNDA:0,_RINvMs0_NtCscRJcA2zm81b_5lb_l78ws_proxyNtB6_7WsProxy12proxy_framesNtNtCskwRMVHy5hME_7lb_quic9ws_tunnel10H3WsTunnelNtNtNtNtCsfWKKmeeA0Vo_5tokio3net3tcp6stream9TcpStreamECsg9xlZenf2AU_14expressgateway
FNDA:0,_RINvNtCscRJcA2zm81b_5lb_l78ws_proxy18close_backpressureINtNtNtNtCsini5VYiF0RM_12futures_util6stream6stream5split9SplitSinkINtCs9nBo0KrKQU_17tokio_tungstenite15WebSocketStreamNtNtCskwRMVHy5hME_7lb_quic9ws_tunnel10H3WsTunnelENtNtNtCs9BlWMLnNaqT_11tungstenite8protocol7message7MessageEIBS_IB1X_NtNtNtNtCsfWKKmeeA0Vo_5tokio3net3tcp6stream9TcpStreamEB3z_EECsg9xlZenf2AU_14expressgateway
FNDA:0,_RINvNtCscRJcA2zm81b_5lb_l78ws_proxy9server_wsNtNtCskwRMVHy5hME_7lb_quic9ws_tunnel10H3WsTunnelECsg9xlZenf2AU_14expressgateway
FNDA:0,_RNCINvMs0_NtCscRJcA2zm81b_5lb_l78ws_proxyNtB8_7WsProxy12proxy_framesNtNtCskwRMVHy5hME_7lb_quic9ws_tunnel10H3WsTunnelNtNtNtNtCsfWKKmeeA0Vo_5tokio3net3tcp6stream9TcpStreamE0Csg9xlZenf2AU_14expressgateway
FNDA:0,_RNCINvNtCscRJcA2zm81b_5lb_l78ws_proxy18close_backpressureINtNtNtNtCsini5VYiF0RM_12futures_util6stream6stream5split9SplitSinkINtCs9nBo0KrKQU_17tokio_tungstenite15WebSocketStreamNtNtCskwRMVHy5hME_7lb_quic9ws_tunnel10H3WsTunnelENtNtNtCs9BlWMLnNaqT_11tungstenite8protocol7message7MessageEIBU_IB1Z_NtNtNtNtCsfWKKmeeA0Vo_5tokio3net3tcp6stream9TcpStreamEB3B_EE0Csg9xlZenf2AU_14expressgateway
FNDA:0,_RNCINvNtCscRJcA2zm81b_5lb_l78ws_proxy9server_wsNtNtCskwRMVHy5hME_7lb_quic9ws_tunnel10H3WsTunnelE0Csg9xlZenf2AU_14expressgateway
FNDA:0,_RNCNCINvMs0_NtCscRJcA2zm81b_5lb_l78ws_proxyNtBa_7WsProxy12proxy_framesNtNtCskwRMVHy5hME_7lb_quic9ws_tunnel10H3WsTunnelNtNtNtNtCsfWKKmeeA0Vo_5tokio3net3tcp6stream9TcpStreamE00Csg9xlZenf2AU_14expressgateway
FNDA:0,_RNCNCNCINvMs0_NtCscRJcA2zm81b_5lb_l78ws_proxyNtBc_7WsProxy12proxy_framesNtNtCskwRMVHy5hME_7lb_quic9ws_tunnel10H3WsTunnelNtNtNtNtCsfWKKmeeA0Vo_5tokio3net3tcp6stream9TcpStreamE00s0_0Csg9xlZenf2AU_14expressgateway
FNDA:0,_RNCNCNCINvMs0_NtCscRJcA2zm81b_5lb_l78ws_proxyNtBc_7WsProxy12proxy_framesNtNtCskwRMVHy5hME_7lb_quic9ws_tunnel10H3WsTunnelNtNtNtNtCsfWKKmeeA0Vo_5tokio3net3tcp6stream9TcpStreamE00s_0Csg9xlZenf2AU_14expressgateway
FNDA:0,_RNCNCNvNtCscRJcA2zm81b_5lb_l78ws_proxy15dial_backend_ws00Csg9xlZenf2AU_14expressgateway
FNDA:0,_RNCNCNvNtCscRJcA2zm81b_5lb_l78ws_proxy15dial_backend_ws0s0_0Csg9xlZenf2AU_14expressgateway
FNDA:0,_RNCNCNvNtCscRJcA2zm81b_5lb_l78ws_proxy15dial_backend_ws0s_0Csg9xlZenf2AU_14expressgateway
FNDA:0,_RNCNvNtCscRJcA2zm81b_5lb_l78ws_proxy15dial_backend_ws0Csg9xlZenf2AU_14expressgateway
FNDA:55,_RINvMs0_NtCscRJcA2zm81b_5lb_l78ws_proxyNtB6_7WsProxy12proxy_framesNtNtCskwRMVHy5hME_7lb_quic9ws_tunnel10H3WsTunnelNtNtNtNtCsfWKKmeeA0Vo_5tokio3net3tcp6stream9TcpStreamECs5eBwyIsPj0k_14expressgateway
FNDA:0,_RINvNtCscRJcA2zm81b_5lb_l78ws_proxy18close_backpressureINtNtNtNtCsini5VYiF0RM_12futures_util6stream6stream5split9SplitSinkINtCs9nBo0KrKQU_17tokio_tungstenite15WebSocketStreamNtNtCskwRMVHy5hME_7lb_quic9ws_tunnel10H3WsTunnelENtNtNtCs9BlWMLnNaqT_11tungstenite8protocol7message7MessageEIBS_IB1X_NtNtNtNtCsfWKKmeeA0Vo_5tokio3net3tcp6stream9TcpStreamEB3z_EECs5eBwyIsPj0k_14expressgateway
FNDA:55,_RINvNtCscRJcA2zm81b_5lb_l78ws_proxy9server_wsNtNtCskwRMVHy5hME_7lb_quic9ws_tunnel10H3WsTunnelECs5eBwyIsPj0k_14expressgateway
FNDA:55,_RNCINvMs0_NtCscRJcA2zm81b_5lb_l78ws_proxyNtB8_7WsProxy12proxy_framesNtNtCskwRMVHy5hME_7lb_quic9ws_tunnel10H3WsTunnelNtNtNtNtCsfWKKmeeA0Vo_5tokio3net3tcp6stream9TcpStreamE0Cs5eBwyIsPj0k_14expressgateway
FNDA:0,_RNCINvNtCscRJcA2zm81b_5lb_l78ws_proxy18close_backpressureINtNtNtNtCsini5VYiF0RM_12futures_util6stream6stream5split9SplitSinkINtCs9nBo0KrKQU_17tokio_tungstenite15WebSocketStreamNtNtCskwRMVHy5hME_7lb_quic9ws_tunnel10H3WsTunnelENtNtNtCs9BlWMLnNaqT_11tungstenite8protocol7message7MessageEIBU_IB1Z_NtNtNtNtCsfWKKmeeA0Vo_5tokio3net3tcp6stream9TcpStreamEB3B_EE0Cs5eBwyIsPj0k_14expressgateway
FNDA:55,_RNCINvNtCscRJcA2zm81b_5lb_l78ws_proxy9server_wsNtNtCskwRMVHy5hME_7lb_quic9ws_tunnel10H3WsTunnelE0Cs5eBwyIsPj0k_14expressgateway
FNDA:676,_RNCNCINvMs0_NtCscRJcA2zm81b_5lb_l78ws_proxyNtBa_7WsProxy12proxy_framesNtNtCskwRMVHy5hME_7lb_quic9ws_tunnel10H3WsTunnelNtNtNtNtCsfWKKmeeA0Vo_5tokio3net3tcp6stream9TcpStreamE00Cs5eBwyIsPj0k_14expressgateway
FNDA:0,_RNCNCNCINvMs0_NtCscRJcA2zm81b_5lb_l78ws_proxyNtBc_7WsProxy12proxy_framesNtNtCskwRMVHy5hME_7lb_quic9ws_tunnel10H3WsTunnelNtNtNtNtCsfWKKmeeA0Vo_5tokio3net3tcp6stream9TcpStreamE00s0_0Cs5eBwyIsPj0k_14expressgateway
FNDA:0,_RNCNCNCINvMs0_NtCscRJcA2zm81b_5lb_l78ws_proxyNtBc_7WsProxy12proxy_framesNtNtCskwRMVHy5hME_7lb_quic9ws_tunnel10H3WsTunnelNtNtNtNtCsfWKKmeeA0Vo_5tokio3net3tcp6stream9TcpStreamE00s_0Cs5eBwyIsPj0k_14expressgateway
FNDA:0,_RNCNCNvNtCscRJcA2zm81b_5lb_l78ws_proxy15dial_backend_ws00Cs5eBwyIsPj0k_14expressgateway
FNDA:0,_RNCNCNvNtCscRJcA2zm81b_5lb_l78ws_proxy15dial_backend_ws0s0_0Cs5eBwyIsPj0k_14expressgateway
FNDA:1,_RNCNCNvNtCscRJcA2zm81b_5lb_l78ws_proxy15dial_backend_ws0s_0Cs5eBwyIsPj0k_14expressgateway
FNDA:56,_RNCNvNtCscRJcA2zm81b_5lb_l78ws_proxy15dial_backend_ws0Cs5eBwyIsPj0k_14expressgateway
FNDA:1,_RNvNtNtCsijo3INtYyGB_5lb_l78ws_proxy5tests10ws_request
FNDA:1,_RNvNtNtCsijo3INtYyGB_5lb_l78ws_proxy5testss_15rejects_non_get
FNDA:1,_RNvNtNtCsijo3INtYyGB_5lb_l78ws_proxy5testss_19rejects_missing_key
FNDA:1,_RNvNtNtCsijo3INtYyGB_5lb_l78ws_proxy5testss_21rejects_wrong_version
FNDA:1,_RNvNtNtCsijo3INtYyGB_5lb_l78ws_proxy5testss_27plain_connect_not_websocket
FNDA:1,_RNvNtNtCsijo3INtYyGB_5lb_l78ws_proxy5testss_31close_code_1001_on_idle_timeout
FNDA:1,_RNvNtNtCsijo3INtYyGB_5lb_l78ws_proxy5testss_33rfc8441_extended_connect_detected
FNDA:1,_RNvNtNtCsijo3INtYyGB_5lb_l78ws_proxy5testss_34non_upgrade_request_passes_through
FNDA:1,_RNvNtNtCsijo3INtYyGB_5lb_l78ws_proxy5testss_34upgrade_request_detected_correctly
FNDA:1,_RNvNtNtCsijo3INtYyGB_5lb_l78ws_proxy5testss_42handshake_response_headers_includes_accept
FNDA:1,_RNvNtNtCsijo3INtYyGB_5lb_l78ws_proxy5testss_47connection_token_list_accepts_additional_tokens
FNDA:1,_RNvNtNtCsijo3INtYyGB_5lb_l78ws_proxy5testss_48close_backpressure_1008_on_forward_write_timeout
FNDA:1,_RNvNtNtCsijo3INtYyGB_5lb_l78ws_proxy5testss_51backpressure_plateaus_producer_when_consumer_stalls
FNDA:1,_RNCNCNvNtNtCsijo3INtYyGB_5lb_l78ws_proxy5testss_31close_code_1001_on_idle_timeout00B9_
FNDA:1,_RNCNCNvNtNtCsijo3INtYyGB_5lb_l78ws_proxy5testss_48close_backpressure_1008_on_forward_write_timeout00B9_
FNDA:1,_RNCNCNvNtNtCsijo3INtYyGB_5lb_l78ws_proxy5testss_48close_backpressure_1008_on_forward_write_timeout0s0_0B9_
FNDA:1,_RNCNCNvNtNtCsijo3INtYyGB_5lb_l78ws_proxy5testss_48close_backpressure_1008_on_forward_write_timeout0s1_0B9_
FNDA:1,_RNCNCNvNtNtCsijo3INtYyGB_5lb_l78ws_proxy5testss_48close_backpressure_1008_on_forward_write_timeout0s_0B9_
FNDA:1,_RNCNCNvNtNtCsijo3INtYyGB_5lb_l78ws_proxy5testss_51backpressure_plateaus_producer_when_consumer_stalls00B9_
FNDA:1,_RNCNCNvNtNtCsijo3INtYyGB_5lb_l78ws_proxy5testss_51backpressure_plateaus_producer_when_consumer_stalls0s_0B9_
FNDA:1,_RNCNvNtNtCsijo3INtYyGB_5lb_l78ws_proxy5testss_31close_code_1001_on_idle_timeout0B7_
FNDA:3,_RNCNvNtNtCsijo3INtYyGB_5lb_l78ws_proxy5testss_42handshake_response_headers_includes_accept0B7_
FNDA:1,_RNCNvNtNtCsijo3INtYyGB_5lb_l78ws_proxy5testss_42handshake_response_headers_includes_accepts_0B7_
FNDA:1,_RNCNvNtNtCsijo3INtYyGB_5lb_l78ws_proxy5testss_48close_backpressure_1008_on_forward_write_timeout0B7_
FNDA:1,_RNCNvNtNtCsijo3INtYyGB_5lb_l78ws_proxy5testss_51backpressure_plateaus_producer_when_consumer_stalls0B7_
FNDA:0,_RNCNCNvNtCsijo3INtYyGB_5lb_l78ws_proxy15dial_backend_ws00B7_
FNDA:0,_RNCNCNvNtCsijo3INtYyGB_5lb_l78ws_proxy15dial_backend_ws0s0_0B7_
FNDA:0,_RNCNCNvNtCsijo3INtYyGB_5lb_l78ws_proxy15dial_backend_ws0s_0B7_
FNDA:0,_RNCNvNtCsijo3INtYyGB_5lb_l78ws_proxy15dial_backend_ws0B5_
FNDA:0,_RNvNtCsijo3INtYyGB_5lb_l78ws_proxy15dial_backend_ws
FNDA:0,_RINvMs0_NtCsijo3INtYyGB_5lb_l78ws_proxyNtB6_7WsProxy12proxy_framesINtNtNtCs86YdmMopYMP_10hyper_util2rt5tokio7TokioIoNtNtCsgB3dp6qvXvn_5hyper7upgrade8UpgradedENtNtNtNtCsfWKKmeeA0Vo_5tokio3net3tcp6stream9TcpStreamEB8_
FNDA:3,_RINvMs0_NtCsijo3INtYyGB_5lb_l78ws_proxyNtB6_7WsProxy12proxy_framesNtNtNtNtCsfWKKmeeA0Vo_5tokio2io4util3mem12DuplexStreamB12_EB8_
FNDA:0,_RINvNtCsijo3INtYyGB_5lb_l78ws_proxy18close_backpressureINtNtNtNtCsini5VYiF0RM_12futures_util6stream6stream5split9SplitSinkINtCs9nBo0KrKQU_17tokio_tungstenite15WebSocketStreamINtNtNtCs86YdmMopYMP_10hyper_util2rt5tokio7TokioIoNtNtCsgB3dp6qvXvn_5hyper7upgrade8UpgradedEENtNtNtCs9BlWMLnNaqT_11tungstenite8protocol7message7MessageEIBS_IB1X_NtNtNtNtCsfWKKmeeA0Vo_5tokio3net3tcp6stream9TcpStreamEB4h_EEB4_
FNDA:1,_RINvNtCsijo3INtYyGB_5lb_l78ws_proxy18close_backpressureINtNtNtNtCsini5VYiF0RM_12futures_util6stream6stream5split9SplitSinkINtCs9nBo0KrKQU_17tokio_tungstenite15WebSocketStreamNtNtNtNtCsfWKKmeeA0Vo_5tokio2io4util3mem12DuplexStreamENtNtNtCs9BlWMLnNaqT_11tungstenite8protocol7message7MessageEBR_EB4_
FNDA:6,_RINvNtCsijo3INtYyGB_5lb_l78ws_proxy21is_h1_upgrade_requestINtNtCsedaG9KDMExI_14http_body_util5empty5EmptyNtNtCs7xJyEqPIUa9_5bytes5bytes5BytesEEB4_
FNDA:0,_RINvNtCsijo3INtYyGB_5lb_l78ws_proxy21is_h1_upgrade_requestNtNtNtCsgB3dp6qvXvn_5hyper4body8incoming8IncomingEB4_
FNDA:2,_RINvNtCsijo3INtYyGB_5lb_l78ws_proxy22is_h2_extended_connectINtNtCsedaG9KDMExI_14http_body_util5empty5EmptyNtNtCs7xJyEqPIUa9_5bytes5bytes5BytesEEB4_
FNDA:0,_RINvNtCsijo3INtYyGB_5lb_l78ws_proxy22is_h2_extended_connectNtNtNtCsgB3dp6qvXvn_5hyper4body8incoming8IncomingEB4_
FNDA:1,_RINvNtCsijo3INtYyGB_5lb_l78ws_proxy32build_handshake_response_headersINtNtCsedaG9KDMExI_14http_body_util5empty5EmptyNtNtCs7xJyEqPIUa9_5bytes5bytes5BytesEEB4_
FNDA:0,_RINvNtCsijo3INtYyGB_5lb_l78ws_proxy32build_handshake_response_headersNtNtNtCsgB3dp6qvXvn_5hyper4body8incoming8IncomingEB4_
FNDA:6,_RINvNtCsijo3INtYyGB_5lb_l78ws_proxy9client_wsNtNtNtNtCsfWKKmeeA0Vo_5tokio2io4util3mem12DuplexStreamEB4_
FNDA:0,_RINvNtCsijo3INtYyGB_5lb_l78ws_proxy9server_wsINtNtNtCs86YdmMopYMP_10hyper_util2rt5tokio7TokioIoNtNtCsgB3dp6qvXvn_5hyper7upgrade8UpgradedEEB4_
FNDA:5,_RINvNtCsijo3INtYyGB_5lb_l78ws_proxy9server_wsNtNtNtNtCsfWKKmeeA0Vo_5tokio2io4util3mem12DuplexStreamEB4_
FNDA:0,_RNCINvMs0_NtCsijo3INtYyGB_5lb_l78ws_proxyNtB8_7WsProxy12proxy_framesINtNtNtCs86YdmMopYMP_10hyper_util2rt5tokio7TokioIoNtNtCsgB3dp6qvXvn_5hyper7upgrade8UpgradedENtNtNtNtCsfWKKmeeA0Vo_5tokio3net3tcp6stream9TcpStreamE0Ba_
FNDA:3,_RNCINvMs0_NtCsijo3INtYyGB_5lb_l78ws_proxyNtB8_7WsProxy12proxy_framesNtNtNtNtCsfWKKmeeA0Vo_5tokio2io4util3mem12DuplexStreamB14_E0Ba_
FNDA:0,_RNCINvNtCsijo3INtYyGB_5lb_l78ws_proxy18close_backpressureINtNtNtNtCsini5VYiF0RM_12futures_util6stream6stream5split9SplitSinkINtCs9nBo0KrKQU_17tokio_tungstenite15WebSocketStreamINtNtNtCs86YdmMopYMP_10hyper_util2rt5tokio7TokioIoNtNtCsgB3dp6qvXvn_5hyper7upgrade8UpgradedEENtNtNtCs9BlWMLnNaqT_11tungstenite8protocol7message7MessageEIBU_IB1Z_NtNtNtNtCsfWKKmeeA0Vo_5tokio3net3tcp6stream9TcpStreamEB4j_EE0B6_
FNDA:1,_RNCINvNtCsijo3INtYyGB_5lb_l78ws_proxy18close_backpressureINtNtNtNtCsini5VYiF0RM_12futures_util6stream6stream5split9SplitSinkINtCs9nBo0KrKQU_17tokio_tungstenite15WebSocketStreamNtNtNtNtCsfWKKmeeA0Vo_5tokio2io4util3mem12DuplexStreamENtNtNtCs9BlWMLnNaqT_11tungstenite8protocol7message7MessageEBT_E0B6_
FNDA:4,_RNCINvNtCsijo3INtYyGB_5lb_l78ws_proxy21is_h1_upgrade_requestINtNtCsedaG9KDMExI_14http_body_util5empty5EmptyNtNtCs7xJyEqPIUa9_5bytes5bytes5BytesEE0B6_
FNDA:2,_RNCINvNtCsijo3INtYyGB_5lb_l78ws_proxy21is_h1_upgrade_requestINtNtCsedaG9KDMExI_14http_body_util5empty5EmptyNtNtCs7xJyEqPIUa9_5bytes5bytes5BytesEEs0_0B6_
FNDA:2,_RNCINvNtCsijo3INtYyGB_5lb_l78ws_proxy21is_h1_upgrade_requestINtNtCsedaG9KDMExI_14http_body_util5empty5EmptyNtNtCs7xJyEqPIUa9_5bytes5bytes5BytesEEs1_0B6_
FNDA:4,_RNCINvNtCsijo3INtYyGB_5lb_l78ws_proxy21is_h1_upgrade_requestINtNtCsedaG9KDMExI_14http_body_util5empty5EmptyNtNtCs7xJyEqPIUa9_5bytes5bytes5BytesEEs_0B6_
FNDA:0,_RNCINvNtCsijo3INtYyGB_5lb_l78ws_proxy21is_h1_upgrade_requestNtNtNtCsgB3dp6qvXvn_5hyper4body8incoming8IncomingE0B6_
FNDA:0,_RNCINvNtCsijo3INtYyGB_5lb_l78ws_proxy21is_h1_upgrade_requestNtNtNtCsgB3dp6qvXvn_5hyper4body8incoming8IncomingEs0_0B6_
FNDA:0,_RNCINvNtCsijo3INtYyGB_5lb_l78ws_proxy21is_h1_upgrade_requestNtNtNtCsgB3dp6qvXvn_5hyper4body8incoming8IncomingEs1_0B6_
FNDA:0,_RNCINvNtCsijo3INtYyGB_5lb_l78ws_proxy21is_h1_upgrade_requestNtNtNtCsgB3dp6qvXvn_5hyper4body8incoming8IncomingEs_0B6_
FNDA:1,_RNCINvNtCsijo3INtYyGB_5lb_l78ws_proxy22is_h2_extended_connectINtNtCsedaG9KDMExI_14http_body_util5empty5EmptyNtNtCs7xJyEqPIUa9_5bytes5bytes5BytesEE0B6_
FNDA:0,_RNCINvNtCsijo3INtYyGB_5lb_l78ws_proxy22is_h2_extended_connectNtNtNtCsgB3dp6qvXvn_5hyper4body8incoming8IncomingE0B6_
FNDA:6,_RNCINvNtCsijo3INtYyGB_5lb_l78ws_proxy9client_wsNtNtNtNtCsfWKKmeeA0Vo_5tokio2io4util3mem12DuplexStreamE0B6_
FNDA:0,_RNCINvNtCsijo3INtYyGB_5lb_l78ws_proxy9server_wsINtNtNtCs86YdmMopYMP_10hyper_util2rt5tokio7TokioIoNtNtCsgB3dp6qvXvn_5hyper7upgrade8UpgradedEE0B6_
FNDA:5,_RNCINvNtCsijo3INtYyGB_5lb_l78ws_proxy9server_wsNtNtNtNtCsfWKKmeeA0Vo_5tokio2io4util3mem12DuplexStreamE0B6_
FNDA:0,_RNCNCINvMs0_NtCsijo3INtYyGB_5lb_l78ws_proxyNtBa_7WsProxy12proxy_framesINtNtNtCs86YdmMopYMP_10hyper_util2rt5tokio7TokioIoNtNtCsgB3dp6qvXvn_5hyper7upgrade8UpgradedENtNtNtNtCsfWKKmeeA0Vo_5tokio3net3tcp6stream9TcpStreamE00Bc_
FNDA:6,_RNCNCINvMs0_NtCsijo3INtYyGB_5lb_l78ws_proxyNtBa_7WsProxy12proxy_framesNtNtNtNtCsfWKKmeeA0Vo_5tokio2io4util3mem12DuplexStreamB16_E00Bc_
FNDA:0,_RNCNCNCINvMs0_NtCsijo3INtYyGB_5lb_l78ws_proxyNtBc_7WsProxy12proxy_framesINtNtNtCs86YdmMopYMP_10hyper_util2rt5tokio7TokioIoNtNtCsgB3dp6qvXvn_5hyper7upgrade8UpgradedENtNtNtNtCsfWKKmeeA0Vo_5tokio3net3tcp6stream9TcpStreamE00s0_0Be_
FNDA:0,_RNCNCNCINvMs0_NtCsijo3INtYyGB_5lb_l78ws_proxyNtBc_7WsProxy12proxy_framesINtNtNtCs86YdmMopYMP_10hyper_util2rt5tokio7TokioIoNtNtCsgB3dp6qvXvn_5hyper7upgrade8UpgradedENtNtNtNtCsfWKKmeeA0Vo_5tokio3net3tcp6stream9TcpStreamE00s_0Be_
FNDA:0,_RNCNCNCINvMs0_NtCsijo3INtYyGB_5lb_l78ws_proxyNtBc_7WsProxy12proxy_framesNtNtNtNtCsfWKKmeeA0Vo_5tokio2io4util3mem12DuplexStreamB18_E00s0_0Be_
FNDA:0,_RNCNCNCINvMs0_NtCsijo3INtYyGB_5lb_l78ws_proxyNtBc_7WsProxy12proxy_framesNtNtNtNtCsfWKKmeeA0Vo_5tokio2io4util3mem12DuplexStreamB18_E00s_0Be_
FNDA:3,_RNvMs0_NtCsijo3INtYyGB_5lb_l78ws_proxyNtB5_7WsProxy3new
FNDA:0,_RNvMs0_NtCsijo3INtYyGB_5lb_l78ws_proxyNtB5_7WsProxy6config
FNDA:11,_RNvMs_NtCsijo3INtYyGB_5lb_l78ws_proxyNtB4_8WsConfig18tungstenite_config
FNDA:9,_RNvNtCsijo3INtYyGB_5lb_l78ws_proxy21header_contains_token
FNDA:2,_RNvXNtCsijo3INtYyGB_5lb_l78ws_proxyNtB2_8WsConfigNtNtCs2va5m0jqTTM_4core7default7Default7default
FNF:54
FNH:50
DA:112,8
DA:113,8
DA:114,8
DA:115,8
DA:116,8
DA:117,8
DA:118,8
DA:119,8
DA:120,8
DA:121,8
DA:161,126
DA:162,126
DA:163,126
DA:164,126
DA:165,126
DA:166,126
DA:167,126
DA:168,126
DA:169,126
DA:170,126
DA:171,126
DA:172,126
DA:173,126
DA:174,126
DA:175,126
DA:183,11
DA:184,11
DA:185,11
DA:186,1
DA:187,10
DA:188,10
DA:189,10
DA:190,2
DA:191,8
DA:192,8
DA:193,0
DA:194,8
DA:195,8
DA:196,8
DA:197,8
DA:198,8
DA:199,8
DA:200,1
DA:201,7
DA:202,7
DA:203,7
DA:204,7
DA:205,11
DA:213,2
DA:214,2
DA:215,0
DA:216,2
DA:217,2
DA:218,2
DA:219,2
DA:220,2
DA:221,2
DA:222,2
DA:223,2
DA:233,16
DA:234,16
DA:235,16
DA:239,65
DA:240,65
DA:241,65
DA:256,58
DA:257,58
DA:258,58
DA:259,58
DA:260,58
DA:261,58
DA:262,58
DA:263,58
DA:264,58
DA:265,58
DA:266,58
DA:267,58
DA:268,58
DA:269,58
DA:270,58
DA:271,58
DA:272,58
DA:273,58
DA:274,58
DA:275,58
DA:276,58
DA:277,58
DA:286,682
DA:287,682
DA:289,682
DA:290,110
DA:291,110
DA:292,110
DA:293,110
DA:294,682
DA:295,571
DA:296,571
DA:297,571
DA:298,571
DA:300,682
DA:301,682
DA:303,108
DA:306,1
DA:307,1
DA:308,1
DA:309,1
DA:310,1
DA:311,1
DA:312,1
DA:318,0
DA:319,0
DA:320,0
DA:321,0
DA:322,0
DA:323,0
DA:324,0
DA:325,0
DA:326,0
DA:328,108
DA:334,108
DA:335,0
DA:336,0
DA:337,0
DA:338,0
DA:339,0
DA:340,0
DA:341,0
DA:344,0
DA:345,0
DA:346,0
DA:347,0
DA:348,0
DA:349,0
DA:350,0
DA:351,0
DA:352,0
DA:353,0
DA:354,0
DA:355,0
DA:356,0
DA:357,108
DA:358,108
DA:370,108
DA:371,107
DA:372,1
DA:374,107
DA:380,52
DA:381,52
DA:382,55
DA:384,570
DA:385,570
DA:392,570
DA:393,569
DA:394,0
DA:396,569
DA:397,0
DA:398,0
DA:399,569
DA:405,0
DA:406,0
DA:409,0
DA:410,0
DA:412,2
DA:413,3
DA:417,57
DA:436,1
DA:437,1
DA:438,1
DA:439,1
DA:440,1
DA:441,1
DA:442,1
DA:443,1
DA:444,1
DA:445,1
DA:446,1
DA:447,1
DA:448,1
DA:449,1
DA:450,1
DA:451,1
DA:452,1
DA:453,1
DA:459,60
DA:460,60
DA:461,60
DA:462,60
DA:463,60
DA:464,60
DA:471,6
DA:472,6
DA:473,6
DA:474,6
DA:475,6
DA:476,6
DA:497,56
DA:498,56
DA:499,56
DA:500,56
DA:501,56
DA:502,56
DA:503,56
DA:504,56
DA:505,56
DA:506,56
DA:507,56
DA:508,56
DA:509,0
DA:510,0
DA:511,0
DA:512,0
DA:513,0
DA:515,56
DA:516,56
DA:517,56
DA:518,56
DA:519,56
DA:520,56
DA:521,56
DA:522,56
DA:525,55
DA:526,55
DA:527,55
DA:528,55
DA:529,55
DA:530,55
DA:531,56
DA:541,18
DA:542,18
DA:543,16
DA:544,17
DA:545,17
DA:546,16
DA:547,1
DA:550,2
DA:551,18
DA:563,5
DA:564,5
DA:565,5
DA:566,5
DA:567,5
DA:568,5
DA:569,5
DA:570,5
DA:571,5
DA:572,5
DA:573,5
DA:574,5
DA:575,5
DA:576,5
DA:577,5
DA:578,5
DA:579,5
DA:580,5
DA:590,1
DA:591,1
DA:592,1
DA:593,1
DA:594,1
DA:595,1
DA:596,1
DA:597,1
DA:598,1
DA:599,1
DA:600,1
DA:601,1
DA:604,1
DA:605,1
DA:606,1
DA:607,1
DA:610,1
DA:611,1
DA:612,1
DA:613,1
DA:614,1
DA:615,1
DA:616,1
DA:617,1
DA:618,1
DA:621,1
DA:622,1
DA:623,1
DA:624,1
DA:625,1
DA:626,1
DA:627,1
DA:628,1
DA:629,1
DA:630,1
DA:631,1
DA:632,1
DA:633,1
DA:636,1
DA:637,1
DA:638,1
DA:639,1
DA:640,1
DA:641,1
DA:642,1
DA:643,1
DA:644,1
DA:645,1
DA:646,1
DA:647,1
DA:650,1
DA:651,1
DA:652,1
DA:653,1
DA:654,1
DA:655,1
DA:656,1
DA:657,1
DA:658,1
DA:659,1
DA:660,1
DA:663,1
DA:664,1
DA:665,1
DA:666,1
DA:667,1
DA:668,1
DA:669,1
DA:670,1
DA:671,1
DA:672,1
DA:673,1
DA:674,1
DA:675,1
DA:676,1
DA:679,1
DA:680,1
DA:681,1
DA:682,1
DA:683,1
DA:684,1
DA:685,1
DA:686,1
DA:687,1
DA:688,1
DA:689,1
DA:690,1
DA:691,1
DA:692,1
DA:695,1
DA:696,1
DA:697,1
DA:698,1
DA:699,1
DA:700,1
DA:701,1
DA:702,1
DA:703,1
DA:704,1
DA:707,1
DA:708,1
DA:709,1
DA:710,1
DA:711,1
DA:712,1
DA:713,1
DA:714,1
DA:715,1
DA:716,1
DA:717,1
DA:718,1
DA:719,1
DA:720,1
DA:721,3
DA:722,1
DA:723,1
DA:724,1
DA:725,1
DA:732,1
DA:733,1
DA:734,1
DA:735,1
DA:736,1
DA:737,1
DA:738,1
DA:739,1
DA:740,1
DA:741,1
DA:742,1
DA:743,1
DA:744,1
DA:745,1
DA:746,1
DA:747,1
DA:748,1
DA:749,1
DA:750,1
DA:751,1
DA:752,1
DA:753,1
DA:754,1
DA:755,1
DA:756,1
DA:757,1
DA:758,1
DA:759,1
DA:760,1
DA:761,1
DA:762,1
DA:763,1
DA:764,1
DA:765,1
DA:766,1
DA:767,1
DA:768,1
DA:769,1
DA:770,1
DA:771,1
DA:772,1
DA:773,1
DA:774,1
DA:775,1
DA:776,1
DA:777,1
DA:778,1
DA:779,1
DA:780,1
DA:796,1
DA:797,1
DA:798,1
DA:799,1
DA:800,1
DA:801,1
DA:802,1
DA:803,1
DA:804,1
DA:805,1
DA:806,1
DA:807,1
DA:808,1
DA:809,1
DA:810,1
DA:811,1
DA:812,1
DA:813,1
DA:814,1
DA:815,1
DA:816,1
DA:817,1
DA:818,1
DA:819,1
DA:820,1
DA:821,1
DA:822,1
DA:823,1
DA:824,1
DA:825,1
DA:826,1
DA:827,1
DA:828,1
DA:829,1
DA:830,1
DA:831,1
DA:832,1
DA:833,1
DA:834,1
DA:835,1
DA:836,12
DA:837,12
DA:838,12
DA:839,12
DA:840,12
DA:841,1
DA:842,1
DA:843,12
DA:844,12
DA:845,1
DA:846,11
DA:847,11
DA:848,1
DA:849,1
DA:850,1
DA:851,1
DA:852,1
DA:853,1
DA:854,1
DA:855,1
DA:856,1
DA:857,1
DA:858,1
DA:859,1
DA:860,1
DA:861,1
DA:862,1
DA:863,1
DA:864,0
DA:865,0
DA:866,1
DA:867,1
DA:868,1
DA:869,1
DA:870,1
DA:890,1
DA:891,1
DA:892,1
DA:893,1
DA:894,1
DA:895,1
DA:896,1
DA:897,1
DA:898,1
DA:899,1
DA:900,1
DA:901,1
DA:902,1
DA:903,1
DA:904,1
DA:905,1
DA:906,1
DA:907,1
DA:908,1
DA:909,1
DA:910,1
DA:911,1
DA:912,1
DA:913,1
DA:914,1
DA:915,1
DA:916,1
DA:917,1
DA:918,1
DA:919,1
DA:920,1
DA:921,1
DA:922,1
DA:923,1
DA:924,1
DA:925,1
DA:926,1
DA:927,1
DA:928,1
DA:929,1
DA:930,1
DA:931,1
DA:932,1
DA:933,1
DA:934,1
DA:935,1
DA:936,1
DA:937,1
DA:938,1
DA:939,1
DA:940,1
DA:941,1
DA:942,1
DA:943,1
DA:944,1
DA:945,8
DA:946,8
DA:947,8
DA:948,1
DA:949,1
DA:950,7
DA:951,1
DA:952,1
DA:953,1
DA:954,1
DA:955,1
DA:956,1
DA:957,1
DA:958,1
DA:959,1
DA:960,1
DA:961,1
DA:962,1
DA:963,1
DA:964,1
DA:965,1
DA:966,1
DA:967,1
DA:968,1
DA:969,1
DA:970,1
DA:971,1
DA:972,1
DA:973,1
DA:974,1
DA:975,1
DA:976,3
DA:977,1
DA:978,1
DA:979,1
DA:980,1
DA:981,1
DA:982,1
DA:983,1
DA:984,1
DA:985,1
DA:986,1
DA:987,1
DA:988,1
DA:989,1
DA:990,1
DA:991,1
DA:992,1
DA:993,1
DA:994,1
DA:995,1
DA:996,1
DA:997,1
DA:998,1
DA:999,1
DA:1000,1
DA:1001,1
DA:1002,1
DA:1003,1
DA:1004,1
DA:1005,1
DA:1006,1
DA:1007,1
DA:1008,1
DA:1009,1
DA:1010,1
DA:1011,1
DA:1012,1
DA:1013,1
DA:1014,1
BRF:0
BRH:0
LF:839
LH:771
end_of_record
SF:/home/ubuntu/Code/ExpressGateway/crates/lb-quic/src/cleanup_guard.rs
FN:59,_RNvMNtCskwRMVHy5hME_7lb_quic13cleanup_guardINtB2_13CidEntryGuardppE6disarmB4_
FN:68,_RNvXs_NtCskwRMVHy5hME_7lb_quic13cleanup_guardINtB4_13CidEntryGuardINtNtCs8GO9KFlE3Dq_5alloc3vec3VechEINtNtNtNtCsfWKKmeeA0Vo_5tokio4sync4mpsc7bounded6SenderNtNtB6_10conn_actor13InboundPacketEENtNtNtCs2va5m0jqTTM_4core3ops4drop4Drop4dropB6_
FN:50,_RNvMNtCskwRMVHy5hME_7lb_quic13cleanup_guardINtB2_13CidEntryGuardINtNtCs8GO9KFlE3Dq_5alloc3vec3VechEINtNtNtNtCsfWKKmeeA0Vo_5tokio4sync4mpsc7bounded6SenderNtNtB4_10conn_actor13InboundPacketEE3newB4_
FN:68,_RNvXs_NtCsfUjBKV2B3Gc_7lb_quic13cleanup_guardINtB4_13CidEntryGuardINtNtCs8GO9KFlE3Dq_5alloc3vec3VechEINtNtNtNtCsfWKKmeeA0Vo_5tokio4sync4mpsc7bounded6SenderNtNtB6_10conn_actor13InboundPacketEENtNtNtCs2va5m0jqTTM_4core3ops4drop4Drop4dropB6_
FN:59,_RNvMNtCsfUjBKV2B3Gc_7lb_quic13cleanup_guardINtB2_13CidEntryGuardppE6disarmB4_
FN:50,_RNvMNtCsfUjBKV2B3Gc_7lb_quic13cleanup_guardINtB2_13CidEntryGuardINtNtCs8GO9KFlE3Dq_5alloc3vec3VechEINtNtNtNtCsfWKKmeeA0Vo_5tokio4sync4mpsc7bounded6SenderNtNtB4_10conn_actor13InboundPacketEE3newB4_
FN:50,_RNvMNtCskwRMVHy5hME_7lb_quic13cleanup_guardINtB2_13CidEntryGuardINtNtCs8GO9KFlE3Dq_5alloc3vec3VechEuE3newCs709OG4Qf5pD_16quic_router_leak
FN:68,_RNvXs_NtCskwRMVHy5hME_7lb_quic13cleanup_guardINtB4_13CidEntryGuardINtNtCs8GO9KFlE3Dq_5alloc3vec3VechEuENtNtNtCs2va5m0jqTTM_4core3ops4drop4Drop4dropCs709OG4Qf5pD_16quic_router_leak
FNDA:0,_RNvMNtCskwRMVHy5hME_7lb_quic13cleanup_guardINtB2_13CidEntryGuardppE6disarmB4_
FNDA:255,_RNvXs_NtCskwRMVHy5hME_7lb_quic13cleanup_guardINtB4_13CidEntryGuardINtNtCs8GO9KFlE3Dq_5alloc3vec3VechEINtNtNtNtCsfWKKmeeA0Vo_5tokio4sync4mpsc7bounded6SenderNtNtB6_10conn_actor13InboundPacketEENtNtNtCs2va5m0jqTTM_4core3ops4drop4Drop4dropB6_
FNDA:255,_RNvMNtCskwRMVHy5hME_7lb_quic13cleanup_guardINtB2_13CidEntryGuardINtNtCs8GO9KFlE3Dq_5alloc3vec3VechEINtNtNtNtCsfWKKmeeA0Vo_5tokio4sync4mpsc7bounded6SenderNtNtB4_10conn_actor13InboundPacketEE3newB4_
FNDA:4,_RNvXs_NtCsfUjBKV2B3Gc_7lb_quic13cleanup_guardINtB4_13CidEntryGuardINtNtCs8GO9KFlE3Dq_5alloc3vec3VechEINtNtNtNtCsfWKKmeeA0Vo_5tokio4sync4mpsc7bounded6SenderNtNtB6_10conn_actor13InboundPacketEENtNtNtCs2va5m0jqTTM_4core3ops4drop4Drop4dropB6_
FNDA:0,_RNvMNtCsfUjBKV2B3Gc_7lb_quic13cleanup_guardINtB2_13CidEntryGuardppE6disarmB4_
FNDA:4,_RNvMNtCsfUjBKV2B3Gc_7lb_quic13cleanup_guardINtB2_13CidEntryGuardINtNtCs8GO9KFlE3Dq_5alloc3vec3VechEINtNtNtNtCsfWKKmeeA0Vo_5tokio4sync4mpsc7bounded6SenderNtNtB4_10conn_actor13InboundPacketEE3newB4_
FNDA:3,_RNvMNtCskwRMVHy5hME_7lb_quic13cleanup_guardINtB2_13CidEntryGuardINtNtCs8GO9KFlE3Dq_5alloc3vec3VechEuE3newCs709OG4Qf5pD_16quic_router_leak
FNDA:3,_RNvXs_NtCskwRMVHy5hME_7lb_quic13cleanup_guardINtB4_13CidEntryGuardINtNtCs8GO9KFlE3Dq_5alloc3vec3VechEuENtNtNtCs2va5m0jqTTM_4core3ops4drop4Drop4dropCs709OG4Qf5pD_16quic_router_leak
FNF:3
FNH:2
DA:50,262
DA:51,262
DA:52,262
DA:53,262
DA:54,262
DA:55,262
DA:59,0
DA:60,0
DA:61,0
DA:68,262
DA:69,786
DA:70,524
DA:71,524
DA:72,524
DA:73,524
DA:74,524
DA:75,524
DA:77,262
BRF:0
BRH:0
LF:18
LH:15
end_of_record
SF:/home/ubuntu/Code/ExpressGateway/crates/lb-quic/src/conn_actor.rs
FN:390,_RNCNCNvNtCskwRMVHy5hME_7lb_quic10conn_actor9run_actor00B7_
FN:444,_RNCNCNvNtCskwRMVHy5hME_7lb_quic10conn_actor9run_actor0s_0B7_
FN:936,_RNCNvNtCskwRMVHy5hME_7lb_quic10conn_actor15drain_conn_send0B5_
FN:1527,_RNCNvNtCskwRMVHy5hME_7lb_quic10conn_actor15setup_ws_tunnel0B5_
FN:1528,_RNCNvNtCskwRMVHy5hME_7lb_quic10conn_actor15setup_ws_tunnels_0B5_
FN:593,_RNCNvNtCskwRMVHy5hME_7lb_quic10conn_actor19drain_resp_channels0B5_
FN:595,_RNCNvNtCskwRMVHy5hME_7lb_quic10conn_actor19drain_resp_channelss_0B5_
FN:1420,_RNCNvNtCskwRMVHy5hME_7lb_quic10conn_actor19record_req_retained0B5_
FN:873,_RNCNvNtCskwRMVHy5hME_7lb_quic10conn_actor20graceful_h3_shutdown0B5_
FN:774,_RNCNvNtCskwRMVHy5hME_7lb_quic10conn_actor21drain_streams_to_conn0B5_
FN:840,_RNCNvNtCskwRMVHy5hME_7lb_quic10conn_actor21drain_streams_to_conns_0B5_
FN:1449,_RNCNvNtCskwRMVHy5hME_7lb_quic10conn_actor24spawn_inline_h3_response0B5_
FN:1097,_RNCNvNtCskwRMVHy5hME_7lb_quic10conn_actor7poll_h30B5_
FN:1186,_RNCNvNtCskwRMVHy5hME_7lb_quic10conn_actor7poll_h3s0_0B5_
FN:1187,_RNCNvNtCskwRMVHy5hME_7lb_quic10conn_actor7poll_h3s1_0B5_
FN:1213,_RNCNvNtCskwRMVHy5hME_7lb_quic10conn_actor7poll_h3s2_0B5_
FN:1230,_RNCNvNtCskwRMVHy5hME_7lb_quic10conn_actor7poll_h3s3_0B5_
FN:1248,_RNCNvNtCskwRMVHy5hME_7lb_quic10conn_actor7poll_h3s4_0B5_
FN:1111,_RNCNvNtCskwRMVHy5hME_7lb_quic10conn_actor7poll_h3s_0B5_
FN:265,_RNCNvNtCskwRMVHy5hME_7lb_quic10conn_actor9run_actor0B5_
FN:666,_RNvMNtCskwRMVHy5hME_7lb_quic10conn_actorNtB2_8StreamTx11progressive
FN:1654,_RNvNtCskwRMVHy5hME_7lb_quic10conn_actor11ws_teardown
FN:1428,_RNvNtCskwRMVHy5hME_7lb_quic10conn_actor14select_backend
FN:932,_RNvNtCskwRMVHy5hME_7lb_quic10conn_actor15drain_conn_send
FN:1681,_RNvNtCskwRMVHy5hME_7lb_quic10conn_actor15pump_ws_tunnels
FN:921,_RNvNtCskwRMVHy5hME_7lb_quic10conn_actor15reset_h3_stream
FN:1477,_RNvNtCskwRMVHy5hME_7lb_quic10conn_actor15setup_ws_tunnel
FN:1567,_RNvNtCskwRMVHy5hME_7lb_quic10conn_actor16ws_drain_inbound
FN:976,_RNvNtCskwRMVHy5hME_7lb_quic10conn_actor18drain_request_body
FN:517,_RNvNtCskwRMVHy5hME_7lb_quic10conn_actor19drain_resp_channels
FN:1413,_RNvNtCskwRMVHy5hME_7lb_quic10conn_actor19record_req_retained
FN:869,_RNvNtCskwRMVHy5hME_7lb_quic10conn_actor20graceful_h3_shutdown
FN:1611,_RNvNtCskwRMVHy5hME_7lb_quic10conn_actor20ws_handle_client_fin
FN:687,_RNvNtCskwRMVHy5hME_7lb_quic10conn_actor21drain_streams_to_conn
FN:1641,_RNvNtCskwRMVHy5hME_7lb_quic10conn_actor22ws_handle_client_reset
FN:1440,_RNvNtCskwRMVHy5hME_7lb_quic10conn_actor24spawn_inline_h3_response
FN:470,_RNvNtCskwRMVHy5hME_7lb_quic10conn_actor31reap_client_cancelled_responses
FN:1055,_RNvNtCskwRMVHy5hME_7lb_quic10conn_actor7poll_h3
FN:265,_RNvNtCskwRMVHy5hME_7lb_quic10conn_actor9run_actor
FN:390,_RNCNCNvNtCsfUjBKV2B3Gc_7lb_quic10conn_actor9run_actor00B7_
FN:444,_RNCNCNvNtCsfUjBKV2B3Gc_7lb_quic10conn_actor9run_actor0s_0B7_
FN:936,_RNCNvNtCsfUjBKV2B3Gc_7lb_quic10conn_actor15drain_conn_send0B5_
FN:1527,_RNCNvNtCsfUjBKV2B3Gc_7lb_quic10conn_actor15setup_ws_tunnel0B5_
FN:1528,_RNCNvNtCsfUjBKV2B3Gc_7lb_quic10conn_actor15setup_ws_tunnels_0B5_
FN:593,_RNCNvNtCsfUjBKV2B3Gc_7lb_quic10conn_actor19drain_resp_channels0B5_
FN:595,_RNCNvNtCsfUjBKV2B3Gc_7lb_quic10conn_actor19drain_resp_channelss_0B5_
FN:1420,_RNCNvNtCsfUjBKV2B3Gc_7lb_quic10conn_actor19record_req_retained0B5_
FN:873,_RNCNvNtCsfUjBKV2B3Gc_7lb_quic10conn_actor20graceful_h3_shutdown0B5_
FN:774,_RNCNvNtCsfUjBKV2B3Gc_7lb_quic10conn_actor21drain_streams_to_conn0B5_
FN:840,_RNCNvNtCsfUjBKV2B3Gc_7lb_quic10conn_actor21drain_streams_to_conns_0B5_
FN:1449,_RNCNvNtCsfUjBKV2B3Gc_7lb_quic10conn_actor24spawn_inline_h3_response0B5_
FN:1097,_RNCNvNtCsfUjBKV2B3Gc_7lb_quic10conn_actor7poll_h30B5_
FN:1186,_RNCNvNtCsfUjBKV2B3Gc_7lb_quic10conn_actor7poll_h3s0_0B5_
FN:1187,_RNCNvNtCsfUjBKV2B3Gc_7lb_quic10conn_actor7poll_h3s1_0B5_
FN:1213,_RNCNvNtCsfUjBKV2B3Gc_7lb_quic10conn_actor7poll_h3s2_0B5_
FN:1230,_RNCNvNtCsfUjBKV2B3Gc_7lb_quic10conn_actor7poll_h3s3_0B5_
FN:1248,_RNCNvNtCsfUjBKV2B3Gc_7lb_quic10conn_actor7poll_h3s4_0B5_
FN:1111,_RNCNvNtCsfUjBKV2B3Gc_7lb_quic10conn_actor7poll_h3s_0B5_
FN:265,_RNCNvNtCsfUjBKV2B3Gc_7lb_quic10conn_actor9run_actor0B5_
FN:666,_RNvMNtCsfUjBKV2B3Gc_7lb_quic10conn_actorNtB2_8StreamTx11progressive
FN:1654,_RNvNtCsfUjBKV2B3Gc_7lb_quic10conn_actor11ws_teardown
FN:1428,_RNvNtCsfUjBKV2B3Gc_7lb_quic10conn_actor14select_backend
FN:932,_RNvNtCsfUjBKV2B3Gc_7lb_quic10conn_actor15drain_conn_send
FN:1681,_RNvNtCsfUjBKV2B3Gc_7lb_quic10conn_actor15pump_ws_tunnels
FN:921,_RNvNtCsfUjBKV2B3Gc_7lb_quic10conn_actor15reset_h3_stream
FN:1477,_RNvNtCsfUjBKV2B3Gc_7lb_quic10conn_actor15setup_ws_tunnel
FN:1567,_RNvNtCsfUjBKV2B3Gc_7lb_quic10conn_actor16ws_drain_inbound
FN:976,_RNvNtCsfUjBKV2B3Gc_7lb_quic10conn_actor18drain_request_body
FN:517,_RNvNtCsfUjBKV2B3Gc_7lb_quic10conn_actor19drain_resp_channels
FN:1413,_RNvNtCsfUjBKV2B3Gc_7lb_quic10conn_actor19record_req_retained
FN:869,_RNvNtCsfUjBKV2B3Gc_7lb_quic10conn_actor20graceful_h3_shutdown
FN:1611,_RNvNtCsfUjBKV2B3Gc_7lb_quic10conn_actor20ws_handle_client_fin
FN:687,_RNvNtCsfUjBKV2B3Gc_7lb_quic10conn_actor21drain_streams_to_conn
FN:1641,_RNvNtCsfUjBKV2B3Gc_7lb_quic10conn_actor22ws_handle_client_reset
FN:1440,_RNvNtCsfUjBKV2B3Gc_7lb_quic10conn_actor24spawn_inline_h3_response
FN:470,_RNvNtCsfUjBKV2B3Gc_7lb_quic10conn_actor31reap_client_cancelled_responses
FN:1055,_RNvNtCsfUjBKV2B3Gc_7lb_quic10conn_actor7poll_h3
FN:265,_RNvNtCsfUjBKV2B3Gc_7lb_quic10conn_actor9run_actor
FNDA:251,_RNCNCNvNtCskwRMVHy5hME_7lb_quic10conn_actor9run_actor00B7_
FNDA:391859,_RNCNCNvNtCskwRMVHy5hME_7lb_quic10conn_actor9run_actor0s_0B7_
FNDA:1325444,_RNCNvNtCskwRMVHy5hME_7lb_quic10conn_actor15drain_conn_send0B5_
FNDA:56,_RNCNvNtCskwRMVHy5hME_7lb_quic10conn_actor15setup_ws_tunnel0B5_
FNDA:0,_RNCNvNtCskwRMVHy5hME_7lb_quic10conn_actor15setup_ws_tunnels_0B5_
FNDA:55,_RNCNvNtCskwRMVHy5hME_7lb_quic10conn_actor19drain_resp_channels0B5_
FNDA:5,_RNCNvNtCskwRMVHy5hME_7lb_quic10conn_actor19drain_resp_channelss_0B5_
FNDA:5079,_RNCNvNtCskwRMVHy5hME_7lb_quic10conn_actor19record_req_retained0B5_
FNDA:197,_RNCNvNtCskwRMVHy5hME_7lb_quic10conn_actor20graceful_h3_shutdown0B5_
FNDA:5,_RNCNvNtCskwRMVHy5hME_7lb_quic10conn_actor21drain_streams_to_conn0B5_
FNDA:1123509,_RNCNvNtCskwRMVHy5hME_7lb_quic10conn_actor21drain_streams_to_conns_0B5_
FNDA:5,_RNCNvNtCskwRMVHy5hME_7lb_quic10conn_actor24spawn_inline_h3_response0B5_
FNDA:1056,_RNCNvNtCskwRMVHy5hME_7lb_quic10conn_actor7poll_h30B5_
FNDA:58,_RNCNvNtCskwRMVHy5hME_7lb_quic10conn_actor7poll_h3s0_0B5_
FNDA:58,_RNCNvNtCskwRMVHy5hME_7lb_quic10conn_actor7poll_h3s1_0B5_
FNDA:8,_RNCNvNtCskwRMVHy5hME_7lb_quic10conn_actor7poll_h3s2_0B5_
FNDA:143,_RNCNvNtCskwRMVHy5hME_7lb_quic10conn_actor7poll_h3s3_0B5_
FNDA:37,_RNCNvNtCskwRMVHy5hME_7lb_quic10conn_actor7poll_h3s4_0B5_
FNDA:3,_RNCNvNtCskwRMVHy5hME_7lb_quic10conn_actor7poll_h3s_0B5_
FNDA:258,_RNCNvNtCskwRMVHy5hME_7lb_quic10conn_actor9run_actor0B5_
FNDA:721663,_RNvMNtCskwRMVHy5hME_7lb_quic10conn_actorNtB2_8StreamTx11progressive
FNDA:0,_RNvNtCskwRMVHy5hME_7lb_quic10conn_actor11ws_teardown
FNDA:37,_RNvNtCskwRMVHy5hME_7lb_quic10conn_actor14select_backend
FNDA:1325444,_RNvNtCskwRMVHy5hME_7lb_quic10conn_actor15drain_conn_send
FNDA:1137402,_RNvNtCskwRMVHy5hME_7lb_quic10conn_actor15pump_ws_tunnels
FNDA:1,_RNvNtCskwRMVHy5hME_7lb_quic10conn_actor15reset_h3_stream
FNDA:58,_RNvNtCskwRMVHy5hME_7lb_quic10conn_actor15setup_ws_tunnel
FNDA:13050,_RNvNtCskwRMVHy5hME_7lb_quic10conn_actor16ws_drain_inbound
FNDA:18919,_RNvNtCskwRMVHy5hME_7lb_quic10conn_actor18drain_request_body
FNDA:1137656,_RNvNtCskwRMVHy5hME_7lb_quic10conn_actor19drain_resp_channels
FNDA:5079,_RNvNtCskwRMVHy5hME_7lb_quic10conn_actor19record_req_retained
FNDA:197,_RNvNtCskwRMVHy5hME_7lb_quic10conn_actor20graceful_h3_shutdown
FNDA:1,_RNvNtCskwRMVHy5hME_7lb_quic10conn_actor20ws_handle_client_fin
FNDA:1137913,_RNvNtCskwRMVHy5hME_7lb_quic10conn_actor21drain_streams_to_conn
FNDA:1,_RNvNtCskwRMVHy5hME_7lb_quic10conn_actor22ws_handle_client_reset
FNDA:5,_RNvNtCskwRMVHy5hME_7lb_quic10conn_actor24spawn_inline_h3_response
FNDA:1137656,_RNvNtCskwRMVHy5hME_7lb_quic10conn_actor31reap_client_cancelled_responses
FNDA:1137402,_RNvNtCskwRMVHy5hME_7lb_quic10conn_actor7poll_h3
FNDA:258,_RNvNtCskwRMVHy5hME_7lb_quic10conn_actor9run_actor
FNDA:0,_RNCNCNvNtCsfUjBKV2B3Gc_7lb_quic10conn_actor9run_actor00B7_
FNDA:0,_RNCNCNvNtCsfUjBKV2B3Gc_7lb_quic10conn_actor9run_actor0s_0B7_
FNDA:0,_RNCNvNtCsfUjBKV2B3Gc_7lb_quic10conn_actor15drain_conn_send0B5_
FNDA:0,_RNCNvNtCsfUjBKV2B3Gc_7lb_quic10conn_actor15setup_ws_tunnel0B5_
FNDA:0,_RNCNvNtCsfUjBKV2B3Gc_7lb_quic10conn_actor15setup_ws_tunnels_0B5_
FNDA:0,_RNCNvNtCsfUjBKV2B3Gc_7lb_quic10conn_actor19drain_resp_channels0B5_
FNDA:0,_RNCNvNtCsfUjBKV2B3Gc_7lb_quic10conn_actor19drain_resp_channelss_0B5_
FNDA:0,_RNCNvNtCsfUjBKV2B3Gc_7lb_quic10conn_actor19record_req_retained0B5_
FNDA:0,_RNCNvNtCsfUjBKV2B3Gc_7lb_quic10conn_actor20graceful_h3_shutdown0B5_
FNDA:0,_RNCNvNtCsfUjBKV2B3Gc_7lb_quic10conn_actor21drain_streams_to_conn0B5_
FNDA:0,_RNCNvNtCsfUjBKV2B3Gc_7lb_quic10conn_actor21drain_streams_to_conns_0B5_
FNDA:0,_RNCNvNtCsfUjBKV2B3Gc_7lb_quic10conn_actor24spawn_inline_h3_response0B5_
FNDA:0,_RNCNvNtCsfUjBKV2B3Gc_7lb_quic10conn_actor7poll_h30B5_
FNDA:0,_RNCNvNtCsfUjBKV2B3Gc_7lb_quic10conn_actor7poll_h3s0_0B5_
FNDA:0,_RNCNvNtCsfUjBKV2B3Gc_7lb_quic10conn_actor7poll_h3s1_0B5_
FNDA:0,_RNCNvNtCsfUjBKV2B3Gc_7lb_quic10conn_actor7poll_h3s2_0B5_
FNDA:0,_RNCNvNtCsfUjBKV2B3Gc_7lb_quic10conn_actor7poll_h3s3_0B5_
FNDA:0,_RNCNvNtCsfUjBKV2B3Gc_7lb_quic10conn_actor7poll_h3s4_0B5_
FNDA:0,_RNCNvNtCsfUjBKV2B3Gc_7lb_quic10conn_actor7poll_h3s_0B5_
FNDA:0,_RNCNvNtCsfUjBKV2B3Gc_7lb_quic10conn_actor9run_actor0B5_
FNDA:0,_RNvMNtCsfUjBKV2B3Gc_7lb_quic10conn_actorNtB2_8StreamTx11progressive
FNDA:0,_RNvNtCsfUjBKV2B3Gc_7lb_quic10conn_actor11ws_teardown
FNDA:0,_RNvNtCsfUjBKV2B3Gc_7lb_quic10conn_actor14select_backend
FNDA:0,_RNvNtCsfUjBKV2B3Gc_7lb_quic10conn_actor15drain_conn_send
FNDA:0,_RNvNtCsfUjBKV2B3Gc_7lb_quic10conn_actor15pump_ws_tunnels
FNDA:0,_RNvNtCsfUjBKV2B3Gc_7lb_quic10conn_actor15reset_h3_stream
FNDA:0,_RNvNtCsfUjBKV2B3Gc_7lb_quic10conn_actor15setup_ws_tunnel
FNDA:0,_RNvNtCsfUjBKV2B3Gc_7lb_quic10conn_actor16ws_drain_inbound
FNDA:0,_RNvNtCsfUjBKV2B3Gc_7lb_quic10conn_actor18drain_request_body
FNDA:0,_RNvNtCsfUjBKV2B3Gc_7lb_quic10conn_actor19drain_resp_channels
FNDA:0,_RNvNtCsfUjBKV2B3Gc_7lb_quic10conn_actor19record_req_retained
FNDA:0,_RNvNtCsfUjBKV2B3Gc_7lb_quic10conn_actor20graceful_h3_shutdown
FNDA:0,_RNvNtCsfUjBKV2B3Gc_7lb_quic10conn_actor20ws_handle_client_fin
FNDA:0,_RNvNtCsfUjBKV2B3Gc_7lb_quic10conn_actor21drain_streams_to_conn
FNDA:0,_RNvNtCsfUjBKV2B3Gc_7lb_quic10conn_actor22ws_handle_client_reset
FNDA:0,_RNvNtCsfUjBKV2B3Gc_7lb_quic10conn_actor24spawn_inline_h3_response
FNDA:0,_RNvNtCsfUjBKV2B3Gc_7lb_quic10conn_actor31reap_client_cancelled_responses
FNDA:0,_RNvNtCsfUjBKV2B3Gc_7lb_quic10conn_actor7poll_h3
FNDA:0,_RNvNtCsfUjBKV2B3Gc_7lb_quic10conn_actor9run_actor
FNF:39
FNH:37
DA:265,258
DA:266,258
DA:267,258
DA:268,258
DA:269,258
DA:270,258
DA:271,258
DA:272,1
DA:273,257
DA:274,257
DA:275,257
DA:276,257
DA:277,257
DA:278,257
DA:279,257
DA:280,257
DA:281,257
DA:282,257
DA:283,257
DA:284,257
DA:285,257
DA:286,257
DA:287,257
DA:288,257
DA:289,257
DA:290,257
DA:291,257
DA:292,257
DA:293,257
DA:294,257
DA:295,257
DA:296,257
DA:297,257
DA:298,257
DA:299,257
DA:300,257
DA:301,257
DA:302,257
DA:303,257
DA:304,257
DA:305,257
DA:306,257
DA:307,257
DA:308,257
DA:309,257
DA:310,257
DA:311,257
DA:312,257
DA:313,257
DA:322,1137913
DA:323,1137913
DA:325,1137913
DA:326,61
DA:327,1137852
DA:328,1137852
DA:329,1137852
DA:330,1137852
DA:331,1137852
DA:332,1137852
DA:333,1137852
DA:334,1137852
DA:335,1137852
DA:336,1137852
DA:337,1137852
DA:338,1137852
DA:339,1137852
DA:340,1137852
DA:341,1137852
DA:342,1137852
DA:343,1137852
DA:344,1137852
DA:345,1137852
DA:346,1137852
DA:347,1137852
DA:348,1137852
DA:349,1137852
DA:350,1137852
DA:351,1137852
DA:352,1137852
DA:353,1137852
DA:354,1136785
DA:355,1136785
DA:356,1136785
DA:358,1137852
DA:360,1137852
DA:361,196
DA:362,19
DA:364,1137852
DA:365,155924
DA:366,155924
DA:367,155924
DA:368,155923
DA:369,1
DA:370,1
DA:374,1137852
DA:375,981732
DA:376,981732
DA:380,1137656
DA:384,1137402
DA:389,251
DA:390,251
DA:392,251
DA:393,0
DA:394,0
DA:395,0
DA:396,0
DA:397,0
DA:401,1137151
DA:402,1137402
DA:403,1137402
DA:404,1137402
DA:405,1137402
DA:406,1137402
DA:407,1137402
DA:408,1137402
DA:409,1137402
DA:410,1137402
DA:411,1137402
DA:412,1137402
DA:413,1137402
DA:414,1137402
DA:415,1137402
DA:416,1137402
DA:417,1137402
DA:418,1137402
DA:419,1137402
DA:420,1137402
DA:421,254
DA:427,1137656
DA:428,1137656
DA:429,1137656
DA:430,1137656
DA:431,1137656
DA:432,1137656
DA:433,1137656
DA:434,1137656
DA:435,1137656
DA:436,1137656
DA:437,1137656
DA:438,1137656
DA:439,1137656
DA:440,1137656
DA:441,1137656
DA:442,1137656
DA:443,1137656
DA:444,1137656
DA:451,80
DA:452,0
DA:453,0
DA:454,80
DA:455,80
DA:470,1137656
DA:471,1137656
DA:472,1137656
DA:473,1137656
DA:474,1137656
DA:475,1137656
DA:476,1137656
DA:477,1123512
DA:478,3
DA:479,3
DA:482,0
DA:483,0
DA:485,3
DA:487,1123509
DA:490,1137659
DA:491,3
DA:492,3
DA:493,3
DA:494,3
DA:495,3
DA:496,3
DA:497,1137656
DA:517,1137656
DA:518,1137656
DA:519,1137656
DA:520,1137656
DA:521,1137656
DA:522,2261165
DA:527,1123509
DA:528,1123509
DA:529,1123509
DA:530,1123509
DA:531,1123509
DA:532,1123509
DA:533,1123509
DA:534,1123509
DA:535,1123509
DA:539,0
DA:540,1123509
DA:541,1123509
DA:542,1123509
DA:543,25758
DA:544,1097751
DA:545,1097751
DA:546,0
DA:553,1097751
DA:557,186
DA:558,186
DA:559,186
DA:560,58902
DA:561,3
DA:562,153
DA:563,24
DA:564,317016
DA:565,721467
DA:566,721467
DA:567,721467
DA:568,721467
DA:569,721467
DA:570,721467
DA:586,1137656
DA:587,1137656
DA:588,1123509
DA:589,1123509
DA:590,84849
DA:591,84660
DA:592,186
DA:593,186
DA:595,5
DA:599,1137656
DA:600,1123509
DA:601,1123509
DA:602,1123509
DA:603,1123509
DA:604,1123509
DA:605,1137656
DA:606,1137656
DA:607,1137656
DA:666,721663
DA:667,721663
DA:668,721663
DA:669,721663
DA:670,721663
DA:671,721663
DA:672,721663
DA:673,721663
DA:674,721663
DA:687,1137913
DA:688,1137913
DA:689,1137913
DA:690,1137913
DA:691,1137913
DA:692,1137913
DA:693,1137913
DA:694,1123509
DA:695,1123509
DA:696,1123509
DA:697,1123509
DA:698,1123509
DA:699,1123509
DA:700,1123509
DA:701,1123509
DA:702,1123509
DA:703,1123509
DA:704,1123509
DA:705,0
DA:706,1123509
DA:710,1123509
DA:711,0
DA:718,1182593
DA:719,84849
DA:720,186
DA:721,186
DA:724,0
DA:725,0
DA:726,186
DA:727,186
DA:728,186
DA:729,186
DA:730,186
DA:731,186
DA:732,186
DA:733,186
DA:734,55
DA:735,55
DA:736,55
DA:737,186
DA:738,185
DA:739,185
DA:740,185
DA:741,185
DA:743,0
DA:744,1
DA:745,1
DA:746,1
DA:747,1
DA:751,84660
DA:752,84660
DA:753,24389
DA:754,60270
DA:755,58899
DA:756,58899
DA:757,1371
DA:758,1371
DA:759,1371
DA:760,1371
DA:761,1371
DA:763,0
DA:764,1
DA:765,1
DA:766,1
DA:767,1
DA:771,3
DA:772,3
DA:773,3
DA:774,5
DA:775,3
DA:776,3
DA:777,3
DA:778,3
DA:779,3
DA:780,3
DA:781,3
DA:782,3
DA:783,3
DA:784,3
DA:785,3
DA:787,3
DA:788,3
DA:789,3
DA:790,3
DA:793,0
DA:794,0
DA:795,0
DA:796,0
DA:797,0
DA:803,1123509
DA:808,721493
DA:809,721493
DA:810,0
DA:811,0
DA:814,721493
DA:815,721493
DA:816,402016
DA:821,153
DA:822,151
DA:823,2
DA:824,2
DA:827,153
DA:828,153
DA:829,401863
DA:833,1859562
DA:836,721649
DA:837,721649
DA:838,721649
DA:840,1137913
DA:841,1123509
DA:842,1123509
DA:843,1137913
DA:844,1137913
DA:869,197
DA:870,197
DA:871,197
DA:872,197
DA:873,197
DA:874,197
DA:875,197
DA:876,0
DA:877,0
DA:880,197
DA:882,217
DA:883,217
DA:884,19
DA:885,198
DA:886,198
DA:887,1
DA:888,0
DA:890,1
DA:891,197
DA:892,197
DA:893,197
DA:894,197
DA:895,197
DA:896,197
DA:897,197
DA:898,197
DA:899,20
DA:901,20
DA:921,1
DA:922,1
DA:923,1
DA:924,0
DA:926,1
DA:927,1
DA:928,0
DA:930,1
DA:932,1325444
DA:933,1325444
DA:934,1325444
DA:935,1325444
DA:936,1325444
DA:938,1642621
DA:939,317177
DA:940,317177
DA:941,317177
DA:942,0
DA:943,0
DA:944,317177
DA:946,1325444
DA:947,0
DA:948,0
DA:949,0
DA:953,1325444
DA:976,18919
DA:977,18919
DA:978,18919
DA:979,18919
DA:980,18919
DA:981,18919
DA:982,18919
DA:983,18919
DA:984,18919
DA:987,23998
DA:988,23890
DA:989,11572
DA:991,12426
DA:992,0
DA:993,5079
DA:994,5079
DA:995,5079
DA:996,5079
DA:1000,0
DA:1001,0
DA:1002,0
DA:1003,0
DA:1004,0
DA:1005,0
DA:1006,5079
DA:1009,5079
DA:1010,5079
DA:1011,5079
DA:1012,5079
DA:1013,5079
DA:1015,5079
DA:1017,7345
DA:1018,2
DA:1019,2
DA:1020,2
DA:1021,2
DA:1024,0
DA:1026,2
DA:1027,2
DA:1028,2
DA:1029,2
DA:1030,2
DA:1031,2
DA:1035,18919
DA:1055,1137402
DA:1056,1137402
DA:1057,1137402
DA:1058,1137402
DA:1059,1137402
DA:1060,1137402
DA:1061,1137402
DA:1062,1137402
DA:1063,1137402
DA:1064,1137402
DA:1065,1137402
DA:1066,1137402
DA:1067,1137402
DA:1068,1137402
DA:1069,1137402
DA:1070,1137402
DA:1071,1137402
DA:1072,1137402
DA:1073,1137402
DA:1074,1137402
DA:1075,1137402
DA:1076,1137402
DA:1077,1137402
DA:1078,1137402
DA:1079,1137402
DA:1080,1155474
DA:1081,18072
DA:1082,18072
DA:1083,18072
DA:1084,18072
DA:1085,18072
DA:1086,18072
DA:1087,18072
DA:1088,18072
DA:1089,18072
DA:1093,1138610
DA:1094,251
DA:1095,251
DA:1096,251
DA:1097,1056
DA:1099,1056
DA:1100,1056
DA:1101,1056
DA:1102,1056
DA:1103,1056
DA:1104,251
DA:1105,251
DA:1106,251
DA:1107,251
DA:1108,251
DA:1111,3
DA:1112,0
DA:1114,0
DA:1116,0
DA:1117,0
DA:1118,0
DA:1119,0
DA:1120,0
DA:1121,0
DA:1122,2
DA:1123,2
DA:1124,2
DA:1125,249
DA:1131,249
DA:1132,1
DA:1135,0
DA:1137,1
DA:1138,1
DA:1139,248
DA:1140,248
DA:1141,248
DA:1142,248
DA:1143,248
DA:1144,248
DA:1145,248
DA:1146,2
DA:1150,0
DA:1157,2
DA:1158,2
DA:1159,2
DA:1160,2
DA:1161,2
DA:1162,2
DA:1163,2
DA:1164,2
DA:1165,2
DA:1166,246
DA:1167,0
DA:1182,246
DA:1183,58
DA:1184,58
DA:1185,58
DA:1186,58
DA:1187,58
DA:1188,58
DA:1189,58
DA:1190,58
DA:1191,58
DA:1192,58
DA:1193,58
DA:1194,58
DA:1195,58
DA:1196,58
DA:1197,58
DA:1198,58
DA:1199,58
DA:1200,0
DA:1201,188
DA:1203,188
DA:1204,188
DA:1205,188
DA:1206,188
DA:1207,188
DA:1208,188
DA:1209,188
DA:1211,188
DA:1212,8
DA:1213,8
DA:1214,8
DA:1215,8
DA:1216,8
DA:1217,8
DA:1218,8
DA:1219,8
DA:1220,8
DA:1221,8
DA:1222,8
DA:1224,1
DA:1225,7
DA:1226,8
DA:1227,8
DA:1228,180
DA:1229,143
DA:1230,143
DA:1231,143
DA:1232,143
DA:1233,143
DA:1234,143
DA:1235,143
DA:1236,143
DA:1237,143
DA:1238,143
DA:1239,143
DA:1240,143
DA:1242,14
DA:1243,129
DA:1244,143
DA:1245,143
DA:1246,37
DA:1247,37
DA:1248,37
DA:1249,37
DA:1250,37
DA:1251,37
DA:1252,37
DA:1253,37
DA:1254,37
DA:1255,37
DA:1256,37
DA:1257,37
DA:1259,14
DA:1260,23
DA:1261,37
DA:1262,37
DA:1264,0
DA:1265,0
DA:1267,188
DA:1268,0
DA:1269,188
DA:1270,188
DA:1271,188
DA:1272,188
DA:1273,188
DA:1274,110
DA:1275,110
DA:1276,110
DA:1277,110
DA:1278,110
DA:1279,110
DA:1280,110
DA:1281,110
DA:1282,78
DA:1283,78
DA:1284,78
DA:1285,78
DA:1286,78
DA:1287,78
DA:1288,78
DA:1289,78
DA:1290,78
DA:1291,78
DA:1292,78
DA:1293,78
DA:1294,78
DA:1295,78
DA:1296,78
DA:1298,769
DA:1299,769
DA:1300,769
DA:1301,769
DA:1302,769
DA:1303,769
DA:1304,769
DA:1305,769
DA:1306,769
DA:1307,769
DA:1308,127
DA:1313,127
DA:1314,1
DA:1315,1
DA:1316,126
DA:1333,126
DA:1334,126
DA:1337,126
DA:1338,14
DA:1339,1
DA:1341,0
DA:1342,0
DA:1344,1
DA:1345,13
DA:1346,13
DA:1347,13
DA:1348,13
DA:1349,112
DA:1350,126
DA:1351,126
DA:1353,61
DA:1358,61
DA:1359,1
DA:1360,1
DA:1361,60
DA:1362,60
DA:1363,60
DA:1364,60
DA:1367,0
DA:1369,60
DA:1370,60
DA:1371,60
DA:1372,60
DA:1373,60
DA:1377,0
DA:1378,1137400
DA:1379,2
DA:1380,2
DA:1381,2
DA:1382,2
DA:1383,2
DA:1384,2
DA:1385,2
DA:1386,2
DA:1395,1137402
DA:1396,1137402
DA:1397,1137402
DA:1398,1137402
DA:1399,1137402
DA:1400,1137402
DA:1401,1137402
DA:1402,1137402
DA:1403,1137402
DA:1413,5079
DA:1414,5079
DA:1415,5079
DA:1416,5079
DA:1417,5079
DA:1418,5079
DA:1419,5079
DA:1420,5079
DA:1421,5079
DA:1422,5079
DA:1423,5079
DA:1428,37
DA:1429,37
DA:1430,37
DA:1440,5
DA:1441,5
DA:1442,5
DA:1443,5
DA:1444,5
DA:1445,5
DA:1446,5
DA:1447,5
DA:1448,5
DA:1449,5
DA:1450,5
DA:1451,5
DA:1452,5
DA:1453,5
DA:1454,5
DA:1455,5
DA:1456,5
DA:1457,5
DA:1458,5
DA:1459,5
DA:1460,5
DA:1461,5
DA:1462,5
DA:1463,5
DA:1477,58
DA:1478,58
DA:1479,58
DA:1480,58
DA:1481,58
DA:1482,58
DA:1483,58
DA:1484,58
DA:1485,58
DA:1486,58
DA:1487,58
DA:1488,58
DA:1489,58
DA:1490,1
DA:1493,0
DA:1495,1
DA:1496,1
DA:1497,1
DA:1498,1
DA:1499,1
DA:1500,1
DA:1501,1
DA:1502,1
DA:1503,1
DA:1504,57
DA:1505,57
DA:1508,1
DA:1510,0
DA:1512,1
DA:1513,1
DA:1514,1
DA:1515,1
DA:1516,1
DA:1517,1
DA:1518,1
DA:1519,1
DA:1520,1
DA:1524,56
DA:1525,56
DA:1526,56
DA:1527,56
DA:1528,56
DA:1529,56
DA:1530,56
DA:1531,56
DA:1532,56
DA:1533,56
DA:1534,56
DA:1535,56
DA:1536,56
DA:1537,56
DA:1538,56
DA:1539,56
DA:1540,56
DA:1542,0
DA:1544,56
DA:1545,56
DA:1546,56
DA:1547,56
DA:1548,56
DA:1549,56
DA:1550,56
DA:1551,56
DA:1552,56
DA:1553,56
DA:1554,56
DA:1555,56
DA:1556,56
DA:1557,56
DA:1558,58
DA:1567,13050
DA:1568,13050
DA:1569,13050
DA:1570,13050
DA:1571,13050
DA:1572,13050
DA:1573,13050
DA:1574,0
DA:1575,13050
DA:1578,13050
DA:1579,4
DA:1581,13046
DA:1584,13153
DA:1585,0
DA:1586,13153
DA:1587,13153
DA:1588,0
DA:1589,107
DA:1590,107
DA:1591,107
DA:1592,107
DA:1593,107
DA:1594,13046
DA:1595,0
DA:1596,0
DA:1597,0
DA:1598,0
DA:1599,0
DA:1603,13050
DA:1611,1
DA:1612,1
DA:1613,1
DA:1614,1
DA:1615,1
DA:1616,1
DA:1617,1
DA:1618,1
DA:1619,1
DA:1620,0
DA:1622,1
DA:1623,1
DA:1626,1
DA:1627,0
DA:1629,0
DA:1631,0
DA:1633,1
DA:1636,1
DA:1641,1
DA:1642,1
DA:1643,1
DA:1645,0
DA:1647,1
DA:1648,0
DA:1649,1
DA:1654,0
DA:1655,0
DA:1656,0
DA:1657,0
DA:1658,0
DA:1659,0
DA:1661,0
DA:1662,0
DA:1663,0
DA:1665,0
DA:1666,0
DA:1667,0
DA:1681,1137402
DA:1682,1137402
DA:1683,1137402
DA:1684,1137402
DA:1685,1137402
DA:1686,1137402
DA:1687,1137402
DA:1688,1137402
DA:1689,1137402
DA:1690,1124009
DA:1691,13393
DA:1692,13393
DA:1693,13393
DA:1694,26786
DA:1695,13393
DA:1696,0
DA:1700,13393
DA:1701,399
DA:1702,55
DA:1703,55
DA:1704,55
DA:1705,55
DA:1706,1
DA:1707,1
DA:1708,1
DA:1709,1
DA:1710,1
DA:1711,1
DA:1712,1
DA:1713,1
DA:1714,1
DA:1715,1
DA:1716,1
DA:1717,1
DA:1721,343
DA:1726,0
DA:1727,0
DA:1728,0
DA:1729,0
DA:1730,0
DA:1731,0
DA:1732,0
DA:1733,0
DA:1734,0
DA:1735,0
DA:1736,0
DA:1739,12994
DA:1742,13049
DA:1743,55
DA:1744,55
DA:1745,55
DA:1746,0
DA:1747,0
DA:1748,55
DA:1750,55
DA:1751,55
DA:1752,55
DA:1755,0
DA:1757,0
DA:1758,0
DA:1759,0
DA:1760,0
DA:1761,0
DA:1764,12994
DA:1766,13049
DA:1767,0
DA:1768,13049
DA:1769,13049
DA:1770,13049
DA:1771,13049
DA:1776,13667
DA:1777,4240
DA:1778,618
DA:1779,3567
DA:1782,55
DA:1783,55
DA:1784,54
DA:1785,1
DA:1786,1
DA:1789,55
DA:1790,0
DA:1791,55
DA:1792,55
DA:1795,9427
DA:1796,10045
DA:1797,10045
DA:1798,662
DA:1799,618
DA:1800,618
DA:1803,9383
DA:1804,44
DA:1805,44
DA:1806,44
DA:1808,0
DA:1809,0
DA:1810,0
DA:1811,0
DA:1812,0
DA:1816,0
DA:1820,13049
DA:1821,55
DA:1822,12994
DA:1824,13449
DA:1825,56
DA:1826,56
DA:1827,56
DA:1828,56
DA:1829,56
DA:1830,56
DA:1832,1137402
BRF:0
BRH:0
LF:1017
LH:898
end_of_record
SF:/home/ubuntu/Code/ExpressGateway/crates/lb-quic/src/h3_bridge.rs
FN:993,_RNCNCNCNvNtCskwRMVHy5hME_7lb_quic9h3_bridge18stream_h1_response0s_00B9_
FN:1354,_RNCNCNCNvNtCskwRMVHy5hME_7lb_quic9h3_bridge18stream_h2_response0s2_00B9_
FN:2230,_RNCNCNvMs4_NtCskwRMVHy5hME_7lb_quic9h3_bridgeNtB9_9H3RespOut11on_trailers00Bb_
FN:2242,_RNCNCNvMs4_NtCskwRMVHy5hME_7lb_quic9h3_bridgeNtB9_9H3RespOut11on_trailers0s0_0Bb_
FN:2237,_RNCNCNvMs4_NtCskwRMVHy5hME_7lb_quic9h3_bridgeNtB9_9H3RespOut11on_trailers0s_0Bb_
FN:2252,_RNCNCNvMs4_NtCskwRMVHy5hME_7lb_quic9h3_bridgeNtB9_9H3RespOut6on_end00Bb_
FN:2256,_RNCNCNvMs4_NtCskwRMVHy5hME_7lb_quic9h3_bridgeNtB9_9H3RespOut6on_end0s_0Bb_
FN:2202,_RNCNCNvMs4_NtCskwRMVHy5hME_7lb_quic9h3_bridgeNtB9_9H3RespOut7on_data00Bb_
FN:2212,_RNCNCNvMs4_NtCskwRMVHy5hME_7lb_quic9h3_bridgeNtB9_9H3RespOut7on_data0s_0Bb_
FN:2157,_RNCNCNvMs4_NtCskwRMVHy5hME_7lb_quic9h3_bridgeNtB9_9H3RespOut7on_head00Bb_
FN:2180,_RNCNCNvMs4_NtCskwRMVHy5hME_7lb_quic9h3_bridgeNtB9_9H3RespOut7on_head0s0_0Bb_
FN:2164,_RNCNCNvMs4_NtCskwRMVHy5hME_7lb_quic9h3_bridgeNtB9_9H3RespOut7on_head0s_0Bb_
FN:1462,_RNCNCNvNtCskwRMVHy5hME_7lb_quic9h3_bridge16write_body_chunk00B7_
FN:1464,_RNCNCNvNtCskwRMVHy5hME_7lb_quic9h3_bridge16write_body_chunk0s0_0B7_
FN:1466,_RNCNCNvNtCskwRMVHy5hME_7lb_quic9h3_bridge16write_body_chunk0s1_0B7_
FN:1463,_RNCNCNvNtCskwRMVHy5hME_7lb_quic9h3_bridge16write_body_chunk0s_0B7_
FN:1545,_RNCNCNvNtCskwRMVHy5hME_7lb_quic9h3_bridge16write_h1_request00B7_
FN:978,_RNCNCNvNtCskwRMVHy5hME_7lb_quic9h3_bridge18stream_h1_response00B7_
FN:1059,_RNCNCNvNtCskwRMVHy5hME_7lb_quic9h3_bridge18stream_h1_response0s0_0B7_
FN:1176,_RNCNCNvNtCskwRMVHy5hME_7lb_quic9h3_bridge18stream_h1_response0s1_0B7_
FN:943,_RNCNCNvNtCskwRMVHy5hME_7lb_quic9h3_bridge18stream_h1_response0s2_0B7_
FN:943,_RNCNCNvNtCskwRMVHy5hME_7lb_quic9h3_bridge18stream_h1_response0s3_0B7_
FN:943,_RNCNCNvNtCskwRMVHy5hME_7lb_quic9h3_bridge18stream_h1_response0s4_0B7_
FN:943,_RNCNCNvNtCskwRMVHy5hME_7lb_quic9h3_bridge18stream_h1_response0s5_0B7_
FN:943,_RNCNCNvNtCskwRMVHy5hME_7lb_quic9h3_bridge18stream_h1_response0s6_0B7_
FN:943,_RNCNCNvNtCskwRMVHy5hME_7lb_quic9h3_bridge18stream_h1_response0s7_0B7_
FN:943,_RNCNCNvNtCskwRMVHy5hME_7lb_quic9h3_bridge18stream_h1_response0s8_0B7_
FN:943,_RNCNCNvNtCskwRMVHy5hME_7lb_quic9h3_bridge18stream_h1_response0s9_0B7_
FN:993,_RNCNCNvNtCskwRMVHy5hME_7lb_quic9h3_bridge18stream_h1_response0s_0B7_
FN:943,_RNCNCNvNtCskwRMVHy5hME_7lb_quic9h3_bridge18stream_h1_response0sa_0B7_
FN:1270,_RNCNCNvNtCskwRMVHy5hME_7lb_quic9h3_bridge18stream_h2_response00B7_
FN:1297,_RNCNCNvNtCskwRMVHy5hME_7lb_quic9h3_bridge18stream_h2_response0s0_0B7_
FN:1350,_RNCNCNvNtCskwRMVHy5hME_7lb_quic9h3_bridge18stream_h2_response0s1_0B7_
FN:1351,_RNCNCNvNtCskwRMVHy5hME_7lb_quic9h3_bridge18stream_h2_response0s2_0B7_
FN:1360,_RNCNCNvNtCskwRMVHy5hME_7lb_quic9h3_bridge18stream_h2_response0s3_0B7_
FN:1257,_RNCNCNvNtCskwRMVHy5hME_7lb_quic9h3_bridge18stream_h2_response0s4_0B7_
FN:1257,_RNCNCNvNtCskwRMVHy5hME_7lb_quic9h3_bridge18stream_h2_response0s5_0B7_
FN:1257,_RNCNCNvNtCskwRMVHy5hME_7lb_quic9h3_bridge18stream_h2_response0s6_0B7_
FN:1257,_RNCNCNvNtCskwRMVHy5hME_7lb_quic9h3_bridge18stream_h2_response0s7_0B7_
FN:1271,_RNCNCNvNtCskwRMVHy5hME_7lb_quic9h3_bridge18stream_h2_response0s_0B7_
FN:2488,_RNCNCNvNtCskwRMVHy5hME_7lb_quic9h3_bridge29stream_request_to_h3_upstream00B7_
FN:2527,_RNCNCNvNtCskwRMVHy5hME_7lb_quic9h3_bridge29stream_request_to_h3_upstream0s0_0B7_
FN:2584,_RNCNCNvNtCskwRMVHy5hME_7lb_quic9h3_bridge29stream_request_to_h3_upstream0s1_0B7_
FN:2684,_RNCNCNvNtCskwRMVHy5hME_7lb_quic9h3_bridge29stream_request_to_h3_upstream0s2_0B7_
FN:2709,_RNCNCNvNtCskwRMVHy5hME_7lb_quic9h3_bridge29stream_request_to_h3_upstream0s3_0B7_
FN:2767,_RNCNCNvNtCskwRMVHy5hME_7lb_quic9h3_bridge29stream_request_to_h3_upstream0s4_0B7_
FN:2506,_RNCNCNvNtCskwRMVHy5hME_7lb_quic9h3_bridge29stream_request_to_h3_upstream0s_0B7_
FN:2873,_RNCNCNvNtCskwRMVHy5hME_7lb_quic9h3_bridge29stream_request_to_h3_upstream0si_0B7_
FN:864,_RNCNvMs0_NtCskwRMVHy5hME_7lb_quic9h3_bridgeNtB7_12ChunkDecoder21parse_trailer_section0B9_
FN:879,_RNCNvMs0_NtCskwRMVHy5hME_7lb_quic9h3_bridgeNtB7_12ChunkDecoder21parse_trailer_sections_0B9_
FN:797,_RNCNvMs0_NtCskwRMVHy5hME_7lb_quic9h3_bridgeNtB7_12ChunkDecoder4feed0B9_
FN:813,_RNCNvMs0_NtCskwRMVHy5hME_7lb_quic9h3_bridgeNtB7_12ChunkDecoder4feeds0_0B9_
FN:819,_RNCNvMs0_NtCskwRMVHy5hME_7lb_quic9h3_bridgeNtB7_12ChunkDecoder4feeds1_0B9_
FN:811,_RNCNvMs0_NtCskwRMVHy5hME_7lb_quic9h3_bridgeNtB7_12ChunkDecoder4feeds_0B9_
FN:2223,_RNCNvMs4_NtCskwRMVHy5hME_7lb_quic9h3_bridgeNtB7_9H3RespOut11on_trailers0B9_
FN:2077,_RNCNvMs4_NtCskwRMVHy5hME_7lb_quic9h3_bridgeNtB7_9H3RespOut6inline0B9_
FN:2247,_RNCNvMs4_NtCskwRMVHy5hME_7lb_quic9h3_bridgeNtB7_9H3RespOut6on_end0B9_
FN:2190,_RNCNvMs4_NtCskwRMVHy5hME_7lb_quic9h3_bridgeNtB7_9H3RespOut7on_data0B9_
FN:2125,_RNCNvMs4_NtCskwRMVHy5hME_7lb_quic9h3_bridgeNtB7_9H3RespOut7on_head0B9_
FN:2263,_RNCNvMs4_NtCskwRMVHy5hME_7lb_quic9h3_bridgeNtB7_9H3RespOut8on_reset0B9_
FN:420,_RNCNvMs_NtCskwRMVHy5hME_7lb_quic9h3_bridgeNtB6_9H3Request12from_headers0B8_
FN:421,_RNCNvMs_NtCskwRMVHy5hME_7lb_quic9h3_bridgeNtB6_9H3Request12from_headerss_0B8_
FN:1709,_RNCNvNCNvNtCskwRMVHy5hME_7lb_quic9h3_bridge20h3_to_h1_stream_resp06inline0B9_
FN:1972,_RNCNvNCNvNtCskwRMVHy5hME_7lb_quic9h3_bridge20h3_to_h2_stream_resp06inline0B9_
FN:622,_RNCNvNtCskwRMVHy5hME_7lb_quic9h3_bridge15find_header_sep0B5_
FN:1456,_RNCNvNtCskwRMVHy5hME_7lb_quic9h3_bridge16write_body_chunk0B5_
FN:1531,_RNCNvNtCskwRMVHy5hME_7lb_quic9h3_bridge16write_h1_request0B5_
FN:630,_RNCNvNtCskwRMVHy5hME_7lb_quic9h3_bridge17parse_status_line0B5_
FN:938,_RNCNvNtCskwRMVHy5hME_7lb_quic9h3_bridge18stream_h1_response0B5_
FN:1254,_RNCNvNtCskwRMVHy5hME_7lb_quic9h3_bridge18stream_h2_response0B5_
FN:1703,_RNCNvNtCskwRMVHy5hME_7lb_quic9h3_bridge20h3_to_h1_stream_resp0B5_
FN:1966,_RNCNvNtCskwRMVHy5hME_7lb_quic9h3_bridge20h3_to_h2_stream_resp0B5_
FN:2295,_RNCNvNtCskwRMVHy5hME_7lb_quic9h3_bridge20h3_to_h3_stream_resp0B5_
FN:1936,_RNCNvNtCskwRMVHy5hME_7lb_quic9h3_bridge23h2_request_body_from_rxs_0B5_
FN:2423,_RNCNvNtCskwRMVHy5hME_7lb_quic9h3_bridge29stream_request_to_h3_upstream0B5_
FN:745,_RNvMs0_NtCskwRMVHy5hME_7lb_quic9h3_bridgeNtB5_12ChunkDecoder13take_trailers
FN:855,_RNvMs0_NtCskwRMVHy5hME_7lb_quic9h3_bridgeNtB5_12ChunkDecoder21parse_trailer_section
FN:731,_RNvMs0_NtCskwRMVHy5hME_7lb_quic9h3_bridgeNtB5_12ChunkDecoder3new
FN:753,_RNvMs0_NtCskwRMVHy5hME_7lb_quic9h3_bridgeNtB5_12ChunkDecoder4feed
FN:2223,_RNvMs4_NtCskwRMVHy5hME_7lb_quic9h3_bridgeNtB5_9H3RespOut11on_trailers
FN:2077,_RNvMs4_NtCskwRMVHy5hME_7lb_quic9h3_bridgeNtB5_9H3RespOut6inline
FN:2247,_RNvMs4_NtCskwRMVHy5hME_7lb_quic9h3_bridgeNtB5_9H3RespOut6on_end
FN:2190,_RNvMs4_NtCskwRMVHy5hME_7lb_quic9h3_bridgeNtB5_9H3RespOut7on_data
FN:2125,_RNvMs4_NtCskwRMVHy5hME_7lb_quic9h3_bridgeNtB5_9H3RespOut7on_head
FN:2263,_RNvMs4_NtCskwRMVHy5hME_7lb_quic9h3_bridgeNtB5_9H3RespOut8on_reset
FN:403,_RNvMs_NtCskwRMVHy5hME_7lb_quic9h3_bridgeNtB4_9H3Request12from_headers
FN:1709,_RNvNCNvNtCskwRMVHy5hME_7lb_quic9h3_bridge20h3_to_h1_stream_resp06inline
FN:1972,_RNvNCNvNtCskwRMVHy5hME_7lb_quic9h3_bridge20h3_to_h2_stream_resp06inline
FN:1387,_RNvNtCskwRMVHy5hME_7lb_quic9h3_bridge13build_h1_head
FN:621,_RNvNtCskwRMVHy5hME_7lb_quic9h3_bridge15find_header_sep
FN:1432,_RNvNtCskwRMVHy5hME_7lb_quic9h3_bridge15record_inflight
FN:307,_RNvNtCskwRMVHy5hME_7lb_quic9h3_bridge15record_retained
FN:1456,_RNvNtCskwRMVHy5hME_7lb_quic9h3_bridge16write_body_chunk
FN:1527,_RNvNtCskwRMVHy5hME_7lb_quic9h3_bridge16write_h1_request
FN:625,_RNvNtCskwRMVHy5hME_7lb_quic9h3_bridge17parse_status_line
FN:934,_RNvNtCskwRMVHy5hME_7lb_quic9h3_bridge18stream_h1_response
FN:1250,_RNvNtCskwRMVHy5hME_7lb_quic9h3_bridge18stream_h2_response
FN:2987,_RNvNtCskwRMVHy5hME_7lb_quic9h3_bridge19j2_req_event_action
FN:1696,_RNvNtCskwRMVHy5hME_7lb_quic9h3_bridge20h3_to_h1_stream_resp
FN:1959,_RNvNtCskwRMVHy5hME_7lb_quic9h3_bridge20h3_to_h2_stream_resp
FN:2287,_RNvNtCskwRMVHy5hME_7lb_quic9h3_bridge20h3_to_h3_stream_resp
FN:344,_RNvNtCskwRMVHy5hME_7lb_quic9h3_bridge20record_resp_retained
FN:663,_RNvNtCskwRMVHy5hME_7lb_quic9h3_bridge22is_response_hop_by_hop
FN:1891,_RNvNtCskwRMVHy5hME_7lb_quic9h3_bridge23h2_request_body_from_rx
FN:2415,_RNvNtCskwRMVHy5hME_7lb_quic9h3_bridge29stream_request_to_h3_upstream
FN:489,_RNvNtCskwRMVHy5hME_7lb_quic9h3_bridge31validate_request_pseudo_headers
FN:386,_RNvXNtCskwRMVHy5hME_7lb_quic9h3_bridgeNtB2_9H3RequestNtNtCs2va5m0jqTTM_4core7default7Default7default
FN:1780,_RNvXs1_NtCskwRMVHy5hME_7lb_quic9h3_bridgeNtB5_10H3ReqAbortNtNtCs2va5m0jqTTM_4core3fmt7Display3fmt
FN:1813,_RNvXs3_NtCskwRMVHy5hME_7lb_quic9h3_bridgeNtB5_15H3ReqStreamBodyNtCsl5a7MsEZ2mF_9http_body4Body10poll_frame
FN:386,_RNvXNtCsfUjBKV2B3Gc_7lb_quic9h3_bridgeNtB2_9H3RequestNtNtCs2va5m0jqTTM_4core7default7Default7default
FN:745,_RNvMs0_NtCsfUjBKV2B3Gc_7lb_quic9h3_bridgeNtB5_12ChunkDecoder13take_trailers
FN:855,_RNvMs0_NtCsfUjBKV2B3Gc_7lb_quic9h3_bridgeNtB5_12ChunkDecoder21parse_trailer_section
FN:731,_RNvMs0_NtCsfUjBKV2B3Gc_7lb_quic9h3_bridgeNtB5_12ChunkDecoder3new
FN:753,_RNvMs0_NtCsfUjBKV2B3Gc_7lb_quic9h3_bridgeNtB5_12ChunkDecoder4feed
FN:2223,_RNvMs4_NtCsfUjBKV2B3Gc_7lb_quic9h3_bridgeNtB5_9H3RespOut11on_trailers
FN:2077,_RNvMs4_NtCsfUjBKV2B3Gc_7lb_quic9h3_bridgeNtB5_9H3RespOut6inline
FN:2247,_RNvMs4_NtCsfUjBKV2B3Gc_7lb_quic9h3_bridgeNtB5_9H3RespOut6on_end
FN:2190,_RNvMs4_NtCsfUjBKV2B3Gc_7lb_quic9h3_bridgeNtB5_9H3RespOut7on_data
FN:2125,_RNvMs4_NtCsfUjBKV2B3Gc_7lb_quic9h3_bridgeNtB5_9H3RespOut7on_head
FN:2263,_RNvMs4_NtCsfUjBKV2B3Gc_7lb_quic9h3_bridgeNtB5_9H3RespOut8on_reset
FN:403,_RNvMs_NtCsfUjBKV2B3Gc_7lb_quic9h3_bridgeNtB4_9H3Request12from_headers
FN:1709,_RNvNCNvNtCsfUjBKV2B3Gc_7lb_quic9h3_bridge20h3_to_h1_stream_resp06inline
FN:1972,_RNvNCNvNtCsfUjBKV2B3Gc_7lb_quic9h3_bridge20h3_to_h2_stream_resp06inline
FN:1387,_RNvNtCsfUjBKV2B3Gc_7lb_quic9h3_bridge13build_h1_head
FN:621,_RNvNtCsfUjBKV2B3Gc_7lb_quic9h3_bridge15find_header_sep
FN:1432,_RNvNtCsfUjBKV2B3Gc_7lb_quic9h3_bridge15record_inflight
FN:307,_RNvNtCsfUjBKV2B3Gc_7lb_quic9h3_bridge15record_retained
FN:1456,_RNvNtCsfUjBKV2B3Gc_7lb_quic9h3_bridge16write_body_chunk
FN:1527,_RNvNtCsfUjBKV2B3Gc_7lb_quic9h3_bridge16write_h1_request
FN:625,_RNvNtCsfUjBKV2B3Gc_7lb_quic9h3_bridge17parse_status_line
FN:934,_RNvNtCsfUjBKV2B3Gc_7lb_quic9h3_bridge18stream_h1_response
FN:1250,_RNvNtCsfUjBKV2B3Gc_7lb_quic9h3_bridge18stream_h2_response
FN:2987,_RNvNtCsfUjBKV2B3Gc_7lb_quic9h3_bridge19j2_req_event_action
FN:1696,_RNvNtCsfUjBKV2B3Gc_7lb_quic9h3_bridge20h3_to_h1_stream_resp
FN:1959,_RNvNtCsfUjBKV2B3Gc_7lb_quic9h3_bridge20h3_to_h2_stream_resp
FN:2287,_RNvNtCsfUjBKV2B3Gc_7lb_quic9h3_bridge20h3_to_h3_stream_resp
FN:344,_RNvNtCsfUjBKV2B3Gc_7lb_quic9h3_bridge20record_resp_retained
FN:663,_RNvNtCsfUjBKV2B3Gc_7lb_quic9h3_bridge22is_response_hop_by_hop
FN:1891,_RNvNtCsfUjBKV2B3Gc_7lb_quic9h3_bridge23h2_request_body_from_rx
FN:2415,_RNvNtCsfUjBKV2B3Gc_7lb_quic9h3_bridge29stream_request_to_h3_upstream
FN:489,_RNvNtCsfUjBKV2B3Gc_7lb_quic9h3_bridge31validate_request_pseudo_headers
FN:1780,_RNvXs1_NtCsfUjBKV2B3Gc_7lb_quic9h3_bridgeNtB5_10H3ReqAbortNtNtCs2va5m0jqTTM_4core3fmt7Display3fmt
FN:1813,_RNvXs3_NtCsfUjBKV2B3Gc_7lb_quic9h3_bridgeNtB5_15H3ReqStreamBodyNtCsl5a7MsEZ2mF_9http_body4Body10poll_frame
FN:993,_RNCNCNCNvNtCsfUjBKV2B3Gc_7lb_quic9h3_bridge18stream_h1_response0s_00B9_
FN:1354,_RNCNCNCNvNtCsfUjBKV2B3Gc_7lb_quic9h3_bridge18stream_h2_response0s2_00B9_
FN:2230,_RNCNCNvMs4_NtCsfUjBKV2B3Gc_7lb_quic9h3_bridgeNtB9_9H3RespOut11on_trailers00Bb_
FN:2242,_RNCNCNvMs4_NtCsfUjBKV2B3Gc_7lb_quic9h3_bridgeNtB9_9H3RespOut11on_trailers0s0_0Bb_
FN:2237,_RNCNCNvMs4_NtCsfUjBKV2B3Gc_7lb_quic9h3_bridgeNtB9_9H3RespOut11on_trailers0s_0Bb_
FN:2252,_RNCNCNvMs4_NtCsfUjBKV2B3Gc_7lb_quic9h3_bridgeNtB9_9H3RespOut6on_end00Bb_
FN:2256,_RNCNCNvMs4_NtCsfUjBKV2B3Gc_7lb_quic9h3_bridgeNtB9_9H3RespOut6on_end0s_0Bb_
FN:2202,_RNCNCNvMs4_NtCsfUjBKV2B3Gc_7lb_quic9h3_bridgeNtB9_9H3RespOut7on_data00Bb_
FN:2212,_RNCNCNvMs4_NtCsfUjBKV2B3Gc_7lb_quic9h3_bridgeNtB9_9H3RespOut7on_data0s_0Bb_
FN:2157,_RNCNCNvMs4_NtCsfUjBKV2B3Gc_7lb_quic9h3_bridgeNtB9_9H3RespOut7on_head00Bb_
FN:2180,_RNCNCNvMs4_NtCsfUjBKV2B3Gc_7lb_quic9h3_bridgeNtB9_9H3RespOut7on_head0s0_0Bb_
FN:2164,_RNCNCNvMs4_NtCsfUjBKV2B3Gc_7lb_quic9h3_bridgeNtB9_9H3RespOut7on_head0s_0Bb_
FN:1462,_RNCNCNvNtCsfUjBKV2B3Gc_7lb_quic9h3_bridge16write_body_chunk00B7_
FN:1464,_RNCNCNvNtCsfUjBKV2B3Gc_7lb_quic9h3_bridge16write_body_chunk0s0_0B7_
FN:1466,_RNCNCNvNtCsfUjBKV2B3Gc_7lb_quic9h3_bridge16write_body_chunk0s1_0B7_
FN:1463,_RNCNCNvNtCsfUjBKV2B3Gc_7lb_quic9h3_bridge16write_body_chunk0s_0B7_
FN:1545,_RNCNCNvNtCsfUjBKV2B3Gc_7lb_quic9h3_bridge16write_h1_request00B7_
FN:978,_RNCNCNvNtCsfUjBKV2B3Gc_7lb_quic9h3_bridge18stream_h1_response00B7_
FN:1059,_RNCNCNvNtCsfUjBKV2B3Gc_7lb_quic9h3_bridge18stream_h1_response0s0_0B7_
FN:1176,_RNCNCNvNtCsfUjBKV2B3Gc_7lb_quic9h3_bridge18stream_h1_response0s1_0B7_
FN:943,_RNCNCNvNtCsfUjBKV2B3Gc_7lb_quic9h3_bridge18stream_h1_response0s2_0B7_
FN:943,_RNCNCNvNtCsfUjBKV2B3Gc_7lb_quic9h3_bridge18stream_h1_response0s3_0B7_
FN:943,_RNCNCNvNtCsfUjBKV2B3Gc_7lb_quic9h3_bridge18stream_h1_response0s4_0B7_
FN:943,_RNCNCNvNtCsfUjBKV2B3Gc_7lb_quic9h3_bridge18stream_h1_response0s5_0B7_
FN:943,_RNCNCNvNtCsfUjBKV2B3Gc_7lb_quic9h3_bridge18stream_h1_response0s6_0B7_
FN:943,_RNCNCNvNtCsfUjBKV2B3Gc_7lb_quic9h3_bridge18stream_h1_response0s7_0B7_
FN:943,_RNCNCNvNtCsfUjBKV2B3Gc_7lb_quic9h3_bridge18stream_h1_response0s8_0B7_
FN:943,_RNCNCNvNtCsfUjBKV2B3Gc_7lb_quic9h3_bridge18stream_h1_response0s9_0B7_
FN:993,_RNCNCNvNtCsfUjBKV2B3Gc_7lb_quic9h3_bridge18stream_h1_response0s_0B7_
FN:943,_RNCNCNvNtCsfUjBKV2B3Gc_7lb_quic9h3_bridge18stream_h1_response0sa_0B7_
FN:1270,_RNCNCNvNtCsfUjBKV2B3Gc_7lb_quic9h3_bridge18stream_h2_response00B7_
FN:1297,_RNCNCNvNtCsfUjBKV2B3Gc_7lb_quic9h3_bridge18stream_h2_response0s0_0B7_
FN:1350,_RNCNCNvNtCsfUjBKV2B3Gc_7lb_quic9h3_bridge18stream_h2_response0s1_0B7_
FN:1351,_RNCNCNvNtCsfUjBKV2B3Gc_7lb_quic9h3_bridge18stream_h2_response0s2_0B7_
FN:1360,_RNCNCNvNtCsfUjBKV2B3Gc_7lb_quic9h3_bridge18stream_h2_response0s3_0B7_
FN:1257,_RNCNCNvNtCsfUjBKV2B3Gc_7lb_quic9h3_bridge18stream_h2_response0s4_0B7_
FN:1257,_RNCNCNvNtCsfUjBKV2B3Gc_7lb_quic9h3_bridge18stream_h2_response0s5_0B7_
FN:1257,_RNCNCNvNtCsfUjBKV2B3Gc_7lb_quic9h3_bridge18stream_h2_response0s6_0B7_
FN:1257,_RNCNCNvNtCsfUjBKV2B3Gc_7lb_quic9h3_bridge18stream_h2_response0s7_0B7_
FN:1271,_RNCNCNvNtCsfUjBKV2B3Gc_7lb_quic9h3_bridge18stream_h2_response0s_0B7_
FN:2488,_RNCNCNvNtCsfUjBKV2B3Gc_7lb_quic9h3_bridge29stream_request_to_h3_upstream00B7_
FN:2527,_RNCNCNvNtCsfUjBKV2B3Gc_7lb_quic9h3_bridge29stream_request_to_h3_upstream0s0_0B7_
FN:2584,_RNCNCNvNtCsfUjBKV2B3Gc_7lb_quic9h3_bridge29stream_request_to_h3_upstream0s1_0B7_
FN:2684,_RNCNCNvNtCsfUjBKV2B3Gc_7lb_quic9h3_bridge29stream_request_to_h3_upstream0s2_0B7_
FN:2709,_RNCNCNvNtCsfUjBKV2B3Gc_7lb_quic9h3_bridge29stream_request_to_h3_upstream0s3_0B7_
FN:2767,_RNCNCNvNtCsfUjBKV2B3Gc_7lb_quic9h3_bridge29stream_request_to_h3_upstream0s4_0B7_
FN:2506,_RNCNCNvNtCsfUjBKV2B3Gc_7lb_quic9h3_bridge29stream_request_to_h3_upstream0s_0B7_
FN:2873,_RNCNCNvNtCsfUjBKV2B3Gc_7lb_quic9h3_bridge29stream_request_to_h3_upstream0si_0B7_
FN:864,_RNCNvMs0_NtCsfUjBKV2B3Gc_7lb_quic9h3_bridgeNtB7_12ChunkDecoder21parse_trailer_section0B9_
FN:879,_RNCNvMs0_NtCsfUjBKV2B3Gc_7lb_quic9h3_bridgeNtB7_12ChunkDecoder21parse_trailer_sections_0B9_
FN:797,_RNCNvMs0_NtCsfUjBKV2B3Gc_7lb_quic9h3_bridgeNtB7_12ChunkDecoder4feed0B9_
FN:813,_RNCNvMs0_NtCsfUjBKV2B3Gc_7lb_quic9h3_bridgeNtB7_12ChunkDecoder4feeds0_0B9_
FN:819,_RNCNvMs0_NtCsfUjBKV2B3Gc_7lb_quic9h3_bridgeNtB7_12ChunkDecoder4feeds1_0B9_
FN:811,_RNCNvMs0_NtCsfUjBKV2B3Gc_7lb_quic9h3_bridgeNtB7_12ChunkDecoder4feeds_0B9_
FN:2223,_RNCNvMs4_NtCsfUjBKV2B3Gc_7lb_quic9h3_bridgeNtB7_9H3RespOut11on_trailers0B9_
FN:2077,_RNCNvMs4_NtCsfUjBKV2B3Gc_7lb_quic9h3_bridgeNtB7_9H3RespOut6inline0B9_
FN:2247,_RNCNvMs4_NtCsfUjBKV2B3Gc_7lb_quic9h3_bridgeNtB7_9H3RespOut6on_end0B9_
FN:2190,_RNCNvMs4_NtCsfUjBKV2B3Gc_7lb_quic9h3_bridgeNtB7_9H3RespOut7on_data0B9_
FN:2125,_RNCNvMs4_NtCsfUjBKV2B3Gc_7lb_quic9h3_bridgeNtB7_9H3RespOut7on_head0B9_
FN:2263,_RNCNvMs4_NtCsfUjBKV2B3Gc_7lb_quic9h3_bridgeNtB7_9H3RespOut8on_reset0B9_
FN:420,_RNCNvMs_NtCsfUjBKV2B3Gc_7lb_quic9h3_bridgeNtB6_9H3Request12from_headers0B8_
FN:421,_RNCNvMs_NtCsfUjBKV2B3Gc_7lb_quic9h3_bridgeNtB6_9H3Request12from_headerss_0B8_
FN:1709,_RNCNvNCNvNtCsfUjBKV2B3Gc_7lb_quic9h3_bridge20h3_to_h1_stream_resp06inline0B9_
FN:1972,_RNCNvNCNvNtCsfUjBKV2B3Gc_7lb_quic9h3_bridge20h3_to_h2_stream_resp06inline0B9_
FN:622,_RNCNvNtCsfUjBKV2B3Gc_7lb_quic9h3_bridge15find_header_sep0B5_
FN:1456,_RNCNvNtCsfUjBKV2B3Gc_7lb_quic9h3_bridge16write_body_chunk0B5_
FN:1531,_RNCNvNtCsfUjBKV2B3Gc_7lb_quic9h3_bridge16write_h1_request0B5_
FN:630,_RNCNvNtCsfUjBKV2B3Gc_7lb_quic9h3_bridge17parse_status_line0B5_
FN:938,_RNCNvNtCsfUjBKV2B3Gc_7lb_quic9h3_bridge18stream_h1_response0B5_
FN:1254,_RNCNvNtCsfUjBKV2B3Gc_7lb_quic9h3_bridge18stream_h2_response0B5_
FN:1703,_RNCNvNtCsfUjBKV2B3Gc_7lb_quic9h3_bridge20h3_to_h1_stream_resp0B5_
FN:1966,_RNCNvNtCsfUjBKV2B3Gc_7lb_quic9h3_bridge20h3_to_h2_stream_resp0B5_
FN:2295,_RNCNvNtCsfUjBKV2B3Gc_7lb_quic9h3_bridge20h3_to_h3_stream_resp0B5_
FN:1936,_RNCNvNtCsfUjBKV2B3Gc_7lb_quic9h3_bridge23h2_request_body_from_rxs_0B5_
FN:2423,_RNCNvNtCsfUjBKV2B3Gc_7lb_quic9h3_bridge29stream_request_to_h3_upstream0B5_
FN:3438,_RNCNCNvNtNtCsfUjBKV2B3Gc_7lb_quic9h3_bridge5testss_49g5_h2_request_body_from_rx_head_construction_arms00B9_
FN:3010,_RNCNvNtNtCsfUjBKV2B3Gc_7lb_quic9h3_bridge5tests1h0B7_
FN:3269,_RNCNvNtNtCsfUjBKV2B3Gc_7lb_quic9h3_bridge5testss_37pseudo_ws_duplicate_protocol_rejected0B7_
FN:3232,_RNCNvNtNtCsfUjBKV2B3Gc_7lb_quic9h3_bridge5testss_42pseudo_ws_protocol_requires_connect_method0B7_
FN:3406,_RNCNvNtNtCsfUjBKV2B3Gc_7lb_quic9h3_bridge5testss_49g5_h2_request_body_from_rx_head_construction_arms0B7_
FN:3251,_RNCNvNtNtCsfUjBKV2B3Gc_7lb_quic9h3_bridge5testss_49pseudo_classic_connect_unchanged_under_ws_enabled0B7_
FN:3296,_RNCNvNtNtCsfUjBKV2B3Gc_7lb_quic9h3_bridge5testss_49s6_i2_h3_req_stream_body_frame_and_abort_contract0B7_
FN:3471,_RNCNvNtNtCsfUjBKV2B3Gc_7lb_quic9h3_bridge5testss_50g5_h3_to_h2_stream_resp_inline_413_and_502_no_dial0B7_
FN:3192,_RNCNvNtNtCsfUjBKV2B3Gc_7lb_quic9h3_bridge5testss_51pseudo_ws_extended_connect_requires_scheme_and_path0B7_
FN:3214,_RNCNvNtNtCsfUjBKV2B3Gc_7lb_quic9h3_bridge5testss_51pseudo_ws_extended_connect_requires_scheme_and_paths0_0B7_
FN:3203,_RNCNvNtNtCsfUjBKV2B3Gc_7lb_quic9h3_bridge5testss_51pseudo_ws_extended_connect_requires_scheme_and_paths_0B7_
FN:3831,_RNCNvNtNtCsfUjBKV2B3Gc_7lb_quic9h3_bridge5testss_52s12_decoded_sink_on_head_forwards_full_nonpseudo_set0B7_
FN:3801,_RNCNvNtNtCsfUjBKV2B3Gc_7lb_quic9h3_bridge5testss_55s12_decoded_sink_on_trailers_emits_h3respevent_trailers0B7_
FN:3007,_RNvNtNtCsfUjBKV2B3Gc_7lb_quic9h3_bridge5tests1h
FN:3694,_RNvNtNtCsfUjBKV2B3Gc_7lb_quic9h3_bridge5testss_27s7_j2_request_send_decision
FN:3061,_RNvNtNtCsfUjBKV2B3Gc_7lb_quic9h3_bridge5testss_28pseudo_12_duplicate_rejected
FN:3125,_RNvNtNtCsfUjBKV2B3Gc_7lb_quic9h3_bridge5testss_28pseudo_connect_request_rules
FN:3553,_RNvNtNtCsfUjBKV2B3Gc_7lb_quic9h3_bridge5testss_34chunk_decoder_decodes_split_chunks
FN:3386,_RNvNtNtCsfUjBKV2B3Gc_7lb_quic9h3_bridge5testss_36g5_h3reqabort_display_and_error_impl
FN:3080,_RNvNtNtCsfUjBKV2B3Gc_7lb_quic9h3_bridge5testss_36pseudo_13_missing_mandatory_rejected
FN:3258,_RNvNtNtCsfUjBKV2B3Gc_7lb_quic9h3_bridge5testss_37pseudo_ws_duplicate_protocol_rejected
FN:3111,_RNvNtNtCsfUjBKV2B3Gc_7lb_quic9h3_bridge5testss_38pseudo_15_after_regular_field_rejected
FN:3615,_RNvNtNtCsfUjBKV2B3Gc_7lb_quic9h3_bridge5testss_39chunk_decoder_parses_trailer_section_c4
FN:3599,_RNvNtNtCsfUjBKV2B3Gc_7lb_quic9h3_bridge5testss_39chunk_decoder_tolerates_chunk_extension
FN:3091,_RNvNtNtCsfUjBKV2B3Gc_7lb_quic9h3_bridge5testss_40pseudo_14_prohibited_or_unknown_rejected
FN:3569,_RNvNtNtCsfUjBKV2B3Gc_7lb_quic9h3_bridge5testss_42chunk_decoder_rejects_malformed_framing_c3
FN:3222,_RNvNtNtCsfUjBKV2B3Gc_7lb_quic9h3_bridge5testss_42pseudo_ws_protocol_requires_connect_method
FN:3015,_RNvNtNtCsfUjBKV2B3Gc_7lb_quic9h3_bridge5testss_46pseudo_valid_request_accepted_negative_control
FN:3278,_RNvNtNtCsfUjBKV2B3Gc_7lb_quic9h3_bridge5testss_48pseudo_normal_request_unchanged_under_ws_enabled
FN:3145,_RNvNtNtCsfUjBKV2B3Gc_7lb_quic9h3_bridge5testss_48pseudo_ws_extended_connect_accepted_when_enabled
FN:3406,_RNvNtNtCsfUjBKV2B3Gc_7lb_quic9h3_bridge5testss_49g5_h2_request_body_from_rx_head_construction_arms
FN:3241,_RNvNtNtCsfUjBKV2B3Gc_7lb_quic9h3_bridge5testss_49pseudo_classic_connect_unchanged_under_ws_enabled
FN:3164,_RNvNtNtCsfUjBKV2B3Gc_7lb_quic9h3_bridge5testss_49pseudo_ws_extended_connect_rejected_when_disabled
FN:3296,_RNvNtNtCsfUjBKV2B3Gc_7lb_quic9h3_bridge5testss_49s6_i2_h3_req_stream_body_frame_and_abort_contract
FN:3471,_RNvNtNtCsfUjBKV2B3Gc_7lb_quic9h3_bridge5testss_50g5_h3_to_h2_stream_resp_inline_413_and_502_no_dial
FN:3039,_RNvNtNtCsfUjBKV2B3Gc_7lb_quic9h3_bridge5testss_51pseudo_13_absent_authority_rejected_for_http_scheme
FN:3183,_RNvNtNtCsfUjBKV2B3Gc_7lb_quic9h3_bridge5testss_51pseudo_ws_extended_connect_requires_scheme_and_path
FN:3831,_RNvNtNtCsfUjBKV2B3Gc_7lb_quic9h3_bridge5testss_52s12_decoded_sink_on_head_forwards_full_nonpseudo_set
FN:3801,_RNvNtNtCsfUjBKV2B3Gc_7lb_quic9h3_bridge5testss_55s12_decoded_sink_on_trailers_emits_h3respevent_trailers
FNDA:0,_RNCNCNCNvNtCskwRMVHy5hME_7lb_quic9h3_bridge18stream_h1_response0s_00B9_
FNDA:2,_RNCNCNCNvNtCskwRMVHy5hME_7lb_quic9h3_bridge18stream_h2_response0s2_00B9_
FNDA:1,_RNCNCNvMs4_NtCskwRMVHy5hME_7lb_quic9h3_bridgeNtB9_9H3RespOut11on_trailers00Bb_
FNDA:0,_RNCNCNvMs4_NtCskwRMVHy5hME_7lb_quic9h3_bridgeNtB9_9H3RespOut11on_trailers0s0_0Bb_
FNDA:0,_RNCNCNvMs4_NtCskwRMVHy5hME_7lb_quic9h3_bridgeNtB9_9H3RespOut11on_trailers0s_0Bb_
FNDA:0,_RNCNCNvMs4_NtCskwRMVHy5hME_7lb_quic9h3_bridgeNtB9_9H3RespOut6on_end00Bb_
FNDA:0,_RNCNCNvMs4_NtCskwRMVHy5hME_7lb_quic9h3_bridgeNtB9_9H3RespOut6on_end0s_0Bb_
FNDA:1,_RNCNCNvMs4_NtCskwRMVHy5hME_7lb_quic9h3_bridgeNtB9_9H3RespOut7on_data00Bb_
FNDA:0,_RNCNCNvMs4_NtCskwRMVHy5hME_7lb_quic9h3_bridgeNtB9_9H3RespOut7on_data0s_0Bb_
FNDA:10,_RNCNCNvMs4_NtCskwRMVHy5hME_7lb_quic9h3_bridgeNtB9_9H3RespOut7on_head00Bb_
FNDA:0,_RNCNCNvMs4_NtCskwRMVHy5hME_7lb_quic9h3_bridgeNtB9_9H3RespOut7on_head0s0_0Bb_
FNDA:0,_RNCNCNvMs4_NtCskwRMVHy5hME_7lb_quic9h3_bridgeNtB9_9H3RespOut7on_head0s_0Bb_
FNDA:1,_RNCNCNvNtCskwRMVHy5hME_7lb_quic9h3_bridge16write_body_chunk00B7_
FNDA:0,_RNCNCNvNtCskwRMVHy5hME_7lb_quic9h3_bridge16write_body_chunk0s0_0B7_
FNDA:0,_RNCNCNvNtCskwRMVHy5hME_7lb_quic9h3_bridge16write_body_chunk0s1_0B7_
FNDA:0,_RNCNCNvNtCskwRMVHy5hME_7lb_quic9h3_bridge16write_body_chunk0s_0B7_
FNDA:0,_RNCNCNvNtCskwRMVHy5hME_7lb_quic9h3_bridge16write_h1_request00B7_
FNDA:0,_RNCNCNvNtCskwRMVHy5hME_7lb_quic9h3_bridge18stream_h1_response00B7_
FNDA:28,_RNCNCNvNtCskwRMVHy5hME_7lb_quic9h3_bridge18stream_h1_response0s0_0B7_
FNDA:4,_RNCNCNvNtCskwRMVHy5hME_7lb_quic9h3_bridge18stream_h1_response0s1_0B7_
FNDA:0,_RNCNCNvNtCskwRMVHy5hME_7lb_quic9h3_bridge18stream_h1_response0s2_0B7_
FNDA:0,_RNCNCNvNtCskwRMVHy5hME_7lb_quic9h3_bridge18stream_h1_response0s3_0B7_
FNDA:2,_RNCNCNvNtCskwRMVHy5hME_7lb_quic9h3_bridge18stream_h1_response0s4_0B7_
FNDA:0,_RNCNCNvNtCskwRMVHy5hME_7lb_quic9h3_bridge18stream_h1_response0s5_0B7_
FNDA:0,_RNCNCNvNtCskwRMVHy5hME_7lb_quic9h3_bridge18stream_h1_response0s6_0B7_
FNDA:0,_RNCNCNvNtCskwRMVHy5hME_7lb_quic9h3_bridge18stream_h1_response0s7_0B7_
FNDA:0,_RNCNCNvNtCskwRMVHy5hME_7lb_quic9h3_bridge18stream_h1_response0s8_0B7_
FNDA:0,_RNCNCNvNtCskwRMVHy5hME_7lb_quic9h3_bridge18stream_h1_response0s9_0B7_
FNDA:34,_RNCNCNvNtCskwRMVHy5hME_7lb_quic9h3_bridge18stream_h1_response0s_0B7_
FNDA:0,_RNCNCNvNtCskwRMVHy5hME_7lb_quic9h3_bridge18stream_h1_response0sa_0B7_
FNDA:7,_RNCNCNvNtCskwRMVHy5hME_7lb_quic9h3_bridge18stream_h2_response00B7_
FNDA:39,_RNCNCNvNtCskwRMVHy5hME_7lb_quic9h3_bridge18stream_h2_response0s0_0B7_
FNDA:2,_RNCNCNvNtCskwRMVHy5hME_7lb_quic9h3_bridge18stream_h2_response0s1_0B7_
FNDA:2,_RNCNCNvNtCskwRMVHy5hME_7lb_quic9h3_bridge18stream_h2_response0s2_0B7_
FNDA:2,_RNCNCNvNtCskwRMVHy5hME_7lb_quic9h3_bridge18stream_h2_response0s3_0B7_
FNDA:1,_RNCNCNvNtCskwRMVHy5hME_7lb_quic9h3_bridge18stream_h2_response0s4_0B7_
FNDA:0,_RNCNCNvNtCskwRMVHy5hME_7lb_quic9h3_bridge18stream_h2_response0s5_0B7_
FNDA:0,_RNCNCNvNtCskwRMVHy5hME_7lb_quic9h3_bridge18stream_h2_response0s6_0B7_
FNDA:0,_RNCNCNvNtCskwRMVHy5hME_7lb_quic9h3_bridge18stream_h2_response0s7_0B7_
FNDA:7,_RNCNCNvNtCskwRMVHy5hME_7lb_quic9h3_bridge18stream_h2_response0s_0B7_
FNDA:26,_RNCNCNvNtCskwRMVHy5hME_7lb_quic9h3_bridge29stream_request_to_h3_upstream00B7_
FNDA:0,_RNCNCNvNtCskwRMVHy5hME_7lb_quic9h3_bridge29stream_request_to_h3_upstream0s0_0B7_
FNDA:104,_RNCNCNvNtCskwRMVHy5hME_7lb_quic9h3_bridge29stream_request_to_h3_upstream0s1_0B7_
FNDA:32,_RNCNCNvNtCskwRMVHy5hME_7lb_quic9h3_bridge29stream_request_to_h3_upstream0s2_0B7_
FNDA:2,_RNCNCNvNtCskwRMVHy5hME_7lb_quic9h3_bridge29stream_request_to_h3_upstream0s3_0B7_
FNDA:7,_RNCNCNvNtCskwRMVHy5hME_7lb_quic9h3_bridge29stream_request_to_h3_upstream0s4_0B7_
FNDA:104,_RNCNCNvNtCskwRMVHy5hME_7lb_quic9h3_bridge29stream_request_to_h3_upstream0s_0B7_
FNDA:0,_RNCNCNvNtCskwRMVHy5hME_7lb_quic9h3_bridge29stream_request_to_h3_upstream0si_0B7_
FNDA:876,_RNCNvMs0_NtCskwRMVHy5hME_7lb_quic9h3_bridgeNtB7_12ChunkDecoder21parse_trailer_section0B9_
FNDA:0,_RNCNvMs0_NtCskwRMVHy5hME_7lb_quic9h3_bridgeNtB7_12ChunkDecoder21parse_trailer_sections_0B9_
FNDA:101,_RNCNvMs0_NtCskwRMVHy5hME_7lb_quic9h3_bridgeNtB7_12ChunkDecoder4feed0B9_
FNDA:0,_RNCNvMs0_NtCskwRMVHy5hME_7lb_quic9h3_bridgeNtB7_12ChunkDecoder4feeds0_0B9_
FNDA:2,_RNCNvMs0_NtCskwRMVHy5hME_7lb_quic9h3_bridgeNtB7_12ChunkDecoder4feeds1_0B9_
FNDA:70,_RNCNvMs0_NtCskwRMVHy5hME_7lb_quic9h3_bridgeNtB7_12ChunkDecoder4feeds_0B9_
FNDA:1,_RNCNvMs4_NtCskwRMVHy5hME_7lb_quic9h3_bridgeNtB7_9H3RespOut11on_trailers0B9_
FNDA:117,_RNCNvMs4_NtCskwRMVHy5hME_7lb_quic9h3_bridgeNtB7_9H3RespOut6inline0B9_
FNDA:12,_RNCNvMs4_NtCskwRMVHy5hME_7lb_quic9h3_bridgeNtB7_9H3RespOut6on_end0B9_
FNDA:38497,_RNCNvMs4_NtCskwRMVHy5hME_7lb_quic9h3_bridgeNtB7_9H3RespOut7on_data0B9_
FNDA:20,_RNCNvMs4_NtCskwRMVHy5hME_7lb_quic9h3_bridgeNtB7_9H3RespOut7on_head0B9_
FNDA:15,_RNCNvMs4_NtCskwRMVHy5hME_7lb_quic9h3_bridgeNtB7_9H3RespOut8on_reset0B9_
FNDA:0,_RNCNvMs_NtCskwRMVHy5hME_7lb_quic9h3_bridgeNtB6_9H3Request12from_headers0B8_
FNDA:0,_RNCNvMs_NtCskwRMVHy5hME_7lb_quic9h3_bridgeNtB6_9H3Request12from_headerss_0B8_
FNDA:2,_RNCNvNCNvNtCskwRMVHy5hME_7lb_quic9h3_bridge20h3_to_h1_stream_resp06inline0B9_
FNDA:1,_RNCNvNCNvNtCskwRMVHy5hME_7lb_quic9h3_bridge20h3_to_h2_stream_resp06inline0B9_
FNDA:1979,_RNCNvNtCskwRMVHy5hME_7lb_quic9h3_bridge15find_header_sep0B5_
FNDA:654,_RNCNvNtCskwRMVHy5hME_7lb_quic9h3_bridge16write_body_chunk0B5_
FNDA:37,_RNCNvNtCskwRMVHy5hME_7lb_quic9h3_bridge16write_h1_request0B5_
FNDA:0,_RNCNvNtCskwRMVHy5hME_7lb_quic9h3_bridge17parse_status_line0B5_
FNDA:35,_RNCNvNtCskwRMVHy5hME_7lb_quic9h3_bridge18stream_h1_response0B5_
FNDA:29,_RNCNvNtCskwRMVHy5hME_7lb_quic9h3_bridge18stream_h2_response0B5_
FNDA:37,_RNCNvNtCskwRMVHy5hME_7lb_quic9h3_bridge20h3_to_h1_stream_resp0B5_
FNDA:8,_RNCNvNtCskwRMVHy5hME_7lb_quic9h3_bridge20h3_to_h2_stream_resp0B5_
FNDA:143,_RNCNvNtCskwRMVHy5hME_7lb_quic9h3_bridge20h3_to_h3_stream_resp0B5_
FNDA:0,_RNCNvNtCskwRMVHy5hME_7lb_quic9h3_bridge23h2_request_body_from_rxs_0B5_
FNDA:143,_RNCNvNtCskwRMVHy5hME_7lb_quic9h3_bridge29stream_request_to_h3_upstream0B5_
FNDA:4,_RNvMs0_NtCskwRMVHy5hME_7lb_quic9h3_bridgeNtB5_12ChunkDecoder13take_trailers
FNDA:65,_RNvMs0_NtCskwRMVHy5hME_7lb_quic9h3_bridgeNtB5_12ChunkDecoder21parse_trailer_section
FNDA:9,_RNvMs0_NtCskwRMVHy5hME_7lb_quic9h3_bridgeNtB5_12ChunkDecoder3new
FNDA:98,_RNvMs0_NtCskwRMVHy5hME_7lb_quic9h3_bridgeNtB5_12ChunkDecoder4feed
FNDA:1,_RNvMs4_NtCskwRMVHy5hME_7lb_quic9h3_bridgeNtB5_9H3RespOut11on_trailers
FNDA:117,_RNvMs4_NtCskwRMVHy5hME_7lb_quic9h3_bridgeNtB5_9H3RespOut6inline
FNDA:12,_RNvMs4_NtCskwRMVHy5hME_7lb_quic9h3_bridgeNtB5_9H3RespOut6on_end
FNDA:38497,_RNvMs4_NtCskwRMVHy5hME_7lb_quic9h3_bridgeNtB5_9H3RespOut7on_data
FNDA:20,_RNvMs4_NtCskwRMVHy5hME_7lb_quic9h3_bridgeNtB5_9H3RespOut7on_head
FNDA:15,_RNvMs4_NtCskwRMVHy5hME_7lb_quic9h3_bridgeNtB5_9H3RespOut8on_reset
FNDA:248,_RNvMs_NtCskwRMVHy5hME_7lb_quic9h3_bridgeNtB4_9H3Request12from_headers
FNDA:2,_RNvNCNvNtCskwRMVHy5hME_7lb_quic9h3_bridge20h3_to_h1_stream_resp06inline
FNDA:1,_RNvNCNvNtCskwRMVHy5hME_7lb_quic9h3_bridge20h3_to_h2_stream_resp06inline
FNDA:37,_RNvNtCskwRMVHy5hME_7lb_quic9h3_bridge13build_h1_head
FNDA:70,_RNvNtCskwRMVHy5hME_7lb_quic9h3_bridge15find_header_sep
FNDA:684,_RNvNtCskwRMVHy5hME_7lb_quic9h3_bridge15record_inflight
FNDA:5079,_RNvNtCskwRMVHy5hME_7lb_quic9h3_bridge15record_retained
FNDA:654,_RNvNtCskwRMVHy5hME_7lb_quic9h3_bridge16write_body_chunk
FNDA:37,_RNvNtCskwRMVHy5hME_7lb_quic9h3_bridge16write_h1_request
FNDA:34,_RNvNtCskwRMVHy5hME_7lb_quic9h3_bridge17parse_status_line
FNDA:35,_RNvNtCskwRMVHy5hME_7lb_quic9h3_bridge18stream_h1_response
FNDA:29,_RNvNtCskwRMVHy5hME_7lb_quic9h3_bridge18stream_h2_response
FNDA:2263,_RNvNtCskwRMVHy5hME_7lb_quic9h3_bridge19j2_req_event_action
FNDA:37,_RNvNtCskwRMVHy5hME_7lb_quic9h3_bridge20h3_to_h1_stream_resp
FNDA:8,_RNvNtCskwRMVHy5hME_7lb_quic9h3_bridge20h3_to_h2_stream_resp
FNDA:143,_RNvNtCskwRMVHy5hME_7lb_quic9h3_bridge20h3_to_h3_stream_resp
FNDA:1137656,_RNvNtCskwRMVHy5hME_7lb_quic9h3_bridge20record_resp_retained
FNDA:70,_RNvNtCskwRMVHy5hME_7lb_quic9h3_bridge22is_response_hop_by_hop
FNDA:8,_RNvNtCskwRMVHy5hME_7lb_quic9h3_bridge23h2_request_body_from_rx
FNDA:143,_RNvNtCskwRMVHy5hME_7lb_quic9h3_bridge29stream_request_to_h3_upstream
FNDA:249,_RNvNtCskwRMVHy5hME_7lb_quic9h3_bridge31validate_request_pseudo_headers
FNDA:1,_RNvXNtCskwRMVHy5hME_7lb_quic9h3_bridgeNtB2_9H3RequestNtNtCs2va5m0jqTTM_4core7default7Default7default
FNDA:0,_RNvXs1_NtCskwRMVHy5hME_7lb_quic9h3_bridgeNtB5_10H3ReqAbortNtNtCs2va5m0jqTTM_4core3fmt7Display3fmt
FNDA:2081,_RNvXs3_NtCskwRMVHy5hME_7lb_quic9h3_bridgeNtB5_15H3ReqStreamBodyNtCsl5a7MsEZ2mF_9http_body4Body10poll_frame
FNDA:0,_RNvXNtCsfUjBKV2B3Gc_7lb_quic9h3_bridgeNtB2_9H3RequestNtNtCs2va5m0jqTTM_4core7default7Default7default
FNDA:3,_RNvMs0_NtCsfUjBKV2B3Gc_7lb_quic9h3_bridgeNtB5_12ChunkDecoder13take_trailers
FNDA:11,_RNvMs0_NtCsfUjBKV2B3Gc_7lb_quic9h3_bridgeNtB5_12ChunkDecoder21parse_trailer_section
FNDA:12,_RNvMs0_NtCsfUjBKV2B3Gc_7lb_quic9h3_bridgeNtB5_12ChunkDecoder3new
FNDA:17,_RNvMs0_NtCsfUjBKV2B3Gc_7lb_quic9h3_bridgeNtB5_12ChunkDecoder4feed
FNDA:1,_RNvMs4_NtCsfUjBKV2B3Gc_7lb_quic9h3_bridgeNtB5_9H3RespOut11on_trailers
FNDA:0,_RNvMs4_NtCsfUjBKV2B3Gc_7lb_quic9h3_bridgeNtB5_9H3RespOut6inline
FNDA:0,_RNvMs4_NtCsfUjBKV2B3Gc_7lb_quic9h3_bridgeNtB5_9H3RespOut6on_end
FNDA:0,_RNvMs4_NtCsfUjBKV2B3Gc_7lb_quic9h3_bridgeNtB5_9H3RespOut7on_data
FNDA:1,_RNvMs4_NtCsfUjBKV2B3Gc_7lb_quic9h3_bridgeNtB5_9H3RespOut7on_head
FNDA:0,_RNvMs4_NtCsfUjBKV2B3Gc_7lb_quic9h3_bridgeNtB5_9H3RespOut8on_reset
FNDA:0,_RNvMs_NtCsfUjBKV2B3Gc_7lb_quic9h3_bridgeNtB4_9H3Request12from_headers
FNDA:0,_RNvNCNvNtCsfUjBKV2B3Gc_7lb_quic9h3_bridge20h3_to_h1_stream_resp06inline
FNDA:2,_RNvNCNvNtCsfUjBKV2B3Gc_7lb_quic9h3_bridge20h3_to_h2_stream_resp06inline
FNDA:0,_RNvNtCsfUjBKV2B3Gc_7lb_quic9h3_bridge13build_h1_head
FNDA:0,_RNvNtCsfUjBKV2B3Gc_7lb_quic9h3_bridge15find_header_sep
FNDA:0,_RNvNtCsfUjBKV2B3Gc_7lb_quic9h3_bridge15record_inflight
FNDA:0,_RNvNtCsfUjBKV2B3Gc_7lb_quic9h3_bridge15record_retained
FNDA:0,_RNvNtCsfUjBKV2B3Gc_7lb_quic9h3_bridge16write_body_chunk
FNDA:0,_RNvNtCsfUjBKV2B3Gc_7lb_quic9h3_bridge16write_h1_request
FNDA:0,_RNvNtCsfUjBKV2B3Gc_7lb_quic9h3_bridge17parse_status_line
FNDA:0,_RNvNtCsfUjBKV2B3Gc_7lb_quic9h3_bridge18stream_h1_response
FNDA:0,_RNvNtCsfUjBKV2B3Gc_7lb_quic9h3_bridge18stream_h2_response
FNDA:9,_RNvNtCsfUjBKV2B3Gc_7lb_quic9h3_bridge19j2_req_event_action
FNDA:0,_RNvNtCsfUjBKV2B3Gc_7lb_quic9h3_bridge20h3_to_h1_stream_resp
FNDA:2,_RNvNtCsfUjBKV2B3Gc_7lb_quic9h3_bridge20h3_to_h2_stream_resp
FNDA:0,_RNvNtCsfUjBKV2B3Gc_7lb_quic9h3_bridge20h3_to_h3_stream_resp
FNDA:0,_RNvNtCsfUjBKV2B3Gc_7lb_quic9h3_bridge20record_resp_retained
FNDA:0,_RNvNtCsfUjBKV2B3Gc_7lb_quic9h3_bridge22is_response_hop_by_hop
FNDA:6,_RNvNtCsfUjBKV2B3Gc_7lb_quic9h3_bridge23h2_request_body_from_rx
FNDA:0,_RNvNtCsfUjBKV2B3Gc_7lb_quic9h3_bridge29stream_request_to_h3_upstream
FNDA:26,_RNvNtCsfUjBKV2B3Gc_7lb_quic9h3_bridge31validate_request_pseudo_headers
FNDA:2,_RNvXs1_NtCsfUjBKV2B3Gc_7lb_quic9h3_bridgeNtB5_10H3ReqAbortNtNtCs2va5m0jqTTM_4core3fmt7Display3fmt
FNDA:9,_RNvXs3_NtCsfUjBKV2B3Gc_7lb_quic9h3_bridgeNtB5_15H3ReqStreamBodyNtCsl5a7MsEZ2mF_9http_body4Body10poll_frame
FNDA:0,_RNCNCNCNvNtCsfUjBKV2B3Gc_7lb_quic9h3_bridge18stream_h1_response0s_00B9_
FNDA:0,_RNCNCNCNvNtCsfUjBKV2B3Gc_7lb_quic9h3_bridge18stream_h2_response0s2_00B9_
FNDA:0,_RNCNCNvMs4_NtCsfUjBKV2B3Gc_7lb_quic9h3_bridgeNtB9_9H3RespOut11on_trailers00Bb_
FNDA:0,_RNCNCNvMs4_NtCsfUjBKV2B3Gc_7lb_quic9h3_bridgeNtB9_9H3RespOut11on_trailers0s0_0Bb_
FNDA:0,_RNCNCNvMs4_NtCsfUjBKV2B3Gc_7lb_quic9h3_bridgeNtB9_9H3RespOut11on_trailers0s_0Bb_
FNDA:0,_RNCNCNvMs4_NtCsfUjBKV2B3Gc_7lb_quic9h3_bridgeNtB9_9H3RespOut6on_end00Bb_
FNDA:0,_RNCNCNvMs4_NtCsfUjBKV2B3Gc_7lb_quic9h3_bridgeNtB9_9H3RespOut6on_end0s_0Bb_
FNDA:0,_RNCNCNvMs4_NtCsfUjBKV2B3Gc_7lb_quic9h3_bridgeNtB9_9H3RespOut7on_data00Bb_
FNDA:0,_RNCNCNvMs4_NtCsfUjBKV2B3Gc_7lb_quic9h3_bridgeNtB9_9H3RespOut7on_data0s_0Bb_
FNDA:0,_RNCNCNvMs4_NtCsfUjBKV2B3Gc_7lb_quic9h3_bridgeNtB9_9H3RespOut7on_head00Bb_
FNDA:0,_RNCNCNvMs4_NtCsfUjBKV2B3Gc_7lb_quic9h3_bridgeNtB9_9H3RespOut7on_head0s0_0Bb_
FNDA:0,_RNCNCNvMs4_NtCsfUjBKV2B3Gc_7lb_quic9h3_bridgeNtB9_9H3RespOut7on_head0s_0Bb_
FNDA:0,_RNCNCNvNtCsfUjBKV2B3Gc_7lb_quic9h3_bridge16write_body_chunk00B7_
FNDA:0,_RNCNCNvNtCsfUjBKV2B3Gc_7lb_quic9h3_bridge16write_body_chunk0s0_0B7_
FNDA:0,_RNCNCNvNtCsfUjBKV2B3Gc_7lb_quic9h3_bridge16write_body_chunk0s1_0B7_
FNDA:0,_RNCNCNvNtCsfUjBKV2B3Gc_7lb_quic9h3_bridge16write_body_chunk0s_0B7_
FNDA:0,_RNCNCNvNtCsfUjBKV2B3Gc_7lb_quic9h3_bridge16write_h1_request00B7_
FNDA:0,_RNCNCNvNtCsfUjBKV2B3Gc_7lb_quic9h3_bridge18stream_h1_response00B7_
FNDA:0,_RNCNCNvNtCsfUjBKV2B3Gc_7lb_quic9h3_bridge18stream_h1_response0s0_0B7_
FNDA:0,_RNCNCNvNtCsfUjBKV2B3Gc_7lb_quic9h3_bridge18stream_h1_response0s1_0B7_
FNDA:0,_RNCNCNvNtCsfUjBKV2B3Gc_7lb_quic9h3_bridge18stream_h1_response0s2_0B7_
FNDA:0,_RNCNCNvNtCsfUjBKV2B3Gc_7lb_quic9h3_bridge18stream_h1_response0s3_0B7_
FNDA:0,_RNCNCNvNtCsfUjBKV2B3Gc_7lb_quic9h3_bridge18stream_h1_response0s4_0B7_
FNDA:0,_RNCNCNvNtCsfUjBKV2B3Gc_7lb_quic9h3_bridge18stream_h1_response0s5_0B7_
FNDA:0,_RNCNCNvNtCsfUjBKV2B3Gc_7lb_quic9h3_bridge18stream_h1_response0s6_0B7_
FNDA:0,_RNCNCNvNtCsfUjBKV2B3Gc_7lb_quic9h3_bridge18stream_h1_response0s7_0B7_
FNDA:0,_RNCNCNvNtCsfUjBKV2B3Gc_7lb_quic9h3_bridge18stream_h1_response0s8_0B7_
FNDA:0,_RNCNCNvNtCsfUjBKV2B3Gc_7lb_quic9h3_bridge18stream_h1_response0s9_0B7_
FNDA:0,_RNCNCNvNtCsfUjBKV2B3Gc_7lb_quic9h3_bridge18stream_h1_response0s_0B7_
FNDA:0,_RNCNCNvNtCsfUjBKV2B3Gc_7lb_quic9h3_bridge18stream_h1_response0sa_0B7_
FNDA:0,_RNCNCNvNtCsfUjBKV2B3Gc_7lb_quic9h3_bridge18stream_h2_response00B7_
FNDA:0,_RNCNCNvNtCsfUjBKV2B3Gc_7lb_quic9h3_bridge18stream_h2_response0s0_0B7_
FNDA:0,_RNCNCNvNtCsfUjBKV2B3Gc_7lb_quic9h3_bridge18stream_h2_response0s1_0B7_
FNDA:0,_RNCNCNvNtCsfUjBKV2B3Gc_7lb_quic9h3_bridge18stream_h2_response0s2_0B7_
FNDA:0,_RNCNCNvNtCsfUjBKV2B3Gc_7lb_quic9h3_bridge18stream_h2_response0s3_0B7_
FNDA:0,_RNCNCNvNtCsfUjBKV2B3Gc_7lb_quic9h3_bridge18stream_h2_response0s4_0B7_
FNDA:0,_RNCNCNvNtCsfUjBKV2B3Gc_7lb_quic9h3_bridge18stream_h2_response0s5_0B7_
FNDA:0,_RNCNCNvNtCsfUjBKV2B3Gc_7lb_quic9h3_bridge18stream_h2_response0s6_0B7_
FNDA:0,_RNCNCNvNtCsfUjBKV2B3Gc_7lb_quic9h3_bridge18stream_h2_response0s7_0B7_
FNDA:0,_RNCNCNvNtCsfUjBKV2B3Gc_7lb_quic9h3_bridge18stream_h2_response0s_0B7_
FNDA:0,_RNCNCNvNtCsfUjBKV2B3Gc_7lb_quic9h3_bridge29stream_request_to_h3_upstream00B7_
FNDA:0,_RNCNCNvNtCsfUjBKV2B3Gc_7lb_quic9h3_bridge29stream_request_to_h3_upstream0s0_0B7_
FNDA:0,_RNCNCNvNtCsfUjBKV2B3Gc_7lb_quic9h3_bridge29stream_request_to_h3_upstream0s1_0B7_
FNDA:0,_RNCNCNvNtCsfUjBKV2B3Gc_7lb_quic9h3_bridge29stream_request_to_h3_upstream0s2_0B7_
FNDA:0,_RNCNCNvNtCsfUjBKV2B3Gc_7lb_quic9h3_bridge29stream_request_to_h3_upstream0s3_0B7_
FNDA:0,_RNCNCNvNtCsfUjBKV2B3Gc_7lb_quic9h3_bridge29stream_request_to_h3_upstream0s4_0B7_
FNDA:0,_RNCNCNvNtCsfUjBKV2B3Gc_7lb_quic9h3_bridge29stream_request_to_h3_upstream0s_0B7_
FNDA:0,_RNCNCNvNtCsfUjBKV2B3Gc_7lb_quic9h3_bridge29stream_request_to_h3_upstream0si_0B7_
FNDA:96,_RNCNvMs0_NtCsfUjBKV2B3Gc_7lb_quic9h3_bridgeNtB7_12ChunkDecoder21parse_trailer_section0B9_
FNDA:0,_RNCNvMs0_NtCsfUjBKV2B3Gc_7lb_quic9h3_bridgeNtB7_12ChunkDecoder21parse_trailer_sections_0B9_
FNDA:312,_RNCNvMs0_NtCsfUjBKV2B3Gc_7lb_quic9h3_bridgeNtB7_12ChunkDecoder4feed0B9_
FNDA:0,_RNCNvMs0_NtCsfUjBKV2B3Gc_7lb_quic9h3_bridgeNtB7_12ChunkDecoder4feeds0_0B9_
FNDA:1,_RNCNvMs0_NtCsfUjBKV2B3Gc_7lb_quic9h3_bridgeNtB7_12ChunkDecoder4feeds1_0B9_
FNDA:19,_RNCNvMs0_NtCsfUjBKV2B3Gc_7lb_quic9h3_bridgeNtB7_12ChunkDecoder4feeds_0B9_
FNDA:1,_RNCNvMs4_NtCsfUjBKV2B3Gc_7lb_quic9h3_bridgeNtB7_9H3RespOut11on_trailers0B9_
FNDA:0,_RNCNvMs4_NtCsfUjBKV2B3Gc_7lb_quic9h3_bridgeNtB7_9H3RespOut6inline0B9_
FNDA:0,_RNCNvMs4_NtCsfUjBKV2B3Gc_7lb_quic9h3_bridgeNtB7_9H3RespOut6on_end0B9_
FNDA:0,_RNCNvMs4_NtCsfUjBKV2B3Gc_7lb_quic9h3_bridgeNtB7_9H3RespOut7on_data0B9_
FNDA:1,_RNCNvMs4_NtCsfUjBKV2B3Gc_7lb_quic9h3_bridgeNtB7_9H3RespOut7on_head0B9_
FNDA:0,_RNCNvMs4_NtCsfUjBKV2B3Gc_7lb_quic9h3_bridgeNtB7_9H3RespOut8on_reset0B9_
FNDA:0,_RNCNvMs_NtCsfUjBKV2B3Gc_7lb_quic9h3_bridgeNtB6_9H3Request12from_headers0B8_
FNDA:0,_RNCNvMs_NtCsfUjBKV2B3Gc_7lb_quic9h3_bridgeNtB6_9H3Request12from_headerss_0B8_
FNDA:0,_RNCNvNCNvNtCsfUjBKV2B3Gc_7lb_quic9h3_bridge20h3_to_h1_stream_resp06inline0B9_
FNDA:2,_RNCNvNCNvNtCsfUjBKV2B3Gc_7lb_quic9h3_bridge20h3_to_h2_stream_resp06inline0B9_
FNDA:0,_RNCNvNtCsfUjBKV2B3Gc_7lb_quic9h3_bridge15find_header_sep0B5_
FNDA:0,_RNCNvNtCsfUjBKV2B3Gc_7lb_quic9h3_bridge16write_body_chunk0B5_
FNDA:0,_RNCNvNtCsfUjBKV2B3Gc_7lb_quic9h3_bridge16write_h1_request0B5_
FNDA:0,_RNCNvNtCsfUjBKV2B3Gc_7lb_quic9h3_bridge17parse_status_line0B5_
FNDA:0,_RNCNvNtCsfUjBKV2B3Gc_7lb_quic9h3_bridge18stream_h1_response0B5_
FNDA:0,_RNCNvNtCsfUjBKV2B3Gc_7lb_quic9h3_bridge18stream_h2_response0B5_
FNDA:0,_RNCNvNtCsfUjBKV2B3Gc_7lb_quic9h3_bridge20h3_to_h1_stream_resp0B5_
FNDA:2,_RNCNvNtCsfUjBKV2B3Gc_7lb_quic9h3_bridge20h3_to_h2_stream_resp0B5_
FNDA:0,_RNCNvNtCsfUjBKV2B3Gc_7lb_quic9h3_bridge20h3_to_h3_stream_resp0B5_
FNDA:1,_RNCNvNtCsfUjBKV2B3Gc_7lb_quic9h3_bridge23h2_request_body_from_rxs_0B5_
FNDA:0,_RNCNvNtCsfUjBKV2B3Gc_7lb_quic9h3_bridge29stream_request_to_h3_upstream0B5_
FNDA:1,_RNCNCNvNtNtCsfUjBKV2B3Gc_7lb_quic9h3_bridge5testss_49g5_h2_request_body_from_rx_head_construction_arms00B9_
FNDA:90,_RNCNvNtNtCsfUjBKV2B3Gc_7lb_quic9h3_bridge5tests1h0B7_
FNDA:1,_RNCNvNtNtCsfUjBKV2B3Gc_7lb_quic9h3_bridge5testss_37pseudo_ws_duplicate_protocol_rejected0B7_
FNDA:1,_RNCNvNtNtCsfUjBKV2B3Gc_7lb_quic9h3_bridge5testss_42pseudo_ws_protocol_requires_connect_method0B7_
FNDA:1,_RNCNvNtNtCsfUjBKV2B3Gc_7lb_quic9h3_bridge5testss_49g5_h2_request_body_from_rx_head_construction_arms0B7_
FNDA:1,_RNCNvNtNtCsfUjBKV2B3Gc_7lb_quic9h3_bridge5testss_49pseudo_classic_connect_unchanged_under_ws_enabled0B7_
FNDA:1,_RNCNvNtNtCsfUjBKV2B3Gc_7lb_quic9h3_bridge5testss_49s6_i2_h3_req_stream_body_frame_and_abort_contract0B7_
FNDA:1,_RNCNvNtNtCsfUjBKV2B3Gc_7lb_quic9h3_bridge5testss_50g5_h3_to_h2_stream_resp_inline_413_and_502_no_dial0B7_
FNDA:1,_RNCNvNtNtCsfUjBKV2B3Gc_7lb_quic9h3_bridge5testss_51pseudo_ws_extended_connect_requires_scheme_and_path0B7_
FNDA:1,_RNCNvNtNtCsfUjBKV2B3Gc_7lb_quic9h3_bridge5testss_51pseudo_ws_extended_connect_requires_scheme_and_paths0_0B7_
FNDA:1,_RNCNvNtNtCsfUjBKV2B3Gc_7lb_quic9h3_bridge5testss_51pseudo_ws_extended_connect_requires_scheme_and_paths_0B7_
FNDA:1,_RNCNvNtNtCsfUjBKV2B3Gc_7lb_quic9h3_bridge5testss_52s12_decoded_sink_on_head_forwards_full_nonpseudo_set0B7_
FNDA:1,_RNCNvNtNtCsfUjBKV2B3Gc_7lb_quic9h3_bridge5testss_55s12_decoded_sink_on_trailers_emits_h3respevent_trailers0B7_
FNDA:25,_RNvNtNtCsfUjBKV2B3Gc_7lb_quic9h3_bridge5tests1h
FNDA:1,_RNvNtNtCsfUjBKV2B3Gc_7lb_quic9h3_bridge5testss_27s7_j2_request_send_decision
FNDA:1,_RNvNtNtCsfUjBKV2B3Gc_7lb_quic9h3_bridge5testss_28pseudo_12_duplicate_rejected
FNDA:1,_RNvNtNtCsfUjBKV2B3Gc_7lb_quic9h3_bridge5testss_28pseudo_connect_request_rules
FNDA:1,_RNvNtNtCsfUjBKV2B3Gc_7lb_quic9h3_bridge5testss_34chunk_decoder_decodes_split_chunks
FNDA:1,_RNvNtNtCsfUjBKV2B3Gc_7lb_quic9h3_bridge5testss_36g5_h3reqabort_display_and_error_impl
FNDA:1,_RNvNtNtCsfUjBKV2B3Gc_7lb_quic9h3_bridge5testss_36pseudo_13_missing_mandatory_rejected
FNDA:1,_RNvNtNtCsfUjBKV2B3Gc_7lb_quic9h3_bridge5testss_37pseudo_ws_duplicate_protocol_rejected
FNDA:1,_RNvNtNtCsfUjBKV2B3Gc_7lb_quic9h3_bridge5testss_38pseudo_15_after_regular_field_rejected
FNDA:1,_RNvNtNtCsfUjBKV2B3Gc_7lb_quic9h3_bridge5testss_39chunk_decoder_parses_trailer_section_c4
FNDA:1,_RNvNtNtCsfUjBKV2B3Gc_7lb_quic9h3_bridge5testss_39chunk_decoder_tolerates_chunk_extension
FNDA:1,_RNvNtNtCsfUjBKV2B3Gc_7lb_quic9h3_bridge5testss_40pseudo_14_prohibited_or_unknown_rejected
FNDA:1,_RNvNtNtCsfUjBKV2B3Gc_7lb_quic9h3_bridge5testss_42chunk_decoder_rejects_malformed_framing_c3
FNDA:1,_RNvNtNtCsfUjBKV2B3Gc_7lb_quic9h3_bridge5testss_42pseudo_ws_protocol_requires_connect_method
FNDA:1,_RNvNtNtCsfUjBKV2B3Gc_7lb_quic9h3_bridge5testss_46pseudo_valid_request_accepted_negative_control
FNDA:1,_RNvNtNtCsfUjBKV2B3Gc_7lb_quic9h3_bridge5testss_48pseudo_normal_request_unchanged_under_ws_enabled
FNDA:1,_RNvNtNtCsfUjBKV2B3Gc_7lb_quic9h3_bridge5testss_48pseudo_ws_extended_connect_accepted_when_enabled
FNDA:1,_RNvNtNtCsfUjBKV2B3Gc_7lb_quic9h3_bridge5testss_49g5_h2_request_body_from_rx_head_construction_arms
FNDA:1,_RNvNtNtCsfUjBKV2B3Gc_7lb_quic9h3_bridge5testss_49pseudo_classic_connect_unchanged_under_ws_enabled
FNDA:1,_RNvNtNtCsfUjBKV2B3Gc_7lb_quic9h3_bridge5testss_49pseudo_ws_extended_connect_rejected_when_disabled
FNDA:1,_RNvNtNtCsfUjBKV2B3Gc_7lb_quic9h3_bridge5testss_49s6_i2_h3_req_stream_body_frame_and_abort_contract
FNDA:1,_RNvNtNtCsfUjBKV2B3Gc_7lb_quic9h3_bridge5testss_50g5_h3_to_h2_stream_resp_inline_413_and_502_no_dial
FNDA:1,_RNvNtNtCsfUjBKV2B3Gc_7lb_quic9h3_bridge5testss_51pseudo_13_absent_authority_rejected_for_http_scheme
FNDA:1,_RNvNtNtCsfUjBKV2B3Gc_7lb_quic9h3_bridge5testss_51pseudo_ws_extended_connect_requires_scheme_and_path
FNDA:1,_RNvNtNtCsfUjBKV2B3Gc_7lb_quic9h3_bridge5testss_52s12_decoded_sink_on_head_forwards_full_nonpseudo_set
FNDA:1,_RNvNtNtCsfUjBKV2B3Gc_7lb_quic9h3_bridge5testss_55s12_decoded_sink_on_trailers_emits_h3respevent_trailers
FNF:137
FNH:117
DA:307,5079
DA:309,5079
DA:310,5079
DA:311,54
DA:312,54
DA:313,54
DA:314,54
DA:315,54
DA:316,54
DA:317,54
DA:318,0
DA:321,5079
DA:344,1137656
DA:346,1137656
DA:347,1137656
DA:348,26
DA:349,26
DA:350,26
DA:351,26
DA:352,26
DA:353,26
DA:354,26
DA:355,0
DA:358,1137656
DA:386,1
DA:387,1
DA:388,1
DA:389,1
DA:390,1
DA:391,1
DA:392,1
DA:393,1
DA:394,1
DA:403,248
DA:404,248
DA:405,248
DA:406,248
DA:407,248
DA:408,1298
DA:409,1050
DA:410,1050
DA:411,802
DA:412,554
DA:413,306
DA:414,248
DA:415,248
DA:416,58
DA:419,248
DA:420,248
DA:421,248
DA:422,248
DA:423,248
DA:424,248
DA:425,248
DA:426,248
DA:427,248
DA:428,248
DA:429,248
DA:430,248
DA:431,248
DA:489,275
DA:490,275
DA:491,275
DA:492,275
DA:493,275
DA:494,275
DA:495,275
DA:496,275
DA:497,275
DA:498,275
DA:499,275
DA:501,1407
DA:502,1139
DA:505,1136
DA:506,1
DA:507,1135
DA:508,1135
DA:509,1135
DA:510,275
DA:511,1
DA:512,274
DA:513,274
DA:515,860
DA:516,265
DA:517,0
DA:518,265
DA:519,265
DA:521,595
DA:522,267
DA:523,1
DA:524,266
DA:525,266
DA:527,328
DA:528,260
DA:529,0
DA:530,260
DA:531,260
DA:538,68
DA:539,65
DA:540,1
DA:541,64
DA:542,64
DA:549,3
DA:553,3
DA:554,3
DA:555,3
DA:556,3
DA:557,1
DA:558,2
DA:569,67
DA:570,1
DA:571,267
DA:572,62
DA:573,62
DA:574,62
DA:575,62
DA:576,1
DA:577,61
DA:578,1
DA:579,60
DA:580,1
DA:582,59
DA:586,5
DA:587,2
DA:588,3
DA:589,1
DA:591,2
DA:599,200
DA:600,1
DA:601,199
DA:602,199
DA:603,1
DA:605,198
DA:606,1
DA:607,197
DA:611,197
DA:612,197
DA:613,197
DA:614,2
DA:615,195
DA:616,195
DA:619,275
DA:621,70
DA:622,1979
DA:623,70
DA:625,34
DA:626,34
DA:627,34
DA:628,34
DA:629,34
DA:630,34
DA:631,34
DA:663,70
DA:664,70
DA:665,70
DA:731,21
DA:732,21
DA:733,21
DA:734,21
DA:735,21
DA:736,21
DA:737,21
DA:738,21
DA:739,21
DA:740,21
DA:745,7
DA:746,7
DA:747,7
DA:753,115
DA:754,115
DA:756,246
DA:760,0
DA:761,246
DA:762,246
DA:769,76
DA:770,170
DA:771,170
DA:774,30
DA:775,0
DA:777,30
DA:778,2
DA:779,28
DA:780,28
DA:781,28
DA:783,88
DA:784,88
DA:785,29
DA:786,59
DA:787,59
DA:788,59
DA:789,0
DA:791,59
DA:792,59
DA:793,59
DA:797,413
DA:798,3
DA:799,0
DA:800,3
DA:801,3
DA:803,49
DA:804,1
DA:805,48
DA:806,48
DA:807,0
DA:811,89
DA:812,48
DA:813,48
DA:814,48
DA:815,48
DA:816,1
DA:817,47
DA:818,44
DA:819,47
DA:820,44
DA:821,44
DA:830,13
DA:831,13
DA:832,31
DA:833,31
DA:837,115
DA:855,76
DA:858,83
DA:859,72
DA:860,1
DA:861,71
DA:862,71
DA:863,11
DA:864,972
DA:867,66
DA:868,0
DA:869,66
DA:870,66
DA:872,16
DA:874,7
DA:875,7
DA:876,7
DA:877,9
DA:878,9
DA:879,9
DA:883,9
DA:884,8
DA:885,8
DA:886,1
DA:887,7
DA:888,7
DA:889,7
DA:890,7
DA:891,7
DA:892,0
DA:893,7
DA:894,7
DA:895,7
DA:897,76
DA:934,35
DA:935,35
DA:936,35
DA:937,35
DA:938,35
DA:943,2
DA:949,35
DA:950,35
DA:951,34
DA:952,70
DA:953,34
DA:954,36
DA:955,36
DA:956,0
DA:957,0
DA:958,36
DA:959,36
DA:960,36
DA:962,0
DA:963,0
DA:966,36
DA:968,1
DA:969,1
DA:970,35
DA:971,35
DA:975,34
DA:976,34
DA:977,34
DA:978,34
DA:979,0
DA:980,0
DA:981,34
DA:982,34
DA:983,34
DA:984,0
DA:985,0
DA:986,0
DA:989,34
DA:990,34
DA:991,34
DA:992,34
DA:993,34
DA:995,34
DA:996,0
DA:997,0
DA:998,0
DA:1001,34
DA:1002,34
DA:1003,34
DA:1004,34
DA:1005,34
DA:1006,34
DA:1007,34
DA:1008,34
DA:1009,34
DA:1010,34
DA:1011,96
DA:1012,62
DA:1013,0
DA:1015,62
DA:1016,62
DA:1017,25
DA:1018,25
DA:1020,0
DA:1021,0
DA:1024,37
DA:1025,9
DA:1026,28
DA:1027,3
DA:1028,25
DA:1032,34
DA:1033,9
DA:1034,0
DA:1035,0
DA:1036,9
DA:1037,9
DA:1038,25
DA:1039,25
DA:1041,0
DA:1049,34
DA:1050,25
DA:1051,25
DA:1058,34
DA:1059,34
DA:1060,34
DA:1061,0
DA:1062,0
DA:1063,34
DA:1064,34
DA:1065,34
DA:1066,34
DA:1067,34
DA:1068,34
DA:1069,34
DA:1070,34
DA:1089,34
DA:1090,25
DA:1091,25
DA:1092,25
DA:1093,25
DA:1094,23
DA:1096,0
DA:1097,0
DA:1098,23
DA:1099,23
DA:1100,23
DA:1101,23
DA:1102,2
DA:1103,18082
DA:1104,18065
DA:1105,18065
DA:1106,18065
DA:1107,18063
DA:1109,2
DA:1110,2
DA:1113,18063
DA:1115,2
DA:1116,2
DA:1117,18061
DA:1118,18061
DA:1119,18061
DA:1120,18061
DA:1124,9
DA:1125,9
DA:1126,9
DA:1127,9
DA:1128,9
DA:1129,3
DA:1130,3
DA:1131,6
DA:1132,6
DA:1133,6
DA:1134,6
DA:1135,0
DA:1136,0
DA:1143,95
DA:1144,91
DA:1145,91
DA:1147,0
DA:1148,0
DA:1151,91
DA:1154,2
DA:1155,2
DA:1156,89
DA:1157,89
DA:1158,0
DA:1159,0
DA:1160,89
DA:1161,89
DA:1162,27
DA:1163,27
DA:1164,62
DA:1174,4
DA:1175,4
DA:1176,4
DA:1177,2
DA:1178,0
DA:1179,0
DA:1180,2
DA:1181,2
DA:1182,2
DA:1185,0
DA:1186,0
DA:1187,0
DA:1188,0
DA:1190,0
DA:1191,0
DA:1193,0
DA:1194,0
DA:1197,0
DA:1198,0
DA:1199,0
DA:1200,0
DA:1201,0
DA:1207,21
DA:1208,21
DA:1209,35
DA:1250,29
DA:1251,29
DA:1252,29
DA:1253,29
DA:1254,29
DA:1257,1
DA:1261,29
DA:1262,29
DA:1263,29
DA:1264,29
DA:1265,29
DA:1266,29
DA:1267,29
DA:1268,29
DA:1269,29
DA:1270,29
DA:1271,29
DA:1272,29
DA:1273,29
DA:1274,29
DA:1275,29
DA:1276,29
DA:1277,29
DA:1278,29
DA:1279,29
DA:1280,29
DA:1281,29
DA:1282,68
DA:1283,39
DA:1284,39
DA:1285,7
DA:1286,32
DA:1287,32
DA:1288,32
DA:1289,32
DA:1291,29
DA:1292,7
DA:1293,22
DA:1297,39
DA:1298,29
DA:1299,10
DA:1300,10
DA:1301,19
DA:1302,19
DA:1303,19
DA:1304,19
DA:1305,19
DA:1306,19
DA:1307,19
DA:1308,19
DA:1328,1126
DA:1329,1119
DA:1330,1118
DA:1334,1
DA:1335,1
DA:1338,1118
DA:1340,1116
DA:1341,1116
DA:1342,1116
DA:1343,0
DA:1344,2
DA:1348,2
DA:1349,2
DA:1350,2
DA:1351,2
DA:1352,2
DA:1353,2
DA:1354,2
DA:1355,2
DA:1356,2
DA:1357,2
DA:1360,2
DA:1361,2
DA:1362,1
DA:1363,1
DA:1364,1
DA:1365,1
DA:1366,0
DA:1367,0
DA:1373,7
DA:1374,7
DA:1375,29
DA:1387,37
DA:1388,37
DA:1389,37
DA:1390,37
DA:1391,37
DA:1392,37
DA:1393,37
DA:1394,37
DA:1395,37
DA:1396,37
DA:1397,37
DA:1398,37
DA:1399,30
DA:1400,0
DA:1401,0
DA:1402,0
DA:1403,0
DA:1404,0
DA:1405,7
DA:1407,37
DA:1408,37
DA:1409,37
DA:1410,37
DA:1432,684
DA:1434,684
DA:1435,684
DA:1436,11
DA:1437,11
DA:1438,11
DA:1439,11
DA:1440,11
DA:1441,11
DA:1442,11
DA:1443,0
DA:1446,684
DA:1456,654
DA:1457,654
DA:1458,0
DA:1459,654
DA:1460,654
DA:1461,654
DA:1462,654
DA:1463,653
DA:1464,653
DA:1466,0
DA:1468,653
DA:1469,654
DA:1527,37
DA:1528,37
DA:1529,37
DA:1530,37
DA:1531,37
DA:1534,37
DA:1535,37
DA:1537,30
DA:1542,0
DA:1544,7
DA:1545,7
DA:1546,0
DA:1547,0
DA:1549,0
DA:1551,7
DA:1552,7
DA:1553,0
DA:1554,7
DA:1558,37
DA:1559,37
DA:1560,37
DA:1561,37
DA:1563,37
DA:1564,0
DA:1565,0
DA:1566,37
DA:1568,37
DA:1569,7
DA:1570,0
DA:1571,0
DA:1572,7
DA:1573,30
DA:1580,37
DA:1581,683
DA:1582,653
DA:1583,647
DA:1584,647
DA:1585,647
DA:1586,1
DA:1587,1
DA:1588,646
DA:1616,5
DA:1617,5
DA:1638,1
DA:1639,0
DA:1640,0
DA:1642,1
DA:1646,35
DA:1650,0
DA:1651,0
DA:1652,35
DA:1653,35
DA:1654,5
DA:1655,0
DA:1656,0
DA:1657,5
DA:1658,30
DA:1660,35
DA:1661,0
DA:1662,0
DA:1663,35
DA:1664,35
DA:1665,37
DA:1696,37
DA:1697,37
DA:1698,37
DA:1699,37
DA:1700,37
DA:1701,37
DA:1702,37
DA:1703,37
DA:1709,2
DA:1710,2
DA:1711,2
DA:1712,2
DA:1713,2
DA:1714,2
DA:1715,2
DA:1716,2
DA:1717,2
DA:1718,0
DA:1719,2
DA:1720,2
DA:1722,37
DA:1723,37
DA:1724,0
DA:1725,0
DA:1726,0
DA:1728,0
DA:1732,35
DA:1733,37
DA:1734,0
DA:1735,0
DA:1736,0
DA:1739,37
DA:1745,35
DA:1747,1
DA:1748,1
DA:1750,1
DA:1751,1
DA:1754,1
DA:1755,1
DA:1756,1
DA:1767,35
DA:1768,35
DA:1769,37
DA:1780,2
DA:1781,2
DA:1782,2
DA:1813,2090
DA:1814,2090
DA:1815,2090
DA:1816,2090
DA:1818,2090
DA:1819,2090
DA:1820,2
DA:1821,2088
DA:1822,2088
DA:1826,6
DA:1827,2082
DA:1828,2082
DA:1829,518
DA:1830,1558
DA:1831,1558
DA:1837,3
DA:1838,3
DA:1848,3
DA:1849,3
DA:1852,2090
DA:1891,14
DA:1892,14
DA:1893,14
DA:1894,14
DA:1895,14
DA:1896,14
DA:1897,14
DA:1898,14
DA:1899,14
DA:1900,14
DA:1901,14
DA:1902,1
DA:1904,13
DA:1906,14
DA:1907,14
DA:1908,16
DA:1909,2
DA:1910,1
DA:1911,1
DA:1912,1
DA:1915,13
DA:1918,9
DA:1919,9
DA:1920,9
DA:1923,2
DA:1929,3
DA:1930,3
DA:1931,3
DA:1932,3
DA:1933,3
DA:1936,12
DA:1937,14
DA:1959,10
DA:1960,10
DA:1961,10
DA:1962,10
DA:1963,10
DA:1964,10
DA:1965,10
DA:1966,10
DA:1972,3
DA:1973,3
DA:1974,3
DA:1975,3
DA:1976,3
DA:1977,3
DA:1978,3
DA:1979,3
DA:1980,3
DA:1981,0
DA:1982,3
DA:1983,3
DA:1987,10
DA:1989,10
DA:1990,8
DA:1992,1
DA:1993,1
DA:1996,1
DA:1997,1
DA:2001,8
DA:2002,7
DA:2003,1
DA:2004,1
DA:2005,1
DA:2006,1
DA:2010,7
DA:2011,10
DA:2077,117
DA:2078,117
DA:2079,117
DA:2080,117
DA:2081,117
DA:2082,117
DA:2083,117
DA:2084,117
DA:2085,117
DA:2086,117
DA:2087,117
DA:2088,117
DA:2089,117
DA:2090,117
DA:2091,117
DA:2092,0
DA:2093,117
DA:2095,0
DA:2096,0
DA:2097,0
DA:2098,0
DA:2099,0
DA:2100,0
DA:2101,0
DA:2102,0
DA:2103,0
DA:2104,0
DA:2105,0
DA:2106,0
DA:2107,0
DA:2110,117
DA:2125,21
DA:2126,21
DA:2127,20
DA:2128,20
DA:2129,20
DA:2130,20
DA:2131,20
DA:2132,20
DA:2133,20
DA:2134,20
DA:2135,20
DA:2136,20
DA:2137,20
DA:2138,20
DA:2139,20
DA:2140,20
DA:2141,20
DA:2142,20
DA:2143,20
DA:2144,50
DA:2145,30
DA:2146,20
DA:2147,20
DA:2148,20
DA:2149,10
DA:2150,10
DA:2151,10
DA:2157,20
DA:2158,20
DA:2159,0
DA:2160,0
DA:2161,20
DA:2162,20
DA:2163,20
DA:2164,20
DA:2166,1
DA:2167,1
DA:2168,1
DA:2169,5
DA:2170,4
DA:2171,1
DA:2172,1
DA:2173,1
DA:2174,3
DA:2175,3
DA:2176,3
DA:2178,1
DA:2179,1
DA:2180,1
DA:2183,21
DA:2190,38497
DA:2191,38497
DA:2192,38497
DA:2193,38497
DA:2194,38497
DA:2195,38497
DA:2196,38497
DA:2197,0
DA:2198,0
DA:2199,38497
DA:2200,38497
DA:2201,38497
DA:2202,38497
DA:2204,0
DA:2205,0
DA:2206,0
DA:2207,0
DA:2208,0
DA:2209,0
DA:2210,0
DA:2211,0
DA:2212,0
DA:2215,38497
DA:2223,2
DA:2224,2
DA:2225,1
DA:2226,1
DA:2227,1
DA:2228,1
DA:2229,1
DA:2230,1
DA:2231,1
DA:2232,0
DA:2233,0
DA:2234,1
DA:2235,1
DA:2236,1
DA:2237,1
DA:2239,1
DA:2240,1
DA:2241,1
DA:2242,1
DA:2244,2
DA:2247,12
DA:2248,12
DA:2249,12
DA:2250,12
DA:2251,12
DA:2252,12
DA:2253,0
DA:2254,0
DA:2255,0
DA:2256,0
DA:2258,12
DA:2263,15
DA:2264,15
DA:2265,15
DA:2266,15
DA:2268,0
DA:2269,0
DA:2272,15
DA:2287,143
DA:2288,143
DA:2289,143
DA:2290,143
DA:2291,143
DA:2292,143
DA:2293,143
DA:2294,143
DA:2295,143
DA:2300,143
DA:2301,0
DA:2303,143
DA:2305,143
DA:2306,143
DA:2307,143
DA:2308,143
DA:2309,143
DA:2310,143
DA:2311,143
DA:2312,143
DA:2313,143
DA:2314,143
DA:2315,143
DA:2316,143
DA:2317,143
DA:2415,143
DA:2416,143
DA:2417,143
DA:2418,143
DA:2419,143
DA:2420,143
DA:2421,143
DA:2422,143
DA:2423,143
DA:2424,143
DA:2425,143
DA:2426,143
DA:2427,143
DA:2436,143
DA:2437,143
DA:2438,143
DA:2439,143
DA:2440,0
DA:2441,0
DA:2442,0
DA:2443,0
DA:2444,76
DA:2446,0
DA:2447,0
DA:2449,67
DA:2450,67
DA:2451,67
DA:2452,67
DA:2456,143
DA:2457,26
DA:2458,117
DA:2459,117
DA:2460,117
DA:2461,117
DA:2464,26
DA:2465,0
DA:2466,0
DA:2467,0
DA:2470,26
DA:2471,26
DA:2472,26
DA:2473,26
DA:2474,26
DA:2476,0
DA:2477,0
DA:2478,0
DA:2487,26
DA:2488,26
DA:2490,26
DA:2491,0
DA:2492,0
DA:2493,0
DA:2494,0
DA:2495,0
DA:2503,26
DA:2504,26
DA:2505,26
DA:2506,104
DA:2507,26
DA:2508,26
DA:2509,26
DA:2510,0
DA:2511,0
DA:2512,0
DA:2513,0
DA:2514,0
DA:2517,26
DA:2523,26
DA:2524,26
DA:2525,0
DA:2526,0
DA:2527,0
DA:2528,0
DA:2529,0
DA:2530,0
DA:2531,0
DA:2532,0
DA:2533,0
DA:2534,0
DA:2535,0
DA:2536,26
DA:2549,26
DA:2550,9
DA:2551,9
DA:2552,0
DA:2557,17
DA:2560,26
DA:2561,26
DA:2562,26
DA:2563,26
DA:2564,26
DA:2565,26
DA:2566,26
DA:2567,26
DA:2568,26
DA:2569,26
DA:2570,26
DA:2571,26
DA:2572,26
DA:2573,26
DA:2574,26
DA:2575,26
DA:2576,26
DA:2577,26
DA:2578,26
DA:2579,26
DA:2580,26
DA:2581,26
DA:2582,26
DA:2583,26
DA:2584,104
DA:2585,26
DA:2586,26
DA:2587,26
DA:2636,92729
DA:2639,92727
DA:2644,92727
DA:2645,2589
DA:2646,2589
DA:2647,2588
DA:2648,2588
DA:2649,2588
DA:2650,2588
DA:2651,2588
DA:2652,2588
DA:2653,2263
DA:2654,2263
DA:2656,0
DA:2657,1
DA:2658,1
DA:2659,1
DA:2660,1
DA:2661,1
DA:2662,1
DA:2663,1
DA:2664,1
DA:2665,1
DA:2668,90138
DA:2671,145200
DA:2672,52474
DA:2673,52474
DA:2674,0
DA:2675,52474
DA:2680,130918
DA:2681,22
DA:2682,22
DA:2683,22
DA:2684,32
DA:2686,32
DA:2687,32
DA:2688,32
DA:2689,32
DA:2690,32
DA:2691,22
DA:2692,22
DA:2697,50
DA:2698,30
DA:2699,20
DA:2700,20
DA:2701,8
DA:2702,8
DA:2704,20
DA:2705,20
DA:2709,2
DA:2710,1
DA:2711,1
DA:2712,1
DA:2713,1
DA:2714,1
DA:2720,1
DA:2721,1
DA:2722,1
DA:2723,1
DA:2724,1
DA:2725,0
DA:2726,0
DA:2727,0
DA:2730,0
DA:2733,38172
DA:2734,76667
DA:2736,16
DA:2748,16
DA:2749,16
DA:2761,16
DA:2762,0
DA:2763,16
DA:2764,16
DA:2766,16
DA:2767,16
DA:2768,16
DA:2769,3
DA:2771,0
DA:2772,0
DA:2774,3
DA:2775,13
DA:2776,0
DA:2777,13
DA:2778,1
DA:2782,0
DA:2783,0
DA:2785,1
DA:2786,12
DA:2787,12
DA:2788,12
DA:2789,16
DA:2791,0
DA:2792,0
DA:2793,0
DA:2796,0
DA:2798,0
DA:2799,0
DA:2802,0
DA:2803,92706
DA:2804,2
DA:2805,2
DA:2806,2
DA:2807,2
DA:2808,2
DA:2809,2
DA:2810,2
DA:2811,2
DA:2820,92706
DA:2821,83614
DA:2822,9093
DA:2824,92706
DA:2825,0
DA:2826,92706
DA:2827,92706
DA:2828,92706
DA:2829,92706
DA:2830,92706
DA:2831,92706
DA:2832,92706
DA:2833,92706
DA:2834,92706
DA:2835,38155
DA:2836,54551
DA:2837,54551
DA:2838,54551
DA:2839,54551
DA:2840,54551
DA:2841,54551
DA:2842,54551
DA:2843,54551
DA:2844,54551
DA:2846,54551
DA:2847,52286
DA:2848,52286
DA:2849,52286
DA:2850,52286
DA:2851,52286
DA:2852,52286
DA:2853,0
DA:2854,0
DA:2855,0
DA:2856,0
DA:2860,2
DA:2861,2
DA:2862,2
DA:2865,54551
DA:2866,2263
DA:2867,2255
DA:2868,2255
DA:2869,2255
DA:2870,0
DA:2871,0
DA:2872,0
DA:2873,0
DA:2874,0
DA:2875,0
DA:2876,0
DA:2877,0
DA:2878,0
DA:2879,0
DA:2880,0
DA:2881,0
DA:2882,0
DA:2883,0
DA:2884,0
DA:2885,0
DA:2886,0
DA:2887,0
DA:2888,0
DA:2889,0
DA:2894,5
DA:2895,5
DA:2896,5
DA:2897,5
DA:2898,5
DA:2899,0
DA:2900,0
DA:2901,0
DA:2902,0
DA:2905,5
DA:2912,3
DA:2913,3
DA:2914,3
DA:2915,3
DA:2916,3
DA:2917,3
DA:2918,3
DA:2923,54548
DA:2927,26
DA:2928,26
DA:2929,26
DA:2930,12
DA:2931,12
DA:2932,14
DA:2933,14
DA:2936,2
DA:2937,2
DA:2938,12
DA:2939,12
DA:2940,12
DA:2941,12
DA:2942,143
DA:2987,2272
DA:2988,2268
DA:2989,2257
DA:2990,8
DA:2991,8
DA:2992,1
DA:2994,7
DA:2997,7
DA:2999,2272
DA:3007,25
DA:3008,25
DA:3009,25
DA:3010,90
DA:3011,25
DA:3012,25
DA:3015,1
DA:3016,1
DA:3017,1
DA:3018,1
DA:3019,1
DA:3020,1
DA:3021,1
DA:3022,1
DA:3023,1
DA:3024,1
DA:3025,1
DA:3026,1
DA:3029,1
DA:3030,1
DA:3031,1
DA:3032,1
DA:3033,1
DA:3034,1
DA:3035,1
DA:3036,1
DA:3039,1
DA:3040,1
DA:3041,1
DA:3042,1
DA:3043,1
DA:3044,1
DA:3045,0
DA:3048,1
DA:3049,1
DA:3050,1
DA:3051,1
DA:3052,1
DA:3053,1
DA:3054,1
DA:3055,1
DA:3056,0
DA:3058,1
DA:3061,1
DA:3062,1
DA:3063,1
DA:3064,1
DA:3065,1
DA:3066,1
DA:3067,1
DA:3068,1
DA:3069,1
DA:3070,1
DA:3071,1
DA:3072,1
DA:3073,1
DA:3074,1
DA:3075,1
DA:3076,1
DA:3077,1
DA:3080,1
DA:3081,1
DA:3082,1
DA:3083,1
DA:3084,1
DA:3085,1
DA:3086,1
DA:3087,1
DA:3088,1
DA:3091,1
DA:3092,1
DA:3093,1
DA:3094,1
DA:3095,1
DA:3096,1
DA:3097,1
DA:3098,1
DA:3099,1
DA:3100,1
DA:3101,1
DA:3102,1
DA:3103,1
DA:3104,1
DA:3105,1
DA:3106,1
DA:3107,1
DA:3108,1
DA:3111,1
DA:3112,1
DA:3113,1
DA:3114,1
DA:3115,1
DA:3116,1
DA:3117,1
DA:3118,1
DA:3119,1
DA:3120,1
DA:3125,1
DA:3126,1
DA:3127,1
DA:3128,1
DA:3129,1
DA:3130,1
DA:3131,1
DA:3132,1
DA:3133,1
DA:3134,1
DA:3135,1
DA:3136,1
DA:3137,1
DA:3145,1
DA:3146,1
DA:3147,1
DA:3148,1
DA:3149,1
DA:3150,1
DA:3151,1
DA:3152,1
DA:3153,1
DA:3154,1
DA:3155,0
DA:3157,1
DA:3164,1
DA:3165,1
DA:3166,1
DA:3167,1
DA:3168,1
DA:3169,1
DA:3170,1
DA:3171,1
DA:3172,1
DA:3173,1
DA:3174,1
DA:3175,1
DA:3176,0
DA:3178,1
DA:3183,1
DA:3184,1
DA:3185,1
DA:3186,1
DA:3187,1
DA:3188,1
DA:3189,1
DA:3190,1
DA:3191,1
DA:3192,1
DA:3193,0
DA:3195,1
DA:3196,1
DA:3197,1
DA:3198,1
DA:3199,1
DA:3200,1
DA:3201,1
DA:3202,1
DA:3203,1
DA:3204,0
DA:3206,1
DA:3207,1
DA:3208,1
DA:3209,1
DA:3210,1
DA:3211,1
DA:3212,1
DA:3213,1
DA:3214,1
DA:3215,0
DA:3217,1
DA:3222,1
DA:3223,1
DA:3224,1
DA:3225,1
DA:3226,1
DA:3227,1
DA:3228,1
DA:3229,1
DA:3230,1
DA:3231,1
DA:3232,1
DA:3233,0
DA:3235,1
DA:3241,1
DA:3242,1
DA:3243,1
DA:3244,1
DA:3245,1
DA:3246,1
DA:3247,1
DA:3248,1
DA:3249,1
DA:3250,1
DA:3251,1
DA:3252,0
DA:3254,1
DA:3258,1
DA:3259,1
DA:3260,1
DA:3261,1
DA:3262,1
DA:3263,1
DA:3264,1
DA:3265,1
DA:3266,1
DA:3267,1
DA:3268,1
DA:3269,1
DA:3270,0
DA:3272,1
DA:3278,1
DA:3279,1
DA:3280,1
DA:3281,1
DA:3282,1
DA:3283,1
DA:3284,1
DA:3285,1
DA:3286,1
DA:3287,1
DA:3296,1
DA:3297,1
DA:3298,1
DA:3299,1
DA:3300,1
DA:3301,1
DA:3302,1
DA:3303,1
DA:3304,1
DA:3305,1
DA:3306,1
DA:3307,1
DA:3308,1
DA:3309,1
DA:3310,1
DA:3311,1
DA:3312,1
DA:3313,1
DA:3314,1
DA:3315,1
DA:3316,1
DA:3317,1
DA:3318,1
DA:3319,1
DA:3320,1
DA:3321,1
DA:3322,1
DA:3323,1
DA:3324,1
DA:3325,1
DA:3326,1
DA:3327,1
DA:3328,1
DA:3329,1
DA:3330,1
DA:3331,1
DA:3332,1
DA:3333,1
DA:3334,1
DA:3335,1
DA:3336,1
DA:3337,1
DA:3338,1
DA:3339,1
DA:3340,1
DA:3341,1
DA:3342,1
DA:3343,1
DA:3344,1
DA:3345,1
DA:3346,1
DA:3347,1
DA:3348,1
DA:3349,1
DA:3350,1
DA:3351,1
DA:3352,1
DA:3353,1
DA:3354,1
DA:3355,1
DA:3356,1
DA:3357,1
DA:3358,1
DA:3359,1
DA:3360,1
DA:3361,1
DA:3362,1
DA:3363,1
DA:3364,1
DA:3365,1
DA:3366,1
DA:3367,1
DA:3368,1
DA:3369,1
DA:3370,1
DA:3371,1
DA:3372,1
DA:3373,1
DA:3374,1
DA:3375,1
DA:3376,1
DA:3377,1
DA:3378,1
DA:3379,1
DA:3380,1
DA:3386,1
DA:3387,1
DA:3388,1
DA:3389,1
DA:3390,1
DA:3391,0
DA:3394,1
DA:3395,1
DA:3397,1
DA:3398,1
DA:3399,1
DA:3406,1
DA:3407,1
DA:3408,1
DA:3409,1
DA:3410,1
DA:3411,1
DA:3412,1
DA:3413,1
DA:3414,1
DA:3415,1
DA:3416,1
DA:3417,1
DA:3418,1
DA:3419,1
DA:3420,1
DA:3421,1
DA:3422,1
DA:3423,1
DA:3424,1
DA:3425,1
DA:3426,1
DA:3427,1
DA:3428,1
DA:3429,1
DA:3430,1
DA:3431,1
DA:3432,1
DA:3433,1
DA:3434,1
DA:3435,1
DA:3436,1
DA:3437,1
DA:3438,1
DA:3439,1
DA:3440,1
DA:3441,1
DA:3442,1
DA:3443,1
DA:3444,1
DA:3445,1
DA:3446,1
DA:3447,1
DA:3448,1
DA:3449,1
DA:3450,1
DA:3451,1
DA:3452,1
DA:3453,1
DA:3454,1
DA:3455,1
DA:3456,1
DA:3457,1
DA:3458,1
DA:3459,1
DA:3460,1
DA:3461,1
DA:3462,1
DA:3471,1
DA:3472,1
DA:3473,1
DA:3474,1
DA:3475,1
DA:3476,1
DA:3477,1
DA:3478,1
DA:3479,1
DA:3480,1
DA:3481,1
DA:3482,1
DA:3483,1
DA:3484,1
DA:3485,1
DA:3486,1
DA:3487,1
DA:3488,1
DA:3489,1
DA:3490,1
DA:3491,1
DA:3492,1
DA:3493,1
DA:3494,1
DA:3495,1
DA:3496,1
DA:3497,1
DA:3498,1
DA:3499,1
DA:3500,1
DA:3501,4
DA:3502,3
DA:3503,1
DA:3504,1
DA:3505,1
DA:3506,1
DA:3507,1
DA:3508,1
DA:3509,1
DA:3510,1
DA:3511,1
DA:3512,1
DA:3513,1
DA:3514,1
DA:3515,1
DA:3516,1
DA:3517,1
DA:3518,1
DA:3519,1
DA:3520,1
DA:3521,1
DA:3522,1
DA:3523,1
DA:3524,1
DA:3525,1
DA:3526,1
DA:3527,1
DA:3528,1
DA:3529,1
DA:3530,1
DA:3531,1
DA:3532,1
DA:3533,1
DA:3534,1
DA:3535,1
DA:3536,4
DA:3537,3
DA:3538,1
DA:3539,1
DA:3540,1
DA:3541,1
DA:3542,1
DA:3543,1
DA:3544,1
DA:3545,1
DA:3546,1
DA:3547,1
DA:3548,1
DA:3553,1
DA:3554,1
DA:3555,1
DA:3556,1
DA:3557,1
DA:3558,1
DA:3559,1
DA:3560,1
DA:3561,1
DA:3562,1
DA:3563,1
DA:3569,1
DA:3570,1
DA:3571,1
DA:3572,1
DA:3573,1
DA:3574,1
DA:3575,1
DA:3577,1
DA:3578,1
DA:3579,1
DA:3580,1
DA:3581,1
DA:3583,1
DA:3584,1
DA:3585,1
DA:3587,1
DA:3588,1
DA:3589,1
DA:3590,1
DA:3591,1
DA:3592,1
DA:3593,1
DA:3599,1
DA:3600,1
DA:3601,1
DA:3602,1
DA:3603,1
DA:3604,1
DA:3605,1
DA:3606,1
DA:3615,1
DA:3616,1
DA:3617,1
DA:3618,1
DA:3619,1
DA:3620,1
DA:3621,1
DA:3622,1
DA:3623,1
DA:3624,1
DA:3625,1
DA:3626,1
DA:3627,1
DA:3628,1
DA:3629,1
DA:3630,1
DA:3631,1
DA:3632,1
DA:3636,1
DA:3637,1
DA:3638,1
DA:3639,1
DA:3640,1
DA:3641,1
DA:3642,1
DA:3643,1
DA:3644,1
DA:3645,1
DA:3646,1
DA:3647,1
DA:3648,1
DA:3649,1
DA:3652,1
DA:3653,1
DA:3654,1
DA:3655,1
DA:3656,1
DA:3657,1
DA:3662,1
DA:3663,1
DA:3664,1
DA:3665,1
DA:3666,1
DA:3670,1
DA:3671,1
DA:3672,1
DA:3673,1
DA:3674,1
DA:3678,1
DA:3679,1
DA:3680,1
DA:3681,1
DA:3682,1
DA:3683,1
DA:3684,1
DA:3685,1
DA:3686,1
DA:3694,1
DA:3695,1
DA:3696,1
DA:3697,1
DA:3698,1
DA:3699,1
DA:3700,1
DA:3701,1
DA:3702,1
DA:3703,1
DA:3704,1
DA:3705,1
DA:3706,1
DA:3707,1
DA:3708,1
DA:3709,1
DA:3710,1
DA:3711,1
DA:3712,0
DA:3715,0
DA:3719,1
DA:3720,1
DA:3727,1
DA:3728,1
DA:3729,1
DA:3730,1
DA:3731,1
DA:3732,1
DA:3733,1
DA:3735,0
DA:3740,1
DA:3741,1
DA:3743,0
DA:3749,1
DA:3750,1
DA:3752,0
DA:3762,1
DA:3763,1
DA:3764,1
DA:3765,1
DA:3766,1
DA:3767,1
DA:3768,1
DA:3769,1
DA:3770,0
DA:3772,1
DA:3773,1
DA:3775,0
DA:3777,1
DA:3778,1
DA:3780,0
DA:3782,1
DA:3783,1
DA:3785,0
DA:3787,1
DA:3801,1
DA:3802,1
DA:3803,1
DA:3804,1
DA:3805,1
DA:3806,1
DA:3807,1
DA:3808,1
DA:3809,1
DA:3810,1
DA:3811,1
DA:3812,1
DA:3813,1
DA:3814,1
DA:3815,1
DA:3816,1
DA:3817,1
DA:3818,0
DA:3819,1
DA:3820,1
DA:3821,1
DA:3822,1
DA:3831,1
DA:3832,1
DA:3833,1
DA:3834,1
DA:3835,1
DA:3836,1
DA:3837,1
DA:3838,1
DA:3839,1
DA:3840,1
DA:3841,1
DA:3842,1
DA:3843,1
DA:3844,1
DA:3845,1
DA:3846,1
DA:3847,1
DA:3848,1
DA:3849,1
DA:3850,1
DA:3851,1
DA:3852,1
DA:3853,1
DA:3854,1
DA:3855,1
DA:3856,1
DA:3857,0
DA:3858,0
DA:3859,1
DA:3860,1
DA:3861,1
DA:3862,1
DA:3863,1
BRF:0
BRH:0
LF:2203
LH:1910
end_of_record
SF:/home/ubuntu/Code/ExpressGateway/crates/lb-quic/src/h3_config.rs
FN:99,_RNvNtCskwRMVHy5hME_7lb_quic9h3_config22build_client_h3_config
FN:62,_RNvNtCskwRMVHy5hME_7lb_quic9h3_config22build_server_h3_config
FN:145,_RNvNtNtCsfUjBKV2B3Gc_7lb_quic9h3_config5testss_49client_h3_config_builds_with_static_only_defaults
FN:117,_RNvNtNtCsfUjBKV2B3Gc_7lb_quic9h3_config5testss_49server_h3_config_builds_with_static_only_defaults
FN:135,_RNvNtNtCsfUjBKV2B3Gc_7lb_quic9h3_config5testss_53server_h3_config_builds_with_extended_connect_enabled
FN:99,_RNvNtCsfUjBKV2B3Gc_7lb_quic9h3_config22build_client_h3_config
FN:62,_RNvNtCsfUjBKV2B3Gc_7lb_quic9h3_config22build_server_h3_config
FNDA:26,_RNvNtCskwRMVHy5hME_7lb_quic9h3_config22build_client_h3_config
FNDA:251,_RNvNtCskwRMVHy5hME_7lb_quic9h3_config22build_server_h3_config
FNDA:1,_RNvNtNtCsfUjBKV2B3Gc_7lb_quic9h3_config5testss_49client_h3_config_builds_with_static_only_defaults
FNDA:1,_RNvNtNtCsfUjBKV2B3Gc_7lb_quic9h3_config5testss_49server_h3_config_builds_with_static_only_defaults
FNDA:1,_RNvNtNtCsfUjBKV2B3Gc_7lb_quic9h3_config5testss_53server_h3_config_builds_with_extended_connect_enabled
FNDA:1,_RNvNtCsfUjBKV2B3Gc_7lb_quic9h3_config22build_client_h3_config
FNDA:2,_RNvNtCsfUjBKV2B3Gc_7lb_quic9h3_config22build_server_h3_config
FNF:5
FNH:5
DA:62,253
DA:63,253
DA:64,253
DA:65,253
DA:66,253
DA:67,253
DA:68,253
DA:69,253
DA:70,253
DA:71,253
DA:72,253
DA:73,59
DA:74,194
DA:75,253
DA:76,253
DA:99,27
DA:100,27
DA:101,27
DA:102,27
DA:103,27
DA:104,27
DA:105,27
DA:106,27
DA:107,27
DA:117,1
DA:118,1
DA:119,1
DA:120,1
DA:121,1
DA:122,1
DA:123,1
DA:124,1
DA:125,1
DA:135,1
DA:136,1
DA:137,1
DA:138,1
DA:145,1
DA:146,1
DA:147,1
DA:148,1
BRF:0
BRH:0
LF:41
LH:41
end_of_record
SF:/home/ubuntu/Code/ExpressGateway/crates/lb-quic/src/listener.rs
FN:191,_RINvMs_NtCskwRMVHy5hME_7lb_quic8listenerNtB5_18QuicListenerParams15with_h3_backendpEB7_
FN:322,_RNCNCNvMs0_NtCskwRMVHy5hME_7lb_quic8listenerNtB9_12QuicListener5spawn00Bb_
FN:383,_RNCNCNvMs0_NtCskwRMVHy5hME_7lb_quic8listenerNtB9_12QuicListener5spawn0s0_0Bb_
FN:336,_RNCNCNvMs0_NtCskwRMVHy5hME_7lb_quic8listenerNtB9_12QuicListener5spawn0s_0Bb_
FN:286,_RNCNvMs0_NtCskwRMVHy5hME_7lb_quic8listenerNtB7_12QuicListener5spawn0B9_
FN:452,_RNCNvNtCskwRMVHy5hME_7lb_quic8listener29load_or_generate_retry_secret0B5_
FN:191,_RINvMs_NtCskwRMVHy5hME_7lb_quic8listenerNtB5_18QuicListenerParams15with_h3_backendNtNtCs8GO9KFlE3Dq_5alloc6string6StringECsg9xlZenf2AU_14expressgateway
FN:322,_RNCNCNvMs0_NtCskwRMVHy5hME_7lb_quic8listenerNtB9_12QuicListener5spawn00Csg9xlZenf2AU_14expressgateway
FN:383,_RNCNCNvMs0_NtCskwRMVHy5hME_7lb_quic8listenerNtB9_12QuicListener5spawn0s0_0Csg9xlZenf2AU_14expressgateway
FN:336,_RNCNCNvMs0_NtCskwRMVHy5hME_7lb_quic8listenerNtB9_12QuicListener5spawn0s_0Csg9xlZenf2AU_14expressgateway
FN:286,_RNCNvMs0_NtCskwRMVHy5hME_7lb_quic8listenerNtB7_12QuicListener5spawn0Csg9xlZenf2AU_14expressgateway
FN:401,_RNvMs0_NtCskwRMVHy5hME_7lb_quic8listenerNtB5_12QuicListener10local_addr
FN:413,_RNvMs0_NtCskwRMVHy5hME_7lb_quic8listenerNtB5_12QuicListener12replay_guard
FN:407,_RNvMs0_NtCskwRMVHy5hME_7lb_quic8listenerNtB5_12QuicListener12retry_signer
FN:283,_RNvMs0_NtCskwRMVHy5hME_7lb_quic8listenerNtB5_12QuicListener5spawn
FN:419,_RNvMs0_NtCskwRMVHy5hME_7lb_quic8listenerNtB5_12QuicListener8shutdown
FN:181,_RNvMs_NtCskwRMVHy5hME_7lb_quic8listenerNtB4_18QuicListenerParams13with_backends
FN:242,_RNvMs_NtCskwRMVHy5hME_7lb_quic8listenerNtB4_18QuicListenerParams14with_websocket
FN:205,_RNvMs_NtCskwRMVHy5hME_7lb_quic8listenerNtB4_18QuicListenerParams15with_h2_backend
FN:219,_RNvMs_NtCskwRMVHy5hME_7lb_quic8listenerNtB4_18QuicListenerParams16with_raw_backend
FN:257,_RNvMs_NtCskwRMVHy5hME_7lb_quic8listenerNtB4_18QuicListenerParams22with_ws_relay_launcher
FN:144,_RNvMs_NtCskwRMVHy5hME_7lb_quic8listenerNtB4_18QuicListenerParams3new
FN:461,_RNvNtCskwRMVHy5hME_7lb_quic8listener17write_secret_file
FN:489,_RNvNtCskwRMVHy5hME_7lb_quic8listener19build_server_config
FN:425,_RNvNtCskwRMVHy5hME_7lb_quic8listener29load_or_generate_retry_secret
FN:118,_RNvXNtCskwRMVHy5hME_7lb_quic8listenerNtB2_18QuicListenerParamsNtNtCs2va5m0jqTTM_4core3fmt5Debug3fmt
FN:191,_RINvMs_NtCskwRMVHy5hME_7lb_quic8listenerNtB5_18QuicListenerParams15with_h3_backendNtNtCs8GO9KFlE3Dq_5alloc6string6StringECs5eBwyIsPj0k_14expressgateway
FN:322,_RNCNCNvMs0_NtCskwRMVHy5hME_7lb_quic8listenerNtB9_12QuicListener5spawn00Cs5eBwyIsPj0k_14expressgateway
FN:383,_RNCNCNvMs0_NtCskwRMVHy5hME_7lb_quic8listenerNtB9_12QuicListener5spawn0s0_0Cs5eBwyIsPj0k_14expressgateway
FN:336,_RNCNCNvMs0_NtCskwRMVHy5hME_7lb_quic8listenerNtB9_12QuicListener5spawn0s_0Cs5eBwyIsPj0k_14expressgateway
FN:286,_RNCNvMs0_NtCskwRMVHy5hME_7lb_quic8listenerNtB7_12QuicListener5spawn0Cs5eBwyIsPj0k_14expressgateway
FN:322,_RNCNCNvMs0_NtCskwRMVHy5hME_7lb_quic8listenerNtB9_12QuicListener5spawn00Csgs8wZQhYro8_16h3_h1_bridge_e2e
FN:383,_RNCNCNvMs0_NtCskwRMVHy5hME_7lb_quic8listenerNtB9_12QuicListener5spawn0s0_0Csgs8wZQhYro8_16h3_h1_bridge_e2e
FN:336,_RNCNCNvMs0_NtCskwRMVHy5hME_7lb_quic8listenerNtB9_12QuicListener5spawn0s_0Csgs8wZQhYro8_16h3_h1_bridge_e2e
FN:286,_RNCNvMs0_NtCskwRMVHy5hME_7lb_quic8listenerNtB7_12QuicListener5spawn0Csgs8wZQhYro8_16h3_h1_bridge_e2e
FN:322,_RNCNCNvMs0_NtCskwRMVHy5hME_7lb_quic8listenerNtB9_12QuicListener5spawn00CsjoM16Dnsg4N_21h3_h1_resp_stream_e2e
FN:383,_RNCNCNvMs0_NtCskwRMVHy5hME_7lb_quic8listenerNtB9_12QuicListener5spawn0s0_0CsjoM16Dnsg4N_21h3_h1_resp_stream_e2e
FN:336,_RNCNCNvMs0_NtCskwRMVHy5hME_7lb_quic8listenerNtB9_12QuicListener5spawn0s_0CsjoM16Dnsg4N_21h3_h1_resp_stream_e2e
FN:286,_RNCNvMs0_NtCskwRMVHy5hME_7lb_quic8listenerNtB7_12QuicListener5spawn0CsjoM16Dnsg4N_21h3_h1_resp_stream_e2e
FN:322,_RNCNCNvMs0_NtCskwRMVHy5hME_7lb_quic8listenerNtB9_12QuicListener5spawn00CseWHjW2OzaKz_21h3_h1_stream_body_e2e
FN:383,_RNCNCNvMs0_NtCskwRMVHy5hME_7lb_quic8listenerNtB9_12QuicListener5spawn0s0_0CseWHjW2OzaKz_21h3_h1_stream_body_e2e
FN:336,_RNCNCNvMs0_NtCskwRMVHy5hME_7lb_quic8listenerNtB9_12QuicListener5spawn0s_0CseWHjW2OzaKz_21h3_h1_stream_body_e2e
FN:286,_RNCNvMs0_NtCskwRMVHy5hME_7lb_quic8listenerNtB7_12QuicListener5spawn0CseWHjW2OzaKz_21h3_h1_stream_body_e2e
FN:322,_RNCNCNvMs0_NtCskwRMVHy5hME_7lb_quic8listenerNtB9_12QuicListener5spawn00CsefM5bzzyn6x_28h3_h1_stream_body_errors_e2e
FN:383,_RNCNCNvMs0_NtCskwRMVHy5hME_7lb_quic8listenerNtB9_12QuicListener5spawn0s0_0CsefM5bzzyn6x_28h3_h1_stream_body_errors_e2e
FN:336,_RNCNCNvMs0_NtCskwRMVHy5hME_7lb_quic8listenerNtB9_12QuicListener5spawn0s_0CsefM5bzzyn6x_28h3_h1_stream_body_errors_e2e
FN:286,_RNCNvMs0_NtCskwRMVHy5hME_7lb_quic8listenerNtB7_12QuicListener5spawn0CsefM5bzzyn6x_28h3_h1_stream_body_errors_e2e
FN:322,_RNCNCNvMs0_NtCskwRMVHy5hME_7lb_quic8listenerNtB9_12QuicListener5spawn00Cs9WUJZEdoSuF_23h3_h1_trailers_resp_e2e
FN:383,_RNCNCNvMs0_NtCskwRMVHy5hME_7lb_quic8listenerNtB9_12QuicListener5spawn0s0_0Cs9WUJZEdoSuF_23h3_h1_trailers_resp_e2e
FN:336,_RNCNCNvMs0_NtCskwRMVHy5hME_7lb_quic8listenerNtB9_12QuicListener5spawn0s_0Cs9WUJZEdoSuF_23h3_h1_trailers_resp_e2e
FN:286,_RNCNvMs0_NtCskwRMVHy5hME_7lb_quic8listenerNtB7_12QuicListener5spawn0Cs9WUJZEdoSuF_23h3_h1_trailers_resp_e2e
FN:322,_RNCNCNvMs0_NtCskwRMVHy5hME_7lb_quic8listenerNtB9_12QuicListener5spawn00CsjLwp8NPXG19_16h3_h2_stream_e2e
FN:383,_RNCNCNvMs0_NtCskwRMVHy5hME_7lb_quic8listenerNtB9_12QuicListener5spawn0s0_0CsjLwp8NPXG19_16h3_h2_stream_e2e
FN:336,_RNCNCNvMs0_NtCskwRMVHy5hME_7lb_quic8listenerNtB9_12QuicListener5spawn0s_0CsjLwp8NPXG19_16h3_h2_stream_e2e
FN:286,_RNCNvMs0_NtCskwRMVHy5hME_7lb_quic8listenerNtB7_12QuicListener5spawn0CsjLwp8NPXG19_16h3_h2_stream_e2e
FN:191,_RINvMs_NtCskwRMVHy5hME_7lb_quic8listenerNtB5_18QuicListenerParams15with_h3_backendReECs5Ta4oEBptWq_16h3_h3_stream_e2e
FN:322,_RNCNCNvMs0_NtCskwRMVHy5hME_7lb_quic8listenerNtB9_12QuicListener5spawn00Cs5Ta4oEBptWq_16h3_h3_stream_e2e
FN:383,_RNCNCNvMs0_NtCskwRMVHy5hME_7lb_quic8listenerNtB9_12QuicListener5spawn0s0_0Cs5Ta4oEBptWq_16h3_h3_stream_e2e
FN:336,_RNCNCNvMs0_NtCskwRMVHy5hME_7lb_quic8listenerNtB9_12QuicListener5spawn0s_0Cs5Ta4oEBptWq_16h3_h3_stream_e2e
FN:286,_RNCNvMs0_NtCskwRMVHy5hME_7lb_quic8listenerNtB7_12QuicListener5spawn0Cs5Ta4oEBptWq_16h3_h3_stream_e2e
FN:191,_RINvMs_NtCsfUjBKV2B3Gc_7lb_quic8listenerNtB5_18QuicListenerParams15with_h3_backendpEB7_
FN:322,_RNCNCNvMs0_NtCsfUjBKV2B3Gc_7lb_quic8listenerNtB9_12QuicListener5spawn00Bb_
FN:383,_RNCNCNvMs0_NtCsfUjBKV2B3Gc_7lb_quic8listenerNtB9_12QuicListener5spawn0s0_0Bb_
FN:336,_RNCNCNvMs0_NtCsfUjBKV2B3Gc_7lb_quic8listenerNtB9_12QuicListener5spawn0s_0Bb_
FN:286,_RNCNvMs0_NtCsfUjBKV2B3Gc_7lb_quic8listenerNtB7_12QuicListener5spawn0B9_
FN:452,_RNCNvNtCsfUjBKV2B3Gc_7lb_quic8listener29load_or_generate_retry_secret0B5_
FN:401,_RNvMs0_NtCsfUjBKV2B3Gc_7lb_quic8listenerNtB5_12QuicListener10local_addr
FN:413,_RNvMs0_NtCsfUjBKV2B3Gc_7lb_quic8listenerNtB5_12QuicListener12replay_guard
FN:407,_RNvMs0_NtCsfUjBKV2B3Gc_7lb_quic8listenerNtB5_12QuicListener12retry_signer
FN:283,_RNvMs0_NtCsfUjBKV2B3Gc_7lb_quic8listenerNtB5_12QuicListener5spawn
FN:419,_RNvMs0_NtCsfUjBKV2B3Gc_7lb_quic8listenerNtB5_12QuicListener8shutdown
FN:181,_RNvMs_NtCsfUjBKV2B3Gc_7lb_quic8listenerNtB4_18QuicListenerParams13with_backends
FN:242,_RNvMs_NtCsfUjBKV2B3Gc_7lb_quic8listenerNtB4_18QuicListenerParams14with_websocket
FN:205,_RNvMs_NtCsfUjBKV2B3Gc_7lb_quic8listenerNtB4_18QuicListenerParams15with_h2_backend
FN:219,_RNvMs_NtCsfUjBKV2B3Gc_7lb_quic8listenerNtB4_18QuicListenerParams16with_raw_backend
FN:257,_RNvMs_NtCsfUjBKV2B3Gc_7lb_quic8listenerNtB4_18QuicListenerParams22with_ws_relay_launcher
FN:144,_RNvMs_NtCsfUjBKV2B3Gc_7lb_quic8listenerNtB4_18QuicListenerParams3new
FN:461,_RNvNtCsfUjBKV2B3Gc_7lb_quic8listener17write_secret_file
FN:489,_RNvNtCsfUjBKV2B3Gc_7lb_quic8listener19build_server_config
FN:425,_RNvNtCsfUjBKV2B3Gc_7lb_quic8listener29load_or_generate_retry_secret
FN:118,_RNvXNtCsfUjBKV2B3Gc_7lb_quic8listenerNtB2_18QuicListenerParamsNtNtCs2va5m0jqTTM_4core3fmt5Debug3fmt
FN:322,_RNCNCNvMs0_NtCskwRMVHy5hME_7lb_quic8listenerNtB9_12QuicListener5spawn00Cs7pyukkf76a7_18listener_lifecycle
FN:383,_RNCNCNvMs0_NtCskwRMVHy5hME_7lb_quic8listenerNtB9_12QuicListener5spawn0s0_0Cs7pyukkf76a7_18listener_lifecycle
FN:336,_RNCNCNvMs0_NtCskwRMVHy5hME_7lb_quic8listenerNtB9_12QuicListener5spawn0s_0Cs7pyukkf76a7_18listener_lifecycle
FN:286,_RNCNvMs0_NtCskwRMVHy5hME_7lb_quic8listenerNtB7_12QuicListener5spawn0Cs7pyukkf76a7_18listener_lifecycle
FN:322,_RNCNCNvMs0_NtCskwRMVHy5hME_7lb_quic8listenerNtB9_12QuicListener5spawn00Cs4Lg9VvzKj6M_18router_accept_path
FN:383,_RNCNCNvMs0_NtCskwRMVHy5hME_7lb_quic8listenerNtB9_12QuicListener5spawn0s0_0Cs4Lg9VvzKj6M_18router_accept_path
FN:336,_RNCNCNvMs0_NtCskwRMVHy5hME_7lb_quic8listenerNtB9_12QuicListener5spawn0s_0Cs4Lg9VvzKj6M_18router_accept_path
FN:286,_RNCNvMs0_NtCskwRMVHy5hME_7lb_quic8listenerNtB7_12QuicListener5spawn0Cs4Lg9VvzKj6M_18router_accept_path
FNDA:0,_RINvMs_NtCskwRMVHy5hME_7lb_quic8listenerNtB5_18QuicListenerParams15with_h3_backendpEB7_
FNDA:0,_RNCNCNvMs0_NtCskwRMVHy5hME_7lb_quic8listenerNtB9_12QuicListener5spawn00Bb_
FNDA:0,_RNCNCNvMs0_NtCskwRMVHy5hME_7lb_quic8listenerNtB9_12QuicListener5spawn0s0_0Bb_
FNDA:0,_RNCNCNvMs0_NtCskwRMVHy5hME_7lb_quic8listenerNtB9_12QuicListener5spawn0s_0Bb_
FNDA:0,_RNCNvMs0_NtCskwRMVHy5hME_7lb_quic8listenerNtB7_12QuicListener5spawn0B9_
FNDA:0,_RNCNvNtCskwRMVHy5hME_7lb_quic8listener29load_or_generate_retry_secret0B5_
FNDA:0,_RINvMs_NtCskwRMVHy5hME_7lb_quic8listenerNtB5_18QuicListenerParams15with_h3_backendNtNtCs8GO9KFlE3Dq_5alloc6string6StringECsg9xlZenf2AU_14expressgateway
FNDA:0,_RNCNCNvMs0_NtCskwRMVHy5hME_7lb_quic8listenerNtB9_12QuicListener5spawn00Csg9xlZenf2AU_14expressgateway
FNDA:0,_RNCNCNvMs0_NtCskwRMVHy5hME_7lb_quic8listenerNtB9_12QuicListener5spawn0s0_0Csg9xlZenf2AU_14expressgateway
FNDA:0,_RNCNCNvMs0_NtCskwRMVHy5hME_7lb_quic8listenerNtB9_12QuicListener5spawn0s_0Csg9xlZenf2AU_14expressgateway
FNDA:0,_RNCNvMs0_NtCskwRMVHy5hME_7lb_quic8listenerNtB7_12QuicListener5spawn0Csg9xlZenf2AU_14expressgateway
FNDA:86,_RNvMs0_NtCskwRMVHy5hME_7lb_quic8listenerNtB5_12QuicListener10local_addr
FNDA:1,_RNvMs0_NtCskwRMVHy5hME_7lb_quic8listenerNtB5_12QuicListener12replay_guard
FNDA:2,_RNvMs0_NtCskwRMVHy5hME_7lb_quic8listenerNtB5_12QuicListener12retry_signer
FNDA:89,_RNvMs0_NtCskwRMVHy5hME_7lb_quic8listenerNtB5_12QuicListener5spawn
FNDA:89,_RNvMs0_NtCskwRMVHy5hME_7lb_quic8listenerNtB5_12QuicListener8shutdown
FNDA:44,_RNvMs_NtCskwRMVHy5hME_7lb_quic8listenerNtB4_18QuicListenerParams13with_backends
FNDA:8,_RNvMs_NtCskwRMVHy5hME_7lb_quic8listenerNtB4_18QuicListenerParams14with_websocket
FNDA:9,_RNvMs_NtCskwRMVHy5hME_7lb_quic8listenerNtB4_18QuicListenerParams15with_h2_backend
FNDA:2,_RNvMs_NtCskwRMVHy5hME_7lb_quic8listenerNtB4_18QuicListenerParams16with_raw_backend
FNDA:7,_RNvMs_NtCskwRMVHy5hME_7lb_quic8listenerNtB4_18QuicListenerParams22with_ws_relay_launcher
FNDA:94,_RNvMs_NtCskwRMVHy5hME_7lb_quic8listenerNtB4_18QuicListenerParams3new
FNDA:86,_RNvNtCskwRMVHy5hME_7lb_quic8listener17write_secret_file
FNDA:255,_RNvNtCskwRMVHy5hME_7lb_quic8listener19build_server_config
FNDA:89,_RNvNtCskwRMVHy5hME_7lb_quic8listener29load_or_generate_retry_secret
FNDA:0,_RNvXNtCskwRMVHy5hME_7lb_quic8listenerNtB2_18QuicListenerParamsNtNtCs2va5m0jqTTM_4core3fmt5Debug3fmt
FNDA:1,_RINvMs_NtCskwRMVHy5hME_7lb_quic8listenerNtB5_18QuicListenerParams15with_h3_backendNtNtCs8GO9KFlE3Dq_5alloc6string6StringECs5eBwyIsPj0k_14expressgateway
FNDA:60,_RNCNCNvMs0_NtCskwRMVHy5hME_7lb_quic8listenerNtB9_12QuicListener5spawn00Cs5eBwyIsPj0k_14expressgateway
FNDA:10,_RNCNCNvMs0_NtCskwRMVHy5hME_7lb_quic8listenerNtB9_12QuicListener5spawn0s0_0Cs5eBwyIsPj0k_14expressgateway
FNDA:1,_RNCNCNvMs0_NtCskwRMVHy5hME_7lb_quic8listenerNtB9_12QuicListener5spawn0s_0Cs5eBwyIsPj0k_14expressgateway
FNDA:10,_RNCNvMs0_NtCskwRMVHy5hME_7lb_quic8listenerNtB7_12QuicListener5spawn0Cs5eBwyIsPj0k_14expressgateway
FNDA:1,_RNCNCNvMs0_NtCskwRMVHy5hME_7lb_quic8listenerNtB9_12QuicListener5spawn00Csgs8wZQhYro8_16h3_h1_bridge_e2e
FNDA:1,_RNCNCNvMs0_NtCskwRMVHy5hME_7lb_quic8listenerNtB9_12QuicListener5spawn0s0_0Csgs8wZQhYro8_16h3_h1_bridge_e2e
FNDA:0,_RNCNCNvMs0_NtCskwRMVHy5hME_7lb_quic8listenerNtB9_12QuicListener5spawn0s_0Csgs8wZQhYro8_16h3_h1_bridge_e2e
FNDA:1,_RNCNvMs0_NtCskwRMVHy5hME_7lb_quic8listenerNtB7_12QuicListener5spawn0Csgs8wZQhYro8_16h3_h1_bridge_e2e
FNDA:24,_RNCNCNvMs0_NtCskwRMVHy5hME_7lb_quic8listenerNtB9_12QuicListener5spawn00CsjoM16Dnsg4N_21h3_h1_resp_stream_e2e
FNDA:24,_RNCNCNvMs0_NtCskwRMVHy5hME_7lb_quic8listenerNtB9_12QuicListener5spawn0s0_0CsjoM16Dnsg4N_21h3_h1_resp_stream_e2e
FNDA:0,_RNCNCNvMs0_NtCskwRMVHy5hME_7lb_quic8listenerNtB9_12QuicListener5spawn0s_0CsjoM16Dnsg4N_21h3_h1_resp_stream_e2e
FNDA:24,_RNCNvMs0_NtCskwRMVHy5hME_7lb_quic8listenerNtB7_12QuicListener5spawn0CsjoM16Dnsg4N_21h3_h1_resp_stream_e2e
FNDA:5,_RNCNCNvMs0_NtCskwRMVHy5hME_7lb_quic8listenerNtB9_12QuicListener5spawn00CseWHjW2OzaKz_21h3_h1_stream_body_e2e
FNDA:5,_RNCNCNvMs0_NtCskwRMVHy5hME_7lb_quic8listenerNtB9_12QuicListener5spawn0s0_0CseWHjW2OzaKz_21h3_h1_stream_body_e2e
FNDA:0,_RNCNCNvMs0_NtCskwRMVHy5hME_7lb_quic8listenerNtB9_12QuicListener5spawn0s_0CseWHjW2OzaKz_21h3_h1_stream_body_e2e
FNDA:5,_RNCNvMs0_NtCskwRMVHy5hME_7lb_quic8listenerNtB7_12QuicListener5spawn0CseWHjW2OzaKz_21h3_h1_stream_body_e2e
FNDA:3,_RNCNCNvMs0_NtCskwRMVHy5hME_7lb_quic8listenerNtB9_12QuicListener5spawn00CsefM5bzzyn6x_28h3_h1_stream_body_errors_e2e
FNDA:2,_RNCNCNvMs0_NtCskwRMVHy5hME_7lb_quic8listenerNtB9_12QuicListener5spawn0s0_0CsefM5bzzyn6x_28h3_h1_stream_body_errors_e2e
FNDA:0,_RNCNCNvMs0_NtCskwRMVHy5hME_7lb_quic8listenerNtB9_12QuicListener5spawn0s_0CsefM5bzzyn6x_28h3_h1_stream_body_errors_e2e
FNDA:2,_RNCNvMs0_NtCskwRMVHy5hME_7lb_quic8listenerNtB7_12QuicListener5spawn0CsefM5bzzyn6x_28h3_h1_stream_body_errors_e2e
FNDA:2,_RNCNCNvMs0_NtCskwRMVHy5hME_7lb_quic8listenerNtB9_12QuicListener5spawn00Cs9WUJZEdoSuF_23h3_h1_trailers_resp_e2e
FNDA:2,_RNCNCNvMs0_NtCskwRMVHy5hME_7lb_quic8listenerNtB9_12QuicListener5spawn0s0_0Cs9WUJZEdoSuF_23h3_h1_trailers_resp_e2e
FNDA:0,_RNCNCNvMs0_NtCskwRMVHy5hME_7lb_quic8listenerNtB9_12QuicListener5spawn0s_0Cs9WUJZEdoSuF_23h3_h1_trailers_resp_e2e
FNDA:2,_RNCNvMs0_NtCskwRMVHy5hME_7lb_quic8listenerNtB7_12QuicListener5spawn0Cs9WUJZEdoSuF_23h3_h1_trailers_resp_e2e
FNDA:8,_RNCNCNvMs0_NtCskwRMVHy5hME_7lb_quic8listenerNtB9_12QuicListener5spawn00CsjLwp8NPXG19_16h3_h2_stream_e2e
FNDA:8,_RNCNCNvMs0_NtCskwRMVHy5hME_7lb_quic8listenerNtB9_12QuicListener5spawn0s0_0CsjLwp8NPXG19_16h3_h2_stream_e2e
FNDA:8,_RNCNCNvMs0_NtCskwRMVHy5hME_7lb_quic8listenerNtB9_12QuicListener5spawn0s_0CsjLwp8NPXG19_16h3_h2_stream_e2e
FNDA:8,_RNCNvMs0_NtCskwRMVHy5hME_7lb_quic8listenerNtB7_12QuicListener5spawn0CsjLwp8NPXG19_16h3_h2_stream_e2e
FNDA:27,_RINvMs_NtCskwRMVHy5hME_7lb_quic8listenerNtB5_18QuicListenerParams15with_h3_backendReECs5Ta4oEBptWq_16h3_h3_stream_e2e
FNDA:146,_RNCNCNvMs0_NtCskwRMVHy5hME_7lb_quic8listenerNtB9_12QuicListener5spawn00Cs5Ta4oEBptWq_16h3_h3_stream_e2e
FNDA:27,_RNCNCNvMs0_NtCskwRMVHy5hME_7lb_quic8listenerNtB9_12QuicListener5spawn0s0_0Cs5Ta4oEBptWq_16h3_h3_stream_e2e
FNDA:27,_RNCNCNvMs0_NtCskwRMVHy5hME_7lb_quic8listenerNtB9_12QuicListener5spawn0s_0Cs5Ta4oEBptWq_16h3_h3_stream_e2e
FNDA:27,_RNCNvMs0_NtCskwRMVHy5hME_7lb_quic8listenerNtB7_12QuicListener5spawn0Cs5Ta4oEBptWq_16h3_h3_stream_e2e
FNDA:0,_RINvMs_NtCsfUjBKV2B3Gc_7lb_quic8listenerNtB5_18QuicListenerParams15with_h3_backendpEB7_
FNDA:0,_RNCNCNvMs0_NtCsfUjBKV2B3Gc_7lb_quic8listenerNtB9_12QuicListener5spawn00Bb_
FNDA:0,_RNCNCNvMs0_NtCsfUjBKV2B3Gc_7lb_quic8listenerNtB9_12QuicListener5spawn0s0_0Bb_
FNDA:0,_RNCNCNvMs0_NtCsfUjBKV2B3Gc_7lb_quic8listenerNtB9_12QuicListener5spawn0s_0Bb_
FNDA:0,_RNCNvMs0_NtCsfUjBKV2B3Gc_7lb_quic8listenerNtB7_12QuicListener5spawn0B9_
FNDA:0,_RNCNvNtCsfUjBKV2B3Gc_7lb_quic8listener29load_or_generate_retry_secret0B5_
FNDA:0,_RNvMs0_NtCsfUjBKV2B3Gc_7lb_quic8listenerNtB5_12QuicListener10local_addr
FNDA:0,_RNvMs0_NtCsfUjBKV2B3Gc_7lb_quic8listenerNtB5_12QuicListener12replay_guard
FNDA:0,_RNvMs0_NtCsfUjBKV2B3Gc_7lb_quic8listenerNtB5_12QuicListener12retry_signer
FNDA:0,_RNvMs0_NtCsfUjBKV2B3Gc_7lb_quic8listenerNtB5_12QuicListener5spawn
FNDA:0,_RNvMs0_NtCsfUjBKV2B3Gc_7lb_quic8listenerNtB5_12QuicListener8shutdown
FNDA:0,_RNvMs_NtCsfUjBKV2B3Gc_7lb_quic8listenerNtB4_18QuicListenerParams13with_backends
FNDA:0,_RNvMs_NtCsfUjBKV2B3Gc_7lb_quic8listenerNtB4_18QuicListenerParams14with_websocket
FNDA:0,_RNvMs_NtCsfUjBKV2B3Gc_7lb_quic8listenerNtB4_18QuicListenerParams15with_h2_backend
FNDA:0,_RNvMs_NtCsfUjBKV2B3Gc_7lb_quic8listenerNtB4_18QuicListenerParams16with_raw_backend
FNDA:0,_RNvMs_NtCsfUjBKV2B3Gc_7lb_quic8listenerNtB4_18QuicListenerParams22with_ws_relay_launcher
FNDA:0,_RNvMs_NtCsfUjBKV2B3Gc_7lb_quic8listenerNtB4_18QuicListenerParams3new
FNDA:0,_RNvNtCsfUjBKV2B3Gc_7lb_quic8listener17write_secret_file
FNDA:0,_RNvNtCsfUjBKV2B3Gc_7lb_quic8listener19build_server_config
FNDA:0,_RNvNtCsfUjBKV2B3Gc_7lb_quic8listener29load_or_generate_retry_secret
FNDA:0,_RNvXNtCsfUjBKV2B3Gc_7lb_quic8listenerNtB2_18QuicListenerParamsNtNtCs2va5m0jqTTM_4core3fmt5Debug3fmt
FNDA:3,_RNCNCNvMs0_NtCskwRMVHy5hME_7lb_quic8listenerNtB9_12QuicListener5spawn00Cs7pyukkf76a7_18listener_lifecycle
FNDA:7,_RNCNCNvMs0_NtCskwRMVHy5hME_7lb_quic8listenerNtB9_12QuicListener5spawn0s0_0Cs7pyukkf76a7_18listener_lifecycle
FNDA:7,_RNCNCNvMs0_NtCskwRMVHy5hME_7lb_quic8listenerNtB9_12QuicListener5spawn0s_0Cs7pyukkf76a7_18listener_lifecycle
FNDA:7,_RNCNvMs0_NtCskwRMVHy5hME_7lb_quic8listenerNtB7_12QuicListener5spawn0Cs7pyukkf76a7_18listener_lifecycle
FNDA:3,_RNCNCNvMs0_NtCskwRMVHy5hME_7lb_quic8listenerNtB9_12QuicListener5spawn00Cs4Lg9VvzKj6M_18router_accept_path
FNDA:3,_RNCNCNvMs0_NtCskwRMVHy5hME_7lb_quic8listenerNtB9_12QuicListener5spawn0s0_0Cs4Lg9VvzKj6M_18router_accept_path
FNDA:3,_RNCNCNvMs0_NtCskwRMVHy5hME_7lb_quic8listenerNtB9_12QuicListener5spawn0s_0Cs4Lg9VvzKj6M_18router_accept_path
FNDA:3,_RNCNvMs0_NtCskwRMVHy5hME_7lb_quic8listenerNtB7_12QuicListener5spawn0Cs4Lg9VvzKj6M_18router_accept_path
FNF:21
FNH:19
DA:118,0
DA:119,0
DA:120,0
DA:121,0
DA:122,0
DA:123,0
DA:124,0
DA:125,0
DA:126,0
DA:127,0
DA:128,0
DA:129,0
DA:130,0
DA:131,0
DA:132,0
DA:133,0
DA:134,0
DA:135,0
DA:136,0
DA:137,0
DA:144,94
DA:145,94
DA:146,94
DA:147,94
DA:148,94
DA:149,94
DA:150,94
DA:151,94
DA:152,94
DA:153,94
DA:154,94
DA:155,94
DA:156,94
DA:157,94
DA:158,94
DA:159,94
DA:160,94
DA:161,94
DA:162,94
DA:163,94
DA:164,94
DA:165,94
DA:166,94
DA:167,94
DA:168,94
DA:169,94
DA:170,94
DA:171,94
DA:172,94
DA:173,94
DA:174,94
DA:175,94
DA:176,94
DA:181,44
DA:182,44
DA:183,44
DA:184,44
DA:185,44
DA:191,28
DA:192,28
DA:193,28
DA:194,28
DA:195,28
DA:196,28
DA:197,28
DA:198,28
DA:199,28
DA:205,9
DA:206,9
DA:207,9
DA:208,9
DA:219,2
DA:220,2
DA:221,2
DA:222,2
DA:223,2
DA:224,2
DA:225,2
DA:226,2
DA:227,2
DA:228,2
DA:229,2
DA:242,8
DA:243,8
DA:244,8
DA:245,8
DA:257,7
DA:258,7
DA:259,7
DA:260,7
DA:283,89
DA:284,89
DA:285,89
DA:286,89
DA:287,89
DA:288,89
DA:289,89
DA:291,89
DA:292,89
DA:293,89
DA:294,89
DA:295,89
DA:296,89
DA:299,0
DA:300,0
DA:301,0
DA:302,0
DA:310,89
DA:311,89
DA:312,89
DA:313,89
DA:314,89
DA:315,89
DA:316,89
DA:317,89
DA:318,89
DA:319,89
DA:320,89
DA:321,89
DA:322,255
DA:323,255
DA:324,255
DA:325,255
DA:326,255
DA:327,255
DA:328,255
DA:329,255
DA:330,255
DA:331,255
DA:332,89
DA:333,89
DA:334,89
DA:335,89
DA:336,89
DA:337,46
DA:338,46
DA:339,46
DA:340,46
DA:341,46
DA:342,46
DA:343,46
DA:344,46
DA:345,46
DA:346,46
DA:347,46
DA:348,46
DA:349,46
DA:350,89
DA:351,89
DA:352,89
DA:353,89
DA:354,89
DA:355,89
DA:356,89
DA:357,89
DA:358,89
DA:359,89
DA:360,89
DA:361,89
DA:362,89
DA:363,89
DA:364,89
DA:365,89
DA:366,89
DA:367,89
DA:368,89
DA:369,89
DA:370,89
DA:371,89
DA:372,89
DA:373,89
DA:374,89
DA:375,89
DA:376,89
DA:377,89
DA:378,89
DA:379,89
DA:380,89
DA:381,89
DA:382,89
DA:383,89
DA:384,89
DA:385,0
DA:386,89
DA:387,89
DA:388,89
DA:389,89
DA:390,89
DA:391,89
DA:392,89
DA:393,89
DA:394,89
DA:395,89
DA:396,89
DA:397,89
DA:401,86
DA:402,86
DA:403,86
DA:407,2
DA:408,2
DA:409,2
DA:413,1
DA:414,1
DA:415,1
DA:419,89
DA:420,89
DA:421,89
DA:422,89
DA:425,89
DA:426,89
DA:427,3
DA:428,3
DA:429,0
DA:430,0
DA:431,0
DA:432,0
DA:433,0
DA:434,0
DA:435,3
DA:436,3
DA:437,3
DA:438,3
DA:439,3
DA:440,3
DA:441,3
DA:442,3
DA:444,86
DA:445,86
DA:446,86
DA:447,86
DA:448,0
DA:449,0
DA:450,86
DA:451,86
DA:452,86
DA:453,86
DA:454,86
DA:456,0
DA:458,89
DA:461,86
DA:464,86
DA:465,86
DA:466,86
DA:467,86
DA:468,86
DA:469,86
DA:470,86
DA:471,86
DA:472,86
DA:489,255
DA:490,255
DA:491,255
DA:492,255
DA:493,255
DA:494,255
DA:495,255
DA:496,255
DA:497,255
DA:498,255
DA:499,255
DA:500,255
DA:501,255
DA:502,255
DA:503,255
DA:504,255
DA:505,255
DA:506,255
DA:507,255
DA:508,255
DA:509,255
DA:510,255
DA:511,255
DA:512,1
DA:513,254
DA:514,255
DA:515,255
DA:516,255
DA:517,255
DA:518,255
DA:519,255
BRF:0
BRH:0
LF:288
LH:253
end_of_record
SF:/home/ubuntu/Code/ExpressGateway/crates/lb-quic/src/passthrough.rs
FN:1206,_RNCNCNCNCNvMs1_NtCskwRMVHy5hME_7lb_quic11passthroughNtBd_19PassthroughListener5spawn0s1_000Bf_
FN:1202,_RNCNCNCNvMs1_NtCskwRMVHy5hME_7lb_quic11passthroughNtBb_19PassthroughListener5spawn0s1_00Bd_
FN:1139,_RNCNCNvMs1_NtCskwRMVHy5hME_7lb_quic11passthroughNtB9_19PassthroughListener5spawn00Bb_
FN:1159,_RNCNCNvMs1_NtCskwRMVHy5hME_7lb_quic11passthroughNtB9_19PassthroughListener5spawn0s0_0Bb_
FN:1200,_RNCNCNvMs1_NtCskwRMVHy5hME_7lb_quic11passthroughNtB9_19PassthroughListener5spawn0s1_0Bb_
FN:1149,_RNCNCNvMs1_NtCskwRMVHy5hME_7lb_quic11passthroughNtB9_19PassthroughListener5spawn0s_0Bb_
FN:980,_RNCNCNvNtCskwRMVHy5hME_7lb_quic11passthrough12reverse_pump00B7_
FN:1024,_RNCNCNvNtCskwRMVHy5hME_7lb_quic11passthrough13forward_short00B7_
FN:1025,_RNCNCNvNtCskwRMVHy5hME_7lb_quic11passthrough13forward_short0s_0B7_
FN:916,_RNCNCNvNtCskwRMVHy5hME_7lb_quic11passthrough14handle_initial00B7_
FN:940,_RNCNCNvNtCskwRMVHy5hME_7lb_quic11passthrough14handle_initial0s_0B7_
FN:1129,_RNCNvMs1_NtCskwRMVHy5hME_7lb_quic11passthroughNtB7_19PassthroughListener5spawn0B9_
FN:944,_RNCNvNtCskwRMVHy5hME_7lb_quic11passthrough12reverse_pump0B5_
FN:1006,_RNCNvNtCskwRMVHy5hME_7lb_quic11passthrough13forward_short0B5_
FN:689,_RNCNvNtCskwRMVHy5hME_7lb_quic11passthrough14handle_inbound0B5_
FN:749,_RNCNvNtCskwRMVHy5hME_7lb_quic11passthrough14handle_initial0B5_
FN:667,_RNCNvNtCskwRMVHy5hME_7lb_quic11passthrough16run_idle_sweeper0B5_
FN:995,_RNCNvNtCskwRMVHy5hME_7lb_quic11passthrough21forward_long_existing0B5_
FN:284,_RNvNtCskwRMVHy5hME_7lb_quic11passthrough23__flow_entry_field_audit
FN:608,_RNCNCNvNtCskwRMVHy5hME_7lb_quic11passthrough13reclaim_flows00B7_
FN:609,_RNCNCNvNtCskwRMVHy5hME_7lb_quic11passthrough13reclaim_flows0s_0B7_
FN:522,_RNCNvNtCskwRMVHy5hME_7lb_quic11passthrough11audit_allow0B5_
FN:605,_RNCNvNtCskwRMVHy5hME_7lb_quic11passthrough13reclaim_flows0B5_
FN:621,_RNCNvNtCskwRMVHy5hME_7lb_quic11passthrough13reclaim_flowss_0B5_
FN:646,_RNCNvNtCskwRMVHy5hME_7lb_quic11passthrough16sweep_idle_flows0B5_
FN:411,_RNCNvNtCskwRMVHy5hME_7lb_quic11passthrough18build_retry_packet0B5_
FN:420,_RNCNvNtCskwRMVHy5hME_7lb_quic11passthrough18build_retry_packets_0B5_
FN:1285,_RNCNvNtCskwRMVHy5hME_7lb_quic11passthrough29load_or_generate_retry_secret0B5_
FN:248,_RNvXs_NtCskwRMVHy5hME_7lb_quic11passthroughNtB4_9FlowEntryNtNtNtCs2va5m0jqTTM_4core3ops4drop4Drop4drop
FN:152,_RNvMNtCskwRMVHy5hME_7lb_quic11passthroughNtB2_17PassthroughParams3new
FN:256,_RNvMs0_NtCskwRMVHy5hME_7lb_quic11passthroughNtB5_9FlowEntry5touch
FN:268,_RNvMs0_NtCskwRMVHy5hME_7lb_quic11passthroughNtB5_9FlowEntry8get_peer
FN:263,_RNvMs0_NtCskwRMVHy5hME_7lb_quic11passthroughNtB5_9FlowEntry8set_peer
FN:1230,_RNvMs1_NtCskwRMVHy5hME_7lb_quic11passthroughNtB5_19PassthroughListener10local_addr
FN:1126,_RNvMs1_NtCskwRMVHy5hME_7lb_quic11passthroughNtB5_19PassthroughListener5spawn
FN:1246,_RNvMs1_NtCskwRMVHy5hME_7lb_quic11passthroughNtB5_19PassthroughListener8shutdown
FN:1239,_RNvMs1_NtCskwRMVHy5hME_7lb_quic11passthroughNtB5_19PassthroughListener9flows_len
FN:1098,_RNvNtCskwRMVHy5hME_7lb_quic11passthrough10elapsed_ms
FN:519,_RNvNtCskwRMVHy5hME_7lb_quic11passthrough11audit_allow
FN:556,_RNvNtCskwRMVHy5hME_7lb_quic11passthrough12evict_oldest
FN:533,_RNvNtCskwRMVHy5hME_7lb_quic11passthrough12pick_backend
FN:944,_RNvNtCskwRMVHy5hME_7lb_quic11passthrough12reverse_pump
FN:1006,_RNvNtCskwRMVHy5hME_7lb_quic11passthrough13forward_short
FN:593,_RNvNtCskwRMVHy5hME_7lb_quic11passthrough13reclaim_flows
FN:689,_RNvNtCskwRMVHy5hME_7lb_quic11passthrough14handle_inbound
FN:741,_RNvNtCskwRMVHy5hME_7lb_quic11passthrough14handle_initial
FN:1085,_RNvNtCskwRMVHy5hME_7lb_quic11passthrough14sample_lb_scid
FN:545,_RNvNtCskwRMVHy5hME_7lb_quic11passthrough15set_flows_gauge
FN:662,_RNvNtCskwRMVHy5hME_7lb_quic11passthrough16run_idle_sweeper
FN:640,_RNvNtCskwRMVHy5hME_7lb_quic11passthrough16sweep_idle_flows
FN:1052,_RNvNtCskwRMVHy5hME_7lb_quic11passthrough17forward_short_via
FN:1294,_RNvNtCskwRMVHy5hME_7lb_quic11passthrough17write_secret_file
FN:369,_RNvNtCskwRMVHy5hME_7lb_quic11passthrough18build_retry_packet
FN:320,_RNvNtCskwRMVHy5hME_7lb_quic11passthrough20hash_dcid_for_maglev
FN:995,_RNvNtCskwRMVHy5hME_7lb_quic11passthrough21forward_long_existing
FN:736,_RNvNtCskwRMVHy5hME_7lb_quic11passthrough22default_short_dcid_len
FN:460,_RNvNtCskwRMVHy5hME_7lb_quic11passthrough24__test_build_retry_packet
FN:1258,_RNvNtCskwRMVHy5hME_7lb_quic11passthrough29load_or_generate_retry_secret
FN:1206,_RNCNCNCNCNvMs1_NtCskwRMVHy5hME_7lb_quic11passthroughNtBd_19PassthroughListener5spawn0s1_000Csg9xlZenf2AU_14expressgateway
FN:1202,_RNCNCNCNvMs1_NtCskwRMVHy5hME_7lb_quic11passthroughNtBb_19PassthroughListener5spawn0s1_00Csg9xlZenf2AU_14expressgateway
FN:1139,_RNCNCNvMs1_NtCskwRMVHy5hME_7lb_quic11passthroughNtB9_19PassthroughListener5spawn00Csg9xlZenf2AU_14expressgateway
FN:1159,_RNCNCNvMs1_NtCskwRMVHy5hME_7lb_quic11passthroughNtB9_19PassthroughListener5spawn0s0_0Csg9xlZenf2AU_14expressgateway
FN:1200,_RNCNCNvMs1_NtCskwRMVHy5hME_7lb_quic11passthroughNtB9_19PassthroughListener5spawn0s1_0Csg9xlZenf2AU_14expressgateway
FN:1149,_RNCNCNvMs1_NtCskwRMVHy5hME_7lb_quic11passthroughNtB9_19PassthroughListener5spawn0s_0Csg9xlZenf2AU_14expressgateway
FN:980,_RNCNCNvNtCskwRMVHy5hME_7lb_quic11passthrough12reverse_pump00Csg9xlZenf2AU_14expressgateway
FN:1024,_RNCNCNvNtCskwRMVHy5hME_7lb_quic11passthrough13forward_short00Csg9xlZenf2AU_14expressgateway
FN:1025,_RNCNCNvNtCskwRMVHy5hME_7lb_quic11passthrough13forward_short0s_0Csg9xlZenf2AU_14expressgateway
FN:916,_RNCNCNvNtCskwRMVHy5hME_7lb_quic11passthrough14handle_initial00Csg9xlZenf2AU_14expressgateway
FN:940,_RNCNCNvNtCskwRMVHy5hME_7lb_quic11passthrough14handle_initial0s_0Csg9xlZenf2AU_14expressgateway
FN:1129,_RNCNvMs1_NtCskwRMVHy5hME_7lb_quic11passthroughNtB7_19PassthroughListener5spawn0Csg9xlZenf2AU_14expressgateway
FN:944,_RNCNvNtCskwRMVHy5hME_7lb_quic11passthrough12reverse_pump0Csg9xlZenf2AU_14expressgateway
FN:1006,_RNCNvNtCskwRMVHy5hME_7lb_quic11passthrough13forward_short0Csg9xlZenf2AU_14expressgateway
FN:689,_RNCNvNtCskwRMVHy5hME_7lb_quic11passthrough14handle_inbound0Csg9xlZenf2AU_14expressgateway
FN:749,_RNCNvNtCskwRMVHy5hME_7lb_quic11passthrough14handle_initial0Csg9xlZenf2AU_14expressgateway
FN:667,_RNCNvNtCskwRMVHy5hME_7lb_quic11passthrough16run_idle_sweeper0Csg9xlZenf2AU_14expressgateway
FN:995,_RNCNvNtCskwRMVHy5hME_7lb_quic11passthrough21forward_long_existing0Csg9xlZenf2AU_14expressgateway
FN:248,_RNvXs_NtCsfUjBKV2B3Gc_7lb_quic11passthroughNtB4_9FlowEntryNtNtNtCs2va5m0jqTTM_4core3ops4drop4Drop4drop
FN:1206,_RNCNCNCNCNvMs1_NtCsfUjBKV2B3Gc_7lb_quic11passthroughNtBd_19PassthroughListener5spawn0s1_000Bf_
FN:1202,_RNCNCNCNvMs1_NtCsfUjBKV2B3Gc_7lb_quic11passthroughNtBb_19PassthroughListener5spawn0s1_00Bd_
FN:1139,_RNCNCNvMs1_NtCsfUjBKV2B3Gc_7lb_quic11passthroughNtB9_19PassthroughListener5spawn00Bb_
FN:1159,_RNCNCNvMs1_NtCsfUjBKV2B3Gc_7lb_quic11passthroughNtB9_19PassthroughListener5spawn0s0_0Bb_
FN:1200,_RNCNCNvMs1_NtCsfUjBKV2B3Gc_7lb_quic11passthroughNtB9_19PassthroughListener5spawn0s1_0Bb_
FN:1149,_RNCNCNvMs1_NtCsfUjBKV2B3Gc_7lb_quic11passthroughNtB9_19PassthroughListener5spawn0s_0Bb_
FN:1129,_RNCNvMs1_NtCsfUjBKV2B3Gc_7lb_quic11passthroughNtB7_19PassthroughListener5spawn0B9_
FN:689,_RNCNvNtCsfUjBKV2B3Gc_7lb_quic11passthrough14handle_inbound0B5_
FN:995,_RNCNvNtCsfUjBKV2B3Gc_7lb_quic11passthrough21forward_long_existing0B5_
FN:1230,_RNvMs1_NtCsfUjBKV2B3Gc_7lb_quic11passthroughNtB5_19PassthroughListener10local_addr
FN:1126,_RNvMs1_NtCsfUjBKV2B3Gc_7lb_quic11passthroughNtB5_19PassthroughListener5spawn
FN:1246,_RNvMs1_NtCsfUjBKV2B3Gc_7lb_quic11passthroughNtB5_19PassthroughListener8shutdown
FN:1239,_RNvMs1_NtCsfUjBKV2B3Gc_7lb_quic11passthroughNtB5_19PassthroughListener9flows_len
FN:689,_RNvNtCsfUjBKV2B3Gc_7lb_quic11passthrough14handle_inbound
FN:995,_RNvNtCsfUjBKV2B3Gc_7lb_quic11passthrough21forward_long_existing
FN:736,_RNvNtCsfUjBKV2B3Gc_7lb_quic11passthrough22default_short_dcid_len
FN:460,_RNvNtCsfUjBKV2B3Gc_7lb_quic11passthrough24__test_build_retry_packet
FN:152,_RNvMNtCsfUjBKV2B3Gc_7lb_quic11passthroughNtB2_17PassthroughParams3new
FN:256,_RNvMs0_NtCsfUjBKV2B3Gc_7lb_quic11passthroughNtB5_9FlowEntry5touch
FN:268,_RNvMs0_NtCsfUjBKV2B3Gc_7lb_quic11passthroughNtB5_9FlowEntry8get_peer
FN:263,_RNvMs0_NtCsfUjBKV2B3Gc_7lb_quic11passthroughNtB5_9FlowEntry8set_peer
FN:1098,_RNvNtCsfUjBKV2B3Gc_7lb_quic11passthrough10elapsed_ms
FN:519,_RNvNtCsfUjBKV2B3Gc_7lb_quic11passthrough11audit_allow
FN:556,_RNvNtCsfUjBKV2B3Gc_7lb_quic11passthrough12evict_oldest
FN:533,_RNvNtCsfUjBKV2B3Gc_7lb_quic11passthrough12pick_backend
FN:944,_RNvNtCsfUjBKV2B3Gc_7lb_quic11passthrough12reverse_pump
FN:1006,_RNvNtCsfUjBKV2B3Gc_7lb_quic11passthrough13forward_short
FN:593,_RNvNtCsfUjBKV2B3Gc_7lb_quic11passthrough13reclaim_flows
FN:741,_RNvNtCsfUjBKV2B3Gc_7lb_quic11passthrough14handle_initial
FN:1085,_RNvNtCsfUjBKV2B3Gc_7lb_quic11passthrough14sample_lb_scid
FN:545,_RNvNtCsfUjBKV2B3Gc_7lb_quic11passthrough15set_flows_gauge
FN:662,_RNvNtCsfUjBKV2B3Gc_7lb_quic11passthrough16run_idle_sweeper
FN:640,_RNvNtCsfUjBKV2B3Gc_7lb_quic11passthrough16sweep_idle_flows
FN:1052,_RNvNtCsfUjBKV2B3Gc_7lb_quic11passthrough17forward_short_via
FN:1294,_RNvNtCsfUjBKV2B3Gc_7lb_quic11passthrough17write_secret_file
FN:369,_RNvNtCsfUjBKV2B3Gc_7lb_quic11passthrough18build_retry_packet
FN:320,_RNvNtCsfUjBKV2B3Gc_7lb_quic11passthrough20hash_dcid_for_maglev
FN:284,_RNvNtCsfUjBKV2B3Gc_7lb_quic11passthrough23__flow_entry_field_audit
FN:1258,_RNvNtCsfUjBKV2B3Gc_7lb_quic11passthrough29load_or_generate_retry_secret
FN:1489,_RNvNtNtCsfUjBKV2B3Gc_7lb_quic11passthrough5tests2rt
FN:1433,_RNvNtNtCsfUjBKV2B3Gc_7lb_quic11passthrough5tests8loopback
FN:1361,_RNvNtNtCsfUjBKV2B3Gc_7lb_quic11passthrough5testss_24retry_packet_byte_layout
FN:1319,_RNvNtNtCsfUjBKV2B3Gc_7lb_quic11passthrough5testss_25flow_entry_audit_compiles
FN:1929,_RNvNtNtCsfUjBKV2B3Gc_7lb_quic11passthrough5testss_25retry_secret_loader_edges
FN:1981,_RNvNtNtCsfUjBKV2B3Gc_7lb_quic11passthrough5testss_26audit_allow_one_per_window
FN:1391,_RNvNtNtCsfUjBKV2B3Gc_7lb_quic11passthrough5testss_26retry_packet_deterministic
FN:1960,_RNvNtNtCsfUjBKV2B3Gc_7lb_quic11passthrough5testss_29pick_backend_is_deterministic
FN:1499,_RNvNtNtCsfUjBKV2B3Gc_7lb_quic11passthrough5testss_31min_client_dcid_len_floor_table
FN:1605,_RNvNtNtCsfUjBKV2B3Gc_7lb_quic11passthrough5testss_31token_verify_reject_then_accept
FN:1852,_RNvNtNtCsfUjBKV2B3Gc_7lb_quic11passthrough5testss_37forward_short_via_strict_source_table
FN:1578,_RNvNtNtCsfUjBKV2B3Gc_7lb_quic11passthrough5testss_37mint_retry_false_forwards_and_inserts
FN:1653,_RNvNtNtCsfUjBKV2B3Gc_7lb_quic11passthrough5testss_40evict_oldest_at_cap_and_negative_control
FN:1890,_RNvNtNtCsfUjBKV2B3Gc_7lb_quic11passthrough5testss_40forward_short_multi_length_fallback_hits
FN:1541,_RNvNtNtCsfUjBKV2B3Gc_7lb_quic11passthrough5testss_41mint_retry_true_mints_and_does_not_insert
FN:1714,_RNvNtNtCsfUjBKV2B3Gc_7lb_quic11passthrough5testss_45idle_sweep_reclaims_idle_flows_and_frees_them
FN:1405,_RNvNtNtCsfUjBKV2B3Gc_7lb_quic11passthrough5testss_47passthrough_params_defaults_match_owner_rulings
FN:1793,_RNvNtNtCsfUjBKV2B3Gc_7lb_quic11passthrough5testss_58idle_sweeper_task_reaps_periodically_and_stops_on_shutdown
FN:980,_RNCNCNvNtCsfUjBKV2B3Gc_7lb_quic11passthrough12reverse_pump00B7_
FN:1024,_RNCNCNvNtCsfUjBKV2B3Gc_7lb_quic11passthrough13forward_short00B7_
FN:1025,_RNCNCNvNtCsfUjBKV2B3Gc_7lb_quic11passthrough13forward_short0s_0B7_
FN:608,_RNCNCNvNtCsfUjBKV2B3Gc_7lb_quic11passthrough13reclaim_flows00B7_
FN:609,_RNCNCNvNtCsfUjBKV2B3Gc_7lb_quic11passthrough13reclaim_flows0s_0B7_
FN:916,_RNCNCNvNtCsfUjBKV2B3Gc_7lb_quic11passthrough14handle_initial00B7_
FN:940,_RNCNCNvNtCsfUjBKV2B3Gc_7lb_quic11passthrough14handle_initial0s_0B7_
FN:522,_RNCNvNtCsfUjBKV2B3Gc_7lb_quic11passthrough11audit_allow0B5_
FN:944,_RNCNvNtCsfUjBKV2B3Gc_7lb_quic11passthrough12reverse_pump0B5_
FN:1006,_RNCNvNtCsfUjBKV2B3Gc_7lb_quic11passthrough13forward_short0B5_
FN:605,_RNCNvNtCsfUjBKV2B3Gc_7lb_quic11passthrough13reclaim_flows0B5_
FN:621,_RNCNvNtCsfUjBKV2B3Gc_7lb_quic11passthrough13reclaim_flowss_0B5_
FN:749,_RNCNvNtCsfUjBKV2B3Gc_7lb_quic11passthrough14handle_initial0B5_
FN:667,_RNCNvNtCsfUjBKV2B3Gc_7lb_quic11passthrough16run_idle_sweeper0B5_
FN:646,_RNCNvNtCsfUjBKV2B3Gc_7lb_quic11passthrough16sweep_idle_flows0B5_
FN:411,_RNCNvNtCsfUjBKV2B3Gc_7lb_quic11passthrough18build_retry_packet0B5_
FN:420,_RNCNvNtCsfUjBKV2B3Gc_7lb_quic11passthrough18build_retry_packets_0B5_
FN:1285,_RNCNvNtCsfUjBKV2B3Gc_7lb_quic11passthrough29load_or_generate_retry_secret0B5_
FN:1441,_RINvNtNtCsfUjBKV2B3Gc_7lb_quic11passthrough5tests8test_ctxNCNCNvB2_s_29pick_backend_is_deterministic00EB6_
FN:1441,_RINvNtNtCsfUjBKV2B3Gc_7lb_quic11passthrough5tests8test_ctxNCNCNvB2_s_31min_client_dcid_len_floor_table00EB6_
FN:1441,_RINvNtNtCsfUjBKV2B3Gc_7lb_quic11passthrough5tests8test_ctxNCNCNvB2_s_31token_verify_reject_then_accept00EB6_
FN:1441,_RINvNtNtCsfUjBKV2B3Gc_7lb_quic11passthrough5tests8test_ctxNCNCNvB2_s_31token_verify_reject_then_accept0s_0EB6_
FN:1441,_RINvNtNtCsfUjBKV2B3Gc_7lb_quic11passthrough5tests8test_ctxNCNCNvB2_s_37forward_short_via_strict_source_table00EB6_
FN:1441,_RINvNtNtCsfUjBKV2B3Gc_7lb_quic11passthrough5tests8test_ctxNCNCNvB2_s_37mint_retry_false_forwards_and_inserts00EB6_
FN:1441,_RINvNtNtCsfUjBKV2B3Gc_7lb_quic11passthrough5tests8test_ctxNCNCNvB2_s_40evict_oldest_at_cap_and_negative_control00EB6_
FN:1441,_RINvNtNtCsfUjBKV2B3Gc_7lb_quic11passthrough5tests8test_ctxNCNCNvB2_s_40evict_oldest_at_cap_and_negative_control0s_0EB6_
FN:1441,_RINvNtNtCsfUjBKV2B3Gc_7lb_quic11passthrough5tests8test_ctxNCNCNvB2_s_40forward_short_multi_length_fallback_hits00EB6_
FN:1441,_RINvNtNtCsfUjBKV2B3Gc_7lb_quic11passthrough5tests8test_ctxNCNCNvB2_s_41mint_retry_true_mints_and_does_not_insert00EB6_
FN:1441,_RINvNtNtCsfUjBKV2B3Gc_7lb_quic11passthrough5tests8test_ctxNCNCNvB2_s_45idle_sweep_reclaims_idle_flows_and_frees_them00EB6_
FN:1441,_RINvNtNtCsfUjBKV2B3Gc_7lb_quic11passthrough5tests8test_ctxNCNCNvB2_s_58idle_sweeper_task_reaps_periodically_and_stops_on_shutdown00EB6_
FN:1443,_RNCINvNtNtCsfUjBKV2B3Gc_7lb_quic11passthrough5tests8test_ctxNCNCNvB4_s_29pick_backend_is_deterministic00E0B8_
FN:1443,_RNCINvNtNtCsfUjBKV2B3Gc_7lb_quic11passthrough5tests8test_ctxNCNCNvB4_s_31min_client_dcid_len_floor_table00E0B8_
FN:1443,_RNCINvNtNtCsfUjBKV2B3Gc_7lb_quic11passthrough5tests8test_ctxNCNCNvB4_s_31token_verify_reject_then_accept00E0B8_
FN:1443,_RNCINvNtNtCsfUjBKV2B3Gc_7lb_quic11passthrough5tests8test_ctxNCNCNvB4_s_31token_verify_reject_then_accept0s_0E0B8_
FN:1443,_RNCINvNtNtCsfUjBKV2B3Gc_7lb_quic11passthrough5tests8test_ctxNCNCNvB4_s_37forward_short_via_strict_source_table00E0B8_
FN:1443,_RNCINvNtNtCsfUjBKV2B3Gc_7lb_quic11passthrough5tests8test_ctxNCNCNvB4_s_37mint_retry_false_forwards_and_inserts00E0B8_
FN:1443,_RNCINvNtNtCsfUjBKV2B3Gc_7lb_quic11passthrough5tests8test_ctxNCNCNvB4_s_40evict_oldest_at_cap_and_negative_control00E0B8_
FN:1443,_RNCINvNtNtCsfUjBKV2B3Gc_7lb_quic11passthrough5tests8test_ctxNCNCNvB4_s_40evict_oldest_at_cap_and_negative_control0s_0E0B8_
FN:1443,_RNCINvNtNtCsfUjBKV2B3Gc_7lb_quic11passthrough5tests8test_ctxNCNCNvB4_s_40forward_short_multi_length_fallback_hits00E0B8_
FN:1443,_RNCINvNtNtCsfUjBKV2B3Gc_7lb_quic11passthrough5tests8test_ctxNCNCNvB4_s_41mint_retry_true_mints_and_does_not_insert00E0B8_
FN:1443,_RNCINvNtNtCsfUjBKV2B3Gc_7lb_quic11passthrough5tests8test_ctxNCNCNvB4_s_45idle_sweep_reclaims_idle_flows_and_frees_them00E0B8_
FN:1443,_RNCINvNtNtCsfUjBKV2B3Gc_7lb_quic11passthrough5tests8test_ctxNCNCNvB4_s_58idle_sweeper_task_reaps_periodically_and_stops_on_shutdown00E0B8_
FN:1464,_RNCNCINvNtNtCsfUjBKV2B3Gc_7lb_quic11passthrough5tests8test_ctxNCNCNvB6_s_29pick_backend_is_deterministic00E00Ba_
FN:1464,_RNCNCINvNtNtCsfUjBKV2B3Gc_7lb_quic11passthrough5tests8test_ctxNCNCNvB6_s_31min_client_dcid_len_floor_table00E00Ba_
FN:1464,_RNCNCINvNtNtCsfUjBKV2B3Gc_7lb_quic11passthrough5tests8test_ctxNCNCNvB6_s_31token_verify_reject_then_accept00E00Ba_
FN:1464,_RNCNCINvNtNtCsfUjBKV2B3Gc_7lb_quic11passthrough5tests8test_ctxNCNCNvB6_s_31token_verify_reject_then_accept0s_0E00Ba_
FN:1464,_RNCNCINvNtNtCsfUjBKV2B3Gc_7lb_quic11passthrough5tests8test_ctxNCNCNvB6_s_37forward_short_via_strict_source_table00E00Ba_
FN:1464,_RNCNCINvNtNtCsfUjBKV2B3Gc_7lb_quic11passthrough5tests8test_ctxNCNCNvB6_s_37mint_retry_false_forwards_and_inserts00E00Ba_
FN:1464,_RNCNCINvNtNtCsfUjBKV2B3Gc_7lb_quic11passthrough5tests8test_ctxNCNCNvB6_s_40evict_oldest_at_cap_and_negative_control00E00Ba_
FN:1464,_RNCNCINvNtNtCsfUjBKV2B3Gc_7lb_quic11passthrough5tests8test_ctxNCNCNvB6_s_40evict_oldest_at_cap_and_negative_control0s_0E00Ba_
FN:1464,_RNCNCINvNtNtCsfUjBKV2B3Gc_7lb_quic11passthrough5tests8test_ctxNCNCNvB6_s_40forward_short_multi_length_fallback_hits00E00Ba_
FN:1464,_RNCNCINvNtNtCsfUjBKV2B3Gc_7lb_quic11passthrough5tests8test_ctxNCNCNvB6_s_41mint_retry_true_mints_and_does_not_insert00E00Ba_
FN:1464,_RNCNCINvNtNtCsfUjBKV2B3Gc_7lb_quic11passthrough5tests8test_ctxNCNCNvB6_s_45idle_sweep_reclaims_idle_flows_and_frees_them00E00Ba_
FN:1464,_RNCNCINvNtNtCsfUjBKV2B3Gc_7lb_quic11passthrough5tests8test_ctxNCNCNvB6_s_58idle_sweeper_task_reaps_periodically_and_stops_on_shutdown00E00Ba_
FN:1962,_RNCNCNvNtNtCsfUjBKV2B3Gc_7lb_quic11passthrough5testss_29pick_backend_is_deterministic00B9_
FN:1513,_RNCNCNvNtNtCsfUjBKV2B3Gc_7lb_quic11passthrough5testss_31min_client_dcid_len_floor_table00B9_
FN:1608,_RNCNCNvNtNtCsfUjBKV2B3Gc_7lb_quic11passthrough5testss_31token_verify_reject_then_accept00B9_
FN:1624,_RNCNCNvNtNtCsfUjBKV2B3Gc_7lb_quic11passthrough5testss_31token_verify_reject_then_accept0s_0B9_
FN:1862,_RNCNCNvNtNtCsfUjBKV2B3Gc_7lb_quic11passthrough5testss_37forward_short_via_strict_source_table00B9_
FN:1580,_RNCNCNvNtNtCsfUjBKV2B3Gc_7lb_quic11passthrough5testss_37mint_retry_false_forwards_and_inserts00B9_
FN:1658,_RNCNCNvNtNtCsfUjBKV2B3Gc_7lb_quic11passthrough5testss_40evict_oldest_at_cap_and_negative_control00B9_
FN:1688,_RNCNCNvNtNtCsfUjBKV2B3Gc_7lb_quic11passthrough5testss_40evict_oldest_at_cap_and_negative_control0s_0B9_
FN:1895,_RNCNCNvNtNtCsfUjBKV2B3Gc_7lb_quic11passthrough5testss_40forward_short_multi_length_fallback_hits00B9_
FN:1548,_RNCNCNvNtNtCsfUjBKV2B3Gc_7lb_quic11passthrough5testss_41mint_retry_true_mints_and_does_not_insert00B9_
FN:1716,_RNCNCNvNtNtCsfUjBKV2B3Gc_7lb_quic11passthrough5testss_45idle_sweep_reclaims_idle_flows_and_frees_them00B9_
FN:1776,_RNCNCNvNtNtCsfUjBKV2B3Gc_7lb_quic11passthrough5testss_45idle_sweep_reclaims_idle_flows_and_frees_them0s0_0B9_
FN:1740,_RNCNCNvNtNtCsfUjBKV2B3Gc_7lb_quic11passthrough5testss_45idle_sweep_reclaims_idle_flows_and_frees_them0s_0B9_
FN:1795,_RNCNCNvNtNtCsfUjBKV2B3Gc_7lb_quic11passthrough5testss_58idle_sweeper_task_reaps_periodically_and_stops_on_shutdown00B9_
FN:1328,_RNCNvNtNtCsfUjBKV2B3Gc_7lb_quic11passthrough5testss_25flow_entry_audit_compiles0B7_
FN:1961,_RNCNvNtNtCsfUjBKV2B3Gc_7lb_quic11passthrough5testss_29pick_backend_is_deterministic0B7_
FN:1508,_RNCNvNtNtCsfUjBKV2B3Gc_7lb_quic11passthrough5testss_31min_client_dcid_len_floor_table0B7_
FN:1606,_RNCNvNtNtCsfUjBKV2B3Gc_7lb_quic11passthrough5testss_31token_verify_reject_then_accept0B7_
FN:1853,_RNCNvNtNtCsfUjBKV2B3Gc_7lb_quic11passthrough5testss_37forward_short_via_strict_source_table0B7_
FN:1579,_RNCNvNtNtCsfUjBKV2B3Gc_7lb_quic11passthrough5testss_37mint_retry_false_forwards_and_inserts0B7_
FN:1654,_RNCNvNtNtCsfUjBKV2B3Gc_7lb_quic11passthrough5testss_40evict_oldest_at_cap_and_negative_control0B7_
FN:1891,_RNCNvNtNtCsfUjBKV2B3Gc_7lb_quic11passthrough5testss_40forward_short_multi_length_fallback_hits0B7_
FN:1542,_RNCNvNtNtCsfUjBKV2B3Gc_7lb_quic11passthrough5testss_41mint_retry_true_mints_and_does_not_insert0B7_
FN:1715,_RNCNvNtNtCsfUjBKV2B3Gc_7lb_quic11passthrough5testss_45idle_sweep_reclaims_idle_flows_and_frees_them0B7_
FN:1794,_RNCNvNtNtCsfUjBKV2B3Gc_7lb_quic11passthrough5testss_58idle_sweeper_task_reaps_periodically_and_stops_on_shutdown0B7_
FN:1206,_RNCNCNCNCNvMs1_NtCskwRMVHy5hME_7lb_quic11passthroughNtBd_19PassthroughListener5spawn0s1_000CsirzOIEPmb9J_42quic_passthrough_audit_throttle_saturation
FN:1202,_RNCNCNCNvMs1_NtCskwRMVHy5hME_7lb_quic11passthroughNtBb_19PassthroughListener5spawn0s1_00CsirzOIEPmb9J_42quic_passthrough_audit_throttle_saturation
FN:1139,_RNCNCNvMs1_NtCskwRMVHy5hME_7lb_quic11passthroughNtB9_19PassthroughListener5spawn00CsirzOIEPmb9J_42quic_passthrough_audit_throttle_saturation
FN:1159,_RNCNCNvMs1_NtCskwRMVHy5hME_7lb_quic11passthroughNtB9_19PassthroughListener5spawn0s0_0CsirzOIEPmb9J_42quic_passthrough_audit_throttle_saturation
FN:1200,_RNCNCNvMs1_NtCskwRMVHy5hME_7lb_quic11passthroughNtB9_19PassthroughListener5spawn0s1_0CsirzOIEPmb9J_42quic_passthrough_audit_throttle_saturation
FN:1149,_RNCNCNvMs1_NtCskwRMVHy5hME_7lb_quic11passthroughNtB9_19PassthroughListener5spawn0s_0CsirzOIEPmb9J_42quic_passthrough_audit_throttle_saturation
FN:980,_RNCNCNvNtCskwRMVHy5hME_7lb_quic11passthrough12reverse_pump00CsirzOIEPmb9J_42quic_passthrough_audit_throttle_saturation
FN:1024,_RNCNCNvNtCskwRMVHy5hME_7lb_quic11passthrough13forward_short00CsirzOIEPmb9J_42quic_passthrough_audit_throttle_saturation
FN:1025,_RNCNCNvNtCskwRMVHy5hME_7lb_quic11passthrough13forward_short0s_0CsirzOIEPmb9J_42quic_passthrough_audit_throttle_saturation
FN:916,_RNCNCNvNtCskwRMVHy5hME_7lb_quic11passthrough14handle_initial00CsirzOIEPmb9J_42quic_passthrough_audit_throttle_saturation
FN:940,_RNCNCNvNtCskwRMVHy5hME_7lb_quic11passthrough14handle_initial0s_0CsirzOIEPmb9J_42quic_passthrough_audit_throttle_saturation
FN:1129,_RNCNvMs1_NtCskwRMVHy5hME_7lb_quic11passthroughNtB7_19PassthroughListener5spawn0CsirzOIEPmb9J_42quic_passthrough_audit_throttle_saturation
FN:944,_RNCNvNtCskwRMVHy5hME_7lb_quic11passthrough12reverse_pump0CsirzOIEPmb9J_42quic_passthrough_audit_throttle_saturation
FN:1006,_RNCNvNtCskwRMVHy5hME_7lb_quic11passthrough13forward_short0CsirzOIEPmb9J_42quic_passthrough_audit_throttle_saturation
FN:689,_RNCNvNtCskwRMVHy5hME_7lb_quic11passthrough14handle_inbound0CsirzOIEPmb9J_42quic_passthrough_audit_throttle_saturation
FN:749,_RNCNvNtCskwRMVHy5hME_7lb_quic11passthrough14handle_initial0CsirzOIEPmb9J_42quic_passthrough_audit_throttle_saturation
FN:667,_RNCNvNtCskwRMVHy5hME_7lb_quic11passthrough16run_idle_sweeper0CsirzOIEPmb9J_42quic_passthrough_audit_throttle_saturation
FN:995,_RNCNvNtCskwRMVHy5hME_7lb_quic11passthrough21forward_long_existing0CsirzOIEPmb9J_42quic_passthrough_audit_throttle_saturation
FN:1206,_RNCNCNCNCNvMs1_NtCskwRMVHy5hME_7lb_quic11passthroughNtBd_19PassthroughListener5spawn0s1_000Csh0Klu32cwnN_30quic_passthrough_bounded_state
FN:1202,_RNCNCNCNvMs1_NtCskwRMVHy5hME_7lb_quic11passthroughNtBb_19PassthroughListener5spawn0s1_00Csh0Klu32cwnN_30quic_passthrough_bounded_state
FN:1139,_RNCNCNvMs1_NtCskwRMVHy5hME_7lb_quic11passthroughNtB9_19PassthroughListener5spawn00Csh0Klu32cwnN_30quic_passthrough_bounded_state
FN:1159,_RNCNCNvMs1_NtCskwRMVHy5hME_7lb_quic11passthroughNtB9_19PassthroughListener5spawn0s0_0Csh0Klu32cwnN_30quic_passthrough_bounded_state
FN:1200,_RNCNCNvMs1_NtCskwRMVHy5hME_7lb_quic11passthroughNtB9_19PassthroughListener5spawn0s1_0Csh0Klu32cwnN_30quic_passthrough_bounded_state
FN:1149,_RNCNCNvMs1_NtCskwRMVHy5hME_7lb_quic11passthroughNtB9_19PassthroughListener5spawn0s_0Csh0Klu32cwnN_30quic_passthrough_bounded_state
FN:980,_RNCNCNvNtCskwRMVHy5hME_7lb_quic11passthrough12reverse_pump00Csh0Klu32cwnN_30quic_passthrough_bounded_state
FN:1024,_RNCNCNvNtCskwRMVHy5hME_7lb_quic11passthrough13forward_short00Csh0Klu32cwnN_30quic_passthrough_bounded_state
FN:1025,_RNCNCNvNtCskwRMVHy5hME_7lb_quic11passthrough13forward_short0s_0Csh0Klu32cwnN_30quic_passthrough_bounded_state
FN:916,_RNCNCNvNtCskwRMVHy5hME_7lb_quic11passthrough14handle_initial00Csh0Klu32cwnN_30quic_passthrough_bounded_state
FN:940,_RNCNCNvNtCskwRMVHy5hME_7lb_quic11passthrough14handle_initial0s_0Csh0Klu32cwnN_30quic_passthrough_bounded_state
FN:1129,_RNCNvMs1_NtCskwRMVHy5hME_7lb_quic11passthroughNtB7_19PassthroughListener5spawn0Csh0Klu32cwnN_30quic_passthrough_bounded_state
FN:944,_RNCNvNtCskwRMVHy5hME_7lb_quic11passthrough12reverse_pump0Csh0Klu32cwnN_30quic_passthrough_bounded_state
FN:1006,_RNCNvNtCskwRMVHy5hME_7lb_quic11passthrough13forward_short0Csh0Klu32cwnN_30quic_passthrough_bounded_state
FN:689,_RNCNvNtCskwRMVHy5hME_7lb_quic11passthrough14handle_inbound0Csh0Klu32cwnN_30quic_passthrough_bounded_state
FN:749,_RNCNvNtCskwRMVHy5hME_7lb_quic11passthrough14handle_initial0Csh0Klu32cwnN_30quic_passthrough_bounded_state
FN:667,_RNCNvNtCskwRMVHy5hME_7lb_quic11passthrough16run_idle_sweeper0Csh0Klu32cwnN_30quic_passthrough_bounded_state
FN:995,_RNCNvNtCskwRMVHy5hME_7lb_quic11passthrough21forward_long_existing0Csh0Klu32cwnN_30quic_passthrough_bounded_state
FN:1206,_RNCNCNCNCNvMs1_NtCskwRMVHy5hME_7lb_quic11passthroughNtBd_19PassthroughListener5spawn0s1_000CshVQo1pTwmG6_30quic_passthrough_cid_migration
FN:1202,_RNCNCNCNvMs1_NtCskwRMVHy5hME_7lb_quic11passthroughNtBb_19PassthroughListener5spawn0s1_00CshVQo1pTwmG6_30quic_passthrough_cid_migration
FN:1139,_RNCNCNvMs1_NtCskwRMVHy5hME_7lb_quic11passthroughNtB9_19PassthroughListener5spawn00CshVQo1pTwmG6_30quic_passthrough_cid_migration
FN:1159,_RNCNCNvMs1_NtCskwRMVHy5hME_7lb_quic11passthroughNtB9_19PassthroughListener5spawn0s0_0CshVQo1pTwmG6_30quic_passthrough_cid_migration
FN:1200,_RNCNCNvMs1_NtCskwRMVHy5hME_7lb_quic11passthroughNtB9_19PassthroughListener5spawn0s1_0CshVQo1pTwmG6_30quic_passthrough_cid_migration
FN:1149,_RNCNCNvMs1_NtCskwRMVHy5hME_7lb_quic11passthroughNtB9_19PassthroughListener5spawn0s_0CshVQo1pTwmG6_30quic_passthrough_cid_migration
FN:980,_RNCNCNvNtCskwRMVHy5hME_7lb_quic11passthrough12reverse_pump00CshVQo1pTwmG6_30quic_passthrough_cid_migration
FN:1024,_RNCNCNvNtCskwRMVHy5hME_7lb_quic11passthrough13forward_short00CshVQo1pTwmG6_30quic_passthrough_cid_migration
FN:1025,_RNCNCNvNtCskwRMVHy5hME_7lb_quic11passthrough13forward_short0s_0CshVQo1pTwmG6_30quic_passthrough_cid_migration
FN:916,_RNCNCNvNtCskwRMVHy5hME_7lb_quic11passthrough14handle_initial00CshVQo1pTwmG6_30quic_passthrough_cid_migration
FN:940,_RNCNCNvNtCskwRMVHy5hME_7lb_quic11passthrough14handle_initial0s_0CshVQo1pTwmG6_30quic_passthrough_cid_migration
FN:1129,_RNCNvMs1_NtCskwRMVHy5hME_7lb_quic11passthroughNtB7_19PassthroughListener5spawn0CshVQo1pTwmG6_30quic_passthrough_cid_migration
FN:944,_RNCNvNtCskwRMVHy5hME_7lb_quic11passthrough12reverse_pump0CshVQo1pTwmG6_30quic_passthrough_cid_migration
FN:1006,_RNCNvNtCskwRMVHy5hME_7lb_quic11passthrough13forward_short0CshVQo1pTwmG6_30quic_passthrough_cid_migration
FN:689,_RNCNvNtCskwRMVHy5hME_7lb_quic11passthrough14handle_inbound0CshVQo1pTwmG6_30quic_passthrough_cid_migration
FN:749,_RNCNvNtCskwRMVHy5hME_7lb_quic11passthrough14handle_initial0CshVQo1pTwmG6_30quic_passthrough_cid_migration
FN:667,_RNCNvNtCskwRMVHy5hME_7lb_quic11passthrough16run_idle_sweeper0CshVQo1pTwmG6_30quic_passthrough_cid_migration
FN:995,_RNCNvNtCskwRMVHy5hME_7lb_quic11passthrough21forward_long_existing0CshVQo1pTwmG6_30quic_passthrough_cid_migration
FN:1206,_RNCNCNCNCNvMs1_NtCskwRMVHy5hME_7lb_quic11passthroughNtBd_19PassthroughListener5spawn0s1_000Cs3ruMz8ISmoD_20quic_passthrough_e2e
FN:1202,_RNCNCNCNvMs1_NtCskwRMVHy5hME_7lb_quic11passthroughNtBb_19PassthroughListener5spawn0s1_00Cs3ruMz8ISmoD_20quic_passthrough_e2e
FN:1139,_RNCNCNvMs1_NtCskwRMVHy5hME_7lb_quic11passthroughNtB9_19PassthroughListener5spawn00Cs3ruMz8ISmoD_20quic_passthrough_e2e
FN:1159,_RNCNCNvMs1_NtCskwRMVHy5hME_7lb_quic11passthroughNtB9_19PassthroughListener5spawn0s0_0Cs3ruMz8ISmoD_20quic_passthrough_e2e
FN:1200,_RNCNCNvMs1_NtCskwRMVHy5hME_7lb_quic11passthroughNtB9_19PassthroughListener5spawn0s1_0Cs3ruMz8ISmoD_20quic_passthrough_e2e
FN:1149,_RNCNCNvMs1_NtCskwRMVHy5hME_7lb_quic11passthroughNtB9_19PassthroughListener5spawn0s_0Cs3ruMz8ISmoD_20quic_passthrough_e2e
FN:980,_RNCNCNvNtCskwRMVHy5hME_7lb_quic11passthrough12reverse_pump00Cs3ruMz8ISmoD_20quic_passthrough_e2e
FN:1024,_RNCNCNvNtCskwRMVHy5hME_7lb_quic11passthrough13forward_short00Cs3ruMz8ISmoD_20quic_passthrough_e2e
FN:1025,_RNCNCNvNtCskwRMVHy5hME_7lb_quic11passthrough13forward_short0s_0Cs3ruMz8ISmoD_20quic_passthrough_e2e
FN:916,_RNCNCNvNtCskwRMVHy5hME_7lb_quic11passthrough14handle_initial00Cs3ruMz8ISmoD_20quic_passthrough_e2e
FN:940,_RNCNCNvNtCskwRMVHy5hME_7lb_quic11passthrough14handle_initial0s_0Cs3ruMz8ISmoD_20quic_passthrough_e2e
FN:1129,_RNCNvMs1_NtCskwRMVHy5hME_7lb_quic11passthroughNtB7_19PassthroughListener5spawn0Cs3ruMz8ISmoD_20quic_passthrough_e2e
FN:944,_RNCNvNtCskwRMVHy5hME_7lb_quic11passthrough12reverse_pump0Cs3ruMz8ISmoD_20quic_passthrough_e2e
FN:1006,_RNCNvNtCskwRMVHy5hME_7lb_quic11passthrough13forward_short0Cs3ruMz8ISmoD_20quic_passthrough_e2e
FN:689,_RNCNvNtCskwRMVHy5hME_7lb_quic11passthrough14handle_inbound0Cs3ruMz8ISmoD_20quic_passthrough_e2e
FN:749,_RNCNvNtCskwRMVHy5hME_7lb_quic11passthrough14handle_initial0Cs3ruMz8ISmoD_20quic_passthrough_e2e
FN:667,_RNCNvNtCskwRMVHy5hME_7lb_quic11passthrough16run_idle_sweeper0Cs3ruMz8ISmoD_20quic_passthrough_e2e
FN:995,_RNCNvNtCskwRMVHy5hME_7lb_quic11passthrough21forward_long_existing0Cs3ruMz8ISmoD_20quic_passthrough_e2e
FN:1206,_RNCNCNCNCNvMs1_NtCskwRMVHy5hME_7lb_quic11passthroughNtBd_19PassthroughListener5spawn0s1_000CsesikQZkyyPB_24quic_passthrough_metrics
FN:1202,_RNCNCNCNvMs1_NtCskwRMVHy5hME_7lb_quic11passthroughNtBb_19PassthroughListener5spawn0s1_00CsesikQZkyyPB_24quic_passthrough_metrics
FN:1139,_RNCNCNvMs1_NtCskwRMVHy5hME_7lb_quic11passthroughNtB9_19PassthroughListener5spawn00CsesikQZkyyPB_24quic_passthrough_metrics
FN:1159,_RNCNCNvMs1_NtCskwRMVHy5hME_7lb_quic11passthroughNtB9_19PassthroughListener5spawn0s0_0CsesikQZkyyPB_24quic_passthrough_metrics
FN:1200,_RNCNCNvMs1_NtCskwRMVHy5hME_7lb_quic11passthroughNtB9_19PassthroughListener5spawn0s1_0CsesikQZkyyPB_24quic_passthrough_metrics
FN:1149,_RNCNCNvMs1_NtCskwRMVHy5hME_7lb_quic11passthroughNtB9_19PassthroughListener5spawn0s_0CsesikQZkyyPB_24quic_passthrough_metrics
FN:980,_RNCNCNvNtCskwRMVHy5hME_7lb_quic11passthrough12reverse_pump00CsesikQZkyyPB_24quic_passthrough_metrics
FN:1024,_RNCNCNvNtCskwRMVHy5hME_7lb_quic11passthrough13forward_short00CsesikQZkyyPB_24quic_passthrough_metrics
FN:1025,_RNCNCNvNtCskwRMVHy5hME_7lb_quic11passthrough13forward_short0s_0CsesikQZkyyPB_24quic_passthrough_metrics
FN:916,_RNCNCNvNtCskwRMVHy5hME_7lb_quic11passthrough14handle_initial00CsesikQZkyyPB_24quic_passthrough_metrics
FN:940,_RNCNCNvNtCskwRMVHy5hME_7lb_quic11passthrough14handle_initial0s_0CsesikQZkyyPB_24quic_passthrough_metrics
FN:1129,_RNCNvMs1_NtCskwRMVHy5hME_7lb_quic11passthroughNtB7_19PassthroughListener5spawn0CsesikQZkyyPB_24quic_passthrough_metrics
FN:944,_RNCNvNtCskwRMVHy5hME_7lb_quic11passthrough12reverse_pump0CsesikQZkyyPB_24quic_passthrough_metrics
FN:1006,_RNCNvNtCskwRMVHy5hME_7lb_quic11passthrough13forward_short0CsesikQZkyyPB_24quic_passthrough_metrics
FN:689,_RNCNvNtCskwRMVHy5hME_7lb_quic11passthrough14handle_inbound0CsesikQZkyyPB_24quic_passthrough_metrics
FN:749,_RNCNvNtCskwRMVHy5hME_7lb_quic11passthrough14handle_initial0CsesikQZkyyPB_24quic_passthrough_metrics
FN:667,_RNCNvNtCskwRMVHy5hME_7lb_quic11passthrough16run_idle_sweeper0CsesikQZkyyPB_24quic_passthrough_metrics
FN:995,_RNCNvNtCskwRMVHy5hME_7lb_quic11passthrough21forward_long_existing0CsesikQZkyyPB_24quic_passthrough_metrics
FN:1206,_RNCNCNCNCNvMs1_NtCskwRMVHy5hME_7lb_quic11passthroughNtBd_19PassthroughListener5spawn0s1_000CshSQDaECda3a_35quic_passthrough_spoofed_source_e2e
FN:1202,_RNCNCNCNvMs1_NtCskwRMVHy5hME_7lb_quic11passthroughNtBb_19PassthroughListener5spawn0s1_00CshSQDaECda3a_35quic_passthrough_spoofed_source_e2e
FN:1139,_RNCNCNvMs1_NtCskwRMVHy5hME_7lb_quic11passthroughNtB9_19PassthroughListener5spawn00CshSQDaECda3a_35quic_passthrough_spoofed_source_e2e
FN:1159,_RNCNCNvMs1_NtCskwRMVHy5hME_7lb_quic11passthroughNtB9_19PassthroughListener5spawn0s0_0CshSQDaECda3a_35quic_passthrough_spoofed_source_e2e
FN:1200,_RNCNCNvMs1_NtCskwRMVHy5hME_7lb_quic11passthroughNtB9_19PassthroughListener5spawn0s1_0CshSQDaECda3a_35quic_passthrough_spoofed_source_e2e
FN:1149,_RNCNCNvMs1_NtCskwRMVHy5hME_7lb_quic11passthroughNtB9_19PassthroughListener5spawn0s_0CshSQDaECda3a_35quic_passthrough_spoofed_source_e2e
FN:980,_RNCNCNvNtCskwRMVHy5hME_7lb_quic11passthrough12reverse_pump00CshSQDaECda3a_35quic_passthrough_spoofed_source_e2e
FN:1024,_RNCNCNvNtCskwRMVHy5hME_7lb_quic11passthrough13forward_short00CshSQDaECda3a_35quic_passthrough_spoofed_source_e2e
FN:1025,_RNCNCNvNtCskwRMVHy5hME_7lb_quic11passthrough13forward_short0s_0CshSQDaECda3a_35quic_passthrough_spoofed_source_e2e
FN:916,_RNCNCNvNtCskwRMVHy5hME_7lb_quic11passthrough14handle_initial00CshSQDaECda3a_35quic_passthrough_spoofed_source_e2e
FN:940,_RNCNCNvNtCskwRMVHy5hME_7lb_quic11passthrough14handle_initial0s_0CshSQDaECda3a_35quic_passthrough_spoofed_source_e2e
FN:1129,_RNCNvMs1_NtCskwRMVHy5hME_7lb_quic11passthroughNtB7_19PassthroughListener5spawn0CshSQDaECda3a_35quic_passthrough_spoofed_source_e2e
FN:944,_RNCNvNtCskwRMVHy5hME_7lb_quic11passthrough12reverse_pump0CshSQDaECda3a_35quic_passthrough_spoofed_source_e2e
FN:1006,_RNCNvNtCskwRMVHy5hME_7lb_quic11passthrough13forward_short0CshSQDaECda3a_35quic_passthrough_spoofed_source_e2e
FN:689,_RNCNvNtCskwRMVHy5hME_7lb_quic11passthrough14handle_inbound0CshSQDaECda3a_35quic_passthrough_spoofed_source_e2e
FN:749,_RNCNvNtCskwRMVHy5hME_7lb_quic11passthrough14handle_initial0CshSQDaECda3a_35quic_passthrough_spoofed_source_e2e
FN:667,_RNCNvNtCskwRMVHy5hME_7lb_quic11passthrough16run_idle_sweeper0CshSQDaECda3a_35quic_passthrough_spoofed_source_e2e
FN:995,_RNCNvNtCskwRMVHy5hME_7lb_quic11passthrough21forward_long_existing0CshSQDaECda3a_35quic_passthrough_spoofed_source_e2e
FN:1206,_RNCNCNCNCNvMs1_NtCskwRMVHy5hME_7lb_quic11passthroughNtBd_19PassthroughListener5spawn0s1_000Cs1CRTNfhiowS_38quic_passthrough_strict_source_binding
FN:1202,_RNCNCNCNvMs1_NtCskwRMVHy5hME_7lb_quic11passthroughNtBb_19PassthroughListener5spawn0s1_00Cs1CRTNfhiowS_38quic_passthrough_strict_source_binding
FN:1139,_RNCNCNvMs1_NtCskwRMVHy5hME_7lb_quic11passthroughNtB9_19PassthroughListener5spawn00Cs1CRTNfhiowS_38quic_passthrough_strict_source_binding
FN:1159,_RNCNCNvMs1_NtCskwRMVHy5hME_7lb_quic11passthroughNtB9_19PassthroughListener5spawn0s0_0Cs1CRTNfhiowS_38quic_passthrough_strict_source_binding
FN:1200,_RNCNCNvMs1_NtCskwRMVHy5hME_7lb_quic11passthroughNtB9_19PassthroughListener5spawn0s1_0Cs1CRTNfhiowS_38quic_passthrough_strict_source_binding
FN:1149,_RNCNCNvMs1_NtCskwRMVHy5hME_7lb_quic11passthroughNtB9_19PassthroughListener5spawn0s_0Cs1CRTNfhiowS_38quic_passthrough_strict_source_binding
FN:980,_RNCNCNvNtCskwRMVHy5hME_7lb_quic11passthrough12reverse_pump00Cs1CRTNfhiowS_38quic_passthrough_strict_source_binding
FN:1024,_RNCNCNvNtCskwRMVHy5hME_7lb_quic11passthrough13forward_short00Cs1CRTNfhiowS_38quic_passthrough_strict_source_binding
FN:1025,_RNCNCNvNtCskwRMVHy5hME_7lb_quic11passthrough13forward_short0s_0Cs1CRTNfhiowS_38quic_passthrough_strict_source_binding
FN:916,_RNCNCNvNtCskwRMVHy5hME_7lb_quic11passthrough14handle_initial00Cs1CRTNfhiowS_38quic_passthrough_strict_source_binding
FN:940,_RNCNCNvNtCskwRMVHy5hME_7lb_quic11passthrough14handle_initial0s_0Cs1CRTNfhiowS_38quic_passthrough_strict_source_binding
FN:1129,_RNCNvMs1_NtCskwRMVHy5hME_7lb_quic11passthroughNtB7_19PassthroughListener5spawn0Cs1CRTNfhiowS_38quic_passthrough_strict_source_binding
FN:944,_RNCNvNtCskwRMVHy5hME_7lb_quic11passthrough12reverse_pump0Cs1CRTNfhiowS_38quic_passthrough_strict_source_binding
FN:1006,_RNCNvNtCskwRMVHy5hME_7lb_quic11passthrough13forward_short0Cs1CRTNfhiowS_38quic_passthrough_strict_source_binding
FN:689,_RNCNvNtCskwRMVHy5hME_7lb_quic11passthrough14handle_inbound0Cs1CRTNfhiowS_38quic_passthrough_strict_source_binding
FN:749,_RNCNvNtCskwRMVHy5hME_7lb_quic11passthrough14handle_initial0Cs1CRTNfhiowS_38quic_passthrough_strict_source_binding
FN:667,_RNCNvNtCskwRMVHy5hME_7lb_quic11passthrough16run_idle_sweeper0Cs1CRTNfhiowS_38quic_passthrough_strict_source_binding
FN:995,_RNCNvNtCskwRMVHy5hME_7lb_quic11passthrough21forward_long_existing0Cs1CRTNfhiowS_38quic_passthrough_strict_source_binding
FNDA:0,_RNCNCNCNCNvMs1_NtCskwRMVHy5hME_7lb_quic11passthroughNtBd_19PassthroughListener5spawn0s1_000Bf_
FNDA:0,_RNCNCNCNvMs1_NtCskwRMVHy5hME_7lb_quic11passthroughNtBb_19PassthroughListener5spawn0s1_00Bd_
FNDA:0,_RNCNCNvMs1_NtCskwRMVHy5hME_7lb_quic11passthroughNtB9_19PassthroughListener5spawn00Bb_
FNDA:0,_RNCNCNvMs1_NtCskwRMVHy5hME_7lb_quic11passthroughNtB9_19PassthroughListener5spawn0s0_0Bb_
FNDA:0,_RNCNCNvMs1_NtCskwRMVHy5hME_7lb_quic11passthroughNtB9_19PassthroughListener5spawn0s1_0Bb_
FNDA:0,_RNCNCNvMs1_NtCskwRMVHy5hME_7lb_quic11passthroughNtB9_19PassthroughListener5spawn0s_0Bb_
FNDA:0,_RNCNCNvNtCskwRMVHy5hME_7lb_quic11passthrough12reverse_pump00B7_
FNDA:0,_RNCNCNvNtCskwRMVHy5hME_7lb_quic11passthrough13forward_short00B7_
FNDA:0,_RNCNCNvNtCskwRMVHy5hME_7lb_quic11passthrough13forward_short0s_0B7_
FNDA:0,_RNCNCNvNtCskwRMVHy5hME_7lb_quic11passthrough14handle_initial00B7_
FNDA:0,_RNCNCNvNtCskwRMVHy5hME_7lb_quic11passthrough14handle_initial0s_0B7_
FNDA:0,_RNCNvMs1_NtCskwRMVHy5hME_7lb_quic11passthroughNtB7_19PassthroughListener5spawn0B9_
FNDA:0,_RNCNvNtCskwRMVHy5hME_7lb_quic11passthrough12reverse_pump0B5_
FNDA:0,_RNCNvNtCskwRMVHy5hME_7lb_quic11passthrough13forward_short0B5_
FNDA:0,_RNCNvNtCskwRMVHy5hME_7lb_quic11passthrough14handle_inbound0B5_
FNDA:0,_RNCNvNtCskwRMVHy5hME_7lb_quic11passthrough14handle_initial0B5_
FNDA:0,_RNCNvNtCskwRMVHy5hME_7lb_quic11passthrough16run_idle_sweeper0B5_
FNDA:0,_RNCNvNtCskwRMVHy5hME_7lb_quic11passthrough21forward_long_existing0B5_
FNDA:0,_RNvNtCskwRMVHy5hME_7lb_quic11passthrough23__flow_entry_field_audit
FNDA:1405952,_RNCNCNvNtCskwRMVHy5hME_7lb_quic11passthrough13reclaim_flows00B7_
FNDA:3858,_RNCNCNvNtCskwRMVHy5hME_7lb_quic11passthrough13reclaim_flows0s_0B7_
FNDA:3860,_RNCNvNtCskwRMVHy5hME_7lb_quic11passthrough11audit_allow0B5_
FNDA:1405952,_RNCNvNtCskwRMVHy5hME_7lb_quic11passthrough13reclaim_flows0B5_
FNDA:3858,_RNCNvNtCskwRMVHy5hME_7lb_quic11passthrough13reclaim_flowss_0B5_
FNDA:0,_RNCNvNtCskwRMVHy5hME_7lb_quic11passthrough16sweep_idle_flows0B5_
FNDA:0,_RNCNvNtCskwRMVHy5hME_7lb_quic11passthrough18build_retry_packet0B5_
FNDA:0,_RNCNvNtCskwRMVHy5hME_7lb_quic11passthrough18build_retry_packets_0B5_
FNDA:0,_RNCNvNtCskwRMVHy5hME_7lb_quic11passthrough29load_or_generate_retry_secret0B5_
FNDA:12315,_RNvXs_NtCskwRMVHy5hME_7lb_quic11passthroughNtB4_9FlowEntryNtNtNtCs2va5m0jqTTM_4core3ops4drop4Drop4drop
FNDA:63,_RNvMNtCskwRMVHy5hME_7lb_quic11passthroughNtB2_17PassthroughParams3new
FNDA:16,_RNvMs0_NtCskwRMVHy5hME_7lb_quic11passthroughNtB5_9FlowEntry5touch
FNDA:8,_RNvMs0_NtCskwRMVHy5hME_7lb_quic11passthroughNtB5_9FlowEntry8get_peer
FNDA:16,_RNvMs0_NtCskwRMVHy5hME_7lb_quic11passthroughNtB5_9FlowEntry8set_peer
FNDA:63,_RNvMs1_NtCskwRMVHy5hME_7lb_quic11passthroughNtB5_19PassthroughListener10local_addr
FNDA:63,_RNvMs1_NtCskwRMVHy5hME_7lb_quic11passthroughNtB5_19PassthroughListener5spawn
FNDA:63,_RNvMs1_NtCskwRMVHy5hME_7lb_quic11passthroughNtB5_19PassthroughListener8shutdown
FNDA:308,_RNvMs1_NtCskwRMVHy5hME_7lb_quic11passthroughNtB5_19PassthroughListener9flows_len
FNDA:16238,_RNvNtCskwRMVHy5hME_7lb_quic11passthrough10elapsed_ms
FNDA:3860,_RNvNtCskwRMVHy5hME_7lb_quic11passthrough11audit_allow
FNDA:3858,_RNvNtCskwRMVHy5hME_7lb_quic11passthrough12evict_oldest
FNDA:12315,_RNvNtCskwRMVHy5hME_7lb_quic11passthrough12pick_backend
FNDA:12315,_RNvNtCskwRMVHy5hME_7lb_quic11passthrough12reverse_pump
FNDA:17,_RNvNtCskwRMVHy5hME_7lb_quic11passthrough13forward_short
FNDA:3921,_RNvNtCskwRMVHy5hME_7lb_quic11passthrough13reclaim_flows
FNDA:12338,_RNvNtCskwRMVHy5hME_7lb_quic11passthrough14handle_inbound
FNDA:12318,_RNvNtCskwRMVHy5hME_7lb_quic11passthrough14handle_initial
FNDA:1,_RNvNtCskwRMVHy5hME_7lb_quic11passthrough14sample_lb_scid
FNDA:16173,_RNvNtCskwRMVHy5hME_7lb_quic11passthrough15set_flows_gauge
FNDA:63,_RNvNtCskwRMVHy5hME_7lb_quic11passthrough16run_idle_sweeper
FNDA:63,_RNvNtCskwRMVHy5hME_7lb_quic11passthrough16sweep_idle_flows
FNDA:17,_RNvNtCskwRMVHy5hME_7lb_quic11passthrough17forward_short_via
FNDA:0,_RNvNtCskwRMVHy5hME_7lb_quic11passthrough17write_secret_file
FNDA:1002,_RNvNtCskwRMVHy5hME_7lb_quic11passthrough18build_retry_packet
FNDA:12315,_RNvNtCskwRMVHy5hME_7lb_quic11passthrough20hash_dcid_for_maglev
FNDA:0,_RNvNtCskwRMVHy5hME_7lb_quic11passthrough21forward_long_existing
FNDA:12338,_RNvNtCskwRMVHy5hME_7lb_quic11passthrough22default_short_dcid_len
FNDA:1001,_RNvNtCskwRMVHy5hME_7lb_quic11passthrough24__test_build_retry_packet
FNDA:63,_RNvNtCskwRMVHy5hME_7lb_quic11passthrough29load_or_generate_retry_secret
FNDA:0,_RNCNCNCNCNvMs1_NtCskwRMVHy5hME_7lb_quic11passthroughNtBd_19PassthroughListener5spawn0s1_000Csg9xlZenf2AU_14expressgateway
FNDA:0,_RNCNCNCNvMs1_NtCskwRMVHy5hME_7lb_quic11passthroughNtBb_19PassthroughListener5spawn0s1_00Csg9xlZenf2AU_14expressgateway
FNDA:0,_RNCNCNvMs1_NtCskwRMVHy5hME_7lb_quic11passthroughNtB9_19PassthroughListener5spawn00Csg9xlZenf2AU_14expressgateway
FNDA:0,_RNCNCNvMs1_NtCskwRMVHy5hME_7lb_quic11passthroughNtB9_19PassthroughListener5spawn0s0_0Csg9xlZenf2AU_14expressgateway
FNDA:0,_RNCNCNvMs1_NtCskwRMVHy5hME_7lb_quic11passthroughNtB9_19PassthroughListener5spawn0s1_0Csg9xlZenf2AU_14expressgateway
FNDA:0,_RNCNCNvMs1_NtCskwRMVHy5hME_7lb_quic11passthroughNtB9_19PassthroughListener5spawn0s_0Csg9xlZenf2AU_14expressgateway
FNDA:0,_RNCNCNvNtCskwRMVHy5hME_7lb_quic11passthrough12reverse_pump00Csg9xlZenf2AU_14expressgateway
FNDA:0,_RNCNCNvNtCskwRMVHy5hME_7lb_quic11passthrough13forward_short00Csg9xlZenf2AU_14expressgateway
FNDA:0,_RNCNCNvNtCskwRMVHy5hME_7lb_quic11passthrough13forward_short0s_0Csg9xlZenf2AU_14expressgateway
FNDA:0,_RNCNCNvNtCskwRMVHy5hME_7lb_quic11passthrough14handle_initial00Csg9xlZenf2AU_14expressgateway
FNDA:0,_RNCNCNvNtCskwRMVHy5hME_7lb_quic11passthrough14handle_initial0s_0Csg9xlZenf2AU_14expressgateway
FNDA:0,_RNCNvMs1_NtCskwRMVHy5hME_7lb_quic11passthroughNtB7_19PassthroughListener5spawn0Csg9xlZenf2AU_14expressgateway
FNDA:0,_RNCNvNtCskwRMVHy5hME_7lb_quic11passthrough12reverse_pump0Csg9xlZenf2AU_14expressgateway
FNDA:0,_RNCNvNtCskwRMVHy5hME_7lb_quic11passthrough13forward_short0Csg9xlZenf2AU_14expressgateway
FNDA:0,_RNCNvNtCskwRMVHy5hME_7lb_quic11passthrough14handle_inbound0Csg9xlZenf2AU_14expressgateway
FNDA:0,_RNCNvNtCskwRMVHy5hME_7lb_quic11passthrough14handle_initial0Csg9xlZenf2AU_14expressgateway
FNDA:0,_RNCNvNtCskwRMVHy5hME_7lb_quic11passthrough16run_idle_sweeper0Csg9xlZenf2AU_14expressgateway
FNDA:0,_RNCNvNtCskwRMVHy5hME_7lb_quic11passthrough21forward_long_existing0Csg9xlZenf2AU_14expressgateway
FNDA:22,_RNvXs_NtCsfUjBKV2B3Gc_7lb_quic11passthroughNtB4_9FlowEntryNtNtNtCs2va5m0jqTTM_4core3ops4drop4Drop4drop
FNDA:0,_RNCNCNCNCNvMs1_NtCsfUjBKV2B3Gc_7lb_quic11passthroughNtBd_19PassthroughListener5spawn0s1_000Bf_
FNDA:0,_RNCNCNCNvMs1_NtCsfUjBKV2B3Gc_7lb_quic11passthroughNtBb_19PassthroughListener5spawn0s1_00Bd_
FNDA:0,_RNCNCNvMs1_NtCsfUjBKV2B3Gc_7lb_quic11passthroughNtB9_19PassthroughListener5spawn00Bb_
FNDA:0,_RNCNCNvMs1_NtCsfUjBKV2B3Gc_7lb_quic11passthroughNtB9_19PassthroughListener5spawn0s0_0Bb_
FNDA:0,_RNCNCNvMs1_NtCsfUjBKV2B3Gc_7lb_quic11passthroughNtB9_19PassthroughListener5spawn0s1_0Bb_
FNDA:0,_RNCNCNvMs1_NtCsfUjBKV2B3Gc_7lb_quic11passthroughNtB9_19PassthroughListener5spawn0s_0Bb_
FNDA:0,_RNCNvMs1_NtCsfUjBKV2B3Gc_7lb_quic11passthroughNtB7_19PassthroughListener5spawn0B9_
FNDA:0,_RNCNvNtCsfUjBKV2B3Gc_7lb_quic11passthrough14handle_inbound0B5_
FNDA:0,_RNCNvNtCsfUjBKV2B3Gc_7lb_quic11passthrough21forward_long_existing0B5_
FNDA:0,_RNvMs1_NtCsfUjBKV2B3Gc_7lb_quic11passthroughNtB5_19PassthroughListener10local_addr
FNDA:0,_RNvMs1_NtCsfUjBKV2B3Gc_7lb_quic11passthroughNtB5_19PassthroughListener5spawn
FNDA:0,_RNvMs1_NtCsfUjBKV2B3Gc_7lb_quic11passthroughNtB5_19PassthroughListener8shutdown
FNDA:0,_RNvMs1_NtCsfUjBKV2B3Gc_7lb_quic11passthroughNtB5_19PassthroughListener9flows_len
FNDA:0,_RNvNtCsfUjBKV2B3Gc_7lb_quic11passthrough14handle_inbound
FNDA:0,_RNvNtCsfUjBKV2B3Gc_7lb_quic11passthrough21forward_long_existing
FNDA:0,_RNvNtCsfUjBKV2B3Gc_7lb_quic11passthrough22default_short_dcid_len
FNDA:0,_RNvNtCsfUjBKV2B3Gc_7lb_quic11passthrough24__test_build_retry_packet
FNDA:20,_RNvMNtCsfUjBKV2B3Gc_7lb_quic11passthroughNtB2_17PassthroughParams3new
FNDA:2,_RNvMs0_NtCsfUjBKV2B3Gc_7lb_quic11passthroughNtB5_9FlowEntry5touch
FNDA:3,_RNvMs0_NtCsfUjBKV2B3Gc_7lb_quic11passthroughNtB5_9FlowEntry8get_peer
FNDA:2,_RNvMs0_NtCsfUjBKV2B3Gc_7lb_quic11passthroughNtB5_9FlowEntry8set_peer
FNDA:21,_RNvNtCsfUjBKV2B3Gc_7lb_quic11passthrough10elapsed_ms
FNDA:7,_RNvNtCsfUjBKV2B3Gc_7lb_quic11passthrough11audit_allow
FNDA:1,_RNvNtCsfUjBKV2B3Gc_7lb_quic11passthrough12evict_oldest
FNDA:18,_RNvNtCsfUjBKV2B3Gc_7lb_quic11passthrough12pick_backend
FNDA:6,_RNvNtCsfUjBKV2B3Gc_7lb_quic11passthrough12reverse_pump
FNDA:1,_RNvNtCsfUjBKV2B3Gc_7lb_quic11passthrough13forward_short
FNDA:4,_RNvNtCsfUjBKV2B3Gc_7lb_quic11passthrough13reclaim_flows
FNDA:21,_RNvNtCsfUjBKV2B3Gc_7lb_quic11passthrough14handle_initial
FNDA:1,_RNvNtCsfUjBKV2B3Gc_7lb_quic11passthrough14sample_lb_scid
FNDA:19,_RNvNtCsfUjBKV2B3Gc_7lb_quic11passthrough15set_flows_gauge
FNDA:1,_RNvNtCsfUjBKV2B3Gc_7lb_quic11passthrough16run_idle_sweeper
FNDA:3,_RNvNtCsfUjBKV2B3Gc_7lb_quic11passthrough16sweep_idle_flows
FNDA:5,_RNvNtCsfUjBKV2B3Gc_7lb_quic11passthrough17forward_short_via
FNDA:1,_RNvNtCsfUjBKV2B3Gc_7lb_quic11passthrough17write_secret_file
FNDA:4,_RNvNtCsfUjBKV2B3Gc_7lb_quic11passthrough18build_retry_packet
FNDA:21,_RNvNtCsfUjBKV2B3Gc_7lb_quic11passthrough20hash_dcid_for_maglev
FNDA:1,_RNvNtCsfUjBKV2B3Gc_7lb_quic11passthrough23__flow_entry_field_audit
FNDA:3,_RNvNtCsfUjBKV2B3Gc_7lb_quic11passthrough29load_or_generate_retry_secret
FNDA:10,_RNvNtNtCsfUjBKV2B3Gc_7lb_quic11passthrough5tests2rt
FNDA:91,_RNvNtNtCsfUjBKV2B3Gc_7lb_quic11passthrough5tests8loopback
FNDA:1,_RNvNtNtCsfUjBKV2B3Gc_7lb_quic11passthrough5testss_24retry_packet_byte_layout
FNDA:1,_RNvNtNtCsfUjBKV2B3Gc_7lb_quic11passthrough5testss_25flow_entry_audit_compiles
FNDA:1,_RNvNtNtCsfUjBKV2B3Gc_7lb_quic11passthrough5testss_25retry_secret_loader_edges
FNDA:1,_RNvNtNtCsfUjBKV2B3Gc_7lb_quic11passthrough5testss_26audit_allow_one_per_window
FNDA:1,_RNvNtNtCsfUjBKV2B3Gc_7lb_quic11passthrough5testss_26retry_packet_deterministic
FNDA:1,_RNvNtNtCsfUjBKV2B3Gc_7lb_quic11passthrough5testss_29pick_backend_is_deterministic
FNDA:1,_RNvNtNtCsfUjBKV2B3Gc_7lb_quic11passthrough5testss_31min_client_dcid_len_floor_table
FNDA:1,_RNvNtNtCsfUjBKV2B3Gc_7lb_quic11passthrough5testss_31token_verify_reject_then_accept
FNDA:1,_RNvNtNtCsfUjBKV2B3Gc_7lb_quic11passthrough5testss_37forward_short_via_strict_source_table
FNDA:1,_RNvNtNtCsfUjBKV2B3Gc_7lb_quic11passthrough5testss_37mint_retry_false_forwards_and_inserts
FNDA:1,_RNvNtNtCsfUjBKV2B3Gc_7lb_quic11passthrough5testss_40evict_oldest_at_cap_and_negative_control
FNDA:1,_RNvNtNtCsfUjBKV2B3Gc_7lb_quic11passthrough5testss_40forward_short_multi_length_fallback_hits
FNDA:1,_RNvNtNtCsfUjBKV2B3Gc_7lb_quic11passthrough5testss_41mint_retry_true_mints_and_does_not_insert
FNDA:1,_RNvNtNtCsfUjBKV2B3Gc_7lb_quic11passthrough5testss_45idle_sweep_reclaims_idle_flows_and_frees_them
FNDA:1,_RNvNtNtCsfUjBKV2B3Gc_7lb_quic11passthrough5testss_47passthrough_params_defaults_match_owner_rulings
FNDA:1,_RNvNtNtCsfUjBKV2B3Gc_7lb_quic11passthrough5testss_58idle_sweeper_task_reaps_periodically_and_stops_on_shutdown
FNDA:0,_RNCNCNvNtCsfUjBKV2B3Gc_7lb_quic11passthrough12reverse_pump00B7_
FNDA:1,_RNCNCNvNtCsfUjBKV2B3Gc_7lb_quic11passthrough13forward_short00B7_
FNDA:1,_RNCNCNvNtCsfUjBKV2B3Gc_7lb_quic11passthrough13forward_short0s_0B7_
FNDA:14,_RNCNCNvNtCsfUjBKV2B3Gc_7lb_quic11passthrough13reclaim_flows00B7_
FNDA:7,_RNCNCNvNtCsfUjBKV2B3Gc_7lb_quic11passthrough13reclaim_flows0s_0B7_
FNDA:6,_RNCNCNvNtCsfUjBKV2B3Gc_7lb_quic11passthrough14handle_initial00B7_
FNDA:6,_RNCNCNvNtCsfUjBKV2B3Gc_7lb_quic11passthrough14handle_initial0s_0B7_
FNDA:7,_RNCNvNtCsfUjBKV2B3Gc_7lb_quic11passthrough11audit_allow0B5_
FNDA:6,_RNCNvNtCsfUjBKV2B3Gc_7lb_quic11passthrough12reverse_pump0B5_
FNDA:1,_RNCNvNtCsfUjBKV2B3Gc_7lb_quic11passthrough13forward_short0B5_
FNDA:8,_RNCNvNtCsfUjBKV2B3Gc_7lb_quic11passthrough13reclaim_flows0B5_
FNDA:7,_RNCNvNtCsfUjBKV2B3Gc_7lb_quic11passthrough13reclaim_flowss_0B5_
FNDA:21,_RNCNvNtCsfUjBKV2B3Gc_7lb_quic11passthrough14handle_initial0B5_
FNDA:1,_RNCNvNtCsfUjBKV2B3Gc_7lb_quic11passthrough16run_idle_sweeper0B5_
FNDA:6,_RNCNvNtCsfUjBKV2B3Gc_7lb_quic11passthrough16sweep_idle_flows0B5_
FNDA:0,_RNCNvNtCsfUjBKV2B3Gc_7lb_quic11passthrough18build_retry_packet0B5_
FNDA:0,_RNCNvNtCsfUjBKV2B3Gc_7lb_quic11passthrough18build_retry_packets_0B5_
FNDA:0,_RNCNvNtCsfUjBKV2B3Gc_7lb_quic11passthrough29load_or_generate_retry_secret0B5_
FNDA:1,_RINvNtNtCsfUjBKV2B3Gc_7lb_quic11passthrough5tests8test_ctxNCNCNvB2_s_29pick_backend_is_deterministic00EB6_
FNDA:5,_RINvNtNtCsfUjBKV2B3Gc_7lb_quic11passthrough5tests8test_ctxNCNCNvB2_s_31min_client_dcid_len_floor_table00EB6_
FNDA:1,_RINvNtNtCsfUjBKV2B3Gc_7lb_quic11passthrough5tests8test_ctxNCNCNvB2_s_31token_verify_reject_then_accept00EB6_
FNDA:1,_RINvNtNtCsfUjBKV2B3Gc_7lb_quic11passthrough5tests8test_ctxNCNCNvB2_s_31token_verify_reject_then_accept0s_0EB6_
FNDA:4,_RINvNtNtCsfUjBKV2B3Gc_7lb_quic11passthrough5tests8test_ctxNCNCNvB2_s_37forward_short_via_strict_source_table00EB6_
FNDA:1,_RINvNtNtCsfUjBKV2B3Gc_7lb_quic11passthrough5tests8test_ctxNCNCNvB2_s_37mint_retry_false_forwards_and_inserts00EB6_
FNDA:1,_RINvNtNtCsfUjBKV2B3Gc_7lb_quic11passthrough5tests8test_ctxNCNCNvB2_s_40evict_oldest_at_cap_and_negative_control00EB6_
FNDA:1,_RINvNtNtCsfUjBKV2B3Gc_7lb_quic11passthrough5tests8test_ctxNCNCNvB2_s_40evict_oldest_at_cap_and_negative_control0s_0EB6_
FNDA:1,_RINvNtNtCsfUjBKV2B3Gc_7lb_quic11passthrough5tests8test_ctxNCNCNvB2_s_40forward_short_multi_length_fallback_hits00EB6_
FNDA:1,_RINvNtNtCsfUjBKV2B3Gc_7lb_quic11passthrough5tests8test_ctxNCNCNvB2_s_41mint_retry_true_mints_and_does_not_insert00EB6_
FNDA:1,_RINvNtNtCsfUjBKV2B3Gc_7lb_quic11passthrough5tests8test_ctxNCNCNvB2_s_45idle_sweep_reclaims_idle_flows_and_frees_them00EB6_
FNDA:1,_RINvNtNtCsfUjBKV2B3Gc_7lb_quic11passthrough5tests8test_ctxNCNCNvB2_s_58idle_sweeper_task_reaps_periodically_and_stops_on_shutdown00EB6_
FNDA:1,_RNCINvNtNtCsfUjBKV2B3Gc_7lb_quic11passthrough5tests8test_ctxNCNCNvB4_s_29pick_backend_is_deterministic00E0B8_
FNDA:5,_RNCINvNtNtCsfUjBKV2B3Gc_7lb_quic11passthrough5tests8test_ctxNCNCNvB4_s_31min_client_dcid_len_floor_table00E0B8_
FNDA:1,_RNCINvNtNtCsfUjBKV2B3Gc_7lb_quic11passthrough5tests8test_ctxNCNCNvB4_s_31token_verify_reject_then_accept00E0B8_
FNDA:1,_RNCINvNtNtCsfUjBKV2B3Gc_7lb_quic11passthrough5tests8test_ctxNCNCNvB4_s_31token_verify_reject_then_accept0s_0E0B8_
FNDA:4,_RNCINvNtNtCsfUjBKV2B3Gc_7lb_quic11passthrough5tests8test_ctxNCNCNvB4_s_37forward_short_via_strict_source_table00E0B8_
FNDA:1,_RNCINvNtNtCsfUjBKV2B3Gc_7lb_quic11passthrough5tests8test_ctxNCNCNvB4_s_37mint_retry_false_forwards_and_inserts00E0B8_
FNDA:1,_RNCINvNtNtCsfUjBKV2B3Gc_7lb_quic11passthrough5tests8test_ctxNCNCNvB4_s_40evict_oldest_at_cap_and_negative_control00E0B8_
FNDA:1,_RNCINvNtNtCsfUjBKV2B3Gc_7lb_quic11passthrough5tests8test_ctxNCNCNvB4_s_40evict_oldest_at_cap_and_negative_control0s_0E0B8_
FNDA:1,_RNCINvNtNtCsfUjBKV2B3Gc_7lb_quic11passthrough5tests8test_ctxNCNCNvB4_s_40forward_short_multi_length_fallback_hits00E0B8_
FNDA:1,_RNCINvNtNtCsfUjBKV2B3Gc_7lb_quic11passthrough5tests8test_ctxNCNCNvB4_s_41mint_retry_true_mints_and_does_not_insert00E0B8_
FNDA:1,_RNCINvNtNtCsfUjBKV2B3Gc_7lb_quic11passthrough5tests8test_ctxNCNCNvB4_s_45idle_sweep_reclaims_idle_flows_and_frees_them00E0B8_
FNDA:1,_RNCINvNtNtCsfUjBKV2B3Gc_7lb_quic11passthrough5tests8test_ctxNCNCNvB4_s_58idle_sweeper_task_reaps_periodically_and_stops_on_shutdown00E0B8_
FNDA:1,_RNCNCINvNtNtCsfUjBKV2B3Gc_7lb_quic11passthrough5tests8test_ctxNCNCNvB6_s_29pick_backend_is_deterministic00E00Ba_
FNDA:5,_RNCNCINvNtNtCsfUjBKV2B3Gc_7lb_quic11passthrough5tests8test_ctxNCNCNvB6_s_31min_client_dcid_len_floor_table00E00Ba_
FNDA:1,_RNCNCINvNtNtCsfUjBKV2B3Gc_7lb_quic11passthrough5tests8test_ctxNCNCNvB6_s_31token_verify_reject_then_accept00E00Ba_
FNDA:1,_RNCNCINvNtNtCsfUjBKV2B3Gc_7lb_quic11passthrough5tests8test_ctxNCNCNvB6_s_31token_verify_reject_then_accept0s_0E00Ba_
FNDA:4,_RNCNCINvNtNtCsfUjBKV2B3Gc_7lb_quic11passthrough5tests8test_ctxNCNCNvB6_s_37forward_short_via_strict_source_table00E00Ba_
FNDA:1,_RNCNCINvNtNtCsfUjBKV2B3Gc_7lb_quic11passthrough5tests8test_ctxNCNCNvB6_s_37mint_retry_false_forwards_and_inserts00E00Ba_
FNDA:1,_RNCNCINvNtNtCsfUjBKV2B3Gc_7lb_quic11passthrough5tests8test_ctxNCNCNvB6_s_40evict_oldest_at_cap_and_negative_control00E00Ba_
FNDA:1,_RNCNCINvNtNtCsfUjBKV2B3Gc_7lb_quic11passthrough5tests8test_ctxNCNCNvB6_s_40evict_oldest_at_cap_and_negative_control0s_0E00Ba_
FNDA:1,_RNCNCINvNtNtCsfUjBKV2B3Gc_7lb_quic11passthrough5tests8test_ctxNCNCNvB6_s_40forward_short_multi_length_fallback_hits00E00Ba_
FNDA:1,_RNCNCINvNtNtCsfUjBKV2B3Gc_7lb_quic11passthrough5tests8test_ctxNCNCNvB6_s_41mint_retry_true_mints_and_does_not_insert00E00Ba_
FNDA:1,_RNCNCINvNtNtCsfUjBKV2B3Gc_7lb_quic11passthrough5tests8test_ctxNCNCNvB6_s_45idle_sweep_reclaims_idle_flows_and_frees_them00E00Ba_
FNDA:1,_RNCNCINvNtNtCsfUjBKV2B3Gc_7lb_quic11passthrough5tests8test_ctxNCNCNvB6_s_58idle_sweeper_task_reaps_periodically_and_stops_on_shutdown00E00Ba_
FNDA:1,_RNCNCNvNtNtCsfUjBKV2B3Gc_7lb_quic11passthrough5testss_29pick_backend_is_deterministic00B9_
FNDA:5,_RNCNCNvNtNtCsfUjBKV2B3Gc_7lb_quic11passthrough5testss_31min_client_dcid_len_floor_table00B9_
FNDA:1,_RNCNCNvNtNtCsfUjBKV2B3Gc_7lb_quic11passthrough5testss_31token_verify_reject_then_accept00B9_
FNDA:1,_RNCNCNvNtNtCsfUjBKV2B3Gc_7lb_quic11passthrough5testss_31token_verify_reject_then_accept0s_0B9_
FNDA:4,_RNCNCNvNtNtCsfUjBKV2B3Gc_7lb_quic11passthrough5testss_37forward_short_via_strict_source_table00B9_
FNDA:1,_RNCNCNvNtNtCsfUjBKV2B3Gc_7lb_quic11passthrough5testss_37mint_retry_false_forwards_and_inserts00B9_
FNDA:1,_RNCNCNvNtNtCsfUjBKV2B3Gc_7lb_quic11passthrough5testss_40evict_oldest_at_cap_and_negative_control00B9_
FNDA:1,_RNCNCNvNtNtCsfUjBKV2B3Gc_7lb_quic11passthrough5testss_40evict_oldest_at_cap_and_negative_control0s_0B9_
FNDA:1,_RNCNCNvNtNtCsfUjBKV2B3Gc_7lb_quic11passthrough5testss_40forward_short_multi_length_fallback_hits00B9_
FNDA:1,_RNCNCNvNtNtCsfUjBKV2B3Gc_7lb_quic11passthrough5testss_41mint_retry_true_mints_and_does_not_insert00B9_
FNDA:1,_RNCNCNvNtNtCsfUjBKV2B3Gc_7lb_quic11passthrough5testss_45idle_sweep_reclaims_idle_flows_and_frees_them00B9_
FNDA:3,_RNCNCNvNtNtCsfUjBKV2B3Gc_7lb_quic11passthrough5testss_45idle_sweep_reclaims_idle_flows_and_frees_them0s0_0B9_
FNDA:3,_RNCNCNvNtNtCsfUjBKV2B3Gc_7lb_quic11passthrough5testss_45idle_sweep_reclaims_idle_flows_and_frees_them0s_0B9_
FNDA:1,_RNCNCNvNtNtCsfUjBKV2B3Gc_7lb_quic11passthrough5testss_58idle_sweeper_task_reaps_periodically_and_stops_on_shutdown00B9_
FNDA:1,_RNCNvNtNtCsfUjBKV2B3Gc_7lb_quic11passthrough5testss_25flow_entry_audit_compiles0B7_
FNDA:1,_RNCNvNtNtCsfUjBKV2B3Gc_7lb_quic11passthrough5testss_29pick_backend_is_deterministic0B7_
FNDA:1,_RNCNvNtNtCsfUjBKV2B3Gc_7lb_quic11passthrough5testss_31min_client_dcid_len_floor_table0B7_
FNDA:1,_RNCNvNtNtCsfUjBKV2B3Gc_7lb_quic11passthrough5testss_31token_verify_reject_then_accept0B7_
FNDA:1,_RNCNvNtNtCsfUjBKV2B3Gc_7lb_quic11passthrough5testss_37forward_short_via_strict_source_table0B7_
FNDA:1,_RNCNvNtNtCsfUjBKV2B3Gc_7lb_quic11passthrough5testss_37mint_retry_false_forwards_and_inserts0B7_
FNDA:1,_RNCNvNtNtCsfUjBKV2B3Gc_7lb_quic11passthrough5testss_40evict_oldest_at_cap_and_negative_control0B7_
FNDA:1,_RNCNvNtNtCsfUjBKV2B3Gc_7lb_quic11passthrough5testss_40forward_short_multi_length_fallback_hits0B7_
FNDA:1,_RNCNvNtNtCsfUjBKV2B3Gc_7lb_quic11passthrough5testss_41mint_retry_true_mints_and_does_not_insert0B7_
FNDA:1,_RNCNvNtNtCsfUjBKV2B3Gc_7lb_quic11passthrough5testss_45idle_sweep_reclaims_idle_flows_and_frees_them0B7_
FNDA:1,_RNCNvNtNtCsfUjBKV2B3Gc_7lb_quic11passthrough5testss_58idle_sweeper_task_reaps_periodically_and_stops_on_shutdown0B7_
FNDA:4362,_RNCNCNCNCNvMs1_NtCskwRMVHy5hME_7lb_quic11passthroughNtBd_19PassthroughListener5spawn0s1_000CsirzOIEPmb9J_42quic_passthrough_audit_throttle_saturation
FNDA:4362,_RNCNCNCNvMs1_NtCskwRMVHy5hME_7lb_quic11passthroughNtBb_19PassthroughListener5spawn0s1_00CsirzOIEPmb9J_42quic_passthrough_audit_throttle_saturation
FNDA:0,_RNCNCNvMs1_NtCskwRMVHy5hME_7lb_quic11passthroughNtB9_19PassthroughListener5spawn00CsirzOIEPmb9J_42quic_passthrough_audit_throttle_saturation
FNDA:0,_RNCNCNvMs1_NtCskwRMVHy5hME_7lb_quic11passthroughNtB9_19PassthroughListener5spawn0s0_0CsirzOIEPmb9J_42quic_passthrough_audit_throttle_saturation
FNDA:2,_RNCNCNvMs1_NtCskwRMVHy5hME_7lb_quic11passthroughNtB9_19PassthroughListener5spawn0s1_0CsirzOIEPmb9J_42quic_passthrough_audit_throttle_saturation
FNDA:2,_RNCNCNvMs1_NtCskwRMVHy5hME_7lb_quic11passthroughNtB9_19PassthroughListener5spawn0s_0CsirzOIEPmb9J_42quic_passthrough_audit_throttle_saturation
FNDA:0,_RNCNCNvNtCskwRMVHy5hME_7lb_quic11passthrough12reverse_pump00CsirzOIEPmb9J_42quic_passthrough_audit_throttle_saturation
FNDA:0,_RNCNCNvNtCskwRMVHy5hME_7lb_quic11passthrough13forward_short00CsirzOIEPmb9J_42quic_passthrough_audit_throttle_saturation
FNDA:0,_RNCNCNvNtCskwRMVHy5hME_7lb_quic11passthrough13forward_short0s_0CsirzOIEPmb9J_42quic_passthrough_audit_throttle_saturation
FNDA:4362,_RNCNCNvNtCskwRMVHy5hME_7lb_quic11passthrough14handle_initial00CsirzOIEPmb9J_42quic_passthrough_audit_throttle_saturation
FNDA:4362,_RNCNCNvNtCskwRMVHy5hME_7lb_quic11passthrough14handle_initial0s_0CsirzOIEPmb9J_42quic_passthrough_audit_throttle_saturation
FNDA:2,_RNCNvMs1_NtCskwRMVHy5hME_7lb_quic11passthroughNtB7_19PassthroughListener5spawn0CsirzOIEPmb9J_42quic_passthrough_audit_throttle_saturation
FNDA:4362,_RNCNvNtCskwRMVHy5hME_7lb_quic11passthrough12reverse_pump0CsirzOIEPmb9J_42quic_passthrough_audit_throttle_saturation
FNDA:0,_RNCNvNtCskwRMVHy5hME_7lb_quic11passthrough13forward_short0CsirzOIEPmb9J_42quic_passthrough_audit_throttle_saturation
FNDA:4362,_RNCNvNtCskwRMVHy5hME_7lb_quic11passthrough14handle_inbound0CsirzOIEPmb9J_42quic_passthrough_audit_throttle_saturation
FNDA:4362,_RNCNvNtCskwRMVHy5hME_7lb_quic11passthrough14handle_initial0CsirzOIEPmb9J_42quic_passthrough_audit_throttle_saturation
FNDA:2,_RNCNvNtCskwRMVHy5hME_7lb_quic11passthrough16run_idle_sweeper0CsirzOIEPmb9J_42quic_passthrough_audit_throttle_saturation
FNDA:0,_RNCNvNtCskwRMVHy5hME_7lb_quic11passthrough21forward_long_existing0CsirzOIEPmb9J_42quic_passthrough_audit_throttle_saturation
FNDA:7746,_RNCNCNCNCNvMs1_NtCskwRMVHy5hME_7lb_quic11passthroughNtBd_19PassthroughListener5spawn0s1_000Csh0Klu32cwnN_30quic_passthrough_bounded_state
FNDA:7746,_RNCNCNCNvMs1_NtCskwRMVHy5hME_7lb_quic11passthroughNtBb_19PassthroughListener5spawn0s1_00Csh0Klu32cwnN_30quic_passthrough_bounded_state
FNDA:0,_RNCNCNvMs1_NtCskwRMVHy5hME_7lb_quic11passthroughNtB9_19PassthroughListener5spawn00Csh0Klu32cwnN_30quic_passthrough_bounded_state
FNDA:0,_RNCNCNvMs1_NtCskwRMVHy5hME_7lb_quic11passthroughNtB9_19PassthroughListener5spawn0s0_0Csh0Klu32cwnN_30quic_passthrough_bounded_state
FNDA:52,_RNCNCNvMs1_NtCskwRMVHy5hME_7lb_quic11passthroughNtB9_19PassthroughListener5spawn0s1_0Csh0Klu32cwnN_30quic_passthrough_bounded_state
FNDA:52,_RNCNCNvMs1_NtCskwRMVHy5hME_7lb_quic11passthroughNtB9_19PassthroughListener5spawn0s_0Csh0Klu32cwnN_30quic_passthrough_bounded_state
FNDA:0,_RNCNCNvNtCskwRMVHy5hME_7lb_quic11passthrough12reverse_pump00Csh0Klu32cwnN_30quic_passthrough_bounded_state
FNDA:0,_RNCNCNvNtCskwRMVHy5hME_7lb_quic11passthrough13forward_short00Csh0Klu32cwnN_30quic_passthrough_bounded_state
FNDA:0,_RNCNCNvNtCskwRMVHy5hME_7lb_quic11passthrough13forward_short0s_0Csh0Klu32cwnN_30quic_passthrough_bounded_state
FNDA:7746,_RNCNCNvNtCskwRMVHy5hME_7lb_quic11passthrough14handle_initial00Csh0Klu32cwnN_30quic_passthrough_bounded_state
FNDA:7746,_RNCNCNvNtCskwRMVHy5hME_7lb_quic11passthrough14handle_initial0s_0Csh0Klu32cwnN_30quic_passthrough_bounded_state
FNDA:52,_RNCNvMs1_NtCskwRMVHy5hME_7lb_quic11passthroughNtB7_19PassthroughListener5spawn0Csh0Klu32cwnN_30quic_passthrough_bounded_state
FNDA:7746,_RNCNvNtCskwRMVHy5hME_7lb_quic11passthrough12reverse_pump0Csh0Klu32cwnN_30quic_passthrough_bounded_state
FNDA:0,_RNCNvNtCskwRMVHy5hME_7lb_quic11passthrough13forward_short0Csh0Klu32cwnN_30quic_passthrough_bounded_state
FNDA:7746,_RNCNvNtCskwRMVHy5hME_7lb_quic11passthrough14handle_inbound0Csh0Klu32cwnN_30quic_passthrough_bounded_state
FNDA:7746,_RNCNvNtCskwRMVHy5hME_7lb_quic11passthrough14handle_initial0Csh0Klu32cwnN_30quic_passthrough_bounded_state
FNDA:52,_RNCNvNtCskwRMVHy5hME_7lb_quic11passthrough16run_idle_sweeper0Csh0Klu32cwnN_30quic_passthrough_bounded_state
FNDA:0,_RNCNvNtCskwRMVHy5hME_7lb_quic11passthrough21forward_long_existing0Csh0Klu32cwnN_30quic_passthrough_bounded_state
FNDA:9,_RNCNCNCNCNvMs1_NtCskwRMVHy5hME_7lb_quic11passthroughNtBd_19PassthroughListener5spawn0s1_000CshVQo1pTwmG6_30quic_passthrough_cid_migration
FNDA:9,_RNCNCNCNvMs1_NtCskwRMVHy5hME_7lb_quic11passthroughNtBb_19PassthroughListener5spawn0s1_00CshVQo1pTwmG6_30quic_passthrough_cid_migration
FNDA:0,_RNCNCNvMs1_NtCskwRMVHy5hME_7lb_quic11passthroughNtB9_19PassthroughListener5spawn00CshVQo1pTwmG6_30quic_passthrough_cid_migration
FNDA:0,_RNCNCNvMs1_NtCskwRMVHy5hME_7lb_quic11passthroughNtB9_19PassthroughListener5spawn0s0_0CshVQo1pTwmG6_30quic_passthrough_cid_migration
FNDA:1,_RNCNCNvMs1_NtCskwRMVHy5hME_7lb_quic11passthroughNtB9_19PassthroughListener5spawn0s1_0CshVQo1pTwmG6_30quic_passthrough_cid_migration
FNDA:1,_RNCNCNvMs1_NtCskwRMVHy5hME_7lb_quic11passthroughNtB9_19PassthroughListener5spawn0s_0CshVQo1pTwmG6_30quic_passthrough_cid_migration
FNDA:0,_RNCNCNvNtCskwRMVHy5hME_7lb_quic11passthrough12reverse_pump00CshVQo1pTwmG6_30quic_passthrough_cid_migration
FNDA:0,_RNCNCNvNtCskwRMVHy5hME_7lb_quic11passthrough13forward_short00CshVQo1pTwmG6_30quic_passthrough_cid_migration
FNDA:0,_RNCNCNvNtCskwRMVHy5hME_7lb_quic11passthrough13forward_short0s_0CshVQo1pTwmG6_30quic_passthrough_cid_migration
FNDA:1,_RNCNCNvNtCskwRMVHy5hME_7lb_quic11passthrough14handle_initial00CshVQo1pTwmG6_30quic_passthrough_cid_migration
FNDA:1,_RNCNCNvNtCskwRMVHy5hME_7lb_quic11passthrough14handle_initial0s_0CshVQo1pTwmG6_30quic_passthrough_cid_migration
FNDA:1,_RNCNvMs1_NtCskwRMVHy5hME_7lb_quic11passthroughNtB7_19PassthroughListener5spawn0CshVQo1pTwmG6_30quic_passthrough_cid_migration
FNDA:1,_RNCNvNtCskwRMVHy5hME_7lb_quic11passthrough12reverse_pump0CshVQo1pTwmG6_30quic_passthrough_cid_migration
FNDA:8,_RNCNvNtCskwRMVHy5hME_7lb_quic11passthrough13forward_short0CshVQo1pTwmG6_30quic_passthrough_cid_migration
FNDA:9,_RNCNvNtCskwRMVHy5hME_7lb_quic11passthrough14handle_inbound0CshVQo1pTwmG6_30quic_passthrough_cid_migration
FNDA:1,_RNCNvNtCskwRMVHy5hME_7lb_quic11passthrough14handle_initial0CshVQo1pTwmG6_30quic_passthrough_cid_migration
FNDA:1,_RNCNvNtCskwRMVHy5hME_7lb_quic11passthrough16run_idle_sweeper0CshVQo1pTwmG6_30quic_passthrough_cid_migration
FNDA:0,_RNCNvNtCskwRMVHy5hME_7lb_quic11passthrough21forward_long_existing0CshVQo1pTwmG6_30quic_passthrough_cid_migration
FNDA:5,_RNCNCNCNCNvMs1_NtCskwRMVHy5hME_7lb_quic11passthroughNtBd_19PassthroughListener5spawn0s1_000Cs3ruMz8ISmoD_20quic_passthrough_e2e
FNDA:5,_RNCNCNCNvMs1_NtCskwRMVHy5hME_7lb_quic11passthroughNtBb_19PassthroughListener5spawn0s1_00Cs3ruMz8ISmoD_20quic_passthrough_e2e
FNDA:0,_RNCNCNvMs1_NtCskwRMVHy5hME_7lb_quic11passthroughNtB9_19PassthroughListener5spawn00Cs3ruMz8ISmoD_20quic_passthrough_e2e
FNDA:0,_RNCNCNvMs1_NtCskwRMVHy5hME_7lb_quic11passthroughNtB9_19PassthroughListener5spawn0s0_0Cs3ruMz8ISmoD_20quic_passthrough_e2e
FNDA:1,_RNCNCNvMs1_NtCskwRMVHy5hME_7lb_quic11passthroughNtB9_19PassthroughListener5spawn0s1_0Cs3ruMz8ISmoD_20quic_passthrough_e2e
FNDA:1,_RNCNCNvMs1_NtCskwRMVHy5hME_7lb_quic11passthroughNtB9_19PassthroughListener5spawn0s_0Cs3ruMz8ISmoD_20quic_passthrough_e2e
FNDA:1,_RNCNCNvNtCskwRMVHy5hME_7lb_quic11passthrough12reverse_pump00Cs3ruMz8ISmoD_20quic_passthrough_e2e
FNDA:0,_RNCNCNvNtCskwRMVHy5hME_7lb_quic11passthrough13forward_short00Cs3ruMz8ISmoD_20quic_passthrough_e2e
FNDA:0,_RNCNCNvNtCskwRMVHy5hME_7lb_quic11passthrough13forward_short0s_0Cs3ruMz8ISmoD_20quic_passthrough_e2e
FNDA:1,_RNCNCNvNtCskwRMVHy5hME_7lb_quic11passthrough14handle_initial00Cs3ruMz8ISmoD_20quic_passthrough_e2e
FNDA:1,_RNCNCNvNtCskwRMVHy5hME_7lb_quic11passthrough14handle_initial0s_0Cs3ruMz8ISmoD_20quic_passthrough_e2e
FNDA:1,_RNCNvMs1_NtCskwRMVHy5hME_7lb_quic11passthroughNtB7_19PassthroughListener5spawn0Cs3ruMz8ISmoD_20quic_passthrough_e2e
FNDA:1,_RNCNvNtCskwRMVHy5hME_7lb_quic11passthrough12reverse_pump0Cs3ruMz8ISmoD_20quic_passthrough_e2e
FNDA:3,_RNCNvNtCskwRMVHy5hME_7lb_quic11passthrough13forward_short0Cs3ruMz8ISmoD_20quic_passthrough_e2e
FNDA:5,_RNCNvNtCskwRMVHy5hME_7lb_quic11passthrough14handle_inbound0Cs3ruMz8ISmoD_20quic_passthrough_e2e
FNDA:2,_RNCNvNtCskwRMVHy5hME_7lb_quic11passthrough14handle_initial0Cs3ruMz8ISmoD_20quic_passthrough_e2e
FNDA:1,_RNCNvNtCskwRMVHy5hME_7lb_quic11passthrough16run_idle_sweeper0Cs3ruMz8ISmoD_20quic_passthrough_e2e
FNDA:0,_RNCNvNtCskwRMVHy5hME_7lb_quic11passthrough21forward_long_existing0Cs3ruMz8ISmoD_20quic_passthrough_e2e
FNDA:206,_RNCNCNCNCNvMs1_NtCskwRMVHy5hME_7lb_quic11passthroughNtBd_19PassthroughListener5spawn0s1_000CsesikQZkyyPB_24quic_passthrough_metrics
FNDA:206,_RNCNCNCNvMs1_NtCskwRMVHy5hME_7lb_quic11passthroughNtBb_19PassthroughListener5spawn0s1_00CsesikQZkyyPB_24quic_passthrough_metrics
FNDA:0,_RNCNCNvMs1_NtCskwRMVHy5hME_7lb_quic11passthroughNtB9_19PassthroughListener5spawn00CsesikQZkyyPB_24quic_passthrough_metrics
FNDA:0,_RNCNCNvMs1_NtCskwRMVHy5hME_7lb_quic11passthroughNtB9_19PassthroughListener5spawn0s0_0CsesikQZkyyPB_24quic_passthrough_metrics
FNDA:3,_RNCNCNvMs1_NtCskwRMVHy5hME_7lb_quic11passthroughNtB9_19PassthroughListener5spawn0s1_0CsesikQZkyyPB_24quic_passthrough_metrics
FNDA:3,_RNCNCNvMs1_NtCskwRMVHy5hME_7lb_quic11passthroughNtB9_19PassthroughListener5spawn0s_0CsesikQZkyyPB_24quic_passthrough_metrics
FNDA:0,_RNCNCNvNtCskwRMVHy5hME_7lb_quic11passthrough12reverse_pump00CsesikQZkyyPB_24quic_passthrough_metrics
FNDA:0,_RNCNCNvNtCskwRMVHy5hME_7lb_quic11passthrough13forward_short00CsesikQZkyyPB_24quic_passthrough_metrics
FNDA:0,_RNCNCNvNtCskwRMVHy5hME_7lb_quic11passthrough13forward_short0s_0CsesikQZkyyPB_24quic_passthrough_metrics
FNDA:201,_RNCNCNvNtCskwRMVHy5hME_7lb_quic11passthrough14handle_initial00CsesikQZkyyPB_24quic_passthrough_metrics
FNDA:201,_RNCNCNvNtCskwRMVHy5hME_7lb_quic11passthrough14handle_initial0s_0CsesikQZkyyPB_24quic_passthrough_metrics
FNDA:3,_RNCNvMs1_NtCskwRMVHy5hME_7lb_quic11passthroughNtB7_19PassthroughListener5spawn0CsesikQZkyyPB_24quic_passthrough_metrics
FNDA:201,_RNCNvNtCskwRMVHy5hME_7lb_quic11passthrough12reverse_pump0CsesikQZkyyPB_24quic_passthrough_metrics
FNDA:0,_RNCNvNtCskwRMVHy5hME_7lb_quic11passthrough13forward_short0CsesikQZkyyPB_24quic_passthrough_metrics
FNDA:206,_RNCNvNtCskwRMVHy5hME_7lb_quic11passthrough14handle_inbound0CsesikQZkyyPB_24quic_passthrough_metrics
FNDA:203,_RNCNvNtCskwRMVHy5hME_7lb_quic11passthrough14handle_initial0CsesikQZkyyPB_24quic_passthrough_metrics
FNDA:3,_RNCNvNtCskwRMVHy5hME_7lb_quic11passthrough16run_idle_sweeper0CsesikQZkyyPB_24quic_passthrough_metrics
FNDA:0,_RNCNvNtCskwRMVHy5hME_7lb_quic11passthrough21forward_long_existing0CsesikQZkyyPB_24quic_passthrough_metrics
FNDA:5,_RNCNCNCNCNvMs1_NtCskwRMVHy5hME_7lb_quic11passthroughNtBd_19PassthroughListener5spawn0s1_000CshSQDaECda3a_35quic_passthrough_spoofed_source_e2e
FNDA:5,_RNCNCNCNvMs1_NtCskwRMVHy5hME_7lb_quic11passthroughNtBb_19PassthroughListener5spawn0s1_00CshSQDaECda3a_35quic_passthrough_spoofed_source_e2e
FNDA:0,_RNCNCNvMs1_NtCskwRMVHy5hME_7lb_quic11passthroughNtB9_19PassthroughListener5spawn00CshSQDaECda3a_35quic_passthrough_spoofed_source_e2e
FNDA:0,_RNCNCNvMs1_NtCskwRMVHy5hME_7lb_quic11passthroughNtB9_19PassthroughListener5spawn0s0_0CshSQDaECda3a_35quic_passthrough_spoofed_source_e2e
FNDA:2,_RNCNCNvMs1_NtCskwRMVHy5hME_7lb_quic11passthroughNtB9_19PassthroughListener5spawn0s1_0CshSQDaECda3a_35quic_passthrough_spoofed_source_e2e
FNDA:2,_RNCNCNvMs1_NtCskwRMVHy5hME_7lb_quic11passthroughNtB9_19PassthroughListener5spawn0s_0CshSQDaECda3a_35quic_passthrough_spoofed_source_e2e
FNDA:0,_RNCNCNvNtCskwRMVHy5hME_7lb_quic11passthrough12reverse_pump00CshSQDaECda3a_35quic_passthrough_spoofed_source_e2e
FNDA:0,_RNCNCNvNtCskwRMVHy5hME_7lb_quic11passthrough13forward_short00CshSQDaECda3a_35quic_passthrough_spoofed_source_e2e
