SF:/home/ubuntu/Code/s9-verifier/crates/lb-core/src/authority.rs
FN:94,_RNvNtCsgdBts1zkGS4_7lb_core9authority11port_suffix
FN:57,_RNvNtCsgdBts1zkGS4_7lb_core9authority8validate
FN:102,_RNCNvNtCsgdBts1zkGS4_7lb_core9authority11port_suffix0B5_
FN:72,_RNCNvNtCsgdBts1zkGS4_7lb_core9authority8validate0B5_
FN:85,_RNCNvNtCsgdBts1zkGS4_7lb_core9authority8validates0_0B5_
FN:73,_RNCNvNtCsgdBts1zkGS4_7lb_core9authority8validates_0B5_
FNDA:67,_RNvNtCsgdBts1zkGS4_7lb_core9authority11port_suffix
FNDA:67,_RNvNtCsgdBts1zkGS4_7lb_core9authority8validate
FNDA:1258,_RNCNvNtCsgdBts1zkGS4_7lb_core9authority11port_suffix0B5_
FNDA:1258,_RNCNvNtCsgdBts1zkGS4_7lb_core9authority8validate0B5_
FNDA:70,_RNCNvNtCsgdBts1zkGS4_7lb_core9authority8validates0_0B5_
FNDA:1258,_RNCNvNtCsgdBts1zkGS4_7lb_core9authority8validates_0B5_
FNF:6
FNH:6
DA:57,67
DA:58,67
DA:59,0
DA:60,67
DA:61,1258
DA:62,1258
DA:63,0
DA:64,0
DA:65,1258
DA:66,1258
DA:72,1258
DA:73,1258
DA:74,67
DA:75,0
DA:76,67
DA:81,67
DA:82,14
DA:83,0
DA:84,14
DA:85,70
DA:86,0
DA:87,14
DA:88,53
DA:89,67
DA:90,67
DA:94,67
DA:96,67
DA:97,0
DA:98,0
DA:99,67
DA:100,67
DA:101,67
DA:102,1258
DA:103,67
DA:104,53
DA:105,14
DA:106,14
DA:107,14
DA:108,67
BRF:0
BRH:0
LF:43
LH:35
end_of_record
SF:/home/ubuntu/Code/s9-verifier/crates/lb-core/src/shutdown.rs
FN:722,_RNCNvNtCsgdBts1zkGS4_7lb_core8shutdown13jitter_millis0B5_
FNDA:0,_RNCNvNtCsgdBts1zkGS4_7lb_core8shutdown13jitter_millis0B5_
FNF:1
FNH:0
DA:722,0
BRF:0
BRH:0
LF:1
LH:0
end_of_record
SF:/home/ubuntu/Code/s9-verifier/crates/lb-grpc/src/deadline.rs
FN:29,_RNvMNtCs89ePBhylGLd_7lb_grpc8deadlineNtB2_12GrpcDeadline13parse_timeout
FN:66,_RNvMNtCs89ePBhylGLd_7lb_grpc8deadlineNtB2_12GrpcDeadline14format_timeout
FN:88,_RNvMNtCs89ePBhylGLd_7lb_grpc8deadlineNtB2_12GrpcDeadline9remaining
FN:43,_RNCNvMNtCs89ePBhylGLd_7lb_grpc8deadlineNtB4_12GrpcDeadline13parse_timeout0B6_
FNDA:0,_RNvMNtCs89ePBhylGLd_7lb_grpc8deadlineNtB2_12GrpcDeadline13parse_timeout
FNDA:0,_RNvMNtCs89ePBhylGLd_7lb_grpc8deadlineNtB2_12GrpcDeadline14format_timeout
FNDA:0,_RNvMNtCs89ePBhylGLd_7lb_grpc8deadlineNtB2_12GrpcDeadline9remaining
FNDA:0,_RNCNvMNtCs89ePBhylGLd_7lb_grpc8deadlineNtB4_12GrpcDeadline13parse_timeout0B6_
FNF:4
FNH:0
DA:29,0
DA:30,0
DA:31,0
DA:32,0
DA:33,0
DA:34,0
DA:35,0
DA:36,0
DA:37,0
DA:38,0
DA:39,0
DA:41,0
DA:42,0
DA:43,0
DA:48,0
DA:49,0
DA:50,0
DA:51,0
DA:52,0
DA:53,0
DA:54,0
DA:55,0
DA:58,0
DA:59,0
DA:66,0
DA:67,0
DA:68,0
DA:69,0
DA:70,0
DA:71,0
DA:72,0
DA:73,0
DA:74,0
DA:75,0
DA:76,0
DA:77,0
DA:78,0
DA:79,0
DA:80,0
DA:81,0
DA:82,0
DA:88,0
DA:89,0
DA:90,0
DA:91,0
DA:92,0
DA:93,0
BRF:0
BRH:0
LF:48
LH:0
end_of_record
SF:/home/ubuntu/Code/s9-verifier/crates/lb-grpc/src/frame.rs
FN:44,_RNvNtCs89ePBhylGLd_7lb_grpc5frame17decode_grpc_frame
FN:99,_RNvNtCs89ePBhylGLd_7lb_grpc5frame17encode_grpc_frame
FN:100,_RNCNvNtCs89ePBhylGLd_7lb_grpc5frame17encode_grpc_frame0B5_
FNDA:0,_RNvNtCs89ePBhylGLd_7lb_grpc5frame17decode_grpc_frame
FNDA:0,_RNvNtCs89ePBhylGLd_7lb_grpc5frame17encode_grpc_frame
FNDA:0,_RNCNvNtCs89ePBhylGLd_7lb_grpc5frame17encode_grpc_frame0B5_
FNF:3
FNH:0
DA:44,0
DA:45,0
DA:46,0
DA:47,0
DA:48,0
DA:49,0
DA:50,0
DA:53,0
DA:54,0
DA:55,0
DA:56,0
DA:57,0
DA:58,0
DA:59,0
DA:60,0
DA:65,0
DA:66,0
DA:67,0
DA:68,0
DA:69,0
DA:71,0
DA:72,0
DA:73,0
DA:74,0
DA:75,0
DA:76,0
DA:77,0
DA:78,0
DA:79,0
DA:80,0
DA:81,0
DA:82,0
DA:83,0
DA:84,0
DA:86,0
DA:87,0
DA:88,0
DA:91,0
DA:92,0
DA:99,0
DA:100,0
DA:101,0
DA:102,0
DA:104,0
DA:105,0
DA:106,0
DA:107,0
DA:108,0
DA:109,0
DA:110,0
BRF:0
BRH:0
LF:52
LH:0
end_of_record
SF:/home/ubuntu/Code/s9-verifier/crates/lb-grpc/src/status.rs
FN:81,_RNvMNtCs89ePBhylGLd_7lb_grpc6statusNtB2_10GrpcStatus14to_http_status
FN:102,_RNvMNtCs89ePBhylGLd_7lb_grpc6statusNtB2_10GrpcStatus16from_http_status
FN:54,_RNvMNtCs89ePBhylGLd_7lb_grpc6statusNtB2_10GrpcStatus9from_code
FNDA:0,_RNvMNtCs89ePBhylGLd_7lb_grpc6statusNtB2_10GrpcStatus14to_http_status
FNDA:0,_RNvMNtCs89ePBhylGLd_7lb_grpc6statusNtB2_10GrpcStatus16from_http_status
FNDA:0,_RNvMNtCs89ePBhylGLd_7lb_grpc6statusNtB2_10GrpcStatus9from_code
FNF:3
FNH:0
DA:54,0
DA:55,0
DA:56,0
DA:57,0
DA:58,0
DA:59,0
DA:60,0
DA:61,0
DA:62,0
DA:63,0
DA:64,0
DA:65,0
DA:66,0
DA:67,0
DA:68,0
DA:69,0
DA:70,0
DA:71,0
DA:72,0
DA:73,0
DA:75,0
DA:81,0
DA:82,0
DA:83,0
DA:84,0
DA:85,0
DA:86,0
DA:87,0
DA:88,0
DA:89,0
DA:90,0
DA:91,0
DA:92,0
DA:93,0
DA:94,0
DA:96,0
DA:102,0
DA:103,0
DA:104,0
DA:105,0
DA:106,0
DA:107,0
DA:108,0
DA:109,0
DA:110,0
DA:111,0
DA:112,0
DA:114,0
BRF:0
BRH:0
LF:48
LH:0
end_of_record
SF:/home/ubuntu/Code/s9-verifier/crates/lb-h2/src/frame.rs
FN:140,_RNCNvNtCseXyJWoI8AqR_5lb_h25frame13strip_padding0B5_
FN:153,_RNCNvNtCseXyJWoI8AqR_5lb_h25frame13strip_paddings_0B5_
FN:253,_RNCNvNtCseXyJWoI8AqR_5lb_h25frame16decode_frame_low0B5_
FNDA:0,_RNCNvNtCseXyJWoI8AqR_5lb_h25frame13strip_padding0B5_
FNDA:0,_RNCNvNtCseXyJWoI8AqR_5lb_h25frame13strip_paddings_0B5_
FNDA:0,_RNCNvNtCseXyJWoI8AqR_5lb_h25frame16decode_frame_low0B5_
FNF:3
FNH:0
DA:140,0
DA:153,0
DA:253,0
BRF:0
BRH:0
LF:3
LH:0
end_of_record
SF:/home/ubuntu/Code/s9-verifier/crates/lb-h2/src/hpack.rs
FN:192,_RNCNvMNtCseXyJWoI8AqR_5lb_h25hpackNtB4_12DynamicTable3get0B6_
FN:324,_RNCNvNtCseXyJWoI8AqR_5lb_h25hpack13decode_string0B5_
FN:257,_RNCNvNtCseXyJWoI8AqR_5lb_h25hpack14find_in_tables0B5_
FN:214,_RNCNvNtCseXyJWoI8AqR_5lb_h25hpack9table_get0B5_
FN:220,_RNCNvNtCseXyJWoI8AqR_5lb_h25hpack9table_gets_0B5_
FNDA:0,_RNCNvMNtCseXyJWoI8AqR_5lb_h25hpackNtB4_12DynamicTable3get0B6_
FNDA:0,_RNCNvNtCseXyJWoI8AqR_5lb_h25hpack13decode_string0B5_
FNDA:0,_RNCNvNtCseXyJWoI8AqR_5lb_h25hpack14find_in_tables0B5_
FNDA:0,_RNCNvNtCseXyJWoI8AqR_5lb_h25hpack9table_get0B5_
FNDA:0,_RNCNvNtCseXyJWoI8AqR_5lb_h25hpack9table_gets_0B5_
FNF:5
FNH:0
DA:192,0
DA:214,0
DA:220,0
DA:257,0
DA:324,0
BRF:0
BRH:0
LF:5
LH:0
end_of_record
SF:/home/ubuntu/Code/s9-verifier/crates/lb-h2/src/security.rs
FN:418,_RNCNvMs3_NtCseXyJWoI8AqR_5lb_h28securityNtB7_23ZeroWindowStallDetector13check_stalled0B9_
FNDA:0,_RNCNvMs3_NtCseXyJWoI8AqR_5lb_h28securityNtB7_23ZeroWindowStallDetector13check_stalled0B9_
FNF:1
FNH:0
DA:418,0
BRF:0
BRH:0
LF:1
LH:0
end_of_record
SF:/home/ubuntu/Code/s9-verifier/crates/lb-h3/src/frame.rs
FN:84,_RNvNtCs8yjlOoneUIw_5lb_h35frame12decode_frame
FN:159,_RNvNtCs8yjlOoneUIw_5lb_h35frame12encode_frame
FN:98,_RNCNvNtCs8yjlOoneUIw_5lb_h35frame12decode_frame0B5_
FNDA:0,_RNvNtCs8yjlOoneUIw_5lb_h35frame12decode_frame
FNDA:0,_RNvNtCs8yjlOoneUIw_5lb_h35frame12encode_frame
FNDA:0,_RNCNvNtCs8yjlOoneUIw_5lb_h35frame12decode_frame0B5_
FNF:3
FNH:0
DA:84,0
DA:85,0
DA:86,0
DA:87,0
DA:89,0
DA:90,0
DA:91,0
DA:92,0
DA:93,0
DA:94,0
DA:95,0
DA:96,0
DA:97,0
DA:98,0
DA:99,0
DA:101,0
DA:103,0
DA:104,0
DA:105,0
DA:106,0
DA:107,0
DA:108,0
DA:109,0
DA:111,0
DA:112,0
DA:115,0
DA:116,0
DA:117,0
DA:118,0
DA:119,0
DA:120,0
DA:121,0
DA:122,0
DA:123,0
DA:125,0
DA:128,0
DA:129,0
DA:130,0
DA:131,0
DA:132,0
DA:133,0
DA:136,0
DA:137,0
DA:140,0
DA:141,0
DA:144,0
DA:145,0
DA:146,0
DA:147,0
DA:150,0
DA:151,0
DA:159,0
DA:160,0
DA:161,0
DA:162,0
DA:163,0
DA:164,0
DA:165,0
DA:166,0
DA:168,0
DA:169,0
DA:170,0
DA:171,0
DA:173,0
DA:174,0
DA:175,0
DA:176,0
DA:177,0
DA:178,0
DA:180,0
DA:181,0
DA:182,0
DA:183,0
DA:184,0
DA:186,0
DA:187,0
DA:188,0
DA:191,0
DA:192,0
DA:193,0
DA:194,0
DA:195,0
DA:196,0
DA:197,0
DA:198,0
DA:199,0
DA:201,0
DA:202,0
DA:203,0
DA:204,0
DA:205,0
DA:206,0
DA:208,0
DA:209,0
DA:210,0
DA:211,0
DA:212,0
DA:213,0
DA:216,0
DA:217,0
DA:218,0
DA:219,0
DA:220,0
DA:221,0
DA:225,0
DA:226,0
BRF:0
BRH:0
LF:107
LH:0
end_of_record
SF:/home/ubuntu/Code/s9-verifier/crates/lb-h3/src/qpack.rs
FN:304,_RNCNvMs0_NtCs8yjlOoneUIw_5lb_h35qpackNtB7_12QpackDecoder6decode0B9_
FN:319,_RNCNvMs0_NtCs8yjlOoneUIw_5lb_h35qpackNtB7_12QpackDecoder6decodes_0B9_
FN:137,_RNCNvNtCs8yjlOoneUIw_5lb_h35qpack11find_static0B5_
FN:198,_RNCNvNtCs8yjlOoneUIw_5lb_h35qpack14decode_qstring0B5_
FN:211,_RNvMNtCs8yjlOoneUIw_5lb_h35qpackNtB2_12QpackEncoder3new
FN:223,_RNvMNtCs8yjlOoneUIw_5lb_h35qpackNtB2_12QpackEncoder6encode
FN:270,_RNvMs0_NtCs8yjlOoneUIw_5lb_h35qpackNtB5_12QpackDecoder3new
FN:279,_RNvMs0_NtCs8yjlOoneUIw_5lb_h35qpackNtB5_12QpackDecoder6decode
FN:161,_RNvNtCs8yjlOoneUIw_5lb_h35qpack11decode_qint
FN:142,_RNvNtCs8yjlOoneUIw_5lb_h35qpack11encode_qint
FN:125,_RNvNtCs8yjlOoneUIw_5lb_h35qpack11find_static
FN:192,_RNvNtCs8yjlOoneUIw_5lb_h35qpack14decode_qstring
FN:187,_RNvNtCs8yjlOoneUIw_5lb_h35qpack14encode_qstring
FN:356,_RNvXs1_NtCs8yjlOoneUIw_5lb_h35qpackNtB5_12QpackDecoderNtNtCs2va5m0jqTTM_4core7default7Default7default
FN:256,_RNvXs_NtCs8yjlOoneUIw_5lb_h35qpackNtB4_12QpackEncoderNtNtCs2va5m0jqTTM_4core7default7Default7default
FNDA:0,_RNCNvMs0_NtCs8yjlOoneUIw_5lb_h35qpackNtB7_12QpackDecoder6decode0B9_
FNDA:0,_RNCNvMs0_NtCs8yjlOoneUIw_5lb_h35qpackNtB7_12QpackDecoder6decodes_0B9_
FNDA:0,_RNCNvNtCs8yjlOoneUIw_5lb_h35qpack11find_static0B5_
FNDA:0,_RNCNvNtCs8yjlOoneUIw_5lb_h35qpack14decode_qstring0B5_
FNDA:0,_RNvMNtCs8yjlOoneUIw_5lb_h35qpackNtB2_12QpackEncoder3new
FNDA:0,_RNvMNtCs8yjlOoneUIw_5lb_h35qpackNtB2_12QpackEncoder6encode
FNDA:0,_RNvMs0_NtCs8yjlOoneUIw_5lb_h35qpackNtB5_12QpackDecoder3new
FNDA:0,_RNvMs0_NtCs8yjlOoneUIw_5lb_h35qpackNtB5_12QpackDecoder6decode
FNDA:0,_RNvNtCs8yjlOoneUIw_5lb_h35qpack11decode_qint
FNDA:0,_RNvNtCs8yjlOoneUIw_5lb_h35qpack11encode_qint
FNDA:0,_RNvNtCs8yjlOoneUIw_5lb_h35qpack11find_static
FNDA:0,_RNvNtCs8yjlOoneUIw_5lb_h35qpack14decode_qstring
FNDA:0,_RNvNtCs8yjlOoneUIw_5lb_h35qpack14encode_qstring
FNDA:0,_RNvXs1_NtCs8yjlOoneUIw_5lb_h35qpackNtB5_12QpackDecoderNtNtCs2va5m0jqTTM_4core7default7Default7default
FNDA:0,_RNvXs_NtCs8yjlOoneUIw_5lb_h35qpackNtB4_12QpackEncoderNtNtCs2va5m0jqTTM_4core7default7Default7default
FNF:15
FNH:0
DA:125,0
DA:126,0
DA:127,0
DA:128,0
DA:129,0
DA:130,0
DA:131,0
DA:132,0
DA:133,0
DA:134,0
DA:135,0
DA:137,0
DA:138,0
DA:142,0
DA:143,0
DA:144,0
DA:145,0
DA:146,0
DA:147,0
DA:149,0
DA:150,0
DA:151,0
DA:152,0
DA:153,0
DA:154,0
DA:155,0
DA:157,0
DA:159,0
DA:161,0
DA:162,0
DA:163,0
DA:164,0
DA:165,0
DA:166,0
DA:167,0
DA:168,0
DA:169,0
DA:170,0
DA:171,0
DA:173,0
DA:174,0
DA:175,0
DA:176,0
DA:177,0
DA:178,0
DA:179,0
DA:180,0
DA:181,0
DA:182,0
DA:184,0
DA:185,0
DA:187,0
DA:188,0
DA:189,0
DA:190,0
DA:192,0
DA:193,0
DA:194,0
DA:195,0
DA:196,0
DA:197,0
DA:198,0
DA:199,0
DA:200,0
DA:211,0
DA:212,0
DA:213,0
DA:223,0
DA:224,0
DA:225,0
DA:226,0
DA:227,0
DA:228,0
DA:229,0
DA:231,0
DA:232,0
DA:233,0
DA:234,0
DA:235,0
DA:236,0
DA:237,0
DA:238,0
DA:239,0
DA:240,0
DA:241,0
DA:242,0
DA:243,0
DA:244,0
DA:245,0
DA:246,0
DA:247,0
DA:251,0
DA:252,0
DA:256,0
DA:257,0
DA:258,0
DA:270,0
DA:271,0
DA:272,0
DA:279,0
DA:280,0
DA:281,0
DA:282,0
DA:284,0
DA:285,0
DA:286,0
DA:287,0
DA:288,0
DA:289,0
DA:290,0
DA:291,0
DA:293,0
DA:294,0
DA:296,0
DA:298,0
DA:299,0
DA:300,0
DA:302,0
DA:303,0
DA:304,0
DA:305,0
DA:306,0
DA:308,0
DA:309,0
DA:310,0
DA:311,0
DA:313,0
DA:314,0
DA:315,0
DA:317,0
DA:318,0
DA:319,0
DA:320,0
DA:322,0
DA:323,0
DA:324,0
DA:325,0
DA:326,0
DA:327,0
DA:329,0
DA:330,0
DA:331,0
DA:332,0
DA:334,0
DA:335,0
DA:336,0
DA:337,0
DA:339,0
DA:340,0
DA:341,0
DA:342,0
DA:343,0
DA:345,0
DA:346,0
DA:347,0
DA:351,0
DA:352,0
DA:356,0
DA:357,0
DA:358,0
BRF:0
BRH:0
LF:164
LH:0
end_of_record
SF:/home/ubuntu/Code/s9-verifier/crates/lb-h3/src/varint.rs
FN:27,_RNvNtCs8yjlOoneUIw_5lb_h36varint13decode_varint
FN:68,_RNvNtCs8yjlOoneUIw_5lb_h36varint13encode_varint
FNDA:0,_RNvNtCs8yjlOoneUIw_5lb_h36varint13decode_varint
FNDA:0,_RNvNtCs8yjlOoneUIw_5lb_h36varint13encode_varint
FNF:2
FNH:0
DA:27,0
DA:28,0
DA:29,0
DA:30,0
DA:31,0
DA:33,0
DA:34,0
DA:37,0
DA:38,0
DA:39,0
DA:42,0
DA:43,0
DA:44,0
DA:45,0
DA:46,0
DA:47,0
DA:48,0
DA:49,0
DA:52,0
DA:53,0
DA:54,0
DA:55,0
DA:57,0
DA:59,0
DA:61,0
DA:68,0
DA:69,0
DA:70,0
DA:71,0
DA:72,0
DA:73,0
DA:75,0
DA:76,0
DA:77,0
DA:79,0
DA:80,0
DA:81,0
DA:82,0
DA:84,0
DA:85,0
DA:86,0
DA:88,0
DA:89,0
DA:90,0
DA:92,0
BRF:0
BRH:0
LF:45
LH:0
end_of_record
SF:/home/ubuntu/Code/s9-verifier/crates/lb-io/src/dns.rs
FN:143,_RNvMs1_NtCs4GBZUaiPV4D_5lb_io3dnsNtB5_8CacheKey8from_ref
FN:219,_RNvMs4_NtCs4GBZUaiPV4D_5lb_io3dnsNtB5_11DnsResolver10cache_size
FN:311,_RNvMs4_NtCs4GBZUaiPV4D_5lb_io3dnsNtB5_11DnsResolver11materialize
FN:354,_RNvMs4_NtCs4GBZUaiPV4D_5lb_io3dnsNtB5_11DnsResolver11refresh_all
FN:206,_RNvMs4_NtCs4GBZUaiPV4D_5lb_io3dnsNtB5_11DnsResolver13with_resolver
FN:268,_RNvMs4_NtCs4GBZUaiPV4D_5lb_io3dnsNtB5_11DnsResolver15fill_and_return
FN:328,_RNvMs4_NtCs4GBZUaiPV4D_5lb_io3dnsNtB5_11DnsResolver24spawn_background_refresh
FN:193,_RNvMs4_NtCs4GBZUaiPV4D_5lb_io3dnsNtB5_11DnsResolver3new
FN:235,_RNvMs4_NtCs4GBZUaiPV4D_5lb_io3dnsNtB5_11DnsResolver7resolve
FN:118,_RNvMs_NtCs4GBZUaiPV4D_5lb_io3dnsNtB4_10CacheEntry10is_expired
FN:122,_RNvMs_NtCs4GBZUaiPV4D_5lb_io3dnsNtB4_10CacheEntry11set_expires
FN:111,_RNvMs_NtCs4GBZUaiPV4D_5lb_io3dnsNtB4_10CacheEntry3new
FN:367,_RNvNtCs4GBZUaiPV4D_5lb_io3dns13io_err_to_dns
FN:157,_RNvNtCs4GBZUaiPV4D_5lb_io3dns15system_resolver
FN:66,_RNvXNtCs4GBZUaiPV4D_5lb_io3dnsNtB2_14ResolverConfigNtNtCs2va5m0jqTTM_4core7default7Default7default
FN:176,_RNvXs2_NtCs4GBZUaiPV4D_5lb_io3dnsNtB5_11DnsResolverNtNtCs2va5m0jqTTM_4core3fmt5Debug3fmt
FN:185,_RNvXs3_NtCs4GBZUaiPV4D_5lb_io3dnsNtB5_11DnsResolverNtNtCs2va5m0jqTTM_4core7default7Default7default
FN:136,_RINvXs0_NtCs4GBZUaiPV4D_5lb_io3dnsNtB6_8CacheKeyNtNtCs2va5m0jqTTM_4core4hash4Hash4hashNtNtNtCs3kAxCWUtVg2_3std4hash6random13DefaultHasherEB8_
FN:283,_RNCNCNCNCNvMs4_NtCs4GBZUaiPV4D_5lb_io3dnsNtBd_11DnsResolver15fill_and_return0000Bf_
FN:281,_RNCNCNCNvMs4_NtCs4GBZUaiPV4D_5lb_io3dnsNtBb_11DnsResolver15fill_and_return000Bd_
FN:358,_RNCNCNvMs4_NtCs4GBZUaiPV4D_5lb_io3dnsNtB9_11DnsResolver11refresh_all00Bb_
FN:305,_RNCNCNvMs4_NtCs4GBZUaiPV4D_5lb_io3dnsNtB9_11DnsResolver15fill_and_return00Bb_
FN:354,_RNCNvMs4_NtCs4GBZUaiPV4D_5lb_io3dnsNtB7_11DnsResolver11refresh_all0B9_
FN:273,_RNCNvMs4_NtCs4GBZUaiPV4D_5lb_io3dnsNtB7_11DnsResolver15fill_and_return0B9_
FN:337,_RNCNvMs4_NtCs4GBZUaiPV4D_5lb_io3dnsNtB7_11DnsResolver24spawn_background_refresh0B9_
FN:340,_RNCNvMs4_NtCs4GBZUaiPV4D_5lb_io3dnsNtB7_11DnsResolver24spawn_background_refreshs_0B9_
FN:241,_RNCNCNvMs4_NtCs4GBZUaiPV4D_5lb_io3dnsNtB9_11DnsResolver7resolve00Bb_
FN:235,_RNCNvMs4_NtCs4GBZUaiPV4D_5lb_io3dnsNtB7_11DnsResolver7resolve0B9_
FNDA:0,_RNvMs1_NtCs4GBZUaiPV4D_5lb_io3dnsNtB5_8CacheKey8from_ref
FNDA:0,_RNvMs4_NtCs4GBZUaiPV4D_5lb_io3dnsNtB5_11DnsResolver10cache_size
FNDA:0,_RNvMs4_NtCs4GBZUaiPV4D_5lb_io3dnsNtB5_11DnsResolver11materialize
FNDA:0,_RNvMs4_NtCs4GBZUaiPV4D_5lb_io3dnsNtB5_11DnsResolver11refresh_all
FNDA:0,_RNvMs4_NtCs4GBZUaiPV4D_5lb_io3dnsNtB5_11DnsResolver13with_resolver
FNDA:0,_RNvMs4_NtCs4GBZUaiPV4D_5lb_io3dnsNtB5_11DnsResolver15fill_and_return
FNDA:0,_RNvMs4_NtCs4GBZUaiPV4D_5lb_io3dnsNtB5_11DnsResolver24spawn_background_refresh
FNDA:0,_RNvMs4_NtCs4GBZUaiPV4D_5lb_io3dnsNtB5_11DnsResolver3new
FNDA:0,_RNvMs4_NtCs4GBZUaiPV4D_5lb_io3dnsNtB5_11DnsResolver7resolve
FNDA:0,_RNvMs_NtCs4GBZUaiPV4D_5lb_io3dnsNtB4_10CacheEntry10is_expired
FNDA:0,_RNvMs_NtCs4GBZUaiPV4D_5lb_io3dnsNtB4_10CacheEntry11set_expires
FNDA:0,_RNvMs_NtCs4GBZUaiPV4D_5lb_io3dnsNtB4_10CacheEntry3new
FNDA:0,_RNvNtCs4GBZUaiPV4D_5lb_io3dns13io_err_to_dns
FNDA:0,_RNvNtCs4GBZUaiPV4D_5lb_io3dns15system_resolver
FNDA:0,_RNvXNtCs4GBZUaiPV4D_5lb_io3dnsNtB2_14ResolverConfigNtNtCs2va5m0jqTTM_4core7default7Default7default
FNDA:0,_RNvXs2_NtCs4GBZUaiPV4D_5lb_io3dnsNtB5_11DnsResolverNtNtCs2va5m0jqTTM_4core3fmt5Debug3fmt
FNDA:0,_RNvXs3_NtCs4GBZUaiPV4D_5lb_io3dnsNtB5_11DnsResolverNtNtCs2va5m0jqTTM_4core7default7Default7default
FNDA:0,_RINvXs0_NtCs4GBZUaiPV4D_5lb_io3dnsNtB6_8CacheKeyNtNtCs2va5m0jqTTM_4core4hash4Hash4hashNtNtNtCs3kAxCWUtVg2_3std4hash6random13DefaultHasherEB8_
FNDA:0,_RNCNCNCNCNvMs4_NtCs4GBZUaiPV4D_5lb_io3dnsNtBd_11DnsResolver15fill_and_return0000Bf_
FNDA:0,_RNCNCNCNvMs4_NtCs4GBZUaiPV4D_5lb_io3dnsNtBb_11DnsResolver15fill_and_return000Bd_
FNDA:0,_RNCNCNvMs4_NtCs4GBZUaiPV4D_5lb_io3dnsNtB9_11DnsResolver11refresh_all00Bb_
FNDA:0,_RNCNCNvMs4_NtCs4GBZUaiPV4D_5lb_io3dnsNtB9_11DnsResolver15fill_and_return00Bb_
FNDA:0,_RNCNvMs4_NtCs4GBZUaiPV4D_5lb_io3dnsNtB7_11DnsResolver11refresh_all0B9_
FNDA:0,_RNCNvMs4_NtCs4GBZUaiPV4D_5lb_io3dnsNtB7_11DnsResolver15fill_and_return0B9_
FNDA:0,_RNCNvMs4_NtCs4GBZUaiPV4D_5lb_io3dnsNtB7_11DnsResolver24spawn_background_refresh0B9_
FNDA:0,_RNCNvMs4_NtCs4GBZUaiPV4D_5lb_io3dnsNtB7_11DnsResolver24spawn_background_refreshs_0B9_
FNDA:0,_RNCNCNvMs4_NtCs4GBZUaiPV4D_5lb_io3dnsNtB9_11DnsResolver7resolve00Bb_
FNDA:0,_RNCNvMs4_NtCs4GBZUaiPV4D_5lb_io3dnsNtB7_11DnsResolver7resolve0B9_
FNF:28
FNH:0
DA:66,0
DA:67,0
DA:68,0
DA:69,0
DA:70,0
DA:71,0
DA:72,0
DA:111,0
DA:112,0
DA:113,0
DA:114,0
DA:115,0
DA:116,0
DA:118,0
DA:119,0
DA:120,0
DA:122,0
DA:123,0
DA:124,0
DA:136,0
DA:137,0
DA:138,0
DA:139,0
DA:143,0
DA:144,0
DA:145,0
DA:146,0
DA:147,0
DA:148,0
DA:157,0
DA:158,0
DA:159,0
DA:160,0
DA:176,0
DA:177,0
DA:178,0
DA:179,0
DA:180,0
DA:181,0
DA:185,0
DA:186,0
DA:187,0
DA:193,0
DA:194,0
DA:195,0
DA:196,0
DA:197,0
DA:198,0
DA:199,0
DA:200,0
DA:201,0
DA:202,0
DA:206,0
DA:207,0
DA:208,0
DA:209,0
DA:210,0
DA:211,0
DA:212,0
DA:213,0
DA:214,0
DA:215,0
DA:219,0
DA:220,0
DA:221,0
DA:235,0
DA:236,0
DA:237,0
DA:238,0
DA:239,0
DA:240,0
DA:241,0
DA:242,0
DA:243,0
DA:244,0
DA:245,0
DA:246,0
DA:247,0
DA:248,0
DA:249,0
DA:250,0
DA:251,0
DA:252,0
DA:253,0
DA:254,0
DA:260,0
DA:261,0
DA:262,0
DA:263,0
DA:264,0
DA:265,0
DA:266,0
DA:268,0
DA:269,0
DA:270,0
DA:271,0
DA:272,0
DA:273,0
DA:274,0
DA:275,0
DA:276,0
DA:277,0
DA:279,0
DA:280,0
DA:281,0
DA:282,0
DA:283,0
DA:285,0
DA:286,0
DA:287,0
DA:288,0
DA:289,0
DA:290,0
DA:291,0
DA:292,0
DA:293,0
DA:294,0
DA:296,0
DA:299,0
DA:300,0
DA:301,0
DA:303,0
DA:304,0
DA:305,0
DA:306,0
DA:308,0
DA:309,0
DA:311,0
DA:312,0
DA:313,0
DA:314,0
DA:315,0
DA:316,0
DA:317,0
DA:318,0
DA:320,0
DA:328,0
DA:329,0
DA:330,0
DA:331,0
DA:332,0
DA:333,0
DA:334,0
DA:335,0
DA:337,0
DA:338,0
DA:339,0
DA:340,0
DA:341,0
DA:342,0
DA:343,0
DA:344,0
DA:346,0
DA:347,0
DA:349,0
DA:350,0
DA:354,0
DA:355,0
DA:356,0
DA:357,0
DA:358,0
DA:359,0
DA:360,0
DA:361,0
DA:362,0
DA:364,0
DA:367,0
DA:368,0
DA:369,0
DA:370,0
DA:371,0
DA:372,0
DA:373,0
DA:374,0
DA:375,0
DA:376,0
DA:377,0
DA:378,0
DA:380,0
DA:381,0
DA:382,0
DA:383,0
DA:385,0
BRF:0
BRH:0
LF:194
LH:0
end_of_record
SF:/home/ubuntu/Code/s9-verifier/crates/lb-io/src/http2_pool.rs
FN:300,_RNCNCNvMs2_NtCs4GBZUaiPV4D_5lb_io10http2_poolNtB9_9Http2Pool18dial_and_handshake00Cs5ctNHRYimvA_7lb_quic
FN:318,_RNCNCNvMs2_NtCs4GBZUaiPV4D_5lb_io10http2_poolNtB9_9Http2Pool18dial_and_handshake0s0_0Cs5ctNHRYimvA_7lb_quic
FN:316,_RNCNCNvMs2_NtCs4GBZUaiPV4D_5lb_io10http2_poolNtB9_9Http2Pool18dial_and_handshake0s_0Cs5ctNHRYimvA_7lb_quic
FN:229,_RNCNvMs2_NtCs4GBZUaiPV4D_5lb_io10http2_poolNtB7_9Http2Pool12send_request0Cs5ctNHRYimvA_7lb_quic
FN:255,_RNCNvMs2_NtCs4GBZUaiPV4D_5lb_io10http2_poolNtB7_9Http2Pool14acquire_sender0Cs5ctNHRYimvA_7lb_quic
FN:293,_RNCNvMs2_NtCs4GBZUaiPV4D_5lb_io10http2_poolNtB7_9Http2Pool18dial_and_handshake0Cs5ctNHRYimvA_7lb_quic
FN:194,_RNvMs2_NtCs4GBZUaiPV4D_5lb_io10http2_poolNtB5_9Http2Pool10peer_count
FN:225,_RNvMs2_NtCs4GBZUaiPV4D_5lb_io10http2_poolNtB5_9Http2Pool12send_request
FN:280,_RNvMs2_NtCs4GBZUaiPV4D_5lb_io10http2_poolNtB5_9Http2Pool13replace_entry
FN:252,_RNvMs2_NtCs4GBZUaiPV4D_5lb_io10http2_poolNtB5_9Http2Pool14acquire_sender
FN:268,_RNvMs2_NtCs4GBZUaiPV4D_5lb_io10http2_poolNtB5_9Http2Pool17take_alive_sender
FN:290,_RNvMs2_NtCs4GBZUaiPV4D_5lb_io10http2_poolNtB5_9Http2Pool18dial_and_handshake
FN:182,_RNvMs2_NtCs4GBZUaiPV4D_5lb_io10http2_poolNtB5_9Http2Pool3new
FN:285,_RNvMs2_NtCs4GBZUaiPV4D_5lb_io10http2_poolNtB5_9Http2Pool5evict
FN:125,_RNvMs_NtCs4GBZUaiPV4D_5lb_io10http2_poolNtB4_9PeerEntry8is_alive
FN:333,_RNvNtCs4GBZUaiPV4D_5lb_io10http2_pool20collect_body_bounded
FN:107,_RNvXNtCs4GBZUaiPV4D_5lb_io10http2_poolNtB2_15Http2PoolConfigNtNtCs2va5m0jqTTM_4core7default7Default7default
FN:169,_RNvXs1_NtCs4GBZUaiPV4D_5lb_io10http2_poolNtB5_9Http2PoolNtNtCs2va5m0jqTTM_4core3fmt5Debug3fmt
FN:131,_RNvXs0_NtCs4GBZUaiPV4D_5lb_io10http2_poolNtB5_9PeerEntryNtNtNtCs2va5m0jqTTM_4core3ops4drop4Drop4drop
FN:300,_RNCNCNvMs2_NtCs4GBZUaiPV4D_5lb_io10http2_poolNtB9_9Http2Pool18dial_and_handshake00Bb_
FN:318,_RNCNCNvMs2_NtCs4GBZUaiPV4D_5lb_io10http2_poolNtB9_9Http2Pool18dial_and_handshake0s0_0Bb_
FN:316,_RNCNCNvMs2_NtCs4GBZUaiPV4D_5lb_io10http2_poolNtB9_9Http2Pool18dial_and_handshake0s_0Bb_
FN:337,_RNCNCNvNtCs4GBZUaiPV4D_5lb_io10http2_pool20collect_body_bounded00B7_
FN:229,_RNCNvMs2_NtCs4GBZUaiPV4D_5lb_io10http2_poolNtB7_9Http2Pool12send_request0B9_
FN:255,_RNCNvMs2_NtCs4GBZUaiPV4D_5lb_io10http2_poolNtB7_9Http2Pool14acquire_sender0B9_
FN:293,_RNCNvMs2_NtCs4GBZUaiPV4D_5lb_io10http2_poolNtB7_9Http2Pool18dial_and_handshake0B9_
FN:333,_RNCNvNtCs4GBZUaiPV4D_5lb_io10http2_pool20collect_body_bounded0B5_
FNDA:0,_RNCNCNvMs2_NtCs4GBZUaiPV4D_5lb_io10http2_poolNtB9_9Http2Pool18dial_and_handshake00Cs5ctNHRYimvA_7lb_quic
FNDA:0,_RNCNCNvMs2_NtCs4GBZUaiPV4D_5lb_io10http2_poolNtB9_9Http2Pool18dial_and_handshake0s0_0Cs5ctNHRYimvA_7lb_quic
FNDA:0,_RNCNCNvMs2_NtCs4GBZUaiPV4D_5lb_io10http2_poolNtB9_9Http2Pool18dial_and_handshake0s_0Cs5ctNHRYimvA_7lb_quic
FNDA:0,_RNCNvMs2_NtCs4GBZUaiPV4D_5lb_io10http2_poolNtB7_9Http2Pool12send_request0Cs5ctNHRYimvA_7lb_quic
FNDA:0,_RNCNvMs2_NtCs4GBZUaiPV4D_5lb_io10http2_poolNtB7_9Http2Pool14acquire_sender0Cs5ctNHRYimvA_7lb_quic
FNDA:0,_RNCNvMs2_NtCs4GBZUaiPV4D_5lb_io10http2_poolNtB7_9Http2Pool18dial_and_handshake0Cs5ctNHRYimvA_7lb_quic
FNDA:0,_RNvMs2_NtCs4GBZUaiPV4D_5lb_io10http2_poolNtB5_9Http2Pool10peer_count
FNDA:0,_RNvMs2_NtCs4GBZUaiPV4D_5lb_io10http2_poolNtB5_9Http2Pool12send_request
FNDA:0,_RNvMs2_NtCs4GBZUaiPV4D_5lb_io10http2_poolNtB5_9Http2Pool13replace_entry
FNDA:0,_RNvMs2_NtCs4GBZUaiPV4D_5lb_io10http2_poolNtB5_9Http2Pool14acquire_sender
FNDA:0,_RNvMs2_NtCs4GBZUaiPV4D_5lb_io10http2_poolNtB5_9Http2Pool17take_alive_sender
FNDA:0,_RNvMs2_NtCs4GBZUaiPV4D_5lb_io10http2_poolNtB5_9Http2Pool18dial_and_handshake
FNDA:0,_RNvMs2_NtCs4GBZUaiPV4D_5lb_io10http2_poolNtB5_9Http2Pool3new
FNDA:0,_RNvMs2_NtCs4GBZUaiPV4D_5lb_io10http2_poolNtB5_9Http2Pool5evict
FNDA:0,_RNvMs_NtCs4GBZUaiPV4D_5lb_io10http2_poolNtB4_9PeerEntry8is_alive
FNDA:0,_RNvNtCs4GBZUaiPV4D_5lb_io10http2_pool20collect_body_bounded
FNDA:0,_RNvXNtCs4GBZUaiPV4D_5lb_io10http2_poolNtB2_15Http2PoolConfigNtNtCs2va5m0jqTTM_4core7default7Default7default
FNDA:0,_RNvXs1_NtCs4GBZUaiPV4D_5lb_io10http2_poolNtB5_9Http2PoolNtNtCs2va5m0jqTTM_4core3fmt5Debug3fmt
FNDA:0,_RNvXs0_NtCs4GBZUaiPV4D_5lb_io10http2_poolNtB5_9PeerEntryNtNtNtCs2va5m0jqTTM_4core3ops4drop4Drop4drop
FNDA:0,_RNCNCNvMs2_NtCs4GBZUaiPV4D_5lb_io10http2_poolNtB9_9Http2Pool18dial_and_handshake00Bb_
FNDA:0,_RNCNCNvMs2_NtCs4GBZUaiPV4D_5lb_io10http2_poolNtB9_9Http2Pool18dial_and_handshake0s0_0Bb_
FNDA:0,_RNCNCNvMs2_NtCs4GBZUaiPV4D_5lb_io10http2_poolNtB9_9Http2Pool18dial_and_handshake0s_0Bb_
FNDA:0,_RNCNCNvNtCs4GBZUaiPV4D_5lb_io10http2_pool20collect_body_bounded00B7_
FNDA:0,_RNCNvMs2_NtCs4GBZUaiPV4D_5lb_io10http2_poolNtB7_9Http2Pool12send_request0B9_
FNDA:0,_RNCNvMs2_NtCs4GBZUaiPV4D_5lb_io10http2_poolNtB7_9Http2Pool14acquire_sender0B9_
FNDA:0,_RNCNvMs2_NtCs4GBZUaiPV4D_5lb_io10http2_poolNtB7_9Http2Pool18dial_and_handshake0B9_
FNDA:0,_RNCNvNtCs4GBZUaiPV4D_5lb_io10http2_pool20collect_body_bounded0B5_
FNF:21
FNH:0
DA:107,0
DA:108,0
DA:109,0
DA:110,0
DA:111,0
DA:112,0
DA:113,0
DA:114,0
DA:115,0
DA:125,0
DA:126,0
DA:127,0
DA:131,0
DA:132,0
DA:133,0
DA:169,0
DA:170,0
DA:171,0
DA:172,0
DA:173,0
DA:174,0
DA:175,0
DA:182,0
DA:183,0
DA:184,0
DA:185,0
DA:186,0
DA:187,0
DA:188,0
DA:189,0
DA:190,0
DA:194,0
DA:195,0
DA:196,0
DA:225,0
DA:226,0
DA:227,0
DA:228,0
DA:229,0
DA:230,0
DA:231,0
DA:232,0
DA:233,0
DA:234,0
DA:235,0
DA:236,0
DA:237,0
DA:238,0
DA:239,0
DA:240,0
DA:241,0
DA:244,0
DA:245,0
DA:248,0
DA:252,0
DA:253,0
DA:254,0
DA:255,0
DA:256,0
DA:257,0
DA:258,0
DA:259,0
DA:260,0
DA:261,0
DA:262,0
DA:263,0
DA:264,0
DA:265,0
DA:266,0
DA:268,0
DA:269,0
DA:270,0
DA:271,0
DA:273,0
DA:274,0
DA:276,0
DA:278,0
DA:280,0
DA:281,0
DA:282,0
DA:283,0
DA:285,0
DA:286,0
DA:287,0
DA:288,0
DA:290,0
DA:291,0
DA:292,0
DA:293,0
DA:297,0
DA:298,0
DA:299,0
DA:300,0
DA:302,0
DA:303,0
DA:304,0
DA:305,0
DA:306,0
DA:307,0
DA:308,0
DA:309,0
DA:310,0
DA:311,0
DA:312,0
DA:313,0
DA:314,0
DA:315,0
DA:316,0
DA:318,0
DA:319,0
DA:320,0
DA:321,0
DA:322,0
DA:333,0
DA:334,0
DA:335,0
DA:336,0
DA:337,0
DA:338,0
DA:339,0
DA:340,0
DA:341,0
DA:342,0
DA:343,0
DA:344,0
DA:345,0
DA:346,0
BRF:0
BRH:0
LF:136
LH:0
end_of_record
SF:/home/ubuntu/Code/s9-verifier/crates/lb-io/src/lib.rs
FN:78,_RNvCs4GBZUaiPV4D_5lb_io14detect_backend
FN:45,_RNvMCs4GBZUaiPV4D_5lb_ioNtB2_9IoBackend6as_str
FN:122,_RNvMs0_Cs4GBZUaiPV4D_5lb_ioNtB5_7Runtime12with_backend
FN:168,_RNvMs0_Cs4GBZUaiPV4D_5lb_ioNtB5_7Runtime14connect_socket
FN:142,_RNvMs0_Cs4GBZUaiPV4D_5lb_ioNtB5_7Runtime14low_water_mark
FN:135,_RNvMs0_Cs4GBZUaiPV4D_5lb_ioNtB5_7Runtime15high_water_mark
FN:152,_RNvMs0_Cs4GBZUaiPV4D_5lb_ioNtB5_7Runtime15listener_socket
FN:113,_RNvMs0_Cs4GBZUaiPV4D_5lb_ioNtB5_7Runtime3new
FN:186,_RNvMs0_Cs4GBZUaiPV4D_5lb_ioNtB5_7Runtime6listen
FN:128,_RNvMs0_Cs4GBZUaiPV4D_5lb_ioNtB5_7Runtime7backend
FN:202,_RNvMs0_Cs4GBZUaiPV4D_5lb_ioNtB5_7Runtime7connect
FN:212,_RNvXs1_Cs4GBZUaiPV4D_5lb_ioNtB5_7RuntimeNtNtCs2va5m0jqTTM_4core7default7Default7default
FN:54,_RNvXs_Cs4GBZUaiPV4D_5lb_ioNtB4_9IoBackendNtNtCs2va5m0jqTTM_4core3fmt7Display3fmt
FNDA:59,_RNvCs4GBZUaiPV4D_5lb_io14detect_backend
FNDA:0,_RNvMCs4GBZUaiPV4D_5lb_ioNtB2_9IoBackend6as_str
FNDA:0,_RNvMs0_Cs4GBZUaiPV4D_5lb_ioNtB5_7Runtime12with_backend
FNDA:0,_RNvMs0_Cs4GBZUaiPV4D_5lb_ioNtB5_7Runtime14connect_socket
FNDA:0,_RNvMs0_Cs4GBZUaiPV4D_5lb_ioNtB5_7Runtime14low_water_mark
FNDA:0,_RNvMs0_Cs4GBZUaiPV4D_5lb_ioNtB5_7Runtime15high_water_mark
FNDA:0,_RNvMs0_Cs4GBZUaiPV4D_5lb_ioNtB5_7Runtime15listener_socket
FNDA:59,_RNvMs0_Cs4GBZUaiPV4D_5lb_ioNtB5_7Runtime3new
FNDA:0,_RNvMs0_Cs4GBZUaiPV4D_5lb_ioNtB5_7Runtime6listen
FNDA:0,_RNvMs0_Cs4GBZUaiPV4D_5lb_ioNtB5_7Runtime7backend
FNDA:0,_RNvMs0_Cs4GBZUaiPV4D_5lb_ioNtB5_7Runtime7connect
FNDA:0,_RNvXs1_Cs4GBZUaiPV4D_5lb_ioNtB5_7RuntimeNtNtCs2va5m0jqTTM_4core7default7Default7default
FNDA:0,_RNvXs_Cs4GBZUaiPV4D_5lb_ioNtB4_9IoBackendNtNtCs2va5m0jqTTM_4core3fmt7Display3fmt
FNF:13
FNH:2
DA:45,0
DA:46,0
DA:47,0
DA:48,0
DA:50,0
DA:54,0
DA:55,0
DA:56,0
DA:78,59
DA:79,59
DA:80,59
DA:81,59
DA:82,59
DA:83,0
DA:84,0
DA:86,0
DA:88,0
DA:98,59
DA:113,59
DA:114,59
DA:115,59
DA:116,59
DA:117,59
DA:122,0
DA:123,0
DA:124,0
DA:128,0
DA:129,0
DA:130,0
DA:135,0
DA:136,0
DA:137,0
DA:142,0
DA:143,0
DA:144,0
DA:152,0
DA:153,0
DA:154,0
DA:155,0
DA:156,0
DA:157,0
DA:158,0
DA:159,0
DA:160,0
DA:168,0
DA:169,0
DA:170,0
DA:171,0
DA:172,0
DA:173,0
DA:174,0
DA:175,0
DA:176,0
DA:186,0
DA:187,0
DA:188,0
DA:189,0
DA:190,0
DA:191,0
DA:192,0
DA:202,0
DA:203,0
DA:204,0
DA:205,0
DA:206,0
DA:207,0
DA:208,0
DA:212,0
DA:213,0
DA:214,0
BRF:0
BRH:0
LF:70
LH:11
end_of_record
SF:/home/ubuntu/Code/s9-verifier/crates/lb-io/src/pool.rs
FN:210,_RNCNvMs0_NtCs4GBZUaiPV4D_5lb_io4poolNtB7_7TcpPool13acquire_async0Cs5ctNHRYimvA_7lb_quic
FN:283,_RNCNvMs0_NtCs4GBZUaiPV4D_5lb_io4poolNtB7_7TcpPool14dial_new_async0Cs5ctNHRYimvA_7lb_quic
FN:150,_RNvMs0_NtCs4GBZUaiPV4D_5lb_io4poolNtB5_7TcpPool10idle_count
FN:210,_RNvMs0_NtCs4GBZUaiPV4D_5lb_io4poolNtB5_7TcpPool13acquire_async
FN:283,_RNvMs0_NtCs4GBZUaiPV4D_5lb_io4poolNtB5_7TcpPool14dial_new_async
FN:156,_RNvMs0_NtCs4GBZUaiPV4D_5lb_io4poolNtB5_7TcpPool14idle_count_for
FN:236,_RNvMs0_NtCs4GBZUaiPV4D_5lb_io4poolNtB5_7TcpPool20validate_and_upgrade
FN:134,_RNvMs0_NtCs4GBZUaiPV4D_5lb_io4poolNtB5_7TcpPool3new
FN:181,_RNvMs0_NtCs4GBZUaiPV4D_5lb_io4poolNtB5_7TcpPool7acquire
FN:266,_RNvMs0_NtCs4GBZUaiPV4D_5lb_io4poolNtB5_7TcpPool8dial_new
FN:222,_RNvMs0_NtCs4GBZUaiPV4D_5lb_io4poolNtB5_7TcpPool8pop_idle
FN:362,_RNvMs2_NtCs4GBZUaiPV4D_5lb_io4poolNtB5_9PooledTcp10stream_mut
FN:412,_RNvMs2_NtCs4GBZUaiPV4D_5lb_io4poolNtB5_9PooledTcp11is_reusable
FN:421,_RNvMs2_NtCs4GBZUaiPV4D_5lb_io4poolNtB5_9PooledTcp11take_stream
FN:406,_RNvMs2_NtCs4GBZUaiPV4D_5lb_io4poolNtB5_9PooledTcp12set_reusable
FN:427,_RNvMs2_NtCs4GBZUaiPV4D_5lb_io4poolNtB5_9PooledTcp14return_to_pool
FN:380,_RNvMs2_NtCs4GBZUaiPV4D_5lb_io4poolNtB5_9PooledTcp3age
FN:342,_RNvMs2_NtCs4GBZUaiPV4D_5lb_io4poolNtB5_9PooledTcp3new
FN:368,_RNvMs2_NtCs4GBZUaiPV4D_5lb_io4poolNtB5_9PooledTcp6stream
FN:374,_RNvMs2_NtCs4GBZUaiPV4D_5lb_io4poolNtB5_9PooledTcp9peer_addr
FN:502,_RNvNtCs4GBZUaiPV4D_5lb_io4pool11probe_alive
FN:86,_RNvXNtCs4GBZUaiPV4D_5lb_io4poolNtB2_10PoolConfigNtNtCs2va5m0jqTTM_4core7default7Default7default
FN:330,_RNvXs1_NtCs4GBZUaiPV4D_5lb_io4poolNtB5_9PooledTcpNtNtCs2va5m0jqTTM_4core3fmt5Debug3fmt
FN:120,_RNvXs_NtCs4GBZUaiPV4D_5lb_io4poolNtB4_7TcpPoolNtNtCs2va5m0jqTTM_4core3fmt5Debug3fmt
FN:487,_RNvXs3_NtCs4GBZUaiPV4D_5lb_io4poolNtB5_9PooledTcpNtNtNtCs2va5m0jqTTM_4core3ops4drop4Drop4drop
FN:210,_RNCNvMs0_NtCs4GBZUaiPV4D_5lb_io4poolNtB7_7TcpPool13acquire_async0B9_
FN:283,_RNCNvMs0_NtCs4GBZUaiPV4D_5lb_io4poolNtB7_7TcpPool14dial_new_async0B9_
FN:157,_RNCNvMs0_NtCs4GBZUaiPV4D_5lb_io4poolNtB7_7TcpPool14idle_count_for0B9_
FN:470,_RNCNvMs2_NtCs4GBZUaiPV4D_5lb_io4poolNtB7_9PooledTcp14return_to_pool0B9_
FNDA:59,_RNCNvMs0_NtCs4GBZUaiPV4D_5lb_io4poolNtB7_7TcpPool13acquire_async0Cs5ctNHRYimvA_7lb_quic
FNDA:59,_RNCNvMs0_NtCs4GBZUaiPV4D_5lb_io4poolNtB7_7TcpPool14dial_new_async0Cs5ctNHRYimvA_7lb_quic
FNDA:0,_RNvMs0_NtCs4GBZUaiPV4D_5lb_io4poolNtB5_7TcpPool10idle_count
FNDA:59,_RNvMs0_NtCs4GBZUaiPV4D_5lb_io4poolNtB5_7TcpPool13acquire_async
FNDA:59,_RNvMs0_NtCs4GBZUaiPV4D_5lb_io4poolNtB5_7TcpPool14dial_new_async
FNDA:0,_RNvMs0_NtCs4GBZUaiPV4D_5lb_io4poolNtB5_7TcpPool14idle_count_for
FNDA:0,_RNvMs0_NtCs4GBZUaiPV4D_5lb_io4poolNtB5_7TcpPool20validate_and_upgrade
FNDA:59,_RNvMs0_NtCs4GBZUaiPV4D_5lb_io4poolNtB5_7TcpPool3new
FNDA:0,_RNvMs0_NtCs4GBZUaiPV4D_5lb_io4poolNtB5_7TcpPool7acquire
FNDA:0,_RNvMs0_NtCs4GBZUaiPV4D_5lb_io4poolNtB5_7TcpPool8dial_new
FNDA:59,_RNvMs0_NtCs4GBZUaiPV4D_5lb_io4poolNtB5_7TcpPool8pop_idle
FNDA:0,_RNvMs2_NtCs4GBZUaiPV4D_5lb_io4poolNtB5_9PooledTcp10stream_mut
FNDA:0,_RNvMs2_NtCs4GBZUaiPV4D_5lb_io4poolNtB5_9PooledTcp11is_reusable
FNDA:59,_RNvMs2_NtCs4GBZUaiPV4D_5lb_io4poolNtB5_9PooledTcp11take_stream
FNDA:0,_RNvMs2_NtCs4GBZUaiPV4D_5lb_io4poolNtB5_9PooledTcp12set_reusable
FNDA:59,_RNvMs2_NtCs4GBZUaiPV4D_5lb_io4poolNtB5_9PooledTcp14return_to_pool
FNDA:0,_RNvMs2_NtCs4GBZUaiPV4D_5lb_io4poolNtB5_9PooledTcp3age
FNDA:59,_RNvMs2_NtCs4GBZUaiPV4D_5lb_io4poolNtB5_9PooledTcp3new
FNDA:0,_RNvMs2_NtCs4GBZUaiPV4D_5lb_io4poolNtB5_9PooledTcp6stream
FNDA:0,_RNvMs2_NtCs4GBZUaiPV4D_5lb_io4poolNtB5_9PooledTcp9peer_addr
FNDA:0,_RNvNtCs4GBZUaiPV4D_5lb_io4pool11probe_alive
FNDA:59,_RNvXNtCs4GBZUaiPV4D_5lb_io4poolNtB2_10PoolConfigNtNtCs2va5m0jqTTM_4core7default7Default7default
FNDA:0,_RNvXs1_NtCs4GBZUaiPV4D_5lb_io4poolNtB5_9PooledTcpNtNtCs2va5m0jqTTM_4core3fmt5Debug3fmt
FNDA:0,_RNvXs_NtCs4GBZUaiPV4D_5lb_io4poolNtB4_7TcpPoolNtNtCs2va5m0jqTTM_4core3fmt5Debug3fmt
FNDA:59,_RNvXs3_NtCs4GBZUaiPV4D_5lb_io4poolNtB5_9PooledTcpNtNtNtCs2va5m0jqTTM_4core3ops4drop4Drop4drop
FNDA:0,_RNCNvMs0_NtCs4GBZUaiPV4D_5lb_io4poolNtB7_7TcpPool13acquire_async0B9_
FNDA:0,_RNCNvMs0_NtCs4GBZUaiPV4D_5lb_io4poolNtB7_7TcpPool14dial_new_async0B9_
FNDA:0,_RNCNvMs0_NtCs4GBZUaiPV4D_5lb_io4poolNtB7_7TcpPool14idle_count_for0B9_
FNDA:0,_RNCNvMs2_NtCs4GBZUaiPV4D_5lb_io4poolNtB7_9PooledTcp14return_to_pool0B9_
FNF:27
FNH:11
DA:86,59
DA:87,59
DA:88,59
DA:89,59
DA:90,59
DA:91,59
DA:92,59
DA:93,59
DA:94,59
DA:120,0
DA:121,0
DA:122,0
DA:123,0
DA:124,0
DA:125,0
DA:126,0
DA:134,59
DA:135,59
DA:136,59
DA:137,59
DA:138,59
DA:139,59
DA:140,59
DA:141,59
DA:142,59
DA:143,59
DA:144,59
DA:150,0
DA:151,0
DA:152,0
DA:156,0
DA:157,0
DA:158,0
DA:181,0
DA:182,0
DA:183,0
DA:184,0
DA:185,0
DA:186,0
DA:189,0
DA:190,0
DA:210,59
DA:211,59
DA:212,0
DA:213,0
DA:214,0
DA:215,0
DA:218,59
DA:219,59
DA:222,59
DA:223,0
DA:224,59
DA:225,0
DA:226,0
DA:227,0
DA:228,0
DA:229,0
DA:230,0
DA:231,59
DA:236,0
DA:237,0
DA:238,0
DA:239,0
DA:240,0
DA:241,0
DA:242,0
DA:243,0
DA:244,0
DA:245,0
DA:246,0
DA:247,0
DA:248,0
DA:249,0
DA:250,0
DA:251,0
DA:252,0
DA:253,0
DA:254,0
DA:255,0
DA:256,0
DA:257,0
DA:258,0
DA:259,0
DA:260,0
DA:261,0
DA:263,0
DA:266,0
DA:267,0
DA:268,0
DA:269,0
DA:270,0
DA:271,0
DA:272,0
DA:273,0
DA:274,0
DA:275,0
DA:276,0
DA:277,0
DA:283,59
DA:284,59
DA:285,59
DA:286,59
DA:287,59
DA:288,0
DA:289,0
DA:290,0
DA:291,0
DA:292,0
DA:293,0
DA:294,0
DA:295,0
DA:296,0
DA:299,59
DA:300,59
DA:301,59
DA:302,59
DA:330,0
DA:331,0
DA:332,0
DA:333,0
DA:334,0
DA:335,0
DA:336,0
DA:337,0
DA:338,0
DA:342,59
DA:343,59
DA:344,59
DA:345,59
DA:346,59
DA:347,59
DA:348,59
DA:349,59
DA:350,59
DA:351,59
DA:352,59
DA:353,59
DA:354,59
DA:355,59
DA:362,0
DA:363,0
DA:364,0
DA:368,0
DA:369,0
DA:370,0
DA:374,0
DA:375,0
DA:376,0
DA:380,0
DA:381,0
DA:382,0
DA:406,0
DA:407,0
DA:408,0
DA:412,0
DA:413,0
DA:414,0
DA:421,59
DA:422,59
DA:423,59
DA:424,59
DA:425,59
DA:427,59
DA:428,59
DA:429,59
DA:431,0
DA:432,0
DA:434,0
DA:435,0
DA:436,0
DA:437,0
DA:438,0
DA:439,0
DA:440,0
DA:441,0
DA:445,0
DA:446,0
DA:447,0
DA:448,0
DA:449,0
DA:452,0
DA:453,0
DA:454,0
DA:455,0
DA:456,0
DA:457,0
DA:458,0
DA:459,0
DA:460,0
DA:461,0
DA:462,0
DA:463,0
DA:464,0
DA:465,0
DA:466,0
DA:467,0
DA:468,0
DA:469,0
DA:470,0
DA:471,0
DA:472,0
DA:473,0
DA:474,0
DA:475,0
DA:476,0
DA:479,0
DA:480,0
DA:481,0
DA:482,0
DA:483,59
DA:487,59
DA:488,59
DA:489,59
DA:502,0
DA:505,0
DA:506,0
DA:507,0
DA:508,0
DA:509,0
DA:510,0
DA:511,0
DA:512,0
DA:513,0
DA:514,0
DA:515,0
BRF:0
BRH:0
LF:229
LH:64
end_of_record
SF:/home/ubuntu/Code/s9-verifier/crates/lb-io/src/quic_pool.rs
FN:364,_RNCNCNvMs1_NtCs4GBZUaiPV4D_5lb_io9quic_poolNtB9_16QuicUpstreamPool8dial_new00Cs5ctNHRYimvA_7lb_quic
FN:371,_RNCNCNvMs1_NtCs4GBZUaiPV4D_5lb_io9quic_poolNtB9_16QuicUpstreamPool8dial_new0s0_0Cs5ctNHRYimvA_7lb_quic
FN:368,_RNCNCNvMs1_NtCs4GBZUaiPV4D_5lb_io9quic_poolNtB9_16QuicUpstreamPool8dial_new0s_0Cs5ctNHRYimvA_7lb_quic
FN:306,_RNCNvMs1_NtCs4GBZUaiPV4D_5lb_io9quic_poolNtB7_16QuicUpstreamPool14probe_liveness0Cs5ctNHRYimvA_7lb_quic
FN:264,_RNCNvMs1_NtCs4GBZUaiPV4D_5lb_io9quic_poolNtB7_16QuicUpstreamPool7acquire0Cs5ctNHRYimvA_7lb_quic
FN:351,_RNCNvMs1_NtCs4GBZUaiPV4D_5lb_io9quic_poolNtB7_16QuicUpstreamPool8dial_new0Cs5ctNHRYimvA_7lb_quic
FN:230,_RNvMs1_NtCs4GBZUaiPV4D_5lb_io9quic_poolNtB5_16QuicUpstreamPool10idle_count
FN:249,_RNvMs1_NtCs4GBZUaiPV4D_5lb_io9quic_poolNtB5_16QuicUpstreamPool11fresh_dials
FN:236,_RNvMs1_NtCs4GBZUaiPV4D_5lb_io9quic_poolNtB5_16QuicUpstreamPool14idle_count_for
FN:243,_RNvMs1_NtCs4GBZUaiPV4D_5lb_io9quic_poolNtB5_16QuicUpstreamPool14probe_discards
FN:306,_RNvMs1_NtCs4GBZUaiPV4D_5lb_io9quic_poolNtB5_16QuicUpstreamPool14probe_liveness
FN:211,_RNvMs1_NtCs4GBZUaiPV4D_5lb_io9quic_poolNtB5_16QuicUpstreamPool3new
FN:264,_RNvMs1_NtCs4GBZUaiPV4D_5lb_io9quic_poolNtB5_16QuicUpstreamPool7acquire
FN:351,_RNvMs1_NtCs4GBZUaiPV4D_5lb_io9quic_poolNtB5_16QuicUpstreamPool8dial_new
FN:291,_RNvMs1_NtCs4GBZUaiPV4D_5lb_io9quic_poolNtB5_16QuicUpstreamPool8pop_idle
FN:475,_RNvMs3_NtCs4GBZUaiPV4D_5lb_io9quic_poolNtB5_10PooledQuic12set_reusable
FN:464,_RNvMs3_NtCs4GBZUaiPV4D_5lb_io9quic_poolNtB5_10PooledQuic3get
FN:469,_RNvMs3_NtCs4GBZUaiPV4D_5lb_io9quic_poolNtB5_10PooledQuic7get_mut
FN:483,_RNvMs3_NtCs4GBZUaiPV4D_5lb_io9quic_poolNtB5_10PooledQuic9take_conn
FN:131,_RNvMs_NtCs4GBZUaiPV4D_5lb_io9quic_poolNtB4_16UpstreamQuicConn10connection
FN:166,_RNvMs_NtCs4GBZUaiPV4D_5lb_io9quic_poolNtB4_16UpstreamQuicConn10created_at
FN:136,_RNvMs_NtCs4GBZUaiPV4D_5lb_io9quic_poolNtB4_16UpstreamQuicConn14connection_mut
FN:160,_RNvMs_NtCs4GBZUaiPV4D_5lb_io9quic_poolNtB4_16UpstreamQuicConn3cid
FN:148,_RNvMs_NtCs4GBZUaiPV4D_5lb_io9quic_poolNtB4_16UpstreamQuicConn4peer
FN:154,_RNvMs_NtCs4GBZUaiPV4D_5lb_io9quic_poolNtB4_16UpstreamQuicConn5local
FN:142,_RNvMs_NtCs4GBZUaiPV4D_5lb_io9quic_poolNtB4_16UpstreamQuicConn6socket
FN:89,_RNvXNtCs4GBZUaiPV4D_5lb_io9quic_poolNtB2_14QuicPoolConfigNtNtCs2va5m0jqTTM_4core7default7Default7default
FN:195,_RNvXs0_NtCs4GBZUaiPV4D_5lb_io9quic_poolNtB5_16QuicUpstreamPoolNtNtCs2va5m0jqTTM_4core3fmt5Debug3fmt
FN:451,_RNvXs2_NtCs4GBZUaiPV4D_5lb_io9quic_poolNtB5_10PooledQuicNtNtCs2va5m0jqTTM_4core3fmt5Debug3fmt
FN:494,_RNvXs4_NtCs4GBZUaiPV4D_5lb_io9quic_poolNtB5_10PooledQuicNtNtNtCs2va5m0jqTTM_4core3ops4drop4Drop4drop
FN:364,_RNCNCNvMs1_NtCs4GBZUaiPV4D_5lb_io9quic_poolNtB9_16QuicUpstreamPool8dial_new00Bb_
FN:371,_RNCNCNvMs1_NtCs4GBZUaiPV4D_5lb_io9quic_poolNtB9_16QuicUpstreamPool8dial_new0s0_0Bb_
FN:368,_RNCNCNvMs1_NtCs4GBZUaiPV4D_5lb_io9quic_poolNtB9_16QuicUpstreamPool8dial_new0s_0Bb_
FN:306,_RNCNvMs1_NtCs4GBZUaiPV4D_5lb_io9quic_poolNtB7_16QuicUpstreamPool14probe_liveness0B9_
FN:264,_RNCNvMs1_NtCs4GBZUaiPV4D_5lb_io9quic_poolNtB7_16QuicUpstreamPool7acquire0B9_
FN:351,_RNCNvMs1_NtCs4GBZUaiPV4D_5lb_io9quic_poolNtB7_16QuicUpstreamPool8dial_new0B9_
FN:237,_RNCNvMs1_NtCs4GBZUaiPV4D_5lb_io9quic_poolNtB7_16QuicUpstreamPool14idle_count_for0B9_
FN:522,_RNCNvXs4_NtCs4GBZUaiPV4D_5lb_io9quic_poolNtB7_10PooledQuicNtNtNtCs2va5m0jqTTM_4core3ops4drop4Drop4drop0B9_
FNDA:0,_RNCNCNvMs1_NtCs4GBZUaiPV4D_5lb_io9quic_poolNtB9_16QuicUpstreamPool8dial_new00Cs5ctNHRYimvA_7lb_quic
FNDA:0,_RNCNCNvMs1_NtCs4GBZUaiPV4D_5lb_io9quic_poolNtB9_16QuicUpstreamPool8dial_new0s0_0Cs5ctNHRYimvA_7lb_quic
FNDA:0,_RNCNCNvMs1_NtCs4GBZUaiPV4D_5lb_io9quic_poolNtB9_16QuicUpstreamPool8dial_new0s_0Cs5ctNHRYimvA_7lb_quic
FNDA:0,_RNCNvMs1_NtCs4GBZUaiPV4D_5lb_io9quic_poolNtB7_16QuicUpstreamPool14probe_liveness0Cs5ctNHRYimvA_7lb_quic
FNDA:0,_RNCNvMs1_NtCs4GBZUaiPV4D_5lb_io9quic_poolNtB7_16QuicUpstreamPool7acquire0Cs5ctNHRYimvA_7lb_quic
FNDA:0,_RNCNvMs1_NtCs4GBZUaiPV4D_5lb_io9quic_poolNtB7_16QuicUpstreamPool8dial_new0Cs5ctNHRYimvA_7lb_quic
FNDA:0,_RNvMs1_NtCs4GBZUaiPV4D_5lb_io9quic_poolNtB5_16QuicUpstreamPool10idle_count
FNDA:0,_RNvMs1_NtCs4GBZUaiPV4D_5lb_io9quic_poolNtB5_16QuicUpstreamPool11fresh_dials
FNDA:0,_RNvMs1_NtCs4GBZUaiPV4D_5lb_io9quic_poolNtB5_16QuicUpstreamPool14idle_count_for
FNDA:0,_RNvMs1_NtCs4GBZUaiPV4D_5lb_io9quic_poolNtB5_16QuicUpstreamPool14probe_discards
FNDA:0,_RNvMs1_NtCs4GBZUaiPV4D_5lb_io9quic_poolNtB5_16QuicUpstreamPool14probe_liveness
FNDA:0,_RNvMs1_NtCs4GBZUaiPV4D_5lb_io9quic_poolNtB5_16QuicUpstreamPool3new
FNDA:0,_RNvMs1_NtCs4GBZUaiPV4D_5lb_io9quic_poolNtB5_16QuicUpstreamPool7acquire
FNDA:0,_RNvMs1_NtCs4GBZUaiPV4D_5lb_io9quic_poolNtB5_16QuicUpstreamPool8dial_new
FNDA:0,_RNvMs1_NtCs4GBZUaiPV4D_5lb_io9quic_poolNtB5_16QuicUpstreamPool8pop_idle
FNDA:0,_RNvMs3_NtCs4GBZUaiPV4D_5lb_io9quic_poolNtB5_10PooledQuic12set_reusable
FNDA:0,_RNvMs3_NtCs4GBZUaiPV4D_5lb_io9quic_poolNtB5_10PooledQuic3get
FNDA:0,_RNvMs3_NtCs4GBZUaiPV4D_5lb_io9quic_poolNtB5_10PooledQuic7get_mut
FNDA:0,_RNvMs3_NtCs4GBZUaiPV4D_5lb_io9quic_poolNtB5_10PooledQuic9take_conn
FNDA:0,_RNvMs_NtCs4GBZUaiPV4D_5lb_io9quic_poolNtB4_16UpstreamQuicConn10connection
FNDA:0,_RNvMs_NtCs4GBZUaiPV4D_5lb_io9quic_poolNtB4_16UpstreamQuicConn10created_at
FNDA:0,_RNvMs_NtCs4GBZUaiPV4D_5lb_io9quic_poolNtB4_16UpstreamQuicConn14connection_mut
FNDA:0,_RNvMs_NtCs4GBZUaiPV4D_5lb_io9quic_poolNtB4_16UpstreamQuicConn3cid
FNDA:0,_RNvMs_NtCs4GBZUaiPV4D_5lb_io9quic_poolNtB4_16UpstreamQuicConn4peer
FNDA:0,_RNvMs_NtCs4GBZUaiPV4D_5lb_io9quic_poolNtB4_16UpstreamQuicConn5local
FNDA:0,_RNvMs_NtCs4GBZUaiPV4D_5lb_io9quic_poolNtB4_16UpstreamQuicConn6socket
FNDA:0,_RNvXNtCs4GBZUaiPV4D_5lb_io9quic_poolNtB2_14QuicPoolConfigNtNtCs2va5m0jqTTM_4core7default7Default7default
FNDA:0,_RNvXs0_NtCs4GBZUaiPV4D_5lb_io9quic_poolNtB5_16QuicUpstreamPoolNtNtCs2va5m0jqTTM_4core3fmt5Debug3fmt
FNDA:0,_RNvXs2_NtCs4GBZUaiPV4D_5lb_io9quic_poolNtB5_10PooledQuicNtNtCs2va5m0jqTTM_4core3fmt5Debug3fmt
FNDA:0,_RNvXs4_NtCs4GBZUaiPV4D_5lb_io9quic_poolNtB5_10PooledQuicNtNtNtCs2va5m0jqTTM_4core3ops4drop4Drop4drop
FNDA:0,_RNCNCNvMs1_NtCs4GBZUaiPV4D_5lb_io9quic_poolNtB9_16QuicUpstreamPool8dial_new00Bb_
FNDA:0,_RNCNCNvMs1_NtCs4GBZUaiPV4D_5lb_io9quic_poolNtB9_16QuicUpstreamPool8dial_new0s0_0Bb_
FNDA:0,_RNCNCNvMs1_NtCs4GBZUaiPV4D_5lb_io9quic_poolNtB9_16QuicUpstreamPool8dial_new0s_0Bb_
FNDA:0,_RNCNvMs1_NtCs4GBZUaiPV4D_5lb_io9quic_poolNtB7_16QuicUpstreamPool14probe_liveness0B9_
FNDA:0,_RNCNvMs1_NtCs4GBZUaiPV4D_5lb_io9quic_poolNtB7_16QuicUpstreamPool7acquire0B9_
FNDA:0,_RNCNvMs1_NtCs4GBZUaiPV4D_5lb_io9quic_poolNtB7_16QuicUpstreamPool8dial_new0B9_
FNDA:0,_RNCNvMs1_NtCs4GBZUaiPV4D_5lb_io9quic_poolNtB7_16QuicUpstreamPool14idle_count_for0B9_
FNDA:0,_RNCNvXs4_NtCs4GBZUaiPV4D_5lb_io9quic_poolNtB7_10PooledQuicNtNtNtCs2va5m0jqTTM_4core3ops4drop4Drop4drop0B9_
FNF:32
FNH:0
DA:89,0
DA:90,0
DA:91,0
DA:92,0
DA:93,0
DA:94,0
DA:95,0
DA:96,0
DA:97,0
DA:131,0
DA:132,0
DA:133,0
DA:136,0
DA:137,0
DA:138,0
DA:142,0
DA:143,0
DA:144,0
DA:148,0
DA:149,0
DA:150,0
DA:154,0
DA:155,0
DA:156,0
DA:160,0
DA:161,0
DA:162,0
DA:166,0
DA:167,0
DA:168,0
DA:195,0
DA:196,0
DA:197,0
DA:198,0
DA:199,0
DA:200,0
DA:201,0
DA:211,0
DA:212,0
DA:213,0
DA:214,0
DA:215,0
DA:216,0
DA:217,0
DA:218,0
DA:219,0
DA:220,0
DA:221,0
DA:222,0
DA:223,0
DA:224,0
DA:225,0
DA:226,0
DA:230,0
DA:231,0
DA:232,0
DA:236,0
DA:237,0
DA:238,0
DA:243,0
DA:244,0
DA:245,0
DA:249,0
DA:250,0
DA:251,0
DA:264,0
DA:267,0
DA:268,0
DA:269,0
DA:270,0
DA:271,0
DA:274,0
DA:275,0
DA:276,0
DA:277,0
DA:278,0
DA:279,0
DA:280,0
DA:281,0
DA:282,0
DA:283,0
DA:284,0
DA:285,0
DA:288,0
DA:289,0
DA:291,0
DA:292,0
DA:293,0
DA:294,0
DA:295,0
DA:296,0
DA:297,0
DA:298,0
DA:299,0
DA:300,0
DA:306,0
DA:307,0
DA:308,0
DA:310,0
DA:311,0
DA:312,0
DA:313,0
DA:314,0
DA:316,0
DA:317,0
DA:318,0
DA:319,0
DA:320,0
DA:321,0
DA:323,0
DA:324,0
DA:328,0
DA:329,0
DA:330,0
DA:331,0
DA:332,0
DA:333,0
DA:334,0
DA:335,0
DA:336,0
DA:337,0
DA:338,0
DA:339,0
DA:340,0
DA:341,0
DA:342,0
DA:343,0
DA:346,0
DA:348,0
DA:351,0
DA:352,0
DA:353,0
DA:354,0
DA:355,0
DA:356,0
DA:357,0
DA:358,0
DA:359,0
DA:361,0
DA:363,0
DA:364,0
DA:365,0
DA:366,0
DA:367,0
DA:368,0
DA:369,0
DA:370,0
DA:371,0
DA:374,0
DA:375,0
DA:376,0
DA:378,0
DA:379,0
DA:380,0
DA:381,0
DA:382,0
DA:383,0
DA:386,0
DA:387,0
DA:388,0
DA:389,0
DA:391,0
DA:392,0
DA:393,0
DA:397,0
DA:398,0
DA:399,0
DA:400,0
DA:401,0
DA:402,0
DA:403,0
DA:404,0
DA:405,0
DA:406,0
DA:407,0
DA:410,0
DA:411,0
DA:412,0
DA:413,0
DA:417,0
DA:418,0
DA:419,0
DA:420,0
DA:421,0
DA:422,0
DA:423,0
DA:424,0
DA:425,0
DA:426,0
DA:427,0
DA:428,0
DA:429,0
DA:430,0
DA:431,0
DA:432,0
DA:433,0
DA:434,0
DA:435,0
DA:436,0
DA:437,0
DA:451,0
DA:452,0
DA:453,0
DA:454,0
DA:455,0
DA:456,0
DA:457,0
DA:458,0
DA:464,0
DA:465,0
DA:466,0
DA:469,0
DA:470,0
DA:471,0
DA:475,0
DA:476,0
DA:477,0
DA:483,0
DA:484,0
DA:485,0
DA:494,0
DA:495,0
DA:496,0
DA:498,0
DA:499,0
DA:501,0
DA:502,0
DA:503,0
DA:504,0
DA:505,0
DA:507,0
DA:508,0
DA:509,0
DA:510,0
DA:511,0
DA:512,0
DA:513,0
DA:514,0
DA:515,0
DA:516,0
DA:517,0
DA:518,0
DA:519,0
DA:520,0
DA:521,0
DA:522,0
DA:523,0
DA:524,0
DA:525,0
DA:526,0
DA:527,0
DA:528,0
DA:529,0
DA:530,0
DA:531,0
DA:532,0
DA:533,0
BRF:0
BRH:0
LF:265
LH:0
end_of_record
SF:/home/ubuntu/Code/s9-verifier/crates/lb-io/src/ring.rs
FN:73,_RNvNtCs4GBZUaiPV4D_5lb_io4ring10accept_one
FN:43,_RNvNtCs4GBZUaiPV4D_5lb_io4ring13nop_roundtrip
FN:245,_RNvNtCs4GBZUaiPV4D_5lb_io4ring19u32_from_nonneg_i32B3_
FN:237,_RNvNtCs4GBZUaiPV4D_5lb_io4ring21usize_from_nonneg_i32B3_
FN:255,_RNvNtCs4GBZUaiPV4D_5lb_io4ring30sockaddr_storage_to_socketaddr
FN:121,_RNvNtCs4GBZUaiPV4D_5lb_io4ring4recv
FN:146,_RNvNtCs4GBZUaiPV4D_5lb_io4ring4send
FN:172,_RNvNtCs4GBZUaiPV4D_5lb_io4ring6splice
FN:200,_RNvNtCs4GBZUaiPV4D_5lb_io4ring8push_sqe
FN:212,_RNvNtCs4GBZUaiPV4D_5lb_io4ring8reap_cqe
FN:225,_RNvNtCs4GBZUaiPV4D_5lb_io4ring9check_cqe
FN:81,_RNCNvNtCs4GBZUaiPV4D_5lb_io4ring10accept_one0B5_
FN:215,_RNCNvNtCs4GBZUaiPV4D_5lb_io4ring8reap_cqe0B5_
FNDA:0,_RNvNtCs4GBZUaiPV4D_5lb_io4ring10accept_one
FNDA:59,_RNvNtCs4GBZUaiPV4D_5lb_io4ring13nop_roundtrip
FNDA:0,_RNvNtCs4GBZUaiPV4D_5lb_io4ring19u32_from_nonneg_i32B3_
FNDA:0,_RNvNtCs4GBZUaiPV4D_5lb_io4ring21usize_from_nonneg_i32B3_
FNDA:0,_RNvNtCs4GBZUaiPV4D_5lb_io4ring30sockaddr_storage_to_socketaddr
FNDA:0,_RNvNtCs4GBZUaiPV4D_5lb_io4ring4recv
FNDA:0,_RNvNtCs4GBZUaiPV4D_5lb_io4ring4send
FNDA:0,_RNvNtCs4GBZUaiPV4D_5lb_io4ring6splice
FNDA:59,_RNvNtCs4GBZUaiPV4D_5lb_io4ring8push_sqe
FNDA:59,_RNvNtCs4GBZUaiPV4D_5lb_io4ring8reap_cqe
FNDA:59,_RNvNtCs4GBZUaiPV4D_5lb_io4ring9check_cqe
FNDA:0,_RNCNvNtCs4GBZUaiPV4D_5lb_io4ring10accept_one0B5_
FNDA:0,_RNCNvNtCs4GBZUaiPV4D_5lb_io4ring8reap_cqe0B5_
FNF:13
FNH:4
DA:43,59
DA:44,59
DA:45,59
DA:46,59
DA:47,59
DA:48,59
DA:49,59
DA:50,59
DA:52,59
DA:54,59
DA:55,59
DA:56,59
DA:57,59
DA:58,59
DA:59,59
DA:73,0
DA:74,0
DA:78,0
DA:79,0
DA:80,0
DA:81,0
DA:82,0
DA:83,0
DA:84,0
DA:85,0
DA:86,0
DA:88,0
DA:89,0
DA:90,0
DA:91,0
DA:92,0
DA:93,0
DA:94,0
DA:95,0
DA:96,0
DA:97,0
DA:98,0
DA:99,0
DA:101,0
DA:102,0
DA:103,0
DA:110,0
DA:112,0
DA:113,0
DA:121,0
DA:122,0
DA:123,0
DA:125,0
DA:126,0
DA:127,0
DA:128,0
DA:129,0
DA:130,0
DA:131,0
DA:132,0
DA:133,0
DA:135,0
DA:136,0
DA:137,0
DA:138,0
DA:139,0
DA:146,0
DA:147,0
DA:148,0
DA:150,0
DA:151,0
DA:152,0
DA:153,0
DA:154,0
DA:155,0
DA:156,0
DA:157,0
DA:159,0
DA:160,0
DA:161,0
DA:162,0
DA:163,0
DA:172,0
DA:173,0
DA:175,0
DA:176,0
DA:177,0
DA:178,0
DA:179,0
DA:180,0
DA:181,0
DA:182,0
DA:184,0
DA:185,0
DA:186,0
DA:187,0
DA:188,0
DA:200,59
DA:201,59
DA:202,59
DA:203,59
DA:204,59
DA:205,0
DA:206,0
DA:207,0
DA:208,0
DA:210,59
DA:212,59
DA:213,59
DA:214,59
DA:215,59
DA:216,0
DA:217,0
DA:218,0
DA:219,0
DA:220,59
DA:221,59
DA:225,59
DA:226,59
DA:227,59
DA:228,0
DA:230,59
DA:232,59
DA:237,0
DA:238,0
DA:239,0
DA:240,0
DA:245,0
DA:246,0
DA:247,0
DA:255,0
DA:256,0
DA:257,0
DA:258,0
DA:259,0
DA:260,0
DA:261,0
DA:263,0
DA:264,0
DA:265,0
DA:266,0
DA:267,0
DA:268,0
DA:269,0
DA:270,0
DA:271,0
DA:272,0
DA:273,0
DA:274,0
DA:275,0
DA:276,0
DA:279,0
DA:280,0
DA:281,0
DA:282,0
DA:283,0
DA:284,0
DA:285,0
DA:286,0
DA:287,0
DA:288,0
DA:289,0
DA:290,0
DA:291,0
DA:292,0
DA:293,0
DA:294,0
DA:295,0
DA:296,0
DA:298,0
DA:299,0
DA:300,0
DA:301,0
DA:303,0
BRF:0
BRH:0
LF:173
LH:32
end_of_record
SF:/home/ubuntu/Code/s9-verifier/crates/lb-io/src/sockopts.rs
FN:81,_RNvNtCs4GBZUaiPV4D_5lb_io8sockopts14apply_listener
FN:147,_RNvNtCs4GBZUaiPV4D_5lb_io8sockopts15apply_connected
FN:200,_RNvNtCs4GBZUaiPV4D_5lb_io8sockopts21apply_connected_tokio
FN:280,_RNvNtCs4GBZUaiPV4D_5lb_io8sockopts7set_int
FN:245,_RNvNtCs4GBZUaiPV4D_5lb_io8sockopts9apply_udp
FN:111,_RNCNvNtCs4GBZUaiPV4D_5lb_io8sockopts14apply_listener0B5_
FN:287,_RNCNvNtCs4GBZUaiPV4D_5lb_io8sockopts7set_int0B5_
FNDA:0,_RNvNtCs4GBZUaiPV4D_5lb_io8sockopts14apply_listener
FNDA:0,_RNvNtCs4GBZUaiPV4D_5lb_io8sockopts15apply_connected
FNDA:59,_RNvNtCs4GBZUaiPV4D_5lb_io8sockopts21apply_connected_tokio
FNDA:0,_RNvNtCs4GBZUaiPV4D_5lb_io8sockopts7set_int
FNDA:0,_RNvNtCs4GBZUaiPV4D_5lb_io8sockopts9apply_udp
FNDA:0,_RNCNvNtCs4GBZUaiPV4D_5lb_io8sockopts14apply_listener0B5_
FNDA:0,_RNCNvNtCs4GBZUaiPV4D_5lb_io8sockopts7set_int0B5_
FNF:7
FNH:1
DA:81,0
DA:82,0
DA:83,0
DA:84,0
DA:85,0
DA:87,0
DA:88,0
DA:89,0
DA:90,0
DA:91,0
DA:92,0
DA:93,0
DA:94,0
DA:95,0
DA:96,0
DA:97,0
DA:98,0
DA:99,0
DA:100,0
DA:101,0
DA:106,0
DA:107,0
DA:108,0
DA:109,0
DA:110,0
DA:111,0
DA:112,0
DA:113,0
DA:114,0
DA:115,0
DA:116,0
DA:117,0
DA:118,0
DA:119,0
DA:124,0
DA:125,0
DA:126,0
DA:127,0
DA:128,0
DA:139,0
DA:140,0
DA:147,0
DA:148,0
DA:149,0
DA:150,0
DA:151,0
DA:152,0
DA:153,0
DA:154,0
DA:155,0
DA:156,0
DA:157,0
DA:158,0
DA:159,0
DA:160,0
DA:165,0
DA:166,0
DA:167,0
DA:168,0
DA:169,0
DA:170,0
DA:171,0
DA:172,0
DA:173,0
DA:174,0
DA:183,0
DA:184,0
DA:200,59
DA:201,59
DA:202,59
DA:203,59
DA:204,59
DA:205,59
DA:206,59
DA:207,0
DA:208,59
DA:209,0
DA:210,59
DA:211,59
DA:212,0
DA:213,59
DA:214,59
DA:215,0
DA:216,59
DA:221,59
DA:222,59
DA:223,0
DA:224,59
DA:225,59
DA:226,0
DA:227,0
DA:228,59
DA:237,59
DA:238,59
DA:245,0
DA:246,0
DA:247,0
DA:248,0
DA:249,0
DA:250,0
DA:251,0
DA:252,0
DA:253,0
DA:254,0
DA:255,0
DA:256,0
DA:261,0
DA:262,0
DA:263,0
DA:264,0
DA:265,0
DA:266,0
DA:275,0
DA:276,0
DA:280,0
DA:281,0
DA:282,0
DA:283,0
DA:284,0
DA:285,0
DA:286,0
DA:287,0
DA:292,0
DA:293,0
DA:294,0
DA:296,0
DA:298,0
BRF:0
BRH:0
LF:130
LH:20
end_of_record
SF:/home/ubuntu/Code/s9-verifier/crates/lb-l7/src/authority.rs
FN:66,_RINvNtCsiFMhfKJXoB5_5lb_l79authority16validate_requestNtNtNtCsgB3dp6qvXvn_5hyper4body8incoming8IncomingEB4_
FN:71,_RNCINvNtCsiFMhfKJXoB5_5lb_l79authority16validate_requestNtNtNtCsgB3dp6qvXvn_5hyper4body8incoming8IncomingE0B6_
FN:75,_RNCINvNtCsiFMhfKJXoB5_5lb_l79authority16validate_requestNtNtNtCsgB3dp6qvXvn_5hyper4body8incoming8IncomingEs_0B6_
FNDA:67,_RINvNtCsiFMhfKJXoB5_5lb_l79authority16validate_requestNtNtNtCsgB3dp6qvXvn_5hyper4body8incoming8IncomingEB4_
FNDA:22,_RNCINvNtCsiFMhfKJXoB5_5lb_l79authority16validate_requestNtNtNtCsgB3dp6qvXvn_5hyper4body8incoming8IncomingE0B6_
FNDA:67,_RNCINvNtCsiFMhfKJXoB5_5lb_l79authority16validate_requestNtNtNtCsgB3dp6qvXvn_5hyper4body8incoming8IncomingEs_0B6_
FNF:3
FNH:3
DA:66,67
DA:67,67
DA:68,67
DA:69,67
DA:70,67
DA:71,67
DA:72,67
DA:73,67
DA:74,67
DA:75,67
DA:77,67
DA:78,0
DA:79,67
DA:81,67
DA:82,67
BRF:0
BRH:0
LF:17
LH:16
end_of_record
SF:/home/ubuntu/Code/s9-verifier/crates/lb-l7/src/grpc_proxy.rs
FN:279,_RINvNtCsiFMhfKJXoB5_5lb_l710grpc_proxy15is_grpc_requestNtNtNtCsgB3dp6qvXvn_5hyper4body8incoming8IncomingEB4_
FN:282,_RNCINvNtCsiFMhfKJXoB5_5lb_l710grpc_proxy15is_grpc_requestNtNtNtCsgB3dp6qvXvn_5hyper4body8incoming8IncomingE0B6_
FN:283,_RNCINvNtCsiFMhfKJXoB5_5lb_l710grpc_proxy15is_grpc_requestNtNtNtCsgB3dp6qvXvn_5hyper4body8incoming8IncomingEs_0B6_
FN:292,_RNCNCINvNtCsiFMhfKJXoB5_5lb_l710grpc_proxy15is_grpc_requestNtNtNtCsgB3dp6qvXvn_5hyper4body8incoming8IncomingEs_00B8_
FN:247,_RNCNCNvMs_NtCsiFMhfKJXoB5_5lb_l710grpc_proxyNtB8_9GrpcProxy7forward00Ba_
FN:389,_RNCNCNvNtCsiFMhfKJXoB5_5lb_l710grpc_proxy19handle_health_check00B7_
FN:149,_RNCNvMs_NtCsiFMhfKJXoB5_5lb_l710grpc_proxyNtB6_9GrpcProxy6handle0B8_
FN:170,_RNCNvMs_NtCsiFMhfKJXoB5_5lb_l710grpc_proxyNtB6_9GrpcProxy7forward0B8_
FN:596,_RNCNvNtCsiFMhfKJXoB5_5lb_l710grpc_proxy17finalize_upstream0B5_
FN:576,_RNCNvNtCsiFMhfKJXoB5_5lb_l710grpc_proxy19grpc_error_response0B5_
FN:384,_RNCNvNtCsiFMhfKJXoB5_5lb_l710grpc_proxy19handle_health_check0B5_
FN:307,_RNCNvNtCsiFMhfKJXoB5_5lb_l710grpc_proxy24rewrite_uri_for_upstream0B5_
FN:428,_RNCNvNtCsiFMhfKJXoB5_5lb_l710grpc_proxy29health_check_serving_response0B5_
FN:130,_RNvMs_NtCsiFMhfKJXoB5_5lb_l710grpc_proxyNtB4_9GrpcProxy20max_header_list_size
FN:113,_RNvMs_NtCsiFMhfKJXoB5_5lb_l710grpc_proxyNtB4_9GrpcProxy25with_max_header_list_size
FN:98,_RNvMs_NtCsiFMhfKJXoB5_5lb_l710grpc_proxyNtB4_9GrpcProxy3new
FN:120,_RNvMs_NtCsiFMhfKJXoB5_5lb_l710grpc_proxyNtB4_9GrpcProxy6config
FN:145,_RNvMs_NtCsiFMhfKJXoB5_5lb_l710grpc_proxyNtB4_9GrpcProxy6handle
FN:166,_RNvMs_NtCsiFMhfKJXoB5_5lb_l710grpc_proxyNtB4_9GrpcProxy7forward
FN:530,_RNvNtCsiFMhfKJXoB5_5lb_l710grpc_proxy11read_varint
FN:547,_RNvNtCsiFMhfKJXoB5_5lb_l710grpc_proxy14empty_fallback
FN:586,_RNvNtCsiFMhfKJXoB5_5lb_l710grpc_proxy17finalize_upstream
FN:559,_RNvNtCsiFMhfKJXoB5_5lb_l710grpc_proxy19grpc_error_response
FN:384,_RNvNtCsiFMhfKJXoB5_5lb_l710grpc_proxy19handle_health_check
FN:301,_RNvNtCsiFMhfKJXoB5_5lb_l710grpc_proxy24rewrite_uri_for_upstream
FN:445,_RNvNtCsiFMhfKJXoB5_5lb_l710grpc_proxy27decode_health_check_service
FN:333,_RNvNtCsiFMhfKJXoB5_5lb_l710grpc_proxy28parse_and_clamp_grpc_timeout
FN:404,_RNvNtCsiFMhfKJXoB5_5lb_l710grpc_proxy29health_check_serving_response
FN:64,_RNvXNtCsiFMhfKJXoB5_5lb_l710grpc_proxyNtB2_10GrpcConfigNtNtCs2va5m0jqTTM_4core7default7Default7default
FNDA:0,_RINvNtCsiFMhfKJXoB5_5lb_l710grpc_proxy15is_grpc_requestNtNtNtCsgB3dp6qvXvn_5hyper4body8incoming8IncomingEB4_
FNDA:0,_RNCINvNtCsiFMhfKJXoB5_5lb_l710grpc_proxy15is_grpc_requestNtNtNtCsgB3dp6qvXvn_5hyper4body8incoming8IncomingE0B6_
FNDA:0,_RNCINvNtCsiFMhfKJXoB5_5lb_l710grpc_proxy15is_grpc_requestNtNtNtCsgB3dp6qvXvn_5hyper4body8incoming8IncomingEs_0B6_
FNDA:0,_RNCNCINvNtCsiFMhfKJXoB5_5lb_l710grpc_proxy15is_grpc_requestNtNtNtCsgB3dp6qvXvn_5hyper4body8incoming8IncomingEs_00B8_
FNDA:0,_RNCNCNvMs_NtCsiFMhfKJXoB5_5lb_l710grpc_proxyNtB8_9GrpcProxy7forward00Ba_
FNDA:0,_RNCNCNvNtCsiFMhfKJXoB5_5lb_l710grpc_proxy19handle_health_check00B7_
FNDA:0,_RNCNvMs_NtCsiFMhfKJXoB5_5lb_l710grpc_proxyNtB6_9GrpcProxy6handle0B8_
FNDA:0,_RNCNvMs_NtCsiFMhfKJXoB5_5lb_l710grpc_proxyNtB6_9GrpcProxy7forward0B8_
FNDA:0,_RNCNvNtCsiFMhfKJXoB5_5lb_l710grpc_proxy17finalize_upstream0B5_
FNDA:0,_RNCNvNtCsiFMhfKJXoB5_5lb_l710grpc_proxy19grpc_error_response0B5_
FNDA:0,_RNCNvNtCsiFMhfKJXoB5_5lb_l710grpc_proxy19handle_health_check0B5_
FNDA:0,_RNCNvNtCsiFMhfKJXoB5_5lb_l710grpc_proxy24rewrite_uri_for_upstream0B5_
FNDA:0,_RNCNvNtCsiFMhfKJXoB5_5lb_l710grpc_proxy29health_check_serving_response0B5_
FNDA:0,_RNvMs_NtCsiFMhfKJXoB5_5lb_l710grpc_proxyNtB4_9GrpcProxy20max_header_list_size
FNDA:0,_RNvMs_NtCsiFMhfKJXoB5_5lb_l710grpc_proxyNtB4_9GrpcProxy25with_max_header_list_size
FNDA:0,_RNvMs_NtCsiFMhfKJXoB5_5lb_l710grpc_proxyNtB4_9GrpcProxy3new
FNDA:0,_RNvMs_NtCsiFMhfKJXoB5_5lb_l710grpc_proxyNtB4_9GrpcProxy6config
FNDA:0,_RNvMs_NtCsiFMhfKJXoB5_5lb_l710grpc_proxyNtB4_9GrpcProxy6handle
FNDA:0,_RNvMs_NtCsiFMhfKJXoB5_5lb_l710grpc_proxyNtB4_9GrpcProxy7forward
FNDA:0,_RNvNtCsiFMhfKJXoB5_5lb_l710grpc_proxy11read_varint
FNDA:0,_RNvNtCsiFMhfKJXoB5_5lb_l710grpc_proxy14empty_fallback
FNDA:0,_RNvNtCsiFMhfKJXoB5_5lb_l710grpc_proxy17finalize_upstream
FNDA:0,_RNvNtCsiFMhfKJXoB5_5lb_l710grpc_proxy19grpc_error_response
FNDA:0,_RNvNtCsiFMhfKJXoB5_5lb_l710grpc_proxy19handle_health_check
FNDA:0,_RNvNtCsiFMhfKJXoB5_5lb_l710grpc_proxy24rewrite_uri_for_upstream
FNDA:0,_RNvNtCsiFMhfKJXoB5_5lb_l710grpc_proxy27decode_health_check_service
FNDA:0,_RNvNtCsiFMhfKJXoB5_5lb_l710grpc_proxy28parse_and_clamp_grpc_timeout
FNDA:0,_RNvNtCsiFMhfKJXoB5_5lb_l710grpc_proxy29health_check_serving_response
FNDA:0,_RNvXNtCsiFMhfKJXoB5_5lb_l710grpc_proxyNtB2_10GrpcConfigNtNtCs2va5m0jqTTM_4core7default7Default7default
FNF:29
FNH:0
DA:64,0
DA:65,0
DA:66,0
DA:67,0
DA:68,0
DA:69,0
DA:70,0
DA:98,0
DA:99,0
DA:100,0
DA:101,0
DA:102,0
DA:103,0
DA:104,0
DA:113,0
DA:114,0
DA:115,0
DA:116,0
DA:120,0
DA:121,0
DA:122,0
DA:130,0
DA:131,0
DA:132,0
DA:145,0
DA:146,0
DA:147,0
DA:148,0
DA:149,0
DA:150,0
DA:151,0
DA:152,0
DA:154,0
DA:155,0
DA:156,0
DA:157,0
DA:166,0
DA:167,0
DA:168,0
DA:169,0
DA:170,0
DA:171,0
DA:178,0
DA:179,0
DA:180,0
DA:181,0
DA:182,0
DA:183,0
DA:184,0
DA:185,0
DA:186,0
DA:194,0
DA:195,0
DA:196,0
DA:202,0
DA:203,0
DA:204,0
DA:210,0
DA:211,0
DA:215,0
DA:216,0
DA:217,0
DA:218,0
DA:219,0
DA:220,0
DA:221,0
DA:224,0
DA:225,0
DA:233,0
DA:234,0
DA:235,0
DA:236,0
DA:237,0
DA:239,0
DA:240,0
DA:241,0
DA:242,0
DA:243,0
DA:244,0
DA:247,0
DA:248,0
DA:249,0
DA:250,0
DA:251,0
DA:252,0
DA:253,0
DA:254,0
DA:255,0
DA:257,0
DA:258,0
DA:261,0
DA:264,0
DA:265,0
DA:266,0
DA:267,0
DA:268,0
DA:271,0
DA:272,0
DA:273,0
DA:274,0
DA:279,0
DA:280,0
DA:281,0
DA:282,0
DA:283,0
DA:284,0
DA:285,0
DA:286,0
DA:287,0
DA:288,0
DA:289,0
DA:290,0
DA:292,0
DA:293,0
DA:294,0
DA:301,0
DA:302,0
DA:303,0
DA:304,0
DA:305,0
DA:306,0
DA:307,0
DA:308,0
DA:309,0
DA:310,0
DA:333,0
DA:334,0
DA:335,0
DA:337,0
DA:339,0
DA:341,0
DA:342,0
DA:343,0
DA:345,0
DA:346,0
DA:347,0
DA:348,0
DA:349,0
DA:350,0
DA:351,0
DA:352,0
DA:384,0
DA:388,0
DA:389,0
DA:390,0
DA:391,0
DA:392,0
DA:393,0
DA:394,0
DA:395,0
DA:396,0
DA:397,0
DA:398,0
DA:399,0
DA:404,0
DA:405,0
DA:406,0
DA:407,0
DA:408,0
DA:409,0
DA:410,0
DA:411,0
DA:412,0
DA:413,0
DA:414,0
DA:415,0
DA:416,0
DA:417,0
DA:418,0
DA:419,0
DA:420,0
DA:421,0
DA:422,0
DA:423,0
DA:424,0
DA:425,0
DA:426,0
DA:427,0
DA:428,0
DA:429,0
DA:445,0
DA:446,0
DA:447,0
DA:448,0
DA:449,0
DA:451,0
DA:452,0
DA:456,0
DA:457,0
DA:458,0
DA:459,0
DA:460,0
DA:461,0
DA:462,0
DA:463,0
DA:464,0
DA:465,0
DA:466,0
DA:468,0
DA:469,0
DA:470,0
DA:471,0
DA:474,0
DA:475,0
DA:477,0
DA:478,0
DA:479,0
DA:481,0
DA:482,0
DA:484,0
DA:485,0
DA:486,0
DA:487,0
DA:488,0
DA:490,0
DA:491,0
DA:493,0
DA:497,0
DA:498,0
DA:500,0
DA:504,0
DA:505,0
DA:507,0
DA:508,0
DA:509,0
DA:511,0
DA:512,0
DA:514,0
DA:515,0
DA:516,0
DA:517,0
DA:519,0
DA:520,0
DA:521,0
DA:524,0
DA:525,0
DA:530,0
DA:531,0
DA:532,0
DA:533,0
DA:534,0
DA:535,0
DA:536,0
DA:537,0
DA:538,0
DA:539,0
DA:540,0
DA:541,0
DA:542,0
DA:544,0
DA:545,0
DA:547,0
DA:548,0
DA:549,0
DA:550,0
DA:551,0
DA:552,0
DA:553,0
DA:559,0
DA:560,0
DA:561,0
DA:562,0
DA:563,0
DA:564,0
DA:565,0
DA:566,0
DA:567,0
DA:568,0
DA:569,0
DA:570,0
DA:571,0
DA:572,0
DA:573,0
DA:574,0
DA:575,0
DA:576,0
DA:577,0
DA:586,0
DA:587,0
DA:588,0
DA:589,0
DA:590,0
DA:591,0
DA:592,0
DA:593,0
DA:594,0
DA:595,0
DA:596,0
DA:597,0
DA:598,0
DA:599,0
DA:600,0
BRF:0
BRH:0
LF:306
LH:0
end_of_record
SF:/home/ubuntu/Code/s9-verifier/crates/lb-l7/src/h1_proxy.rs
FN:571,_RINvMs4_NtCsiFMhfKJXoB5_5lb_l78h1_proxyNtB6_7H1Proxy16serve_connectionINtNtCs7m3feRqGqA4_12tokio_rustls6server9TlsStreamNtNtNtNtCsfWKKmeeA0Vo_5tokio3net3tcp6stream9TcpStreamEECsbidLK1h0Ms2_12h1_proxy_e2e
FN:571,_RINvMs4_NtCsiFMhfKJXoB5_5lb_l78h1_proxyNtB6_7H1Proxy16serve_connectionNtNtNtNtCsfWKKmeeA0Vo_5tokio3net3tcp6stream9TcpStreamECsbidLK1h0Ms2_12h1_proxy_e2e
FN:606,_RINvMs4_NtCsiFMhfKJXoB5_5lb_l78h1_proxyNtB6_7H1Proxy28serve_connection_with_cancelINtNtCs7m3feRqGqA4_12tokio_rustls6server9TlsStreamNtNtNtNtCsfWKKmeeA0Vo_5tokio3net3tcp6stream9TcpStreamEECsbidLK1h0Ms2_12h1_proxy_e2e
FN:606,_RINvMs4_NtCsiFMhfKJXoB5_5lb_l78h1_proxyNtB6_7H1Proxy28serve_connection_with_cancelNtNtNtNtCsfWKKmeeA0Vo_5tokio3net3tcp6stream9TcpStreamECsbidLK1h0Ms2_12h1_proxy_e2e
FN:637,_RINvMs4_NtCsiFMhfKJXoB5_5lb_l78h1_proxyNtB6_7H1Proxy32serve_connection_with_cancel_sniINtNtCs7m3feRqGqA4_12tokio_rustls6server9TlsStreamNtNtNtNtCsfWKKmeeA0Vo_5tokio3net3tcp6stream9TcpStreamEECsbidLK1h0Ms2_12h1_proxy_e2e
FN:637,_RINvMs4_NtCsiFMhfKJXoB5_5lb_l78h1_proxyNtB6_7H1Proxy32serve_connection_with_cancel_sniNtNtNtNtCsfWKKmeeA0Vo_5tokio3net3tcp6stream9TcpStreamECsbidLK1h0Ms2_12h1_proxy_e2e
FN:574,_RNCINvMs4_NtCsiFMhfKJXoB5_5lb_l78h1_proxyNtB8_7H1Proxy16serve_connectionINtNtCs7m3feRqGqA4_12tokio_rustls6server9TlsStreamNtNtNtNtCsfWKKmeeA0Vo_5tokio3net3tcp6stream9TcpStreamEE0CsbidLK1h0Ms2_12h1_proxy_e2e
FN:574,_RNCINvMs4_NtCsiFMhfKJXoB5_5lb_l78h1_proxyNtB8_7H1Proxy16serve_connectionNtNtNtNtCsfWKKmeeA0Vo_5tokio3net3tcp6stream9TcpStreamE0CsbidLK1h0Ms2_12h1_proxy_e2e
FN:614,_RNCINvMs4_NtCsiFMhfKJXoB5_5lb_l78h1_proxyNtB8_7H1Proxy28serve_connection_with_cancelINtNtCs7m3feRqGqA4_12tokio_rustls6server9TlsStreamNtNtNtNtCsfWKKmeeA0Vo_5tokio3net3tcp6stream9TcpStreamEE0CsbidLK1h0Ms2_12h1_proxy_e2e
FN:614,_RNCINvMs4_NtCsiFMhfKJXoB5_5lb_l78h1_proxyNtB8_7H1Proxy28serve_connection_with_cancelNtNtNtNtCsfWKKmeeA0Vo_5tokio3net3tcp6stream9TcpStreamE0CsbidLK1h0Ms2_12h1_proxy_e2e
FN:646,_RNCINvMs4_NtCsiFMhfKJXoB5_5lb_l78h1_proxyNtB8_7H1Proxy32serve_connection_with_cancel_sniINtNtCs7m3feRqGqA4_12tokio_rustls6server9TlsStreamNtNtNtNtCsfWKKmeeA0Vo_5tokio3net3tcp6stream9TcpStreamEE0CsbidLK1h0Ms2_12h1_proxy_e2e
FN:646,_RNCINvMs4_NtCsiFMhfKJXoB5_5lb_l78h1_proxyNtB8_7H1Proxy32serve_connection_with_cancel_sniNtNtNtNtCsfWKKmeeA0Vo_5tokio3net3tcp6stream9TcpStreamE0CsbidLK1h0Ms2_12h1_proxy_e2e
FN:2197,_RNCNCNCNCNvNtCsiFMhfKJXoB5_5lb_l78h1_proxy23upstream_response_to_h10000Bb_
FN:2071,_RNCNCNCNCNvNtCsiFMhfKJXoB5_5lb_l78h1_proxy26translate_h1_request_to_h20s_000Bb_
FN:2337,_RNCNCNCNCNvNtCsiFMhfKJXoB5_5lb_l78h1_proxy34collect_h1_request_to_h3_fieldlist0s_000Bb_
FN:1044,_RNCNCNCNvMs6_NtCsiFMhfKJXoB5_5lb_l78h1_proxyNtBb_7H1Proxy12handle_inner0s5_00Bd_
FN:1078,_RNCNCNCNvMs6_NtCsiFMhfKJXoB5_5lb_l78h1_proxyNtBb_7H1Proxy12handle_inner0s6_00Bd_
FN:2194,_RNCNCNCNvNtCsiFMhfKJXoB5_5lb_l78h1_proxy23upstream_response_to_h1000B9_
FN:2211,_RNCNCNCNvNtCsiFMhfKJXoB5_5lb_l78h1_proxy23upstream_response_to_h10s_00B9_
FN:2089,_RNCNCNCNvNtCsiFMhfKJXoB5_5lb_l78h1_proxy26translate_h1_request_to_h20s1_00B9_
FN:2068,_RNCNCNCNvNtCsiFMhfKJXoB5_5lb_l78h1_proxy26translate_h1_request_to_h20s_00B9_
FN:2362,_RNCNCNCNvNtCsiFMhfKJXoB5_5lb_l78h1_proxy34collect_h1_request_to_h3_fieldlist0s3_00B9_
FN:2334,_RNCNCNCNvNtCsiFMhfKJXoB5_5lb_l78h1_proxy34collect_h1_request_to_h3_fieldlist0s_00B9_
FN:896,_RNCNCNvMs6_NtCsiFMhfKJXoB5_5lb_l78h1_proxyNtB9_7H1Proxy12handle_inner00Bb_
FN:919,_RNCNCNvMs6_NtCsiFMhfKJXoB5_5lb_l78h1_proxyNtB9_7H1Proxy12handle_inner0s0_0Bb_
FN:947,_RNCNCNvMs6_NtCsiFMhfKJXoB5_5lb_l78h1_proxyNtB9_7H1Proxy12handle_inner0s1_0Bb_
FN:959,_RNCNCNvMs6_NtCsiFMhfKJXoB5_5lb_l78h1_proxyNtB9_7H1Proxy12handle_inner0s2_0Bb_
FN:987,_RNCNCNvMs6_NtCsiFMhfKJXoB5_5lb_l78h1_proxyNtB9_7H1Proxy12handle_inner0s3_0Bb_
FN:1014,_RNCNCNvMs6_NtCsiFMhfKJXoB5_5lb_l78h1_proxyNtB9_7H1Proxy12handle_inner0s4_0Bb_
FN:1041,_RNCNCNvMs6_NtCsiFMhfKJXoB5_5lb_l78h1_proxyNtB9_7H1Proxy12handle_inner0s5_0Bb_
FN:1062,_RNCNCNvMs6_NtCsiFMhfKJXoB5_5lb_l78h1_proxyNtB9_7H1Proxy12handle_inner0s6_0Bb_
FN:1089,_RNCNCNvMs6_NtCsiFMhfKJXoB5_5lb_l78h1_proxyNtB9_7H1Proxy12handle_inner0s7_0Bb_
FN:897,_RNCNCNvMs6_NtCsiFMhfKJXoB5_5lb_l78h1_proxyNtB9_7H1Proxy12handle_inner0s_0Bb_
FN:1212,_RNCNCNvMs6_NtCsiFMhfKJXoB5_5lb_l78h1_proxyNtB9_7H1Proxy13proxy_request00Bb_
FN:1233,_RNCNCNvMs6_NtCsiFMhfKJXoB5_5lb_l78h1_proxyNtB9_7H1Proxy13proxy_request0s0_0Bb_
FN:1235,_RNCNCNvMs6_NtCsiFMhfKJXoB5_5lb_l78h1_proxyNtB9_7H1Proxy13proxy_request0s1_0Bb_
FN:1265,_RNCNCNvMs6_NtCsiFMhfKJXoB5_5lb_l78h1_proxyNtB9_7H1Proxy13proxy_request0s2_0Bb_
FN:1281,_RNCNCNvMs6_NtCsiFMhfKJXoB5_5lb_l78h1_proxyNtB9_7H1Proxy13proxy_request0s3_0Bb_
FN:1518,_RNCNCNvMs6_NtCsiFMhfKJXoB5_5lb_l78h1_proxyNtB9_7H1Proxy13proxy_request0s4_0Bb_
FN:1221,_RNCNCNvMs6_NtCsiFMhfKJXoB5_5lb_l78h1_proxyNtB9_7H1Proxy13proxy_request0s_0Bb_
FN:1685,_RNCNCNvMs6_NtCsiFMhfKJXoB5_5lb_l78h1_proxyNtB9_7H1Proxy17handle_ws_upgrade00Bb_
FN:1758,_RNCNCNvMs6_NtCsiFMhfKJXoB5_5lb_l78h1_proxyNtB9_7H1Proxy17handle_ws_upgrade0s0_0Bb_
FN:1759,_RNCNCNvMs6_NtCsiFMhfKJXoB5_5lb_l78h1_proxyNtB9_7H1Proxy17handle_ws_upgrade0s1_0Bb_
FN:1761,_RNCNCNvMs6_NtCsiFMhfKJXoB5_5lb_l78h1_proxyNtB9_7H1Proxy17handle_ws_upgrade0s2_0Bb_
FN:1762,_RNCNCNvMs6_NtCsiFMhfKJXoB5_5lb_l78h1_proxyNtB9_7H1Proxy17handle_ws_upgrade0s3_0Bb_
FN:1773,_RNCNCNvMs6_NtCsiFMhfKJXoB5_5lb_l78h1_proxyNtB9_7H1Proxy17handle_ws_upgrade0s5_0Bb_
FN:1689,_RNCNCNvMs6_NtCsiFMhfKJXoB5_5lb_l78h1_proxyNtB9_7H1Proxy17handle_ws_upgrade0s_0Bb_
FN:1835,_RNCNCNvNtCsiFMhfKJXoB5_5lb_l78h1_proxy16dial_upstream_ws00B7_
FN:1842,_RNCNCNvNtCsiFMhfKJXoB5_5lb_l78h1_proxy16dial_upstream_ws0s0_0B7_
FN:1870,_RNCNCNvNtCsiFMhfKJXoB5_5lb_l78h1_proxy16dial_upstream_ws0s1_0B7_
FN:1838,_RNCNCNvNtCsiFMhfKJXoB5_5lb_l78h1_proxy16dial_upstream_ws0s_0B7_
FN:2192,_RNCNCNvNtCsiFMhfKJXoB5_5lb_l78h1_proxy23upstream_response_to_h100B7_
FN:2208,_RNCNCNvNtCsiFMhfKJXoB5_5lb_l78h1_proxy23upstream_response_to_h10s_0B7_
FN:2061,_RNCNCNvNtCsiFMhfKJXoB5_5lb_l78h1_proxy26translate_h1_request_to_h200B7_
FN:2082,_RNCNCNvNtCsiFMhfKJXoB5_5lb_l78h1_proxy26translate_h1_request_to_h20s0_0B7_
FN:2086,_RNCNCNvNtCsiFMhfKJXoB5_5lb_l78h1_proxy26translate_h1_request_to_h20s1_0B7_
FN:2098,_RNCNCNvNtCsiFMhfKJXoB5_5lb_l78h1_proxy26translate_h1_request_to_h20s2_0B7_
FN:2104,_RNCNCNvNtCsiFMhfKJXoB5_5lb_l78h1_proxy26translate_h1_request_to_h20s3_0B7_
FN:2105,_RNCNCNvNtCsiFMhfKJXoB5_5lb_l78h1_proxy26translate_h1_request_to_h20s4_0B7_
FN:2106,_RNCNCNvNtCsiFMhfKJXoB5_5lb_l78h1_proxy26translate_h1_request_to_h20s5_0B7_
FN:2135,_RNCNCNvNtCsiFMhfKJXoB5_5lb_l78h1_proxy26translate_h1_request_to_h20s6_0B7_
FN:2066,_RNCNCNvNtCsiFMhfKJXoB5_5lb_l78h1_proxy26translate_h1_request_to_h20s_0B7_
FN:2327,_RNCNCNvNtCsiFMhfKJXoB5_5lb_l78h1_proxy34collect_h1_request_to_h3_fieldlist00B7_
FN:2345,_RNCNCNvNtCsiFMhfKJXoB5_5lb_l78h1_proxy34collect_h1_request_to_h3_fieldlist0s0_0B7_
FN:2346,_RNCNCNvNtCsiFMhfKJXoB5_5lb_l78h1_proxy34collect_h1_request_to_h3_fieldlist0s1_0B7_
FN:2354,_RNCNCNvNtCsiFMhfKJXoB5_5lb_l78h1_proxy34collect_h1_request_to_h3_fieldlist0s2_0B7_
FN:2359,_RNCNCNvNtCsiFMhfKJXoB5_5lb_l78h1_proxy34collect_h1_request_to_h3_fieldlist0s3_0B7_
FN:2366,_RNCNCNvNtCsiFMhfKJXoB5_5lb_l78h1_proxy34collect_h1_request_to_h3_fieldlist0s4_0B7_
FN:2380,_RNCNCNvNtCsiFMhfKJXoB5_5lb_l78h1_proxy34collect_h1_request_to_h3_fieldlist0s5_0B7_
FN:2384,_RNCNCNvNtCsiFMhfKJXoB5_5lb_l78h1_proxy34collect_h1_request_to_h3_fieldlist0s6_0B7_
FN:2332,_RNCNCNvNtCsiFMhfKJXoB5_5lb_l78h1_proxy34collect_h1_request_to_h3_fieldlist0s_0B7_
FN:857,_RNCNvMs6_NtCsiFMhfKJXoB5_5lb_l78h1_proxyNtB7_7H1Proxy12handle_inner0B9_
FN:1177,_RNCNvMs6_NtCsiFMhfKJXoB5_5lb_l78h1_proxyNtB7_7H1Proxy13proxy_request0B9_
FN:1567,_RNCNvMs6_NtCsiFMhfKJXoB5_5lb_l78h1_proxyNtB7_7H1Proxy14proxy_h1_to_h20B9_
FN:1596,_RNCNvMs6_NtCsiFMhfKJXoB5_5lb_l78h1_proxyNtB7_7H1Proxy14proxy_h1_to_h30B9_
FN:1662,_RNCNvMs6_NtCsiFMhfKJXoB5_5lb_l78h1_proxyNtB7_7H1Proxy17handle_ws_upgrade0B9_
FN:824,_RNCNvMs6_NtCsiFMhfKJXoB5_5lb_l78h1_proxyNtB7_7H1Proxy6handle0B9_
FN:1828,_RNCNvNtCsiFMhfKJXoB5_5lb_l78h1_proxy16dial_upstream_ws0B5_
FN:1950,_RNCNvNtCsiFMhfKJXoB5_5lb_l78h1_proxy16strip_hop_by_hop0B5_
FN:1953,_RNCNvNtCsiFMhfKJXoB5_5lb_l78h1_proxy16strip_hop_by_hops0_0B5_
FN:1954,_RNCNvNtCsiFMhfKJXoB5_5lb_l78h1_proxy16strip_hop_by_hops1_0B5_
FN:1951,_RNCNvNtCsiFMhfKJXoB5_5lb_l78h1_proxy16strip_hop_by_hops_0B5_
FN:1883,_RNCNvNtCsiFMhfKJXoB5_5lb_l78h1_proxy21run_h1_ws_splice_task0B5_
FN:2179,_RNCNvNtCsiFMhfKJXoB5_5lb_l78h1_proxy23upstream_response_to_h10B5_
FN:2054,_RNCNvNtCsiFMhfKJXoB5_5lb_l78h1_proxy26translate_h1_request_to_h20B5_
FN:160,_RNCNvNtCsiFMhfKJXoB5_5lb_l78h1_proxy28validate_h1_request_trailers0B5_
FN:2280,_RNCNvNtCsiFMhfKJXoB5_5lb_l78h1_proxy31build_h1_response_with_trailers0B5_
FN:2301,_RNCNvNtCsiFMhfKJXoB5_5lb_l78h1_proxy31build_h1_response_with_trailerss_0B5_
FN:2321,_RNCNvNtCsiFMhfKJXoB5_5lb_l78h1_proxy34collect_h1_request_to_h3_fieldlist0B5_
FN:783,_RNCNvXs5_NtCsiFMhfKJXoB5_5lb_l78h1_proxyNtB7_12ProxyServiceINtNtNtCsgB3dp6qvXvn_5hyper7service7service7ServiceINtNtCsjFxw70quGA5_4http7request7RequestNtNtNtB12_4body8incoming8IncomingEE4call0B9_
FN:571,_RINvMs4_NtCsiFMhfKJXoB5_5lb_l78h1_proxyNtB6_7H1Proxy16serve_connectionpEB8_
FN:606,_RINvMs4_NtCsiFMhfKJXoB5_5lb_l78h1_proxyNtB6_7H1Proxy28serve_connection_with_cancelpEB8_
FN:637,_RINvMs4_NtCsiFMhfKJXoB5_5lb_l78h1_proxyNtB6_7H1Proxy32serve_connection_with_cancel_snipEB8_
FN:574,_RNCINvMs4_NtCsiFMhfKJXoB5_5lb_l78h1_proxyNtB8_7H1Proxy16serve_connectionpE0Ba_
FN:614,_RNCINvMs4_NtCsiFMhfKJXoB5_5lb_l78h1_proxyNtB8_7H1Proxy28serve_connection_with_cancelpE0Ba_
FN:646,_RNCINvMs4_NtCsiFMhfKJXoB5_5lb_l78h1_proxyNtB8_7H1Proxy32serve_connection_with_cancel_snipE0Ba_
FN:184,_RNvMs0_NtCsiFMhfKJXoB5_5lb_l78h1_proxyNtB5_12AltSvcConfig12header_value
FN:255,_RNvMs2_NtCsiFMhfKJXoB5_5lb_l78h1_proxyNtB5_15RoundRobinAddrs3new
FN:445,_RNvMs4_NtCsiFMhfKJXoB5_5lb_l78h1_proxyNtB5_7H1Proxy10with_hooks
FN:460,_RNvMs4_NtCsiFMhfKJXoB5_5lb_l78h1_proxyNtB5_7H1Proxy13with_watchdog
FN:553,_RNvMs4_NtCsiFMhfKJXoB5_5lb_l78h1_proxyNtB5_7H1Proxy14with_websocket
FN:518,_RNvMs4_NtCsiFMhfKJXoB5_5lb_l78h1_proxyNtB5_7H1Proxy15has_h2_upstream
FN:525,_RNvMs4_NtCsiFMhfKJXoB5_5lb_l78h1_proxyNtB5_7H1Proxy15has_h3_upstream
FN:501,_RNvMs4_NtCsiFMhfKJXoB5_5lb_l78h1_proxyNtB5_7H1Proxy16with_h2_upstream
FN:509,_RNvMs4_NtCsiFMhfKJXoB5_5lb_l78h1_proxyNtB5_7H1Proxy16with_h3_upstream
FN:408,_RNvMs4_NtCsiFMhfKJXoB5_5lb_l78h1_proxyNtB5_7H1Proxy16with_multi_proto
FN:493,_RNvMs4_NtCsiFMhfKJXoB5_5lb_l78h1_proxyNtB5_7H1Proxy17with_expected_sni
FN:470,_RNvMs4_NtCsiFMhfKJXoB5_5lb_l78h1_proxyNtB5_7H1Proxy19with_smuggle_strict
FN:534,_RNvMs4_NtCsiFMhfKJXoB5_5lb_l78h1_proxyNtB5_7H1Proxy27with_max_keepalive_requests
FN:481,_RNvMs4_NtCsiFMhfKJXoB5_5lb_l78h1_proxyNtB5_7H1Proxy29with_header_underscore_policy
FN:544,_RNvMs4_NtCsiFMhfKJXoB5_5lb_l78h1_proxyNtB5_7H1Proxy33keepalive_cap_termination_counter
FN:364,_RNvMs4_NtCsiFMhfKJXoB5_5lb_l78h1_proxyNtB5_7H1Proxy3new
FN:851,_RNvMs6_NtCsiFMhfKJXoB5_5lb_l78h1_proxyNtB5_7H1Proxy12handle_inner
FN:1173,_RNvMs6_NtCsiFMhfKJXoB5_5lb_l78h1_proxyNtB5_7H1Proxy13proxy_request
FN:1563,_RNvMs6_NtCsiFMhfKJXoB5_5lb_l78h1_proxyNtB5_7H1Proxy14proxy_h1_to_h2
FN:1592,_RNvMs6_NtCsiFMhfKJXoB5_5lb_l78h1_proxyNtB5_7H1Proxy14proxy_h1_to_h3
FN:1778,_RNvMs6_NtCsiFMhfKJXoB5_5lb_l78h1_proxyNtB5_7H1Proxy17finalize_response
FN:1658,_RNvMs6_NtCsiFMhfKJXoB5_5lb_l78h1_proxyNtB5_7H1Proxy17handle_ws_upgrade
FN:819,_RNvMs6_NtCsiFMhfKJXoB5_5lb_l78h1_proxyNtB5_7H1Proxy6handle
FN:2018,_RNvNtCsiFMhfKJXoB5_5lb_l78h1_proxy10append_via
FN:1978,_RNvNtCsiFMhfKJXoB5_5lb_l78h1_proxy10append_xff
FN:1900,_RNvNtCsiFMhfKJXoB5_5lb_l78h1_proxy14error_response
FN:1820,_RNvNtCsiFMhfKJXoB5_5lb_l78h1_proxy16dial_upstream_ws
FN:1944,_RNvNtCsiFMhfKJXoB5_5lb_l78h1_proxy16strip_hop_by_hop
FN:2393,_RNvNtCsiFMhfKJXoB5_5lb_l78h1_proxy17h3_response_to_h1
FN:2456,_RNvNtCsiFMhfKJXoB5_5lb_l78h1_proxy18record_retained_h1
FN:1924,_RNvNtCsiFMhfKJXoB5_5lb_l78h1_proxy18reject_to_response
FN:1879,_RNvNtCsiFMhfKJXoB5_5lb_l78h1_proxy21run_h1_ws_splice_task
FN:2176,_RNvNtCsiFMhfKJXoB5_5lb_l78h1_proxy23upstream_response_to_h1
FN:2144,_RNvNtCsiFMhfKJXoB5_5lb_l78h1_proxy24build_body_with_trailers
FN:2052,_RNvNtCsiFMhfKJXoB5_5lb_l78h1_proxy26translate_h1_request_to_h2
FN:149,_RNvNtCsiFMhfKJXoB5_5lb_l78h1_proxy28validate_h1_request_trailers
FN:2244,_RNvNtCsiFMhfKJXoB5_5lb_l78h1_proxy31build_h1_response_with_trailers
FN:2317,_RNvNtCsiFMhfKJXoB5_5lb_l78h1_proxy34collect_h1_request_to_h3_fieldlist
FN:2007,_RNvNtCsiFMhfKJXoB5_5lb_l78h1_proxy7set_xfh
FN:1999,_RNvNtCsiFMhfKJXoB5_5lb_l78h1_proxy7set_xfp
FN:124,_RNvXNtCsiFMhfKJXoB5_5lb_l78h1_proxyNtB2_11H1PumpAbortNtNtCs2va5m0jqTTM_4core3fmt7Display3fmt
FN:205,_RNvXs1_NtCsiFMhfKJXoB5_5lb_l78h1_proxyNtB5_12HttpTimeoutsNtNtCs2va5m0jqTTM_4core7default7Default7default
FN:267,_RNvXs3_NtCsiFMhfKJXoB5_5lb_l78h1_proxyNtB5_15RoundRobinAddrsNtB5_13BackendPicker4pick
FN:768,_RNvXs5_NtCsiFMhfKJXoB5_5lb_l78h1_proxyNtB5_12ProxyServiceINtNtNtCsgB3dp6qvXvn_5hyper7service7service7ServiceINtNtCsjFxw70quGA5_4http7request7RequestNtNtNtB10_4body8incoming8IncomingEE4call
FN:571,_RINvMs4_NtCsiFMhfKJXoB5_5lb_l78h1_proxyNtB6_7H1Proxy16serve_connectionNtNtNtNtCsfWKKmeeA0Vo_5tokio3net3tcp6stream9TcpStreamECshHpPGpX4dRt_24h1h1_md_streaming_verify
FN:606,_RINvMs4_NtCsiFMhfKJXoB5_5lb_l78h1_proxyNtB6_7H1Proxy28serve_connection_with_cancelNtNtNtNtCsfWKKmeeA0Vo_5tokio3net3tcp6stream9TcpStreamECshHpPGpX4dRt_24h1h1_md_streaming_verify
FN:637,_RINvMs4_NtCsiFMhfKJXoB5_5lb_l78h1_proxyNtB6_7H1Proxy32serve_connection_with_cancel_sniNtNtNtNtCsfWKKmeeA0Vo_5tokio3net3tcp6stream9TcpStreamECshHpPGpX4dRt_24h1h1_md_streaming_verify
FN:574,_RNCINvMs4_NtCsiFMhfKJXoB5_5lb_l78h1_proxyNtB8_7H1Proxy16serve_connectionNtNtNtNtCsfWKKmeeA0Vo_5tokio3net3tcp6stream9TcpStreamE0CshHpPGpX4dRt_24h1h1_md_streaming_verify
FN:614,_RNCINvMs4_NtCsiFMhfKJXoB5_5lb_l78h1_proxyNtB8_7H1Proxy28serve_connection_with_cancelNtNtNtNtCsfWKKmeeA0Vo_5tokio3net3tcp6stream9TcpStreamE0CshHpPGpX4dRt_24h1h1_md_streaming_verify
FN:646,_RNCINvMs4_NtCsiFMhfKJXoB5_5lb_l78h1_proxyNtB8_7H1Proxy32serve_connection_with_cancel_sniNtNtNtNtCsfWKKmeeA0Vo_5tokio3net3tcp6stream9TcpStreamE0CshHpPGpX4dRt_24h1h1_md_streaming_verify
FN:571,_RINvMs4_NtCsiFMhfKJXoB5_5lb_l78h1_proxyNtB6_7H1Proxy16serve_connectionINtNtCs7m3feRqGqA4_12tokio_rustls6server9TlsStreamNtNtNtNtCsfWKKmeeA0Vo_5tokio3net3tcp6stream9TcpStreamEECs4v7etBR30tT_12h2_proxy_e2e
FN:606,_RINvMs4_NtCsiFMhfKJXoB5_5lb_l78h1_proxyNtB6_7H1Proxy28serve_connection_with_cancelINtNtCs7m3feRqGqA4_12tokio_rustls6server9TlsStreamNtNtNtNtCsfWKKmeeA0Vo_5tokio3net3tcp6stream9TcpStreamEECs4v7etBR30tT_12h2_proxy_e2e
FN:637,_RINvMs4_NtCsiFMhfKJXoB5_5lb_l78h1_proxyNtB6_7H1Proxy32serve_connection_with_cancel_sniINtNtCs7m3feRqGqA4_12tokio_rustls6server9TlsStreamNtNtNtNtCsfWKKmeeA0Vo_5tokio3net3tcp6stream9TcpStreamEECs4v7etBR30tT_12h2_proxy_e2e
FN:574,_RNCINvMs4_NtCsiFMhfKJXoB5_5lb_l78h1_proxyNtB8_7H1Proxy16serve_connectionINtNtCs7m3feRqGqA4_12tokio_rustls6server9TlsStreamNtNtNtNtCsfWKKmeeA0Vo_5tokio3net3tcp6stream9TcpStreamEE0Cs4v7etBR30tT_12h2_proxy_e2e
FN:614,_RNCINvMs4_NtCsiFMhfKJXoB5_5lb_l78h1_proxyNtB8_7H1Proxy28serve_connection_with_cancelINtNtCs7m3feRqGqA4_12tokio_rustls6server9TlsStreamNtNtNtNtCsfWKKmeeA0Vo_5tokio3net3tcp6stream9TcpStreamEE0Cs4v7etBR30tT_12h2_proxy_e2e
FN:646,_RNCINvMs4_NtCsiFMhfKJXoB5_5lb_l78h1_proxyNtB8_7H1Proxy32serve_connection_with_cancel_sniINtNtCs7m3feRqGqA4_12tokio_rustls6server9TlsStreamNtNtNtNtCsfWKKmeeA0Vo_5tokio3net3tcp6stream9TcpStreamEE0Cs4v7etBR30tT_12h2_proxy_e2e
FN:571,_RINvMs4_NtCsiFMhfKJXoB5_5lb_l78h1_proxyNtB6_7H1Proxy16serve_connectionINtNtCs7m3feRqGqA4_12tokio_rustls6server9TlsStreamNtNtNtNtCsfWKKmeeA0Vo_5tokio3net3tcp6stream9TcpStreamEECsjqGwtXRutxH_23h2h1_md_coverage_driver
FN:606,_RINvMs4_NtCsiFMhfKJXoB5_5lb_l78h1_proxyNtB6_7H1Proxy28serve_connection_with_cancelINtNtCs7m3feRqGqA4_12tokio_rustls6server9TlsStreamNtNtNtNtCsfWKKmeeA0Vo_5tokio3net3tcp6stream9TcpStreamEECsjqGwtXRutxH_23h2h1_md_coverage_driver
FN:637,_RINvMs4_NtCsiFMhfKJXoB5_5lb_l78h1_proxyNtB6_7H1Proxy32serve_connection_with_cancel_sniINtNtCs7m3feRqGqA4_12tokio_rustls6server9TlsStreamNtNtNtNtCsfWKKmeeA0Vo_5tokio3net3tcp6stream9TcpStreamEECsjqGwtXRutxH_23h2h1_md_coverage_driver
FN:574,_RNCINvMs4_NtCsiFMhfKJXoB5_5lb_l78h1_proxyNtB8_7H1Proxy16serve_connectionINtNtCs7m3feRqGqA4_12tokio_rustls6server9TlsStreamNtNtNtNtCsfWKKmeeA0Vo_5tokio3net3tcp6stream9TcpStreamEE0CsjqGwtXRutxH_23h2h1_md_coverage_driver
FN:614,_RNCINvMs4_NtCsiFMhfKJXoB5_5lb_l78h1_proxyNtB8_7H1Proxy28serve_connection_with_cancelINtNtCs7m3feRqGqA4_12tokio_rustls6server9TlsStreamNtNtNtNtCsfWKKmeeA0Vo_5tokio3net3tcp6stream9TcpStreamEE0CsjqGwtXRutxH_23h2h1_md_coverage_driver
FN:646,_RNCINvMs4_NtCsiFMhfKJXoB5_5lb_l78h1_proxyNtB8_7H1Proxy32serve_connection_with_cancel_sniINtNtCs7m3feRqGqA4_12tokio_rustls6server9TlsStreamNtNtNtNtCsfWKKmeeA0Vo_5tokio3net3tcp6stream9TcpStreamEE0CsjqGwtXRutxH_23h2h1_md_coverage_driver
FN:571,_RINvMs4_NtCsiFMhfKJXoB5_5lb_l78h1_proxyNtB6_7H1Proxy16serve_connectionINtNtCs7m3feRqGqA4_12tokio_rustls6server9TlsStreamNtNtNtNtCsfWKKmeeA0Vo_5tokio3net3tcp6stream9TcpStreamEECsgWye6vtm8bK_24h2h1_md_streaming_verify
FN:606,_RINvMs4_NtCsiFMhfKJXoB5_5lb_l78h1_proxyNtB6_7H1Proxy28serve_connection_with_cancelINtNtCs7m3feRqGqA4_12tokio_rustls6server9TlsStreamNtNtNtNtCsfWKKmeeA0Vo_5tokio3net3tcp6stream9TcpStreamEECsgWye6vtm8bK_24h2h1_md_streaming_verify
FN:637,_RINvMs4_NtCsiFMhfKJXoB5_5lb_l78h1_proxyNtB6_7H1Proxy32serve_connection_with_cancel_sniINtNtCs7m3feRqGqA4_12tokio_rustls6server9TlsStreamNtNtNtNtCsfWKKmeeA0Vo_5tokio3net3tcp6stream9TcpStreamEECsgWye6vtm8bK_24h2h1_md_streaming_verify
FN:574,_RNCINvMs4_NtCsiFMhfKJXoB5_5lb_l78h1_proxyNtB8_7H1Proxy16serve_connectionINtNtCs7m3feRqGqA4_12tokio_rustls6server9TlsStreamNtNtNtNtCsfWKKmeeA0Vo_5tokio3net3tcp6stream9TcpStreamEE0CsgWye6vtm8bK_24h2h1_md_streaming_verify
FN:614,_RNCINvMs4_NtCsiFMhfKJXoB5_5lb_l78h1_proxyNtB8_7H1Proxy28serve_connection_with_cancelINtNtCs7m3feRqGqA4_12tokio_rustls6server9TlsStreamNtNtNtNtCsfWKKmeeA0Vo_5tokio3net3tcp6stream9TcpStreamEE0CsgWye6vtm8bK_24h2h1_md_streaming_verify
FN:646,_RNCINvMs4_NtCsiFMhfKJXoB5_5lb_l78h1_proxyNtB8_7H1Proxy32serve_connection_with_cancel_sniINtNtCs7m3feRqGqA4_12tokio_rustls6server9TlsStreamNtNtNtNtCsfWKKmeeA0Vo_5tokio3net3tcp6stream9TcpStreamEE0CsgWye6vtm8bK_24h2h1_md_streaming_verify
FNDA:2,_RINvMs4_NtCsiFMhfKJXoB5_5lb_l78h1_proxyNtB6_7H1Proxy16serve_connectionINtNtCs7m3feRqGqA4_12tokio_rustls6server9TlsStreamNtNtNtNtCsfWKKmeeA0Vo_5tokio3net3tcp6stream9TcpStreamEECsbidLK1h0Ms2_12h1_proxy_e2e
FNDA:5,_RINvMs4_NtCsiFMhfKJXoB5_5lb_l78h1_proxyNtB6_7H1Proxy16serve_connectionNtNtNtNtCsfWKKmeeA0Vo_5tokio3net3tcp6stream9TcpStreamECsbidLK1h0Ms2_12h1_proxy_e2e
FNDA:2,_RINvMs4_NtCsiFMhfKJXoB5_5lb_l78h1_proxyNtB6_7H1Proxy28serve_connection_with_cancelINtNtCs7m3feRqGqA4_12tokio_rustls6server9TlsStreamNtNtNtNtCsfWKKmeeA0Vo_5tokio3net3tcp6stream9TcpStreamEECsbidLK1h0Ms2_12h1_proxy_e2e
FNDA:5,_RINvMs4_NtCsiFMhfKJXoB5_5lb_l78h1_proxyNtB6_7H1Proxy28serve_connection_with_cancelNtNtNtNtCsfWKKmeeA0Vo_5tokio3net3tcp6stream9TcpStreamECsbidLK1h0Ms2_12h1_proxy_e2e
FNDA:2,_RINvMs4_NtCsiFMhfKJXoB5_5lb_l78h1_proxyNtB6_7H1Proxy32serve_connection_with_cancel_sniINtNtCs7m3feRqGqA4_12tokio_rustls6server9TlsStreamNtNtNtNtCsfWKKmeeA0Vo_5tokio3net3tcp6stream9TcpStreamEECsbidLK1h0Ms2_12h1_proxy_e2e
FNDA:5,_RINvMs4_NtCsiFMhfKJXoB5_5lb_l78h1_proxyNtB6_7H1Proxy32serve_connection_with_cancel_sniNtNtNtNtCsfWKKmeeA0Vo_5tokio3net3tcp6stream9TcpStreamECsbidLK1h0Ms2_12h1_proxy_e2e
FNDA:2,_RNCINvMs4_NtCsiFMhfKJXoB5_5lb_l78h1_proxyNtB8_7H1Proxy16serve_connectionINtNtCs7m3feRqGqA4_12tokio_rustls6server9TlsStreamNtNtNtNtCsfWKKmeeA0Vo_5tokio3net3tcp6stream9TcpStreamEE0CsbidLK1h0Ms2_12h1_proxy_e2e
FNDA:5,_RNCINvMs4_NtCsiFMhfKJXoB5_5lb_l78h1_proxyNtB8_7H1Proxy16serve_connectionNtNtNtNtCsfWKKmeeA0Vo_5tokio3net3tcp6stream9TcpStreamE0CsbidLK1h0Ms2_12h1_proxy_e2e
FNDA:2,_RNCINvMs4_NtCsiFMhfKJXoB5_5lb_l78h1_proxyNtB8_7H1Proxy28serve_connection_with_cancelINtNtCs7m3feRqGqA4_12tokio_rustls6server9TlsStreamNtNtNtNtCsfWKKmeeA0Vo_5tokio3net3tcp6stream9TcpStreamEE0CsbidLK1h0Ms2_12h1_proxy_e2e
FNDA:5,_RNCINvMs4_NtCsiFMhfKJXoB5_5lb_l78h1_proxyNtB8_7H1Proxy28serve_connection_with_cancelNtNtNtNtCsfWKKmeeA0Vo_5tokio3net3tcp6stream9TcpStreamE0CsbidLK1h0Ms2_12h1_proxy_e2e
FNDA:2,_RNCINvMs4_NtCsiFMhfKJXoB5_5lb_l78h1_proxyNtB8_7H1Proxy32serve_connection_with_cancel_sniINtNtCs7m3feRqGqA4_12tokio_rustls6server9TlsStreamNtNtNtNtCsfWKKmeeA0Vo_5tokio3net3tcp6stream9TcpStreamEE0CsbidLK1h0Ms2_12h1_proxy_e2e
FNDA:5,_RNCINvMs4_NtCsiFMhfKJXoB5_5lb_l78h1_proxyNtB8_7H1Proxy32serve_connection_with_cancel_sniNtNtNtNtCsfWKKmeeA0Vo_5tokio3net3tcp6stream9TcpStreamE0CsbidLK1h0Ms2_12h1_proxy_e2e
FNDA:0,_RNCNCNCNCNvNtCsiFMhfKJXoB5_5lb_l78h1_proxy23upstream_response_to_h10000Bb_
FNDA:0,_RNCNCNCNCNvNtCsiFMhfKJXoB5_5lb_l78h1_proxy26translate_h1_request_to_h20s_000Bb_
FNDA:0,_RNCNCNCNCNvNtCsiFMhfKJXoB5_5lb_l78h1_proxy34collect_h1_request_to_h3_fieldlist0s_000Bb_
FNDA:49,_RNCNCNCNvMs6_NtCsiFMhfKJXoB5_5lb_l78h1_proxyNtBb_7H1Proxy12handle_inner0s5_00Bd_
FNDA:0,_RNCNCNCNvMs6_NtCsiFMhfKJXoB5_5lb_l78h1_proxyNtBb_7H1Proxy12handle_inner0s6_00Bd_
FNDA:0,_RNCNCNCNvNtCsiFMhfKJXoB5_5lb_l78h1_proxy23upstream_response_to_h1000B9_
FNDA:0,_RNCNCNCNvNtCsiFMhfKJXoB5_5lb_l78h1_proxy23upstream_response_to_h10s_00B9_
FNDA:0,_RNCNCNCNvNtCsiFMhfKJXoB5_5lb_l78h1_proxy26translate_h1_request_to_h20s1_00B9_
FNDA:0,_RNCNCNCNvNtCsiFMhfKJXoB5_5lb_l78h1_proxy26translate_h1_request_to_h20s_00B9_
FNDA:0,_RNCNCNCNvNtCsiFMhfKJXoB5_5lb_l78h1_proxy34collect_h1_request_to_h3_fieldlist0s3_00B9_
FNDA:0,_RNCNCNCNvNtCsiFMhfKJXoB5_5lb_l78h1_proxy34collect_h1_request_to_h3_fieldlist0s_00B9_
FNDA:0,_RNCNCNvMs6_NtCsiFMhfKJXoB5_5lb_l78h1_proxyNtB9_7H1Proxy12handle_inner00Bb_
FNDA:0,_RNCNCNvMs6_NtCsiFMhfKJXoB5_5lb_l78h1_proxyNtB9_7H1Proxy12handle_inner0s0_0Bb_
FNDA:49,_RNCNCNvMs6_NtCsiFMhfKJXoB5_5lb_l78h1_proxyNtB9_7H1Proxy12handle_inner0s1_0Bb_
FNDA:0,_RNCNCNvMs6_NtCsiFMhfKJXoB5_5lb_l78h1_proxyNtB9_7H1Proxy12handle_inner0s2_0Bb_
FNDA:0,_RNCNCNvMs6_NtCsiFMhfKJXoB5_5lb_l78h1_proxyNtB9_7H1Proxy12handle_inner0s3_0Bb_
FNDA:0,_RNCNCNvMs6_NtCsiFMhfKJXoB5_5lb_l78h1_proxyNtB9_7H1Proxy12handle_inner0s4_0Bb_
FNDA:49,_RNCNCNvMs6_NtCsiFMhfKJXoB5_5lb_l78h1_proxyNtB9_7H1Proxy12handle_inner0s5_0Bb_
FNDA:0,_RNCNCNvMs6_NtCsiFMhfKJXoB5_5lb_l78h1_proxyNtB9_7H1Proxy12handle_inner0s6_0Bb_
FNDA:21,_RNCNCNvMs6_NtCsiFMhfKJXoB5_5lb_l78h1_proxyNtB9_7H1Proxy12handle_inner0s7_0Bb_
FNDA:0,_RNCNCNvMs6_NtCsiFMhfKJXoB5_5lb_l78h1_proxyNtB9_7H1Proxy12handle_inner0s_0Bb_
FNDA:0,_RNCNCNvMs6_NtCsiFMhfKJXoB5_5lb_l78h1_proxyNtB9_7H1Proxy13proxy_request00Bb_
FNDA:0,_RNCNCNvMs6_NtCsiFMhfKJXoB5_5lb_l78h1_proxyNtB9_7H1Proxy13proxy_request0s0_0Bb_
FNDA:21,_RNCNCNvMs6_NtCsiFMhfKJXoB5_5lb_l78h1_proxyNtB9_7H1Proxy13proxy_request0s1_0Bb_
FNDA:43898,_RNCNCNvMs6_NtCsiFMhfKJXoB5_5lb_l78h1_proxyNtB9_7H1Proxy13proxy_request0s2_0Bb_
FNDA:21,_RNCNCNvMs6_NtCsiFMhfKJXoB5_5lb_l78h1_proxyNtB9_7H1Proxy13proxy_request0s3_0Bb_
FNDA:2,_RNCNCNvMs6_NtCsiFMhfKJXoB5_5lb_l78h1_proxyNtB9_7H1Proxy13proxy_request0s4_0Bb_
FNDA:0,_RNCNCNvMs6_NtCsiFMhfKJXoB5_5lb_l78h1_proxyNtB9_7H1Proxy13proxy_request0s_0Bb_
FNDA:0,_RNCNCNvMs6_NtCsiFMhfKJXoB5_5lb_l78h1_proxyNtB9_7H1Proxy17handle_ws_upgrade00Bb_
FNDA:0,_RNCNCNvMs6_NtCsiFMhfKJXoB5_5lb_l78h1_proxyNtB9_7H1Proxy17handle_ws_upgrade0s0_0Bb_
FNDA:0,_RNCNCNvMs6_NtCsiFMhfKJXoB5_5lb_l78h1_proxyNtB9_7H1Proxy17handle_ws_upgrade0s1_0Bb_
FNDA:0,_RNCNCNvMs6_NtCsiFMhfKJXoB5_5lb_l78h1_proxyNtB9_7H1Proxy17handle_ws_upgrade0s2_0Bb_
FNDA:0,_RNCNCNvMs6_NtCsiFMhfKJXoB5_5lb_l78h1_proxyNtB9_7H1Proxy17handle_ws_upgrade0s3_0Bb_
FNDA:0,_RNCNCNvMs6_NtCsiFMhfKJXoB5_5lb_l78h1_proxyNtB9_7H1Proxy17handle_ws_upgrade0s5_0Bb_
FNDA:0,_RNCNCNvMs6_NtCsiFMhfKJXoB5_5lb_l78h1_proxyNtB9_7H1Proxy17handle_ws_upgrade0s_0Bb_
FNDA:0,_RNCNCNvNtCsiFMhfKJXoB5_5lb_l78h1_proxy16dial_upstream_ws00B7_
FNDA:0,_RNCNCNvNtCsiFMhfKJXoB5_5lb_l78h1_proxy16dial_upstream_ws0s0_0B7_
FNDA:0,_RNCNCNvNtCsiFMhfKJXoB5_5lb_l78h1_proxy16dial_upstream_ws0s1_0B7_
FNDA:0,_RNCNCNvNtCsiFMhfKJXoB5_5lb_l78h1_proxy16dial_upstream_ws0s_0B7_
FNDA:0,_RNCNCNvNtCsiFMhfKJXoB5_5lb_l78h1_proxy23upstream_response_to_h100B7_
FNDA:0,_RNCNCNvNtCsiFMhfKJXoB5_5lb_l78h1_proxy23upstream_response_to_h10s_0B7_
FNDA:0,_RNCNCNvNtCsiFMhfKJXoB5_5lb_l78h1_proxy26translate_h1_request_to_h200B7_
FNDA:0,_RNCNCNvNtCsiFMhfKJXoB5_5lb_l78h1_proxy26translate_h1_request_to_h20s0_0B7_
FNDA:0,_RNCNCNvNtCsiFMhfKJXoB5_5lb_l78h1_proxy26translate_h1_request_to_h20s1_0B7_
FNDA:0,_RNCNCNvNtCsiFMhfKJXoB5_5lb_l78h1_proxy26translate_h1_request_to_h20s2_0B7_
FNDA:0,_RNCNCNvNtCsiFMhfKJXoB5_5lb_l78h1_proxy26translate_h1_request_to_h20s3_0B7_
FNDA:0,_RNCNCNvNtCsiFMhfKJXoB5_5lb_l78h1_proxy26translate_h1_request_to_h20s4_0B7_
FNDA:0,_RNCNCNvNtCsiFMhfKJXoB5_5lb_l78h1_proxy26translate_h1_request_to_h20s5_0B7_
FNDA:0,_RNCNCNvNtCsiFMhfKJXoB5_5lb_l78h1_proxy26translate_h1_request_to_h20s6_0B7_
FNDA:0,_RNCNCNvNtCsiFMhfKJXoB5_5lb_l78h1_proxy26translate_h1_request_to_h20s_0B7_
FNDA:0,_RNCNCNvNtCsiFMhfKJXoB5_5lb_l78h1_proxy34collect_h1_request_to_h3_fieldlist00B7_
FNDA:0,_RNCNCNvNtCsiFMhfKJXoB5_5lb_l78h1_proxy34collect_h1_request_to_h3_fieldlist0s0_0B7_
FNDA:0,_RNCNCNvNtCsiFMhfKJXoB5_5lb_l78h1_proxy34collect_h1_request_to_h3_fieldlist0s1_0B7_
FNDA:0,_RNCNCNvNtCsiFMhfKJXoB5_5lb_l78h1_proxy34collect_h1_request_to_h3_fieldlist0s2_0B7_
FNDA:0,_RNCNCNvNtCsiFMhfKJXoB5_5lb_l78h1_proxy34collect_h1_request_to_h3_fieldlist0s3_0B7_
FNDA:0,_RNCNCNvNtCsiFMhfKJXoB5_5lb_l78h1_proxy34collect_h1_request_to_h3_fieldlist0s4_0B7_
FNDA:0,_RNCNCNvNtCsiFMhfKJXoB5_5lb_l78h1_proxy34collect_h1_request_to_h3_fieldlist0s5_0B7_
FNDA:0,_RNCNCNvNtCsiFMhfKJXoB5_5lb_l78h1_proxy34collect_h1_request_to_h3_fieldlist0s6_0B7_
FNDA:0,_RNCNCNvNtCsiFMhfKJXoB5_5lb_l78h1_proxy34collect_h1_request_to_h3_fieldlist0s_0B7_
FNDA:22,_RNCNvMs6_NtCsiFMhfKJXoB5_5lb_l78h1_proxyNtB7_7H1Proxy12handle_inner0B9_
FNDA:21,_RNCNvMs6_NtCsiFMhfKJXoB5_5lb_l78h1_proxyNtB7_7H1Proxy13proxy_request0B9_
FNDA:0,_RNCNvMs6_NtCsiFMhfKJXoB5_5lb_l78h1_proxyNtB7_7H1Proxy14proxy_h1_to_h20B9_
FNDA:0,_RNCNvMs6_NtCsiFMhfKJXoB5_5lb_l78h1_proxyNtB7_7H1Proxy14proxy_h1_to_h30B9_
FNDA:0,_RNCNvMs6_NtCsiFMhfKJXoB5_5lb_l78h1_proxyNtB7_7H1Proxy17handle_ws_upgrade0B9_
FNDA:22,_RNCNvMs6_NtCsiFMhfKJXoB5_5lb_l78h1_proxyNtB7_7H1Proxy6handle0B9_
FNDA:0,_RNCNvNtCsiFMhfKJXoB5_5lb_l78h1_proxy16dial_upstream_ws0B5_
FNDA:3,_RNCNvNtCsiFMhfKJXoB5_5lb_l78h1_proxy16strip_hop_by_hop0B5_
FNDA:4,_RNCNvNtCsiFMhfKJXoB5_5lb_l78h1_proxy16strip_hop_by_hops0_0B5_
FNDA:4,_RNCNvNtCsiFMhfKJXoB5_5lb_l78h1_proxy16strip_hop_by_hops1_0B5_
FNDA:3,_RNCNvNtCsiFMhfKJXoB5_5lb_l78h1_proxy16strip_hop_by_hops_0B5_
FNDA:0,_RNCNvNtCsiFMhfKJXoB5_5lb_l78h1_proxy21run_h1_ws_splice_task0B5_
FNDA:0,_RNCNvNtCsiFMhfKJXoB5_5lb_l78h1_proxy23upstream_response_to_h10B5_
FNDA:0,_RNCNvNtCsiFMhfKJXoB5_5lb_l78h1_proxy26translate_h1_request_to_h20B5_
FNDA:8,_RNCNvNtCsiFMhfKJXoB5_5lb_l78h1_proxy28validate_h1_request_trailers0B5_
FNDA:0,_RNCNvNtCsiFMhfKJXoB5_5lb_l78h1_proxy31build_h1_response_with_trailers0B5_
FNDA:0,_RNCNvNtCsiFMhfKJXoB5_5lb_l78h1_proxy31build_h1_response_with_trailerss_0B5_
FNDA:0,_RNCNvNtCsiFMhfKJXoB5_5lb_l78h1_proxy34collect_h1_request_to_h3_fieldlist0B5_
FNDA:22,_RNCNvXs5_NtCsiFMhfKJXoB5_5lb_l78h1_proxyNtB7_12ProxyServiceINtNtNtCsgB3dp6qvXvn_5hyper7service7service7ServiceINtNtCsjFxw70quGA5_4http7request7RequestNtNtNtB12_4body8incoming8IncomingEE4call0B9_
FNDA:0,_RINvMs4_NtCsiFMhfKJXoB5_5lb_l78h1_proxyNtB6_7H1Proxy16serve_connectionpEB8_
FNDA:0,_RINvMs4_NtCsiFMhfKJXoB5_5lb_l78h1_proxyNtB6_7H1Proxy28serve_connection_with_cancelpEB8_
FNDA:0,_RINvMs4_NtCsiFMhfKJXoB5_5lb_l78h1_proxyNtB6_7H1Proxy32serve_connection_with_cancel_snipEB8_
FNDA:0,_RNCINvMs4_NtCsiFMhfKJXoB5_5lb_l78h1_proxyNtB8_7H1Proxy16serve_connectionpE0Ba_
FNDA:0,_RNCINvMs4_NtCsiFMhfKJXoB5_5lb_l78h1_proxyNtB8_7H1Proxy28serve_connection_with_cancelpE0Ba_
FNDA:0,_RNCINvMs4_NtCsiFMhfKJXoB5_5lb_l78h1_proxyNtB8_7H1Proxy32serve_connection_with_cancel_snipE0Ba_
FNDA:2,_RNvMs0_NtCsiFMhfKJXoB5_5lb_l78h1_proxyNtB5_12AltSvcConfig12header_value
FNDA:59,_RNvMs2_NtCsiFMhfKJXoB5_5lb_l78h1_proxyNtB5_15RoundRobinAddrs3new
FNDA:0,_RNvMs4_NtCsiFMhfKJXoB5_5lb_l78h1_proxyNtB5_7H1Proxy10with_hooks
FNDA:0,_RNvMs4_NtCsiFMhfKJXoB5_5lb_l78h1_proxyNtB5_7H1Proxy13with_watchdog
FNDA:0,_RNvMs4_NtCsiFMhfKJXoB5_5lb_l78h1_proxyNtB5_7H1Proxy14with_websocket
FNDA:0,_RNvMs4_NtCsiFMhfKJXoB5_5lb_l78h1_proxyNtB5_7H1Proxy15has_h2_upstream
FNDA:0,_RNvMs4_NtCsiFMhfKJXoB5_5lb_l78h1_proxyNtB5_7H1Proxy15has_h3_upstream
FNDA:0,_RNvMs4_NtCsiFMhfKJXoB5_5lb_l78h1_proxyNtB5_7H1Proxy16with_h2_upstream
FNDA:0,_RNvMs4_NtCsiFMhfKJXoB5_5lb_l78h1_proxyNtB5_7H1Proxy16with_h3_upstream
FNDA:0,_RNvMs4_NtCsiFMhfKJXoB5_5lb_l78h1_proxyNtB5_7H1Proxy16with_multi_proto
FNDA:0,_RNvMs4_NtCsiFMhfKJXoB5_5lb_l78h1_proxyNtB5_7H1Proxy17with_expected_sni
FNDA:0,_RNvMs4_NtCsiFMhfKJXoB5_5lb_l78h1_proxyNtB5_7H1Proxy19with_smuggle_strict
FNDA:0,_RNvMs4_NtCsiFMhfKJXoB5_5lb_l78h1_proxyNtB5_7H1Proxy27with_max_keepalive_requests
FNDA:0,_RNvMs4_NtCsiFMhfKJXoB5_5lb_l78h1_proxyNtB5_7H1Proxy29with_header_underscore_policy
FNDA:0,_RNvMs4_NtCsiFMhfKJXoB5_5lb_l78h1_proxyNtB5_7H1Proxy33keepalive_cap_termination_counter
FNDA:59,_RNvMs4_NtCsiFMhfKJXoB5_5lb_l78h1_proxyNtB5_7H1Proxy3new
FNDA:22,_RNvMs6_NtCsiFMhfKJXoB5_5lb_l78h1_proxyNtB5_7H1Proxy12handle_inner
FNDA:21,_RNvMs6_NtCsiFMhfKJXoB5_5lb_l78h1_proxyNtB5_7H1Proxy13proxy_request
FNDA:0,_RNvMs6_NtCsiFMhfKJXoB5_5lb_l78h1_proxyNtB5_7H1Proxy14proxy_h1_to_h2
FNDA:0,_RNvMs6_NtCsiFMhfKJXoB5_5lb_l78h1_proxyNtB5_7H1Proxy14proxy_h1_to_h3
FNDA:10,_RNvMs6_NtCsiFMhfKJXoB5_5lb_l78h1_proxyNtB5_7H1Proxy17finalize_response
FNDA:0,_RNvMs6_NtCsiFMhfKJXoB5_5lb_l78h1_proxyNtB5_7H1Proxy17handle_ws_upgrade
FNDA:22,_RNvMs6_NtCsiFMhfKJXoB5_5lb_l78h1_proxyNtB5_7H1Proxy6handle
FNDA:66,_RNvNtCsiFMhfKJXoB5_5lb_l78h1_proxy10append_via
FNDA:66,_RNvNtCsiFMhfKJXoB5_5lb_l78h1_proxy10append_xff
FNDA:12,_RNvNtCsiFMhfKJXoB5_5lb_l78h1_proxy14error_response
FNDA:0,_RNvNtCsiFMhfKJXoB5_5lb_l78h1_proxy16dial_upstream_ws
FNDA:108,_RNvNtCsiFMhfKJXoB5_5lb_l78h1_proxy16strip_hop_by_hop
FNDA:0,_RNvNtCsiFMhfKJXoB5_5lb_l78h1_proxy17h3_response_to_h1
FNDA:36320,_RNvNtCsiFMhfKJXoB5_5lb_l78h1_proxy18record_retained_h1
FNDA:0,_RNvNtCsiFMhfKJXoB5_5lb_l78h1_proxy18reject_to_response
FNDA:0,_RNvNtCsiFMhfKJXoB5_5lb_l78h1_proxy21run_h1_ws_splice_task
FNDA:0,_RNvNtCsiFMhfKJXoB5_5lb_l78h1_proxy23upstream_response_to_h1
FNDA:0,_RNvNtCsiFMhfKJXoB5_5lb_l78h1_proxy24build_body_with_trailers
FNDA:0,_RNvNtCsiFMhfKJXoB5_5lb_l78h1_proxy26translate_h1_request_to_h2
FNDA:3,_RNvNtCsiFMhfKJXoB5_5lb_l78h1_proxy28validate_h1_request_trailers
FNDA:0,_RNvNtCsiFMhfKJXoB5_5lb_l78h1_proxy31build_h1_response_with_trailers
FNDA:0,_RNvNtCsiFMhfKJXoB5_5lb_l78h1_proxy34collect_h1_request_to_h3_fieldlist
FNDA:66,_RNvNtCsiFMhfKJXoB5_5lb_l78h1_proxy7set_xfh
FNDA:66,_RNvNtCsiFMhfKJXoB5_5lb_l78h1_proxy7set_xfp
FNDA:0,_RNvXNtCsiFMhfKJXoB5_5lb_l78h1_proxyNtB2_11H1PumpAbortNtNtCs2va5m0jqTTM_4core3fmt7Display3fmt
FNDA:74,_RNvXs1_NtCsiFMhfKJXoB5_5lb_l78h1_proxyNtB5_12HttpTimeoutsNtNtCs2va5m0jqTTM_4core7default7Default7default
FNDA:66,_RNvXs3_NtCsiFMhfKJXoB5_5lb_l78h1_proxyNtB5_15RoundRobinAddrsNtB5_13BackendPicker4pick
FNDA:22,_RNvXs5_NtCsiFMhfKJXoB5_5lb_l78h1_proxyNtB5_12ProxyServiceINtNtNtCsgB3dp6qvXvn_5hyper7service7service7ServiceINtNtCsjFxw70quGA5_4http7request7RequestNtNtNtB10_4body8incoming8IncomingEE4call
FNDA:14,_RINvMs4_NtCsiFMhfKJXoB5_5lb_l78h1_proxyNtB6_7H1Proxy16serve_connectionNtNtNtNtCsfWKKmeeA0Vo_5tokio3net3tcp6stream9TcpStreamECshHpPGpX4dRt_24h1h1_md_streaming_verify
FNDA:14,_RINvMs4_NtCsiFMhfKJXoB5_5lb_l78h1_proxyNtB6_7H1Proxy28serve_connection_with_cancelNtNtNtNtCsfWKKmeeA0Vo_5tokio3net3tcp6stream9TcpStreamECshHpPGpX4dRt_24h1h1_md_streaming_verify
FNDA:14,_RINvMs4_NtCsiFMhfKJXoB5_5lb_l78h1_proxyNtB6_7H1Proxy32serve_connection_with_cancel_sniNtNtNtNtCsfWKKmeeA0Vo_5tokio3net3tcp6stream9TcpStreamECshHpPGpX4dRt_24h1h1_md_streaming_verify
FNDA:14,_RNCINvMs4_NtCsiFMhfKJXoB5_5lb_l78h1_proxyNtB8_7H1Proxy16serve_connectionNtNtNtNtCsfWKKmeeA0Vo_5tokio3net3tcp6stream9TcpStreamE0CshHpPGpX4dRt_24h1h1_md_streaming_verify
FNDA:14,_RNCINvMs4_NtCsiFMhfKJXoB5_5lb_l78h1_proxyNtB8_7H1Proxy28serve_connection_with_cancelNtNtNtNtCsfWKKmeeA0Vo_5tokio3net3tcp6stream9TcpStreamE0CshHpPGpX4dRt_24h1h1_md_streaming_verify
FNDA:14,_RNCINvMs4_NtCsiFMhfKJXoB5_5lb_l78h1_proxyNtB8_7H1Proxy32serve_connection_with_cancel_sniNtNtNtNtCsfWKKmeeA0Vo_5tokio3net3tcp6stream9TcpStreamE0CshHpPGpX4dRt_24h1h1_md_streaming_verify
FNDA:1,_RINvMs4_NtCsiFMhfKJXoB5_5lb_l78h1_proxyNtB6_7H1Proxy16serve_connectionINtNtCs7m3feRqGqA4_12tokio_rustls6server9TlsStreamNtNtNtNtCsfWKKmeeA0Vo_5tokio3net3tcp6stream9TcpStreamEECs4v7etBR30tT_12h2_proxy_e2e
FNDA:1,_RINvMs4_NtCsiFMhfKJXoB5_5lb_l78h1_proxyNtB6_7H1Proxy28serve_connection_with_cancelINtNtCs7m3feRqGqA4_12tokio_rustls6server9TlsStreamNtNtNtNtCsfWKKmeeA0Vo_5tokio3net3tcp6stream9TcpStreamEECs4v7etBR30tT_12h2_proxy_e2e
FNDA:1,_RINvMs4_NtCsiFMhfKJXoB5_5lb_l78h1_proxyNtB6_7H1Proxy32serve_connection_with_cancel_sniINtNtCs7m3feRqGqA4_12tokio_rustls6server9TlsStreamNtNtNtNtCsfWKKmeeA0Vo_5tokio3net3tcp6stream9TcpStreamEECs4v7etBR30tT_12h2_proxy_e2e
FNDA:1,_RNCINvMs4_NtCsiFMhfKJXoB5_5lb_l78h1_proxyNtB8_7H1Proxy16serve_connectionINtNtCs7m3feRqGqA4_12tokio_rustls6server9TlsStreamNtNtNtNtCsfWKKmeeA0Vo_5tokio3net3tcp6stream9TcpStreamEE0Cs4v7etBR30tT_12h2_proxy_e2e
FNDA:1,_RNCINvMs4_NtCsiFMhfKJXoB5_5lb_l78h1_proxyNtB8_7H1Proxy28serve_connection_with_cancelINtNtCs7m3feRqGqA4_12tokio_rustls6server9TlsStreamNtNtNtNtCsfWKKmeeA0Vo_5tokio3net3tcp6stream9TcpStreamEE0Cs4v7etBR30tT_12h2_proxy_e2e
FNDA:1,_RNCINvMs4_NtCsiFMhfKJXoB5_5lb_l78h1_proxyNtB8_7H1Proxy32serve_connection_with_cancel_sniINtNtCs7m3feRqGqA4_12tokio_rustls6server9TlsStreamNtNtNtNtCsfWKKmeeA0Vo_5tokio3net3tcp6stream9TcpStreamEE0Cs4v7etBR30tT_12h2_proxy_e2e
FNDA:0,_RINvMs4_NtCsiFMhfKJXoB5_5lb_l78h1_proxyNtB6_7H1Proxy16serve_connectionINtNtCs7m3feRqGqA4_12tokio_rustls6server9TlsStreamNtNtNtNtCsfWKKmeeA0Vo_5tokio3net3tcp6stream9TcpStreamEECsjqGwtXRutxH_23h2h1_md_coverage_driver
FNDA:0,_RINvMs4_NtCsiFMhfKJXoB5_5lb_l78h1_proxyNtB6_7H1Proxy28serve_connection_with_cancelINtNtCs7m3feRqGqA4_12tokio_rustls6server9TlsStreamNtNtNtNtCsfWKKmeeA0Vo_5tokio3net3tcp6stream9TcpStreamEECsjqGwtXRutxH_23h2h1_md_coverage_driver
FNDA:0,_RINvMs4_NtCsiFMhfKJXoB5_5lb_l78h1_proxyNtB6_7H1Proxy32serve_connection_with_cancel_sniINtNtCs7m3feRqGqA4_12tokio_rustls6server9TlsStreamNtNtNtNtCsfWKKmeeA0Vo_5tokio3net3tcp6stream9TcpStreamEECsjqGwtXRutxH_23h2h1_md_coverage_driver
FNDA:0,_RNCINvMs4_NtCsiFMhfKJXoB5_5lb_l78h1_proxyNtB8_7H1Proxy16serve_connectionINtNtCs7m3feRqGqA4_12tokio_rustls6server9TlsStreamNtNtNtNtCsfWKKmeeA0Vo_5tokio3net3tcp6stream9TcpStreamEE0CsjqGwtXRutxH_23h2h1_md_coverage_driver
FNDA:0,_RNCINvMs4_NtCsiFMhfKJXoB5_5lb_l78h1_proxyNtB8_7H1Proxy28serve_connection_with_cancelINtNtCs7m3feRqGqA4_12tokio_rustls6server9TlsStreamNtNtNtNtCsfWKKmeeA0Vo_5tokio3net3tcp6stream9TcpStreamEE0CsjqGwtXRutxH_23h2h1_md_coverage_driver
FNDA:0,_RNCINvMs4_NtCsiFMhfKJXoB5_5lb_l78h1_proxyNtB8_7H1Proxy32serve_connection_with_cancel_sniINtNtCs7m3feRqGqA4_12tokio_rustls6server9TlsStreamNtNtNtNtCsfWKKmeeA0Vo_5tokio3net3tcp6stream9TcpStreamEE0CsjqGwtXRutxH_23h2h1_md_coverage_driver
FNDA:0,_RINvMs4_NtCsiFMhfKJXoB5_5lb_l78h1_proxyNtB6_7H1Proxy16serve_connectionINtNtCs7m3feRqGqA4_12tokio_rustls6server9TlsStreamNtNtNtNtCsfWKKmeeA0Vo_5tokio3net3tcp6stream9TcpStreamEECsgWye6vtm8bK_24h2h1_md_streaming_verify
FNDA:0,_RINvMs4_NtCsiFMhfKJXoB5_5lb_l78h1_proxyNtB6_7H1Proxy28serve_connection_with_cancelINtNtCs7m3feRqGqA4_12tokio_rustls6server9TlsStreamNtNtNtNtCsfWKKmeeA0Vo_5tokio3net3tcp6stream9TcpStreamEECsgWye6vtm8bK_24h2h1_md_streaming_verify
FNDA:0,_RINvMs4_NtCsiFMhfKJXoB5_5lb_l78h1_proxyNtB6_7H1Proxy32serve_connection_with_cancel_sniINtNtCs7m3feRqGqA4_12tokio_rustls6server9TlsStreamNtNtNtNtCsfWKKmeeA0Vo_5tokio3net3tcp6stream9TcpStreamEECsgWye6vtm8bK_24h2h1_md_streaming_verify
FNDA:0,_RNCINvMs4_NtCsiFMhfKJXoB5_5lb_l78h1_proxyNtB8_7H1Proxy16serve_connectionINtNtCs7m3feRqGqA4_12tokio_rustls6server9TlsStreamNtNtNtNtCsfWKKmeeA0Vo_5tokio3net3tcp6stream9TcpStreamEE0CsgWye6vtm8bK_24h2h1_md_streaming_verify
FNDA:0,_RNCINvMs4_NtCsiFMhfKJXoB5_5lb_l78h1_proxyNtB8_7H1Proxy28serve_connection_with_cancelINtNtCs7m3feRqGqA4_12tokio_rustls6server9TlsStreamNtNtNtNtCsfWKKmeeA0Vo_5tokio3net3tcp6stream9TcpStreamEE0CsgWye6vtm8bK_24h2h1_md_streaming_verify
FNDA:0,_RNCINvMs4_NtCsiFMhfKJXoB5_5lb_l78h1_proxyNtB8_7H1Proxy32serve_connection_with_cancel_sniINtNtCs7m3feRqGqA4_12tokio_rustls6server9TlsStreamNtNtNtNtCsfWKKmeeA0Vo_5tokio3net3tcp6stream9TcpStreamEE0CsgWye6vtm8bK_24h2h1_md_streaming_verify
FNF:128
FNH:41
DA:124,0
DA:125,0
DA:126,0
DA:149,3
DA:151,3
DA:154,3
DA:155,3
DA:156,1
DA:157,1
DA:158,1
DA:159,1
DA:160,8
DA:162,2
DA:163,2
DA:164,2
DA:165,2
DA:166,1
DA:168,1
DA:169,3
DA:184,2
DA:185,2
DA:186,2
DA:205,74
DA:206,74
DA:207,74
DA:208,74
DA:209,74
DA:210,74
DA:211,74
DA:255,59
DA:256,59
DA:257,0
DA:258,59
DA:259,59
DA:260,59
DA:261,59
DA:262,59
DA:263,59
DA:267,66
DA:268,66
DA:269,0
DA:270,66
DA:271,66
DA:272,66
DA:273,66
DA:274,66
DA:275,66
DA:276,66
DA:277,66
DA:278,66
DA:364,59
DA:365,59
DA:366,59
DA:367,59
DA:368,59
DA:369,59
DA:370,59
DA:371,59
DA:372,59
DA:373,59
DA:374,59
DA:375,59
DA:376,59
DA:377,59
DA:378,59
DA:379,59
DA:380,59
DA:381,59
DA:382,59
DA:383,59
DA:384,59
DA:385,59
DA:386,59
DA:387,59
DA:388,59
DA:389,59
DA:390,59
DA:391,59
DA:392,59
DA:393,59
DA:408,0
DA:409,0
DA:410,0
DA:411,0
DA:412,0
DA:413,0
DA:414,0
DA:415,0
DA:416,0
DA:417,0
DA:418,0
DA:419,0
DA:420,0
DA:421,0
DA:422,0
DA:423,0
DA:424,0
DA:425,0
DA:426,0
DA:427,0
DA:428,0
DA:429,0
DA:430,0
DA:431,0
DA:432,0
DA:433,0
DA:434,0
DA:435,0
DA:436,0
DA:445,0
DA:446,0
DA:447,0
DA:448,0
DA:460,0
DA:461,0
DA:462,0
DA:463,0
DA:470,0
DA:471,0
DA:472,0
DA:473,0
DA:481,0
DA:482,0
DA:483,0
DA:484,0
DA:493,0
DA:494,0
DA:495,0
DA:496,0
DA:501,0
DA:502,0
DA:503,0
DA:504,0
DA:509,0
DA:510,0
DA:511,0
DA:512,0
DA:518,0
DA:519,0
DA:520,0
DA:525,0
DA:526,0
DA:527,0
DA:534,0
DA:535,0
DA:536,0
DA:537,0
DA:544,0
DA:545,0
DA:546,0
DA:553,0
DA:554,0
DA:555,0
DA:556,0
DA:571,22
DA:572,22
DA:573,22
DA:574,22
DA:575,22
DA:576,22
DA:577,22
DA:578,22
DA:579,22
DA:580,11
DA:606,22
DA:607,22
DA:608,22
DA:609,22
DA:610,22
DA:611,22
DA:612,22
DA:613,22
DA:614,22
DA:615,22
DA:616,22
DA:617,22
DA:618,22
DA:619,22
DA:620,22
DA:621,22
DA:622,11
DA:637,22
DA:638,22
DA:639,22
DA:640,22
DA:641,22
DA:642,22
DA:643,22
DA:644,22
DA:645,22
DA:646,22
DA:647,22
DA:648,22
DA:649,22
DA:650,22
DA:651,22
DA:652,22
DA:653,22
DA:654,22
DA:655,22
DA:656,22
DA:657,22
DA:658,22
DA:659,22
DA:660,22
DA:661,22
DA:662,22
DA:663,22
DA:664,22
DA:665,22
DA:666,22
DA:667,22
DA:668,22
DA:669,22
DA:670,22
DA:671,22
DA:672,22
DA:673,22
DA:674,22
DA:675,22
DA:676,22
DA:677,22
DA:678,22
DA:679,22
DA:683,22
DA:694,0
DA:695,0
DA:696,0
DA:697,0
DA:698,0
DA:699,0
DA:700,0
DA:701,0
DA:704,22
DA:705,11
DA:706,0
DA:708,22
DA:709,0
DA:710,0
DA:711,0
DA:720,22
DA:721,0
DA:722,0
DA:723,0
DA:724,0
DA:725,0
DA:726,0
DA:727,0
DA:728,0
DA:729,0
DA:730,0
DA:734,11
DA:768,22
DA:769,22
DA:770,22
DA:771,22
DA:772,22
DA:773,22
DA:774,22
DA:775,22
DA:776,22
DA:777,22
DA:778,22
DA:779,22
DA:780,22
DA:781,22
DA:782,22
DA:783,22
DA:784,22
DA:785,22
DA:792,0
DA:793,0
DA:794,0
DA:795,0
DA:796,0
DA:797,0
DA:798,22
DA:799,22
DA:800,22
DA:801,22
DA:819,22
DA:820,22
DA:821,22
DA:822,22
DA:823,22
DA:824,22
DA:829,22
DA:830,22
DA:831,22
DA:832,22
DA:833,22
DA:834,22
DA:835,22
DA:836,22
DA:837,22
DA:838,22
DA:839,22
DA:840,22
DA:841,22
DA:842,22
DA:843,22
DA:844,22
DA:847,22
DA:848,22
DA:849,22
DA:851,22
DA:852,22
DA:853,22
DA:854,22
DA:855,22
DA:856,22
DA:857,22
DA:870,22
DA:871,0
DA:875,0
DA:877,0
DA:878,22
DA:879,22
DA:880,22
DA:881,22
DA:882,22
DA:883,22
DA:884,22
DA:885,22
DA:886,22
DA:887,22
DA:888,22
DA:889,22
DA:890,22
DA:891,22
DA:892,22
DA:893,22
DA:894,22
DA:895,22
DA:896,22
DA:897,22
DA:898,0
DA:899,0
DA:900,0
DA:901,0
DA:902,0
DA:903,0
DA:904,0
DA:905,22
DA:907,0
DA:908,0
DA:909,0
DA:910,0
DA:911,22
DA:912,22
DA:913,22
DA:914,22
DA:915,22
DA:916,22
DA:917,22
DA:918,22
DA:919,22
DA:921,0
DA:922,22
DA:923,22
DA:924,22
DA:937,22
DA:938,0
DA:940,22
DA:942,22
DA:944,22
DA:945,22
DA:946,22
DA:947,49
DA:949,0
DA:950,0
DA:951,0
DA:952,0
DA:953,22
DA:956,0
DA:957,0
DA:958,0
DA:959,0
DA:960,0
DA:961,0
DA:963,0
DA:965,0
DA:966,0
DA:967,0
DA:968,0
DA:969,0
DA:971,0
DA:979,22
DA:980,22
DA:981,22
DA:982,22
DA:983,22
DA:984,71
DA:985,49
DA:986,49
DA:987,22
DA:989,22
DA:990,0
DA:991,22
DA:992,22
DA:993,22
DA:994,22
DA:995,22
DA:996,22
DA:997,22
DA:998,22
DA:999,22
DA:1000,22
DA:1001,22
DA:1002,22
DA:1003,22
DA:1004,22
DA:1005,22
DA:1006,22
DA:1007,22
DA:1008,22
DA:1009,22
DA:1010,22
DA:1011,0
DA:1012,0
DA:1013,0
DA:1014,0
DA:1015,0
DA:1016,0
DA:1017,0
DA:1019,0
DA:1023,0
DA:1025,0
DA:1026,0
DA:1027,0
DA:1028,22
DA:1038,22
DA:1039,22
DA:1040,22
DA:1041,49
DA:1042,49
DA:1043,49
DA:1044,49
DA:1045,49
DA:1046,22
DA:1047,22
DA:1048,0
DA:1050,22
DA:1052,22
DA:1053,1
DA:1054,1
DA:1055,21
DA:1056,21
DA:1057,21
DA:1058,21
DA:1059,21
DA:1060,21
DA:1061,21
DA:1062,21
DA:1063,0
DA:1064,0
DA:1065,0
DA:1066,0
DA:1067,0
DA:1068,0
DA:1069,0
DA:1070,0
DA:1071,0
DA:1072,0
DA:1073,0
DA:1074,0
DA:1075,0
DA:1076,0
DA:1077,0
DA:1078,0
DA:1079,0
DA:1080,0
DA:1081,0
DA:1082,0
DA:1083,0
DA:1084,21
DA:1085,21
DA:1086,21
DA:1087,21
DA:1088,21
DA:1089,21
DA:1090,21
DA:1091,21
DA:1092,21
DA:1093,21
DA:1094,21
DA:1095,21
DA:1096,21
DA:1097,21
DA:1098,21
DA:1099,21
DA:1100,21
DA:1101,21
DA:1102,21
DA:1103,21
DA:1104,21
DA:1105,21
DA:1106,21
DA:1107,21
DA:1110,21
DA:1111,0
DA:1114,21
DA:1115,21
DA:1116,10
DA:1117,2
DA:1119,1
DA:1124,4
DA:1126,4
DA:1127,4
DA:1128,4
DA:1129,4
DA:1131,0
DA:1132,0
DA:1137,21
DA:1138,0
DA:1139,21
DA:1140,21
DA:1141,22
DA:1173,21
DA:1174,21
DA:1175,21
DA:1176,21
DA:1177,21
DA:1180,21
DA:1181,21
DA:1182,21
DA:1183,21
DA:1184,21
DA:1185,21
DA:1186,21
DA:1187,21
DA:1188,21
DA:1189,21
DA:1190,21
DA:1191,21
DA:1192,21
DA:1193,21
DA:1194,21
DA:1195,21
DA:1196,21
DA:1197,21
DA:1208,21
DA:1209,21
DA:1210,21
DA:1211,21
DA:1212,21
DA:1219,21
DA:1220,21
DA:1221,21
DA:1228,21
DA:1229,21
DA:1230,21
DA:1231,21
DA:1232,21
DA:1233,21
DA:1235,21
DA:1236,21
DA:1237,21
DA:1238,21
DA:1239,21
DA:1240,21
DA:1241,21
DA:1242,21
DA:1243,21
DA:1244,21
DA:1245,21
DA:1246,21
DA:1247,21
DA:1248,21
DA:1249,21
DA:1250,21
DA:1251,21
DA:1252,21
DA:1253,21
DA:1254,21
DA:1255,21
DA:1256,21
DA:1257,21
DA:1258,21
DA:1259,21
DA:1260,21
DA:1261,21
DA:1262,21
DA:1263,21
DA:1264,21
DA:1265,43898
DA:1266,43898
DA:1267,36318
DA:1268,36311
DA:1269,36310
DA:1270,36310
DA:1271,7587
DA:1272,43898
DA:1273,43898
DA:1274,21
DA:1275,21
DA:1276,21
DA:1277,21
DA:1278,21
DA:1279,21
DA:1280,21
DA:1281,21
DA:1282,21
DA:1283,21
DA:1284,21
DA:1285,21
DA:1373,9551
DA:1407,12
DA:1408,12
DA:1410,9537
DA:1411,9537
DA:1416,3
DA:1417,3
DA:1418,3
DA:1419,3
DA:1425,1
DA:1426,1
DA:1427,1
DA:1429,2
DA:1430,2
DA:1431,2
DA:1432,2
DA:1433,2
DA:1434,2
DA:1435,2
DA:1436,2
DA:1437,2
DA:1438,2
DA:1441,9534
DA:1442,9534
DA:1443,9534
DA:1444,9534
DA:1451,3
DA:1452,3
DA:1453,3
DA:1454,9531
DA:1455,9531
DA:1459,217
DA:1460,1
DA:1461,9530
DA:1462,0
DA:1464,2
DA:1465,2
DA:1466,2
DA:1467,2
DA:1468,2
DA:1469,2
DA:1470,2
DA:1471,2
DA:1472,2
DA:1473,2
DA:1474,2
DA:1475,2
DA:1476,2
DA:1477,2
DA:1478,2
DA:1479,2
DA:1480,2
DA:1481,2
DA:1485,21
DA:1486,21
DA:1487,21
DA:1488,21
DA:1489,21
DA:1490,21
DA:1491,21
DA:1492,11
DA:1493,9
DA:1506,9
DA:1507,7
DA:1508,7
DA:1513,2
DA:1515,9
DA:1516,9
DA:1517,9
DA:1518,9
DA:1519,9
DA:1522,1
DA:1523,1
DA:1524,1
DA:1530,11
DA:1534,10
DA:1535,10
DA:1537,1
DA:1538,1
DA:1539,1
DA:1540,1
DA:1541,1
DA:1542,1
DA:1543,1
DA:1548,0
DA:1549,0
DA:1550,0
DA:1551,0
DA:1554,21
DA:1563,0
DA:1564,0
DA:1565,0
DA:1566,0
DA:1567,0
DA:1568,0
DA:1569,0
DA:1570,0
DA:1571,0
DA:1572,0
DA:1574,0
DA:1575,0
DA:1576,0
DA:1578,0
DA:1579,0
DA:1581,0
DA:1583,0
DA:1585,0
DA:1592,0
DA:1593,0
DA:1594,0
DA:1595,0
DA:1596,0
DA:1597,0
DA:1598,0
DA:1599,0
DA:1600,0
DA:1601,0
DA:1603,0
DA:1604,0
DA:1605,0
DA:1606,0
DA:1607,0
DA:1608,0
DA:1610,0
DA:1611,0
DA:1612,0
DA:1613,0
DA:1614,0
DA:1615,0
DA:1616,0
DA:1617,0
DA:1618,0
DA:1619,0
DA:1620,0
DA:1658,0
DA:1659,0
DA:1660,0
DA:1661,0
DA:1662,0
DA:1663,0
DA:1664,0
DA:1666,0
DA:1667,0
DA:1669,0
DA:1670,0
DA:1674,0
DA:1675,0
DA:1676,0
DA:1677,0
DA:1678,0
DA:1679,0
DA:1680,0
DA:1681,0
DA:1682,0
DA:1683,0
DA:1684,0
DA:1685,0
DA:1686,0
DA:1687,0
DA:1688,0
DA:1689,0
DA:1690,0
DA:1691,0
DA:1692,0
DA:1693,0
DA:1694,0
DA:1695,0
DA:1696,0
DA:1697,0
DA:1698,0
DA:1699,0
DA:1700,0
DA:1701,0
DA:1702,0
DA:1703,0
DA:1704,0
DA:1705,0
DA:1706,0
DA:1707,0
DA:1708,0
DA:1709,0
DA:1710,0
DA:1711,0
DA:1712,0
DA:1713,0
DA:1714,0
DA:1715,0
DA:1718,0
DA:1719,0
DA:1720,0
DA:1721,0
DA:1722,0
DA:1728,0
DA:1729,0
DA:1730,0
DA:1731,0
DA:1733,0
DA:1734,0
DA:1735,0
DA:1736,0
DA:1737,0
DA:1738,0
DA:1746,0
DA:1747,0
DA:1748,0
DA:1749,0
DA:1750,0
DA:1751,0
DA:1752,0
DA:1753,0
DA:1754,0
DA:1755,0
DA:1756,0
DA:1757,0
DA:1758,0
DA:1759,0
DA:1760,0
DA:1761,0
DA:1762,0
DA:1763,0
DA:1764,0
DA:1765,0
DA:1766,0
DA:1767,0
DA:1768,0
DA:1769,0
DA:1770,0
DA:1771,0
DA:1772,0
DA:1773,0
DA:1774,0
DA:1775,0
DA:1776,0
DA:1778,10
DA:1779,10
DA:1780,10
DA:1781,10
DA:1782,10
DA:1783,10
DA:1784,10
DA:1787,1
DA:1788,1
DA:1789,1
DA:1790,9
DA:1791,10
DA:1792,10
DA:1820,0
DA:1821,0
DA:1822,0
DA:1823,0
DA:1824,0
DA:1825,0
DA:1826,0
DA:1827,0
DA:1828,0
DA:1832,0
DA:1833,0
DA:1834,0
DA:1835,0
DA:1836,0
DA:1837,0
DA:1838,0
DA:1840,0
DA:1841,0
DA:1842,0
DA:1843,0
DA:1844,0
DA:1845,0
DA:1846,0
DA:1847,0
DA:1848,0
DA:1849,0
DA:1851,0
DA:1855,0
DA:1856,0
DA:1857,0
DA:1858,0
DA:1859,0
DA:1860,0
DA:1861,0
DA:1863,0
DA:1864,0
DA:1865,0
DA:1866,0
DA:1867,0
DA:1868,0
DA:1869,0
DA:1870,0
DA:1871,0
DA:1872,0
DA:1879,0
DA:1880,0
DA:1881,0
DA:1882,0
DA:1883,0
DA:1884,0
DA:1885,0
DA:1886,0
DA:1887,0
DA:1888,0
DA:1889,0
DA:1890,0
DA:1893,0
DA:1894,0
DA:1895,0
DA:1896,0
DA:1897,0
DA:1898,0
DA:1900,12
DA:1901,12
DA:1902,12
DA:1903,12
DA:1904,12
DA:1905,12
DA:1906,12
DA:1907,12
DA:1924,0
DA:1925,0
DA:1926,0
DA:1927,0
DA:1929,0
DA:1930,0
DA:1931,0
DA:1932,0
DA:1935,0
DA:1944,108
DA:1945,108
DA:1946,108
DA:1947,108
DA:1948,108
DA:1949,108
DA:1950,108
DA:1951,108
DA:1952,108
DA:1953,108
DA:1954,108
DA:1955,108
DA:1957,864
DA:1958,864
DA:1959,864
DA:1960,864
DA:1961,112
DA:1962,4
DA:1963,4
DA:1964,108
DA:1978,66
DA:1979,66
DA:1980,66
DA:1981,66
DA:1982,0
DA:1983,0
DA:1984,0
DA:1985,0
DA:1986,0
DA:1987,0
DA:1989,66
DA:1990,0
DA:1991,66
DA:1992,66
DA:1993,66
DA:1994,66
DA:1995,66
DA:1996,66
DA:1999,66
DA:2000,66
DA:2001,66
DA:2002,66
DA:2003,66
DA:2004,66
DA:2007,66
DA:2008,66
DA:2009,66
DA:2010,66
DA:2011,66
DA:2018,66
DA:2020,66
DA:2021,66
DA:2022,0
DA:2023,0
DA:2024,0
DA:2025,0
DA:2026,0
DA:2027,0
DA:2029,66
DA:2030,0
DA:2031,66
DA:2032,66
DA:2033,66
DA:2034,66
DA:2035,66
DA:2036,66
DA:2052,0
DA:2053,0
DA:2054,0
DA:2055,0
DA:2058,0
DA:2059,0
DA:2060,0
DA:2061,0
DA:2062,0
DA:2063,0
DA:2064,0
DA:2065,0
DA:2066,0
DA:2067,0
DA:2068,0
DA:2069,0
DA:2070,0
DA:2071,0
DA:2072,0
DA:2073,0
DA:2074,0
DA:2075,0
DA:2076,0
DA:2077,0
DA:2078,0
DA:2079,0
DA:2080,0
DA:2081,0
DA:2082,0
DA:2083,0
DA:2084,0
DA:2085,0
DA:2086,0
DA:2087,0
DA:2088,0
DA:2089,0
DA:2090,0
DA:2091,0
DA:2092,0
DA:2093,0
DA:2094,0
DA:2095,0
DA:2096,0
DA:2097,0
DA:2098,0
DA:2101,0
DA:2102,0
DA:2103,0
DA:2104,0
DA:2105,0
DA:2106,0
DA:2107,0
DA:2108,0
DA:2109,0
DA:2110,0
DA:2111,0
DA:2112,0
DA:2113,0
DA:2114,0
DA:2115,0
DA:2118,0
DA:2119,0
DA:2120,0
DA:2121,0
DA:2122,0
DA:2131,0
DA:2132,0
DA:2133,0
DA:2134,0
DA:2135,0
DA:2136,0
DA:2144,0
DA:2145,0
DA:2146,0
DA:2147,0
DA:2152,0
DA:2153,0
DA:2154,0
DA:2155,0
DA:2156,0
DA:2157,0
DA:2158,0
DA:2159,0
DA:2160,0
DA:2161,0
DA:2162,0
DA:2163,0
DA:2164,0
DA:2166,0
DA:2167,0
DA:2169,0
DA:2171,0
DA:2172,0
DA:2176,0
DA:2177,0
DA:2178,0
DA:2179,0
DA:2180,0
DA:2182,0
DA:2183,0
DA:2184,0
DA:2185,0
DA:2188,0
DA:2189,0
DA:2190,0
DA:2191,0
DA:2192,0
DA:2193,0
DA:2194,0
DA:2195,0
DA:2196,0
DA:2197,0
DA:2198,0
DA:2199,0
DA:2200,0
DA:2201,0
DA:2202,0
DA:2203,0
DA:2204,0
DA:2205,0
DA:2206,0
DA:2207,0
DA:2208,0
DA:2209,0
DA:2210,0
DA:2211,0
DA:2212,0
DA:2213,0
DA:2214,0
DA:2215,0
DA:2216,0
DA:2217,0
DA:2218,0
DA:2219,0
DA:2220,0
DA:2221,0
DA:2222,0
DA:2223,0
DA:2226,0
DA:2227,0
DA:2244,0
DA:2245,0
DA:2246,0
DA:2247,0
DA:2248,0
DA:2249,0
DA:2250,0
DA:2251,0
DA:2252,0
DA:2253,0
DA:2254,0
DA:2255,0
DA:2256,0
DA:2257,0
DA:2258,0
DA:2259,0
DA:2260,0
DA:2261,0
DA:2262,0
DA:2263,0
DA:2264,0
DA:2265,0
DA:2266,0
DA:2268,0
DA:2269,0
DA:2270,0
DA:2272,0
DA:2277,0
DA:2278,0
DA:2279,0
DA:2280,0
DA:2281,0
DA:2282,0
DA:2283,0
DA:2284,0
DA:2285,0
DA:2286,0
DA:2287,0
DA:2288,0
DA:2289,0
DA:2290,0
DA:2291,0
DA:2292,0
DA:2293,0
DA:2294,0
DA:2295,0
DA:2300,0
DA:2301,0
DA:2302,0
DA:2303,0
DA:2304,0
DA:2305,0
DA:2306,0
DA:2307,0
DA:2317,0
DA:2318,0
DA:2319,0
DA:2320,0
DA:2321,0
DA:2322,0
DA:2324,0
DA:2325,0
DA:2326,0
DA:2327,0
DA:2328,0
DA:2329,0
DA:2330,0
DA:2331,0
DA:2332,0
DA:2333,0
DA:2334,0
DA:2335,0
DA:2336,0
DA:2337,0
DA:2338,0
DA:2339,0
DA:2340,0
DA:2341,0
DA:2342,0
DA:2343,0
DA:2344,0
DA:2345,0
DA:2346,0
DA:2347,0
DA:2348,0
DA:2349,0
DA:2350,0
DA:2351,0
DA:2352,0
DA:2353,0
DA:2354,0
DA:2355,0
DA:2356,0
DA:2357,0
DA:2358,0
DA:2359,0
DA:2360,0
DA:2361,0
DA:2362,0
DA:2363,0
DA:2364,0
DA:2365,0
DA:2366,0
DA:2367,0
DA:2368,0
DA:2369,0
DA:2370,0
DA:2371,0
DA:2372,0
DA:2373,0
DA:2374,0
DA:2375,0
DA:2376,0
DA:2378,0
DA:2379,0
DA:2380,0
DA:2381,0
DA:2382,0
DA:2383,0
DA:2384,0
DA:2385,0
DA:2386,0
DA:2387,0
DA:2388,0
DA:2389,0
DA:2393,0
DA:2394,0
DA:2395,0
DA:2396,0
DA:2397,0
DA:2398,0
DA:2399,0
DA:2400,0
DA:2401,0
DA:2402,0
DA:2403,0
DA:2404,0
DA:2405,0
DA:2406,0
DA:2407,0
DA:2408,0
DA:2409,0
DA:2410,0
DA:2411,0
DA:2412,0
DA:2413,0
DA:2414,0
DA:2415,0
DA:2423,0
DA:2424,0
DA:2456,36320
DA:2458,36320
DA:2459,36320
DA:2460,53
DA:2461,53
DA:2462,53
DA:2463,53
DA:2464,53
DA:2465,53
DA:2466,53
DA:2467,0
DA:2470,36320
BRF:0
BRH:0
LF:1399
LH:620
end_of_record
SF:/home/ubuntu/Code/s9-verifier/crates/lb-l7/src/h1_to_h1.rs
FN:27,_RNCNCNvNtCsiFMhfKJXoB5_5lb_l78h1_to_h124connection_named_headerss_00B7_
FN:28,_RNCNCNvNtCsiFMhfKJXoB5_5lb_l78h1_to_h124connection_named_headerss_0s_0B7_
FN:60,_RNCNCNvXNtCsiFMhfKJXoB5_5lb_l78h1_to_h1NtB6_12H1ToH1BridgeNtB8_6Bridge14bridge_request00B8_
FN:63,_RNCNCNvXNtCsiFMhfKJXoB5_5lb_l78h1_to_h1NtB6_12H1ToH1BridgeNtB8_6Bridge14bridge_request0s_0B8_
FN:98,_RNCNCNvXNtCsiFMhfKJXoB5_5lb_l78h1_to_h1NtB6_12H1ToH1BridgeNtB8_6Bridge15bridge_response00B8_
FN:101,_RNCNCNvXNtCsiFMhfKJXoB5_5lb_l78h1_to_h1NtB6_12H1ToH1BridgeNtB8_6Bridge15bridge_response0s_0B8_
FN:24,_RNCNvNtCsiFMhfKJXoB5_5lb_l78h1_to_h124connection_named_headers0B5_
FN:25,_RNCNvNtCsiFMhfKJXoB5_5lb_l78h1_to_h124connection_named_headerss_0B5_
FN:50,_RNCNvXNtCsiFMhfKJXoB5_5lb_l78h1_to_h1NtB4_12H1ToH1BridgeNtB6_6Bridge14bridge_request0B6_
FN:96,_RNCNvXNtCsiFMhfKJXoB5_5lb_l78h1_to_h1NtB4_12H1ToH1BridgeNtB6_6Bridge15bridge_response0B6_
FN:34,_RNvNtCsiFMhfKJXoB5_5lb_l78h1_to_h114is_te_trailers
FN:21,_RNvNtCsiFMhfKJXoB5_5lb_l78h1_to_h124connection_named_headers
FN:123,_RNvXNtCsiFMhfKJXoB5_5lb_l78h1_to_h1NtB2_12H1ToH1BridgeNtB4_6Bridge13dest_protocol
FN:42,_RNvXNtCsiFMhfKJXoB5_5lb_l78h1_to_h1NtB2_12H1ToH1BridgeNtB4_6Bridge14bridge_request
FN:85,_RNvXNtCsiFMhfKJXoB5_5lb_l78h1_to_h1NtB2_12H1ToH1BridgeNtB4_6Bridge15bridge_response
FN:119,_RNvXNtCsiFMhfKJXoB5_5lb_l78h1_to_h1NtB2_12H1ToH1BridgeNtB4_6Bridge15source_protocol
FNDA:0,_RNCNCNvNtCsiFMhfKJXoB5_5lb_l78h1_to_h124connection_named_headerss_00B7_
FNDA:0,_RNCNCNvNtCsiFMhfKJXoB5_5lb_l78h1_to_h124connection_named_headerss_0s_0B7_
FNDA:0,_RNCNCNvXNtCsiFMhfKJXoB5_5lb_l78h1_to_h1NtB6_12H1ToH1BridgeNtB8_6Bridge14bridge_request00B8_
FNDA:0,_RNCNCNvXNtCsiFMhfKJXoB5_5lb_l78h1_to_h1NtB6_12H1ToH1BridgeNtB8_6Bridge14bridge_request0s_0B8_
FNDA:0,_RNCNCNvXNtCsiFMhfKJXoB5_5lb_l78h1_to_h1NtB6_12H1ToH1BridgeNtB8_6Bridge15bridge_response00B8_
FNDA:0,_RNCNCNvXNtCsiFMhfKJXoB5_5lb_l78h1_to_h1NtB6_12H1ToH1BridgeNtB8_6Bridge15bridge_response0s_0B8_
FNDA:0,_RNCNvNtCsiFMhfKJXoB5_5lb_l78h1_to_h124connection_named_headers0B5_
FNDA:0,_RNCNvNtCsiFMhfKJXoB5_5lb_l78h1_to_h124connection_named_headerss_0B5_
FNDA:0,_RNCNvXNtCsiFMhfKJXoB5_5lb_l78h1_to_h1NtB4_12H1ToH1BridgeNtB6_6Bridge14bridge_request0B6_
FNDA:0,_RNCNvXNtCsiFMhfKJXoB5_5lb_l78h1_to_h1NtB4_12H1ToH1BridgeNtB6_6Bridge15bridge_response0B6_
FNDA:0,_RNvNtCsiFMhfKJXoB5_5lb_l78h1_to_h114is_te_trailers
FNDA:0,_RNvNtCsiFMhfKJXoB5_5lb_l78h1_to_h124connection_named_headers
FNDA:0,_RNvXNtCsiFMhfKJXoB5_5lb_l78h1_to_h1NtB2_12H1ToH1BridgeNtB4_6Bridge13dest_protocol
FNDA:0,_RNvXNtCsiFMhfKJXoB5_5lb_l78h1_to_h1NtB2_12H1ToH1BridgeNtB4_6Bridge14bridge_request
FNDA:0,_RNvXNtCsiFMhfKJXoB5_5lb_l78h1_to_h1NtB2_12H1ToH1BridgeNtB4_6Bridge15bridge_response
FNDA:0,_RNvXNtCsiFMhfKJXoB5_5lb_l78h1_to_h1NtB2_12H1ToH1BridgeNtB4_6Bridge15source_protocol
FNF:16
FNH:0
DA:21,0
DA:22,0
DA:23,0
DA:24,0
DA:25,0
DA:26,0
DA:27,0
DA:28,0
DA:29,0
DA:30,0
DA:31,0
DA:34,0
DA:35,0
DA:36,0
DA:42,0
DA:43,0
DA:45,0
DA:46,0
DA:47,0
DA:48,0
DA:49,0
DA:50,0
DA:51,0
DA:52,0
DA:53,0
DA:54,0
DA:55,0
DA:57,0
DA:59,0
DA:60,0
DA:61,0
DA:62,0
DA:63,0
DA:64,0
DA:65,0
DA:66,0
DA:67,0
DA:68,0
DA:69,0
DA:70,0
DA:72,0
DA:73,0
DA:74,0
DA:75,0
DA:76,0
DA:77,0
DA:78,0
DA:79,0
DA:80,0
DA:81,0
DA:82,0
DA:83,0
DA:85,0
DA:86,0
DA:88,0
DA:89,0
DA:90,0
DA:91,0
DA:92,0
DA:93,0
DA:94,0
DA:95,0
DA:96,0
DA:97,0
DA:98,0
DA:99,0
DA:100,0
DA:101,0
DA:102,0
DA:103,0
DA:104,0
DA:105,0
DA:106,0
DA:107,0
DA:108,0
DA:110,0
DA:111,0
DA:112,0
DA:113,0
DA:114,0
DA:115,0
DA:116,0
DA:117,0
DA:119,0
DA:120,0
DA:121,0
DA:123,0
DA:124,0
DA:125,0
BRF:0
BRH:0
LF:102
LH:0
end_of_record
SF:/home/ubuntu/Code/s9-verifier/crates/lb-l7/src/h1_to_h2.rs
FN:27,_RNCNCNvNtCsiFMhfKJXoB5_5lb_l78h1_to_h224connection_named_headerss_00B7_
FN:28,_RNCNCNvNtCsiFMhfKJXoB5_5lb_l78h1_to_h224connection_named_headerss_0s_0B7_
FN:109,_RNCNCNvXNtCsiFMhfKJXoB5_5lb_l78h1_to_h2NtB6_12H1ToH2BridgeNtB8_6Bridge15bridge_response00B8_
FN:112,_RNCNCNvXNtCsiFMhfKJXoB5_5lb_l78h1_to_h2NtB6_12H1ToH2BridgeNtB8_6Bridge15bridge_response0s_0B8_
FN:24,_RNCNvNtCsiFMhfKJXoB5_5lb_l78h1_to_h224connection_named_headers0B5_
FN:25,_RNCNvNtCsiFMhfKJXoB5_5lb_l78h1_to_h224connection_named_headerss_0B5_
FN:49,_RNCNvXNtCsiFMhfKJXoB5_5lb_l78h1_to_h2NtB4_12H1ToH2BridgeNtB6_6Bridge14bridge_request0B6_
FN:76,_RNCNvXNtCsiFMhfKJXoB5_5lb_l78h1_to_h2NtB4_12H1ToH2BridgeNtB6_6Bridge14bridge_requests0_0B6_
FN:79,_RNCNvXNtCsiFMhfKJXoB5_5lb_l78h1_to_h2NtB4_12H1ToH2BridgeNtB6_6Bridge14bridge_requests1_0B6_
FN:50,_RNCNvXNtCsiFMhfKJXoB5_5lb_l78h1_to_h2NtB4_12H1ToH2BridgeNtB6_6Bridge14bridge_requests_0B6_
FN:107,_RNCNvXNtCsiFMhfKJXoB5_5lb_l78h1_to_h2NtB4_12H1ToH2BridgeNtB6_6Bridge15bridge_response0B6_
FN:117,_RNCNvXNtCsiFMhfKJXoB5_5lb_l78h1_to_h2NtB4_12H1ToH2BridgeNtB6_6Bridge15bridge_responses_0B6_
FN:21,_RNvNtCsiFMhfKJXoB5_5lb_l78h1_to_h224connection_named_headers
FN:135,_RNvXNtCsiFMhfKJXoB5_5lb_l78h1_to_h2NtB2_12H1ToH2BridgeNtB4_6Bridge13dest_protocol
FN:37,_RNvXNtCsiFMhfKJXoB5_5lb_l78h1_to_h2NtB2_12H1ToH2BridgeNtB4_6Bridge14bridge_request
FN:99,_RNvXNtCsiFMhfKJXoB5_5lb_l78h1_to_h2NtB2_12H1ToH2BridgeNtB4_6Bridge15bridge_response
FN:131,_RNvXNtCsiFMhfKJXoB5_5lb_l78h1_to_h2NtB2_12H1ToH2BridgeNtB4_6Bridge15source_protocol
FNDA:0,_RNCNCNvNtCsiFMhfKJXoB5_5lb_l78h1_to_h224connection_named_headerss_00B7_
FNDA:0,_RNCNCNvNtCsiFMhfKJXoB5_5lb_l78h1_to_h224connection_named_headerss_0s_0B7_
FNDA:0,_RNCNCNvXNtCsiFMhfKJXoB5_5lb_l78h1_to_h2NtB6_12H1ToH2BridgeNtB8_6Bridge15bridge_response00B8_
FNDA:0,_RNCNCNvXNtCsiFMhfKJXoB5_5lb_l78h1_to_h2NtB6_12H1ToH2BridgeNtB8_6Bridge15bridge_response0s_0B8_
FNDA:0,_RNCNvNtCsiFMhfKJXoB5_5lb_l78h1_to_h224connection_named_headers0B5_
FNDA:0,_RNCNvNtCsiFMhfKJXoB5_5lb_l78h1_to_h224connection_named_headerss_0B5_
FNDA:0,_RNCNvXNtCsiFMhfKJXoB5_5lb_l78h1_to_h2NtB4_12H1ToH2BridgeNtB6_6Bridge14bridge_request0B6_
FNDA:0,_RNCNvXNtCsiFMhfKJXoB5_5lb_l78h1_to_h2NtB4_12H1ToH2BridgeNtB6_6Bridge14bridge_requests0_0B6_
FNDA:0,_RNCNvXNtCsiFMhfKJXoB5_5lb_l78h1_to_h2NtB4_12H1ToH2BridgeNtB6_6Bridge14bridge_requests1_0B6_
FNDA:0,_RNCNvXNtCsiFMhfKJXoB5_5lb_l78h1_to_h2NtB4_12H1ToH2BridgeNtB6_6Bridge14bridge_requests_0B6_
FNDA:0,_RNCNvXNtCsiFMhfKJXoB5_5lb_l78h1_to_h2NtB4_12H1ToH2BridgeNtB6_6Bridge15bridge_response0B6_
FNDA:0,_RNCNvXNtCsiFMhfKJXoB5_5lb_l78h1_to_h2NtB4_12H1ToH2BridgeNtB6_6Bridge15bridge_responses_0B6_
FNDA:0,_RNvNtCsiFMhfKJXoB5_5lb_l78h1_to_h224connection_named_headers
FNDA:0,_RNvXNtCsiFMhfKJXoB5_5lb_l78h1_to_h2NtB2_12H1ToH2BridgeNtB4_6Bridge13dest_protocol
FNDA:0,_RNvXNtCsiFMhfKJXoB5_5lb_l78h1_to_h2NtB2_12H1ToH2BridgeNtB4_6Bridge14bridge_request
FNDA:0,_RNvXNtCsiFMhfKJXoB5_5lb_l78h1_to_h2NtB2_12H1ToH2BridgeNtB4_6Bridge15bridge_response
FNDA:0,_RNvXNtCsiFMhfKJXoB5_5lb_l78h1_to_h2NtB2_12H1ToH2BridgeNtB4_6Bridge15source_protocol
FNF:17
FNH:0
DA:21,0
DA:22,0
DA:23,0
DA:24,0
DA:25,0
DA:26,0
DA:27,0
DA:28,0
DA:29,0
DA:30,0
DA:31,0
DA:37,0
DA:38,0
DA:40,0
DA:41,0
DA:42,0
DA:43,0
DA:44,0
DA:45,0
DA:46,0
DA:47,0
DA:48,0
DA:49,0
DA:50,0
DA:51,0
DA:52,0
DA:53,0
DA:54,0
DA:55,0
DA:56,0
DA:58,0
DA:59,0
DA:60,0
DA:64,0
DA:65,0
DA:66,0
DA:67,0
DA:68,0
DA:69,0
DA:70,0
DA:71,0
DA:72,0
DA:73,0
DA:74,0
DA:75,0
DA:76,0
DA:77,0
DA:78,0
DA:79,0
DA:80,0
DA:81,0
DA:82,0
DA:85,0
DA:86,0
DA:88,0
DA:89,0
DA:90,0
DA:91,0
DA:92,0
DA:93,0
DA:94,0
DA:95,0
DA:96,0
DA:97,0
DA:99,0
DA:100,0
DA:102,0
DA:103,0
DA:104,0
DA:105,0
DA:106,0
DA:107,0
DA:108,0
DA:109,0
DA:110,0
DA:111,0
DA:112,0
DA:113,0
DA:114,0
DA:115,0
DA:116,0
DA:117,0
DA:118,0
DA:119,0
DA:120,0
DA:122,0
DA:123,0
DA:124,0
DA:125,0
DA:126,0
DA:127,0
DA:128,0
DA:129,0
DA:131,0
DA:132,0
DA:133,0
DA:135,0
DA:136,0
DA:137,0
BRF:0
BRH:0
LF:113
LH:0
end_of_record
SF:/home/ubuntu/Code/s9-verifier/crates/lb-l7/src/h1_to_h3.rs
FN:27,_RNCNCNvNtCsiFMhfKJXoB5_5lb_l78h1_to_h324connection_named_headerss_00B7_
FN:28,_RNCNCNvNtCsiFMhfKJXoB5_5lb_l78h1_to_h324connection_named_headerss_0s_0B7_
FN:109,_RNCNCNvXNtCsiFMhfKJXoB5_5lb_l78h1_to_h3NtB6_12H1ToH3BridgeNtB8_6Bridge15bridge_response00B8_
FN:112,_RNCNCNvXNtCsiFMhfKJXoB5_5lb_l78h1_to_h3NtB6_12H1ToH3BridgeNtB8_6Bridge15bridge_response0s_0B8_
FN:24,_RNCNvNtCsiFMhfKJXoB5_5lb_l78h1_to_h324connection_named_headers0B5_
FN:25,_RNCNvNtCsiFMhfKJXoB5_5lb_l78h1_to_h324connection_named_headerss_0B5_
FN:49,_RNCNvXNtCsiFMhfKJXoB5_5lb_l78h1_to_h3NtB4_12H1ToH3BridgeNtB6_6Bridge14bridge_request0B6_
FN:76,_RNCNvXNtCsiFMhfKJXoB5_5lb_l78h1_to_h3NtB4_12H1ToH3BridgeNtB6_6Bridge14bridge_requests0_0B6_
FN:79,_RNCNvXNtCsiFMhfKJXoB5_5lb_l78h1_to_h3NtB4_12H1ToH3BridgeNtB6_6Bridge14bridge_requests1_0B6_
FN:50,_RNCNvXNtCsiFMhfKJXoB5_5lb_l78h1_to_h3NtB4_12H1ToH3BridgeNtB6_6Bridge14bridge_requests_0B6_
FN:107,_RNCNvXNtCsiFMhfKJXoB5_5lb_l78h1_to_h3NtB4_12H1ToH3BridgeNtB6_6Bridge15bridge_response0B6_
FN:117,_RNCNvXNtCsiFMhfKJXoB5_5lb_l78h1_to_h3NtB4_12H1ToH3BridgeNtB6_6Bridge15bridge_responses_0B6_
FN:21,_RNvNtCsiFMhfKJXoB5_5lb_l78h1_to_h324connection_named_headers
FN:135,_RNvXNtCsiFMhfKJXoB5_5lb_l78h1_to_h3NtB2_12H1ToH3BridgeNtB4_6Bridge13dest_protocol
FN:37,_RNvXNtCsiFMhfKJXoB5_5lb_l78h1_to_h3NtB2_12H1ToH3BridgeNtB4_6Bridge14bridge_request
FN:99,_RNvXNtCsiFMhfKJXoB5_5lb_l78h1_to_h3NtB2_12H1ToH3BridgeNtB4_6Bridge15bridge_response
FN:131,_RNvXNtCsiFMhfKJXoB5_5lb_l78h1_to_h3NtB2_12H1ToH3BridgeNtB4_6Bridge15source_protocol
FNDA:0,_RNCNCNvNtCsiFMhfKJXoB5_5lb_l78h1_to_h324connection_named_headerss_00B7_
FNDA:0,_RNCNCNvNtCsiFMhfKJXoB5_5lb_l78h1_to_h324connection_named_headerss_0s_0B7_
FNDA:0,_RNCNCNvXNtCsiFMhfKJXoB5_5lb_l78h1_to_h3NtB6_12H1ToH3BridgeNtB8_6Bridge15bridge_response00B8_
FNDA:0,_RNCNCNvXNtCsiFMhfKJXoB5_5lb_l78h1_to_h3NtB6_12H1ToH3BridgeNtB8_6Bridge15bridge_response0s_0B8_
FNDA:0,_RNCNvNtCsiFMhfKJXoB5_5lb_l78h1_to_h324connection_named_headers0B5_
FNDA:0,_RNCNvNtCsiFMhfKJXoB5_5lb_l78h1_to_h324connection_named_headerss_0B5_
FNDA:0,_RNCNvXNtCsiFMhfKJXoB5_5lb_l78h1_to_h3NtB4_12H1ToH3BridgeNtB6_6Bridge14bridge_request0B6_
FNDA:0,_RNCNvXNtCsiFMhfKJXoB5_5lb_l78h1_to_h3NtB4_12H1ToH3BridgeNtB6_6Bridge14bridge_requests0_0B6_
FNDA:0,_RNCNvXNtCsiFMhfKJXoB5_5lb_l78h1_to_h3NtB4_12H1ToH3BridgeNtB6_6Bridge14bridge_requests1_0B6_
FNDA:0,_RNCNvXNtCsiFMhfKJXoB5_5lb_l78h1_to_h3NtB4_12H1ToH3BridgeNtB6_6Bridge14bridge_requests_0B6_
FNDA:0,_RNCNvXNtCsiFMhfKJXoB5_5lb_l78h1_to_h3NtB4_12H1ToH3BridgeNtB6_6Bridge15bridge_response0B6_
FNDA:0,_RNCNvXNtCsiFMhfKJXoB5_5lb_l78h1_to_h3NtB4_12H1ToH3BridgeNtB6_6Bridge15bridge_responses_0B6_
FNDA:0,_RNvNtCsiFMhfKJXoB5_5lb_l78h1_to_h324connection_named_headers
FNDA:0,_RNvXNtCsiFMhfKJXoB5_5lb_l78h1_to_h3NtB2_12H1ToH3BridgeNtB4_6Bridge13dest_protocol
FNDA:0,_RNvXNtCsiFMhfKJXoB5_5lb_l78h1_to_h3NtB2_12H1ToH3BridgeNtB4_6Bridge14bridge_request
FNDA:0,_RNvXNtCsiFMhfKJXoB5_5lb_l78h1_to_h3NtB2_12H1ToH3BridgeNtB4_6Bridge15bridge_response
FNDA:0,_RNvXNtCsiFMhfKJXoB5_5lb_l78h1_to_h3NtB2_12H1ToH3BridgeNtB4_6Bridge15source_protocol
FNF:17
FNH:0
DA:21,0
DA:22,0
DA:23,0
DA:24,0
DA:25,0
DA:26,0
DA:27,0
DA:28,0
DA:29,0
DA:30,0
DA:31,0
DA:37,0
DA:38,0
DA:40,0
DA:41,0
DA:42,0
DA:43,0
DA:44,0
DA:45,0
DA:46,0
DA:47,0
DA:48,0
DA:49,0
DA:50,0
DA:51,0
DA:52,0
DA:53,0
DA:54,0
DA:55,0
DA:56,0
DA:58,0
DA:59,0
DA:60,0
DA:64,0
DA:65,0
DA:66,0
DA:67,0
DA:68,0
DA:69,0
DA:70,0
DA:71,0
DA:72,0
DA:73,0
DA:74,0
DA:75,0
DA:76,0
DA:77,0
DA:78,0
DA:79,0
DA:80,0
DA:81,0
DA:82,0
DA:85,0
DA:86,0
DA:88,0
DA:89,0
DA:90,0
DA:91,0
DA:92,0
DA:93,0
DA:94,0
DA:95,0
DA:96,0
DA:97,0
DA:99,0
DA:100,0
DA:102,0
DA:103,0
DA:104,0
DA:105,0
DA:106,0
DA:107,0
DA:108,0
DA:109,0
DA:110,0
DA:111,0
DA:112,0
DA:113,0
DA:114,0
DA:115,0
DA:116,0
DA:117,0
DA:118,0
DA:119,0
DA:120,0
DA:122,0
DA:123,0
DA:124,0
DA:125,0
DA:126,0
DA:127,0
DA:128,0
DA:129,0
DA:131,0
DA:132,0
DA:133,0
DA:135,0
DA:136,0
DA:137,0
BRF:0
BRH:0
LF:113
LH:0
end_of_record
SF:/home/ubuntu/Code/s9-verifier/crates/lb-l7/src/h2_proxy.rs
FN:2180,_RNCNCNCNCNvNtCsiFMhfKJXoB5_5lb_l78h2_proxy26upstream_h2_response_to_h20000Bb_
FN:1064,_RNCNCNCNvMs6_NtCsiFMhfKJXoB5_5lb_l78h2_proxyNtBb_7H2Proxy12handle_inner0s3_00Bd_
FN:1120,_RNCNCNCNvMs6_NtCsiFMhfKJXoB5_5lb_l78h2_proxyNtBb_7H2Proxy12handle_inner0s4_00Bd_
FN:1156,_RNCNCNCNvMs6_NtCsiFMhfKJXoB5_5lb_l78h2_proxyNtBb_7H2Proxy12handle_inner0s5_00Bd_
FN:1175,_RNCNCNCNvMs6_NtCsiFMhfKJXoB5_5lb_l78h2_proxyNtBb_7H2Proxy12handle_inner0s7_00Bd_
FN:1674,_RNCNCNCNvMs6_NtCsiFMhfKJXoB5_5lb_l78h2_proxyNtBb_7H2Proxy13proxy_request0s7_00Bd_
FN:1674,_RNCNCNCNvMs6_NtCsiFMhfKJXoB5_5lb_l78h2_proxyNtBb_7H2Proxy13proxy_request0s7_0s_0Bd_
FN:1990,_RNCNCNCNvNtCsiFMhfKJXoB5_5lb_l78h2_proxy26translate_h2_request_to_h20s2_00B9_
FN:2005,_RNCNCNCNvNtCsiFMhfKJXoB5_5lb_l78h2_proxy26translate_h2_request_to_h20s4_00B9_
FN:2177,_RNCNCNCNvNtCsiFMhfKJXoB5_5lb_l78h2_proxy26upstream_h2_response_to_h2000B9_
FN:2194,_RNCNCNCNvNtCsiFMhfKJXoB5_5lb_l78h2_proxy26upstream_h2_response_to_h20s_00B9_
FN:2269,_RNCNCNCNvNtCsiFMhfKJXoB5_5lb_l78h2_proxy34collect_h2_request_to_h3_fieldlist0s2_00B9_
FN:2287,_RNCNCNCNvNtCsiFMhfKJXoB5_5lb_l78h2_proxy34collect_h2_request_to_h3_fieldlist0s5_00B9_
FN:963,_RNCNCNvMs6_NtCsiFMhfKJXoB5_5lb_l78h2_proxyNtB9_7H2Proxy12handle_inner00Bb_
FN:1000,_RNCNCNvMs6_NtCsiFMhfKJXoB5_5lb_l78h2_proxyNtB9_7H2Proxy12handle_inner0s0_0Bb_
FN:1019,_RNCNCNvMs6_NtCsiFMhfKJXoB5_5lb_l78h2_proxyNtB9_7H2Proxy12handle_inner0s1_0Bb_
FN:1046,_RNCNCNvMs6_NtCsiFMhfKJXoB5_5lb_l78h2_proxyNtB9_7H2Proxy12handle_inner0s2_0Bb_
FN:1061,_RNCNCNvMs6_NtCsiFMhfKJXoB5_5lb_l78h2_proxyNtB9_7H2Proxy12handle_inner0s3_0Bb_
FN:1116,_RNCNCNvMs6_NtCsiFMhfKJXoB5_5lb_l78h2_proxyNtB9_7H2Proxy12handle_inner0s4_0Bb_
FN:1144,_RNCNCNvMs6_NtCsiFMhfKJXoB5_5lb_l78h2_proxyNtB9_7H2Proxy12handle_inner0s5_0Bb_
FN:1170,_RNCNCNvMs6_NtCsiFMhfKJXoB5_5lb_l78h2_proxyNtB9_7H2Proxy12handle_inner0s6_0Bb_
FN:1171,_RNCNCNvMs6_NtCsiFMhfKJXoB5_5lb_l78h2_proxyNtB9_7H2Proxy12handle_inner0s7_0Bb_
FN:970,_RNCNCNvMs6_NtCsiFMhfKJXoB5_5lb_l78h2_proxyNtB9_7H2Proxy12handle_inner0s_0Bb_
FN:1481,_RNCNCNvMs6_NtCsiFMhfKJXoB5_5lb_l78h2_proxyNtB9_7H2Proxy13proxy_request00Bb_
FN:1492,_RNCNCNvMs6_NtCsiFMhfKJXoB5_5lb_l78h2_proxyNtB9_7H2Proxy13proxy_request0s0_0Bb_
FN:1493,_RNCNCNvMs6_NtCsiFMhfKJXoB5_5lb_l78h2_proxyNtB9_7H2Proxy13proxy_request0s1_0Bb_
FN:1523,_RNCNCNvMs6_NtCsiFMhfKJXoB5_5lb_l78h2_proxyNtB9_7H2Proxy13proxy_request0s2_0Bb_
FN:1526,_RNCNCNvMs6_NtCsiFMhfKJXoB5_5lb_l78h2_proxyNtB9_7H2Proxy13proxy_request0s3_0Bb_
FN:1537,_RNCNCNvMs6_NtCsiFMhfKJXoB5_5lb_l78h2_proxyNtB9_7H2Proxy13proxy_request0s4_0Bb_
FN:1538,_RNCNCNvMs6_NtCsiFMhfKJXoB5_5lb_l78h2_proxyNtB9_7H2Proxy13proxy_request0s5_0Bb_
FN:1568,_RNCNCNvMs6_NtCsiFMhfKJXoB5_5lb_l78h2_proxyNtB9_7H2Proxy13proxy_request0s6_0Bb_
FN:1585,_RNCNCNvMs6_NtCsiFMhfKJXoB5_5lb_l78h2_proxyNtB9_7H2Proxy13proxy_request0s7_0Bb_
FN:1847,_RNCNCNvMs6_NtCsiFMhfKJXoB5_5lb_l78h2_proxyNtB9_7H2Proxy13proxy_request0s8_0Bb_
FN:1486,_RNCNCNvMs6_NtCsiFMhfKJXoB5_5lb_l78h2_proxyNtB9_7H2Proxy13proxy_request0s_0Bb_
FN:1969,_RNCNCNvNtCsiFMhfKJXoB5_5lb_l78h2_proxy26translate_h2_request_to_h200B7_
FN:1981,_RNCNCNvNtCsiFMhfKJXoB5_5lb_l78h2_proxy26translate_h2_request_to_h20s0_0B7_
FN:1985,_RNCNCNvNtCsiFMhfKJXoB5_5lb_l78h2_proxy26translate_h2_request_to_h20s1_0B7_
FN:1986,_RNCNCNvNtCsiFMhfKJXoB5_5lb_l78h2_proxy26translate_h2_request_to_h20s2_0B7_
FN:1998,_RNCNCNvNtCsiFMhfKJXoB5_5lb_l78h2_proxy26translate_h2_request_to_h20s3_0B7_
FN:2002,_RNCNCNvNtCsiFMhfKJXoB5_5lb_l78h2_proxy26translate_h2_request_to_h20s4_0B7_
FN:2031,_RNCNCNvNtCsiFMhfKJXoB5_5lb_l78h2_proxy26translate_h2_request_to_h20s5_0B7_
FN:2038,_RNCNCNvNtCsiFMhfKJXoB5_5lb_l78h2_proxy26translate_h2_request_to_h20s6_0B7_
FN:2057,_RNCNCNvNtCsiFMhfKJXoB5_5lb_l78h2_proxy26translate_h2_request_to_h20s7_0B7_
FN:1981,_RNCNCNvNtCsiFMhfKJXoB5_5lb_l78h2_proxy26translate_h2_request_to_h20s_0B7_
FN:2175,_RNCNCNvNtCsiFMhfKJXoB5_5lb_l78h2_proxy26upstream_h2_response_to_h200B7_
FN:2224,_RNCNCNvNtCsiFMhfKJXoB5_5lb_l78h2_proxy26upstream_h2_response_to_h20s0_0B7_
FN:2191,_RNCNCNvNtCsiFMhfKJXoB5_5lb_l78h2_proxy26upstream_h2_response_to_h20s_0B7_
FN:2249,_RNCNCNvNtCsiFMhfKJXoB5_5lb_l78h2_proxy34collect_h2_request_to_h3_fieldlist00B7_
FN:2260,_RNCNCNvNtCsiFMhfKJXoB5_5lb_l78h2_proxy34collect_h2_request_to_h3_fieldlist0s0_0B7_
FN:2264,_RNCNCNvNtCsiFMhfKJXoB5_5lb_l78h2_proxy34collect_h2_request_to_h3_fieldlist0s1_0B7_
FN:2265,_RNCNCNvNtCsiFMhfKJXoB5_5lb_l78h2_proxy34collect_h2_request_to_h3_fieldlist0s2_0B7_
FN:2272,_RNCNCNvNtCsiFMhfKJXoB5_5lb_l78h2_proxy34collect_h2_request_to_h3_fieldlist0s3_0B7_
FN:2280,_RNCNCNvNtCsiFMhfKJXoB5_5lb_l78h2_proxy34collect_h2_request_to_h3_fieldlist0s4_0B7_
FN:2284,_RNCNCNvNtCsiFMhfKJXoB5_5lb_l78h2_proxy34collect_h2_request_to_h3_fieldlist0s5_0B7_
FN:2309,_RNCNCNvNtCsiFMhfKJXoB5_5lb_l78h2_proxy34collect_h2_request_to_h3_fieldlist0s6_0B7_
FN:2260,_RNCNCNvNtCsiFMhfKJXoB5_5lb_l78h2_proxy34collect_h2_request_to_h3_fieldlist0s_0B7_
FN:929,_RNCNvMs6_NtCsiFMhfKJXoB5_5lb_l78h2_proxyNtB7_7H2Proxy12handle_inner0B9_
FN:1337,_RNCNvMs6_NtCsiFMhfKJXoB5_5lb_l78h2_proxyNtB7_7H2Proxy13proxy_request0B9_
FN:1900,_RNCNvMs6_NtCsiFMhfKJXoB5_5lb_l78h2_proxyNtB7_7H2Proxy14proxy_h2_to_h20B9_
FN:1925,_RNCNvMs6_NtCsiFMhfKJXoB5_5lb_l78h2_proxyNtB7_7H2Proxy14proxy_h2_to_h30B9_
FN:1264,_RNCNvMs6_NtCsiFMhfKJXoB5_5lb_l78h2_proxyNtB7_7H2Proxy26handle_ws_extended_connect0B9_
FN:1328,_RNCNvMs6_NtCsiFMhfKJXoB5_5lb_l78h2_proxyNtB7_7H2Proxy26handle_ws_extended_connects1_0B9_
FN:1268,_RNCNvMs6_NtCsiFMhfKJXoB5_5lb_l78h2_proxyNtB7_7H2Proxy26handle_ws_extended_connects_0B9_
FN:897,_RNCNvMs6_NtCsiFMhfKJXoB5_5lb_l78h2_proxyNtB7_7H2Proxy6handle0B9_
FN:2465,_RNCNvNtCsiFMhfKJXoB5_5lb_l78h2_proxy15split_host_port0B5_
FN:2470,_RNCNvNtCsiFMhfKJXoB5_5lb_l78h2_proxy15split_host_ports_0B5_
FN:2356,_RNCNvNtCsiFMhfKJXoB5_5lb_l78h2_proxy17h3_response_to_h20B5_
FN:1963,_RNCNvNtCsiFMhfKJXoB5_5lb_l78h2_proxy26translate_h2_request_to_h20B5_
FN:2162,_RNCNvNtCsiFMhfKJXoB5_5lb_l78h2_proxy26upstream_h2_response_to_h20B5_
FN:2413,_RNCNvNtCsiFMhfKJXoB5_5lb_l78h2_proxy30check_authority_host_agreement0B5_
FN:2243,_RNCNvNtCsiFMhfKJXoB5_5lb_l78h2_proxy34collect_h2_request_to_h3_fieldlist0B5_
FN:876,_RNCNvXs5_NtCsiFMhfKJXoB5_5lb_l78h2_proxyNtB7_12ProxyServiceINtNtNtCsgB3dp6qvXvn_5hyper7service7service7ServiceINtNtCsjFxw70quGA5_4http7request7RequestNtNtNtB12_4body8incoming8IncomingEE4call0B9_
FN:652,_RINvMs3_NtCsiFMhfKJXoB5_5lb_l78h2_proxyNtB6_7H2Proxy16serve_connectionpEB8_
FN:681,_RINvMs3_NtCsiFMhfKJXoB5_5lb_l78h2_proxyNtB6_7H2Proxy28serve_connection_with_cancelpEB8_
FN:704,_RINvMs3_NtCsiFMhfKJXoB5_5lb_l78h2_proxyNtB6_7H2Proxy32serve_connection_with_cancel_snipEB8_
FN:655,_RNCINvMs3_NtCsiFMhfKJXoB5_5lb_l78h2_proxyNtB8_7H2Proxy16serve_connectionpE0Ba_
FN:689,_RNCINvMs3_NtCsiFMhfKJXoB5_5lb_l78h2_proxyNtB8_7H2Proxy28serve_connection_with_cancelpE0Ba_
FN:713,_RNCINvMs3_NtCsiFMhfKJXoB5_5lb_l78h2_proxyNtB8_7H2Proxy32serve_connection_with_cancel_snipE0Ba_
FN:725,_RNCNCINvMs3_NtCsiFMhfKJXoB5_5lb_l78h2_proxyNtBa_7H2Proxy32serve_connection_with_cancel_snipE00Bc_
FN:726,_RNCNCNCINvMs3_NtCsiFMhfKJXoB5_5lb_l78h2_proxyNtBc_7H2Proxy32serve_connection_with_cancel_snipE000Be_
FN:297,_RNvMs0_NtCsiFMhfKJXoB5_5lb_l78h2_proxyINtB5_12CleanCloseIopE3newB7_
FN:309,_RNvXININtCsiFMhfKJXoB5_5lb_l78h2_proxys1_0pEINtB5_12CleanCloseIopENtNtNtCsfWKKmeeA0Vo_5tokio2io10async_read9AsyncRead9poll_readB7_
FN:327,_RNvXININtCsiFMhfKJXoB5_5lb_l78h2_proxys2_0pEINtB5_12CleanCloseIopENtNtNtCsfWKKmeeA0Vo_5tokio2io11async_write10AsyncWrite10poll_flushB7_
FN:319,_RNvXININtCsiFMhfKJXoB5_5lb_l78h2_proxys2_0pEINtB5_12CleanCloseIopENtNtNtCsfWKKmeeA0Vo_5tokio2io11async_write10AsyncWrite10poll_writeB7_
FN:331,_RNvXININtCsiFMhfKJXoB5_5lb_l78h2_proxys2_0pEINtB5_12CleanCloseIopENtNtNtCsfWKKmeeA0Vo_5tokio2io11async_write10AsyncWrite13poll_shutdownB7_
FN:512,_RNvMs3_NtCsiFMhfKJXoB5_5lb_l78h2_proxyNtB5_7H2Proxy10with_hooks
FN:547,_RNvMs3_NtCsiFMhfKJXoB5_5lb_l78h2_proxyNtB5_7H2Proxy13with_glitches
FN:440,_RNvMs3_NtCsiFMhfKJXoB5_5lb_l78h2_proxyNtB5_7H2Proxy13with_security
FN:523,_RNvMs3_NtCsiFMhfKJXoB5_5lb_l78h2_proxyNtB5_7H2Proxy13with_watchdog
FN:620,_RNvMs3_NtCsiFMhfKJXoB5_5lb_l78h2_proxyNtB5_7H2Proxy14with_websocket
FN:606,_RNvMs3_NtCsiFMhfKJXoB5_5lb_l78h2_proxyNtB5_7H2Proxy15has_h2_upstream
FN:613,_RNvMs3_NtCsiFMhfKJXoB5_5lb_l78h2_proxyNtB5_7H2Proxy15has_h3_upstream
FN:590,_RNvMs3_NtCsiFMhfKJXoB5_5lb_l78h2_proxyNtB5_7H2Proxy16with_h2_upstream
FN:598,_RNvMs3_NtCsiFMhfKJXoB5_5lb_l78h2_proxyNtB5_7H2Proxy16with_h3_upstream
FN:478,_RNvMs3_NtCsiFMhfKJXoB5_5lb_l78h2_proxyNtB5_7H2Proxy16with_multi_proto
FN:568,_RNvMs3_NtCsiFMhfKJXoB5_5lb_l78h2_proxyNtB5_7H2Proxy17with_expected_sni
FN:579,_RNvMs3_NtCsiFMhfKJXoB5_5lb_l78h2_proxyNtB5_7H2Proxy29with_header_underscore_policy
FN:418,_RNvMs3_NtCsiFMhfKJXoB5_5lb_l78h2_proxyNtB5_7H2Proxy3new
FN:634,_RNvMs3_NtCsiFMhfKJXoB5_5lb_l78h2_proxyNtB5_7H2Proxy9with_grpc
FN:836,_RNvMs4_NtCsiFMhfKJXoB5_5lb_l78h2_proxyNtB5_15GlitchConnState6record
FN:923,_RNvMs6_NtCsiFMhfKJXoB5_5lb_l78h2_proxyNtB5_7H2Proxy12handle_inner
FN:1333,_RNvMs6_NtCsiFMhfKJXoB5_5lb_l78h2_proxyNtB5_7H2Proxy13proxy_request
FN:1896,_RNvMs6_NtCsiFMhfKJXoB5_5lb_l78h2_proxyNtB5_7H2Proxy14proxy_h2_to_h2
FN:1921,_RNvMs6_NtCsiFMhfKJXoB5_5lb_l78h2_proxyNtB5_7H2Proxy14proxy_h2_to_h3
FN:1881,_RNvMs6_NtCsiFMhfKJXoB5_5lb_l78h2_proxyNtB5_7H2Proxy17finalize_response
FN:1242,_RNvMs6_NtCsiFMhfKJXoB5_5lb_l78h2_proxyNtB5_7H2Proxy26handle_ws_extended_connect
FN:891,_RNvMs6_NtCsiFMhfKJXoB5_5lb_l78h2_proxyNtB5_7H2Proxy6handle
FN:2116,_RNvNtCsiFMhfKJXoB5_5lb_l78h2_proxy13concat_chunks
FN:2382,_RNvNtCsiFMhfKJXoB5_5lb_l78h2_proxy14error_response
FN:2494,_RNvNtCsiFMhfKJXoB5_5lb_l78h2_proxy15record_retained
FN:2458,_RNvNtCsiFMhfKJXoB5_5lb_l78h2_proxy15split_host_port
FN:2315,_RNvNtCsiFMhfKJXoB5_5lb_l78h2_proxy17h3_response_to_h2
FN:2437,_RNvNtCsiFMhfKJXoB5_5lb_l78h2_proxy22authority_matches_host
FN:2094,_RNvNtCsiFMhfKJXoB5_5lb_l78h2_proxy25validate_request_trailers
FN:1961,_RNvNtCsiFMhfKJXoB5_5lb_l78h2_proxy26translate_h2_request_to_h2
FN:2159,_RNvNtCsiFMhfKJXoB5_5lb_l78h2_proxy26upstream_h2_response_to_h2
FN:2127,_RNvNtCsiFMhfKJXoB5_5lb_l78h2_proxy27build_h2_body_with_trailers
FN:2406,_RNvNtCsiFMhfKJXoB5_5lb_l78h2_proxy30check_authority_host_agreement
FN:2240,_RNvNtCsiFMhfKJXoB5_5lb_l78h2_proxy34collect_h2_request_to_h3_fieldlist
FN:2069,_RNvNtCsiFMhfKJXoB5_5lb_l78h2_proxy41capture_request_trailers_rejecting_pseudo
FN:111,_RNvXNtCsiFMhfKJXoB5_5lb_l78h2_proxyNtB2_9PumpAbortNtNtCs2va5m0jqTTM_4core3fmt7Display3fmt
FN:871,_RNvXs5_NtCsiFMhfKJXoB5_5lb_l78h2_proxyNtB5_12ProxyServiceINtNtNtCsgB3dp6qvXvn_5hyper7service7service7ServiceINtNtCsjFxw70quGA5_4http7request7RequestNtNtNtB10_4body8incoming8IncomingEE4call
FN:652,_RINvMs3_NtCsiFMhfKJXoB5_5lb_l78h2_proxyNtB6_7H2Proxy16serve_connectionINtNtCs7m3feRqGqA4_12tokio_rustls6server9TlsStreamNtNtNtNtCsfWKKmeeA0Vo_5tokio3net3tcp6stream9TcpStreamEECs4v7etBR30tT_12h2_proxy_e2e
FN:681,_RINvMs3_NtCsiFMhfKJXoB5_5lb_l78h2_proxyNtB6_7H2Proxy28serve_connection_with_cancelINtNtCs7m3feRqGqA4_12tokio_rustls6server9TlsStreamNtNtNtNtCsfWKKmeeA0Vo_5tokio3net3tcp6stream9TcpStreamEECs4v7etBR30tT_12h2_proxy_e2e
FN:704,_RINvMs3_NtCsiFMhfKJXoB5_5lb_l78h2_proxyNtB6_7H2Proxy32serve_connection_with_cancel_sniINtNtCs7m3feRqGqA4_12tokio_rustls6server9TlsStreamNtNtNtNtCsfWKKmeeA0Vo_5tokio3net3tcp6stream9TcpStreamEECs4v7etBR30tT_12h2_proxy_e2e
FN:655,_RNCINvMs3_NtCsiFMhfKJXoB5_5lb_l78h2_proxyNtB8_7H2Proxy16serve_connectionINtNtCs7m3feRqGqA4_12tokio_rustls6server9TlsStreamNtNtNtNtCsfWKKmeeA0Vo_5tokio3net3tcp6stream9TcpStreamEE0Cs4v7etBR30tT_12h2_proxy_e2e
FN:689,_RNCINvMs3_NtCsiFMhfKJXoB5_5lb_l78h2_proxyNtB8_7H2Proxy28serve_connection_with_cancelINtNtCs7m3feRqGqA4_12tokio_rustls6server9TlsStreamNtNtNtNtCsfWKKmeeA0Vo_5tokio3net3tcp6stream9TcpStreamEE0Cs4v7etBR30tT_12h2_proxy_e2e
FN:713,_RNCINvMs3_NtCsiFMhfKJXoB5_5lb_l78h2_proxyNtB8_7H2Proxy32serve_connection_with_cancel_sniINtNtCs7m3feRqGqA4_12tokio_rustls6server9TlsStreamNtNtNtNtCsfWKKmeeA0Vo_5tokio3net3tcp6stream9TcpStreamEE0Cs4v7etBR30tT_12h2_proxy_e2e
FN:725,_RNCNCINvMs3_NtCsiFMhfKJXoB5_5lb_l78h2_proxyNtBa_7H2Proxy32serve_connection_with_cancel_sniINtNtCs7m3feRqGqA4_12tokio_rustls6server9TlsStreamNtNtNtNtCsfWKKmeeA0Vo_5tokio3net3tcp6stream9TcpStreamEE00Cs4v7etBR30tT_12h2_proxy_e2e
FN:726,_RNCNCNCINvMs3_NtCsiFMhfKJXoB5_5lb_l78h2_proxyNtBc_7H2Proxy32serve_connection_with_cancel_sniINtNtCs7m3feRqGqA4_12tokio_rustls6server9TlsStreamNtNtNtNtCsfWKKmeeA0Vo_5tokio3net3tcp6stream9TcpStreamEE000Cs4v7etBR30tT_12h2_proxy_e2e
FN:297,_RNvMs0_NtCsiFMhfKJXoB5_5lb_l78h2_proxyINtB5_12CleanCloseIoINtNtCs7m3feRqGqA4_12tokio_rustls6server9TlsStreamNtNtNtNtCsfWKKmeeA0Vo_5tokio3net3tcp6stream9TcpStreamEE3newCs4v7etBR30tT_12h2_proxy_e2e
FN:309,_RNvXs1_NtCsiFMhfKJXoB5_5lb_l78h2_proxyINtB5_12CleanCloseIoINtNtCs7m3feRqGqA4_12tokio_rustls6server9TlsStreamNtNtNtNtCsfWKKmeeA0Vo_5tokio3net3tcp6stream9TcpStreamEENtNtNtB1Q_2io10async_read9AsyncRead9poll_readCs4v7etBR30tT_12h2_proxy_e2e
FN:327,_RNvXs2_NtCsiFMhfKJXoB5_5lb_l78h2_proxyINtB5_12CleanCloseIoINtNtCs7m3feRqGqA4_12tokio_rustls6server9TlsStreamNtNtNtNtCsfWKKmeeA0Vo_5tokio3net3tcp6stream9TcpStreamEENtNtNtB1Q_2io11async_write10AsyncWrite10poll_flushCs4v7etBR30tT_12h2_proxy_e2e
FN:319,_RNvXs2_NtCsiFMhfKJXoB5_5lb_l78h2_proxyINtB5_12CleanCloseIoINtNtCs7m3feRqGqA4_12tokio_rustls6server9TlsStreamNtNtNtNtCsfWKKmeeA0Vo_5tokio3net3tcp6stream9TcpStreamEENtNtNtB1Q_2io11async_write10AsyncWrite10poll_writeCs4v7etBR30tT_12h2_proxy_e2e
FN:331,_RNvXs2_NtCsiFMhfKJXoB5_5lb_l78h2_proxyINtB5_12CleanCloseIoINtNtCs7m3feRqGqA4_12tokio_rustls6server9TlsStreamNtNtNtNtCsfWKKmeeA0Vo_5tokio3net3tcp6stream9TcpStreamEENtNtNtB1Q_2io11async_write10AsyncWrite13poll_shutdownCs4v7etBR30tT_12h2_proxy_e2e
FN:652,_RINvMs3_NtCsiFMhfKJXoB5_5lb_l78h2_proxyNtB6_7H2Proxy16serve_connectionINtNtCs7m3feRqGqA4_12tokio_rustls6server9TlsStreamNtNtNtNtCsfWKKmeeA0Vo_5tokio3net3tcp6stream9TcpStreamEECsjqGwtXRutxH_23h2h1_md_coverage_driver
FN:681,_RINvMs3_NtCsiFMhfKJXoB5_5lb_l78h2_proxyNtB6_7H2Proxy28serve_connection_with_cancelINtNtCs7m3feRqGqA4_12tokio_rustls6server9TlsStreamNtNtNtNtCsfWKKmeeA0Vo_5tokio3net3tcp6stream9TcpStreamEECsjqGwtXRutxH_23h2h1_md_coverage_driver
FN:704,_RINvMs3_NtCsiFMhfKJXoB5_5lb_l78h2_proxyNtB6_7H2Proxy32serve_connection_with_cancel_sniINtNtCs7m3feRqGqA4_12tokio_rustls6server9TlsStreamNtNtNtNtCsfWKKmeeA0Vo_5tokio3net3tcp6stream9TcpStreamEECsjqGwtXRutxH_23h2h1_md_coverage_driver
FN:655,_RNCINvMs3_NtCsiFMhfKJXoB5_5lb_l78h2_proxyNtB8_7H2Proxy16serve_connectionINtNtCs7m3feRqGqA4_12tokio_rustls6server9TlsStreamNtNtNtNtCsfWKKmeeA0Vo_5tokio3net3tcp6stream9TcpStreamEE0CsjqGwtXRutxH_23h2h1_md_coverage_driver
FN:689,_RNCINvMs3_NtCsiFMhfKJXoB5_5lb_l78h2_proxyNtB8_7H2Proxy28serve_connection_with_cancelINtNtCs7m3feRqGqA4_12tokio_rustls6server9TlsStreamNtNtNtNtCsfWKKmeeA0Vo_5tokio3net3tcp6stream9TcpStreamEE0CsjqGwtXRutxH_23h2h1_md_coverage_driver
FN:713,_RNCINvMs3_NtCsiFMhfKJXoB5_5lb_l78h2_proxyNtB8_7H2Proxy32serve_connection_with_cancel_sniINtNtCs7m3feRqGqA4_12tokio_rustls6server9TlsStreamNtNtNtNtCsfWKKmeeA0Vo_5tokio3net3tcp6stream9TcpStreamEE0CsjqGwtXRutxH_23h2h1_md_coverage_driver
FN:725,_RNCNCINvMs3_NtCsiFMhfKJXoB5_5lb_l78h2_proxyNtBa_7H2Proxy32serve_connection_with_cancel_sniINtNtCs7m3feRqGqA4_12tokio_rustls6server9TlsStreamNtNtNtNtCsfWKKmeeA0Vo_5tokio3net3tcp6stream9TcpStreamEE00CsjqGwtXRutxH_23h2h1_md_coverage_driver
FN:726,_RNCNCNCINvMs3_NtCsiFMhfKJXoB5_5lb_l78h2_proxyNtBc_7H2Proxy32serve_connection_with_cancel_sniINtNtCs7m3feRqGqA4_12tokio_rustls6server9TlsStreamNtNtNtNtCsfWKKmeeA0Vo_5tokio3net3tcp6stream9TcpStreamEE000CsjqGwtXRutxH_23h2h1_md_coverage_driver
FN:297,_RNvMs0_NtCsiFMhfKJXoB5_5lb_l78h2_proxyINtB5_12CleanCloseIoINtNtCs7m3feRqGqA4_12tokio_rustls6server9TlsStreamNtNtNtNtCsfWKKmeeA0Vo_5tokio3net3tcp6stream9TcpStreamEE3newCsjqGwtXRutxH_23h2h1_md_coverage_driver
FN:309,_RNvXs1_NtCsiFMhfKJXoB5_5lb_l78h2_proxyINtB5_12CleanCloseIoINtNtCs7m3feRqGqA4_12tokio_rustls6server9TlsStreamNtNtNtNtCsfWKKmeeA0Vo_5tokio3net3tcp6stream9TcpStreamEENtNtNtB1Q_2io10async_read9AsyncRead9poll_readCsjqGwtXRutxH_23h2h1_md_coverage_driver
FN:327,_RNvXs2_NtCsiFMhfKJXoB5_5lb_l78h2_proxyINtB5_12CleanCloseIoINtNtCs7m3feRqGqA4_12tokio_rustls6server9TlsStreamNtNtNtNtCsfWKKmeeA0Vo_5tokio3net3tcp6stream9TcpStreamEENtNtNtB1Q_2io11async_write10AsyncWrite10poll_flushCsjqGwtXRutxH_23h2h1_md_coverage_driver
FN:319,_RNvXs2_NtCsiFMhfKJXoB5_5lb_l78h2_proxyINtB5_12CleanCloseIoINtNtCs7m3feRqGqA4_12tokio_rustls6server9TlsStreamNtNtNtNtCsfWKKmeeA0Vo_5tokio3net3tcp6stream9TcpStreamEENtNtNtB1Q_2io11async_write10AsyncWrite10poll_writeCsjqGwtXRutxH_23h2h1_md_coverage_driver
FN:331,_RNvXs2_NtCsiFMhfKJXoB5_5lb_l78h2_proxyINtB5_12CleanCloseIoINtNtCs7m3feRqGqA4_12tokio_rustls6server9TlsStreamNtNtNtNtCsfWKKmeeA0Vo_5tokio3net3tcp6stream9TcpStreamEENtNtNtB1Q_2io11async_write10AsyncWrite13poll_shutdownCsjqGwtXRutxH_23h2h1_md_coverage_driver
FN:652,_RINvMs3_NtCsiFMhfKJXoB5_5lb_l78h2_proxyNtB6_7H2Proxy16serve_connectionINtNtCs7m3feRqGqA4_12tokio_rustls6server9TlsStreamNtNtNtNtCsfWKKmeeA0Vo_5tokio3net3tcp6stream9TcpStreamEECsgWye6vtm8bK_24h2h1_md_streaming_verify
FN:681,_RINvMs3_NtCsiFMhfKJXoB5_5lb_l78h2_proxyNtB6_7H2Proxy28serve_connection_with_cancelINtNtCs7m3feRqGqA4_12tokio_rustls6server9TlsStreamNtNtNtNtCsfWKKmeeA0Vo_5tokio3net3tcp6stream9TcpStreamEECsgWye6vtm8bK_24h2h1_md_streaming_verify
FN:704,_RINvMs3_NtCsiFMhfKJXoB5_5lb_l78h2_proxyNtB6_7H2Proxy32serve_connection_with_cancel_sniINtNtCs7m3feRqGqA4_12tokio_rustls6server9TlsStreamNtNtNtNtCsfWKKmeeA0Vo_5tokio3net3tcp6stream9TcpStreamEECsgWye6vtm8bK_24h2h1_md_streaming_verify
FN:655,_RNCINvMs3_NtCsiFMhfKJXoB5_5lb_l78h2_proxyNtB8_7H2Proxy16serve_connectionINtNtCs7m3feRqGqA4_12tokio_rustls6server9TlsStreamNtNtNtNtCsfWKKmeeA0Vo_5tokio3net3tcp6stream9TcpStreamEE0CsgWye6vtm8bK_24h2h1_md_streaming_verify
FN:689,_RNCINvMs3_NtCsiFMhfKJXoB5_5lb_l78h2_proxyNtB8_7H2Proxy28serve_connection_with_cancelINtNtCs7m3feRqGqA4_12tokio_rustls6server9TlsStreamNtNtNtNtCsfWKKmeeA0Vo_5tokio3net3tcp6stream9TcpStreamEE0CsgWye6vtm8bK_24h2h1_md_streaming_verify
FN:713,_RNCINvMs3_NtCsiFMhfKJXoB5_5lb_l78h2_proxyNtB8_7H2Proxy32serve_connection_with_cancel_sniINtNtCs7m3feRqGqA4_12tokio_rustls6server9TlsStreamNtNtNtNtCsfWKKmeeA0Vo_5tokio3net3tcp6stream9TcpStreamEE0CsgWye6vtm8bK_24h2h1_md_streaming_verify
FN:725,_RNCNCINvMs3_NtCsiFMhfKJXoB5_5lb_l78h2_proxyNtBa_7H2Proxy32serve_connection_with_cancel_sniINtNtCs7m3feRqGqA4_12tokio_rustls6server9TlsStreamNtNtNtNtCsfWKKmeeA0Vo_5tokio3net3tcp6stream9TcpStreamEE00CsgWye6vtm8bK_24h2h1_md_streaming_verify
FN:726,_RNCNCNCINvMs3_NtCsiFMhfKJXoB5_5lb_l78h2_proxyNtBc_7H2Proxy32serve_connection_with_cancel_sniINtNtCs7m3feRqGqA4_12tokio_rustls6server9TlsStreamNtNtNtNtCsfWKKmeeA0Vo_5tokio3net3tcp6stream9TcpStreamEE000CsgWye6vtm8bK_24h2h1_md_streaming_verify
FN:297,_RNvMs0_NtCsiFMhfKJXoB5_5lb_l78h2_proxyINtB5_12CleanCloseIoINtNtCs7m3feRqGqA4_12tokio_rustls6server9TlsStreamNtNtNtNtCsfWKKmeeA0Vo_5tokio3net3tcp6stream9TcpStreamEE3newCsgWye6vtm8bK_24h2h1_md_streaming_verify
FN:309,_RNvXs1_NtCsiFMhfKJXoB5_5lb_l78h2_proxyINtB5_12CleanCloseIoINtNtCs7m3feRqGqA4_12tokio_rustls6server9TlsStreamNtNtNtNtCsfWKKmeeA0Vo_5tokio3net3tcp6stream9TcpStreamEENtNtNtB1Q_2io10async_read9AsyncRead9poll_readCsgWye6vtm8bK_24h2h1_md_streaming_verify
FN:327,_RNvXs2_NtCsiFMhfKJXoB5_5lb_l78h2_proxyINtB5_12CleanCloseIoINtNtCs7m3feRqGqA4_12tokio_rustls6server9TlsStreamNtNtNtNtCsfWKKmeeA0Vo_5tokio3net3tcp6stream9TcpStreamEENtNtNtB1Q_2io11async_write10AsyncWrite10poll_flushCsgWye6vtm8bK_24h2h1_md_streaming_verify
FN:319,_RNvXs2_NtCsiFMhfKJXoB5_5lb_l78h2_proxyINtB5_12CleanCloseIoINtNtCs7m3feRqGqA4_12tokio_rustls6server9TlsStreamNtNtNtNtCsfWKKmeeA0Vo_5tokio3net3tcp6stream9TcpStreamEENtNtNtB1Q_2io11async_write10AsyncWrite10poll_writeCsgWye6vtm8bK_24h2h1_md_streaming_verify
FN:331,_RNvXs2_NtCsiFMhfKJXoB5_5lb_l78h2_proxyINtB5_12CleanCloseIoINtNtCs7m3feRqGqA4_12tokio_rustls6server9TlsStreamNtNtNtNtCsfWKKmeeA0Vo_5tokio3net3tcp6stream9TcpStreamEENtNtNtB1Q_2io11async_write10AsyncWrite13poll_shutdownCsgWye6vtm8bK_24h2h1_md_streaming_verify
FNDA:0,_RNCNCNCNCNvNtCsiFMhfKJXoB5_5lb_l78h2_proxy26upstream_h2_response_to_h20000Bb_
FNDA:63,_RNCNCNCNvMs6_NtCsiFMhfKJXoB5_5lb_l78h2_proxyNtBb_7H2Proxy12handle_inner0s3_00Bd_
FNDA:0,_RNCNCNCNvMs6_NtCsiFMhfKJXoB5_5lb_l78h2_proxyNtBb_7H2Proxy12handle_inner0s4_00Bd_
FNDA:0,_RNCNCNCNvMs6_NtCsiFMhfKJXoB5_5lb_l78h2_proxyNtBb_7H2Proxy12handle_inner0s5_00Bd_
FNDA:0,_RNCNCNCNvMs6_NtCsiFMhfKJXoB5_5lb_l78h2_proxyNtBb_7H2Proxy12handle_inner0s7_00Bd_
FNDA:0,_RNCNCNCNvMs6_NtCsiFMhfKJXoB5_5lb_l78h2_proxyNtBb_7H2Proxy13proxy_request0s7_00Bd_
FNDA:0,_RNCNCNCNvMs6_NtCsiFMhfKJXoB5_5lb_l78h2_proxyNtBb_7H2Proxy13proxy_request0s7_0s_0Bd_
FNDA:0,_RNCNCNCNvNtCsiFMhfKJXoB5_5lb_l78h2_proxy26translate_h2_request_to_h20s2_00B9_
FNDA:0,_RNCNCNCNvNtCsiFMhfKJXoB5_5lb_l78h2_proxy26translate_h2_request_to_h20s4_00B9_
FNDA:0,_RNCNCNCNvNtCsiFMhfKJXoB5_5lb_l78h2_proxy26upstream_h2_response_to_h2000B9_
FNDA:0,_RNCNCNCNvNtCsiFMhfKJXoB5_5lb_l78h2_proxy26upstream_h2_response_to_h20s_00B9_
FNDA:0,_RNCNCNCNvNtCsiFMhfKJXoB5_5lb_l78h2_proxy34collect_h2_request_to_h3_fieldlist0s2_00B9_
FNDA:0,_RNCNCNCNvNtCsiFMhfKJXoB5_5lb_l78h2_proxy34collect_h2_request_to_h3_fieldlist0s5_00B9_
FNDA:0,_RNCNCNvMs6_NtCsiFMhfKJXoB5_5lb_l78h2_proxyNtB9_7H2Proxy12handle_inner00Bb_
FNDA:63,_RNCNCNvMs6_NtCsiFMhfKJXoB5_5lb_l78h2_proxyNtB9_7H2Proxy12handle_inner0s0_0Bb_
FNDA:0,_RNCNCNvMs6_NtCsiFMhfKJXoB5_5lb_l78h2_proxyNtB9_7H2Proxy12handle_inner0s1_0Bb_
FNDA:0,_RNCNCNvMs6_NtCsiFMhfKJXoB5_5lb_l78h2_proxyNtB9_7H2Proxy12handle_inner0s2_0Bb_
FNDA:63,_RNCNCNvMs6_NtCsiFMhfKJXoB5_5lb_l78h2_proxyNtB9_7H2Proxy12handle_inner0s3_0Bb_
FNDA:0,_RNCNCNvMs6_NtCsiFMhfKJXoB5_5lb_l78h2_proxyNtB9_7H2Proxy12handle_inner0s4_0Bb_
FNDA:0,_RNCNCNvMs6_NtCsiFMhfKJXoB5_5lb_l78h2_proxyNtB9_7H2Proxy12handle_inner0s5_0Bb_
FNDA:45,_RNCNCNvMs6_NtCsiFMhfKJXoB5_5lb_l78h2_proxyNtB9_7H2Proxy12handle_inner0s6_0Bb_
FNDA:0,_RNCNCNvMs6_NtCsiFMhfKJXoB5_5lb_l78h2_proxyNtB9_7H2Proxy12handle_inner0s7_0Bb_
FNDA:0,_RNCNCNvMs6_NtCsiFMhfKJXoB5_5lb_l78h2_proxyNtB9_7H2Proxy12handle_inner0s_0Bb_
FNDA:0,_RNCNCNvMs6_NtCsiFMhfKJXoB5_5lb_l78h2_proxyNtB9_7H2Proxy13proxy_request00Bb_
FNDA:0,_RNCNCNvMs6_NtCsiFMhfKJXoB5_5lb_l78h2_proxyNtB9_7H2Proxy13proxy_request0s0_0Bb_
FNDA:20,_RNCNCNvMs6_NtCsiFMhfKJXoB5_5lb_l78h2_proxyNtB9_7H2Proxy13proxy_request0s1_0Bb_
FNDA:0,_RNCNCNvMs6_NtCsiFMhfKJXoB5_5lb_l78h2_proxyNtB9_7H2Proxy13proxy_request0s2_0Bb_
FNDA:0,_RNCNCNvMs6_NtCsiFMhfKJXoB5_5lb_l78h2_proxyNtB9_7H2Proxy13proxy_request0s3_0Bb_
FNDA:0,_RNCNCNvMs6_NtCsiFMhfKJXoB5_5lb_l78h2_proxyNtB9_7H2Proxy13proxy_request0s4_0Bb_
FNDA:18,_RNCNCNvMs6_NtCsiFMhfKJXoB5_5lb_l78h2_proxyNtB9_7H2Proxy13proxy_request0s5_0Bb_
FNDA:26397,_RNCNCNvMs6_NtCsiFMhfKJXoB5_5lb_l78h2_proxyNtB9_7H2Proxy13proxy_request0s6_0Bb_
FNDA:18,_RNCNCNvMs6_NtCsiFMhfKJXoB5_5lb_l78h2_proxyNtB9_7H2Proxy13proxy_request0s7_0Bb_
FNDA:1,_RNCNCNvMs6_NtCsiFMhfKJXoB5_5lb_l78h2_proxyNtB9_7H2Proxy13proxy_request0s8_0Bb_
FNDA:0,_RNCNCNvMs6_NtCsiFMhfKJXoB5_5lb_l78h2_proxyNtB9_7H2Proxy13proxy_request0s_0Bb_
FNDA:0,_RNCNCNvNtCsiFMhfKJXoB5_5lb_l78h2_proxy26translate_h2_request_to_h200B7_
FNDA:0,_RNCNCNvNtCsiFMhfKJXoB5_5lb_l78h2_proxy26translate_h2_request_to_h20s0_0B7_
FNDA:0,_RNCNCNvNtCsiFMhfKJXoB5_5lb_l78h2_proxy26translate_h2_request_to_h20s1_0B7_
FNDA:0,_RNCNCNvNtCsiFMhfKJXoB5_5lb_l78h2_proxy26translate_h2_request_to_h20s2_0B7_
FNDA:0,_RNCNCNvNtCsiFMhfKJXoB5_5lb_l78h2_proxy26translate_h2_request_to_h20s3_0B7_
FNDA:0,_RNCNCNvNtCsiFMhfKJXoB5_5lb_l78h2_proxy26translate_h2_request_to_h20s4_0B7_
FNDA:0,_RNCNCNvNtCsiFMhfKJXoB5_5lb_l78h2_proxy26translate_h2_request_to_h20s5_0B7_
FNDA:0,_RNCNCNvNtCsiFMhfKJXoB5_5lb_l78h2_proxy26translate_h2_request_to_h20s6_0B7_
FNDA:0,_RNCNCNvNtCsiFMhfKJXoB5_5lb_l78h2_proxy26translate_h2_request_to_h20s7_0B7_
FNDA:0,_RNCNCNvNtCsiFMhfKJXoB5_5lb_l78h2_proxy26translate_h2_request_to_h20s_0B7_
FNDA:0,_RNCNCNvNtCsiFMhfKJXoB5_5lb_l78h2_proxy26upstream_h2_response_to_h200B7_
FNDA:0,_RNCNCNvNtCsiFMhfKJXoB5_5lb_l78h2_proxy26upstream_h2_response_to_h20s0_0B7_
FNDA:0,_RNCNCNvNtCsiFMhfKJXoB5_5lb_l78h2_proxy26upstream_h2_response_to_h20s_0B7_
FNDA:0,_RNCNCNvNtCsiFMhfKJXoB5_5lb_l78h2_proxy34collect_h2_request_to_h3_fieldlist00B7_
FNDA:0,_RNCNCNvNtCsiFMhfKJXoB5_5lb_l78h2_proxy34collect_h2_request_to_h3_fieldlist0s0_0B7_
FNDA:0,_RNCNCNvNtCsiFMhfKJXoB5_5lb_l78h2_proxy34collect_h2_request_to_h3_fieldlist0s1_0B7_
FNDA:0,_RNCNCNvNtCsiFMhfKJXoB5_5lb_l78h2_proxy34collect_h2_request_to_h3_fieldlist0s2_0B7_
FNDA:0,_RNCNCNvNtCsiFMhfKJXoB5_5lb_l78h2_proxy34collect_h2_request_to_h3_fieldlist0s3_0B7_
FNDA:0,_RNCNCNvNtCsiFMhfKJXoB5_5lb_l78h2_proxy34collect_h2_request_to_h3_fieldlist0s4_0B7_
FNDA:0,_RNCNCNvNtCsiFMhfKJXoB5_5lb_l78h2_proxy34collect_h2_request_to_h3_fieldlist0s5_0B7_
FNDA:0,_RNCNCNvNtCsiFMhfKJXoB5_5lb_l78h2_proxy34collect_h2_request_to_h3_fieldlist0s6_0B7_
FNDA:0,_RNCNCNvNtCsiFMhfKJXoB5_5lb_l78h2_proxy34collect_h2_request_to_h3_fieldlist0s_0B7_
FNDA:45,_RNCNvMs6_NtCsiFMhfKJXoB5_5lb_l78h2_proxyNtB7_7H2Proxy12handle_inner0B9_
FNDA:45,_RNCNvMs6_NtCsiFMhfKJXoB5_5lb_l78h2_proxyNtB7_7H2Proxy13proxy_request0B9_
FNDA:0,_RNCNvMs6_NtCsiFMhfKJXoB5_5lb_l78h2_proxyNtB7_7H2Proxy14proxy_h2_to_h20B9_
FNDA:0,_RNCNvMs6_NtCsiFMhfKJXoB5_5lb_l78h2_proxyNtB7_7H2Proxy14proxy_h2_to_h30B9_
FNDA:0,_RNCNvMs6_NtCsiFMhfKJXoB5_5lb_l78h2_proxyNtB7_7H2Proxy26handle_ws_extended_connect0B9_
FNDA:0,_RNCNvMs6_NtCsiFMhfKJXoB5_5lb_l78h2_proxyNtB7_7H2Proxy26handle_ws_extended_connects1_0B9_
FNDA:0,_RNCNvMs6_NtCsiFMhfKJXoB5_5lb_l78h2_proxyNtB7_7H2Proxy26handle_ws_extended_connects_0B9_
FNDA:45,_RNCNvMs6_NtCsiFMhfKJXoB5_5lb_l78h2_proxyNtB7_7H2Proxy6handle0B9_
FNDA:0,_RNCNvNtCsiFMhfKJXoB5_5lb_l78h2_proxy15split_host_port0B5_
FNDA:0,_RNCNvNtCsiFMhfKJXoB5_5lb_l78h2_proxy15split_host_ports_0B5_
FNDA:0,_RNCNvNtCsiFMhfKJXoB5_5lb_l78h2_proxy17h3_response_to_h20B5_
FNDA:0,_RNCNvNtCsiFMhfKJXoB5_5lb_l78h2_proxy26translate_h2_request_to_h20B5_
FNDA:0,_RNCNvNtCsiFMhfKJXoB5_5lb_l78h2_proxy26upstream_h2_response_to_h20B5_
FNDA:0,_RNCNvNtCsiFMhfKJXoB5_5lb_l78h2_proxy30check_authority_host_agreement0B5_
FNDA:0,_RNCNvNtCsiFMhfKJXoB5_5lb_l78h2_proxy34collect_h2_request_to_h3_fieldlist0B5_
FNDA:45,_RNCNvXs5_NtCsiFMhfKJXoB5_5lb_l78h2_proxyNtB7_12ProxyServiceINtNtNtCsgB3dp6qvXvn_5hyper7service7service7ServiceINtNtCsjFxw70quGA5_4http7request7RequestNtNtNtB12_4body8incoming8IncomingEE4call0B9_
FNDA:0,_RINvMs3_NtCsiFMhfKJXoB5_5lb_l78h2_proxyNtB6_7H2Proxy16serve_connectionpEB8_
FNDA:0,_RINvMs3_NtCsiFMhfKJXoB5_5lb_l78h2_proxyNtB6_7H2Proxy28serve_connection_with_cancelpEB8_
FNDA:0,_RINvMs3_NtCsiFMhfKJXoB5_5lb_l78h2_proxyNtB6_7H2Proxy32serve_connection_with_cancel_snipEB8_
FNDA:0,_RNCINvMs3_NtCsiFMhfKJXoB5_5lb_l78h2_proxyNtB8_7H2Proxy16serve_connectionpE0Ba_
FNDA:0,_RNCINvMs3_NtCsiFMhfKJXoB5_5lb_l78h2_proxyNtB8_7H2Proxy28serve_connection_with_cancelpE0Ba_
FNDA:0,_RNCINvMs3_NtCsiFMhfKJXoB5_5lb_l78h2_proxyNtB8_7H2Proxy32serve_connection_with_cancel_snipE0Ba_
FNDA:0,_RNCNCINvMs3_NtCsiFMhfKJXoB5_5lb_l78h2_proxyNtBa_7H2Proxy32serve_connection_with_cancel_snipE00Bc_
FNDA:0,_RNCNCNCINvMs3_NtCsiFMhfKJXoB5_5lb_l78h2_proxyNtBc_7H2Proxy32serve_connection_with_cancel_snipE000Be_
FNDA:0,_RNvMs0_NtCsiFMhfKJXoB5_5lb_l78h2_proxyINtB5_12CleanCloseIopE3newB7_
FNDA:0,_RNvXININtCsiFMhfKJXoB5_5lb_l78h2_proxys1_0pEINtB5_12CleanCloseIopENtNtNtCsfWKKmeeA0Vo_5tokio2io10async_read9AsyncRead9poll_readB7_
FNDA:0,_RNvXININtCsiFMhfKJXoB5_5lb_l78h2_proxys2_0pEINtB5_12CleanCloseIopENtNtNtCsfWKKmeeA0Vo_5tokio2io11async_write10AsyncWrite10poll_flushB7_
FNDA:0,_RNvXININtCsiFMhfKJXoB5_5lb_l78h2_proxys2_0pEINtB5_12CleanCloseIopENtNtNtCsfWKKmeeA0Vo_5tokio2io11async_write10AsyncWrite10poll_writeB7_
FNDA:0,_RNvXININtCsiFMhfKJXoB5_5lb_l78h2_proxys2_0pEINtB5_12CleanCloseIopENtNtNtCsfWKKmeeA0Vo_5tokio2io11async_write10AsyncWrite13poll_shutdownB7_
FNDA:0,_RNvMs3_NtCsiFMhfKJXoB5_5lb_l78h2_proxyNtB5_7H2Proxy10with_hooks
FNDA:0,_RNvMs3_NtCsiFMhfKJXoB5_5lb_l78h2_proxyNtB5_7H2Proxy13with_glitches
FNDA:38,_RNvMs3_NtCsiFMhfKJXoB5_5lb_l78h2_proxyNtB5_7H2Proxy13with_security
FNDA:0,_RNvMs3_NtCsiFMhfKJXoB5_5lb_l78h2_proxyNtB5_7H2Proxy13with_watchdog
FNDA:0,_RNvMs3_NtCsiFMhfKJXoB5_5lb_l78h2_proxyNtB5_7H2Proxy14with_websocket
FNDA:0,_RNvMs3_NtCsiFMhfKJXoB5_5lb_l78h2_proxyNtB5_7H2Proxy15has_h2_upstream
FNDA:0,_RNvMs3_NtCsiFMhfKJXoB5_5lb_l78h2_proxyNtB5_7H2Proxy15has_h3_upstream
FNDA:0,_RNvMs3_NtCsiFMhfKJXoB5_5lb_l78h2_proxyNtB5_7H2Proxy16with_h2_upstream
FNDA:0,_RNvMs3_NtCsiFMhfKJXoB5_5lb_l78h2_proxyNtB5_7H2Proxy16with_h3_upstream
FNDA:0,_RNvMs3_NtCsiFMhfKJXoB5_5lb_l78h2_proxyNtB5_7H2Proxy16with_multi_proto
FNDA:0,_RNvMs3_NtCsiFMhfKJXoB5_5lb_l78h2_proxyNtB5_7H2Proxy17with_expected_sni
FNDA:0,_RNvMs3_NtCsiFMhfKJXoB5_5lb_l78h2_proxyNtB5_7H2Proxy29with_header_underscore_policy
FNDA:5,_RNvMs3_NtCsiFMhfKJXoB5_5lb_l78h2_proxyNtB5_7H2Proxy3new
FNDA:0,_RNvMs3_NtCsiFMhfKJXoB5_5lb_l78h2_proxyNtB5_7H2Proxy9with_grpc
FNDA:0,_RNvMs4_NtCsiFMhfKJXoB5_5lb_l78h2_proxyNtB5_15GlitchConnState6record
FNDA:45,_RNvMs6_NtCsiFMhfKJXoB5_5lb_l78h2_proxyNtB5_7H2Proxy12handle_inner
FNDA:45,_RNvMs6_NtCsiFMhfKJXoB5_5lb_l78h2_proxyNtB5_7H2Proxy13proxy_request
FNDA:0,_RNvMs6_NtCsiFMhfKJXoB5_5lb_l78h2_proxyNtB5_7H2Proxy14proxy_h2_to_h2
FNDA:0,_RNvMs6_NtCsiFMhfKJXoB5_5lb_l78h2_proxyNtB5_7H2Proxy14proxy_h2_to_h3
FNDA:32,_RNvMs6_NtCsiFMhfKJXoB5_5lb_l78h2_proxyNtB5_7H2Proxy17finalize_response
FNDA:0,_RNvMs6_NtCsiFMhfKJXoB5_5lb_l78h2_proxyNtB5_7H2Proxy26handle_ws_extended_connect
FNDA:45,_RNvMs6_NtCsiFMhfKJXoB5_5lb_l78h2_proxyNtB5_7H2Proxy6handle
FNDA:20,_RNvNtCsiFMhfKJXoB5_5lb_l78h2_proxy13concat_chunks
FNDA:11,_RNvNtCsiFMhfKJXoB5_5lb_l78h2_proxy14error_response
FNDA:20460,_RNvNtCsiFMhfKJXoB5_5lb_l78h2_proxy15record_retained
FNDA:0,_RNvNtCsiFMhfKJXoB5_5lb_l78h2_proxy15split_host_port
FNDA:0,_RNvNtCsiFMhfKJXoB5_5lb_l78h2_proxy17h3_response_to_h2
FNDA:0,_RNvNtCsiFMhfKJXoB5_5lb_l78h2_proxy22authority_matches_host
FNDA:20,_RNvNtCsiFMhfKJXoB5_5lb_l78h2_proxy25validate_request_trailers
FNDA:0,_RNvNtCsiFMhfKJXoB5_5lb_l78h2_proxy26translate_h2_request_to_h2
FNDA:0,_RNvNtCsiFMhfKJXoB5_5lb_l78h2_proxy26upstream_h2_response_to_h2
FNDA:20,_RNvNtCsiFMhfKJXoB5_5lb_l78h2_proxy27build_h2_body_with_trailers
FNDA:45,_RNvNtCsiFMhfKJXoB5_5lb_l78h2_proxy30check_authority_host_agreement
FNDA:0,_RNvNtCsiFMhfKJXoB5_5lb_l78h2_proxy34collect_h2_request_to_h3_fieldlist
FNDA:0,_RNvNtCsiFMhfKJXoB5_5lb_l78h2_proxy41capture_request_trailers_rejecting_pseudo
FNDA:0,_RNvXNtCsiFMhfKJXoB5_5lb_l78h2_proxyNtB2_9PumpAbortNtNtCs2va5m0jqTTM_4core3fmt7Display3fmt
FNDA:45,_RNvXs5_NtCsiFMhfKJXoB5_5lb_l78h2_proxyNtB5_12ProxyServiceINtNtNtCsgB3dp6qvXvn_5hyper7service7service7ServiceINtNtCsjFxw70quGA5_4http7request7RequestNtNtNtB10_4body8incoming8IncomingEE4call
FNDA:4,_RINvMs3_NtCsiFMhfKJXoB5_5lb_l78h2_proxyNtB6_7H2Proxy16serve_connectionINtNtCs7m3feRqGqA4_12tokio_rustls6server9TlsStreamNtNtNtNtCsfWKKmeeA0Vo_5tokio3net3tcp6stream9TcpStreamEECs4v7etBR30tT_12h2_proxy_e2e
FNDA:4,_RINvMs3_NtCsiFMhfKJXoB5_5lb_l78h2_proxyNtB6_7H2Proxy28serve_connection_with_cancelINtNtCs7m3feRqGqA4_12tokio_rustls6server9TlsStreamNtNtNtNtCsfWKKmeeA0Vo_5tokio3net3tcp6stream9TcpStreamEECs4v7etBR30tT_12h2_proxy_e2e
FNDA:4,_RINvMs3_NtCsiFMhfKJXoB5_5lb_l78h2_proxyNtB6_7H2Proxy32serve_connection_with_cancel_sniINtNtCs7m3feRqGqA4_12tokio_rustls6server9TlsStreamNtNtNtNtCsfWKKmeeA0Vo_5tokio3net3tcp6stream9TcpStreamEECs4v7etBR30tT_12h2_proxy_e2e
FNDA:4,_RNCINvMs3_NtCsiFMhfKJXoB5_5lb_l78h2_proxyNtB8_7H2Proxy16serve_connectionINtNtCs7m3feRqGqA4_12tokio_rustls6server9TlsStreamNtNtNtNtCsfWKKmeeA0Vo_5tokio3net3tcp6stream9TcpStreamEE0Cs4v7etBR30tT_12h2_proxy_e2e
FNDA:4,_RNCINvMs3_NtCsiFMhfKJXoB5_5lb_l78h2_proxyNtB8_7H2Proxy28serve_connection_with_cancelINtNtCs7m3feRqGqA4_12tokio_rustls6server9TlsStreamNtNtNtNtCsfWKKmeeA0Vo_5tokio3net3tcp6stream9TcpStreamEE0Cs4v7etBR30tT_12h2_proxy_e2e
FNDA:4,_RNCINvMs3_NtCsiFMhfKJXoB5_5lb_l78h2_proxyNtB8_7H2Proxy32serve_connection_with_cancel_sniINtNtCs7m3feRqGqA4_12tokio_rustls6server9TlsStreamNtNtNtNtCsfWKKmeeA0Vo_5tokio3net3tcp6stream9TcpStreamEE0Cs4v7etBR30tT_12h2_proxy_e2e
FNDA:0,_RNCNCINvMs3_NtCsiFMhfKJXoB5_5lb_l78h2_proxyNtBa_7H2Proxy32serve_connection_with_cancel_sniINtNtCs7m3feRqGqA4_12tokio_rustls6server9TlsStreamNtNtNtNtCsfWKKmeeA0Vo_5tokio3net3tcp6stream9TcpStreamEE00Cs4v7etBR30tT_12h2_proxy_e2e
FNDA:0,_RNCNCNCINvMs3_NtCsiFMhfKJXoB5_5lb_l78h2_proxyNtBc_7H2Proxy32serve_connection_with_cancel_sniINtNtCs7m3feRqGqA4_12tokio_rustls6server9TlsStreamNtNtNtNtCsfWKKmeeA0Vo_5tokio3net3tcp6stream9TcpStreamEE000Cs4v7etBR30tT_12h2_proxy_e2e
FNDA:4,_RNvMs0_NtCsiFMhfKJXoB5_5lb_l78h2_proxyINtB5_12CleanCloseIoINtNtCs7m3feRqGqA4_12tokio_rustls6server9TlsStreamNtNtNtNtCsfWKKmeeA0Vo_5tokio3net3tcp6stream9TcpStreamEE3newCs4v7etBR30tT_12h2_proxy_e2e
FNDA:14412,_RNvXs1_NtCsiFMhfKJXoB5_5lb_l78h2_proxyINtB5_12CleanCloseIoINtNtCs7m3feRqGqA4_12tokio_rustls6server9TlsStreamNtNtNtNtCsfWKKmeeA0Vo_5tokio3net3tcp6stream9TcpStreamEENtNtNtB1Q_2io10async_read9AsyncRead9poll_readCs4v7etBR30tT_12h2_proxy_e2e
FNDA:2093,_RNvXs2_NtCsiFMhfKJXoB5_5lb_l78h2_proxyINtB5_12CleanCloseIoINtNtCs7m3feRqGqA4_12tokio_rustls6server9TlsStreamNtNtNtNtCsfWKKmeeA0Vo_5tokio3net3tcp6stream9TcpStreamEENtNtNtB1Q_2io11async_write10AsyncWrite10poll_flushCs4v7etBR30tT_12h2_proxy_e2e
FNDA:1046,_RNvXs2_NtCsiFMhfKJXoB5_5lb_l78h2_proxyINtB5_12CleanCloseIoINtNtCs7m3feRqGqA4_12tokio_rustls6server9TlsStreamNtNtNtNtCsfWKKmeeA0Vo_5tokio3net3tcp6stream9TcpStreamEENtNtNtB1Q_2io11async_write10AsyncWrite10poll_writeCs4v7etBR30tT_12h2_proxy_e2e
FNDA:0,_RNvXs2_NtCsiFMhfKJXoB5_5lb_l78h2_proxyINtB5_12CleanCloseIoINtNtCs7m3feRqGqA4_12tokio_rustls6server9TlsStreamNtNtNtNtCsfWKKmeeA0Vo_5tokio3net3tcp6stream9TcpStreamEENtNtNtB1Q_2io11async_write10AsyncWrite13poll_shutdownCs4v7etBR30tT_12h2_proxy_e2e
FNDA:12,_RINvMs3_NtCsiFMhfKJXoB5_5lb_l78h2_proxyNtB6_7H2Proxy16serve_connectionINtNtCs7m3feRqGqA4_12tokio_rustls6server9TlsStreamNtNtNtNtCsfWKKmeeA0Vo_5tokio3net3tcp6stream9TcpStreamEECsjqGwtXRutxH_23h2h1_md_coverage_driver
FNDA:12,_RINvMs3_NtCsiFMhfKJXoB5_5lb_l78h2_proxyNtB6_7H2Proxy28serve_connection_with_cancelINtNtCs7m3feRqGqA4_12tokio_rustls6server9TlsStreamNtNtNtNtCsfWKKmeeA0Vo_5tokio3net3tcp6stream9TcpStreamEECsjqGwtXRutxH_23h2h1_md_coverage_driver
FNDA:12,_RINvMs3_NtCsiFMhfKJXoB5_5lb_l78h2_proxyNtB6_7H2Proxy32serve_connection_with_cancel_sniINtNtCs7m3feRqGqA4_12tokio_rustls6server9TlsStreamNtNtNtNtCsfWKKmeeA0Vo_5tokio3net3tcp6stream9TcpStreamEECsjqGwtXRutxH_23h2h1_md_coverage_driver
FNDA:12,_RNCINvMs3_NtCsiFMhfKJXoB5_5lb_l78h2_proxyNtB8_7H2Proxy16serve_connectionINtNtCs7m3feRqGqA4_12tokio_rustls6server9TlsStreamNtNtNtNtCsfWKKmeeA0Vo_5tokio3net3tcp6stream9TcpStreamEE0CsjqGwtXRutxH_23h2h1_md_coverage_driver
FNDA:12,_RNCINvMs3_NtCsiFMhfKJXoB5_5lb_l78h2_proxyNtB8_7H2Proxy28serve_connection_with_cancelINtNtCs7m3feRqGqA4_12tokio_rustls6server9TlsStreamNtNtNtNtCsfWKKmeeA0Vo_5tokio3net3tcp6stream9TcpStreamEE0CsjqGwtXRutxH_23h2h1_md_coverage_driver
FNDA:12,_RNCINvMs3_NtCsiFMhfKJXoB5_5lb_l78h2_proxyNtB8_7H2Proxy32serve_connection_with_cancel_sniINtNtCs7m3feRqGqA4_12tokio_rustls6server9TlsStreamNtNtNtNtCsfWKKmeeA0Vo_5tokio3net3tcp6stream9TcpStreamEE0CsjqGwtXRutxH_23h2h1_md_coverage_driver
FNDA:0,_RNCNCINvMs3_NtCsiFMhfKJXoB5_5lb_l78h2_proxyNtBa_7H2Proxy32serve_connection_with_cancel_sniINtNtCs7m3feRqGqA4_12tokio_rustls6server9TlsStreamNtNtNtNtCsfWKKmeeA0Vo_5tokio3net3tcp6stream9TcpStreamEE00CsjqGwtXRutxH_23h2h1_md_coverage_driver
FNDA:0,_RNCNCNCINvMs3_NtCsiFMhfKJXoB5_5lb_l78h2_proxyNtBc_7H2Proxy32serve_connection_with_cancel_sniINtNtCs7m3feRqGqA4_12tokio_rustls6server9TlsStreamNtNtNtNtCsfWKKmeeA0Vo_5tokio3net3tcp6stream9TcpStreamEE000CsjqGwtXRutxH_23h2h1_md_coverage_driver
FNDA:12,_RNvMs0_NtCsiFMhfKJXoB5_5lb_l78h2_proxyINtB5_12CleanCloseIoINtNtCs7m3feRqGqA4_12tokio_rustls6server9TlsStreamNtNtNtNtCsfWKKmeeA0Vo_5tokio3net3tcp6stream9TcpStreamEE3newCsjqGwtXRutxH_23h2h1_md_coverage_driver
FNDA:942,_RNvXs1_NtCsiFMhfKJXoB5_5lb_l78h2_proxyINtB5_12CleanCloseIoINtNtCs7m3feRqGqA4_12tokio_rustls6server9TlsStreamNtNtNtNtCsfWKKmeeA0Vo_5tokio3net3tcp6stream9TcpStreamEENtNtNtB1Q_2io10async_read9AsyncRead9poll_readCsjqGwtXRutxH_23h2h1_md_coverage_driver
FNDA:226,_RNvXs2_NtCsiFMhfKJXoB5_5lb_l78h2_proxyINtB5_12CleanCloseIoINtNtCs7m3feRqGqA4_12tokio_rustls6server9TlsStreamNtNtNtNtCsfWKKmeeA0Vo_5tokio3net3tcp6stream9TcpStreamEENtNtNtB1Q_2io11async_write10AsyncWrite10poll_flushCsjqGwtXRutxH_23h2h1_md_coverage_driver
FNDA:115,_RNvXs2_NtCsiFMhfKJXoB5_5lb_l78h2_proxyINtB5_12CleanCloseIoINtNtCs7m3feRqGqA4_12tokio_rustls6server9TlsStreamNtNtNtNtCsfWKKmeeA0Vo_5tokio3net3tcp6stream9TcpStreamEENtNtNtB1Q_2io11async_write10AsyncWrite10poll_writeCsjqGwtXRutxH_23h2h1_md_coverage_driver
FNDA:17,_RNvXs2_NtCsiFMhfKJXoB5_5lb_l78h2_proxyINtB5_12CleanCloseIoINtNtCs7m3feRqGqA4_12tokio_rustls6server9TlsStreamNtNtNtNtCsfWKKmeeA0Vo_5tokio3net3tcp6stream9TcpStreamEENtNtNtB1Q_2io11async_write10AsyncWrite13poll_shutdownCsjqGwtXRutxH_23h2h1_md_coverage_driver
FNDA:21,_RINvMs3_NtCsiFMhfKJXoB5_5lb_l78h2_proxyNtB6_7H2Proxy16serve_connectionINtNtCs7m3feRqGqA4_12tokio_rustls6server9TlsStreamNtNtNtNtCsfWKKmeeA0Vo_5tokio3net3tcp6stream9TcpStreamEECsgWye6vtm8bK_24h2h1_md_streaming_verify
FNDA:21,_RINvMs3_NtCsiFMhfKJXoB5_5lb_l78h2_proxyNtB6_7H2Proxy28serve_connection_with_cancelINtNtCs7m3feRqGqA4_12tokio_rustls6server9TlsStreamNtNtNtNtCsfWKKmeeA0Vo_5tokio3net3tcp6stream9TcpStreamEECsgWye6vtm8bK_24h2h1_md_streaming_verify
FNDA:21,_RINvMs3_NtCsiFMhfKJXoB5_5lb_l78h2_proxyNtB6_7H2Proxy32serve_connection_with_cancel_sniINtNtCs7m3feRqGqA4_12tokio_rustls6server9TlsStreamNtNtNtNtCsfWKKmeeA0Vo_5tokio3net3tcp6stream9TcpStreamEECsgWye6vtm8bK_24h2h1_md_streaming_verify
FNDA:21,_RNCINvMs3_NtCsiFMhfKJXoB5_5lb_l78h2_proxyNtB8_7H2Proxy16serve_connectionINtNtCs7m3feRqGqA4_12tokio_rustls6server9TlsStreamNtNtNtNtCsfWKKmeeA0Vo_5tokio3net3tcp6stream9TcpStreamEE0CsgWye6vtm8bK_24h2h1_md_streaming_verify
FNDA:21,_RNCINvMs3_NtCsiFMhfKJXoB5_5lb_l78h2_proxyNtB8_7H2Proxy28serve_connection_with_cancelINtNtCs7m3feRqGqA4_12tokio_rustls6server9TlsStreamNtNtNtNtCsfWKKmeeA0Vo_5tokio3net3tcp6stream9TcpStreamEE0CsgWye6vtm8bK_24h2h1_md_streaming_verify
FNDA:21,_RNCINvMs3_NtCsiFMhfKJXoB5_5lb_l78h2_proxyNtB8_7H2Proxy32serve_connection_with_cancel_sniINtNtCs7m3feRqGqA4_12tokio_rustls6server9TlsStreamNtNtNtNtCsfWKKmeeA0Vo_5tokio3net3tcp6stream9TcpStreamEE0CsgWye6vtm8bK_24h2h1_md_streaming_verify
FNDA:0,_RNCNCINvMs3_NtCsiFMhfKJXoB5_5lb_l78h2_proxyNtBa_7H2Proxy32serve_connection_with_cancel_sniINtNtCs7m3feRqGqA4_12tokio_rustls6server9TlsStreamNtNtNtNtCsfWKKmeeA0Vo_5tokio3net3tcp6stream9TcpStreamEE00CsgWye6vtm8bK_24h2h1_md_streaming_verify
FNDA:0,_RNCNCNCINvMs3_NtCsiFMhfKJXoB5_5lb_l78h2_proxyNtBc_7H2Proxy32serve_connection_with_cancel_sniINtNtCs7m3feRqGqA4_12tokio_rustls6server9TlsStreamNtNtNtNtCsfWKKmeeA0Vo_5tokio3net3tcp6stream9TcpStreamEE000CsgWye6vtm8bK_24h2h1_md_streaming_verify
FNDA:21,_RNvMs0_NtCsiFMhfKJXoB5_5lb_l78h2_proxyINtB5_12CleanCloseIoINtNtCs7m3feRqGqA4_12tokio_rustls6server9TlsStreamNtNtNtNtCsfWKKmeeA0Vo_5tokio3net3tcp6stream9TcpStreamEE3newCsgWye6vtm8bK_24h2h1_md_streaming_verify
FNDA:20907,_RNvXs1_NtCsiFMhfKJXoB5_5lb_l78h2_proxyINtB5_12CleanCloseIoINtNtCs7m3feRqGqA4_12tokio_rustls6server9TlsStreamNtNtNtNtCsfWKKmeeA0Vo_5tokio3net3tcp6stream9TcpStreamEENtNtNtB1Q_2io10async_read9AsyncRead9poll_readCsgWye6vtm8bK_24h2h1_md_streaming_verify
FNDA:4853,_RNvXs2_NtCsiFMhfKJXoB5_5lb_l78h2_proxyINtB5_12CleanCloseIoINtNtCs7m3feRqGqA4_12tokio_rustls6server9TlsStreamNtNtNtNtCsfWKKmeeA0Vo_5tokio3net3tcp6stream9TcpStreamEENtNtNtB1Q_2io11async_write10AsyncWrite10poll_flushCsgWye6vtm8bK_24h2h1_md_streaming_verify
FNDA:3293,_RNvXs2_NtCsiFMhfKJXoB5_5lb_l78h2_proxyINtB5_12CleanCloseIoINtNtCs7m3feRqGqA4_12tokio_rustls6server9TlsStreamNtNtNtNtCsfWKKmeeA0Vo_5tokio3net3tcp6stream9TcpStreamEENtNtNtB1Q_2io11async_write10AsyncWrite10poll_writeCsgWye6vtm8bK_24h2h1_md_streaming_verify
FNDA:10,_RNvXs2_NtCsiFMhfKJXoB5_5lb_l78h2_proxyINtB5_12CleanCloseIoINtNtCs7m3feRqGqA4_12tokio_rustls6server9TlsStreamNtNtNtNtCsfWKKmeeA0Vo_5tokio3net3tcp6stream9TcpStreamEENtNtNtB1Q_2io11async_write10AsyncWrite13poll_shutdownCsgWye6vtm8bK_24h2h1_md_streaming_verify
FNF:121
FNH:37
DA:111,0
DA:112,0
DA:113,0
DA:297,37
DA:298,37
DA:299,37
DA:300,37
DA:301,37
DA:302,37
DA:303,37
DA:304,37
DA:305,37
DA:309,36261
DA:310,36261
DA:311,36261
DA:312,36261
DA:313,36261
DA:314,36261
DA:315,36261
DA:319,4454
DA:320,4454
DA:321,4454
DA:322,4454
DA:323,4454
DA:324,4454
DA:325,4454
DA:327,7172
DA:328,7172
DA:329,7172
DA:331,27
DA:332,27
DA:333,27
DA:334,27
DA:335,27
DA:336,27
DA:337,27
DA:338,27
DA:339,27
DA:340,27
DA:341,27
DA:342,27
DA:343,11
DA:344,8
DA:345,8
DA:346,8
DA:347,16
DA:357,24
DA:358,24
DA:360,132
DA:361,0
DA:362,132
DA:363,132
DA:364,132
DA:365,0
DA:367,132
DA:368,132
DA:370,110
DA:371,110
DA:375,2
DA:376,108
DA:377,108
DA:381,2
DA:392,20
DA:393,20
DA:394,0
DA:395,20
DA:397,0
DA:402,4
DA:403,0
DA:404,4
DA:405,27
DA:418,5
DA:419,5
DA:420,5
DA:421,5
DA:422,5
DA:423,5
DA:424,5
DA:425,5
DA:426,5
DA:427,5
DA:428,5
DA:429,5
DA:430,5
DA:431,5
DA:432,5
DA:433,5
DA:440,38
DA:441,38
DA:442,38
DA:443,38
DA:444,38
DA:445,38
DA:446,38
DA:447,38
DA:448,38
DA:449,38
DA:450,38
DA:451,38
DA:452,38
DA:453,38
DA:454,38
DA:455,38
DA:456,38
DA:457,38
DA:458,38
DA:459,38
DA:460,38
DA:461,38
DA:462,38
DA:463,38
DA:464,38
DA:465,38
DA:466,38
DA:467,38
DA:468,38
DA:478,0
DA:479,0
DA:480,0
DA:481,0
DA:482,0
DA:483,0
DA:484,0
DA:485,0
DA:486,0
DA:487,0
DA:488,0
DA:489,0
DA:490,0
DA:491,0
DA:492,0
DA:493,0
DA:494,0
DA:495,0
DA:496,0
DA:497,0
DA:498,0
DA:499,0
DA:500,0
DA:501,0
DA:502,0
DA:503,0
DA:504,0
DA:505,0
DA:512,0
DA:513,0
DA:514,0
DA:515,0
DA:523,0
DA:524,0
DA:525,0
DA:526,0
DA:547,0
DA:548,0
DA:549,0
DA:550,0
DA:551,0
DA:552,0
DA:553,0
DA:555,0
DA:557,0
DA:558,0
DA:559,0
DA:568,0
DA:569,0
DA:570,0
DA:571,0
DA:579,0
DA:580,0
DA:581,0
DA:582,0
DA:583,0
DA:584,0
DA:585,0
DA:590,0
DA:591,0
DA:592,0
DA:593,0
DA:598,0
DA:599,0
DA:600,0
DA:601,0
DA:606,0
DA:607,0
DA:608,0
DA:613,0
DA:614,0
DA:615,0
DA:620,0
DA:621,0
DA:622,0
DA:623,0
DA:634,0
DA:635,0
DA:636,0
DA:637,0
DA:638,0
DA:652,37
DA:653,37
DA:654,37
DA:655,37
DA:656,37
DA:657,37
DA:658,37
DA:659,37
DA:660,37
DA:661,11
DA:681,37
DA:682,37
DA:683,37
DA:684,37
DA:685,37
DA:686,37
DA:687,37
DA:688,37
DA:689,37
DA:690,37
DA:691,37
DA:692,37
DA:693,37
DA:694,37
DA:695,11
DA:704,37
DA:705,37
DA:706,37
DA:707,37
DA:708,37
DA:709,37
DA:710,37
DA:711,37
DA:712,37
DA:713,37
DA:714,37
DA:715,37
DA:716,37
DA:717,37
DA:718,37
DA:719,37
DA:720,37
DA:721,37
DA:722,37
DA:723,37
DA:724,37
DA:725,37
DA:726,0
DA:727,0
DA:728,0
DA:729,0
DA:730,0
DA:731,0
DA:732,0
DA:733,0
DA:734,0
DA:735,0
DA:736,0
DA:737,0
DA:738,0
DA:739,0
DA:740,0
DA:741,0
DA:742,37
DA:743,37
DA:744,37
DA:745,37
DA:746,37
DA:747,37
DA:748,37
DA:749,37
DA:750,37
DA:751,37
DA:752,37
DA:753,37
DA:754,37
DA:755,37
DA:756,37
DA:757,37
DA:758,37
DA:759,37
DA:760,37
DA:761,37
DA:762,37
DA:763,37
DA:764,37
DA:765,37
DA:766,37
DA:767,37
DA:768,37
DA:769,37
DA:770,37
DA:771,37
DA:772,37
DA:773,37
DA:774,37
DA:775,37
DA:776,37
DA:777,37
DA:778,37
DA:779,37
DA:780,37
DA:781,37
DA:782,37
DA:786,37
DA:790,0
DA:791,0
DA:792,0
DA:793,0
DA:794,0
DA:795,0
DA:796,0
DA:797,0
DA:798,0
DA:799,0
DA:800,0
DA:803,37
DA:804,4
DA:805,7
DA:807,37
DA:808,0
DA:809,0
DA:810,0
DA:812,11
DA:836,0
DA:837,0
DA:838,0
DA:839,0
DA:840,0
DA:841,0
DA:842,0
DA:843,0
DA:844,0
DA:845,0
DA:846,0
DA:848,0
DA:850,0
DA:871,45
DA:872,45
DA:873,45
DA:874,45
DA:875,45
DA:876,45
DA:877,45
DA:878,45
DA:879,45
DA:891,45
DA:892,45
DA:893,45
DA:894,45
DA:895,45
DA:896,45
DA:897,45
DA:899,45
DA:900,45
DA:901,45
DA:902,45
DA:903,45
DA:904,45
DA:905,45
DA:906,45
DA:907,45
DA:908,45
DA:909,45
DA:910,45
DA:911,45
DA:912,45
DA:913,45
DA:914,45
DA:915,45
DA:916,45
DA:917,45
DA:918,45
DA:919,43
DA:920,43
DA:921,43
DA:923,45
DA:924,45
DA:925,45
DA:926,45
DA:927,45
DA:928,45
DA:929,45
DA:942,45
DA:943,0
DA:947,0
DA:951,0
DA:952,0
DA:953,0
DA:954,0
DA:955,45
DA:956,45
DA:957,45
DA:958,45
DA:959,45
DA:960,45
DA:961,45
DA:962,45
DA:963,45
DA:965,0
DA:966,45
DA:967,45
DA:968,45
DA:969,45
DA:970,45
DA:977,0
DA:978,0
DA:980,0
DA:981,0
DA:982,0
DA:983,0
DA:984,0
DA:985,0
DA:986,0
DA:987,45
DA:988,45
DA:989,45
DA:990,45
DA:991,45
DA:992,45
DA:993,45
DA:994,45
DA:995,45
DA:997,45
DA:998,45
DA:999,45
DA:1000,63
DA:1006,0
DA:1007,0
DA:1008,0
DA:1009,0
DA:1010,0
DA:1011,0
DA:1012,0
DA:1013,45
DA:1016,0
DA:1017,0
DA:1018,0
DA:1019,0
DA:1020,0
DA:1021,0
DA:1023,0
DA:1025,0
DA:1026,0
DA:1027,0
DA:1028,0
DA:1029,0
DA:1031,0
DA:1038,45
DA:1039,45
DA:1040,45
DA:1041,45
DA:1042,45
DA:1043,108
DA:1044,63
DA:1045,63
DA:1046,45
DA:1048,45
DA:1049,0
DA:1050,45
DA:1051,45
DA:1052,45
DA:1053,45
DA:1054,45
DA:1055,45
DA:1056,45
DA:1057,45
DA:1058,45
DA:1059,45
DA:1060,45
DA:1061,63
DA:1062,63
DA:1063,63
DA:1064,63
DA:1065,63
DA:1066,45
DA:1067,45
DA:1068,0
DA:1073,0
DA:1074,0
DA:1075,0
DA:1076,0
DA:1077,45
DA:1090,45
DA:1091,0
DA:1094,0
DA:1095,0
DA:1096,0
DA:1097,0
DA:1098,45
DA:1099,45
DA:1100,45
DA:1101,45
DA:1102,45
DA:1103,45
DA:1104,45
DA:1105,45
DA:1106,45
DA:1107,45
DA:1108,45
DA:1109,45
DA:1110,45
DA:1111,45
DA:1112,0
DA:1113,0
DA:1114,0
DA:1115,0
DA:1116,0
DA:1117,0
DA:1118,0
DA:1119,0
DA:1120,0
DA:1121,0
DA:1122,0
DA:1123,0
DA:1124,0
DA:1126,0
DA:1130,0
DA:1134,0
DA:1135,0
DA:1136,0
DA:1137,0
DA:1138,0
DA:1139,0
DA:1140,45
DA:1144,45
DA:1145,0
DA:1146,0
DA:1147,0
DA:1148,0
DA:1149,0
DA:1150,0
DA:1151,0
DA:1152,0
DA:1153,0
DA:1154,0
DA:1155,0
DA:1156,0
DA:1157,0
DA:1158,0
DA:1159,0
DA:1160,0
DA:1161,0
DA:1162,45
DA:1163,45
DA:1164,45
DA:1165,45
DA:1166,45
DA:1167,45
DA:1168,45
DA:1169,45
DA:1170,45
DA:1171,45
DA:1172,0
DA:1173,0
DA:1174,0
DA:1175,0
DA:1176,0
DA:1177,45
DA:1178,45
DA:1179,45
DA:1180,45
DA:1181,45
DA:1182,45
DA:1183,45
DA:1184,45
DA:1185,45
DA:1186,45
DA:1187,45
DA:1188,45
DA:1189,45
DA:1190,45
DA:1191,45
DA:1192,45
DA:1193,45
DA:1194,45
DA:1195,45
DA:1196,0
DA:1197,0
DA:1198,45
DA:1201,45
DA:1202,0
DA:1205,45
DA:1206,45
DA:1207,32
DA:1208,2
DA:1210,0
DA:1214,2
DA:1215,2
DA:1216,2
DA:1217,2
DA:1222,7
DA:1224,0
DA:1225,0
DA:1229,43
DA:1230,0
DA:1231,43
DA:1232,43
DA:1233,43
DA:1242,0
DA:1243,0
DA:1244,0
DA:1245,0
DA:1246,0
DA:1247,0
DA:1249,0
DA:1250,0
DA:1252,0
DA:1253,0
DA:1254,0
DA:1255,0
DA:1256,0
DA:1257,0
DA:1258,0
DA:1259,0
DA:1260,0
DA:1261,0
DA:1262,0
DA:1263,0
DA:1264,0
DA:1265,0
DA:1266,0
DA:1267,0
DA:1268,0
DA:1269,0
DA:1270,0
DA:1271,0
DA:1272,0
DA:1273,0
DA:1282,0
DA:1283,0
DA:1284,0
DA:1285,0
DA:1286,0
DA:1289,0
DA:1290,0
DA:1291,0
DA:1294,0
DA:1295,0
DA:1296,0
DA:1297,0
DA:1298,0
DA:1301,0
DA:1302,0
DA:1303,0
DA:1304,0
DA:1305,0
DA:1306,0
DA:1307,0
DA:1309,0
DA:1310,0
DA:1311,0
DA:1312,0
DA:1316,0
DA:1317,0
DA:1318,0
DA:1319,0
DA:1320,0
DA:1321,0
DA:1322,0
DA:1323,0
DA:1324,0
DA:1325,0
DA:1326,0
DA:1327,0
DA:1328,0
DA:1329,0
DA:1330,0
DA:1331,0
DA:1333,45
DA:1334,45
DA:1335,45
DA:1336,45
DA:1337,45
DA:1338,45
DA:1339,45
DA:1340,45
DA:1341,45
DA:1342,45
DA:1343,45
DA:1344,45
DA:1345,45
DA:1346,45
DA:1347,45
DA:1348,45
DA:1349,45
DA:1350,45
DA:1351,45
DA:1352,45
DA:1353,45
DA:1354,45
DA:1355,45
DA:1356,45
DA:1357,45
DA:1358,45
DA:1359,45
DA:1360,45
DA:1361,45
DA:1362,45
DA:1363,45
DA:1364,45
DA:1396,45
DA:1397,45
DA:1398,45
DA:1399,45
DA:1400,45
DA:1401,45
DA:1402,45
DA:1409,220
DA:1410,220
DA:1411,220
DA:1412,220
DA:1413,220
DA:1414,220
DA:1415,18
DA:1416,202
DA:1417,202
DA:1418,202
DA:1428,20
DA:1429,19
DA:1430,19
DA:1431,1
DA:1432,1
DA:1433,1
DA:1434,1
DA:1435,1
DA:1436,1
DA:1438,176
DA:1439,176
DA:1443,175
DA:1444,175
DA:1445,0
DA:1446,175
DA:1447,1
DA:1448,176
DA:1449,175
DA:1450,175
DA:1451,175
DA:1454,1
DA:1455,1
DA:1456,1
DA:1457,0
DA:1459,6
DA:1460,6
DA:1461,6
DA:1462,6
DA:1463,6
DA:1464,6
DA:1465,6
DA:1466,6
DA:1467,6
DA:1472,38
DA:1478,20
DA:1480,20
DA:1481,20
DA:1482,0
DA:1483,20
DA:1484,20
DA:1485,20
DA:1486,20
DA:1487,20
DA:1488,20
DA:1489,20
DA:1490,20
DA:1491,20
DA:1492,20
DA:1493,20
DA:1494,20
DA:1495,20
DA:1496,20
DA:1497,20
DA:1498,20
DA:1499,20
DA:1500,20
DA:1501,20
DA:1502,20
DA:1503,19
DA:1504,1
DA:1505,1
DA:1506,1
DA:1509,0
DA:1510,0
DA:1513,19
DA:1514,19
DA:1515,18
DA:1519,18
DA:1520,18
DA:1521,18
DA:1522,18
DA:1523,18
DA:1524,18
DA:1525,18
DA:1526,18
DA:1532,18
DA:1533,18
DA:1534,18
DA:1535,18
DA:1536,18
DA:1537,18
DA:1538,18
DA:1539,18
DA:1540,18
DA:1541,18
DA:1542,18
DA:1543,18
DA:1544,18
DA:1545,18
DA:1546,18
DA:1547,18
DA:1548,18
DA:1549,18
DA:1550,18
DA:1551,18
DA:1552,18
DA:1553,18
DA:1554,18
DA:1555,18
DA:1556,18
DA:1557,18
DA:1558,18
DA:1559,18
DA:1560,18
DA:1561,18
DA:1562,18
DA:1563,18
DA:1564,18
DA:1565,18
DA:1566,18
DA:1567,18
DA:1568,26397
DA:1569,26397
DA:1570,20241
DA:1571,20239
DA:1572,20239
DA:1573,20239
DA:1574,6158
DA:1575,26397
DA:1576,26397
DA:1577,18
DA:1578,18
DA:1579,18
DA:1580,18
DA:1581,18
DA:1582,18
DA:1583,18
DA:1584,18
DA:1585,18
DA:1586,18
DA:1587,18
DA:1588,18
DA:1589,18
DA:1590,18
DA:1591,18
DA:1592,18
DA:1593,18
DA:1674,0
DA:1696,124
DA:1697,195
DA:1700,0
DA:1701,0
DA:1702,106
DA:1706,10831
DA:1731,15
DA:1732,14
DA:1733,14
DA:1734,14
DA:1735,14
DA:1736,14
DA:1742,1
DA:1743,1
DA:1744,1
DA:1745,1
DA:1746,1
DA:1747,1
DA:1749,15
DA:1751,10815
DA:1752,10815
DA:1755,0
DA:1757,0
DA:1758,0
DA:1759,0
DA:1761,0
DA:1762,0
DA:1763,0
DA:1764,0
DA:1765,0
DA:1766,0
DA:1767,0
DA:1768,0
DA:1771,10815
DA:1772,10815
DA:1773,10815
DA:1774,10815
DA:1782,2
DA:1783,2
DA:1784,2
DA:1785,10813
DA:1786,20044
DA:1790,0
DA:1791,0
DA:1792,10813
DA:1793,0
DA:1795,0
DA:1796,0
DA:1797,0
DA:1798,0
DA:1799,0
DA:1800,0
DA:1801,0
DA:1802,0
DA:1803,0
DA:1804,0
DA:1805,0
DA:1806,0
DA:1807,0
DA:1808,0
DA:1809,0
DA:1810,0
DA:1814,18
DA:1815,18
DA:1816,18
DA:1817,18
DA:1818,18
DA:1819,18
DA:1820,18
DA:1821,13
DA:1822,3
DA:1835,3
DA:1836,2
DA:1837,2
DA:1842,1
DA:1844,3
DA:1845,3
DA:1846,3
DA:1847,3
DA:1848,3
DA:1851,0
DA:1852,0
DA:1853,0
DA:1859,13
DA:1861,13
DA:1862,13
DA:1864,0
DA:1865,0
DA:1866,0
DA:1867,0
DA:1868,0
DA:1873,0
DA:1874,0
DA:1875,0
DA:1876,0
DA:1879,43
DA:1881,32
DA:1882,32
DA:1883,32
DA:1884,32
DA:1885,32
DA:1886,32
DA:1887,32
DA:1888,1
DA:1889,1
DA:1890,1
DA:1891,31
DA:1892,32
DA:1893,32
DA:1896,0
DA:1897,0
DA:1898,0
DA:1899,0
DA:1900,0
DA:1901,0
DA:1902,0
DA:1903,0
DA:1904,0
DA:1905,0
DA:1907,0
DA:1908,0
DA:1909,0
DA:1911,0
DA:1912,0
DA:1914,0
DA:1916,0
DA:1918,0
DA:1921,0
DA:1922,0
DA:1923,0
DA:1924,0
DA:1925,0
DA:1926,0
DA:1927,0
DA:1928,0
DA:1929,0
DA:1930,0
DA:1932,0
DA:1933,0
DA:1934,0
DA:1935,0
DA:1936,0
DA:1938,0
DA:1939,0
DA:1940,0
DA:1941,0
DA:1942,0
DA:1943,0
DA:1944,0
DA:1945,0
DA:1946,0
DA:1947,0
DA:1948,0
DA:1961,0
DA:1962,0
DA:1963,0
DA:1964,0
DA:1966,0
DA:1967,0
DA:1968,0
DA:1969,0
DA:1970,0
DA:1971,0
DA:1975,0
DA:1976,0
DA:1977,0
DA:1978,0
DA:1979,0
DA:1980,0
DA:1981,0
DA:1982,0
DA:1983,0
DA:1984,0
DA:1985,0
DA:1986,0
DA:1987,0
DA:1988,0
DA:1989,0
DA:1990,0
DA:1991,0
DA:1992,0
DA:1993,0
DA:1994,0
DA:1995,0
DA:1996,0
DA:1997,0
DA:1998,0
DA:1999,0
DA:2000,0
DA:2001,0
DA:2002,0
DA:2003,0
DA:2004,0
DA:2005,0
DA:2006,0
DA:2007,0
DA:2008,0
DA:2009,0
DA:2010,0
DA:2011,0
DA:2012,0
DA:2013,0
DA:2014,0
DA:2015,0
DA:2016,0
DA:2017,0
DA:2018,0
DA:2019,0
DA:2020,0
DA:2021,0
DA:2022,0
DA:2023,0
DA:2024,0
DA:2025,0
DA:2026,0
DA:2027,0
DA:2029,0
DA:2030,0
DA:2031,0
DA:2033,0
DA:2034,0
DA:2035,0
DA:2036,0
DA:2037,0
DA:2038,0
DA:2039,0
DA:2040,0
DA:2041,0
DA:2042,0
DA:2043,0
DA:2044,0
DA:2045,0
DA:2046,0
DA:2047,0
DA:2048,0
DA:2053,0
DA:2054,0
DA:2055,0
DA:2056,0
DA:2057,0
DA:2058,0
DA:2069,0
DA:2070,0
DA:2071,0
DA:2072,0
DA:2073,0
DA:2074,0
DA:2075,0
DA:2076,0
DA:2077,0
DA:2078,0
DA:2079,0
DA:2080,0
DA:2082,0
DA:2083,0
DA:2084,0
DA:2094,20
DA:2095,20
DA:2096,20
DA:2097,20
DA:2098,20
DA:2099,2
DA:2100,1
DA:2101,0
DA:2102,0
DA:2103,0
DA:2104,1
DA:2105,1
DA:2106,1
DA:2107,1
DA:2109,19
DA:2110,20
DA:2111,20
DA:2116,20
DA:2117,20
DA:2118,5
DA:2119,15
DA:2120,15
DA:2121,34
DA:2122,19
DA:2123,19
DA:2124,15
DA:2125,20
DA:2127,20
DA:2128,20
DA:2129,20
DA:2130,20
DA:2135,20
DA:2136,19
DA:2137,19
DA:2138,19
DA:2139,1
DA:2140,1
DA:2141,2
DA:2142,1
DA:2143,1
DA:2144,1
DA:2145,1
DA:2146,1
DA:2147,1
DA:2149,1
DA:2150,0
DA:2152,1
DA:2154,1
DA:2155,20
DA:2159,0
DA:2160,0
DA:2161,0
DA:2162,0
DA:2163,0
DA:2165,0
DA:2166,0
DA:2167,0
DA:2168,0
DA:2171,0
DA:2172,0
DA:2173,0
DA:2174,0
DA:2175,0
DA:2176,0
DA:2177,0
DA:2178,0
DA:2179,0
DA:2180,0
DA:2181,0
DA:2182,0
DA:2183,0
DA:2184,0
DA:2185,0
DA:2186,0
DA:2187,0
DA:2188,0
DA:2189,0
DA:2190,0
DA:2191,0
DA:2192,0
DA:2193,0
DA:2194,0
DA:2195,0
DA:2196,0
DA:2197,0
DA:2198,0
DA:2199,0
DA:2200,0
DA:2201,0
DA:2202,0
DA:2203,0
DA:2204,0
DA:2205,0
DA:2206,0
DA:2209,0
DA:2210,0
DA:2211,0
DA:2212,0
DA:2213,0
DA:2214,0
DA:2215,0
DA:2217,0
DA:2218,0
DA:2219,0
DA:2220,0
DA:2221,0
DA:2223,0
DA:2224,0
DA:2225,0
DA:2226,0
DA:2227,0
DA:2228,0
DA:2229,0
DA:2230,0
DA:2240,0
DA:2241,0
DA:2242,0
DA:2243,0
DA:2244,0
DA:2246,0
DA:2247,0
DA:2248,0
DA:2249,0
DA:2250,0
DA:2251,0
DA:2255,0
DA:2256,0
DA:2257,0
DA:2258,0
DA:2259,0
DA:2260,0
DA:2261,0
DA:2262,0
DA:2263,0
DA:2264,0
DA:2265,0
DA:2266,0
DA:2267,0
DA:2268,0
DA:2269,0
DA:2270,0
DA:2271,0
DA:2272,0
DA:2273,0
DA:2274,0
DA:2275,0
DA:2276,0
DA:2277,0
DA:2278,0
DA:2279,0
DA:2280,0
DA:2281,0
DA:2282,0
DA:2283,0
DA:2284,0
DA:2285,0
DA:2286,0
DA:2287,0
DA:2288,0
DA:2289,0
DA:2290,0
DA:2291,0
DA:2292,0
DA:2293,0
DA:2294,0
DA:2295,0
DA:2296,0
DA:2297,0
DA:2298,0
DA:2299,0
DA:2300,0
DA:2301,0
DA:2302,0
DA:2303,0
DA:2304,0
DA:2305,0
DA:2306,0
DA:2307,0
DA:2308,0
DA:2309,0
DA:2310,0
DA:2311,0
DA:2315,0
DA:2316,0
DA:2317,0
DA:2318,0
DA:2319,0
DA:2320,0
DA:2321,0
DA:2322,0
DA:2323,0
DA:2324,0
DA:2325,0
DA:2326,0
DA:2327,0
DA:2328,0
DA:2329,0
DA:2330,0
DA:2331,0
DA:2332,0
DA:2333,0
DA:2334,0
DA:2335,0
DA:2336,0
DA:2337,0
DA:2340,0
DA:2341,0
DA:2342,0
DA:2343,0
DA:2344,0
DA:2345,0
DA:2346,0
DA:2348,0
DA:2349,0
DA:2350,0
DA:2351,0
DA:2352,0
DA:2355,0
DA:2356,0
DA:2357,0
DA:2358,0
DA:2359,0
DA:2360,0
DA:2361,0
DA:2362,0
DA:2382,11
DA:2383,11
DA:2384,11
DA:2385,11
DA:2386,11
DA:2387,11
DA:2388,11
DA:2389,11
DA:2406,45
DA:2407,45
DA:2408,45
DA:2409,45
DA:2410,45
DA:2411,45
DA:2412,45
DA:2413,45
DA:2414,45
DA:2415,0
DA:2416,0
DA:2417,0
DA:2419,0
DA:2422,45
DA:2424,45
DA:2437,0
DA:2438,0
DA:2439,0
DA:2440,0
DA:2441,0
DA:2442,0
DA:2443,0
DA:2444,0
DA:2445,0
DA:2446,0
DA:2447,0
DA:2449,0
DA:2451,0
DA:2458,0
DA:2459,0
DA:2461,0
DA:2462,0
DA:2463,0
DA:2464,0
DA:2465,0
DA:2466,0
DA:2467,0
DA:2468,0
DA:2469,0
DA:2470,0
DA:2471,0
DA:2473,0
DA:2494,20460
DA:2496,20460
DA:2497,20460
DA:2498,31
DA:2499,31
DA:2500,31
DA:2501,31
DA:2502,31
DA:2503,31
DA:2504,31
DA:2505,0
DA:2508,20460
BRF:0
BRH:0
LF:1495
LH:709
end_of_record
SF:/home/ubuntu/Code/s9-verifier/crates/lb-l7/src/h2_security.rs
FN:111,_RINvMs_NtCsiFMhfKJXoB5_5lb_l711h2_securityNtB5_20H2SecurityThresholds5applypEB7_
FN:104,_RNvMs_NtCsiFMhfKJXoB5_5lb_l711h2_securityNtB4_20H2SecurityThresholds22from_detector_defaults
FN:73,_RNvXNtCsiFMhfKJXoB5_5lb_l711h2_securityNtB2_20H2SecurityThresholdsNtNtCs2va5m0jqTTM_4core7default7Default7default
FN:111,_RINvMs_NtCsiFMhfKJXoB5_5lb_l711h2_securityNtB5_20H2SecurityThresholds5applyNtNtNtCs86YdmMopYMP_10hyper_util2rt5tokio13TokioExecutorECs4v7etBR30tT_12h2_proxy_e2e
FN:111,_RINvMs_NtCsiFMhfKJXoB5_5lb_l711h2_securityNtB5_20H2SecurityThresholds5applyNtNtNtCs86YdmMopYMP_10hyper_util2rt5tokio13TokioExecutorECsjqGwtXRutxH_23h2h1_md_coverage_driver
FN:111,_RINvMs_NtCsiFMhfKJXoB5_5lb_l711h2_securityNtB5_20H2SecurityThresholds5applyNtNtNtCs86YdmMopYMP_10hyper_util2rt5tokio13TokioExecutorECsgWye6vtm8bK_24h2h1_md_streaming_verify
FNDA:0,_RINvMs_NtCsiFMhfKJXoB5_5lb_l711h2_securityNtB5_20H2SecurityThresholds5applypEB7_
FNDA:0,_RNvMs_NtCsiFMhfKJXoB5_5lb_l711h2_securityNtB4_20H2SecurityThresholds22from_detector_defaults
FNDA:38,_RNvXNtCsiFMhfKJXoB5_5lb_l711h2_securityNtB2_20H2SecurityThresholdsNtNtCs2va5m0jqTTM_4core7default7Default7default
FNDA:4,_RINvMs_NtCsiFMhfKJXoB5_5lb_l711h2_securityNtB5_20H2SecurityThresholds5applyNtNtNtCs86YdmMopYMP_10hyper_util2rt5tokio13TokioExecutorECs4v7etBR30tT_12h2_proxy_e2e
FNDA:12,_RINvMs_NtCsiFMhfKJXoB5_5lb_l711h2_securityNtB5_20H2SecurityThresholds5applyNtNtNtCs86YdmMopYMP_10hyper_util2rt5tokio13TokioExecutorECsjqGwtXRutxH_23h2h1_md_coverage_driver
FNDA:21,_RINvMs_NtCsiFMhfKJXoB5_5lb_l711h2_securityNtB5_20H2SecurityThresholds5applyNtNtNtCs86YdmMopYMP_10hyper_util2rt5tokio13TokioExecutorECsgWye6vtm8bK_24h2h1_md_streaming_verify
FNF:3
FNH:2
DA:73,38
DA:74,38
DA:75,38
DA:76,38
DA:77,38
DA:78,38
DA:79,38
DA:80,38
DA:81,38
DA:82,38
DA:83,38
DA:84,38
DA:85,38
DA:86,38
DA:87,38
DA:88,38
DA:89,38
DA:90,38
DA:91,38
DA:92,38
DA:93,38
DA:94,38
DA:95,38
DA:96,38
DA:104,0
DA:105,0
DA:106,0
DA:111,37
DA:112,37
DA:113,37
DA:114,37
DA:115,37
DA:116,37
DA:117,37
DA:118,37
DA:119,37
DA:120,37
DA:121,37
DA:122,37
BRF:0
BRH:0
LF:39
LH:36
end_of_record
SF:/home/ubuntu/Code/s9-verifier/crates/lb-l7/src/h2_to_h1.rs
FN:139,_RNCNCNvXNtCsiFMhfKJXoB5_5lb_l78h2_to_h1NtB6_12H2ToH1BridgeNtB8_6Bridge15bridge_response00B8_
FN:195,_RNCNvNtCsiFMhfKJXoB5_5lb_l78h2_to_h115split_host_port0B5_
FN:200,_RNCNvNtCsiFMhfKJXoB5_5lb_l78h2_to_h115split_host_ports_0B5_
FN:79,_RNCNvXNtCsiFMhfKJXoB5_5lb_l78h2_to_h1NtB4_12H2ToH1BridgeNtB6_6Bridge14bridge_request0B6_
FN:86,_RNCNvXNtCsiFMhfKJXoB5_5lb_l78h2_to_h1NtB4_12H2ToH1BridgeNtB6_6Bridge14bridge_requests0_0B6_
FN:101,_RNCNvXNtCsiFMhfKJXoB5_5lb_l78h2_to_h1NtB4_12H2ToH1BridgeNtB6_6Bridge14bridge_requests1_0B6_
FN:85,_RNCNvXNtCsiFMhfKJXoB5_5lb_l78h2_to_h1NtB4_12H2ToH1BridgeNtB6_6Bridge14bridge_requests_0B6_
FN:134,_RNCNvXNtCsiFMhfKJXoB5_5lb_l78h2_to_h1NtB4_12H2ToH1BridgeNtB6_6Bridge15bridge_response0B6_
FN:141,_RNCNvXNtCsiFMhfKJXoB5_5lb_l78h2_to_h1NtB4_12H2ToH1BridgeNtB6_6Bridge15bridge_responses_0B6_
FN:189,_RNvNtCsiFMhfKJXoB5_5lb_l78h2_to_h115split_host_port
FN:170,_RNvNtCsiFMhfKJXoB5_5lb_l78h2_to_h131authority_host_components_agree
FN:159,_RNvXNtCsiFMhfKJXoB5_5lb_l78h2_to_h1NtB2_12H2ToH1BridgeNtB4_6Bridge13dest_protocol
FN:39,_RNvXNtCsiFMhfKJXoB5_5lb_l78h2_to_h1NtB2_12H2ToH1BridgeNtB4_6Bridge14bridge_request
FN:128,_RNvXNtCsiFMhfKJXoB5_5lb_l78h2_to_h1NtB2_12H2ToH1BridgeNtB4_6Bridge15bridge_response
FN:155,_RNvXNtCsiFMhfKJXoB5_5lb_l78h2_to_h1NtB2_12H2ToH1BridgeNtB4_6Bridge15source_protocol
FNDA:0,_RNCNCNvXNtCsiFMhfKJXoB5_5lb_l78h2_to_h1NtB6_12H2ToH1BridgeNtB8_6Bridge15bridge_response00B8_
FNDA:0,_RNCNvNtCsiFMhfKJXoB5_5lb_l78h2_to_h115split_host_port0B5_
FNDA:0,_RNCNvNtCsiFMhfKJXoB5_5lb_l78h2_to_h115split_host_ports_0B5_
FNDA:0,_RNCNvXNtCsiFMhfKJXoB5_5lb_l78h2_to_h1NtB4_12H2ToH1BridgeNtB6_6Bridge14bridge_request0B6_
FNDA:0,_RNCNvXNtCsiFMhfKJXoB5_5lb_l78h2_to_h1NtB4_12H2ToH1BridgeNtB6_6Bridge14bridge_requests0_0B6_
FNDA:0,_RNCNvXNtCsiFMhfKJXoB5_5lb_l78h2_to_h1NtB4_12H2ToH1BridgeNtB6_6Bridge14bridge_requests1_0B6_
FNDA:0,_RNCNvXNtCsiFMhfKJXoB5_5lb_l78h2_to_h1NtB4_12H2ToH1BridgeNtB6_6Bridge14bridge_requests_0B6_
FNDA:0,_RNCNvXNtCsiFMhfKJXoB5_5lb_l78h2_to_h1NtB4_12H2ToH1BridgeNtB6_6Bridge15bridge_response0B6_
FNDA:0,_RNCNvXNtCsiFMhfKJXoB5_5lb_l78h2_to_h1NtB4_12H2ToH1BridgeNtB6_6Bridge15bridge_responses_0B6_
FNDA:0,_RNvNtCsiFMhfKJXoB5_5lb_l78h2_to_h115split_host_port
FNDA:0,_RNvNtCsiFMhfKJXoB5_5lb_l78h2_to_h131authority_host_components_agree
FNDA:0,_RNvXNtCsiFMhfKJXoB5_5lb_l78h2_to_h1NtB2_12H2ToH1BridgeNtB4_6Bridge13dest_protocol
FNDA:0,_RNvXNtCsiFMhfKJXoB5_5lb_l78h2_to_h1NtB2_12H2ToH1BridgeNtB4_6Bridge14bridge_request
FNDA:0,_RNvXNtCsiFMhfKJXoB5_5lb_l78h2_to_h1NtB2_12H2ToH1BridgeNtB4_6Bridge15bridge_response
FNDA:0,_RNvXNtCsiFMhfKJXoB5_5lb_l78h2_to_h1NtB2_12H2ToH1BridgeNtB4_6Bridge15source_protocol
FNF:15
FNH:0
DA:39,0
DA:40,0
DA:42,0
DA:43,0
DA:44,0
DA:45,0
DA:48,0
DA:49,0
DA:50,0
DA:51,0
DA:52,0
DA:53,0
DA:54,0
DA:55,0
DA:56,0
DA:57,0
DA:58,0
DA:59,0
DA:78,0
DA:79,0
DA:84,0
DA:85,0
DA:86,0
DA:98,0
DA:99,0
DA:100,0
DA:101,0
DA:103,0
DA:104,0
DA:105,0
DA:106,0
DA:107,0
DA:108,0
DA:109,0
DA:110,0
DA:111,0
DA:113,0
DA:114,0
DA:115,0
DA:117,0
DA:118,0
DA:119,0
DA:120,0
DA:121,0
DA:122,0
DA:123,0
DA:124,0
DA:125,0
DA:126,0
DA:128,0
DA:129,0
DA:131,0
DA:132,0
DA:133,0
DA:134,0
DA:135,0
DA:136,0
DA:137,0
DA:138,0
DA:139,0
DA:140,0
DA:141,0
DA:142,0
DA:143,0
DA:144,0
DA:146,0
DA:147,0
DA:148,0
DA:149,0
DA:150,0
DA:151,0
DA:152,0
DA:153,0
DA:155,0
DA:156,0
DA:157,0
DA:159,0
DA:160,0
DA:161,0
DA:170,0
DA:171,0
DA:172,0
DA:173,0
DA:174,0
DA:175,0
DA:176,0
DA:177,0
DA:178,0
DA:179,0
DA:180,0
DA:181,0
DA:183,0
DA:189,0
DA:190,0
DA:191,0
DA:192,0
DA:193,0
DA:194,0
DA:195,0
DA:196,0
DA:197,0
DA:198,0
DA:199,0
DA:200,0
DA:201,0
DA:203,0
BRF:0
BRH:0
LF:116
LH:0
end_of_record
SF:/home/ubuntu/Code/s9-verifier/crates/lb-l7/src/h2_to_h2.rs
FN:18,_RNCNvXNtCsiFMhfKJXoB5_5lb_l78h2_to_h2NtB4_12H2ToH2BridgeNtB6_6Bridge14bridge_request0B6_
FN:44,_RNCNvXNtCsiFMhfKJXoB5_5lb_l78h2_to_h2NtB4_12H2ToH2BridgeNtB6_6Bridge15bridge_response0B6_
FN:60,_RNvXNtCsiFMhfKJXoB5_5lb_l78h2_to_h2NtB2_12H2ToH2BridgeNtB4_6Bridge13dest_protocol
FN:12,_RNvXNtCsiFMhfKJXoB5_5lb_l78h2_to_h2NtB2_12H2ToH2BridgeNtB4_6Bridge14bridge_request
FN:38,_RNvXNtCsiFMhfKJXoB5_5lb_l78h2_to_h2NtB2_12H2ToH2BridgeNtB4_6Bridge15bridge_response
FN:56,_RNvXNtCsiFMhfKJXoB5_5lb_l78h2_to_h2NtB2_12H2ToH2BridgeNtB4_6Bridge15source_protocol
FNDA:0,_RNCNvXNtCsiFMhfKJXoB5_5lb_l78h2_to_h2NtB4_12H2ToH2BridgeNtB6_6Bridge14bridge_request0B6_
FNDA:0,_RNCNvXNtCsiFMhfKJXoB5_5lb_l78h2_to_h2NtB4_12H2ToH2BridgeNtB6_6Bridge15bridge_response0B6_
FNDA:0,_RNvXNtCsiFMhfKJXoB5_5lb_l78h2_to_h2NtB2_12H2ToH2BridgeNtB4_6Bridge13dest_protocol
FNDA:0,_RNvXNtCsiFMhfKJXoB5_5lb_l78h2_to_h2NtB2_12H2ToH2BridgeNtB4_6Bridge14bridge_request
FNDA:0,_RNvXNtCsiFMhfKJXoB5_5lb_l78h2_to_h2NtB2_12H2ToH2BridgeNtB4_6Bridge15bridge_response
FNDA:0,_RNvXNtCsiFMhfKJXoB5_5lb_l78h2_to_h2NtB2_12H2ToH2BridgeNtB4_6Bridge15source_protocol
FNF:6
FNH:0
DA:12,0
DA:13,0
DA:15,0
DA:16,0
DA:17,0
DA:18,0
DA:19,0
DA:20,0
DA:22,0
DA:24,0
DA:25,0
DA:26,0
DA:27,0
DA:28,0
DA:29,0
DA:30,0
DA:31,0
DA:32,0
DA:33,0
DA:34,0
DA:35,0
DA:36,0
DA:38,0
DA:39,0
DA:41,0
DA:42,0
DA:43,0
DA:44,0
DA:45,0
DA:46,0
DA:47,0
DA:48,0
DA:49,0
DA:50,0
DA:51,0
DA:52,0
DA:53,0
DA:54,0
DA:56,0
DA:57,0
DA:58,0
DA:60,0
DA:61,0
DA:62,0
BRF:0
BRH:0
LF:47
LH:0
end_of_record
SF:/home/ubuntu/Code/s9-verifier/crates/lb-l7/src/h2_to_h3.rs
FN:18,_RNCNvXNtCsiFMhfKJXoB5_5lb_l78h2_to_h3NtB4_12H2ToH3BridgeNtB6_6Bridge14bridge_request0B6_
FN:44,_RNCNvXNtCsiFMhfKJXoB5_5lb_l78h2_to_h3NtB4_12H2ToH3BridgeNtB6_6Bridge15bridge_response0B6_
FN:60,_RNvXNtCsiFMhfKJXoB5_5lb_l78h2_to_h3NtB2_12H2ToH3BridgeNtB4_6Bridge13dest_protocol
FN:12,_RNvXNtCsiFMhfKJXoB5_5lb_l78h2_to_h3NtB2_12H2ToH3BridgeNtB4_6Bridge14bridge_request
FN:38,_RNvXNtCsiFMhfKJXoB5_5lb_l78h2_to_h3NtB2_12H2ToH3BridgeNtB4_6Bridge15bridge_response
FN:56,_RNvXNtCsiFMhfKJXoB5_5lb_l78h2_to_h3NtB2_12H2ToH3BridgeNtB4_6Bridge15source_protocol
FNDA:0,_RNCNvXNtCsiFMhfKJXoB5_5lb_l78h2_to_h3NtB4_12H2ToH3BridgeNtB6_6Bridge14bridge_request0B6_
FNDA:0,_RNCNvXNtCsiFMhfKJXoB5_5lb_l78h2_to_h3NtB4_12H2ToH3BridgeNtB6_6Bridge15bridge_response0B6_
FNDA:0,_RNvXNtCsiFMhfKJXoB5_5lb_l78h2_to_h3NtB2_12H2ToH3BridgeNtB4_6Bridge13dest_protocol
FNDA:0,_RNvXNtCsiFMhfKJXoB5_5lb_l78h2_to_h3NtB2_12H2ToH3BridgeNtB4_6Bridge14bridge_request
FNDA:0,_RNvXNtCsiFMhfKJXoB5_5lb_l78h2_to_h3NtB2_12H2ToH3BridgeNtB4_6Bridge15bridge_response
FNDA:0,_RNvXNtCsiFMhfKJXoB5_5lb_l78h2_to_h3NtB2_12H2ToH3BridgeNtB4_6Bridge15source_protocol
FNF:6
FNH:0
DA:12,0
DA:13,0
DA:15,0
DA:16,0
DA:17,0
DA:18,0
DA:19,0
DA:20,0
DA:22,0
DA:24,0
DA:25,0
DA:26,0
DA:27,0
DA:28,0
DA:29,0
DA:30,0
DA:31,0
DA:32,0
DA:33,0
DA:34,0
DA:35,0
DA:36,0
DA:38,0
DA:39,0
DA:41,0
DA:42,0
DA:43,0
DA:44,0
DA:45,0
DA:46,0
DA:47,0
DA:48,0
DA:49,0
DA:50,0
DA:51,0
DA:52,0
DA:53,0
DA:54,0
DA:56,0
DA:57,0
DA:58,0
DA:60,0
DA:61,0
DA:62,0
BRF:0
BRH:0
LF:47
LH:0
end_of_record
SF:/home/ubuntu/Code/s9-verifier/crates/lb-l7/src/h3_to_h1.rs
FN:81,_RNCNCNvXNtCsiFMhfKJXoB5_5lb_l78h3_to_h1NtB6_12H3ToH1BridgeNtB8_6Bridge15bridge_response00B8_
FN:53,_RNCNvXNtCsiFMhfKJXoB5_5lb_l78h3_to_h1NtB4_12H3ToH1BridgeNtB6_6Bridge14bridge_request0B6_
FN:54,_RNCNvXNtCsiFMhfKJXoB5_5lb_l78h3_to_h1NtB4_12H3ToH1BridgeNtB6_6Bridge14bridge_requests_0B6_
FN:76,_RNCNvXNtCsiFMhfKJXoB5_5lb_l78h3_to_h1NtB4_12H3ToH1BridgeNtB6_6Bridge15bridge_response0B6_
FN:83,_RNCNvXNtCsiFMhfKJXoB5_5lb_l78h3_to_h1NtB4_12H3ToH1BridgeNtB6_6Bridge15bridge_responses_0B6_
FN:101,_RNvXNtCsiFMhfKJXoB5_5lb_l78h3_to_h1NtB2_12H3ToH1BridgeNtB4_6Bridge13dest_protocol
FN:25,_RNvXNtCsiFMhfKJXoB5_5lb_l78h3_to_h1NtB2_12H3ToH1BridgeNtB4_6Bridge14bridge_request
FN:70,_RNvXNtCsiFMhfKJXoB5_5lb_l78h3_to_h1NtB2_12H3ToH1BridgeNtB4_6Bridge15bridge_response
FN:97,_RNvXNtCsiFMhfKJXoB5_5lb_l78h3_to_h1NtB2_12H3ToH1BridgeNtB4_6Bridge15source_protocol
FNDA:0,_RNCNCNvXNtCsiFMhfKJXoB5_5lb_l78h3_to_h1NtB6_12H3ToH1BridgeNtB8_6Bridge15bridge_response00B8_
FNDA:0,_RNCNvXNtCsiFMhfKJXoB5_5lb_l78h3_to_h1NtB4_12H3ToH1BridgeNtB6_6Bridge14bridge_request0B6_
FNDA:0,_RNCNvXNtCsiFMhfKJXoB5_5lb_l78h3_to_h1NtB4_12H3ToH1BridgeNtB6_6Bridge14bridge_requests_0B6_
FNDA:0,_RNCNvXNtCsiFMhfKJXoB5_5lb_l78h3_to_h1NtB4_12H3ToH1BridgeNtB6_6Bridge15bridge_response0B6_
FNDA:0,_RNCNvXNtCsiFMhfKJXoB5_5lb_l78h3_to_h1NtB4_12H3ToH1BridgeNtB6_6Bridge15bridge_responses_0B6_
FNDA:0,_RNvXNtCsiFMhfKJXoB5_5lb_l78h3_to_h1NtB2_12H3ToH1BridgeNtB4_6Bridge13dest_protocol
FNDA:0,_RNvXNtCsiFMhfKJXoB5_5lb_l78h3_to_h1NtB2_12H3ToH1BridgeNtB4_6Bridge14bridge_request
FNDA:0,_RNvXNtCsiFMhfKJXoB5_5lb_l78h3_to_h1NtB2_12H3ToH1BridgeNtB4_6Bridge15bridge_response
FNDA:0,_RNvXNtCsiFMhfKJXoB5_5lb_l78h3_to_h1NtB2_12H3ToH1BridgeNtB4_6Bridge15source_protocol
FNF:9
FNH:0
DA:25,0
DA:26,0
DA:28,0
DA:29,0
DA:30,0
DA:31,0
DA:34,0
DA:35,0
DA:36,0
DA:37,0
DA:38,0
DA:39,0
DA:40,0
DA:41,0
DA:42,0
DA:43,0
DA:44,0
DA:45,0
DA:52,0
DA:53,0
DA:54,0
DA:55,0
DA:56,0
DA:57,0
DA:59,0
DA:60,0
DA:61,0
DA:62,0
DA:63,0
DA:64,0
DA:65,0
DA:66,0
DA:67,0
DA:68,0
DA:70,0
DA:71,0
DA:73,0
DA:74,0
DA:75,0
DA:76,0
DA:77,0
DA:78,0
DA:79,0
DA:80,0
DA:81,0
DA:82,0
DA:83,0
DA:84,0
DA:85,0
DA:86,0
DA:88,0
DA:89,0
DA:90,0
DA:91,0
DA:92,0
DA:93,0
DA:94,0
DA:95,0
DA:97,0
DA:98,0
DA:99,0
DA:101,0
DA:102,0
DA:103,0
BRF:0
BRH:0
LF:70
LH:0
end_of_record
SF:/home/ubuntu/Code/s9-verifier/crates/lb-l7/src/h3_to_h2.rs
FN:60,_RNvXNtCsiFMhfKJXoB5_5lb_l78h3_to_h2NtB2_12H3ToH2BridgeNtB4_6Bridge13dest_protocol
FN:12,_RNvXNtCsiFMhfKJXoB5_5lb_l78h3_to_h2NtB2_12H3ToH2BridgeNtB4_6Bridge14bridge_request
FN:38,_RNvXNtCsiFMhfKJXoB5_5lb_l78h3_to_h2NtB2_12H3ToH2BridgeNtB4_6Bridge15bridge_response
FN:56,_RNvXNtCsiFMhfKJXoB5_5lb_l78h3_to_h2NtB2_12H3ToH2BridgeNtB4_6Bridge15source_protocol
FN:18,_RNCNvXNtCsiFMhfKJXoB5_5lb_l78h3_to_h2NtB4_12H3ToH2BridgeNtB6_6Bridge14bridge_request0B6_
FN:44,_RNCNvXNtCsiFMhfKJXoB5_5lb_l78h3_to_h2NtB4_12H3ToH2BridgeNtB6_6Bridge15bridge_response0B6_
FNDA:0,_RNvXNtCsiFMhfKJXoB5_5lb_l78h3_to_h2NtB2_12H3ToH2BridgeNtB4_6Bridge13dest_protocol
FNDA:0,_RNvXNtCsiFMhfKJXoB5_5lb_l78h3_to_h2NtB2_12H3ToH2BridgeNtB4_6Bridge14bridge_request
FNDA:0,_RNvXNtCsiFMhfKJXoB5_5lb_l78h3_to_h2NtB2_12H3ToH2BridgeNtB4_6Bridge15bridge_response
FNDA:0,_RNvXNtCsiFMhfKJXoB5_5lb_l78h3_to_h2NtB2_12H3ToH2BridgeNtB4_6Bridge15source_protocol
FNDA:0,_RNCNvXNtCsiFMhfKJXoB5_5lb_l78h3_to_h2NtB4_12H3ToH2BridgeNtB6_6Bridge14bridge_request0B6_
FNDA:0,_RNCNvXNtCsiFMhfKJXoB5_5lb_l78h3_to_h2NtB4_12H3ToH2BridgeNtB6_6Bridge15bridge_response0B6_
FNF:6
FNH:0
DA:12,0
DA:13,0
DA:15,0
DA:16,0
DA:17,0
DA:18,0
DA:19,0
DA:20,0
DA:22,0
DA:24,0
DA:25,0
DA:26,0
DA:27,0
DA:28,0
DA:29,0
DA:30,0
DA:31,0
DA:32,0
DA:33,0
DA:34,0
DA:35,0
DA:36,0
DA:38,0
DA:39,0
DA:41,0
DA:42,0
DA:43,0
DA:44,0
DA:45,0
DA:46,0
DA:47,0
DA:48,0
DA:49,0
DA:50,0
DA:51,0
DA:52,0
DA:53,0
DA:54,0
DA:56,0
DA:57,0
DA:58,0
DA:60,0
DA:61,0
DA:62,0
BRF:0
BRH:0
LF:47
LH:0
end_of_record
SF:/home/ubuntu/Code/s9-verifier/crates/lb-l7/src/h3_to_h3.rs
FN:60,_RNvXNtCsiFMhfKJXoB5_5lb_l78h3_to_h3NtB2_12H3ToH3BridgeNtB4_6Bridge13dest_protocol
FN:12,_RNvXNtCsiFMhfKJXoB5_5lb_l78h3_to_h3NtB2_12H3ToH3BridgeNtB4_6Bridge14bridge_request
FN:38,_RNvXNtCsiFMhfKJXoB5_5lb_l78h3_to_h3NtB2_12H3ToH3BridgeNtB4_6Bridge15bridge_response
FN:56,_RNvXNtCsiFMhfKJXoB5_5lb_l78h3_to_h3NtB2_12H3ToH3BridgeNtB4_6Bridge15source_protocol
FN:18,_RNCNvXNtCsiFMhfKJXoB5_5lb_l78h3_to_h3NtB4_12H3ToH3BridgeNtB6_6Bridge14bridge_request0B6_
FN:44,_RNCNvXNtCsiFMhfKJXoB5_5lb_l78h3_to_h3NtB4_12H3ToH3BridgeNtB6_6Bridge15bridge_response0B6_
FNDA:0,_RNvXNtCsiFMhfKJXoB5_5lb_l78h3_to_h3NtB2_12H3ToH3BridgeNtB4_6Bridge13dest_protocol
FNDA:0,_RNvXNtCsiFMhfKJXoB5_5lb_l78h3_to_h3NtB2_12H3ToH3BridgeNtB4_6Bridge14bridge_request
FNDA:0,_RNvXNtCsiFMhfKJXoB5_5lb_l78h3_to_h3NtB2_12H3ToH3BridgeNtB4_6Bridge15bridge_response
FNDA:0,_RNvXNtCsiFMhfKJXoB5_5lb_l78h3_to_h3NtB2_12H3ToH3BridgeNtB4_6Bridge15source_protocol
FNDA:0,_RNCNvXNtCsiFMhfKJXoB5_5lb_l78h3_to_h3NtB4_12H3ToH3BridgeNtB6_6Bridge14bridge_request0B6_
FNDA:0,_RNCNvXNtCsiFMhfKJXoB5_5lb_l78h3_to_h3NtB4_12H3ToH3BridgeNtB6_6Bridge15bridge_response0B6_
FNF:6
FNH:0
DA:12,0
DA:13,0
DA:15,0
DA:16,0
DA:17,0
DA:18,0
DA:19,0
DA:20,0
DA:22,0
DA:24,0
DA:25,0
DA:26,0
DA:27,0
DA:28,0
DA:29,0
DA:30,0
DA:31,0
DA:32,0
DA:33,0
DA:34,0
DA:35,0
DA:36,0
DA:38,0
DA:39,0
DA:41,0
DA:42,0
DA:43,0
DA:44,0
DA:45,0
DA:46,0
DA:47,0
DA:48,0
DA:49,0
DA:50,0
DA:51,0
DA:52,0
DA:53,0
DA:54,0
DA:56,0
DA:57,0
DA:58,0
DA:60,0
DA:61,0
DA:62,0
BRF:0
BRH:0
LF:47
LH:0
end_of_record
SF:/home/ubuntu/Code/s9-verifier/crates/lb-l7/src/lib.rs
FN:219,_RNvCsiFMhfKJXoB5_5lb_l713create_bridge
FN:173,_RNvCsiFMhfKJXoB5_5lb_l718check_header_count
FN:103,_RNvXCsiFMhfKJXoB5_5lb_l7NtB2_13BridgeRequestNtNtCs2va5m0jqTTM_4core7default7Default7default
FN:130,_RNvXs_CsiFMhfKJXoB5_5lb_l7NtB4_14BridgeResponseNtNtCs2va5m0jqTTM_4core7default7Default7default
FNDA:0,_RNvCsiFMhfKJXoB5_5lb_l713create_bridge
FNDA:0,_RNvCsiFMhfKJXoB5_5lb_l718check_header_count
FNDA:0,_RNvXCsiFMhfKJXoB5_5lb_l7NtB2_13BridgeRequestNtNtCs2va5m0jqTTM_4core7default7Default7default
FNDA:0,_RNvXs_CsiFMhfKJXoB5_5lb_l7NtB4_14BridgeResponseNtNtCs2va5m0jqTTM_4core7default7Default7default
FNF:4
FNH:0
DA:103,0
DA:104,0
DA:105,0
DA:106,0
DA:107,0
DA:108,0
DA:109,0
DA:110,0
DA:111,0
DA:112,0
DA:130,0
DA:131,0
DA:132,0
DA:133,0
DA:134,0
DA:135,0
DA:136,0
DA:137,0
DA:173,0
DA:174,0
DA:175,0
DA:176,0
DA:177,0
DA:178,0
DA:179,0
DA:180,0
DA:181,0
DA:219,0
DA:220,0
DA:221,0
DA:222,0
DA:223,0
DA:224,0
DA:225,0
DA:226,0
DA:227,0
DA:228,0
DA:229,0
DA:231,0
BRF:0
BRH:0
LF:39
LH:0
end_of_record
SF:/home/ubuntu/Code/s9-verifier/crates/lb-l7/src/security_hooks.rs
FN:113,_RNvMs1_NtCsiFMhfKJXoB5_5lb_l714security_hooksNtB5_9NoopHooks3new
FN:138,_RNvNtCsiFMhfKJXoB5_5lb_l714security_hooks13default_hooks
FN:103,_RNvXs0_NtCsiFMhfKJXoB5_5lb_l714security_hooksNtB5_9NoopHooksNtNtCs2va5m0jqTTM_4core3fmt5Debug3fmt
FN:129,_RNvXs2_NtCsiFMhfKJXoB5_5lb_l714security_hooksNtB5_9NoopHooksNtNtCsgphuHPmxLkZ_11lb_security5hooks13SecurityHooks16admit_connection
FN:97,_RNvXs_NtCsiFMhfKJXoB5_5lb_l714security_hooksNtB4_9NoopHooksNtNtCs2va5m0jqTTM_4core7default7Default7default
FN:121,_RINvXs2_NtCsiFMhfKJXoB5_5lb_l714security_hooksNtB6_9NoopHooksNtNtCsgphuHPmxLkZ_11lb_security5hooks13SecurityHooks15inspect_requestuEB8_
FN:74,_RNvXNtCsiFMhfKJXoB5_5lb_l714security_hooksNtB2_9NoopHooksNtB2_16DynSecurityHooks15inspect_requestB4_
FN:78,_RNvXNtCsiFMhfKJXoB5_5lb_l714security_hooksNtB2_9NoopHooksNtB2_16DynSecurityHooks16admit_connectionB4_
FNDA:97,_RNvMs1_NtCsiFMhfKJXoB5_5lb_l714security_hooksNtB5_9NoopHooks3new
FNDA:0,_RNvNtCsiFMhfKJXoB5_5lb_l714security_hooks13default_hooks
FNDA:0,_RNvXs0_NtCsiFMhfKJXoB5_5lb_l714security_hooksNtB5_9NoopHooksNtNtCs2va5m0jqTTM_4core3fmt5Debug3fmt
FNDA:0,_RNvXs2_NtCsiFMhfKJXoB5_5lb_l714security_hooksNtB5_9NoopHooksNtNtCsgphuHPmxLkZ_11lb_security5hooks13SecurityHooks16admit_connection
FNDA:0,_RNvXs_NtCsiFMhfKJXoB5_5lb_l714security_hooksNtB4_9NoopHooksNtNtCs2va5m0jqTTM_4core7default7Default7default
FNDA:67,_RINvXs2_NtCsiFMhfKJXoB5_5lb_l714security_hooksNtB6_9NoopHooksNtNtCsgphuHPmxLkZ_11lb_security5hooks13SecurityHooks15inspect_requestuEB8_
FNDA:67,_RNvXNtCsiFMhfKJXoB5_5lb_l714security_hooksNtB2_9NoopHooksNtB2_16DynSecurityHooks15inspect_requestB4_
FNDA:0,_RNvXNtCsiFMhfKJXoB5_5lb_l714security_hooksNtB2_9NoopHooksNtB2_16DynSecurityHooks16admit_connectionB4_
FNF:8
FNH:3
DA:74,67
DA:75,67
DA:76,67
DA:78,0
DA:79,0
DA:80,0
DA:97,0
DA:98,0
DA:99,0
DA:103,0
DA:104,0
DA:105,0
DA:113,97
DA:114,97
DA:115,97
DA:116,97
DA:117,97
DA:121,67
DA:122,67
DA:123,67
DA:124,67
DA:125,67
DA:126,67
DA:127,67
DA:129,0
DA:130,0
DA:131,0
DA:138,0
DA:139,0
DA:140,0
BRF:0
BRH:0
LF:30
LH:15
end_of_record
SF:/home/ubuntu/Code/s9-verifier/crates/lb-l7/src/sni_authority.rs
FN:131,_RNvNtCsiFMhfKJXoB5_5lb_l713sni_authority14normalise_host
FN:138,_RNvNtCsiFMhfKJXoB5_5lb_l713sni_authority15split_host_port
FN:95,_RNvNtCsiFMhfKJXoB5_5lb_l713sni_authority19check_sni_authority
FN:123,_RNvNtCsiFMhfKJXoB5_5lb_l713sni_authority20misdirected_response
FN:55,_RNvXNtCsiFMhfKJXoB5_5lb_l713sni_authorityNtB2_11SniMismatchNtNtCs2va5m0jqTTM_4core3fmt7Display3fmt
FN:144,_RNCNvNtCsiFMhfKJXoB5_5lb_l713sni_authority15split_host_port0B5_
FN:149,_RNCNvNtCsiFMhfKJXoB5_5lb_l713sni_authority15split_host_ports_0B5_
FNDA:0,_RNvNtCsiFMhfKJXoB5_5lb_l713sni_authority14normalise_host
FNDA:0,_RNvNtCsiFMhfKJXoB5_5lb_l713sni_authority15split_host_port
FNDA:0,_RNvNtCsiFMhfKJXoB5_5lb_l713sni_authority19check_sni_authority
FNDA:0,_RNvNtCsiFMhfKJXoB5_5lb_l713sni_authority20misdirected_response
FNDA:0,_RNvXNtCsiFMhfKJXoB5_5lb_l713sni_authorityNtB2_11SniMismatchNtNtCs2va5m0jqTTM_4core3fmt7Display3fmt
FNDA:0,_RNCNvNtCsiFMhfKJXoB5_5lb_l713sni_authority15split_host_port0B5_
FNDA:0,_RNCNvNtCsiFMhfKJXoB5_5lb_l713sni_authority15split_host_ports_0B5_
FNF:7
FNH:0
DA:55,0
DA:56,0
DA:57,0
DA:58,0
DA:59,0
DA:60,0
DA:61,0
DA:95,0
DA:96,0
DA:97,0
DA:99,0
DA:100,0
DA:101,0
DA:102,0
DA:103,0
DA:104,0
DA:105,0
DA:106,0
DA:108,0
DA:109,0
DA:110,0
DA:111,0
DA:113,0
DA:123,0
DA:124,0
DA:125,0
DA:126,0
DA:127,0
DA:128,0
DA:131,0
DA:132,0
DA:133,0
DA:138,0
DA:139,0
DA:140,0
DA:141,0
DA:142,0
DA:143,0
DA:144,0
DA:145,0
DA:146,0
DA:147,0
DA:148,0
DA:149,0
DA:150,0
DA:152,0
BRF:0
BRH:0
LF:48
LH:0
end_of_record
SF:/home/ubuntu/Code/s9-verifier/crates/lb-l7/src/stripped_request.rs
FN:88,_RINvNtCsiFMhfKJXoB5_5lb_l716stripped_request16strip_hop_by_hopNtNtNtCsgB3dp6qvXvn_5hyper4body8incoming8IncomingEB4_
FN:65,_RNvMNtCsiFMhfKJXoB5_5lb_l716stripped_requestINtB2_15StrippedRequestNtNtNtCsgB3dp6qvXvn_5hyper4body8incoming8IncomingE10into_innerB4_
FN:55,_RNvMNtCsiFMhfKJXoB5_5lb_l716stripped_requestINtB2_15StrippedRequestNtNtNtCsgB3dp6qvXvn_5hyper4body8incoming8IncomingE11headers_mutB4_
FN:126,_RINvNtCsiFMhfKJXoB5_5lb_l716stripped_request14strip_for_testpEB4_
FN:72,_RNvMNtCsiFMhfKJXoB5_5lb_l716stripped_requestINtB2_15StrippedRequestpE10into_partsB4_
FN:45,_RNvMNtCsiFMhfKJXoB5_5lb_l716stripped_requestINtB2_15StrippedRequestpE5innerB4_
FNDA:66,_RINvNtCsiFMhfKJXoB5_5lb_l716stripped_request16strip_hop_by_hopNtNtNtCsgB3dp6qvXvn_5hyper4body8incoming8IncomingEB4_
FNDA:66,_RNvMNtCsiFMhfKJXoB5_5lb_l716stripped_requestINtB2_15StrippedRequestNtNtNtCsgB3dp6qvXvn_5hyper4body8incoming8IncomingE10into_innerB4_
FNDA:66,_RNvMNtCsiFMhfKJXoB5_5lb_l716stripped_requestINtB2_15StrippedRequestNtNtNtCsgB3dp6qvXvn_5hyper4body8incoming8IncomingE11headers_mutB4_
FNDA:0,_RINvNtCsiFMhfKJXoB5_5lb_l716stripped_request14strip_for_testpEB4_
FNDA:0,_RNvMNtCsiFMhfKJXoB5_5lb_l716stripped_requestINtB2_15StrippedRequestpE10into_partsB4_
FNDA:0,_RNvMNtCsiFMhfKJXoB5_5lb_l716stripped_requestINtB2_15StrippedRequestpE5innerB4_
FNF:6
FNH:3
DA:45,0
DA:46,0
DA:47,0
DA:55,66
DA:56,66
DA:57,66
DA:65,66
DA:66,66
DA:67,66
DA:72,0
DA:73,0
DA:74,0
DA:88,66
DA:89,66
DA:90,66
DA:91,66
DA:126,0
DA:127,0
DA:128,0
BRF:0
BRH:0
LF:19
LH:10
end_of_record
SF:/home/ubuntu/Code/s9-verifier/crates/lb-l7/src/trace_ctx.rs
FN:238,_RNvMs0_NtCsiFMhfKJXoB5_5lb_l79trace_ctxNtB5_12RequestTrace15inject_upstream
FN:248,_RNvMs0_NtCsiFMhfKJXoB5_5lb_l79trace_ctxNtB5_12RequestTrace17child_traceparent
FN:177,_RNvMs0_NtCsiFMhfKJXoB5_5lb_l79trace_ctxNtB5_12RequestTrace4open
FN:115,_RNvNtCsiFMhfKJXoB5_5lb_l79trace_ctx12mint_span_id
FN:92,_RNvNtCsiFMhfKJXoB5_5lb_l79trace_ctx13startup_nonce
FN:127,_RNvNtCsiFMhfKJXoB5_5lb_l79trace_ctx14synth_trace_id
FN:141,_RNvNtCsiFMhfKJXoB5_5lb_l79trace_ctx3hex
FN:55,_RNvXNtCsiFMhfKJXoB5_5lb_l79trace_ctxNtB2_12HyperHeadersNtNtCsjqkoZuoA1pp_16lb_observability19tracing_propagation9HeaderBag6append
FN:64,_RNvXNtCsiFMhfKJXoB5_5lb_l79trace_ctxNtB2_12HyperHeadersNtNtCsjqkoZuoA1pp_16lb_observability19tracing_propagation9HeaderBag6remove
FN:49,_RNvXNtCsiFMhfKJXoB5_5lb_l79trace_ctxNtB2_12HyperHeadersNtNtCsjqkoZuoA1pp_16lb_observability19tracing_propagation9HeaderBag9get_first
FN:84,_RNvXs_NtCsiFMhfKJXoB5_5lb_l79trace_ctxNtB4_15HyperHeadersRefNtNtCsjqkoZuoA1pp_16lb_observability19tracing_propagation9HeaderBag6append
FN:85,_RNvXs_NtCsiFMhfKJXoB5_5lb_l79trace_ctxNtB4_15HyperHeadersRefNtNtCsjqkoZuoA1pp_16lb_observability19tracing_propagation9HeaderBag6remove
FN:75,_RNvXs_NtCsiFMhfKJXoB5_5lb_l79trace_ctxNtB4_15HyperHeadersRefNtNtCsjqkoZuoA1pp_16lb_observability19tracing_propagation9HeaderBag9get_first
FN:99,_RNCNCNvNtCsiFMhfKJXoB5_5lb_l79trace_ctx13startup_nonce00B7_
FN:202,_RNCNvMs0_NtCsiFMhfKJXoB5_5lb_l79trace_ctxNtB7_12RequestTrace4open0B9_
FN:95,_RNCNvNtCsiFMhfKJXoB5_5lb_l79trace_ctx13startup_nonce0B5_
FN:133,_RNCNvNtCsiFMhfKJXoB5_5lb_l79trace_ctx14synth_trace_id0B5_
FN:52,_RNCNvXNtCsiFMhfKJXoB5_5lb_l79trace_ctxNtB4_12HyperHeadersNtNtCsjqkoZuoA1pp_16lb_observability19tracing_propagation9HeaderBag9get_first0B6_
FN:78,_RNCNvXs_NtCsiFMhfKJXoB5_5lb_l79trace_ctxNtB6_15HyperHeadersRefNtNtCsjqkoZuoA1pp_16lb_observability19tracing_propagation9HeaderBag9get_first0B8_
FNDA:45,_RNvMs0_NtCsiFMhfKJXoB5_5lb_l79trace_ctxNtB5_12RequestTrace15inject_upstream
FNDA:0,_RNvMs0_NtCsiFMhfKJXoB5_5lb_l79trace_ctxNtB5_12RequestTrace17child_traceparent
FNDA:67,_RNvMs0_NtCsiFMhfKJXoB5_5lb_l79trace_ctxNtB5_12RequestTrace4open
FNDA:67,_RNvNtCsiFMhfKJXoB5_5lb_l79trace_ctx12mint_span_id
FNDA:201,_RNvNtCsiFMhfKJXoB5_5lb_l79trace_ctx13startup_nonce
FNDA:67,_RNvNtCsiFMhfKJXoB5_5lb_l79trace_ctx14synth_trace_id
FNDA:134,_RNvNtCsiFMhfKJXoB5_5lb_l79trace_ctx3hex
FNDA:45,_RNvXNtCsiFMhfKJXoB5_5lb_l79trace_ctxNtB2_12HyperHeadersNtNtCsjqkoZuoA1pp_16lb_observability19tracing_propagation9HeaderBag6append
FNDA:45,_RNvXNtCsiFMhfKJXoB5_5lb_l79trace_ctxNtB2_12HyperHeadersNtNtCsjqkoZuoA1pp_16lb_observability19tracing_propagation9HeaderBag6remove
FNDA:0,_RNvXNtCsiFMhfKJXoB5_5lb_l79trace_ctxNtB2_12HyperHeadersNtNtCsjqkoZuoA1pp_16lb_observability19tracing_propagation9HeaderBag9get_first
FNDA:0,_RNvXs_NtCsiFMhfKJXoB5_5lb_l79trace_ctxNtB4_15HyperHeadersRefNtNtCsjqkoZuoA1pp_16lb_observability19tracing_propagation9HeaderBag6append
FNDA:0,_RNvXs_NtCsiFMhfKJXoB5_5lb_l79trace_ctxNtB4_15HyperHeadersRefNtNtCsjqkoZuoA1pp_16lb_observability19tracing_propagation9HeaderBag6remove
FNDA:134,_RNvXs_NtCsiFMhfKJXoB5_5lb_l79trace_ctxNtB4_15HyperHeadersRefNtNtCsjqkoZuoA1pp_16lb_observability19tracing_propagation9HeaderBag9get_first
FNDA:5,_RNCNCNvNtCsiFMhfKJXoB5_5lb_l79trace_ctx13startup_nonce00B7_
FNDA:0,_RNCNvMs0_NtCsiFMhfKJXoB5_5lb_l79trace_ctxNtB7_12RequestTrace4open0B9_
FNDA:5,_RNCNvNtCsiFMhfKJXoB5_5lb_l79trace_ctx13startup_nonce0B5_
FNDA:67,_RNCNvNtCsiFMhfKJXoB5_5lb_l79trace_ctx14synth_trace_id0B5_
FNDA:0,_RNCNvXNtCsiFMhfKJXoB5_5lb_l79trace_ctxNtB4_12HyperHeadersNtNtCsjqkoZuoA1pp_16lb_observability19tracing_propagation9HeaderBag9get_first0B6_
FNDA:0,_RNCNvXs_NtCsiFMhfKJXoB5_5lb_l79trace_ctxNtB6_15HyperHeadersRefNtNtCsjqkoZuoA1pp_16lb_observability19tracing_propagation9HeaderBag9get_first0B8_
FNF:19
FNH:12
DA:49,0
DA:50,0
DA:51,0
DA:52,0
DA:53,0
DA:55,45
DA:56,45
DA:57,45
DA:58,45
DA:59,45
DA:60,45
DA:61,45
DA:62,45
DA:64,45
DA:65,45
DA:66,45
DA:67,45
DA:68,45
DA:75,134
DA:76,134
DA:77,134
DA:78,134
DA:79,134
DA:84,0
DA:85,0
DA:92,201
DA:95,201
DA:96,5
DA:97,5
DA:98,5
DA:99,5
DA:100,5
DA:101,5
DA:102,5
DA:103,5
DA:104,5
DA:105,5
DA:106,5
DA:107,5
DA:108,201
DA:109,201
DA:115,67
DA:116,67
DA:117,67
DA:118,67
DA:119,0
DA:120,67
DA:121,67
DA:122,67
DA:127,67
DA:128,67
DA:129,67
DA:130,67
DA:131,67
DA:132,67
DA:133,67
DA:134,0
DA:135,67
DA:136,67
DA:137,67
DA:141,134
DA:142,134
DA:143,1742
DA:144,1608
DA:145,1608
DA:146,1608
DA:147,134
DA:148,134
DA:177,67
DA:178,67
DA:179,67
DA:180,67
DA:181,67
DA:182,67
DA:183,67
DA:184,67
DA:185,67
DA:186,67
DA:187,67
DA:188,67
DA:189,67
DA:190,67
DA:191,67
DA:192,67
DA:193,67
DA:194,0
DA:197,67
DA:199,67
DA:200,67
DA:201,67
DA:202,67
DA:203,67
DA:205,67
DA:207,0
DA:208,0
DA:209,0
DA:210,0
DA:211,0
DA:212,0
DA:213,0
DA:221,67
DA:222,67
DA:223,67
DA:224,67
DA:225,67
DA:226,67
DA:227,67
DA:228,67
DA:229,67
DA:230,67
DA:231,67
DA:232,67
DA:238,45
DA:239,45
DA:240,45
DA:241,45
DA:248,0
DA:249,0
DA:250,0
BRF:0
BRH:0
LF:126
LH:103
end_of_record
SF:/home/ubuntu/Code/s9-verifier/crates/lb-l7/src/upstream.rs
FN:88,_RINvMNtCsiFMhfKJXoB5_5lb_l78upstreamNtB3_15UpstreamBackend2h3pEB5_
FN:68,_RNvMNtCsiFMhfKJXoB5_5lb_l78upstreamNtB2_15UpstreamBackend2h1
FN:78,_RNvMNtCsiFMhfKJXoB5_5lb_l78upstreamNtB2_15UpstreamBackend2h2
FN:153,_RNvMs1_NtCsiFMhfKJXoB5_5lb_l78upstreamNtB5_19RoundRobinUpstreams3new
FN:119,_RNvMs_NtCsiFMhfKJXoB5_5lb_l78upstreamNtB4_17SingleProtoPicker3new
FN:133,_RNvXs0_NtCsiFMhfKJXoB5_5lb_l78upstreamNtB5_17SingleProtoPickerNtB5_17BackendInfoPicker9pick_info
FN:165,_RNvXs2_NtCsiFMhfKJXoB5_5lb_l78upstreamNtB5_19RoundRobinUpstreamsNtB5_17BackendInfoPicker9pick_info
FNDA:0,_RINvMNtCsiFMhfKJXoB5_5lb_l78upstreamNtB3_15UpstreamBackend2h3pEB5_
FNDA:0,_RNvMNtCsiFMhfKJXoB5_5lb_l78upstreamNtB2_15UpstreamBackend2h1
FNDA:0,_RNvMNtCsiFMhfKJXoB5_5lb_l78upstreamNtB2_15UpstreamBackend2h2
FNDA:0,_RNvMs1_NtCsiFMhfKJXoB5_5lb_l78upstreamNtB5_19RoundRobinUpstreams3new
FNDA:97,_RNvMs_NtCsiFMhfKJXoB5_5lb_l78upstreamNtB4_17SingleProtoPicker3new
FNDA:66,_RNvXs0_NtCsiFMhfKJXoB5_5lb_l78upstreamNtB5_17SingleProtoPickerNtB5_17BackendInfoPicker9pick_info
FNDA:0,_RNvXs2_NtCsiFMhfKJXoB5_5lb_l78upstreamNtB5_19RoundRobinUpstreamsNtB5_17BackendInfoPicker9pick_info
FNF:7
FNH:2
DA:68,0
DA:69,0
DA:70,0
DA:71,0
DA:72,0
DA:73,0
DA:74,0
DA:78,0
DA:79,0
DA:80,0
DA:81,0
DA:82,0
DA:83,0
DA:84,0
DA:88,0
DA:89,0
DA:90,0
DA:91,0
DA:92,0
DA:93,0
DA:94,0
DA:119,97
DA:120,97
DA:121,97
DA:122,97
DA:123,97
DA:124,97
DA:125,97
DA:126,97
DA:127,97
DA:128,97
DA:129,97
DA:133,66
DA:134,66
DA:135,66
DA:136,66
DA:137,66
DA:138,66
DA:139,66
DA:140,66
DA:153,0
DA:154,0
DA:155,0
DA:156,0
DA:157,0
DA:158,0
DA:159,0
DA:160,0
DA:161,0
DA:165,0
DA:166,0
DA:167,0
DA:168,0
DA:169,0
DA:170,0
DA:171,0
DA:172,0
DA:173,0
DA:174,0
DA:175,0
DA:176,0
BRF:0
BRH:0
LF:61
LH:19
end_of_record
SF:/home/ubuntu/Code/s9-verifier/crates/lb-l7/src/ws_proxy.rs
FN:382,_RINvNtCsiFMhfKJXoB5_5lb_l78ws_proxy9client_wspEB4_
FN:385,_RNCINvNtCsiFMhfKJXoB5_5lb_l78ws_proxy9client_wspE0B6_
FN:194,_RNvMs0_NtCsiFMhfKJXoB5_5lb_l78ws_proxyNtB5_7WsProxy3new
FN:200,_RNvMs0_NtCsiFMhfKJXoB5_5lb_l78ws_proxyNtB5_7WsProxy6config
FN:130,_RNvMs_NtCsiFMhfKJXoB5_5lb_l78ws_proxyNtB4_8WsConfig18tungstenite_config
FN:397,_RNvNtCsiFMhfKJXoB5_5lb_l78ws_proxy21header_contains_token
FN:112,_RNvXNtCsiFMhfKJXoB5_5lb_l78ws_proxyNtB2_8WsConfigNtNtCs2va5m0jqTTM_4core7default7Default7default
FN:217,_RINvMs0_NtCsiFMhfKJXoB5_5lb_l78ws_proxyNtB6_7WsProxy12proxy_framesINtNtNtCs86YdmMopYMP_10hyper_util2rt5tokio7TokioIoNtNtCsgB3dp6qvXvn_5hyper7upgrade8UpgradedENtNtNtNtCsfWKKmeeA0Vo_5tokio3net3tcp6stream9TcpStreamEB8_
FN:144,_RINvNtCsiFMhfKJXoB5_5lb_l78ws_proxy21is_h1_upgrade_requestNtNtNtCsgB3dp6qvXvn_5hyper4body8incoming8IncomingEB4_
FN:174,_RINvNtCsiFMhfKJXoB5_5lb_l78ws_proxy22is_h2_extended_connectNtNtNtCsgB3dp6qvXvn_5hyper4body8incoming8IncomingEB4_
FN:419,_RINvNtCsiFMhfKJXoB5_5lb_l78ws_proxy32build_handshake_response_headersNtNtNtCsgB3dp6qvXvn_5hyper4body8incoming8IncomingEB4_
FN:370,_RINvNtCsiFMhfKJXoB5_5lb_l78ws_proxy9server_wsINtNtNtCs86YdmMopYMP_10hyper_util2rt5tokio7TokioIoNtNtCsgB3dp6qvXvn_5hyper7upgrade8UpgradedEEB4_
FN:225,_RNCINvMs0_NtCsiFMhfKJXoB5_5lb_l78ws_proxyNtB8_7WsProxy12proxy_framesINtNtNtCs86YdmMopYMP_10hyper_util2rt5tokio7TokioIoNtNtCsgB3dp6qvXvn_5hyper7upgrade8UpgradedENtNtNtNtCsfWKKmeeA0Vo_5tokio3net3tcp6stream9TcpStreamE0Ba_
FN:158,_RNCINvNtCsiFMhfKJXoB5_5lb_l78ws_proxy21is_h1_upgrade_requestNtNtNtCsgB3dp6qvXvn_5hyper4body8incoming8IncomingE0B6_
FN:164,_RNCINvNtCsiFMhfKJXoB5_5lb_l78ws_proxy21is_h1_upgrade_requestNtNtNtCsgB3dp6qvXvn_5hyper4body8incoming8IncomingEs0_0B6_
FN:165,_RNCINvNtCsiFMhfKJXoB5_5lb_l78ws_proxy21is_h1_upgrade_requestNtNtNtCsgB3dp6qvXvn_5hyper4body8incoming8IncomingEs1_0B6_
FN:159,_RNCINvNtCsiFMhfKJXoB5_5lb_l78ws_proxy21is_h1_upgrade_requestNtNtNtCsgB3dp6qvXvn_5hyper4body8incoming8IncomingEs_0B6_
FN:183,_RNCINvNtCsiFMhfKJXoB5_5lb_l78ws_proxy22is_h2_extended_connectNtNtNtCsgB3dp6qvXvn_5hyper4body8incoming8IncomingE0B6_
FN:373,_RNCINvNtCsiFMhfKJXoB5_5lb_l78ws_proxy9server_wsINtNtNtCs86YdmMopYMP_10hyper_util2rt5tokio7TokioIoNtNtCsgB3dp6qvXvn_5hyper7upgrade8UpgradedEE0B6_
FN:247,_RNCNCINvMs0_NtCsiFMhfKJXoB5_5lb_l78ws_proxyNtBa_7WsProxy12proxy_framesINtNtNtCs86YdmMopYMP_10hyper_util2rt5tokio7TokioIoNtNtCsgB3dp6qvXvn_5hyper7upgrade8UpgradedENtNtNtNtCsfWKKmeeA0Vo_5tokio3net3tcp6stream9TcpStreamE00Bc_
FN:257,_RNCNCNCINvMs0_NtCsiFMhfKJXoB5_5lb_l78ws_proxyNtBc_7WsProxy12proxy_framesINtNtNtCs86YdmMopYMP_10hyper_util2rt5tokio7TokioIoNtNtCsgB3dp6qvXvn_5hyper7upgrade8UpgradedENtNtNtNtCsfWKKmeeA0Vo_5tokio3net3tcp6stream9TcpStreamE00s0_0Be_
FN:252,_RNCNCNCINvMs0_NtCsiFMhfKJXoB5_5lb_l78ws_proxyNtBc_7WsProxy12proxy_framesINtNtNtCs86YdmMopYMP_10hyper_util2rt5tokio7TokioIoNtNtCsgB3dp6qvXvn_5hyper7upgrade8UpgradedENtNtNtNtCsfWKKmeeA0Vo_5tokio3net3tcp6stream9TcpStreamE00s_0Be_
FNDA:0,_RINvNtCsiFMhfKJXoB5_5lb_l78ws_proxy9client_wspEB4_
FNDA:0,_RNCINvNtCsiFMhfKJXoB5_5lb_l78ws_proxy9client_wspE0B6_
FNDA:0,_RNvMs0_NtCsiFMhfKJXoB5_5lb_l78ws_proxyNtB5_7WsProxy3new
FNDA:0,_RNvMs0_NtCsiFMhfKJXoB5_5lb_l78ws_proxyNtB5_7WsProxy6config
FNDA:0,_RNvMs_NtCsiFMhfKJXoB5_5lb_l78ws_proxyNtB4_8WsConfig18tungstenite_config
FNDA:0,_RNvNtCsiFMhfKJXoB5_5lb_l78ws_proxy21header_contains_token
FNDA:0,_RNvXNtCsiFMhfKJXoB5_5lb_l78ws_proxyNtB2_8WsConfigNtNtCs2va5m0jqTTM_4core7default7Default7default
FNDA:0,_RINvMs0_NtCsiFMhfKJXoB5_5lb_l78ws_proxyNtB6_7WsProxy12proxy_framesINtNtNtCs86YdmMopYMP_10hyper_util2rt5tokio7TokioIoNtNtCsgB3dp6qvXvn_5hyper7upgrade8UpgradedENtNtNtNtCsfWKKmeeA0Vo_5tokio3net3tcp6stream9TcpStreamEB8_
FNDA:0,_RINvNtCsiFMhfKJXoB5_5lb_l78ws_proxy21is_h1_upgrade_requestNtNtNtCsgB3dp6qvXvn_5hyper4body8incoming8IncomingEB4_
FNDA:0,_RINvNtCsiFMhfKJXoB5_5lb_l78ws_proxy22is_h2_extended_connectNtNtNtCsgB3dp6qvXvn_5hyper4body8incoming8IncomingEB4_
FNDA:0,_RINvNtCsiFMhfKJXoB5_5lb_l78ws_proxy32build_handshake_response_headersNtNtNtCsgB3dp6qvXvn_5hyper4body8incoming8IncomingEB4_
FNDA:0,_RINvNtCsiFMhfKJXoB5_5lb_l78ws_proxy9server_wsINtNtNtCs86YdmMopYMP_10hyper_util2rt5tokio7TokioIoNtNtCsgB3dp6qvXvn_5hyper7upgrade8UpgradedEEB4_
FNDA:0,_RNCINvMs0_NtCsiFMhfKJXoB5_5lb_l78ws_proxyNtB8_7WsProxy12proxy_framesINtNtNtCs86YdmMopYMP_10hyper_util2rt5tokio7TokioIoNtNtCsgB3dp6qvXvn_5hyper7upgrade8UpgradedENtNtNtNtCsfWKKmeeA0Vo_5tokio3net3tcp6stream9TcpStreamE0Ba_
FNDA:0,_RNCINvNtCsiFMhfKJXoB5_5lb_l78ws_proxy21is_h1_upgrade_requestNtNtNtCsgB3dp6qvXvn_5hyper4body8incoming8IncomingE0B6_
FNDA:0,_RNCINvNtCsiFMhfKJXoB5_5lb_l78ws_proxy21is_h1_upgrade_requestNtNtNtCsgB3dp6qvXvn_5hyper4body8incoming8IncomingEs0_0B6_
FNDA:0,_RNCINvNtCsiFMhfKJXoB5_5lb_l78ws_proxy21is_h1_upgrade_requestNtNtNtCsgB3dp6qvXvn_5hyper4body8incoming8IncomingEs1_0B6_
FNDA:0,_RNCINvNtCsiFMhfKJXoB5_5lb_l78ws_proxy21is_h1_upgrade_requestNtNtNtCsgB3dp6qvXvn_5hyper4body8incoming8IncomingEs_0B6_
FNDA:0,_RNCINvNtCsiFMhfKJXoB5_5lb_l78ws_proxy22is_h2_extended_connectNtNtNtCsgB3dp6qvXvn_5hyper4body8incoming8IncomingE0B6_
FNDA:0,_RNCINvNtCsiFMhfKJXoB5_5lb_l78ws_proxy9server_wsINtNtNtCs86YdmMopYMP_10hyper_util2rt5tokio7TokioIoNtNtCsgB3dp6qvXvn_5hyper7upgrade8UpgradedEE0B6_
FNDA:0,_RNCNCINvMs0_NtCsiFMhfKJXoB5_5lb_l78ws_proxyNtBa_7WsProxy12proxy_framesINtNtNtCs86YdmMopYMP_10hyper_util2rt5tokio7TokioIoNtNtCsgB3dp6qvXvn_5hyper7upgrade8UpgradedENtNtNtNtCsfWKKmeeA0Vo_5tokio3net3tcp6stream9TcpStreamE00Bc_
FNDA:0,_RNCNCNCINvMs0_NtCsiFMhfKJXoB5_5lb_l78ws_proxyNtBc_7WsProxy12proxy_framesINtNtNtCs86YdmMopYMP_10hyper_util2rt5tokio7TokioIoNtNtCsgB3dp6qvXvn_5hyper7upgrade8UpgradedENtNtNtNtCsfWKKmeeA0Vo_5tokio3net3tcp6stream9TcpStreamE00s0_0Be_
FNDA:0,_RNCNCNCINvMs0_NtCsiFMhfKJXoB5_5lb_l78ws_proxyNtBc_7WsProxy12proxy_framesINtNtNtCs86YdmMopYMP_10hyper_util2rt5tokio7TokioIoNtNtCsgB3dp6qvXvn_5hyper7upgrade8UpgradedENtNtNtNtCsfWKKmeeA0Vo_5tokio3net3tcp6stream9TcpStreamE00s_0Be_
FNF:22
FNH:0
DA:112,0
DA:113,0
DA:114,0
DA:115,0
DA:116,0
DA:117,0
DA:118,0
DA:119,0
DA:120,0
DA:121,0
DA:130,0
DA:131,0
DA:132,0
DA:133,0
DA:134,0
DA:135,0
DA:136,0
DA:144,0
DA:145,0
DA:146,0
DA:147,0
DA:148,0
DA:149,0
DA:150,0
DA:151,0
DA:152,0
DA:153,0
DA:154,0
DA:155,0
DA:156,0
DA:157,0
DA:158,0
DA:159,0
DA:160,0
DA:161,0
DA:162,0
DA:163,0
DA:164,0
DA:165,0
DA:166,0
DA:174,0
DA:175,0
DA:176,0
DA:177,0
DA:178,0
DA:179,0
DA:180,0
DA:181,0
DA:182,0
DA:183,0
DA:184,0
DA:194,0
DA:195,0
DA:196,0
DA:200,0
DA:201,0
DA:202,0
DA:217,0
DA:218,0
DA:219,0
DA:220,0
DA:221,0
DA:222,0
DA:223,0
DA:224,0
DA:225,0
DA:226,0
DA:227,0
DA:228,0
DA:229,0
DA:230,0
DA:231,0
DA:232,0
DA:233,0
DA:234,0
DA:235,0
DA:236,0
DA:237,0
DA:238,0
DA:247,0
DA:248,0
DA:250,0
DA:251,0
DA:252,0
DA:253,0
DA:254,0
DA:255,0
DA:256,0
DA:257,0
DA:258,0
DA:259,0
DA:261,0
DA:262,0
DA:264,0
DA:267,0
DA:268,0
DA:269,0
DA:270,0
DA:271,0
DA:272,0
DA:273,0
DA:279,0
DA:280,0
DA:281,0
DA:282,0
DA:283,0
DA:284,0
DA:285,0
DA:286,0
DA:287,0
DA:289,0
DA:295,0
DA:296,0
DA:297,0
DA:298,0
DA:299,0
DA:300,0
DA:301,0
DA:302,0
DA:305,0
DA:306,0
DA:307,0
DA:308,0
DA:309,0
DA:310,0
DA:311,0
DA:312,0
DA:313,0
DA:314,0
DA:315,0
DA:316,0
DA:317,0
DA:318,0
DA:319,0
DA:320,0
DA:321,0
DA:327,0
DA:328,0
DA:329,0
DA:331,0
DA:332,0
DA:333,0
DA:334,0
DA:335,0
DA:336,0
DA:337,0
DA:343,0
DA:344,0
DA:347,0
DA:348,0
DA:350,0
DA:351,0
DA:355,0
DA:370,0
DA:371,0
DA:372,0
DA:373,0
DA:374,0
DA:375,0
DA:382,0
DA:383,0
DA:384,0
DA:385,0
DA:386,0
DA:387,0
DA:397,0
DA:398,0
DA:399,0
DA:400,0
DA:401,0
DA:402,0
DA:403,0
DA:406,0
DA:407,0
DA:419,0
DA:420,0
DA:421,0
DA:422,0
DA:423,0
DA:424,0
DA:425,0
DA:426,0
DA:427,0
DA:428,0
DA:429,0
DA:430,0
DA:431,0
DA:432,0
DA:433,0
DA:434,0
DA:435,0
DA:436,0
BRF:0
BRH:0
LF:204
LH:0
end_of_record
SF:/home/ubuntu/Code/s9-verifier/crates/lb-observability/src/admin_http.rs
FN:159,_RNCNvNtCsjqkoZuoA1pp_16lb_observability10admin_http11json_status0B5_
FN:167,_RNCNvNtCsjqkoZuoA1pp_16lb_observability10admin_http5plain0B5_
FN:89,_RNCNvNtCsjqkoZuoA1pp_16lb_observability10admin_http5route0B5_
FN:102,_RNCNvNtCsjqkoZuoA1pp_16lb_observability10admin_http5routes_0B5_
FN:61,_RNCNvXNtCsjqkoZuoA1pp_16lb_observability10admin_httpNtB4_12AdminServiceINtNtNtCsgB3dp6qvXvn_5hyper7service7service7ServiceINtNtCsjFxw70quGA5_4http7request7RequestNtNtNtB1e_4body8incoming8IncomingEE4call0B6_
FN:146,_RNvNtCsjqkoZuoA1pp_16lb_observability10admin_http11json_status
FN:170,_RNvNtCsjqkoZuoA1pp_16lb_observability10admin_http12fallback_500
FN:68,_RNvNtCsjqkoZuoA1pp_16lb_observability10admin_http13is_probe_path
FN:113,_RNvNtCsjqkoZuoA1pp_16lb_observability10admin_http14livez_response
FN:124,_RNvNtCsjqkoZuoA1pp_16lb_observability10admin_http15readyz_response
FN:223,_RNvNtCsjqkoZuoA1pp_16lb_observability10admin_http15serve_with_auth
FN:198,_RNvNtCsjqkoZuoA1pp_16lb_observability10admin_http17serve_with_probes
FN:136,_RNvNtCsjqkoZuoA1pp_16lb_observability10admin_http17startupz_response
FN:162,_RNvNtCsjqkoZuoA1pp_16lb_observability10admin_http5plain
FN:72,_RNvNtCsjqkoZuoA1pp_16lb_observability10admin_http5route
FN:290,_RNvNtCsjqkoZuoA1pp_16lb_observability10admin_http5serve
FN:57,_RNvXNtCsjqkoZuoA1pp_16lb_observability10admin_httpNtB2_12AdminServiceINtNtNtCsgB3dp6qvXvn_5hyper7service7service7ServiceINtNtCsjFxw70quGA5_4http7request7RequestNtNtNtB1c_4body8incoming8IncomingEE4call
FN:262,_RNCNCNCNvNtCsjqkoZuoA1pp_16lb_observability10admin_http15serve_with_auth0s_00B9_
FN:232,_RNCNCNvNtCsjqkoZuoA1pp_16lb_observability10admin_http15serve_with_auth00B7_
FN:244,_RNCNCNvNtCsjqkoZuoA1pp_16lb_observability10admin_http15serve_with_auth0s_0B7_
FN:229,_RNCNvNtCsjqkoZuoA1pp_16lb_observability10admin_http15serve_with_auth0B5_
FN:203,_RNCNvNtCsjqkoZuoA1pp_16lb_observability10admin_http17serve_with_probes0B5_
FN:294,_RNCNvNtCsjqkoZuoA1pp_16lb_observability10admin_http5serve0B5_
FNDA:0,_RNCNvNtCsjqkoZuoA1pp_16lb_observability10admin_http11json_status0B5_
FNDA:0,_RNCNvNtCsjqkoZuoA1pp_16lb_observability10admin_http5plain0B5_
FNDA:0,_RNCNvNtCsjqkoZuoA1pp_16lb_observability10admin_http5route0B5_
FNDA:0,_RNCNvNtCsjqkoZuoA1pp_16lb_observability10admin_http5routes_0B5_
FNDA:0,_RNCNvXNtCsjqkoZuoA1pp_16lb_observability10admin_httpNtB4_12AdminServiceINtNtNtCsgB3dp6qvXvn_5hyper7service7service7ServiceINtNtCsjFxw70quGA5_4http7request7RequestNtNtNtB1e_4body8incoming8IncomingEE4call0B6_
FNDA:0,_RNvNtCsjqkoZuoA1pp_16lb_observability10admin_http11json_status
FNDA:0,_RNvNtCsjqkoZuoA1pp_16lb_observability10admin_http12fallback_500
FNDA:0,_RNvNtCsjqkoZuoA1pp_16lb_observability10admin_http13is_probe_path
FNDA:0,_RNvNtCsjqkoZuoA1pp_16lb_observability10admin_http14livez_response
FNDA:0,_RNvNtCsjqkoZuoA1pp_16lb_observability10admin_http15readyz_response
FNDA:0,_RNvNtCsjqkoZuoA1pp_16lb_observability10admin_http15serve_with_auth
FNDA:0,_RNvNtCsjqkoZuoA1pp_16lb_observability10admin_http17serve_with_probes
FNDA:0,_RNvNtCsjqkoZuoA1pp_16lb_observability10admin_http17startupz_response
FNDA:0,_RNvNtCsjqkoZuoA1pp_16lb_observability10admin_http5plain
FNDA:0,_RNvNtCsjqkoZuoA1pp_16lb_observability10admin_http5route
FNDA:0,_RNvNtCsjqkoZuoA1pp_16lb_observability10admin_http5serve
FNDA:0,_RNvXNtCsjqkoZuoA1pp_16lb_observability10admin_httpNtB2_12AdminServiceINtNtNtCsgB3dp6qvXvn_5hyper7service7service7ServiceINtNtCsjFxw70quGA5_4http7request7RequestNtNtNtB1c_4body8incoming8IncomingEE4call
FNDA:0,_RNCNCNCNvNtCsjqkoZuoA1pp_16lb_observability10admin_http15serve_with_auth0s_00B9_
FNDA:0,_RNCNCNvNtCsjqkoZuoA1pp_16lb_observability10admin_http15serve_with_auth00B7_
FNDA:0,_RNCNCNvNtCsjqkoZuoA1pp_16lb_observability10admin_http15serve_with_auth0s_0B7_
FNDA:0,_RNCNvNtCsjqkoZuoA1pp_16lb_observability10admin_http15serve_with_auth0B5_
FNDA:0,_RNCNvNtCsjqkoZuoA1pp_16lb_observability10admin_http17serve_with_probes0B5_
FNDA:0,_RNCNvNtCsjqkoZuoA1pp_16lb_observability10admin_http5serve0B5_
FNF:23
FNH:0
DA:57,0
DA:58,0
DA:59,0
DA:60,0
DA:61,0
DA:62,0
DA:68,0
DA:69,0
DA:70,0
DA:72,0
DA:73,0
DA:74,0
DA:75,0
DA:76,0
DA:77,0
DA:78,0
DA:79,0
DA:80,0
DA:84,0
DA:85,0
DA:86,0
DA:87,0
DA:88,0
DA:89,0
DA:90,0
DA:91,0
DA:92,0
DA:93,0
DA:94,0
DA:95,0
DA:96,0
DA:97,0
DA:98,0
DA:99,0
DA:100,0
DA:101,0
DA:102,0
DA:104,0
DA:105,0
DA:106,0
DA:107,0
DA:109,0
DA:113,0
DA:114,0
DA:115,0
DA:117,0
DA:119,0
DA:120,0
DA:124,0
DA:125,0
DA:126,0
DA:127,0
DA:129,0
DA:131,0
DA:132,0
DA:136,0
DA:137,0
DA:138,0
DA:139,0
DA:141,0
DA:143,0
DA:144,0
DA:146,0
DA:147,0
DA:148,0
DA:149,0
DA:150,0
DA:151,0
DA:152,0
DA:153,0
DA:154,0
DA:155,0
DA:156,0
DA:157,0
DA:158,0
DA:159,0
DA:160,0
DA:162,0
DA:163,0
DA:164,0
DA:165,0
DA:166,0
DA:167,0
DA:168,0
DA:170,0
DA:171,0
DA:172,0
DA:173,0
DA:174,0
DA:175,0
DA:176,0
DA:177,0
DA:178,0
DA:179,0
DA:180,0
DA:198,0
DA:199,0
DA:200,0
DA:201,0
DA:202,0
DA:203,0
DA:204,0
DA:205,0
DA:223,0
DA:224,0
DA:225,0
DA:226,0
DA:227,0
DA:228,0
DA:229,0
DA:230,0
DA:231,0
DA:232,0
DA:233,0
DA:236,0
DA:238,0
DA:239,0
DA:240,0
DA:241,0
DA:242,0
DA:243,0
DA:244,0
DA:246,0
DA:248,0
DA:249,0
DA:250,0
DA:252,0
DA:254,0
DA:255,0
DA:256,0
DA:257,0
DA:258,0
DA:261,0
DA:262,0
DA:263,0
DA:264,0
DA:265,0
DA:266,0
DA:267,0
DA:269,0
DA:270,0
DA:271,0
DA:273,0
DA:274,0
DA:275,0
DA:276,0
DA:290,0
DA:291,0
DA:292,0
DA:293,0
DA:294,0
DA:295,0
DA:296,0
DA:297,0
DA:298,0
DA:299,0
DA:300,0
DA:301,0
DA:302,0
BRF:0
BRH:0
LF:172
LH:0
end_of_record
SF:/home/ubuntu/Code/s9-verifier/crates/lb-observability/src/label_budget.rs
FN:332,_RNCNvMs4_NtCsjqkoZuoA1pp_16lb_observability12label_budgetNtB7_19EnforcedLabelBudget8observed0B9_
FN:240,_RNCNvXs1_NtCsjqkoZuoA1pp_16lb_observability12label_budgetNtB7_19EnforcedLabelBudgetNtNtCs2va5m0jqTTM_4core3fmt5Debug3fmt0B9_
FNDA:0,_RNCNvMs4_NtCsjqkoZuoA1pp_16lb_observability12label_budgetNtB7_19EnforcedLabelBudget8observed0B9_
FNDA:0,_RNCNvXs1_NtCsjqkoZuoA1pp_16lb_observability12label_budgetNtB7_19EnforcedLabelBudgetNtNtCs2va5m0jqTTM_4core3fmt5Debug3fmt0B9_
FNF:2
FNH:0
DA:240,0
DA:332,0
BRF:0
BRH:0
LF:2
LH:0
end_of_record
SF:/home/ubuntu/Code/s9-verifier/crates/lb-observability/src/lib.rs
FN:483,_RNCNvMs0_CsjqkoZuoA1pp_16lb_observabilityNtB7_15MetricsRegistry17check_cardinality0B7_
FN:499,_RNvCsjqkoZuoA1pp_16lb_observability20http_latency_buckets
FN:183,_RNvMs0_CsjqkoZuoA1pp_16lb_observabilityNtB5_15MetricsRegistry11counter_vec
FN:257,_RNvMs0_CsjqkoZuoA1pp_16lb_observabilityNtB5_15MetricsRegistry13histogram_vec
FN:478,_RNvMs0_CsjqkoZuoA1pp_16lb_observabilityNtB5_15MetricsRegistry17check_cardinality
FN:393,_RNvMs0_CsjqkoZuoA1pp_16lb_observabilityNtB5_15MetricsRegistry19accept_inflight_dec
FN:382,_RNvMs0_CsjqkoZuoA1pp_16lb_observabilityNtB5_15MetricsRegistry19accept_inflight_inc
FN:417,_RNvMs0_CsjqkoZuoA1pp_16lb_observabilityNtB5_15MetricsRegistry19panic_total_counter
FN:370,_RNvMs0_CsjqkoZuoA1pp_16lb_observabilityNtB5_15MetricsRegistry21accept_inflight_gauge
FN:457,_RNvMs0_CsjqkoZuoA1pp_16lb_observabilityNtB5_15MetricsRegistry3get
FN:468,_RNvMs0_CsjqkoZuoA1pp_16lb_observabilityNtB5_15MetricsRegistry3len
FN:125,_RNvMs0_CsjqkoZuoA1pp_16lb_observabilityNtB5_15MetricsRegistry3new
FN:335,_RNvMs0_CsjqkoZuoA1pp_16lb_observabilityNtB5_15MetricsRegistry5gauge
FN:435,_RNvMs0_CsjqkoZuoA1pp_16lb_observabilityNtB5_15MetricsRegistry5inner
FN:427,_RNvMs0_CsjqkoZuoA1pp_16lb_observabilityNtB5_15MetricsRegistry6gather
FN:144,_RNvMs0_CsjqkoZuoA1pp_16lb_observabilityNtB5_15MetricsRegistry7counter
FN:474,_RNvMs0_CsjqkoZuoA1pp_16lb_observabilityNtB5_15MetricsRegistry8is_empty
FN:299,_RNvMs0_CsjqkoZuoA1pp_16lb_observabilityNtB5_15MetricsRegistry9gauge_vec
FN:219,_RNvMs0_CsjqkoZuoA1pp_16lb_observabilityNtB5_15MetricsRegistry9histogram
FN:443,_RNvMs0_CsjqkoZuoA1pp_16lb_observabilityNtB5_15MetricsRegistry9increment
FN:104,_RNvXCsjqkoZuoA1pp_16lb_observabilityNtB2_15MetricsRegistryNtNtCs2va5m0jqTTM_4core7default7Default7default
FN:110,_RNvXs_CsjqkoZuoA1pp_16lb_observabilityNtB4_6HandleNtNtCs2va5m0jqTTM_4core3fmt5Debug3fmt
FN:512,_RNvCsjqkoZuoA1pp_16lb_observability24__force_collector_linkage
FNDA:0,_RNCNvMs0_CsjqkoZuoA1pp_16lb_observabilityNtB7_15MetricsRegistry17check_cardinality0B7_
FNDA:0,_RNvCsjqkoZuoA1pp_16lb_observability20http_latency_buckets
FNDA:0,_RNvMs0_CsjqkoZuoA1pp_16lb_observabilityNtB5_15MetricsRegistry11counter_vec
FNDA:0,_RNvMs0_CsjqkoZuoA1pp_16lb_observabilityNtB5_15MetricsRegistry13histogram_vec
FNDA:0,_RNvMs0_CsjqkoZuoA1pp_16lb_observabilityNtB5_15MetricsRegistry17check_cardinality
FNDA:0,_RNvMs0_CsjqkoZuoA1pp_16lb_observabilityNtB5_15MetricsRegistry19accept_inflight_dec
FNDA:0,_RNvMs0_CsjqkoZuoA1pp_16lb_observabilityNtB5_15MetricsRegistry19accept_inflight_inc
FNDA:0,_RNvMs0_CsjqkoZuoA1pp_16lb_observabilityNtB5_15MetricsRegistry19panic_total_counter
FNDA:0,_RNvMs0_CsjqkoZuoA1pp_16lb_observabilityNtB5_15MetricsRegistry21accept_inflight_gauge
FNDA:0,_RNvMs0_CsjqkoZuoA1pp_16lb_observabilityNtB5_15MetricsRegistry3get
FNDA:0,_RNvMs0_CsjqkoZuoA1pp_16lb_observabilityNtB5_15MetricsRegistry3len
FNDA:0,_RNvMs0_CsjqkoZuoA1pp_16lb_observabilityNtB5_15MetricsRegistry3new
FNDA:0,_RNvMs0_CsjqkoZuoA1pp_16lb_observabilityNtB5_15MetricsRegistry5gauge
FNDA:0,_RNvMs0_CsjqkoZuoA1pp_16lb_observabilityNtB5_15MetricsRegistry5inner
FNDA:0,_RNvMs0_CsjqkoZuoA1pp_16lb_observabilityNtB5_15MetricsRegistry6gather
FNDA:0,_RNvMs0_CsjqkoZuoA1pp_16lb_observabilityNtB5_15MetricsRegistry7counter
FNDA:0,_RNvMs0_CsjqkoZuoA1pp_16lb_observabilityNtB5_15MetricsRegistry8is_empty
FNDA:0,_RNvMs0_CsjqkoZuoA1pp_16lb_observabilityNtB5_15MetricsRegistry9gauge_vec
FNDA:0,_RNvMs0_CsjqkoZuoA1pp_16lb_observabilityNtB5_15MetricsRegistry9histogram
FNDA:0,_RNvMs0_CsjqkoZuoA1pp_16lb_observabilityNtB5_15MetricsRegistry9increment
FNDA:0,_RNvXCsjqkoZuoA1pp_16lb_observabilityNtB2_15MetricsRegistryNtNtCs2va5m0jqTTM_4core7default7Default7default
FNDA:0,_RNvXs_CsjqkoZuoA1pp_16lb_observabilityNtB4_6HandleNtNtCs2va5m0jqTTM_4core3fmt5Debug3fmt
FNDA:0,_RNvCsjqkoZuoA1pp_16lb_observability24__force_collector_linkage
FNF:23
FNH:0
DA:104,0
DA:105,0
DA:106,0
DA:110,0
DA:111,0
DA:112,0
DA:113,0
DA:114,0
DA:115,0
DA:116,0
DA:117,0
DA:119,0
DA:125,0
DA:126,0
DA:127,0
DA:128,0
DA:129,0
DA:130,0
DA:144,0
DA:146,0
DA:147,0
DA:148,0
DA:149,0
DA:150,0
DA:151,0
DA:152,0
DA:153,0
DA:154,0
DA:155,0
DA:156,0
DA:157,0
DA:158,0
DA:159,0
DA:160,0
DA:161,0
DA:162,0
DA:163,0
DA:164,0
DA:166,0
DA:167,0
DA:168,0
DA:169,0
DA:170,0
DA:171,0
DA:174,0
DA:183,0
DA:184,0
DA:185,0
DA:186,0
DA:187,0
DA:188,0
DA:189,0
DA:190,0
DA:191,0
DA:192,0
DA:193,0
DA:194,0
DA:195,0
DA:196,0
DA:197,0
DA:198,0
DA:199,0
DA:200,0
DA:201,0
DA:202,0
DA:204,0
DA:205,0
DA:206,0
DA:207,0
DA:208,0
DA:209,0
DA:212,0
DA:219,0
DA:220,0
DA:221,0
DA:222,0
DA:223,0
DA:224,0
DA:225,0
DA:226,0
DA:227,0
DA:228,0
DA:229,0
DA:230,0
DA:231,0
DA:232,0
DA:233,0
DA:234,0
DA:235,0
DA:236,0
DA:237,0
DA:238,0
DA:240,0
DA:241,0
DA:242,0
DA:243,0
DA:244,0
DA:245,0
DA:246,0
DA:247,0
DA:250,0
DA:257,0
DA:258,0
DA:259,0
DA:260,0
DA:261,0
DA:262,0
DA:263,0
DA:264,0
DA:265,0
DA:266,0
DA:267,0
DA:268,0
DA:269,0
DA:270,0
DA:271,0
DA:272,0
DA:273,0
DA:274,0
DA:275,0
DA:276,0
DA:277,0
DA:279,0
DA:280,0
DA:281,0
DA:282,0
DA:283,0
DA:284,0
DA:285,0
DA:286,0
DA:287,0
DA:290,0
DA:299,0
DA:300,0
DA:301,0
DA:302,0
DA:303,0
DA:304,0
DA:305,0
DA:306,0
DA:307,0
DA:308,0
DA:309,0
DA:310,0
DA:311,0
DA:312,0
DA:313,0
DA:314,0
DA:315,0
DA:316,0
DA:317,0
DA:318,0
DA:320,0
DA:321,0
DA:322,0
DA:323,0
DA:324,0
DA:325,0
DA:328,0
DA:335,0
DA:336,0
DA:337,0
DA:338,0
DA:339,0
DA:340,0
DA:341,0
DA:342,0
DA:343,0
DA:344,0
DA:345,0
DA:346,0
DA:347,0
DA:348,0
DA:349,0
DA:351,0
DA:352,0
DA:353,0
DA:354,0
DA:355,0
DA:356,0
DA:359,0
DA:370,0
DA:371,0
DA:372,0
DA:373,0
DA:374,0
DA:375,0
DA:376,0
DA:382,0
DA:383,0
DA:384,0
DA:385,0
DA:386,0
DA:389,0
DA:393,0
DA:394,0
DA:395,0
DA:396,0
DA:397,0
DA:400,0
DA:417,0
DA:418,0
DA:419,0
DA:420,0
DA:421,0
DA:422,0
DA:427,0
DA:428,0
DA:429,0
DA:435,0
DA:436,0
DA:437,0
DA:443,0
DA:444,0
DA:445,0
DA:446,0
DA:447,0
DA:450,0
DA:457,0
DA:458,0
DA:459,0
DA:460,0
DA:461,0
DA:462,0
DA:463,0
DA:468,0
DA:469,0
DA:470,0
DA:474,0
DA:475,0
DA:476,0
DA:478,0
DA:479,0
DA:480,0
DA:481,0
DA:482,0
DA:483,0
DA:484,0
DA:485,0
DA:486,0
DA:489,0
DA:491,0
DA:492,0
DA:499,0
DA:500,0
DA:501,0
DA:502,0
DA:503,0
DA:512,0
BRF:0
BRH:0
LF:250
LH:0
end_of_record
SF:/home/ubuntu/Code/s9-verifier/crates/lb-observability/src/log.rs
FN:106,_RNCNvNtCsjqkoZuoA1pp_16lb_observability3log12init_tracing0B5_
FN:110,_RNCNvNtCsjqkoZuoA1pp_16lb_observability3log12init_tracings_0B5_
FN:45,_RNvMNtCsjqkoZuoA1pp_16lb_observability3logNtB2_9LogFormat5parse
FN:103,_RNvNtCsjqkoZuoA1pp_16lb_observability3log12init_tracing
FN:143,_RNvNtCsjqkoZuoA1pp_16lb_observability3log14current_format
FN:64,_RNvXs_NtCsjqkoZuoA1pp_16lb_observability3logNtB4_13TracingConfigNtNtCs2va5m0jqTTM_4core7default7Default7default
FNDA:0,_RNCNvNtCsjqkoZuoA1pp_16lb_observability3log12init_tracing0B5_
FNDA:0,_RNCNvNtCsjqkoZuoA1pp_16lb_observability3log12init_tracings_0B5_
FNDA:0,_RNvMNtCsjqkoZuoA1pp_16lb_observability3logNtB2_9LogFormat5parse
FNDA:0,_RNvNtCsjqkoZuoA1pp_16lb_observability3log12init_tracing
FNDA:0,_RNvNtCsjqkoZuoA1pp_16lb_observability3log14current_format
FNDA:0,_RNvXs_NtCsjqkoZuoA1pp_16lb_observability3logNtB4_13TracingConfigNtNtCs2va5m0jqTTM_4core7default7Default7default
FNF:6
FNH:0
DA:45,0
DA:46,0
DA:47,0
DA:48,0
DA:49,0
DA:51,0
DA:64,0
DA:65,0
DA:66,0
DA:67,0
DA:68,0
DA:69,0
DA:103,0
DA:104,0
DA:105,0
DA:106,0
DA:107,0
DA:108,0
DA:109,0
DA:110,0
DA:114,0
DA:115,0
DA:116,0
DA:117,0
DA:118,0
DA:119,0
DA:120,0
DA:121,0
DA:122,0
DA:123,0
DA:124,0
DA:125,0
DA:126,0
DA:127,0
DA:130,0
DA:133,0
DA:134,0
DA:136,0
DA:138,0
DA:143,0
DA:144,0
DA:145,0
BRF:0
BRH:0
LF:44
LH:0
end_of_record
SF:/home/ubuntu/Code/s9-verifier/crates/lb-observability/src/probes.rs
FN:54,_RNvMNtCsjqkoZuoA1pp_16lb_observability6probesNtB2_10ProbeState10body_token
FN:40,_RNvMNtCsjqkoZuoA1pp_16lb_observability6probesNtB2_10ProbeState7as_byte
FN:44,_RNvMNtCsjqkoZuoA1pp_16lb_observability6probesNtB2_10ProbeState9from_byte
FN:143,_RNvMs0_NtCsjqkoZuoA1pp_16lb_observability6probesNtB5_13ProbeRegistry10is_started
FN:118,_RNvMs0_NtCsjqkoZuoA1pp_16lb_observability6probesNtB5_13ProbeRegistry12set_draining
FN:83,_RNvMs0_NtCsjqkoZuoA1pp_16lb_observability6probesNtB5_13ProbeRegistry3new
FN:98,_RNvMs0_NtCsjqkoZuoA1pp_16lb_observability6probesNtB5_13ProbeRegistry5state
FN:92,_RNvMs0_NtCsjqkoZuoA1pp_16lb_observability6probesNtB5_13ProbeRegistry6shared
FN:132,_RNvMs0_NtCsjqkoZuoA1pp_16lb_observability6probesNtB5_13ProbeRegistry7is_live
FN:125,_RNvMs0_NtCsjqkoZuoA1pp_16lb_observability6probesNtB5_13ProbeRegistry8is_ready
FN:105,_RNvMs0_NtCsjqkoZuoA1pp_16lb_observability6probesNtB5_13ProbeRegistry9set_ready
FN:75,_RNvXs_NtCsjqkoZuoA1pp_16lb_observability6probesNtB4_13ProbeRegistryNtNtCs2va5m0jqTTM_4core7default7Default7default
FNDA:0,_RNvMNtCsjqkoZuoA1pp_16lb_observability6probesNtB2_10ProbeState10body_token
FNDA:0,_RNvMNtCsjqkoZuoA1pp_16lb_observability6probesNtB2_10ProbeState7as_byte
FNDA:0,_RNvMNtCsjqkoZuoA1pp_16lb_observability6probesNtB2_10ProbeState9from_byte
FNDA:0,_RNvMs0_NtCsjqkoZuoA1pp_16lb_observability6probesNtB5_13ProbeRegistry10is_started
FNDA:0,_RNvMs0_NtCsjqkoZuoA1pp_16lb_observability6probesNtB5_13ProbeRegistry12set_draining
FNDA:0,_RNvMs0_NtCsjqkoZuoA1pp_16lb_observability6probesNtB5_13ProbeRegistry3new
FNDA:0,_RNvMs0_NtCsjqkoZuoA1pp_16lb_observability6probesNtB5_13ProbeRegistry5state
FNDA:0,_RNvMs0_NtCsjqkoZuoA1pp_16lb_observability6probesNtB5_13ProbeRegistry6shared
FNDA:0,_RNvMs0_NtCsjqkoZuoA1pp_16lb_observability6probesNtB5_13ProbeRegistry7is_live
FNDA:0,_RNvMs0_NtCsjqkoZuoA1pp_16lb_observability6probesNtB5_13ProbeRegistry8is_ready
FNDA:0,_RNvMs0_NtCsjqkoZuoA1pp_16lb_observability6probesNtB5_13ProbeRegistry9set_ready
FNDA:0,_RNvXs_NtCsjqkoZuoA1pp_16lb_observability6probesNtB4_13ProbeRegistryNtNtCs2va5m0jqTTM_4core7default7Default7default
FNF:12
FNH:0
DA:40,0
DA:41,0
DA:42,0
DA:44,0
DA:45,0
DA:46,0
DA:47,0
DA:48,0
DA:50,0
DA:54,0
DA:55,0
DA:56,0
DA:57,0
DA:58,0
DA:60,0
DA:75,0
DA:76,0
DA:77,0
DA:83,0
DA:84,0
DA:85,0
DA:86,0
DA:87,0
DA:92,0
DA:93,0
DA:94,0
DA:98,0
DA:99,0
DA:100,0
DA:105,0
DA:106,0
DA:107,0
DA:108,0
DA:109,0
DA:110,0
DA:111,0
DA:112,0
DA:113,0
DA:114,0
DA:118,0
DA:119,0
DA:120,0
DA:121,0
DA:125,0
DA:126,0
DA:127,0
DA:132,0
DA:133,0
DA:134,0
DA:135,0
DA:136,0
DA:137,0
DA:143,0
DA:144,0
DA:145,0
BRF:0
BRH:0
LF:55
LH:0
end_of_record
SF:/home/ubuntu/Code/s9-verifier/crates/lb-observability/src/prometheus_exposition.rs
FN:33,_RNCNvNtCsjqkoZuoA1pp_16lb_observability21prometheus_exposition11render_text0B5_
FN:22,_RNvNtCsjqkoZuoA1pp_16lb_observability21prometheus_exposition11render_text
FNDA:0,_RNCNvNtCsjqkoZuoA1pp_16lb_observability21prometheus_exposition11render_text0B5_
FNDA:0,_RNvNtCsjqkoZuoA1pp_16lb_observability21prometheus_exposition11render_text
FNF:2
FNH:0
DA:22,0
DA:23,0
DA:24,0
DA:25,0
DA:29,0
DA:30,0
DA:31,0
DA:32,0
DA:33,0
DA:34,0
DA:35,0
DA:36,0
DA:37,0
BRF:0
BRH:0
LF:15
LH:0
end_of_record
SF:/home/ubuntu/Code/s9-verifier/crates/lb-observability/src/tracing_propagation.rs
FN:239,_RINvNtCsjqkoZuoA1pp_16lb_observability19tracing_propagation11inject_intoNtNtCsiFMhfKJXoB5_5lb_l79trace_ctx12HyperHeadersEB1c_
FN:210,_RINvNtCsjqkoZuoA1pp_16lb_observability19tracing_propagation14extract_parentNtNtCsiFMhfKJXoB5_5lb_l79trace_ctx15HyperHeadersRefEB1f_
FN:214,_RNCINvNtCsjqkoZuoA1pp_16lb_observability19tracing_propagation14extract_parentNtNtCsiFMhfKJXoB5_5lb_l79trace_ctx15HyperHeadersRefE0B1h_
FN:53,_RNvMNtCsjqkoZuoA1pp_16lb_observability19tracing_propagationNtB2_10OtlpConfig8disabled
FN:76,_RNvMs_NtCsjqkoZuoA1pp_16lb_observability19tracing_propagationNtB4_12TraceContext7sampled
FN:83,_RNvMs_NtCsjqkoZuoA1pp_16lb_observability19tracing_propagationNtB4_12TraceContext9to_header
FN:103,_RNvNtCsjqkoZuoA1pp_16lb_observability19tracing_propagation10hex_nibble
FN:177,_RNvNtCsjqkoZuoA1pp_16lb_observability19tracing_propagation15decode_hex_byte
FN:183,_RNvNtCsjqkoZuoA1pp_16lb_observability19tracing_propagation17decode_hex_nibble
FN:129,_RNvNtCsjqkoZuoA1pp_16lb_observability19tracing_propagation17parse_traceparent
FN:262,_RNvNtCsjqkoZuoA1pp_16lb_observability19tracing_propagation9span_name
FN:157,_RNCNvNtCsjqkoZuoA1pp_16lb_observability19tracing_propagation17parse_traceparent0B5_
FN:166,_RNCNvNtCsjqkoZuoA1pp_16lb_observability19tracing_propagation17parse_traceparents_0B5_
FN:239,_RINvNtCsjqkoZuoA1pp_16lb_observability19tracing_propagation11inject_intopEB4_
FN:210,_RINvNtCsjqkoZuoA1pp_16lb_observability19tracing_propagation14extract_parentpEB4_
FN:214,_RNCINvNtCsjqkoZuoA1pp_16lb_observability19tracing_propagation14extract_parentpE0B6_
FNDA:45,_RINvNtCsjqkoZuoA1pp_16lb_observability19tracing_propagation11inject_intoNtNtCsiFMhfKJXoB5_5lb_l79trace_ctx12HyperHeadersEB1c_
FNDA:67,_RINvNtCsjqkoZuoA1pp_16lb_observability19tracing_propagation14extract_parentNtNtCsiFMhfKJXoB5_5lb_l79trace_ctx15HyperHeadersRefEB1f_
FNDA:0,_RNCINvNtCsjqkoZuoA1pp_16lb_observability19tracing_propagation14extract_parentNtNtCsiFMhfKJXoB5_5lb_l79trace_ctx15HyperHeadersRefE0B1h_
FNDA:0,_RNvMNtCsjqkoZuoA1pp_16lb_observability19tracing_propagationNtB2_10OtlpConfig8disabled
FNDA:0,_RNvMs_NtCsjqkoZuoA1pp_16lb_observability19tracing_propagationNtB4_12TraceContext7sampled
FNDA:45,_RNvMs_NtCsjqkoZuoA1pp_16lb_observability19tracing_propagationNtB4_12TraceContext9to_header
FNDA:2250,_RNvNtCsjqkoZuoA1pp_16lb_observability19tracing_propagation10hex_nibble
FNDA:0,_RNvNtCsjqkoZuoA1pp_16lb_observability19tracing_propagation15decode_hex_byte
FNDA:0,_RNvNtCsjqkoZuoA1pp_16lb_observability19tracing_propagation17decode_hex_nibble
FNDA:0,_RNvNtCsjqkoZuoA1pp_16lb_observability19tracing_propagation17parse_traceparent
FNDA:0,_RNvNtCsjqkoZuoA1pp_16lb_observability19tracing_propagation9span_name
FNDA:0,_RNCNvNtCsjqkoZuoA1pp_16lb_observability19tracing_propagation17parse_traceparent0B5_
FNDA:0,_RNCNvNtCsjqkoZuoA1pp_16lb_observability19tracing_propagation17parse_traceparents_0B5_
FNDA:0,_RINvNtCsjqkoZuoA1pp_16lb_observability19tracing_propagation11inject_intopEB4_
FNDA:0,_RINvNtCsjqkoZuoA1pp_16lb_observability19tracing_propagation14extract_parentpEB4_
FNDA:0,_RNCINvNtCsjqkoZuoA1pp_16lb_observability19tracing_propagation14extract_parentpE0B6_
FNF:13
FNH:4
DA:53,0
DA:54,0
DA:55,0
DA:56,0
DA:57,0
DA:58,0
DA:76,0
DA:77,0
DA:78,0
DA:83,45
DA:84,45
DA:85,45
DA:86,765
DA:87,720
DA:88,720
DA:89,720
DA:90,720
DA:91,45
DA:92,405
DA:93,360
DA:94,360
DA:95,360
DA:96,45
DA:97,45
DA:98,45
DA:99,45
DA:100,45
DA:103,2250
DA:104,2250
DA:105,206
DA:106,201
DA:107,79
DA:108,184
DA:109,80
DA:110,201
DA:111,96
DA:112,157
DA:113,117
DA:114,198
DA:115,71
DA:116,140
DA:117,108
DA:118,168
DA:119,75
DA:120,169
DA:122,2250
DA:129,0
DA:130,0
DA:131,0
DA:132,0
DA:133,0
DA:134,0
DA:135,0
DA:136,0
DA:137,0
DA:138,0
DA:139,0
DA:140,0
DA:141,0
DA:142,0
DA:144,0
DA:145,0
DA:146,0
DA:149,0
DA:150,0
DA:151,0
DA:152,0
DA:153,0
DA:154,0
DA:155,0
DA:157,0
DA:158,0
DA:159,0
DA:160,0
DA:161,0
DA:162,0
DA:163,0
DA:164,0
DA:166,0
DA:167,0
DA:168,0
DA:169,0
DA:170,0
DA:171,0
DA:172,0
DA:173,0
DA:174,0
DA:175,0
DA:177,0
DA:178,0
DA:179,0
DA:180,0
DA:181,0
DA:183,0
DA:184,0
DA:185,0
DA:186,0
DA:187,0
DA:188,0
DA:190,0
DA:210,67
DA:211,67
DA:212,67
DA:213,67
DA:214,67
DA:215,67
DA:216,67
DA:217,67
DA:218,67
DA:219,67
DA:220,67
DA:221,67
DA:239,45
DA:240,45
DA:241,45
DA:242,45
DA:243,45
DA:244,45
DA:245,45
DA:246,45
DA:247,0
DA:248,0
DA:249,0
DA:250,0
DA:251,45
DA:252,45
DA:262,0
DA:263,0
DA:264,0
BRF:0
BRH:0
LF:132
LH:59
end_of_record
SF:/home/ubuntu/Code/s9-verifier/crates/lb-observability/src/xdp_metrics.rs
FN:226,_RNvNtCsjqkoZuoA1pp_16lb_observability11xdp_metrics17__gauge_vec_anchor
FNDA:0,_RNvNtCsjqkoZuoA1pp_16lb_observability11xdp_metrics17__gauge_vec_anchor
FNF:1
FNH:0
DA:226,0
BRF:0
BRH:0
LF:1
LH:0
end_of_record
SF:/home/ubuntu/Code/s9-verifier/crates/lb-quic/src/cleanup_guard.rs
FN:59,_RNvMNtCs5ctNHRYimvA_7lb_quic13cleanup_guardINtB2_13CidEntryGuardppE6disarmB4_
FN:50,_RNvMNtCs5ctNHRYimvA_7lb_quic13cleanup_guardINtB2_13CidEntryGuardINtNtCs8GO9KFlE3Dq_5alloc3vec3VechEINtNtNtNtCsfWKKmeeA0Vo_5tokio4sync4mpsc7bounded6SenderNtNtB4_10conn_actor13InboundPacketEE3newB4_
FN:68,_RNvXs_NtCs5ctNHRYimvA_7lb_quic13cleanup_guardINtB4_13CidEntryGuardINtNtCs8GO9KFlE3Dq_5alloc3vec3VechEINtNtNtNtCsfWKKmeeA0Vo_5tokio4sync4mpsc7bounded6SenderNtNtB6_10conn_actor13InboundPacketEENtNtNtCs2va5m0jqTTM_4core3ops4drop4Drop4dropB6_
FNDA:0,_RNvMNtCs5ctNHRYimvA_7lb_quic13cleanup_guardINtB2_13CidEntryGuardppE6disarmB4_
FNDA:0,_RNvMNtCs5ctNHRYimvA_7lb_quic13cleanup_guardINtB2_13CidEntryGuardINtNtCs8GO9KFlE3Dq_5alloc3vec3VechEINtNtNtNtCsfWKKmeeA0Vo_5tokio4sync4mpsc7bounded6SenderNtNtB4_10conn_actor13InboundPacketEE3newB4_
FNDA:0,_RNvXs_NtCs5ctNHRYimvA_7lb_quic13cleanup_guardINtB4_13CidEntryGuardINtNtCs8GO9KFlE3Dq_5alloc3vec3VechEINtNtNtNtCsfWKKmeeA0Vo_5tokio4sync4mpsc7bounded6SenderNtNtB6_10conn_actor13InboundPacketEENtNtNtCs2va5m0jqTTM_4core3ops4drop4Drop4dropB6_
FNF:3
FNH:0
DA:50,0
DA:51,0
DA:52,0
DA:53,0
DA:54,0
DA:55,0
DA:59,0
DA:60,0
DA:61,0
DA:68,0
DA:69,0
DA:70,0
DA:71,0
DA:72,0
DA:73,0
DA:74,0
DA:75,0
DA:77,0
BRF:0
BRH:0
LF:18
LH:0
end_of_record
SF:/home/ubuntu/Code/s9-verifier/crates/lb-quic/src/conn_actor.rs
FN:1226,_RNCNCNvNtCs5ctNHRYimvA_7lb_quic10conn_actor26record_retained_for_stream00B7_
FN:210,_RNCNCNvNtCs5ctNHRYimvA_7lb_quic10conn_actor9run_actor00B7_
FN:300,_RNCNCNvNtCs5ctNHRYimvA_7lb_quic10conn_actor9run_actor0s_0B7_
FN:680,_RNCNvNtCs5ctNHRYimvA_7lb_quic10conn_actor15drain_conn_send0B5_
FN:648,_RNCNvNtCs5ctNHRYimvA_7lb_quic10conn_actor20graceful_h3_shutdown0B5_
FN:615,_RNCNvNtCs5ctNHRYimvA_7lb_quic10conn_actor21drain_streams_to_conn0B5_
FN:1224,_RNCNvNtCs5ctNHRYimvA_7lb_quic10conn_actor26record_retained_for_stream0B5_
FN:1237,_RNCNvNtCs5ctNHRYimvA_7lb_quic10conn_actor26record_retained_for_streams_0B5_
FN:789,_RNCNvNtCs5ctNHRYimvA_7lb_quic10conn_actor7poll_h30B5_
FN:894,_RNCNvNtCs5ctNHRYimvA_7lb_quic10conn_actor7poll_h3s0_0B5_
FN:970,_RNCNvNtCs5ctNHRYimvA_7lb_quic10conn_actor7poll_h3s1_0B5_
FN:818,_RNCNvNtCs5ctNHRYimvA_7lb_quic10conn_actor7poll_h3s_0B5_
FN:139,_RNCNvNtCs5ctNHRYimvA_7lb_quic10conn_actor9run_actor0B5_
FN:491,_RNvMNtCs5ctNHRYimvA_7lb_quic10conn_actorNtB2_8StreamTx11progressive
FN:482,_RNvMNtCs5ctNHRYimvA_7lb_quic10conn_actorNtB2_8StreamTx3new
FN:1247,_RNvNtCs5ctNHRYimvA_7lb_quic10conn_actor13flush_pending
FN:1290,_RNvNtCs5ctNHRYimvA_7lb_quic10conn_actor14select_backend
FN:680,_RNvNtCs5ctNHRYimvA_7lb_quic10conn_actor15drain_conn_send
FN:1065,_RNvNtCs5ctNHRYimvA_7lb_quic10conn_actor17drain_body_stream
FN:1154,_RNvNtCs5ctNHRYimvA_7lb_quic10conn_actor19decode_into_pending
FN:365,_RNvNtCs5ctNHRYimvA_7lb_quic10conn_actor19drain_resp_channels
FN:644,_RNvNtCs5ctNHRYimvA_7lb_quic10conn_actor20graceful_h3_shutdown
FN:504,_RNvNtCs5ctNHRYimvA_7lb_quic10conn_actor21drain_streams_to_conn
FN:1215,_RNvNtCs5ctNHRYimvA_7lb_quic10conn_actor26record_retained_for_stream
FN:318,_RNvNtCs5ctNHRYimvA_7lb_quic10conn_actor31reap_client_cancelled_responses
FN:703,_RNvNtCs5ctNHRYimvA_7lb_quic10conn_actor7poll_h3
FN:139,_RNvNtCs5ctNHRYimvA_7lb_quic10conn_actor9run_actor
FNDA:0,_RNCNCNvNtCs5ctNHRYimvA_7lb_quic10conn_actor26record_retained_for_stream00B7_
FNDA:0,_RNCNCNvNtCs5ctNHRYimvA_7lb_quic10conn_actor9run_actor00B7_
FNDA:0,_RNCNCNvNtCs5ctNHRYimvA_7lb_quic10conn_actor9run_actor0s_0B7_
FNDA:0,_RNCNvNtCs5ctNHRYimvA_7lb_quic10conn_actor15drain_conn_send0B5_
FNDA:0,_RNCNvNtCs5ctNHRYimvA_7lb_quic10conn_actor20graceful_h3_shutdown0B5_
FNDA:0,_RNCNvNtCs5ctNHRYimvA_7lb_quic10conn_actor21drain_streams_to_conn0B5_
FNDA:0,_RNCNvNtCs5ctNHRYimvA_7lb_quic10conn_actor26record_retained_for_stream0B5_
FNDA:0,_RNCNvNtCs5ctNHRYimvA_7lb_quic10conn_actor26record_retained_for_streams_0B5_
FNDA:0,_RNCNvNtCs5ctNHRYimvA_7lb_quic10conn_actor7poll_h30B5_
FNDA:0,_RNCNvNtCs5ctNHRYimvA_7lb_quic10conn_actor7poll_h3s0_0B5_
FNDA:0,_RNCNvNtCs5ctNHRYimvA_7lb_quic10conn_actor7poll_h3s1_0B5_
FNDA:0,_RNCNvNtCs5ctNHRYimvA_7lb_quic10conn_actor7poll_h3s_0B5_
FNDA:0,_RNCNvNtCs5ctNHRYimvA_7lb_quic10conn_actor9run_actor0B5_
FNDA:0,_RNvMNtCs5ctNHRYimvA_7lb_quic10conn_actorNtB2_8StreamTx11progressive
FNDA:0,_RNvMNtCs5ctNHRYimvA_7lb_quic10conn_actorNtB2_8StreamTx3new
FNDA:0,_RNvNtCs5ctNHRYimvA_7lb_quic10conn_actor13flush_pending
FNDA:0,_RNvNtCs5ctNHRYimvA_7lb_quic10conn_actor14select_backend
FNDA:0,_RNvNtCs5ctNHRYimvA_7lb_quic10conn_actor15drain_conn_send
FNDA:0,_RNvNtCs5ctNHRYimvA_7lb_quic10conn_actor17drain_body_stream
FNDA:0,_RNvNtCs5ctNHRYimvA_7lb_quic10conn_actor19decode_into_pending
FNDA:0,_RNvNtCs5ctNHRYimvA_7lb_quic10conn_actor19drain_resp_channels
FNDA:0,_RNvNtCs5ctNHRYimvA_7lb_quic10conn_actor20graceful_h3_shutdown
FNDA:0,_RNvNtCs5ctNHRYimvA_7lb_quic10conn_actor21drain_streams_to_conn
FNDA:0,_RNvNtCs5ctNHRYimvA_7lb_quic10conn_actor26record_retained_for_stream
FNDA:0,_RNvNtCs5ctNHRYimvA_7lb_quic10conn_actor31reap_client_cancelled_responses
FNDA:0,_RNvNtCs5ctNHRYimvA_7lb_quic10conn_actor7poll_h3
FNDA:0,_RNvNtCs5ctNHRYimvA_7lb_quic10conn_actor9run_actor
FNF:27
FNH:0
DA:139,0
DA:140,0
DA:141,0
DA:142,0
DA:143,0
DA:144,0
DA:145,0
DA:146,0
DA:147,0
DA:148,0
DA:149,0
DA:150,0
DA:151,0
DA:152,0
DA:153,0
DA:154,0
DA:155,0
DA:156,0
DA:157,0
DA:158,0
DA:159,0
DA:160,0
DA:161,0
DA:162,0
DA:163,0
DA:164,0
DA:165,0
DA:166,0
DA:167,0
DA:168,0
DA:169,0
DA:170,0
DA:171,0
DA:176,0
DA:177,0
DA:179,0
DA:180,0
DA:181,0
DA:182,0
DA:183,0
DA:184,0
DA:185,0
DA:186,0
DA:187,0
DA:188,0
DA:189,0
DA:190,0
DA:191,0
DA:192,0
DA:193,0
DA:194,0
DA:195,0
DA:196,0
DA:197,0
DA:198,0
DA:199,0
DA:200,0
DA:201,0
DA:202,0
DA:203,0
DA:204,0
DA:205,0
DA:210,0
DA:211,0
DA:212,0
DA:217,0
DA:218,0
DA:219,0
DA:220,0
DA:222,0
DA:223,0
DA:224,0
DA:225,0
DA:226,0
DA:227,0
DA:230,0
DA:233,0
DA:235,0
DA:237,0
DA:238,0
DA:239,0
DA:241,0
DA:242,0
DA:243,0
DA:244,0
DA:245,0
DA:246,0
DA:247,0
DA:251,0
DA:252,0
DA:253,0
DA:254,0
DA:256,0
DA:257,0
DA:258,0
DA:262,0
DA:263,0
DA:264,0
DA:265,0
DA:266,0
DA:267,0
DA:268,0
DA:269,0
DA:270,0
DA:271,0
DA:272,0
DA:273,0
DA:274,0
DA:275,0
DA:276,0
DA:277,0
DA:283,0
DA:284,0
DA:285,0
DA:286,0
DA:287,0
DA:288,0
DA:289,0
DA:290,0
DA:291,0
DA:292,0
DA:293,0
DA:294,0
DA:295,0
DA:296,0
DA:297,0
DA:298,0
DA:299,0
DA:300,0
DA:302,0
DA:303,0
DA:318,0
DA:319,0
DA:320,0
DA:321,0
DA:322,0
DA:323,0
DA:324,0
DA:325,0
DA:326,0
DA:327,0
DA:330,0
DA:331,0
DA:333,0
DA:335,0
DA:338,0
DA:339,0
DA:340,0
DA:341,0
DA:342,0
DA:343,0
DA:344,0
DA:345,0
DA:365,0
DA:366,0
DA:367,0
DA:368,0
DA:369,0
DA:370,0
DA:374,0
DA:375,0
DA:376,0
DA:378,0
DA:379,0
DA:380,0
DA:381,0
DA:382,0
DA:384,0
DA:386,0
DA:390,0
DA:391,0
DA:392,0
DA:393,0
DA:394,0
DA:395,0
DA:396,0
DA:397,0
DA:404,0
DA:405,0
DA:406,0
DA:407,0
DA:408,0
DA:409,0
DA:410,0
DA:411,0
DA:412,0
DA:413,0
DA:414,0
DA:428,0
DA:429,0
DA:430,0
DA:431,0
DA:432,0
DA:434,0
DA:435,0
DA:436,0
DA:437,0
DA:438,0
DA:439,0
DA:440,0
DA:441,0
DA:442,0
DA:482,0
DA:483,0
DA:484,0
DA:485,0
DA:486,0
DA:487,0
DA:488,0
DA:491,0
DA:492,0
DA:493,0
DA:494,0
DA:495,0
DA:496,0
DA:497,0
DA:498,0
DA:504,0
DA:505,0
DA:506,0
DA:507,0
DA:511,0
DA:512,0
DA:513,0
DA:514,0
DA:515,0
DA:516,0
DA:517,0
DA:519,0
DA:520,0
DA:523,0
DA:524,0
DA:525,0
DA:526,0
DA:527,0
DA:528,0
DA:529,0
DA:532,0
DA:533,0
DA:534,0
DA:535,0
DA:536,0
DA:537,0
DA:538,0
DA:539,0
DA:540,0
DA:541,0
DA:542,0
DA:549,0
DA:550,0
DA:551,0
DA:552,0
DA:553,0
DA:554,0
DA:555,0
DA:556,0
DA:560,0
DA:561,0
DA:562,0
DA:563,0
DA:564,0
DA:565,0
DA:566,0
DA:567,0
DA:568,0
DA:569,0
DA:570,0
DA:572,0
DA:573,0
DA:574,0
DA:578,0
DA:582,0
DA:583,0
DA:584,0
DA:585,0
DA:588,0
DA:589,0
DA:590,0
DA:593,0
DA:594,0
DA:595,0
DA:596,0
DA:599,0
DA:600,0
DA:601,0
DA:605,0
DA:608,0
DA:609,0
DA:610,0
DA:611,0
DA:613,0
DA:615,0
DA:616,0
DA:617,0
DA:618,0
DA:619,0
DA:644,0
DA:645,0
DA:646,0
DA:647,0
DA:648,0
DA:649,0
DA:650,0
DA:651,0
DA:652,0
DA:655,0
DA:657,0
DA:658,0
DA:659,0
DA:660,0
DA:661,0
DA:662,0
DA:663,0
DA:665,0
DA:666,0
DA:667,0
DA:668,0
DA:669,0
DA:670,0
DA:671,0
DA:672,0
DA:673,0
DA:674,0
DA:676,0
DA:680,0
DA:682,0
DA:683,0
DA:684,0
DA:685,0
DA:686,0
DA:687,0
DA:688,0
DA:690,0
DA:691,0
DA:692,0
DA:693,0
DA:697,0
DA:703,0
DA:704,0
DA:705,0
DA:706,0
DA:707,0
DA:708,0
DA:709,0
DA:710,0
DA:711,0
DA:712,0
DA:713,0
DA:714,0
DA:715,0
DA:716,0
DA:717,0
DA:718,0
DA:719,0
DA:720,0
DA:721,0
DA:722,0
DA:723,0
DA:724,0
DA:725,0
DA:726,0
DA:727,0
DA:728,0
DA:729,0
DA:730,0
DA:731,0
DA:732,0
DA:733,0
DA:734,0
DA:735,0
DA:736,0
DA:738,0
DA:739,0
DA:748,0
DA:749,0
DA:750,0
DA:751,0
DA:752,0
DA:754,0
DA:755,0
DA:756,0
DA:757,0
DA:758,0
DA:759,0
DA:760,0
DA:761,0
DA:762,0
DA:763,0
DA:764,0
DA:765,0
DA:766,0
DA:767,0
DA:768,0
DA:769,0
DA:770,0
DA:771,0
DA:772,0
DA:773,0
DA:774,0
DA:775,0
DA:776,0
DA:777,0
DA:778,0
DA:779,0
DA:780,0
DA:784,0
DA:785,0
DA:787,0
DA:788,0
DA:789,0
DA:790,0
DA:791,0
DA:792,0
DA:809,0
DA:810,0
DA:811,0
DA:812,0
DA:813,0
DA:814,0
DA:815,0
DA:816,0
DA:817,0
DA:818,0
DA:819,0
DA:820,0
DA:821,0
DA:822,0
DA:823,0
DA:824,0
DA:825,0
DA:826,0
DA:827,0
DA:829,0
DA:832,0
DA:834,0
DA:835,0
DA:836,0
DA:837,0
DA:838,0
DA:839,0
DA:840,0
DA:841,0
DA:842,0
DA:843,0
DA:844,0
DA:845,0
DA:846,0
DA:847,0
DA:848,0
DA:849,0
DA:850,0
DA:851,0
DA:852,0
DA:853,0
DA:854,0
DA:855,0
DA:856,0
DA:857,0
DA:858,0
DA:859,0
DA:862,0
DA:863,0
DA:884,0
DA:885,0
DA:886,0
DA:887,0
DA:888,0
DA:889,0
DA:890,0
DA:891,0
DA:892,0
DA:893,0
DA:894,0
DA:895,0
DA:896,0
DA:897,0
DA:898,0
DA:899,0
DA:900,0
DA:901,0
DA:902,0
DA:903,0
DA:904,0
DA:906,0
DA:909,0
DA:911,0
DA:912,0
DA:913,0
DA:914,0
DA:915,0
DA:916,0
DA:917,0
DA:918,0
DA:919,0
DA:920,0
DA:921,0
DA:922,0
DA:923,0
DA:924,0
DA:925,0
DA:926,0
DA:927,0
DA:928,0
DA:929,0
DA:930,0
DA:931,0
DA:932,0
DA:933,0
DA:934,0
DA:935,0
DA:936,0
DA:939,0
DA:940,0
DA:941,0
DA:942,0
DA:943,0
DA:964,0
DA:965,0
DA:966,0
DA:967,0
DA:968,0
DA:969,0
DA:970,0
DA:971,0
DA:972,0
DA:973,0
DA:974,0
DA:975,0
DA:976,0
DA:977,0
DA:978,0
DA:979,0
DA:981,0
DA:984,0
DA:986,0
DA:987,0
DA:988,0
DA:989,0
DA:990,0
DA:991,0
DA:992,0
DA:993,0
DA:994,0
DA:995,0
DA:996,0
DA:997,0
DA:998,0
DA:999,0
DA:1000,0
DA:1001,0
DA:1002,0
DA:1003,0
DA:1004,0
DA:1005,0
DA:1006,0
DA:1007,0
DA:1008,0
DA:1009,0
DA:1010,0
DA:1011,0
DA:1012,0
DA:1015,0
DA:1018,0
DA:1022,0
DA:1023,0
DA:1024,0
DA:1026,0
DA:1027,0
DA:1031,0
DA:1038,0
DA:1039,0
DA:1042,0
DA:1043,0
DA:1045,0
DA:1046,0
DA:1048,0
DA:1049,0
DA:1050,0
DA:1051,0
DA:1056,0
DA:1065,0
DA:1066,0
DA:1067,0
DA:1068,0
DA:1069,0
DA:1070,0
DA:1071,0
DA:1072,0
DA:1075,0
DA:1076,0
DA:1078,0
DA:1079,0
DA:1080,0
DA:1081,0
DA:1082,0
DA:1083,0
DA:1084,0
DA:1085,0
DA:1086,0
DA:1087,0
DA:1088,0
DA:1089,0
DA:1090,0
DA:1091,0
DA:1092,0
DA:1093,0
DA:1094,0
DA:1095,0
DA:1096,0
DA:1097,0
DA:1098,0
DA:1099,0
DA:1102,0
DA:1103,0
DA:1121,0
DA:1122,0
DA:1125,0
DA:1126,0
DA:1128,0
DA:1129,0
DA:1130,0
DA:1131,0
DA:1132,0
DA:1133,0
DA:1135,0
DA:1136,0
DA:1137,0
DA:1138,0
DA:1139,0
DA:1140,0
DA:1141,0
DA:1142,0
DA:1146,0
DA:1154,0
DA:1155,0
DA:1156,0
DA:1157,0
DA:1158,0
DA:1159,0
DA:1160,0
DA:1161,0
DA:1162,0
DA:1163,0
DA:1165,0
DA:1166,0
DA:1167,0
DA:1168,0
DA:1169,0
DA:1170,0
DA:1171,0
DA:1172,0
DA:1173,0
DA:1174,0
DA:1177,0
DA:1178,0
DA:1179,0
DA:1180,0
DA:1181,0
DA:1182,0
DA:1186,0
DA:1187,0
DA:1188,0
DA:1189,0
DA:1190,0
DA:1191,0
DA:1195,0
DA:1196,0
DA:1197,0
DA:1198,0
DA:1199,0
DA:1200,0
DA:1201,0
DA:1209,0
DA:1210,0
DA:1215,0
DA:1216,0
DA:1217,0
DA:1218,0
DA:1219,0
DA:1220,0
DA:1221,0
DA:1222,0
DA:1223,0
DA:1224,0
DA:1225,0
DA:1226,0
DA:1227,0
DA:1228,0
DA:1229,0
DA:1230,0
DA:1231,0
DA:1232,0
DA:1233,0
DA:1234,0
DA:1235,0
DA:1236,0
DA:1237,0
DA:1238,0
DA:1239,0
DA:1240,0
DA:1247,0
DA:1248,0
DA:1249,0
DA:1250,0
DA:1251,0
DA:1252,0
DA:1253,0
DA:1254,0
DA:1256,0
DA:1257,0
DA:1259,0
DA:1260,0
DA:1261,0
DA:1262,0
DA:1265,0
DA:1266,0
DA:1267,0
DA:1268,0
DA:1269,0
DA:1270,0
DA:1271,0
DA:1273,0
DA:1276,0
DA:1277,0
DA:1281,0
DA:1282,0
DA:1283,0
DA:1284,0
DA:1285,0
DA:1290,0
DA:1291,0
DA:1292,0
BRF:0
BRH:0
LF:751
LH:0
end_of_record
SF:/home/ubuntu/Code/s9-verifier/crates/lb-quic/src/h3_bridge.rs
FN:2489,_RNCNvNtCs5ctNHRYimvA_7lb_quic9h3_bridge19request_h3_upstream0CsiFMhfKJXoB5_5lb_l7
FN:707,_RNvMs1_NtCs5ctNHRYimvA_7lb_quic9h3_bridgeNtB5_9H3Request12from_headers
FN:1050,_RNvMs2_NtCs5ctNHRYimvA_7lb_quic9h3_bridgeNtB5_12ChunkDecoder13take_trailers
FN:1160,_RNvMs2_NtCs5ctNHRYimvA_7lb_quic9h3_bridgeNtB5_12ChunkDecoder21parse_trailer_section
FN:1036,_RNvMs2_NtCs5ctNHRYimvA_7lb_quic9h3_bridgeNtB5_12ChunkDecoder3new
FN:1058,_RNvMs2_NtCs5ctNHRYimvA_7lb_quic9h3_bridgeNtB5_12ChunkDecoder4feed
FN:571,_RNvMs_NtCs5ctNHRYimvA_7lb_quic9h3_bridgeNtB4_11StreamRxBuf12is_too_large
FN:584,_RNvMs_NtCs5ctNHRYimvA_7lb_quic9h3_bridgeNtB4_11StreamRxBuf14retained_bytes
FN:553,_RNvMs_NtCs5ctNHRYimvA_7lb_quic9h3_bridgeNtB4_11StreamRxBuf22try_parse_frame_header
FN:326,_RNvMs_NtCs5ctNHRYimvA_7lb_quic9h3_bridgeNtB4_11StreamRxBuf4feed
FN:377,_RNvMs_NtCs5ctNHRYimvA_7lb_quic9h3_bridgeNtB4_11StreamRxBuf9feed_body
FN:2131,_RNvNCNvNtCs5ctNHRYimvA_7lb_quic9h3_bridge20h3_to_h1_stream_resp06inline
FN:2388,_RNvNCNvNtCs5ctNHRYimvA_7lb_quic9h3_bridge20h3_to_h2_stream_resp06inline
FN:2785,_RNvNCNvNtCs5ctNHRYimvA_7lb_quic9h3_bridge20h3_to_h3_stream_resp06inline
FN:1737,_RNvNtCs5ctNHRYimvA_7lb_quic9h3_bridge13build_h1_head
FN:3558,_RNvNtCs5ctNHRYimvA_7lb_quic9h3_bridge15check_block_len
FN:865,_RNvNtCs5ctNHRYimvA_7lb_quic9h3_bridge15find_header_sep
FN:2039,_RNvNtCs5ctNHRYimvA_7lb_quic9h3_bridge15h3_to_h1_stream
FN:1782,_RNvNtCs5ctNHRYimvA_7lb_quic9h3_bridge15record_inflight
FN:611,_RNvNtCs5ctNHRYimvA_7lb_quic9h3_bridge15record_retained
FN:754,_RNvNtCs5ctNHRYimvA_7lb_quic9h3_bridge16build_h1_request
FN:801,_RNvNtCs5ctNHRYimvA_7lb_quic9h3_bridge16read_h1_response
FN:1806,_RNvNtCs5ctNHRYimvA_7lb_quic9h3_bridge16write_body_chunk
FN:1877,_RNvNtCs5ctNHRYimvA_7lb_quic9h3_bridge16write_h1_request
FN:3609,_RNvNtCs5ctNHRYimvA_7lb_quic9h3_bridge17classify_recv_err
FN:869,_RNvNtCs5ctNHRYimvA_7lb_quic9h3_bridge17parse_status_line
FN:892,_RNvNtCs5ctNHRYimvA_7lb_quic9h3_bridge18encode_h3_response
FN:1685,_RNvNtCs5ctNHRYimvA_7lb_quic9h3_bridge18h3_to_h1_roundtrip
FN:3623,_RNvNtCs5ctNHRYimvA_7lb_quic9h3_bridge18parse_frame_header
FN:1239,_RNvNtCs5ctNHRYimvA_7lb_quic9h3_bridge18stream_h1_response
FN:1549,_RNvNtCs5ctNHRYimvA_7lb_quic9h3_bridge18stream_h2_response
FN:3541,_RNvNtCs5ctNHRYimvA_7lb_quic9h3_bridge19j2_req_event_action
FN:2482,_RNvNtCs5ctNHRYimvA_7lb_quic9h3_bridge19request_h3_upstream
FN:942,_RNvNtCs5ctNHRYimvA_7lb_quic9h3_bridge20encode_h3_data_frame
FN:2120,_RNvNtCs5ctNHRYimvA_7lb_quic9h3_bridge20h3_to_h1_stream_resp
FN:2377,_RNvNtCs5ctNHRYimvA_7lb_quic9h3_bridge20h3_to_h2_stream_resp
FN:2773,_RNvNtCs5ctNHRYimvA_7lb_quic9h3_bridge20h3_to_h3_stream_resp
FN:648,_RNvNtCs5ctNHRYimvA_7lb_quic9h3_bridge20record_resp_retained
FN:919,_RNvNtCs5ctNHRYimvA_7lb_quic9h3_bridge23encode_h3_headers_frame
FN:2309,_RNvNtCs5ctNHRYimvA_7lb_quic9h3_bridge23h2_request_body_from_rx
FN:818,_RNvNtCs5ctNHRYimvA_7lb_quic9h3_bridge23read_h1_response_capped
FN:965,_RNvNtCs5ctNHRYimvA_7lb_quic9h3_bridge24encode_h3_trailers_frame
FN:279,_RNvXNtCs5ctNHRYimvA_7lb_quic9h3_bridgeNtB2_9BodyParseNtNtCs2va5m0jqTTM_4core7default7Default7default
FN:690,_RNvXs0_NtCs5ctNHRYimvA_7lb_quic9h3_bridgeNtB5_9H3RequestNtNtCs2va5m0jqTTM_4core7default7Default7default
FN:2198,_RNvXs3_NtCs5ctNHRYimvA_7lb_quic9h3_bridgeNtB5_10H3ReqAbortNtNtCs2va5m0jqTTM_4core3fmt7Display3fmt
FN:2231,_RNvXs5_NtCs5ctNHRYimvA_7lb_quic9h3_bridgeNtB5_15H3ReqStreamBodyNtCsl5a7MsEZ2mF_9http_body4Body10poll_frame
FN:2454,_RNvXs6_NtCs5ctNHRYimvA_7lb_quic9h3_bridgeNtB5_18H3UpstreamResponseNtNtCs2va5m0jqTTM_4core7default7Default7default
FN:2058,_RNCNCNvNtCs5ctNHRYimvA_7lb_quic9h3_bridge15h3_to_h1_stream00B7_
FN:1702,_RNCNCNvNtCs5ctNHRYimvA_7lb_quic9h3_bridge18h3_to_h1_roundtrip00B7_
FN:825,_RNCNCNvNtCs5ctNHRYimvA_7lb_quic9h3_bridge23read_h1_response_capped00B7_
FN:848,_RNCNCNvNtCs5ctNHRYimvA_7lb_quic9h3_bridge23read_h1_response_capped0s0_0B7_
FN:845,_RNCNCNvNtCs5ctNHRYimvA_7lb_quic9h3_bridge23read_h1_response_capped0s_0B7_
FN:2045,_RNCNvNtCs5ctNHRYimvA_7lb_quic9h3_bridge15h3_to_h1_stream0B5_
FN:801,_RNCNvNtCs5ctNHRYimvA_7lb_quic9h3_bridge16read_h1_response0B5_
FN:1690,_RNCNvNtCs5ctNHRYimvA_7lb_quic9h3_bridge18h3_to_h1_roundtrip0B5_
FN:2489,_RNCNvNtCs5ctNHRYimvA_7lb_quic9h3_bridge19request_h3_upstream0B5_
FN:818,_RNCNvNtCs5ctNHRYimvA_7lb_quic9h3_bridge23read_h1_response_capped0B5_
FN:1298,_RNCNCNCNvNtCs5ctNHRYimvA_7lb_quic9h3_bridge18stream_h1_response0s_00B9_
FN:1634,_RNCNCNCNvNtCs5ctNHRYimvA_7lb_quic9h3_bridge18stream_h2_response0s1_00B9_
FN:1812,_RNCNCNvNtCs5ctNHRYimvA_7lb_quic9h3_bridge16write_body_chunk00B7_
FN:1814,_RNCNCNvNtCs5ctNHRYimvA_7lb_quic9h3_bridge16write_body_chunk0s0_0B7_
FN:1816,_RNCNCNvNtCs5ctNHRYimvA_7lb_quic9h3_bridge16write_body_chunk0s1_0B7_
FN:1813,_RNCNCNvNtCs5ctNHRYimvA_7lb_quic9h3_bridge16write_body_chunk0s_0B7_
FN:1895,_RNCNCNvNtCs5ctNHRYimvA_7lb_quic9h3_bridge16write_h1_request00B7_
FN:1283,_RNCNCNvNtCs5ctNHRYimvA_7lb_quic9h3_bridge18stream_h1_response00B7_
FN:1248,_RNCNCNvNtCs5ctNHRYimvA_7lb_quic9h3_bridge18stream_h1_response0s0_0B7_
FN:1248,_RNCNCNvNtCs5ctNHRYimvA_7lb_quic9h3_bridge18stream_h1_response0s1_0B7_
FN:1248,_RNCNCNvNtCs5ctNHRYimvA_7lb_quic9h3_bridge18stream_h1_response0s2_0B7_
FN:1248,_RNCNCNvNtCs5ctNHRYimvA_7lb_quic9h3_bridge18stream_h1_response0s3_0B7_
FN:1248,_RNCNCNvNtCs5ctNHRYimvA_7lb_quic9h3_bridge18stream_h1_response0s4_0B7_
FN:1248,_RNCNCNvNtCs5ctNHRYimvA_7lb_quic9h3_bridge18stream_h1_response0s5_0B7_
FN:1248,_RNCNCNvNtCs5ctNHRYimvA_7lb_quic9h3_bridge18stream_h1_response0s6_0B7_
FN:1248,_RNCNCNvNtCs5ctNHRYimvA_7lb_quic9h3_bridge18stream_h1_response0s7_0B7_
FN:1248,_RNCNCNvNtCs5ctNHRYimvA_7lb_quic9h3_bridge18stream_h1_response0s8_0B7_
FN:1298,_RNCNCNvNtCs5ctNHRYimvA_7lb_quic9h3_bridge18stream_h1_response0s_0B7_
FN:1569,_RNCNCNvNtCs5ctNHRYimvA_7lb_quic9h3_bridge18stream_h2_response00B7_
FN:1630,_RNCNCNvNtCs5ctNHRYimvA_7lb_quic9h3_bridge18stream_h2_response0s0_0B7_
FN:1631,_RNCNCNvNtCs5ctNHRYimvA_7lb_quic9h3_bridge18stream_h2_response0s1_0B7_
FN:1556,_RNCNCNvNtCs5ctNHRYimvA_7lb_quic9h3_bridge18stream_h2_response0s2_0B7_
FN:1556,_RNCNCNvNtCs5ctNHRYimvA_7lb_quic9h3_bridge18stream_h2_response0s3_0B7_
FN:1556,_RNCNCNvNtCs5ctNHRYimvA_7lb_quic9h3_bridge18stream_h2_response0s4_0B7_
FN:1556,_RNCNCNvNtCs5ctNHRYimvA_7lb_quic9h3_bridge18stream_h2_response0s5_0B7_
FN:1570,_RNCNCNvNtCs5ctNHRYimvA_7lb_quic9h3_bridge18stream_h2_response0s_0B7_
FN:3290,_RNCNCNvNtCs5ctNHRYimvA_7lb_quic9h3_bridge20h3_to_h3_stream_resp00B7_
FN:2806,_RNCNCNvNtCs5ctNHRYimvA_7lb_quic9h3_bridge20h3_to_h3_stream_resp0s4_0B7_
FN:2806,_RNCNCNvNtCs5ctNHRYimvA_7lb_quic9h3_bridge20h3_to_h3_stream_resp0s5_0B7_
FN:2806,_RNCNCNvNtCs5ctNHRYimvA_7lb_quic9h3_bridge20h3_to_h3_stream_resp0s6_0B7_
FN:2806,_RNCNCNvNtCs5ctNHRYimvA_7lb_quic9h3_bridge20h3_to_h3_stream_resp0sa_0B7_
FN:724,_RNCNvMs1_NtCs5ctNHRYimvA_7lb_quic9h3_bridgeNtB7_9H3Request12from_headers0B9_
FN:725,_RNCNvMs1_NtCs5ctNHRYimvA_7lb_quic9h3_bridgeNtB7_9H3Request12from_headerss_0B9_
FN:1169,_RNCNvMs2_NtCs5ctNHRYimvA_7lb_quic9h3_bridgeNtB7_12ChunkDecoder21parse_trailer_section0B9_
FN:1184,_RNCNvMs2_NtCs5ctNHRYimvA_7lb_quic9h3_bridgeNtB7_12ChunkDecoder21parse_trailer_sections_0B9_
FN:1102,_RNCNvMs2_NtCs5ctNHRYimvA_7lb_quic9h3_bridgeNtB7_12ChunkDecoder4feed0B9_
FN:1118,_RNCNvMs2_NtCs5ctNHRYimvA_7lb_quic9h3_bridgeNtB7_12ChunkDecoder4feeds0_0B9_
FN:1124,_RNCNvMs2_NtCs5ctNHRYimvA_7lb_quic9h3_bridgeNtB7_12ChunkDecoder4feeds1_0B9_
FN:1116,_RNCNvMs2_NtCs5ctNHRYimvA_7lb_quic9h3_bridgeNtB7_12ChunkDecoder4feeds_0B9_
FN:342,_RNCNvMs_NtCs5ctNHRYimvA_7lb_quic9h3_bridgeNtB6_11StreamRxBuf4feed0B8_
FN:435,_RNCNvMs_NtCs5ctNHRYimvA_7lb_quic9h3_bridgeNtB6_11StreamRxBuf9feed_body0B8_
FN:518,_RNCNvMs_NtCs5ctNHRYimvA_7lb_quic9h3_bridgeNtB6_11StreamRxBuf9feed_bodys0_0B8_
FN:508,_RNCNvMs_NtCs5ctNHRYimvA_7lb_quic9h3_bridgeNtB6_11StreamRxBuf9feed_bodys_0B8_
FN:2131,_RNCNvNCNvNtCs5ctNHRYimvA_7lb_quic9h3_bridge20h3_to_h1_stream_resp06inline0B9_
FN:2388,_RNCNvNCNvNtCs5ctNHRYimvA_7lb_quic9h3_bridge20h3_to_h2_stream_resp06inline0B9_
FN:2785,_RNCNvNCNvNtCs5ctNHRYimvA_7lb_quic9h3_bridge20h3_to_h3_stream_resp06inline0B9_
FN:866,_RNCNvNtCs5ctNHRYimvA_7lb_quic9h3_bridge15find_header_sep0B5_
FN:1806,_RNCNvNtCs5ctNHRYimvA_7lb_quic9h3_bridge16write_body_chunk0B5_
FN:1881,_RNCNvNtCs5ctNHRYimvA_7lb_quic9h3_bridge16write_h1_request0B5_
FN:874,_RNCNvNtCs5ctNHRYimvA_7lb_quic9h3_bridge17parse_status_line0B5_
FN:1243,_RNCNvNtCs5ctNHRYimvA_7lb_quic9h3_bridge18stream_h1_response0B5_
FN:1553,_RNCNvNtCs5ctNHRYimvA_7lb_quic9h3_bridge18stream_h2_response0B5_
FN:946,_RNCNvNtCs5ctNHRYimvA_7lb_quic9h3_bridge20encode_h3_data_frame0B5_
FN:2127,_RNCNvNtCs5ctNHRYimvA_7lb_quic9h3_bridge20h3_to_h1_stream_resp0B5_
FN:2384,_RNCNvNtCs5ctNHRYimvA_7lb_quic9h3_bridge20h3_to_h2_stream_resp0B5_
FN:2781,_RNCNvNtCs5ctNHRYimvA_7lb_quic9h3_bridge20h3_to_h3_stream_resp0B5_
FN:930,_RNCNvNtCs5ctNHRYimvA_7lb_quic9h3_bridge23encode_h3_headers_frame0B5_
FN:931,_RNCNvNtCs5ctNHRYimvA_7lb_quic9h3_bridge23encode_h3_headers_frames_0B5_
FN:2354,_RNCNvNtCs5ctNHRYimvA_7lb_quic9h3_bridge23h2_request_body_from_rxs_0B5_
FN:968,_RNCNvNtCs5ctNHRYimvA_7lb_quic9h3_bridge24encode_h3_trailers_frame0B5_
FN:969,_RNCNvNtCs5ctNHRYimvA_7lb_quic9h3_bridge24encode_h3_trailers_frames_0B5_
FNDA:0,_RNCNvNtCs5ctNHRYimvA_7lb_quic9h3_bridge19request_h3_upstream0CsiFMhfKJXoB5_5lb_l7
FNDA:0,_RNvMs1_NtCs5ctNHRYimvA_7lb_quic9h3_bridgeNtB5_9H3Request12from_headers
FNDA:0,_RNvMs2_NtCs5ctNHRYimvA_7lb_quic9h3_bridgeNtB5_12ChunkDecoder13take_trailers
FNDA:0,_RNvMs2_NtCs5ctNHRYimvA_7lb_quic9h3_bridgeNtB5_12ChunkDecoder21parse_trailer_section
FNDA:0,_RNvMs2_NtCs5ctNHRYimvA_7lb_quic9h3_bridgeNtB5_12ChunkDecoder3new
FNDA:0,_RNvMs2_NtCs5ctNHRYimvA_7lb_quic9h3_bridgeNtB5_12ChunkDecoder4feed
FNDA:0,_RNvMs_NtCs5ctNHRYimvA_7lb_quic9h3_bridgeNtB4_11StreamRxBuf12is_too_large
FNDA:0,_RNvMs_NtCs5ctNHRYimvA_7lb_quic9h3_bridgeNtB4_11StreamRxBuf14retained_bytes
FNDA:0,_RNvMs_NtCs5ctNHRYimvA_7lb_quic9h3_bridgeNtB4_11StreamRxBuf22try_parse_frame_header
FNDA:0,_RNvMs_NtCs5ctNHRYimvA_7lb_quic9h3_bridgeNtB4_11StreamRxBuf4feed
FNDA:0,_RNvMs_NtCs5ctNHRYimvA_7lb_quic9h3_bridgeNtB4_11StreamRxBuf9feed_body
FNDA:0,_RNvNCNvNtCs5ctNHRYimvA_7lb_quic9h3_bridge20h3_to_h1_stream_resp06inline
FNDA:0,_RNvNCNvNtCs5ctNHRYimvA_7lb_quic9h3_bridge20h3_to_h2_stream_resp06inline
FNDA:0,_RNvNCNvNtCs5ctNHRYimvA_7lb_quic9h3_bridge20h3_to_h3_stream_resp06inline
FNDA:0,_RNvNtCs5ctNHRYimvA_7lb_quic9h3_bridge13build_h1_head
FNDA:0,_RNvNtCs5ctNHRYimvA_7lb_quic9h3_bridge15check_block_len
FNDA:0,_RNvNtCs5ctNHRYimvA_7lb_quic9h3_bridge15find_header_sep
FNDA:0,_RNvNtCs5ctNHRYimvA_7lb_quic9h3_bridge15h3_to_h1_stream
FNDA:0,_RNvNtCs5ctNHRYimvA_7lb_quic9h3_bridge15record_inflight
FNDA:0,_RNvNtCs5ctNHRYimvA_7lb_quic9h3_bridge15record_retained
FNDA:0,_RNvNtCs5ctNHRYimvA_7lb_quic9h3_bridge16build_h1_request
FNDA:0,_RNvNtCs5ctNHRYimvA_7lb_quic9h3_bridge16read_h1_response
FNDA:0,_RNvNtCs5ctNHRYimvA_7lb_quic9h3_bridge16write_body_chunk
FNDA:0,_RNvNtCs5ctNHRYimvA_7lb_quic9h3_bridge16write_h1_request
FNDA:0,_RNvNtCs5ctNHRYimvA_7lb_quic9h3_bridge17classify_recv_err
FNDA:0,_RNvNtCs5ctNHRYimvA_7lb_quic9h3_bridge17parse_status_line
FNDA:0,_RNvNtCs5ctNHRYimvA_7lb_quic9h3_bridge18encode_h3_response
FNDA:0,_RNvNtCs5ctNHRYimvA_7lb_quic9h3_bridge18h3_to_h1_roundtrip
FNDA:0,_RNvNtCs5ctNHRYimvA_7lb_quic9h3_bridge18parse_frame_header
FNDA:0,_RNvNtCs5ctNHRYimvA_7lb_quic9h3_bridge18stream_h1_response
FNDA:0,_RNvNtCs5ctNHRYimvA_7lb_quic9h3_bridge18stream_h2_response
FNDA:0,_RNvNtCs5ctNHRYimvA_7lb_quic9h3_bridge19j2_req_event_action
FNDA:0,_RNvNtCs5ctNHRYimvA_7lb_quic9h3_bridge19request_h3_upstream
FNDA:0,_RNvNtCs5ctNHRYimvA_7lb_quic9h3_bridge20encode_h3_data_frame
FNDA:0,_RNvNtCs5ctNHRYimvA_7lb_quic9h3_bridge20h3_to_h1_stream_resp
FNDA:0,_RNvNtCs5ctNHRYimvA_7lb_quic9h3_bridge20h3_to_h2_stream_resp
FNDA:0,_RNvNtCs5ctNHRYimvA_7lb_quic9h3_bridge20h3_to_h3_stream_resp
FNDA:0,_RNvNtCs5ctNHRYimvA_7lb_quic9h3_bridge20record_resp_retained
FNDA:0,_RNvNtCs5ctNHRYimvA_7lb_quic9h3_bridge23encode_h3_headers_frame
FNDA:0,_RNvNtCs5ctNHRYimvA_7lb_quic9h3_bridge23h2_request_body_from_rx
FNDA:0,_RNvNtCs5ctNHRYimvA_7lb_quic9h3_bridge23read_h1_response_capped
FNDA:0,_RNvNtCs5ctNHRYimvA_7lb_quic9h3_bridge24encode_h3_trailers_frame
FNDA:0,_RNvXNtCs5ctNHRYimvA_7lb_quic9h3_bridgeNtB2_9BodyParseNtNtCs2va5m0jqTTM_4core7default7Default7default
FNDA:0,_RNvXs0_NtCs5ctNHRYimvA_7lb_quic9h3_bridgeNtB5_9H3RequestNtNtCs2va5m0jqTTM_4core7default7Default7default
FNDA:0,_RNvXs3_NtCs5ctNHRYimvA_7lb_quic9h3_bridgeNtB5_10H3ReqAbortNtNtCs2va5m0jqTTM_4core3fmt7Display3fmt
FNDA:0,_RNvXs5_NtCs5ctNHRYimvA_7lb_quic9h3_bridgeNtB5_15H3ReqStreamBodyNtCsl5a7MsEZ2mF_9http_body4Body10poll_frame
FNDA:0,_RNvXs6_NtCs5ctNHRYimvA_7lb_quic9h3_bridgeNtB5_18H3UpstreamResponseNtNtCs2va5m0jqTTM_4core7default7Default7default
FNDA:0,_RNCNCNvNtCs5ctNHRYimvA_7lb_quic9h3_bridge15h3_to_h1_stream00B7_
FNDA:0,_RNCNCNvNtCs5ctNHRYimvA_7lb_quic9h3_bridge18h3_to_h1_roundtrip00B7_
FNDA:0,_RNCNCNvNtCs5ctNHRYimvA_7lb_quic9h3_bridge23read_h1_response_capped00B7_
FNDA:0,_RNCNCNvNtCs5ctNHRYimvA_7lb_quic9h3_bridge23read_h1_response_capped0s0_0B7_
FNDA:0,_RNCNCNvNtCs5ctNHRYimvA_7lb_quic9h3_bridge23read_h1_response_capped0s_0B7_
FNDA:0,_RNCNvNtCs5ctNHRYimvA_7lb_quic9h3_bridge15h3_to_h1_stream0B5_
FNDA:0,_RNCNvNtCs5ctNHRYimvA_7lb_quic9h3_bridge16read_h1_response0B5_
FNDA:0,_RNCNvNtCs5ctNHRYimvA_7lb_quic9h3_bridge18h3_to_h1_roundtrip0B5_
FNDA:0,_RNCNvNtCs5ctNHRYimvA_7lb_quic9h3_bridge19request_h3_upstream0B5_
FNDA:0,_RNCNvNtCs5ctNHRYimvA_7lb_quic9h3_bridge23read_h1_response_capped0B5_
FNDA:0,_RNCNCNCNvNtCs5ctNHRYimvA_7lb_quic9h3_bridge18stream_h1_response0s_00B9_
FNDA:0,_RNCNCNCNvNtCs5ctNHRYimvA_7lb_quic9h3_bridge18stream_h2_response0s1_00B9_
FNDA:0,_RNCNCNvNtCs5ctNHRYimvA_7lb_quic9h3_bridge16write_body_chunk00B7_
FNDA:0,_RNCNCNvNtCs5ctNHRYimvA_7lb_quic9h3_bridge16write_body_chunk0s0_0B7_
FNDA:0,_RNCNCNvNtCs5ctNHRYimvA_7lb_quic9h3_bridge16write_body_chunk0s1_0B7_
FNDA:0,_RNCNCNvNtCs5ctNHRYimvA_7lb_quic9h3_bridge16write_body_chunk0s_0B7_
FNDA:0,_RNCNCNvNtCs5ctNHRYimvA_7lb_quic9h3_bridge16write_h1_request00B7_
FNDA:0,_RNCNCNvNtCs5ctNHRYimvA_7lb_quic9h3_bridge18stream_h1_response00B7_
FNDA:0,_RNCNCNvNtCs5ctNHRYimvA_7lb_quic9h3_bridge18stream_h1_response0s0_0B7_
FNDA:0,_RNCNCNvNtCs5ctNHRYimvA_7lb_quic9h3_bridge18stream_h1_response0s1_0B7_
FNDA:0,_RNCNCNvNtCs5ctNHRYimvA_7lb_quic9h3_bridge18stream_h1_response0s2_0B7_
FNDA:0,_RNCNCNvNtCs5ctNHRYimvA_7lb_quic9h3_bridge18stream_h1_response0s3_0B7_
FNDA:0,_RNCNCNvNtCs5ctNHRYimvA_7lb_quic9h3_bridge18stream_h1_response0s4_0B7_
FNDA:0,_RNCNCNvNtCs5ctNHRYimvA_7lb_quic9h3_bridge18stream_h1_response0s5_0B7_
FNDA:0,_RNCNCNvNtCs5ctNHRYimvA_7lb_quic9h3_bridge18stream_h1_response0s6_0B7_
FNDA:0,_RNCNCNvNtCs5ctNHRYimvA_7lb_quic9h3_bridge18stream_h1_response0s7_0B7_
FNDA:0,_RNCNCNvNtCs5ctNHRYimvA_7lb_quic9h3_bridge18stream_h1_response0s8_0B7_
FNDA:0,_RNCNCNvNtCs5ctNHRYimvA_7lb_quic9h3_bridge18stream_h1_response0s_0B7_
FNDA:0,_RNCNCNvNtCs5ctNHRYimvA_7lb_quic9h3_bridge18stream_h2_response00B7_
FNDA:0,_RNCNCNvNtCs5ctNHRYimvA_7lb_quic9h3_bridge18stream_h2_response0s0_0B7_
FNDA:0,_RNCNCNvNtCs5ctNHRYimvA_7lb_quic9h3_bridge18stream_h2_response0s1_0B7_
FNDA:0,_RNCNCNvNtCs5ctNHRYimvA_7lb_quic9h3_bridge18stream_h2_response0s2_0B7_
FNDA:0,_RNCNCNvNtCs5ctNHRYimvA_7lb_quic9h3_bridge18stream_h2_response0s3_0B7_
FNDA:0,_RNCNCNvNtCs5ctNHRYimvA_7lb_quic9h3_bridge18stream_h2_response0s4_0B7_
FNDA:0,_RNCNCNvNtCs5ctNHRYimvA_7lb_quic9h3_bridge18stream_h2_response0s5_0B7_
FNDA:0,_RNCNCNvNtCs5ctNHRYimvA_7lb_quic9h3_bridge18stream_h2_response0s_0B7_
FNDA:0,_RNCNCNvNtCs5ctNHRYimvA_7lb_quic9h3_bridge20h3_to_h3_stream_resp00B7_
FNDA:0,_RNCNCNvNtCs5ctNHRYimvA_7lb_quic9h3_bridge20h3_to_h3_stream_resp0s4_0B7_
FNDA:0,_RNCNCNvNtCs5ctNHRYimvA_7lb_quic9h3_bridge20h3_to_h3_stream_resp0s5_0B7_
FNDA:0,_RNCNCNvNtCs5ctNHRYimvA_7lb_quic9h3_bridge20h3_to_h3_stream_resp0s6_0B7_
FNDA:0,_RNCNCNvNtCs5ctNHRYimvA_7lb_quic9h3_bridge20h3_to_h3_stream_resp0sa_0B7_
FNDA:0,_RNCNvMs1_NtCs5ctNHRYimvA_7lb_quic9h3_bridgeNtB7_9H3Request12from_headers0B9_
FNDA:0,_RNCNvMs1_NtCs5ctNHRYimvA_7lb_quic9h3_bridgeNtB7_9H3Request12from_headerss_0B9_
FNDA:0,_RNCNvMs2_NtCs5ctNHRYimvA_7lb_quic9h3_bridgeNtB7_12ChunkDecoder21parse_trailer_section0B9_
FNDA:0,_RNCNvMs2_NtCs5ctNHRYimvA_7lb_quic9h3_bridgeNtB7_12ChunkDecoder21parse_trailer_sections_0B9_
FNDA:0,_RNCNvMs2_NtCs5ctNHRYimvA_7lb_quic9h3_bridgeNtB7_12ChunkDecoder4feed0B9_
FNDA:0,_RNCNvMs2_NtCs5ctNHRYimvA_7lb_quic9h3_bridgeNtB7_12ChunkDecoder4feeds0_0B9_
FNDA:0,_RNCNvMs2_NtCs5ctNHRYimvA_7lb_quic9h3_bridgeNtB7_12ChunkDecoder4feeds1_0B9_
FNDA:0,_RNCNvMs2_NtCs5ctNHRYimvA_7lb_quic9h3_bridgeNtB7_12ChunkDecoder4feeds_0B9_
FNDA:0,_RNCNvMs_NtCs5ctNHRYimvA_7lb_quic9h3_bridgeNtB6_11StreamRxBuf4feed0B8_
FNDA:0,_RNCNvMs_NtCs5ctNHRYimvA_7lb_quic9h3_bridgeNtB6_11StreamRxBuf9feed_body0B8_
FNDA:0,_RNCNvMs_NtCs5ctNHRYimvA_7lb_quic9h3_bridgeNtB6_11StreamRxBuf9feed_bodys0_0B8_
FNDA:0,_RNCNvMs_NtCs5ctNHRYimvA_7lb_quic9h3_bridgeNtB6_11StreamRxBuf9feed_bodys_0B8_
FNDA:0,_RNCNvNCNvNtCs5ctNHRYimvA_7lb_quic9h3_bridge20h3_to_h1_stream_resp06inline0B9_
FNDA:0,_RNCNvNCNvNtCs5ctNHRYimvA_7lb_quic9h3_bridge20h3_to_h2_stream_resp06inline0B9_
FNDA:0,_RNCNvNCNvNtCs5ctNHRYimvA_7lb_quic9h3_bridge20h3_to_h3_stream_resp06inline0B9_
FNDA:0,_RNCNvNtCs5ctNHRYimvA_7lb_quic9h3_bridge15find_header_sep0B5_
FNDA:0,_RNCNvNtCs5ctNHRYimvA_7lb_quic9h3_bridge16write_body_chunk0B5_
FNDA:0,_RNCNvNtCs5ctNHRYimvA_7lb_quic9h3_bridge16write_h1_request0B5_
FNDA:0,_RNCNvNtCs5ctNHRYimvA_7lb_quic9h3_bridge17parse_status_line0B5_
FNDA:0,_RNCNvNtCs5ctNHRYimvA_7lb_quic9h3_bridge18stream_h1_response0B5_
FNDA:0,_RNCNvNtCs5ctNHRYimvA_7lb_quic9h3_bridge18stream_h2_response0B5_
FNDA:0,_RNCNvNtCs5ctNHRYimvA_7lb_quic9h3_bridge20encode_h3_data_frame0B5_
FNDA:0,_RNCNvNtCs5ctNHRYimvA_7lb_quic9h3_bridge20h3_to_h1_stream_resp0B5_
FNDA:0,_RNCNvNtCs5ctNHRYimvA_7lb_quic9h3_bridge20h3_to_h2_stream_resp0B5_
FNDA:0,_RNCNvNtCs5ctNHRYimvA_7lb_quic9h3_bridge20h3_to_h3_stream_resp0B5_
FNDA:0,_RNCNvNtCs5ctNHRYimvA_7lb_quic9h3_bridge23encode_h3_headers_frame0B5_
FNDA:0,_RNCNvNtCs5ctNHRYimvA_7lb_quic9h3_bridge23encode_h3_headers_frames_0B5_
FNDA:0,_RNCNvNtCs5ctNHRYimvA_7lb_quic9h3_bridge23h2_request_body_from_rxs_0B5_
FNDA:0,_RNCNvNtCs5ctNHRYimvA_7lb_quic9h3_bridge24encode_h3_trailers_frame0B5_
FNDA:0,_RNCNvNtCs5ctNHRYimvA_7lb_quic9h3_bridge24encode_h3_trailers_frames_0B5_
FNF:103
FNH:0
DA:279,0
DA:280,0
DA:281,0
DA:326,0
DA:327,0
DA:330,0
DA:331,0
DA:332,0
DA:333,0
DA:335,0
DA:336,0
DA:337,0
DA:338,0
DA:339,0
DA:340,0
DA:341,0
DA:342,0
DA:343,0
DA:345,0
DA:346,0
DA:347,0
DA:348,0
DA:349,0
DA:350,0
DA:351,0
DA:352,0
DA:355,0
DA:377,0
DA:378,0
DA:379,0
DA:380,0
DA:381,0
DA:382,0
DA:383,0
DA:384,0
DA:385,0
DA:386,0
DA:387,0
DA:388,0
DA:389,0
DA:390,0
DA:391,0
DA:392,0
DA:393,0
DA:394,0
DA:395,0
DA:396,0
DA:397,0
DA:398,0
DA:399,0
DA:400,0
DA:401,0
DA:402,0
DA:403,0
DA:404,0
DA:405,0
DA:406,0
DA:407,0
DA:408,0
DA:409,0
DA:411,0
DA:412,0
DA:414,0
DA:415,0
DA:416,0
DA:417,0
DA:418,0
DA:419,0
DA:420,0
DA:421,0
DA:425,0
DA:426,0
DA:430,0
DA:431,0
DA:433,0
DA:434,0
DA:435,0
DA:436,0
DA:437,0
DA:438,0
DA:439,0
DA:440,0
DA:441,0
DA:444,0
DA:449,0
DA:450,0
DA:452,0
DA:453,0
DA:454,0
DA:455,0
DA:456,0
DA:457,0
DA:458,0
DA:459,0
DA:460,0
DA:461,0
DA:462,0
DA:463,0
DA:464,0
DA:465,0
DA:466,0
DA:467,0
DA:468,0
DA:469,0
DA:470,0
DA:471,0
DA:472,0
DA:473,0
DA:474,0
DA:475,0
DA:476,0
DA:477,0
DA:478,0
DA:479,0
DA:480,0
DA:481,0
DA:483,0
DA:487,0
DA:488,0
DA:489,0
DA:490,0
DA:491,0
DA:492,0
DA:493,0
DA:494,0
DA:495,0
DA:496,0
DA:497,0
DA:498,0
DA:499,0
DA:500,0
DA:501,0
DA:502,0
DA:503,0
DA:504,0
DA:505,0
DA:506,0
DA:507,0
DA:508,0
DA:518,0
DA:519,0
DA:520,0
DA:521,0
DA:522,0
DA:523,0
DA:524,0
DA:525,0
DA:526,0
DA:527,0
DA:528,0
DA:530,0
DA:531,0
DA:532,0
DA:533,0
DA:534,0
DA:535,0
DA:536,0
DA:537,0
DA:539,0
DA:544,0
DA:545,0
DA:553,0
DA:554,0
DA:555,0
DA:556,0
DA:557,0
DA:559,0
DA:560,0
DA:561,0
DA:562,0
DA:563,0
DA:565,0
DA:566,0
DA:571,0
DA:572,0
DA:573,0
DA:584,0
DA:585,0
DA:586,0
DA:587,0
DA:588,0
DA:590,0
DA:591,0
DA:611,0
DA:613,0
DA:614,0
DA:615,0
DA:616,0
DA:617,0
DA:618,0
DA:619,0
DA:620,0
DA:621,0
DA:622,0
DA:625,0
DA:648,0
DA:650,0
DA:651,0
DA:652,0
DA:653,0
DA:654,0
DA:655,0
DA:656,0
DA:657,0
DA:658,0
DA:659,0
DA:662,0
DA:690,0
DA:691,0
DA:692,0
DA:693,0
DA:694,0
DA:695,0
DA:696,0
DA:697,0
DA:698,0
DA:707,0
DA:708,0
DA:709,0
DA:710,0
DA:711,0
DA:712,0
DA:713,0
DA:714,0
DA:715,0
DA:716,0
DA:717,0
DA:718,0
DA:719,0
DA:720,0
DA:723,0
DA:724,0
DA:725,0
DA:726,0
DA:727,0
DA:728,0
DA:729,0
DA:730,0
DA:731,0
DA:732,0
DA:733,0
DA:734,0
DA:735,0
DA:754,0
DA:755,0
DA:756,0
DA:757,0
DA:758,0
DA:759,0
DA:760,0
DA:761,0
DA:762,0
DA:763,0
DA:764,0
DA:765,0
DA:766,0
DA:767,0
DA:768,0
DA:769,0
DA:770,0
DA:773,0
DA:774,0
DA:775,0
DA:776,0
DA:777,0
DA:778,0
DA:779,0
DA:780,0
DA:781,0
DA:782,0
DA:783,0
DA:784,0
DA:785,0
DA:786,0
DA:801,0
DA:802,0
DA:803,0
DA:804,0
DA:805,0
DA:806,0
DA:807,0
DA:808,0
DA:809,0
DA:810,0
DA:818,0
DA:819,0
DA:820,0
DA:822,0
DA:823,0
DA:824,0
DA:825,0
DA:826,0
DA:827,0
DA:828,0
DA:829,0
DA:830,0
DA:831,0
DA:832,0
DA:833,0
DA:834,0
DA:835,0
DA:836,0
DA:837,0
DA:838,0
DA:839,0
DA:844,0
DA:845,0
DA:846,0
DA:847,0
DA:848,0
DA:849,0
DA:850,0
DA:851,0
DA:852,0
DA:853,0
DA:854,0
DA:855,0
DA:856,0
DA:858,0
DA:859,0
DA:860,0
DA:861,0
DA:862,0
DA:863,0
DA:865,0
DA:866,0
DA:867,0
DA:869,0
DA:870,0
DA:871,0
DA:872,0
DA:873,0
DA:874,0
DA:875,0
DA:892,0
DA:893,0
DA:894,0
DA:895,0
DA:896,0
DA:897,0
DA:898,0
DA:899,0
DA:919,0
DA:920,0
DA:921,0
DA:922,0
DA:923,0
DA:924,0
DA:925,0
DA:926,0
DA:927,0
DA:928,0
DA:929,0
DA:930,0
DA:931,0
DA:932,0
DA:942,0
DA:943,0
DA:944,0
DA:945,0
DA:946,0
DA:947,0
DA:965,0
DA:966,0
DA:967,0
DA:968,0
DA:969,0
DA:970,0
DA:1036,0
DA:1037,0
DA:1038,0
DA:1039,0
DA:1040,0
DA:1041,0
DA:1042,0
DA:1043,0
DA:1044,0
DA:1045,0
DA:1050,0
DA:1051,0
DA:1052,0
DA:1058,0
DA:1059,0
DA:1061,0
DA:1065,0
DA:1066,0
DA:1067,0
DA:1074,0
DA:1075,0
DA:1076,0
DA:1079,0
DA:1080,0
DA:1082,0
DA:1083,0
DA:1084,0
DA:1085,0
DA:1086,0
DA:1088,0
DA:1089,0
DA:1090,0
DA:1091,0
DA:1092,0
DA:1093,0
DA:1094,0
DA:1096,0
DA:1097,0
DA:1098,0
DA:1102,0
DA:1103,0
DA:1104,0
DA:1105,0
DA:1106,0
DA:1108,0
DA:1109,0
DA:1110,0
DA:1111,0
DA:1112,0
DA:1116,0
DA:1117,0
DA:1118,0
DA:1119,0
DA:1120,0
DA:1121,0
DA:1122,0
DA:1123,0
DA:1124,0
DA:1125,0
DA:1126,0
DA:1135,0
DA:1136,0
DA:1137,0
DA:1138,0
DA:1142,0
DA:1160,0
DA:1163,0
DA:1164,0
DA:1165,0
DA:1166,0
DA:1167,0
DA:1168,0
DA:1169,0
DA:1172,0
DA:1173,0
DA:1174,0
DA:1175,0
DA:1177,0
DA:1179,0
DA:1180,0
DA:1181,0
DA:1182,0
DA:1183,0
DA:1184,0
DA:1188,0
DA:1189,0
DA:1190,0
DA:1191,0
DA:1192,0
DA:1193,0
DA:1194,0
DA:1195,0
DA:1196,0
DA:1197,0
DA:1198,0
DA:1199,0
DA:1200,0
DA:1202,0
DA:1239,0
DA:1240,0
DA:1241,0
DA:1242,0
DA:1243,0
DA:1248,0
DA:1254,0
DA:1255,0
DA:1256,0
DA:1257,0
DA:1258,0
DA:1259,0
DA:1260,0
DA:1261,0
DA:1262,0
DA:1263,0
DA:1264,0
DA:1265,0
DA:1267,0
DA:1268,0
DA:1271,0
DA:1273,0
DA:1274,0
DA:1275,0
DA:1276,0
DA:1280,0
DA:1281,0
DA:1282,0
DA:1283,0
DA:1284,0
DA:1285,0
DA:1286,0
DA:1287,0
DA:1288,0
DA:1289,0
DA:1290,0
DA:1291,0
DA:1294,0
DA:1295,0
DA:1296,0
DA:1297,0
DA:1298,0
DA:1300,0
DA:1301,0
DA:1302,0
DA:1303,0
DA:1306,0
DA:1307,0
DA:1308,0
DA:1309,0
DA:1310,0
DA:1312,0
DA:1313,0
DA:1314,0
DA:1315,0
DA:1317,0
DA:1318,0
DA:1321,0
DA:1322,0
DA:1323,0
DA:1327,0
DA:1328,0
DA:1329,0
DA:1330,0
DA:1331,0
DA:1332,0
DA:1333,0
DA:1334,0
DA:1336,0
DA:1340,0
DA:1341,0
DA:1342,0
DA:1344,0
DA:1345,0
DA:1347,0
DA:1348,0
DA:1351,0
DA:1352,0
DA:1353,0
DA:1354,0
DA:1355,0
DA:1356,0
DA:1357,0
DA:1381,0
DA:1382,0
DA:1383,0
DA:1384,0
DA:1385,0
DA:1386,0
DA:1388,0
DA:1389,0
DA:1390,0
DA:1391,0
DA:1392,0
DA:1393,0
DA:1394,0
DA:1395,0
DA:1396,0
DA:1397,0
DA:1398,0
DA:1399,0
DA:1401,0
DA:1402,0
DA:1405,0
DA:1407,0
DA:1408,0
DA:1409,0
DA:1410,0
DA:1411,0
DA:1412,0
DA:1416,0
DA:1417,0
DA:1418,0
DA:1419,0
DA:1420,0
DA:1421,0
DA:1422,0
DA:1423,0
DA:1424,0
DA:1425,0
DA:1426,0
DA:1427,0
DA:1428,0
DA:1435,0
DA:1436,0
DA:1437,0
DA:1439,0
DA:1440,0
DA:1443,0
DA:1446,0
DA:1447,0
DA:1448,0
DA:1449,0
DA:1450,0
DA:1451,0
DA:1452,0
DA:1453,0
DA:1454,0
DA:1455,0
DA:1456,0
DA:1466,0
DA:1467,0
DA:1468,0
DA:1469,0
DA:1471,0
DA:1472,0
DA:1475,0
DA:1476,0
DA:1477,0
DA:1478,0
DA:1479,0
DA:1480,0
DA:1481,0
DA:1484,0
DA:1485,0
DA:1486,0
DA:1487,0
DA:1489,0
DA:1490,0
DA:1492,0
DA:1493,0
DA:1496,0
DA:1497,0
DA:1498,0
DA:1499,0
DA:1500,0
DA:1506,0
DA:1507,0
DA:1508,0
DA:1549,0
DA:1550,0
DA:1551,0
DA:1552,0
DA:1553,0
DA:1556,0
DA:1560,0
DA:1561,0
DA:1562,0
DA:1563,0
DA:1564,0
DA:1565,0
DA:1566,0
DA:1567,0
DA:1568,0
DA:1569,0
DA:1570,0
DA:1571,0
DA:1572,0
DA:1574,0
DA:1575,0
DA:1578,0
DA:1579,0
DA:1580,0
DA:1581,0
DA:1582,0
DA:1583,0
DA:1608,0
DA:1609,0
DA:1610,0
DA:1614,0
DA:1615,0
DA:1618,0
DA:1620,0
DA:1621,0
DA:1622,0
DA:1623,0
DA:1624,0
DA:1628,0
DA:1629,0
DA:1630,0
DA:1631,0
DA:1632,0
DA:1633,0
DA:1634,0
DA:1635,0
DA:1636,0
DA:1637,0
DA:1638,0
DA:1639,0
DA:1641,0
DA:1642,0
DA:1645,0
DA:1646,0
DA:1647,0
DA:1648,0
DA:1649,0
DA:1650,0
DA:1651,0
DA:1652,0
DA:1658,0
DA:1659,0
DA:1660,0
DA:1685,0
DA:1686,0
DA:1687,0
DA:1688,0
DA:1689,0
DA:1690,0
DA:1691,0
DA:1692,0
DA:1693,0
DA:1694,0
DA:1695,0
DA:1698,0
DA:1699,0
DA:1700,0
DA:1701,0
DA:1702,0
DA:1703,0
DA:1704,0
DA:1705,0
DA:1706,0
DA:1707,0
DA:1708,0
DA:1709,0
DA:1710,0
DA:1711,0
DA:1712,0
DA:1713,0
DA:1714,0
DA:1715,0
DA:1716,0
DA:1717,0
DA:1718,0
DA:1723,0
DA:1724,0
DA:1725,0
DA:1737,0
DA:1738,0
DA:1739,0
DA:1740,0
DA:1741,0
DA:1742,0
DA:1743,0
DA:1744,0
DA:1745,0
DA:1746,0
DA:1747,0
DA:1748,0
DA:1749,0
DA:1750,0
DA:1751,0
DA:1752,0
DA:1753,0
DA:1754,0
DA:1755,0
DA:1757,0
DA:1758,0
DA:1759,0
DA:1760,0
DA:1782,0
DA:1784,0
DA:1785,0
DA:1786,0
DA:1787,0
DA:1788,0
DA:1789,0
DA:1790,0
DA:1791,0
DA:1792,0
DA:1793,0
DA:1796,0
DA:1806,0
DA:1807,0
DA:1808,0
DA:1809,0
DA:1810,0
DA:1811,0
DA:1812,0
DA:1813,0
DA:1814,0
DA:1816,0
DA:1818,0
DA:1819,0
DA:1877,0
DA:1878,0
DA:1879,0
DA:1880,0
DA:1881,0
DA:1884,0
DA:1885,0
DA:1887,0
DA:1892,0
DA:1894,0
DA:1895,0
DA:1896,0
DA:1897,0
DA:1899,0
DA:1901,0
DA:1902,0
DA:1903,0
DA:1904,0
DA:1908,0
DA:1909,0
DA:1910,0
DA:1911,0
DA:1913,0
DA:1914,0
DA:1915,0
DA:1916,0
DA:1918,0
DA:1919,0
DA:1920,0
DA:1921,0
DA:1922,0
DA:1923,0
DA:1930,0
DA:1931,0
DA:1932,0
DA:1933,0
DA:1934,0
DA:1935,0
DA:1936,0
DA:1937,0
DA:1938,0
DA:1966,0
DA:1967,0
DA:1988,0
DA:1989,0
DA:1990,0
DA:1992,0
DA:1996,0
DA:2000,0
DA:2001,0
DA:2002,0
DA:2003,0
DA:2004,0
DA:2005,0
DA:2006,0
DA:2007,0
DA:2008,0
DA:2010,0
DA:2011,0
DA:2012,0
DA:2013,0
DA:2014,0
DA:2015,0
DA:2039,0
DA:2040,0
DA:2041,0
DA:2042,0
DA:2043,0
DA:2044,0
DA:2045,0
DA:2046,0
DA:2047,0
DA:2048,0
DA:2049,0
DA:2050,0
DA:2055,0
DA:2056,0
DA:2057,0
DA:2058,0
DA:2060,0
DA:2061,0
DA:2062,0
DA:2063,0
DA:2064,0
DA:2065,0
DA:2066,0
DA:2069,0
DA:2070,0
DA:2071,0
DA:2072,0
DA:2073,0
DA:2074,0
DA:2075,0
DA:2076,0
DA:2081,0
DA:2082,0
DA:2087,0
DA:2088,0
DA:2089,0
DA:2120,0
DA:2121,0
DA:2122,0
DA:2123,0
DA:2124,0
DA:2125,0
DA:2126,0
DA:2127,0
DA:2131,0
DA:2132,0
DA:2133,0
DA:2134,0
DA:2136,0
DA:2138,0
DA:2140,0
DA:2141,0
DA:2142,0
DA:2143,0
DA:2144,0
DA:2146,0
DA:2150,0
DA:2151,0
DA:2152,0
DA:2153,0
DA:2154,0
DA:2157,0
DA:2163,0
DA:2165,0
DA:2166,0
DA:2168,0
DA:2169,0
DA:2172,0
DA:2173,0
DA:2174,0
DA:2185,0
DA:2186,0
DA:2187,0
DA:2198,0
DA:2199,0
DA:2200,0
DA:2231,0
DA:2232,0
DA:2233,0
DA:2234,0
DA:2236,0
DA:2237,0
DA:2238,0
DA:2239,0
DA:2240,0
DA:2244,0
DA:2245,0
DA:2246,0
DA:2247,0
DA:2248,0
DA:2249,0
DA:2255,0
DA:2256,0
DA:2266,0
DA:2267,0
DA:2270,0
DA:2309,0
DA:2310,0
DA:2311,0
DA:2312,0
DA:2313,0
DA:2314,0
DA:2315,0
DA:2316,0
DA:2317,0
DA:2318,0
DA:2319,0
DA:2320,0
DA:2322,0
DA:2324,0
DA:2325,0
DA:2326,0
DA:2327,0
DA:2328,0
DA:2329,0
DA:2330,0
DA:2333,0
DA:2336,0
DA:2337,0
DA:2338,0
DA:2341,0
DA:2347,0
DA:2348,0
DA:2349,0
DA:2350,0
DA:2351,0
DA:2354,0
DA:2355,0
DA:2377,0
DA:2378,0
DA:2379,0
DA:2380,0
DA:2381,0
DA:2382,0
DA:2383,0
DA:2384,0
DA:2388,0
DA:2389,0
DA:2390,0
DA:2391,0
DA:2393,0
DA:2395,0
DA:2399,0
DA:2401,0
DA:2402,0
DA:2404,0
DA:2405,0
DA:2408,0
DA:2409,0
DA:2413,0
DA:2414,0
DA:2415,0
DA:2416,0
DA:2417,0
DA:2418,0
DA:2422,0
DA:2423,0
DA:2454,0
DA:2455,0
DA:2456,0
DA:2457,0
DA:2458,0
DA:2459,0
DA:2460,0
DA:2461,0
DA:2482,0
DA:2483,0
DA:2484,0
DA:2485,0
DA:2486,0
DA:2487,0
DA:2488,0
DA:2489,0
DA:2490,0
DA:2492,0
DA:2493,0
DA:2494,0
DA:2495,0
DA:2496,0
DA:2499,0
DA:2500,0
DA:2501,0
DA:2504,0
DA:2505,0
DA:2506,0
DA:2508,0
DA:2509,0
DA:2511,0
DA:2512,0
DA:2514,0
DA:2515,0
DA:2516,0
DA:2517,0
DA:2518,0
DA:2525,0
DA:2526,0
DA:2528,0
DA:2529,0
DA:2531,0
DA:2532,0
DA:2533,0
DA:2534,0
DA:2535,0
DA:2538,0
DA:2539,0
DA:2540,0
DA:2541,0
DA:2542,0
DA:2543,0
DA:2544,0
DA:2545,0
DA:2546,0
DA:2547,0
DA:2548,0
DA:2549,0
DA:2550,0
DA:2553,0
DA:2554,0
DA:2555,0
DA:2556,0
DA:2557,0
DA:2558,0
DA:2559,0
DA:2560,0
DA:2561,0
DA:2562,0
DA:2564,0
DA:2565,0
DA:2566,0
DA:2567,0
DA:2568,0
DA:2573,0
DA:2574,0
DA:2575,0
DA:2576,0
DA:2577,0
DA:2578,0
DA:2579,0
DA:2580,0
DA:2581,0
DA:2582,0
DA:2583,0
DA:2585,0
DA:2586,0
DA:2587,0
DA:2588,0
DA:2589,0
DA:2590,0
DA:2593,0
DA:2594,0
DA:2595,0
DA:2596,0
DA:2597,0
DA:2598,0
DA:2599,0
DA:2600,0
DA:2601,0
DA:2602,0
DA:2603,0
DA:2608,0
DA:2609,0
DA:2610,0
DA:2611,0
DA:2612,0
DA:2613,0
DA:2614,0
DA:2615,0
DA:2616,0
DA:2617,0
DA:2618,0
DA:2619,0
DA:2620,0
DA:2621,0
DA:2622,0
DA:2623,0
DA:2624,0
DA:2625,0
DA:2626,0
DA:2627,0
DA:2628,0
DA:2629,0
DA:2630,0
DA:2632,0
DA:2634,0
DA:2635,0
DA:2636,0
DA:2637,0
DA:2638,0
DA:2639,0
DA:2640,0
DA:2641,0
DA:2643,0
DA:2644,0
DA:2645,0
DA:2646,0
DA:2647,0
DA:2648,0
DA:2649,0
DA:2650,0
DA:2651,0
DA:2652,0
DA:2653,0
DA:2654,0
DA:2655,0
DA:2656,0
DA:2657,0
DA:2658,0
DA:2659,0
DA:2660,0
DA:2661,0
DA:2662,0
DA:2663,0
DA:2666,0
DA:2667,0
DA:2668,0
DA:2672,0
DA:2673,0
DA:2674,0
DA:2675,0
DA:2676,0
DA:2677,0
DA:2678,0
DA:2679,0
DA:2680,0
DA:2773,0
DA:2774,0
DA:2775,0
DA:2776,0
DA:2777,0
DA:2778,0
DA:2779,0
DA:2780,0
DA:2781,0
DA:2785,0
DA:2786,0
DA:2787,0
DA:2788,0
DA:2790,0
DA:2792,0
DA:2802,0
DA:2806,0
DA:2832,0
DA:2833,0
DA:2834,0
DA:2835,0
DA:2836,0
DA:2837,0
DA:2838,0
DA:2843,0
DA:2844,0
DA:2846,0
DA:2847,0
DA:2848,0
DA:2849,0
DA:2850,0
DA:2851,0
DA:2852,0
DA:2856,0
DA:2857,0
DA:2858,0
DA:2859,0
DA:2860,0
DA:2861,0
DA:2864,0
DA:2865,0
DA:2866,0
DA:2867,0
DA:2872,0
DA:2873,0
DA:2874,0
DA:2875,0
DA:2876,0
DA:2877,0
DA:2879,0
DA:2881,0
DA:2882,0
DA:2883,0
DA:2884,0
DA:2885,0
DA:2886,0
DA:2888,0
DA:2889,0
DA:2890,0
DA:2891,0
DA:2894,0
DA:2895,0
DA:2896,0
DA:2897,0
DA:2898,0
DA:2899,0
DA:2901,0
DA:2902,0
DA:2903,0
DA:2914,0
DA:2915,0
DA:2916,0
DA:2917,0
DA:2918,0
DA:2919,0
DA:2920,0
DA:2921,0
DA:2922,0
DA:2923,0
DA:2924,0
DA:2925,0
DA:2927,0
DA:2928,0
DA:2929,0
DA:2930,0
DA:2931,0
DA:2932,0
DA:2967,0
DA:2968,0
DA:2969,0
DA:2970,0
DA:2971,0
DA:2972,0
DA:2973,0
DA:2974,0
DA:2975,0
DA:2976,0
DA:2977,0
DA:2978,0
DA:2979,0
DA:2980,0
DA:2981,0
DA:2982,0
DA:3004,0
DA:3005,0
DA:3006,0
DA:3007,0
DA:3012,0
DA:3013,0
DA:3014,0
DA:3015,0
DA:3016,0
DA:3017,0
DA:3018,0
DA:3019,0
DA:3022,0
DA:3025,0
DA:3028,0
DA:3036,0
DA:3037,0
DA:3038,0
DA:3039,0
DA:3040,0
DA:3041,0
DA:3042,0
DA:3043,0
DA:3044,0
DA:3045,0
DA:3046,0
DA:3047,0
DA:3048,0
DA:3049,0
DA:3050,0
DA:3051,0
DA:3052,0
DA:3053,0
DA:3054,0
DA:3055,0
DA:3056,0
DA:3058,0
DA:3059,0
DA:3060,0
DA:3061,0
DA:3062,0
DA:3063,0
DA:3067,0
DA:3068,0
DA:3069,0
DA:3070,0
DA:3071,0
DA:3072,0
DA:3073,0
DA:3077,0
DA:3078,0
DA:3080,0
DA:3083,0
DA:3084,0
DA:3085,0
DA:3086,0
DA:3087,0
DA:3091,0
DA:3092,0
DA:3093,0
DA:3094,0
DA:3095,0
DA:3096,0
DA:3097,0
DA:3099,0
DA:3100,0
DA:3101,0
DA:3102,0
DA:3103,0
DA:3104,0
DA:3109,0
DA:3110,0
DA:3111,0
DA:3113,0
DA:3116,0
DA:3127,0
DA:3134,0
DA:3136,0
DA:3138,0
DA:3139,0
DA:3149,0
DA:3151,0
DA:3152,0
DA:3157,0
DA:3158,0
DA:3159,0
DA:3161,0
DA:3162,0
DA:3165,0
DA:3166,0
DA:3168,0
DA:3169,0
DA:3170,0
DA:3171,0
DA:3172,0
DA:3173,0
DA:3177,0
DA:3178,0
DA:3179,0
DA:3180,0
DA:3181,0
DA:3183,0
DA:3184,0
DA:3187,0
DA:3188,0
DA:3190,0
DA:3191,0
DA:3192,0
DA:3193,0
DA:3194,0
DA:3195,0
DA:3196,0
DA:3197,0
DA:3198,0
DA:3204,0
DA:3205,0
DA:3206,0
DA:3207,0
DA:3208,0
DA:3214,0
DA:3215,0
DA:3216,0
DA:3217,0
DA:3218,0
DA:3219,0
DA:3220,0
DA:3221,0
DA:3222,0
DA:3223,0
DA:3224,0
DA:3225,0
DA:3226,0
DA:3227,0
DA:3228,0
DA:3229,0
DA:3230,0
DA:3231,0
DA:3232,0
DA:3233,0
DA:3234,0
DA:3236,0
DA:3237,0
DA:3238,0
DA:3241,0
DA:3242,0
DA:3243,0
DA:3244,0
DA:3245,0
DA:3246,0
DA:3247,0
DA:3248,0
DA:3250,0
DA:3251,0
DA:3252,0
DA:3253,0
DA:3254,0
DA:3257,0
DA:3258,0
DA:3259,0
DA:3260,0
DA:3261,0
DA:3262,0
DA:3263,0
DA:3264,0
DA:3265,0
DA:3266,0
DA:3267,0
DA:3268,0
DA:3269,0
DA:3270,0
DA:3271,0
DA:3272,0
DA:3273,0
DA:3274,0
DA:3275,0
DA:3276,0
DA:3277,0
DA:3279,0
DA:3280,0
DA:3281,0
DA:3284,0
DA:3290,0
DA:3291,0
DA:3292,0
DA:3293,0
DA:3294,0
DA:3295,0
DA:3296,0
DA:3297,0
DA:3298,0
DA:3300,0
DA:3301,0
DA:3302,0
DA:3305,0
DA:3306,0
DA:3307,0
DA:3308,0
DA:3309,0
DA:3310,0
DA:3311,0
DA:3312,0
DA:3318,0
DA:3319,0
DA:3320,0
DA:3321,0
DA:3322,0
DA:3323,0
DA:3324,0
DA:3325,0
DA:3326,0
DA:3327,0
DA:3329,0
DA:3330,0
DA:3332,0
DA:3333,0
DA:3334,0
DA:3337,0
DA:3338,0
DA:3339,0
DA:3340,0
DA:3341,0
DA:3342,0
DA:3343,0
DA:3344,0
DA:3346,0
DA:3347,0
DA:3349,0
DA:3350,0
DA:3351,0
DA:3352,0
DA:3353,0
DA:3354,0
DA:3355,0
DA:3356,0
DA:3357,0
DA:3358,0
DA:3359,0
DA:3365,0
DA:3366,0
DA:3367,0
DA:3369,0
DA:3375,0
DA:3376,0
DA:3377,0
DA:3379,0
DA:3380,0
DA:3381,0
DA:3382,0
DA:3383,0
DA:3384,0
DA:3385,0
DA:3386,0
DA:3387,0
DA:3388,0
DA:3389,0
DA:3390,0
DA:3391,0
DA:3392,0
DA:3393,0
DA:3394,0
DA:3395,0
DA:3396,0
DA:3397,0
DA:3398,0
DA:3399,0
DA:3400,0
DA:3401,0
DA:3405,0
DA:3406,0
DA:3407,0
DA:3408,0
DA:3409,0
DA:3410,0
DA:3411,0
DA:3412,0
DA:3413,0
DA:3414,0
DA:3415,0
DA:3419,0
DA:3420,0
DA:3421,0
DA:3429,0
DA:3430,0
DA:3431,0
DA:3432,0
DA:3433,0
DA:3434,0
DA:3435,0
DA:3436,0
DA:3449,0
DA:3450,0
DA:3451,0
DA:3452,0
DA:3453,0
DA:3454,0
DA:3455,0
DA:3456,0
DA:3457,0
DA:3458,0
DA:3459,0
DA:3460,0
DA:3461,0
DA:3464,0
DA:3477,0
DA:3478,0
DA:3479,0
DA:3480,0
DA:3481,0
DA:3482,0
DA:3483,0
DA:3488,0
DA:3494,0
DA:3495,0
DA:3496,0
DA:3498,0
DA:3499,0
DA:3500,0
DA:3501,0
DA:3504,0
DA:3505,0
DA:3506,0
DA:3507,0
DA:3508,0
DA:3509,0
DA:3510,0
DA:3511,0
DA:3512,0
DA:3541,0
DA:3542,0
DA:3543,0
DA:3544,0
DA:3545,0
DA:3547,0
DA:3548,0
DA:3550,0
DA:3558,0
DA:3559,0
DA:3560,0
DA:3561,0
DA:3562,0
DA:3563,0
DA:3609,0
DA:3610,0
DA:3611,0
DA:3612,0
DA:3613,0
DA:3615,0
DA:3623,0
DA:3624,0
DA:3625,0
DA:3626,0
DA:3627,0
DA:3629,0
DA:3630,0
DA:3631,0
DA:3632,0
DA:3633,0
DA:3635,0
DA:3636,0
BRF:0
BRH:0
LF:1686
LH:0
end_of_record
SF:/home/ubuntu/Code/s9-verifier/crates/lb-quic/src/lib.rs
FN:542,_RINvCs5ctNHRYimvA_7lb_quic5driveppEB2_
FN:550,_RNCINvCs5ctNHRYimvA_7lb_quic5driveppE0B4_
FN:578,_RNCNCINvCs5ctNHRYimvA_7lb_quic5driveppE00B6_
FN:839,_RNCNCNvCs5ctNHRYimvA_7lb_quic16roundtrip_stream00B5_
FN:854,_RNCNCNvCs5ctNHRYimvA_7lb_quic16roundtrip_stream0s_0B5_
FN:614,_RNCNCNvCs5ctNHRYimvA_7lb_quic17server_accept_one00B5_
FN:763,_RNCNCNvCs5ctNHRYimvA_7lb_quic18roundtrip_datagram00B5_
FN:778,_RNCNCNvCs5ctNHRYimvA_7lb_quic18roundtrip_datagram0s_0B5_
FN:688,_RNCNCNvCs5ctNHRYimvA_7lb_quic18server_stream_task00B5_
FN:661,_RNCNCNvCs5ctNHRYimvA_7lb_quic20server_datagram_task00B5_
FN:644,_RNCNvCs5ctNHRYimvA_7lb_quic14graceful_close0B3_
FN:804,_RNCNvCs5ctNHRYimvA_7lb_quic16roundtrip_stream0B3_
FN:606,_RNCNvCs5ctNHRYimvA_7lb_quic17server_accept_one0B3_
FN:732,_RNCNvCs5ctNHRYimvA_7lb_quic18roundtrip_datagram0B3_
FN:686,_RNCNvCs5ctNHRYimvA_7lb_quic18server_stream_task0B3_
FN:659,_RNCNvCs5ctNHRYimvA_7lb_quic20server_datagram_task0B3_
FN:523,_RNCNvCs5ctNHRYimvA_7lb_quic21flush_out_best_effort0B3_
FN:501,_RNCNvCs5ctNHRYimvA_7lb_quic9flush_out0B3_
FN:348,_RNCNvMs_Cs5ctNHRYimvA_7lb_quicNtB6_12QuicEndpoint18client_on_loopback0B6_
FN:325,_RNCNvMs_Cs5ctNHRYimvA_7lb_quicNtB6_12QuicEndpoint18server_on_loopback0B6_
FN:481,_RNCNvCs5ctNHRYimvA_7lb_quic11random_scid0B3_
FN:447,_RNCNvCs5ctNHRYimvA_7lb_quic12build_config0B3_
FN:461,_RNCNvCs5ctNHRYimvA_7lb_quic12build_configs0_0B3_
FN:450,_RNCNvCs5ctNHRYimvA_7lb_quic12build_configs_0B3_
FN:477,_RNvCs5ctNHRYimvA_7lb_quic11random_scid
FN:426,_RNvCs5ctNHRYimvA_7lb_quic12build_config
FN:264,_RNvCs5ctNHRYimvA_7lb_quic14forward_stream
FN:644,_RNvCs5ctNHRYimvA_7lb_quic14graceful_close
FN:251,_RNvCs5ctNHRYimvA_7lb_quic16forward_datagram
FN:800,_RNvCs5ctNHRYimvA_7lb_quic16roundtrip_stream
FN:602,_RNvCs5ctNHRYimvA_7lb_quic17server_accept_one
FN:728,_RNvCs5ctNHRYimvA_7lb_quic18roundtrip_datagram
FN:682,_RNvCs5ctNHRYimvA_7lb_quic18server_stream_task
FN:655,_RNvCs5ctNHRYimvA_7lb_quic20server_datagram_task
FN:519,_RNvCs5ctNHRYimvA_7lb_quic21flush_out_best_effort
FN:176,_RNvCs5ctNHRYimvA_7lb_quic6prefix
FN:497,_RNvCs5ctNHRYimvA_7lb_quic9flush_out
FN:363,_RNvMs_Cs5ctNHRYimvA_7lb_quicNtB4_12QuicEndpoint10local_addr
FN:400,_RNvMs_Cs5ctNHRYimvA_7lb_quicNtB4_12QuicEndpoint12retry_signer
FN:407,_RNvMs_Cs5ctNHRYimvA_7lb_quicNtB4_12QuicEndpoint13replay_filter
FN:378,_RNvMs_Cs5ctNHRYimvA_7lb_quicNtB4_12QuicEndpoint17with_retry_signer
FN:348,_RNvMs_Cs5ctNHRYimvA_7lb_quicNtB4_12QuicEndpoint18client_on_loopback
FN:322,_RNvMs_Cs5ctNHRYimvA_7lb_quicNtB4_12QuicEndpoint18server_on_loopback
FN:392,_RNvMs_Cs5ctNHRYimvA_7lb_quicNtB4_12QuicEndpoint18with_replay_filter
FN:301,_RNvXCs5ctNHRYimvA_7lb_quicNtB2_12QuicEndpointNtNtCs2va5m0jqTTM_4core3fmt5Debug3fmt
FNDA:0,_RINvCs5ctNHRYimvA_7lb_quic5driveppEB2_
FNDA:0,_RNCINvCs5ctNHRYimvA_7lb_quic5driveppE0B4_
FNDA:0,_RNCNCINvCs5ctNHRYimvA_7lb_quic5driveppE00B6_
FNDA:0,_RNCNCNvCs5ctNHRYimvA_7lb_quic16roundtrip_stream00B5_
FNDA:0,_RNCNCNvCs5ctNHRYimvA_7lb_quic16roundtrip_stream0s_0B5_
FNDA:0,_RNCNCNvCs5ctNHRYimvA_7lb_quic17server_accept_one00B5_
FNDA:0,_RNCNCNvCs5ctNHRYimvA_7lb_quic18roundtrip_datagram00B5_
FNDA:0,_RNCNCNvCs5ctNHRYimvA_7lb_quic18roundtrip_datagram0s_0B5_
FNDA:0,_RNCNCNvCs5ctNHRYimvA_7lb_quic18server_stream_task00B5_
FNDA:0,_RNCNCNvCs5ctNHRYimvA_7lb_quic20server_datagram_task00B5_
FNDA:0,_RNCNvCs5ctNHRYimvA_7lb_quic14graceful_close0B3_
FNDA:0,_RNCNvCs5ctNHRYimvA_7lb_quic16roundtrip_stream0B3_
FNDA:0,_RNCNvCs5ctNHRYimvA_7lb_quic17server_accept_one0B3_
FNDA:0,_RNCNvCs5ctNHRYimvA_7lb_quic18roundtrip_datagram0B3_
FNDA:0,_RNCNvCs5ctNHRYimvA_7lb_quic18server_stream_task0B3_
FNDA:0,_RNCNvCs5ctNHRYimvA_7lb_quic20server_datagram_task0B3_
FNDA:0,_RNCNvCs5ctNHRYimvA_7lb_quic21flush_out_best_effort0B3_
FNDA:0,_RNCNvCs5ctNHRYimvA_7lb_quic9flush_out0B3_
FNDA:0,_RNCNvMs_Cs5ctNHRYimvA_7lb_quicNtB6_12QuicEndpoint18client_on_loopback0B6_
FNDA:0,_RNCNvMs_Cs5ctNHRYimvA_7lb_quicNtB6_12QuicEndpoint18server_on_loopback0B6_
FNDA:0,_RNCNvCs5ctNHRYimvA_7lb_quic11random_scid0B3_
FNDA:0,_RNCNvCs5ctNHRYimvA_7lb_quic12build_config0B3_
FNDA:0,_RNCNvCs5ctNHRYimvA_7lb_quic12build_configs0_0B3_
FNDA:0,_RNCNvCs5ctNHRYimvA_7lb_quic12build_configs_0B3_
FNDA:0,_RNvCs5ctNHRYimvA_7lb_quic11random_scid
FNDA:0,_RNvCs5ctNHRYimvA_7lb_quic12build_config
FNDA:0,_RNvCs5ctNHRYimvA_7lb_quic14forward_stream
FNDA:0,_RNvCs5ctNHRYimvA_7lb_quic14graceful_close
FNDA:0,_RNvCs5ctNHRYimvA_7lb_quic16forward_datagram
FNDA:0,_RNvCs5ctNHRYimvA_7lb_quic16roundtrip_stream
FNDA:0,_RNvCs5ctNHRYimvA_7lb_quic17server_accept_one
FNDA:0,_RNvCs5ctNHRYimvA_7lb_quic18roundtrip_datagram
FNDA:0,_RNvCs5ctNHRYimvA_7lb_quic18server_stream_task
FNDA:0,_RNvCs5ctNHRYimvA_7lb_quic20server_datagram_task
FNDA:0,_RNvCs5ctNHRYimvA_7lb_quic21flush_out_best_effort
FNDA:0,_RNvCs5ctNHRYimvA_7lb_quic6prefix
FNDA:0,_RNvCs5ctNHRYimvA_7lb_quic9flush_out
FNDA:0,_RNvMs_Cs5ctNHRYimvA_7lb_quicNtB4_12QuicEndpoint10local_addr
FNDA:0,_RNvMs_Cs5ctNHRYimvA_7lb_quicNtB4_12QuicEndpoint12retry_signer
FNDA:0,_RNvMs_Cs5ctNHRYimvA_7lb_quicNtB4_12QuicEndpoint13replay_filter
FNDA:0,_RNvMs_Cs5ctNHRYimvA_7lb_quicNtB4_12QuicEndpoint17with_retry_signer
FNDA:0,_RNvMs_Cs5ctNHRYimvA_7lb_quicNtB4_12QuicEndpoint18client_on_loopback
FNDA:0,_RNvMs_Cs5ctNHRYimvA_7lb_quicNtB4_12QuicEndpoint18server_on_loopback
FNDA:0,_RNvMs_Cs5ctNHRYimvA_7lb_quicNtB4_12QuicEndpoint18with_replay_filter
FNDA:0,_RNvXCs5ctNHRYimvA_7lb_quicNtB2_12QuicEndpointNtNtCs2va5m0jqTTM_4core3fmt5Debug3fmt
FNF:45
FNH:0
DA:176,0
DA:177,0
DA:178,0
DA:251,0
DA:252,0
DA:253,0
DA:254,0
DA:255,0
DA:256,0
DA:264,0
DA:265,0
DA:266,0
DA:267,0
DA:268,0
DA:269,0
DA:301,0
DA:302,0
DA:303,0
DA:304,0
DA:306,0
DA:307,0
DA:308,0
DA:309,0
DA:310,0
DA:322,0
DA:323,0
DA:324,0
DA:325,0
DA:326,0
DA:327,0
DA:328,0
DA:329,0
DA:330,0
DA:331,0
DA:332,0
DA:333,0
DA:334,0
DA:335,0
DA:336,0
DA:337,0
DA:338,0
DA:339,0
DA:348,0
DA:349,0
DA:350,0
DA:351,0
DA:352,0
DA:353,0
DA:354,0
DA:355,0
DA:356,0
DA:357,0
DA:358,0
DA:359,0
DA:363,0
DA:364,0
DA:365,0
DA:378,0
DA:379,0
DA:380,0
DA:381,0
DA:392,0
DA:393,0
DA:394,0
DA:395,0
DA:400,0
DA:401,0
DA:402,0
DA:407,0
DA:408,0
DA:409,0
DA:426,0
DA:427,0
DA:428,0
DA:429,0
DA:430,0
DA:431,0
DA:432,0
DA:433,0
DA:434,0
DA:435,0
DA:436,0
DA:437,0
DA:438,0
DA:439,0
DA:440,0
DA:442,0
DA:443,0
DA:445,0
DA:446,0
DA:447,0
DA:448,0
DA:449,0
DA:450,0
DA:451,0
DA:452,0
DA:458,0
DA:459,0
DA:460,0
DA:461,0
DA:462,0
DA:468,0
DA:471,0
DA:472,0
DA:477,0
DA:478,0
DA:479,0
DA:480,0
DA:481,0
DA:482,0
DA:483,0
DA:484,0
DA:485,0
DA:486,0
DA:487,0
DA:488,0
DA:489,0
DA:490,0
DA:491,0
DA:492,0
DA:493,0
DA:494,0
DA:497,0
DA:498,0
DA:499,0
DA:500,0
DA:501,0
DA:503,0
DA:504,0
DA:505,0
DA:507,0
DA:508,0
DA:509,0
DA:511,0
DA:512,0
DA:515,0
DA:519,0
DA:520,0
DA:521,0
DA:522,0
DA:523,0
DA:525,0
DA:526,0
DA:527,0
DA:528,0
DA:529,0
DA:530,0
DA:531,0
DA:533,0
DA:534,0
DA:535,0
DA:536,0
DA:542,0
DA:543,0
DA:544,0
DA:545,0
DA:546,0
DA:547,0
DA:548,0
DA:549,0
DA:550,0
DA:551,0
DA:552,0
DA:553,0
DA:556,0
DA:557,0
DA:558,0
DA:559,0
DA:562,0
DA:563,0
DA:564,0
DA:565,0
DA:566,0
DA:567,0
DA:568,0
DA:569,0
DA:570,0
DA:573,0
DA:574,0
DA:575,0
DA:576,0
DA:577,0
DA:578,0
DA:579,0
DA:580,0
DA:581,0
DA:582,0
DA:583,0
DA:584,0
DA:585,0
DA:586,0
DA:587,0
DA:588,0
DA:591,0
DA:592,0
DA:593,0
DA:597,0
DA:602,0
DA:603,0
DA:604,0
DA:605,0
DA:606,0
DA:607,0
DA:608,0
DA:609,0
DA:610,0
DA:611,0
DA:612,0
DA:613,0
DA:614,0
DA:616,0
DA:617,0
DA:618,0
DA:619,0
DA:620,0
DA:621,0
DA:622,0
DA:623,0
DA:624,0
DA:625,0
DA:626,0
DA:630,0
DA:631,0
DA:632,0
DA:634,0
DA:635,0
DA:639,0
DA:640,0
DA:644,0
DA:646,0
DA:647,0
DA:648,0
DA:649,0
DA:650,0
DA:651,0
DA:655,0
DA:656,0
DA:657,0
DA:658,0
DA:659,0
DA:660,0
DA:661,0
DA:662,0
DA:663,0
DA:664,0
DA:665,0
DA:666,0
DA:667,0
DA:668,0
DA:669,0
DA:671,0
DA:672,0
DA:674,0
DA:675,0
DA:676,0
DA:677,0
DA:678,0
DA:682,0
DA:683,0
DA:684,0
DA:685,0
DA:686,0
DA:687,0
DA:688,0
DA:689,0
DA:690,0
DA:691,0
DA:692,0
DA:693,0
DA:695,0
DA:696,0
DA:698,0
DA:699,0
DA:700,0
DA:701,0
DA:702,0
DA:703,0
DA:704,0
DA:706,0
DA:707,0
DA:710,0
DA:711,0
DA:712,0
DA:713,0
DA:714,0
DA:728,0
DA:729,0
DA:730,0
DA:731,0
DA:732,0
DA:733,0
DA:734,0
DA:735,0
DA:737,0
DA:738,0
DA:740,0
DA:741,0
DA:742,0
DA:743,0
DA:744,0
DA:745,0
DA:746,0
DA:747,0
DA:748,0
DA:749,0
DA:750,0
DA:751,0
DA:752,0
DA:753,0
DA:754,0
DA:755,0
DA:756,0
DA:757,0
DA:758,0
DA:759,0
DA:760,0
DA:761,0
DA:762,0
DA:763,0
DA:764,0
DA:765,0
DA:766,0
DA:767,0
DA:768,0
DA:769,0
DA:770,0
DA:771,0
DA:772,0
DA:773,0
DA:774,0
DA:776,0
DA:777,0
DA:778,0
DA:779,0
DA:781,0
DA:782,0
DA:783,0
DA:784,0
DA:785,0
DA:800,0
DA:801,0
DA:802,0
DA:803,0
DA:804,0
DA:805,0
DA:806,0
DA:807,0
DA:809,0
DA:810,0
DA:812,0
DA:813,0
DA:814,0
DA:815,0
DA:816,0
DA:817,0
DA:818,0
DA:819,0
DA:820,0
DA:821,0
DA:822,0
DA:823,0
DA:824,0
DA:825,0
DA:826,0
DA:827,0
DA:828,0
DA:829,0
DA:830,0
DA:831,0
DA:832,0
DA:833,0
DA:834,0
DA:835,0
DA:836,0
DA:837,0
DA:838,0
DA:839,0
DA:840,0
DA:841,0
DA:842,0
DA:843,0
DA:844,0
DA:845,0
DA:846,0
DA:847,0
DA:848,0
DA:849,0
DA:850,0
DA:852,0
DA:853,0
DA:854,0
DA:855,0
DA:857,0
DA:858,0
DA:859,0
DA:860,0
DA:861,0
DA:862,0
BRF:0
BRH:0
LF:425
LH:0
end_of_record
SF:/home/ubuntu/Code/s9-verifier/crates/lb-quic/src/listener.rs
FN:137,_RINvMs_NtCs5ctNHRYimvA_7lb_quic8listenerNtB5_18QuicListenerParams15with_h3_backendpEB7_
FN:209,_RNCNCNvMs0_NtCs5ctNHRYimvA_7lb_quic8listenerNtB9_12QuicListener5spawn00Bb_
FN:230,_RNCNCNvMs0_NtCs5ctNHRYimvA_7lb_quic8listenerNtB9_12QuicListener5spawn0s0_0Bb_
FN:249,_RNCNCNvMs0_NtCs5ctNHRYimvA_7lb_quic8listenerNtB9_12QuicListener5spawn0s1_0Bb_
FN:215,_RNCNCNvMs0_NtCs5ctNHRYimvA_7lb_quic8listenerNtB9_12QuicListener5spawn0s_0Bb_
FN:180,_RNCNvMs0_NtCs5ctNHRYimvA_7lb_quic8listenerNtB7_12QuicListener5spawn0B9_
FN:318,_RNCNvNtCs5ctNHRYimvA_7lb_quic8listener29load_or_generate_retry_secret0B5_
FNDA:0,_RINvMs_NtCs5ctNHRYimvA_7lb_quic8listenerNtB5_18QuicListenerParams15with_h3_backendpEB7_
FNDA:0,_RNCNCNvMs0_NtCs5ctNHRYimvA_7lb_quic8listenerNtB9_12QuicListener5spawn00Bb_
FNDA:0,_RNCNCNvMs0_NtCs5ctNHRYimvA_7lb_quic8listenerNtB9_12QuicListener5spawn0s0_0Bb_
FNDA:0,_RNCNCNvMs0_NtCs5ctNHRYimvA_7lb_quic8listenerNtB9_12QuicListener5spawn0s1_0Bb_
FNDA:0,_RNCNCNvMs0_NtCs5ctNHRYimvA_7lb_quic8listenerNtB9_12QuicListener5spawn0s_0Bb_
FNDA:0,_RNCNvMs0_NtCs5ctNHRYimvA_7lb_quic8listenerNtB7_12QuicListener5spawn0B9_
FNDA:0,_RNCNvNtCs5ctNHRYimvA_7lb_quic8listener29load_or_generate_retry_secret0B5_
FNF:7
FNH:0
DA:137,0
DA:138,0
DA:139,0
DA:140,0
DA:141,0
DA:142,0
DA:143,0
DA:144,0
DA:145,0
DA:180,0
DA:181,0
DA:182,0
DA:183,0
DA:185,0
DA:186,0
DA:187,0
DA:188,0
DA:189,0
DA:190,0
DA:193,0
DA:194,0
DA:195,0
DA:196,0
DA:204,0
DA:205,0
DA:206,0
DA:207,0
DA:208,0
DA:209,0
DA:210,0
DA:211,0
DA:212,0
DA:213,0
DA:214,0
DA:215,0
DA:216,0
DA:217,0
DA:218,0
DA:219,0
DA:220,0
DA:221,0
DA:222,0
DA:223,0
DA:224,0
DA:225,0
DA:226,0
DA:227,0
DA:228,0
DA:229,0
DA:230,0
DA:231,0
DA:232,0
DA:233,0
DA:234,0
DA:235,0
DA:236,0
DA:237,0
DA:238,0
DA:239,0
DA:240,0
DA:241,0
DA:242,0
DA:243,0
DA:244,0
DA:245,0
DA:246,0
DA:247,0
DA:248,0
DA:249,0
DA:250,0
DA:251,0
DA:252,0
DA:253,0
DA:254,0
DA:255,0
DA:256,0
DA:257,0
DA:258,0
DA:259,0
DA:260,0
DA:261,0
DA:262,0
DA:263,0
DA:318,0
BRF:0
BRH:0
LF:90
LH:0
end_of_record
SF:/home/ubuntu/Code/s9-verifier/crates/lb-quic/src/router.rs
FN:105,_RNCNvMNtCs5ctNHRYimvA_7lb_quic6routerNtB4_12RouterHandle4join0B6_
FN:189,_RNCNCNvNtCs5ctNHRYimvA_7lb_quic6router15dispatch_packet00B7_
FN:265,_RNCNvNtCs5ctNHRYimvA_7lb_quic6router10send_retry0B5_
FN:121,_RNCNvNtCs5ctNHRYimvA_7lb_quic6router11router_main0B5_
FN:403,_RNCNvNtCs5ctNHRYimvA_7lb_quic6router14sample_conn_id0B5_
FN:166,_RNCNvNtCs5ctNHRYimvA_7lb_quic6router15dispatch_packet0B5_
FN:330,_RNCNvNtCs5ctNHRYimvA_7lb_quic6router20spawn_new_connection0B5_
FN:387,_RNCNvNtCs5ctNHRYimvA_7lb_quic6router20spawn_new_connections0_0B5_
FN:341,_RNCNvNtCs5ctNHRYimvA_7lb_quic6router20spawn_new_connections_0B5_
FN:113,_RNCNvNtCs5ctNHRYimvA_7lb_quic6router5spawn0B5_
FN:105,_RNvMNtCs5ctNHRYimvA_7lb_quic6routerNtB2_12RouterHandle4join
FN:260,_RNvNtCs5ctNHRYimvA_7lb_quic6router10send_retry
FN:121,_RNvNtCs5ctNHRYimvA_7lb_quic6router11router_main
FN:397,_RNvNtCs5ctNHRYimvA_7lb_quic6router14sample_conn_id
FN:160,_RNvNtCs5ctNHRYimvA_7lb_quic6router15dispatch_packet
FN:229,_RNvNtCs5ctNHRYimvA_7lb_quic6router16build_replay_key
FN:238,_RNvNtCs5ctNHRYimvA_7lb_quic6router16forward_to_actor
FN:296,_RNvNtCs5ctNHRYimvA_7lb_quic6router20spawn_new_connection
FN:112,_RNvNtCs5ctNHRYimvA_7lb_quic6router5spawn
FNDA:0,_RNCNvMNtCs5ctNHRYimvA_7lb_quic6routerNtB4_12RouterHandle4join0B6_
FNDA:0,_RNCNCNvNtCs5ctNHRYimvA_7lb_quic6router15dispatch_packet00B7_
FNDA:0,_RNCNvNtCs5ctNHRYimvA_7lb_quic6router10send_retry0B5_
FNDA:0,_RNCNvNtCs5ctNHRYimvA_7lb_quic6router11router_main0B5_
FNDA:0,_RNCNvNtCs5ctNHRYimvA_7lb_quic6router14sample_conn_id0B5_
FNDA:0,_RNCNvNtCs5ctNHRYimvA_7lb_quic6router15dispatch_packet0B5_
FNDA:0,_RNCNvNtCs5ctNHRYimvA_7lb_quic6router20spawn_new_connection0B5_
FNDA:0,_RNCNvNtCs5ctNHRYimvA_7lb_quic6router20spawn_new_connections0_0B5_
FNDA:0,_RNCNvNtCs5ctNHRYimvA_7lb_quic6router20spawn_new_connections_0B5_
FNDA:0,_RNCNvNtCs5ctNHRYimvA_7lb_quic6router5spawn0B5_
FNDA:0,_RNvMNtCs5ctNHRYimvA_7lb_quic6routerNtB2_12RouterHandle4join
FNDA:0,_RNvNtCs5ctNHRYimvA_7lb_quic6router10send_retry
FNDA:0,_RNvNtCs5ctNHRYimvA_7lb_quic6router11router_main
FNDA:0,_RNvNtCs5ctNHRYimvA_7lb_quic6router14sample_conn_id
FNDA:0,_RNvNtCs5ctNHRYimvA_7lb_quic6router15dispatch_packet
FNDA:0,_RNvNtCs5ctNHRYimvA_7lb_quic6router16build_replay_key
FNDA:0,_RNvNtCs5ctNHRYimvA_7lb_quic6router16forward_to_actor
FNDA:0,_RNvNtCs5ctNHRYimvA_7lb_quic6router20spawn_new_connection
FNDA:0,_RNvNtCs5ctNHRYimvA_7lb_quic6router5spawn
FNF:19
FNH:0
DA:105,0
DA:106,0
DA:107,0
DA:112,0
DA:113,0
DA:114,0
DA:115,0
DA:116,0
DA:117,0
DA:118,0
DA:119,0
DA:121,0
DA:122,0
DA:124,0
DA:125,0
DA:126,0
DA:127,0
DA:130,0
DA:132,0
DA:133,0
DA:134,0
DA:136,0
DA:137,0
DA:138,0
DA:139,0
DA:140,0
DA:141,0
DA:144,0
DA:145,0
DA:146,0
DA:147,0
DA:148,0
DA:149,0
DA:150,0
DA:151,0
DA:153,0
DA:154,0
DA:158,0
DA:160,0
DA:161,0
DA:162,0
DA:163,0
DA:164,0
DA:165,0
DA:166,0
DA:170,0
DA:171,0
DA:172,0
DA:174,0
DA:177,0
DA:178,0
DA:179,0
DA:180,0
DA:181,0
DA:182,0
DA:183,0
DA:184,0
DA:185,0
DA:186,0
DA:187,0
DA:188,0
DA:189,0
DA:190,0
DA:191,0
DA:192,0
DA:193,0
DA:195,0
DA:196,0
DA:197,0
DA:198,0
DA:199,0
DA:206,0
DA:207,0
DA:208,0
DA:209,0
DA:210,0
DA:211,0
DA:212,0
DA:213,0
DA:214,0
DA:215,0
DA:216,0
DA:217,0
DA:218,0
DA:219,0
DA:220,0
DA:221,0
DA:229,0
DA:230,0
DA:231,0
DA:232,0
DA:233,0
DA:234,0
DA:235,0
DA:238,0
DA:239,0
DA:240,0
DA:241,0
DA:242,0
DA:243,0
DA:244,0
DA:245,0
DA:246,0
DA:247,0
DA:248,0
DA:250,0
DA:252,0
DA:253,0
DA:254,0
DA:256,0
DA:260,0
DA:261,0
DA:262,0
DA:263,0
DA:264,0
DA:265,0
DA:266,0
DA:267,0
DA:268,0
DA:269,0
DA:270,0
DA:271,0
DA:272,0
DA:273,0
DA:274,0
DA:275,0
DA:276,0
DA:277,0
DA:278,0
DA:279,0
DA:280,0
DA:281,0
DA:282,0
DA:283,0
DA:284,0
DA:285,0
DA:286,0
DA:287,0
DA:289,0
DA:290,0
DA:291,0
DA:292,0
DA:293,0
DA:294,0
DA:296,0
DA:297,0
DA:298,0
DA:299,0
DA:300,0
DA:301,0
DA:302,0
DA:303,0
DA:304,0
DA:305,0
DA:306,0
DA:307,0
DA:308,0
DA:309,0
DA:310,0
DA:311,0
DA:312,0
DA:313,0
DA:314,0
DA:315,0
DA:316,0
DA:318,0
DA:319,0
DA:320,0
DA:321,0
DA:322,0
DA:323,0
DA:324,0
DA:325,0
DA:326,0
DA:327,0
DA:328,0
DA:330,0
DA:331,0
DA:332,0
DA:333,0
DA:334,0
DA:335,0
DA:336,0
DA:337,0
DA:338,0
DA:339,0
DA:340,0
DA:341,0
DA:343,0
DA:344,0
DA:345,0
DA:346,0
DA:347,0
DA:348,0
DA:349,0
DA:350,0
DA:351,0
DA:352,0
DA:353,0
DA:354,0
DA:355,0
DA:356,0
DA:357,0
DA:358,0
DA:359,0
DA:360,0
DA:361,0
DA:362,0
DA:363,0
DA:364,0
DA:365,0
DA:366,0
DA:367,0
DA:368,0
DA:369,0
DA:370,0
DA:371,0
DA:372,0
DA:373,0
DA:374,0
DA:375,0
DA:376,0
DA:377,0
DA:378,0
DA:379,0
DA:380,0
DA:381,0
DA:382,0
DA:383,0
DA:384,0
DA:385,0
DA:386,0
DA:387,0
DA:388,0
DA:389,0
DA:390,0
DA:391,0
DA:393,0
DA:394,0
DA:395,0
DA:397,0
DA:399,0
DA:400,0
DA:401,0
DA:402,0
DA:403,0
DA:404,0
DA:405,0
DA:406,0
DA:407,0
DA:408,0
DA:409,0
DA:410,0
DA:411,0
DA:412,0
DA:413,0
DA:415,0
DA:416,0
DA:417,0
BRF:0
BRH:0
LF:271
LH:0
end_of_record
SF:/home/ubuntu/Code/s9-verifier/crates/lb-security/src/admin_auth.rs
FN:96,_RNvMNtCsgphuHPmxLkZ_11lb_security10admin_authNtB2_14AdminTokenHash14from_plaintext
FN:130,_RNvMNtCsgphuHPmxLkZ_11lb_security10admin_authNtB2_14AdminTokenHash5ct_eq
FN:114,_RNvMNtCsgphuHPmxLkZ_11lb_security10admin_authNtB2_14AdminTokenHash8from_hex
FN:229,_RNvMs0_NtCsgphuHPmxLkZ_11lb_security10admin_authNtB5_13AdminAuthGate13validate_bind
FN:169,_RNvMs0_NtCsgphuHPmxLkZ_11lb_security10admin_authNtB5_13AdminAuthGate3new
FN:175,_RNvMs0_NtCsgphuHPmxLkZ_11lb_security10admin_authNtB5_13AdminAuthGate8enforced
FN:192,_RNvMs0_NtCsgphuHPmxLkZ_11lb_security10admin_authNtB5_13AdminAuthGate9authorize
FN:144,_RNvNtCsgphuHPmxLkZ_11lb_security10admin_auth13decode_nibble
FN:136,_RNvXs_NtCsgphuHPmxLkZ_11lb_security10admin_authNtB4_14AdminTokenHashNtNtCs2va5m0jqTTM_4core3fmt5Debug3fmt
FN:199,_RNCNvMs0_NtCsgphuHPmxLkZ_11lb_security10admin_authNtB7_13AdminAuthGate9authorize0B9_
FNDA:0,_RNvMNtCsgphuHPmxLkZ_11lb_security10admin_authNtB2_14AdminTokenHash14from_plaintext
FNDA:0,_RNvMNtCsgphuHPmxLkZ_11lb_security10admin_authNtB2_14AdminTokenHash5ct_eq
FNDA:0,_RNvMNtCsgphuHPmxLkZ_11lb_security10admin_authNtB2_14AdminTokenHash8from_hex
FNDA:0,_RNvMs0_NtCsgphuHPmxLkZ_11lb_security10admin_authNtB5_13AdminAuthGate13validate_bind
FNDA:0,_RNvMs0_NtCsgphuHPmxLkZ_11lb_security10admin_authNtB5_13AdminAuthGate3new
FNDA:0,_RNvMs0_NtCsgphuHPmxLkZ_11lb_security10admin_authNtB5_13AdminAuthGate8enforced
FNDA:0,_RNvMs0_NtCsgphuHPmxLkZ_11lb_security10admin_authNtB5_13AdminAuthGate9authorize
FNDA:0,_RNvNtCsgphuHPmxLkZ_11lb_security10admin_auth13decode_nibble
FNDA:0,_RNvXs_NtCsgphuHPmxLkZ_11lb_security10admin_authNtB4_14AdminTokenHashNtNtCs2va5m0jqTTM_4core3fmt5Debug3fmt
FNDA:0,_RNCNvMs0_NtCsgphuHPmxLkZ_11lb_security10admin_authNtB7_13AdminAuthGate9authorize0B9_
FNF:10
FNH:0
DA:96,0
DA:97,0
DA:98,0
DA:99,0
DA:100,0
DA:101,0
DA:102,0
DA:103,0
DA:114,0
DA:115,0
DA:116,0
DA:117,0
DA:118,0
DA:119,0
DA:120,0
DA:121,0
DA:122,0
DA:123,0
DA:125,0
DA:126,0
DA:130,0
DA:131,0
DA:132,0
DA:136,0
DA:137,0
DA:138,0
DA:139,0
DA:140,0
DA:141,0
DA:144,0
DA:145,0
DA:146,0
DA:147,0
DA:148,0
DA:149,0
DA:151,0
DA:169,0
DA:170,0
DA:171,0
DA:175,0
DA:176,0
DA:177,0
DA:192,0
DA:193,0
DA:194,0
DA:196,0
DA:197,0
DA:198,0
DA:199,0
DA:200,0
DA:201,0
DA:202,0
DA:203,0
DA:204,0
DA:205,0
DA:206,0
DA:207,0
DA:208,0
DA:210,0
DA:212,0
DA:229,0
DA:230,0
DA:231,0
DA:232,0
DA:233,0
DA:234,0
DA:235,0
DA:236,0
DA:237,0
DA:238,0
DA:239,0
DA:240,0
DA:241,0
DA:242,0
DA:243,0
DA:244,0
BRF:0
BRH:0
LF:77
LH:0
end_of_record
SF:/home/ubuntu/Code/s9-verifier/crates/lb-security/src/conn_gate.rs
FN:213,_RNvXs1_NtCsgphuHPmxLkZ_11lb_security9conn_gateNtB5_10ConnPermitNtNtNtCs2va5m0jqTTM_4core3ops4drop4Drop4drop
FN:78,_RNvMNtCsgphuHPmxLkZ_11lb_security9conn_gateNtB2_5IpNet3new
FN:145,_RNvMs0_NtCsgphuHPmxLkZ_11lb_security9conn_gateNtB5_8ConnGate10per_ip_cap
FN:139,_RNvMs0_NtCsgphuHPmxLkZ_11lb_security9conn_gateNtB5_8ConnGate12listener_cap
FN:164,_RNvMs0_NtCsgphuHPmxLkZ_11lb_security9conn_gateNtB5_8ConnGate13trusted_cidrs
FN:158,_RNvMs0_NtCsgphuHPmxLkZ_11lb_security9conn_gateNtB5_8ConnGate18current_peer_count
FN:152,_RNvMs0_NtCsgphuHPmxLkZ_11lb_security9conn_gateNtB5_8ConnGate22current_listener_count
FN:125,_RNvMs0_NtCsgphuHPmxLkZ_11lb_security9conn_gateNtB5_8ConnGate3new
FN:178,_RNvMs0_NtCsgphuHPmxLkZ_11lb_security9conn_gateNtB5_8ConnGate5admit
FN:110,_RNvXs_NtCsgphuHPmxLkZ_11lb_security9conn_gateNtB4_10ConnPermitNtNtCs2va5m0jqTTM_4core3fmt5Debug3fmt
FN:159,_RNCNvMs0_NtCsgphuHPmxLkZ_11lb_security9conn_gateNtB7_8ConnGate18current_peer_count0B9_
FN:226,_RNCNvXs1_NtCsgphuHPmxLkZ_11lb_security9conn_gateNtB7_10ConnPermitNtNtNtCs2va5m0jqTTM_4core3ops4drop4Drop4drop0B9_
FNDA:0,_RNvXs1_NtCsgphuHPmxLkZ_11lb_security9conn_gateNtB5_10ConnPermitNtNtNtCs2va5m0jqTTM_4core3ops4drop4Drop4drop
FNDA:0,_RNvMNtCsgphuHPmxLkZ_11lb_security9conn_gateNtB2_5IpNet3new
FNDA:0,_RNvMs0_NtCsgphuHPmxLkZ_11lb_security9conn_gateNtB5_8ConnGate10per_ip_cap
FNDA:0,_RNvMs0_NtCsgphuHPmxLkZ_11lb_security9conn_gateNtB5_8ConnGate12listener_cap
FNDA:0,_RNvMs0_NtCsgphuHPmxLkZ_11lb_security9conn_gateNtB5_8ConnGate13trusted_cidrs
FNDA:0,_RNvMs0_NtCsgphuHPmxLkZ_11lb_security9conn_gateNtB5_8ConnGate18current_peer_count
FNDA:0,_RNvMs0_NtCsgphuHPmxLkZ_11lb_security9conn_gateNtB5_8ConnGate22current_listener_count
FNDA:97,_RNvMs0_NtCsgphuHPmxLkZ_11lb_security9conn_gateNtB5_8ConnGate3new
FNDA:0,_RNvMs0_NtCsgphuHPmxLkZ_11lb_security9conn_gateNtB5_8ConnGate5admit
FNDA:0,_RNvXs_NtCsgphuHPmxLkZ_11lb_security9conn_gateNtB4_10ConnPermitNtNtCs2va5m0jqTTM_4core3fmt5Debug3fmt
FNDA:0,_RNCNvMs0_NtCsgphuHPmxLkZ_11lb_security9conn_gateNtB7_8ConnGate18current_peer_count0B9_
FNDA:0,_RNCNvXs1_NtCsgphuHPmxLkZ_11lb_security9conn_gateNtB7_10ConnPermitNtNtNtCs2va5m0jqTTM_4core3ops4drop4Drop4drop0B9_
FNF:12
FNH:1
DA:78,0
DA:79,0
DA:80,0
DA:110,0
DA:111,0
DA:112,0
DA:113,0
DA:114,0
DA:125,97
DA:126,97
DA:127,97
DA:128,97
DA:129,97
DA:130,97
DA:131,97
DA:132,97
DA:133,97
DA:134,97
DA:135,97
DA:139,0
DA:140,0
DA:141,0
DA:145,0
DA:146,0
DA:147,0
DA:152,0
DA:153,0
DA:154,0
DA:158,0
DA:159,0
DA:160,0
DA:164,0
DA:165,0
DA:166,0
DA:178,0
DA:179,0
DA:181,0
DA:182,0
DA:183,0
DA:184,0
DA:185,0
DA:186,0
DA:187,0
DA:188,0
DA:189,0
DA:190,0
DA:191,0
DA:195,0
DA:196,0
DA:197,0
DA:198,0
DA:199,0
DA:200,0
DA:201,0
DA:202,0
DA:203,0
DA:204,0
DA:205,0
DA:206,0
DA:207,0
DA:208,0
DA:209,0
DA:213,0
DA:214,0
DA:215,0
DA:216,0
DA:217,0
DA:218,0
DA:219,0
DA:220,0
DA:221,0
DA:222,0
DA:223,0
DA:224,0
DA:225,0
DA:226,0
DA:227,0
DA:228,0
DA:229,0
DA:230,0
BRF:0
BRH:0
LF:82
LH:11
end_of_record
SF:/home/ubuntu/Code/s9-verifier/crates/lb-security/src/glitches.rs
FN:64,_RNvMNtCsgphuHPmxLkZ_11lb_security8glitchesNtB2_10GlitchKind6weight
FN:110,_RNvMs_NtCsgphuHPmxLkZ_11lb_security8glitchesNtB4_15GlitchesCounter13with_defaults
FN:99,_RNvMs_NtCsgphuHPmxLkZ_11lb_security8glitchesNtB4_15GlitchesCounter3new
FN:153,_RNvMs_NtCsgphuHPmxLkZ_11lb_security8glitchesNtB4_15GlitchesCounter5prune
FN:128,_RNvMs_NtCsgphuHPmxLkZ_11lb_security8glitchesNtB4_15GlitchesCounter5score
FN:137,_RNvMs_NtCsgphuHPmxLkZ_11lb_security8glitchesNtB4_15GlitchesCounter6record
FN:122,_RNvMs_NtCsgphuHPmxLkZ_11lb_security8glitchesNtB4_15GlitchesCounter6window
FN:116,_RNvMs_NtCsgphuHPmxLkZ_11lb_security8glitchesNtB4_15GlitchesCounter9threshold
FN:169,_RNvXs0_NtCsgphuHPmxLkZ_11lb_security8glitchesNtB5_15GlitchesCounterNtNtCs2va5m0jqTTM_4core7default7Default7default
FNDA:0,_RNvMNtCsgphuHPmxLkZ_11lb_security8glitchesNtB2_10GlitchKind6weight
FNDA:0,_RNvMs_NtCsgphuHPmxLkZ_11lb_security8glitchesNtB4_15GlitchesCounter13with_defaults
FNDA:0,_RNvMs_NtCsgphuHPmxLkZ_11lb_security8glitchesNtB4_15GlitchesCounter3new
FNDA:0,_RNvMs_NtCsgphuHPmxLkZ_11lb_security8glitchesNtB4_15GlitchesCounter5prune
FNDA:0,_RNvMs_NtCsgphuHPmxLkZ_11lb_security8glitchesNtB4_15GlitchesCounter5score
FNDA:0,_RNvMs_NtCsgphuHPmxLkZ_11lb_security8glitchesNtB4_15GlitchesCounter6record
FNDA:0,_RNvMs_NtCsgphuHPmxLkZ_11lb_security8glitchesNtB4_15GlitchesCounter6window
FNDA:0,_RNvMs_NtCsgphuHPmxLkZ_11lb_security8glitchesNtB4_15GlitchesCounter9threshold
FNDA:0,_RNvXs0_NtCsgphuHPmxLkZ_11lb_security8glitchesNtB5_15GlitchesCounterNtNtCs2va5m0jqTTM_4core7default7Default7default
FNF:9
FNH:0
DA:64,0
DA:65,0
DA:66,0
DA:67,0
DA:68,0
DA:69,0
DA:70,0
DA:72,0
DA:99,0
DA:100,0
DA:101,0
DA:102,0
DA:103,0
DA:104,0
DA:105,0
DA:106,0
DA:110,0
DA:111,0
DA:112,0
DA:116,0
DA:117,0
DA:118,0
DA:122,0
DA:123,0
DA:124,0
DA:128,0
DA:129,0
DA:130,0
DA:137,0
DA:138,0
DA:139,0
DA:140,0
DA:141,0
DA:142,0
DA:143,0
DA:144,0
DA:145,0
DA:147,0
DA:149,0
DA:153,0
DA:154,0
DA:155,0
DA:156,0
DA:157,0
DA:158,0
DA:159,0
DA:160,0
DA:161,0
DA:164,0
DA:165,0
DA:169,0
DA:170,0
DA:171,0
BRF:0
BRH:0
LF:53
LH:0
end_of_record
SF:/home/ubuntu/Code/s9-verifier/crates/lb-security/src/handshake.rs
FN:60,_RINvNtCsgphuHPmxLkZ_11lb_security9handshake14timeout_acceptpEB4_
FN:67,_RNCINvNtCsgphuHPmxLkZ_11lb_security9handshake14timeout_acceptpE0B6_
FNDA:0,_RINvNtCsgphuHPmxLkZ_11lb_security9handshake14timeout_acceptpEB4_
FNDA:0,_RNCINvNtCsgphuHPmxLkZ_11lb_security9handshake14timeout_acceptpE0B6_
FNF:2
FNH:0
DA:60,0
DA:61,0
DA:62,0
DA:63,0
DA:64,0
DA:65,0
DA:66,0
DA:67,0
DA:68,0
DA:69,0
DA:70,0
DA:72,0
DA:74,0
DA:75,0
DA:76,0
DA:77,0
DA:78,0
DA:79,0
DA:80,0
DA:81,0
DA:84,0
BRF:0
BRH:0
LF:22
LH:0
end_of_record
SF:/home/ubuntu/Code/s9-verifier/crates/lb-security/src/hooks.rs
FN:114,_RNvMNtCsgphuHPmxLkZ_11lb_security5hooksNtB2_11HooksBundle3new
FN:121,_RNvMNtCsgphuHPmxLkZ_11lb_security5hooksNtB2_11HooksBundle4gate
FN:148,_RNvXs_NtCsgphuHPmxLkZ_11lb_security5hooksNtB4_11HooksBundleNtB4_13SecurityHooks16admit_connection
FN:127,_RINvXs_NtCsgphuHPmxLkZ_11lb_security5hooksNtB5_11HooksBundleNtB5_13SecurityHooks15inspect_requestpEB7_
FNDA:0,_RNvMNtCsgphuHPmxLkZ_11lb_security5hooksNtB2_11HooksBundle3new
FNDA:0,_RNvMNtCsgphuHPmxLkZ_11lb_security5hooksNtB2_11HooksBundle4gate
FNDA:0,_RNvXs_NtCsgphuHPmxLkZ_11lb_security5hooksNtB4_11HooksBundleNtB4_13SecurityHooks16admit_connection
FNDA:0,_RINvXs_NtCsgphuHPmxLkZ_11lb_security5hooksNtB5_11HooksBundleNtB5_13SecurityHooks15inspect_requestpEB7_
FNF:4
FNH:0
DA:114,0
DA:115,0
DA:116,0
DA:121,0
DA:122,0
DA:123,0
DA:127,0
DA:128,0
DA:129,0
DA:130,0
DA:131,0
DA:132,0
DA:133,0
DA:134,0
DA:135,0
DA:136,0
DA:137,0
DA:138,0
DA:139,0
DA:140,0
DA:142,0
DA:144,0
DA:145,0
DA:146,0
DA:148,0
DA:149,0
DA:150,0
BRF:0
BRH:0
LF:27
LH:0
end_of_record
SF:/home/ubuntu/Code/s9-verifier/crates/lb-security/src/key.rs
FN:97,_RINvNtCsgphuHPmxLkZ_11lb_security3key17assert_owner_onlypEB4_
FN:105,_RNCINvNtCsgphuHPmxLkZ_11lb_security3key17assert_owner_onlypE0B6_
FNDA:0,_RINvNtCsgphuHPmxLkZ_11lb_security3key17assert_owner_onlypEB4_
FNDA:0,_RNCINvNtCsgphuHPmxLkZ_11lb_security3key17assert_owner_onlypE0B6_
FNF:2
FNH:0
DA:97,0
DA:98,0
DA:99,0
DA:100,0
DA:101,0
DA:105,0
DA:106,0
DA:107,0
DA:108,0
DA:109,0
DA:110,0
DA:111,0
DA:112,0
DA:113,0
DA:114,0
DA:115,0
DA:116,0
DA:117,0
DA:119,0
DA:127,0
BRF:0
BRH:0
LF:22
LH:0
end_of_record
SF:/home/ubuntu/Code/s9-verifier/crates/lb-security/src/retry.rs
FN:139,_RNvMs_NtCsgphuHPmxLkZ_11lb_security5retryNtB4_16RetryTokenSigner10new_random
FN:160,_RNvMs_NtCsgphuHPmxLkZ_11lb_security5retryNtB4_16RetryTokenSigner12with_max_age
FN:150,_RNvMs_NtCsgphuHPmxLkZ_11lb_security5retryNtB4_16RetryTokenSigner15new_with_secret
FN:186,_RNvMs_NtCsgphuHPmxLkZ_11lb_security5retryNtB4_16RetryTokenSigner4mint
FN:219,_RNvMs_NtCsgphuHPmxLkZ_11lb_security5retryNtB4_16RetryTokenSigner6verify
FN:167,_RNvMs_NtCsgphuHPmxLkZ_11lb_security5retryNtB4_16RetryTokenSigner7max_age
FN:193,_RNvMs_NtCsgphuHPmxLkZ_11lb_security5retryNtB4_16RetryTokenSigner7mint_at
FN:297,_RNvNtCsgphuHPmxLkZ_11lb_security5retry11decode_peer
FN:283,_RNvNtCsgphuHPmxLkZ_11lb_security5retry11encode_peer
FN:123,_RNvXNtCsgphuHPmxLkZ_11lb_security5retryNtB2_16RetryTokenSignerNtNtCs2va5m0jqTTM_4core3fmt5Debug3fmt
FN:143,_RNCNvMs_NtCsgphuHPmxLkZ_11lb_security5retryNtB6_16RetryTokenSigner10new_random0B8_
FNDA:0,_RNvMs_NtCsgphuHPmxLkZ_11lb_security5retryNtB4_16RetryTokenSigner10new_random
FNDA:0,_RNvMs_NtCsgphuHPmxLkZ_11lb_security5retryNtB4_16RetryTokenSigner12with_max_age
FNDA:0,_RNvMs_NtCsgphuHPmxLkZ_11lb_security5retryNtB4_16RetryTokenSigner15new_with_secret
FNDA:0,_RNvMs_NtCsgphuHPmxLkZ_11lb_security5retryNtB4_16RetryTokenSigner4mint
FNDA:0,_RNvMs_NtCsgphuHPmxLkZ_11lb_security5retryNtB4_16RetryTokenSigner6verify
FNDA:0,_RNvMs_NtCsgphuHPmxLkZ_11lb_security5retryNtB4_16RetryTokenSigner7max_age
FNDA:0,_RNvMs_NtCsgphuHPmxLkZ_11lb_security5retryNtB4_16RetryTokenSigner7mint_at
FNDA:0,_RNvNtCsgphuHPmxLkZ_11lb_security5retry11decode_peer
FNDA:0,_RNvNtCsgphuHPmxLkZ_11lb_security5retry11encode_peer
FNDA:0,_RNvXNtCsgphuHPmxLkZ_11lb_security5retryNtB2_16RetryTokenSignerNtNtCs2va5m0jqTTM_4core3fmt5Debug3fmt
FNDA:0,_RNCNvMs_NtCsgphuHPmxLkZ_11lb_security5retryNtB6_16RetryTokenSigner10new_random0B8_
FNF:11
FNH:0
DA:123,0
DA:124,0
DA:125,0
DA:126,0
DA:127,0
DA:128,0
DA:139,0
DA:140,0
DA:141,0
DA:142,0
DA:143,0
DA:144,0
DA:145,0
DA:150,0
DA:151,0
DA:152,0
DA:153,0
DA:154,0
DA:155,0
DA:156,0
DA:160,0
DA:161,0
DA:162,0
DA:163,0
DA:167,0
DA:168,0
DA:169,0
DA:186,0
DA:187,0
DA:188,0
DA:193,0
DA:194,0
DA:195,0
DA:196,0
DA:197,0
DA:198,0
DA:199,0
DA:200,0
DA:201,0
DA:202,0
DA:203,0
DA:204,0
DA:205,0
DA:206,0
DA:207,0
DA:208,0
DA:209,0
DA:210,0
DA:219,0
DA:220,0
DA:221,0
DA:222,0
DA:223,0
DA:224,0
DA:225,0
DA:226,0
DA:227,0
DA:228,0
DA:229,0
DA:230,0
DA:231,0
DA:232,0
DA:233,0
DA:234,0
DA:235,0
DA:236,0
DA:237,0
DA:238,0
DA:239,0
DA:240,0
DA:245,0
DA:246,0
DA:247,0
DA:248,0
DA:249,0
DA:250,0
DA:251,0
DA:252,0
DA:253,0
DA:254,0
DA:255,0
DA:256,0
DA:258,0
DA:259,0
DA:261,0
DA:262,0
DA:263,0
DA:264,0
DA:265,0
DA:268,0
DA:269,0
DA:270,0
DA:271,0
DA:272,0
DA:273,0
DA:274,0
DA:275,0
DA:276,0
DA:277,0
DA:278,0
DA:279,0
DA:280,0
DA:283,0
DA:284,0
DA:285,0
DA:286,0
DA:287,0
DA:288,0
DA:289,0
DA:290,0
DA:291,0
DA:292,0
DA:294,0
DA:295,0
DA:297,0
DA:298,0
DA:299,0
DA:300,0
DA:301,0
DA:302,0
DA:304,0
DA:305,0
DA:306,0
DA:307,0
DA:308,0
DA:309,0
DA:310,0
DA:311,0
DA:312,0
DA:313,0
DA:314,0
DA:315,0
DA:316,0
DA:318,0
DA:319,0
DA:320,0
DA:322,0
DA:323,0
BRF:0
BRH:0
LF:139
LH:0
end_of_record
SF:/home/ubuntu/Code/s9-verifier/crates/lb-security/src/smuggle.rs
FN:78,_RNvMNtCsgphuHPmxLkZ_11lb_security7smuggleNtB2_15SmuggleDetector11check_cl_te
FN:103,_RNvMNtCsgphuHPmxLkZ_11lb_security7smuggleNtB2_15SmuggleDetector11check_te_cl
FN:148,_RNvMNtCsgphuHPmxLkZ_11lb_security7smuggleNtB2_15SmuggleDetector14check_all_mode
FN:190,_RNvMNtCsgphuHPmxLkZ_11lb_security7smuggleNtB2_15SmuggleDetector15check_te_strict
FN:52,_RNvMNtCsgphuHPmxLkZ_11lb_security7smuggleNtB2_15SmuggleDetector18check_duplicate_cl
FN:220,_RNvMNtCsgphuHPmxLkZ_11lb_security7smuggleNtB2_15SmuggleDetector18check_h2_downgrade
FN:125,_RNvMNtCsgphuHPmxLkZ_11lb_security7smuggleNtB2_15SmuggleDetector9check_all
FN:81,_RNCNvMNtCsgphuHPmxLkZ_11lb_security7smuggleNtB4_15SmuggleDetector11check_cl_te0B6_
FN:84,_RNCNvMNtCsgphuHPmxLkZ_11lb_security7smuggleNtB4_15SmuggleDetector11check_cl_tes_0B6_
FN:240,_RNCNvMNtCsgphuHPmxLkZ_11lb_security7smuggleNtB4_15SmuggleDetector18check_h2_downgrade0B6_
FNDA:67,_RNvMNtCsgphuHPmxLkZ_11lb_security7smuggleNtB2_15SmuggleDetector11check_cl_te
FNDA:66,_RNvMNtCsgphuHPmxLkZ_11lb_security7smuggleNtB2_15SmuggleDetector11check_te_cl
FNDA:67,_RNvMNtCsgphuHPmxLkZ_11lb_security7smuggleNtB2_15SmuggleDetector14check_all_mode
FNDA:0,_RNvMNtCsgphuHPmxLkZ_11lb_security7smuggleNtB2_15SmuggleDetector15check_te_strict
FNDA:66,_RNvMNtCsgphuHPmxLkZ_11lb_security7smuggleNtB2_15SmuggleDetector18check_duplicate_cl
FNDA:45,_RNvMNtCsgphuHPmxLkZ_11lb_security7smuggleNtB2_15SmuggleDetector18check_h2_downgrade
FNDA:0,_RNvMNtCsgphuHPmxLkZ_11lb_security7smuggleNtB2_15SmuggleDetector9check_all
FNDA:106,_RNCNvMNtCsgphuHPmxLkZ_11lb_security7smuggleNtB4_15SmuggleDetector11check_cl_te0B6_
FNDA:112,_RNCNvMNtCsgphuHPmxLkZ_11lb_security7smuggleNtB4_15SmuggleDetector11check_cl_tes_0B6_
FNDA:315,_RNCNvMNtCsgphuHPmxLkZ_11lb_security7smuggleNtB4_15SmuggleDetector18check_h2_downgrade0B6_
FNF:10
FNH:8
DA:52,66
DA:53,66
DA:54,175
DA:55,109
DA:56,9
DA:57,9
DA:58,0
DA:59,0
DA:60,0
DA:61,0
DA:64,100
DA:66,66
DA:67,66
DA:78,67
DA:79,67
DA:80,67
DA:81,106
DA:82,67
DA:83,67
DA:84,112
DA:85,67
DA:86,67
DA:87,1
DA:88,66
DA:89,66
DA:90,67
DA:103,66
DA:104,175
DA:105,109
DA:107,13
DA:108,13
DA:109,13
DA:110,0
DA:111,13
DA:112,96
DA:114,66
DA:115,66
DA:125,0
DA:126,0
DA:127,0
DA:128,0
DA:129,0
DA:130,0
DA:131,0
DA:132,0
DA:133,0
DA:134,0
DA:135,0
DA:136,0
DA:148,67
DA:149,67
DA:150,67
DA:151,67
DA:152,67
DA:153,66
DA:154,66
DA:155,66
DA:156,21
DA:158,0
DA:161,45
DA:164,66
DA:165,67
DA:190,0
DA:191,0
DA:192,0
DA:193,0
DA:194,0
DA:195,0
DA:198,0
DA:199,0
DA:200,0
DA:201,0
DA:202,0
DA:204,0
DA:206,0
DA:207,0
DA:220,45
DA:221,45
DA:222,45
DA:223,45
DA:232,45
DA:233,0
DA:234,45
DA:236,108
DA:237,63
DA:238,63
DA:239,63
DA:240,315
DA:241,0
DA:242,63
DA:243,63
DA:244,63
DA:245,63
DA:246,63
DA:247,0
DA:248,63
DA:249,63
DA:250,63
DA:251,63
DA:252,0
DA:253,63
DA:256,45
DA:257,45
BRF:0
BRH:0
LF:106
LH:70
end_of_record
SF:/home/ubuntu/Code/s9-verifier/crates/lb-security/src/ticket.rs
FN:75,_RNCNvMNtCsgphuHPmxLkZ_11lb_security6ticketNtB4_9TicketKey8generate0B6_
FN:546,_RNCNvMs7_NtCsgphuHPmxLkZ_11lb_security6ticketNtB7_15TlsConfigBundle20load_from_paths_with0B9_
FN:565,_RNCNvMs7_NtCsgphuHPmxLkZ_11lb_security6ticketNtB7_15TlsConfigBundle20load_from_paths_withs0_0B9_
FN:571,_RNCNvMs7_NtCsgphuHPmxLkZ_11lb_security6ticketNtB7_15TlsConfigBundle20load_from_paths_withs1_0B9_
FN:575,_RNCNvMs7_NtCsgphuHPmxLkZ_11lb_security6ticketNtB7_15TlsConfigBundle20load_from_paths_withs2_0B9_
FN:587,_RNCNvMs7_NtCsgphuHPmxLkZ_11lb_security6ticketNtB7_15TlsConfigBundle20load_from_paths_withs3_0B9_
FN:591,_RNCNvMs7_NtCsgphuHPmxLkZ_11lb_security6ticketNtB7_15TlsConfigBundle20load_from_paths_withs4_0B9_
FN:596,_RNCNvMs7_NtCsgphuHPmxLkZ_11lb_security6ticketNtB7_15TlsConfigBundle20load_from_paths_withs5_0B9_
FN:553,_RNCNvMs7_NtCsgphuHPmxLkZ_11lb_security6ticketNtB7_15TlsConfigBundle20load_from_paths_withs_0B9_
FN:364,_RNCNvNtCsgphuHPmxLkZ_11lb_security6ticket31build_server_config_with_policy0B5_
FN:373,_RNCNvNtCsgphuHPmxLkZ_11lb_security6ticket31build_server_config_with_policys0_0B5_
FN:376,_RNCNvNtCsgphuHPmxLkZ_11lb_security6ticket31build_server_config_with_policys1_0B5_
FN:368,_RNCNvNtCsgphuHPmxLkZ_11lb_security6ticket31build_server_config_with_policys_0B5_
FN:303,_RNCNvXs4_NtCsgphuHPmxLkZ_11lb_security6ticketNtB7_16RotatingTicketerNtNtNtCs7pS0JuyG8rH_6rustls6server11server_conn15ProducesTickets7decrypt0B9_
FN:91,_RNvMNtCsgphuHPmxLkZ_11lb_security6ticketNtB2_9TicketKey7decrypt
FN:83,_RNvMNtCsgphuHPmxLkZ_11lb_security6ticketNtB2_9TicketKey7encrypt
FN:73,_RNvMNtCsgphuHPmxLkZ_11lb_security6ticketNtB2_9TicketKey8generate
FN:167,_RNvMs0_NtCsgphuHPmxLkZ_11lb_security6ticketNtB5_13TicketRotator10rotated_at
FN:190,_RNvMs0_NtCsgphuHPmxLkZ_11lb_security6ticketNtB5_13TicketRotator13rotate_if_due
FN:142,_RNvMs0_NtCsgphuHPmxLkZ_11lb_security6ticketNtB5_13TicketRotator17rotation_interval
FN:232,_RNvMs0_NtCsgphuHPmxLkZ_11lb_security6ticketNtB5_13TicketRotator18as_rustls_ticketer
FN:221,_RNvMs0_NtCsgphuHPmxLkZ_11lb_security6ticketNtB5_13TicketRotator20into_rustls_ticketer
FN:128,_RNvMs0_NtCsgphuHPmxLkZ_11lb_security6ticketNtB5_13TicketRotator3new
FN:155,_RNvMs0_NtCsgphuHPmxLkZ_11lb_security6ticketNtB5_13TicketRotator7current
FN:149,_RNvMs0_NtCsgphuHPmxLkZ_11lb_security6ticketNtB5_13TicketRotator7overlap
FN:161,_RNvMs0_NtCsgphuHPmxLkZ_11lb_security6ticketNtB5_13TicketRotator8previous
FN:262,_RNvMs2_NtCsgphuHPmxLkZ_11lb_security6ticketNtB5_16RotatingTicketer13lifetime_secs
FN:272,_RNvMs2_NtCsgphuHPmxLkZ_11lb_security6ticketNtB5_16RotatingTicketer13ticketer_from
FN:453,_RNvMs5_NtCsgphuHPmxLkZ_11lb_security6ticketNtB5_14TlsBundleError6reason
FN:623,_RNvMs7_NtCsgphuHPmxLkZ_11lb_security6ticketNtB5_15TlsConfigBundle11into_shared
FN:611,_RNvMs7_NtCsgphuHPmxLkZ_11lb_security6ticketNtB5_15TlsConfigBundle14loaded_at_wall
FN:522,_RNvMs7_NtCsgphuHPmxLkZ_11lb_security6ticketNtB5_15TlsConfigBundle15load_from_paths
FN:538,_RNvMs7_NtCsgphuHPmxLkZ_11lb_security6ticketNtB5_15TlsConfigBundle20load_from_paths_with
FN:617,_RNvMs7_NtCsgphuHPmxLkZ_11lb_security6ticketNtB5_15TlsConfigBundle9loaded_at
FN:644,_RNvNtCsgphuHPmxLkZ_11lb_security6ticket17reload_tls_bundle
FN:331,_RNvNtCsgphuHPmxLkZ_11lb_security6ticket19build_server_config
FN:353,_RNvNtCsgphuHPmxLkZ_11lb_security6ticket31build_server_config_with_policy
FN:242,_RNvXs1_NtCsgphuHPmxLkZ_11lb_security6ticketNtB5_13TicketRotatorNtNtCs2va5m0jqTTM_4core3fmt5Debug3fmt
FN:278,_RNvXs3_NtCsgphuHPmxLkZ_11lb_security6ticketNtB5_16RotatingTicketerNtNtCs2va5m0jqTTM_4core3fmt5Debug3fmt
FN:298,_RNvXs4_NtCsgphuHPmxLkZ_11lb_security6ticketNtB5_16RotatingTicketerNtNtNtCs7pS0JuyG8rH_6rustls6server11server_conn15ProducesTickets7decrypt
FN:284,_RNvXs4_NtCsgphuHPmxLkZ_11lb_security6ticketNtB5_16RotatingTicketerNtNtNtCs7pS0JuyG8rH_6rustls6server11server_conn15ProducesTickets7enabled
FN:293,_RNvXs4_NtCsgphuHPmxLkZ_11lb_security6ticketNtB5_16RotatingTicketerNtNtNtCs7pS0JuyG8rH_6rustls6server11server_conn15ProducesTickets7encrypt
FN:288,_RNvXs4_NtCsgphuHPmxLkZ_11lb_security6ticketNtB5_16RotatingTicketerNtNtNtCs7pS0JuyG8rH_6rustls6server11server_conn15ProducesTickets8lifetime
FN:495,_RNvXs6_NtCsgphuHPmxLkZ_11lb_security6ticketNtB5_15TlsConfigBundleNtNtCs2va5m0jqTTM_4core3fmt5Debug3fmt
FN:97,_RNvXs_NtCsgphuHPmxLkZ_11lb_security6ticketNtB4_9TicketKeyNtNtCs2va5m0jqTTM_4core3fmt5Debug3fmt
FNDA:0,_RNCNvMNtCsgphuHPmxLkZ_11lb_security6ticketNtB4_9TicketKey8generate0B6_
FNDA:0,_RNCNvMs7_NtCsgphuHPmxLkZ_11lb_security6ticketNtB7_15TlsConfigBundle20load_from_paths_with0B9_
FNDA:0,_RNCNvMs7_NtCsgphuHPmxLkZ_11lb_security6ticketNtB7_15TlsConfigBundle20load_from_paths_withs0_0B9_
FNDA:0,_RNCNvMs7_NtCsgphuHPmxLkZ_11lb_security6ticketNtB7_15TlsConfigBundle20load_from_paths_withs1_0B9_
FNDA:0,_RNCNvMs7_NtCsgphuHPmxLkZ_11lb_security6ticketNtB7_15TlsConfigBundle20load_from_paths_withs2_0B9_
FNDA:0,_RNCNvMs7_NtCsgphuHPmxLkZ_11lb_security6ticketNtB7_15TlsConfigBundle20load_from_paths_withs3_0B9_
FNDA:0,_RNCNvMs7_NtCsgphuHPmxLkZ_11lb_security6ticketNtB7_15TlsConfigBundle20load_from_paths_withs4_0B9_
FNDA:0,_RNCNvMs7_NtCsgphuHPmxLkZ_11lb_security6ticketNtB7_15TlsConfigBundle20load_from_paths_withs5_0B9_
FNDA:0,_RNCNvMs7_NtCsgphuHPmxLkZ_11lb_security6ticketNtB7_15TlsConfigBundle20load_from_paths_withs_0B9_
FNDA:0,_RNCNvNtCsgphuHPmxLkZ_11lb_security6ticket31build_server_config_with_policy0B5_
FNDA:0,_RNCNvNtCsgphuHPmxLkZ_11lb_security6ticket31build_server_config_with_policys0_0B5_
FNDA:76,_RNCNvNtCsgphuHPmxLkZ_11lb_security6ticket31build_server_config_with_policys1_0B5_
FNDA:0,_RNCNvNtCsgphuHPmxLkZ_11lb_security6ticket31build_server_config_with_policys_0B5_
FNDA:0,_RNCNvXs4_NtCsgphuHPmxLkZ_11lb_security6ticketNtB7_16RotatingTicketerNtNtNtCs7pS0JuyG8rH_6rustls6server11server_conn15ProducesTickets7decrypt0B9_
FNDA:0,_RNvMNtCsgphuHPmxLkZ_11lb_security6ticketNtB2_9TicketKey7decrypt
FNDA:76,_RNvMNtCsgphuHPmxLkZ_11lb_security6ticketNtB2_9TicketKey7encrypt
FNDA:38,_RNvMNtCsgphuHPmxLkZ_11lb_security6ticketNtB2_9TicketKey8generate
FNDA:0,_RNvMs0_NtCsgphuHPmxLkZ_11lb_security6ticketNtB5_13TicketRotator10rotated_at
FNDA:0,_RNvMs0_NtCsgphuHPmxLkZ_11lb_security6ticketNtB5_13TicketRotator13rotate_if_due
FNDA:0,_RNvMs0_NtCsgphuHPmxLkZ_11lb_security6ticketNtB5_13TicketRotator17rotation_interval
FNDA:0,_RNvMs0_NtCsgphuHPmxLkZ_11lb_security6ticketNtB5_13TicketRotator18as_rustls_ticketer
FNDA:0,_RNvMs0_NtCsgphuHPmxLkZ_11lb_security6ticketNtB5_13TicketRotator20into_rustls_ticketer
FNDA:38,_RNvMs0_NtCsgphuHPmxLkZ_11lb_security6ticketNtB5_13TicketRotator3new
FNDA:0,_RNvMs0_NtCsgphuHPmxLkZ_11lb_security6ticketNtB5_13TicketRotator7current
FNDA:0,_RNvMs0_NtCsgphuHPmxLkZ_11lb_security6ticketNtB5_13TicketRotator7overlap
FNDA:0,_RNvMs0_NtCsgphuHPmxLkZ_11lb_security6ticketNtB5_13TicketRotator8previous
FNDA:76,_RNvMs2_NtCsgphuHPmxLkZ_11lb_security6ticketNtB5_16RotatingTicketer13lifetime_secs
FNDA:0,_RNvMs2_NtCsgphuHPmxLkZ_11lb_security6ticketNtB5_16RotatingTicketer13ticketer_from
FNDA:0,_RNvMs5_NtCsgphuHPmxLkZ_11lb_security6ticketNtB5_14TlsBundleError6reason
FNDA:0,_RNvMs7_NtCsgphuHPmxLkZ_11lb_security6ticketNtB5_15TlsConfigBundle11into_shared
FNDA:0,_RNvMs7_NtCsgphuHPmxLkZ_11lb_security6ticketNtB5_15TlsConfigBundle14loaded_at_wall
FNDA:0,_RNvMs7_NtCsgphuHPmxLkZ_11lb_security6ticketNtB5_15TlsConfigBundle15load_from_paths
FNDA:0,_RNvMs7_NtCsgphuHPmxLkZ_11lb_security6ticketNtB5_15TlsConfigBundle20load_from_paths_with
FNDA:0,_RNvMs7_NtCsgphuHPmxLkZ_11lb_security6ticketNtB5_15TlsConfigBundle9loaded_at
FNDA:0,_RNvNtCsgphuHPmxLkZ_11lb_security6ticket17reload_tls_bundle
FNDA:38,_RNvNtCsgphuHPmxLkZ_11lb_security6ticket19build_server_config
FNDA:38,_RNvNtCsgphuHPmxLkZ_11lb_security6ticket31build_server_config_with_policy
FNDA:0,_RNvXs1_NtCsgphuHPmxLkZ_11lb_security6ticketNtB5_13TicketRotatorNtNtCs2va5m0jqTTM_4core3fmt5Debug3fmt
FNDA:0,_RNvXs3_NtCsgphuHPmxLkZ_11lb_security6ticketNtB5_16RotatingTicketerNtNtCs2va5m0jqTTM_4core3fmt5Debug3fmt
FNDA:0,_RNvXs4_NtCsgphuHPmxLkZ_11lb_security6ticketNtB5_16RotatingTicketerNtNtNtCs7pS0JuyG8rH_6rustls6server11server_conn15ProducesTickets7decrypt
FNDA:76,_RNvXs4_NtCsgphuHPmxLkZ_11lb_security6ticketNtB5_16RotatingTicketerNtNtNtCs7pS0JuyG8rH_6rustls6server11server_conn15ProducesTickets7enabled
FNDA:76,_RNvXs4_NtCsgphuHPmxLkZ_11lb_security6ticketNtB5_16RotatingTicketerNtNtNtCs7pS0JuyG8rH_6rustls6server11server_conn15ProducesTickets7encrypt
FNDA:76,_RNvXs4_NtCsgphuHPmxLkZ_11lb_security6ticketNtB5_16RotatingTicketerNtNtNtCs7pS0JuyG8rH_6rustls6server11server_conn15ProducesTickets8lifetime
FNDA:0,_RNvXs6_NtCsgphuHPmxLkZ_11lb_security6ticketNtB5_15TlsConfigBundleNtNtCs2va5m0jqTTM_4core3fmt5Debug3fmt
FNDA:0,_RNvXs_NtCsgphuHPmxLkZ_11lb_security6ticketNtB4_9TicketKeyNtNtCs2va5m0jqTTM_4core3fmt5Debug3fmt
FNF:45
FNH:10
DA:73,38
DA:74,38
DA:75,38
DA:76,38
DA:77,38
DA:83,76
DA:84,76
DA:85,76
DA:91,0
DA:92,0
DA:93,0
DA:97,0
DA:98,0
DA:99,0
DA:100,0
DA:128,38
DA:129,38
DA:130,38
DA:131,38
DA:132,38
DA:133,38
DA:134,38
DA:135,38
DA:136,38
DA:137,38
DA:142,0
DA:143,0
DA:144,0
DA:149,0
DA:150,0
DA:151,0
DA:155,0
DA:156,0
DA:157,0
DA:161,0
DA:162,0
DA:163,0
DA:167,0
DA:168,0
DA:169,0
DA:190,0
DA:191,0
DA:192,0
DA:193,0
DA:194,0
DA:195,0
DA:196,0
DA:197,0
DA:199,0
DA:207,0
DA:208,0
DA:209,0
DA:210,0
DA:211,0
DA:212,0
DA:214,0
DA:215,0
DA:221,0
DA:222,0
DA:223,0
DA:224,0
DA:225,0
DA:232,0
DA:233,0
DA:234,0
DA:235,0
DA:236,0
DA:237,0
DA:238,0
DA:242,0
DA:243,0
DA:244,0
DA:245,0
DA:246,0
DA:247,0
DA:248,0
DA:262,76
DA:263,76
DA:264,76
DA:265,76
DA:272,0
DA:273,0
DA:274,0
DA:278,0
DA:279,0
DA:280,0
DA:284,76
DA:285,76
DA:286,76
DA:288,76
DA:289,76
DA:290,76
DA:291,76
DA:293,76
DA:294,76
DA:295,76
DA:296,76
DA:298,0
DA:299,0
DA:300,0
DA:301,0
DA:302,0
DA:303,0
DA:304,0
DA:331,38
DA:332,38
DA:333,38
DA:334,38
DA:335,38
DA:336,38
DA:337,38
DA:338,38
DA:353,38
DA:354,38
DA:355,38
DA:356,38
DA:357,38
DA:358,38
DA:359,38
DA:360,38
DA:361,38
DA:362,0
DA:363,0
DA:364,0
DA:366,38
DA:367,38
DA:368,38
DA:370,38
DA:371,38
DA:372,38
DA:373,38
DA:374,38
DA:375,38
DA:376,76
DA:377,38
DA:378,38
DA:379,38
DA:453,0
DA:454,0
DA:455,0
DA:456,0
DA:457,0
DA:458,0
DA:459,0
DA:460,0
DA:461,0
DA:463,0
DA:495,0
DA:496,0
DA:497,0
DA:498,0
DA:499,0
DA:500,0
DA:501,0
DA:522,0
DA:523,0
DA:524,0
DA:525,0
DA:526,0
DA:527,0
DA:528,0
DA:538,0
DA:539,0
DA:540,0
DA:541,0
DA:542,0
DA:543,0
DA:544,0
DA:546,0
DA:547,0
DA:548,0
DA:549,0
DA:550,0
DA:551,0
DA:552,0
DA:553,0
DA:554,0
DA:555,0
DA:556,0
DA:557,0
DA:558,0
DA:559,0
DA:560,0
DA:561,0
DA:562,0
DA:565,0
DA:566,0
DA:567,0
DA:568,0
DA:569,0
DA:570,0
DA:571,0
DA:572,0
DA:573,0
DA:574,0
DA:575,0
DA:581,0
DA:582,0
DA:583,0
DA:584,0
DA:585,0
DA:586,0
DA:587,0
DA:588,0
DA:589,0
DA:590,0
DA:591,0
DA:592,0
DA:593,0
DA:594,0
DA:595,0
DA:596,0
DA:597,0
DA:599,0
DA:600,0
DA:601,0
DA:602,0
DA:603,0
DA:604,0
DA:605,0
DA:606,0
DA:607,0
DA:611,0
DA:612,0
DA:613,0
DA:617,0
DA:618,0
DA:619,0
DA:623,0
DA:624,0
DA:625,0
DA:644,0
DA:645,0
DA:646,0
DA:647,0
DA:648,0
DA:649,0
DA:650,0
DA:651,0
DA:652,0
DA:653,0
DA:654,0
DA:655,0
BRF:0
BRH:0
LF:260
LH:64
end_of_record
SF:/home/ubuntu/Code/s9-verifier/crates/lb-security/src/watchdog.rs
FN:66,_RNvMNtCsgphuHPmxLkZ_11lb_security8watchdogNtB2_6ConnId3new
FN:265,_RNvMs0_NtCsgphuHPmxLkZ_11lb_security8watchdogNtB5_8Watchdog10deregister
FN:279,_RNvMs0_NtCsgphuHPmxLkZ_11lb_security8watchdogNtB5_8Watchdog13sweep_expired
FN:171,_RNvMs0_NtCsgphuHPmxLkZ_11lb_security8watchdogNtB5_8Watchdog3len
FN:154,_RNvMs0_NtCsgphuHPmxLkZ_11lb_security8watchdogNtB5_8Watchdog3new
FN:165,_RNvMs0_NtCsgphuHPmxLkZ_11lb_security8watchdogNtB5_8Watchdog6config
FN:177,_RNvMs0_NtCsgphuHPmxLkZ_11lb_security8watchdogNtB5_8Watchdog8is_empty
FN:212,_RNvMs0_NtCsgphuHPmxLkZ_11lb_security8watchdogNtB5_8Watchdog8progress
FN:187,_RNvMs0_NtCsgphuHPmxLkZ_11lb_security8watchdogNtB5_8Watchdog8register
FN:114,_RNvXs_NtCsgphuHPmxLkZ_11lb_security8watchdogNtB4_14WatchdogConfigNtNtCs2va5m0jqTTM_4core7default7Default7default
FN:282,_RNCNvMs0_NtCsgphuHPmxLkZ_11lb_security8watchdogNtB7_8Watchdog13sweep_expired0B9_
FNDA:0,_RNvMNtCsgphuHPmxLkZ_11lb_security8watchdogNtB2_6ConnId3new
FNDA:0,_RNvMs0_NtCsgphuHPmxLkZ_11lb_security8watchdogNtB5_8Watchdog10deregister
FNDA:0,_RNvMs0_NtCsgphuHPmxLkZ_11lb_security8watchdogNtB5_8Watchdog13sweep_expired
FNDA:0,_RNvMs0_NtCsgphuHPmxLkZ_11lb_security8watchdogNtB5_8Watchdog3len
FNDA:0,_RNvMs0_NtCsgphuHPmxLkZ_11lb_security8watchdogNtB5_8Watchdog3new
FNDA:0,_RNvMs0_NtCsgphuHPmxLkZ_11lb_security8watchdogNtB5_8Watchdog6config
FNDA:0,_RNvMs0_NtCsgphuHPmxLkZ_11lb_security8watchdogNtB5_8Watchdog8is_empty
FNDA:0,_RNvMs0_NtCsgphuHPmxLkZ_11lb_security8watchdogNtB5_8Watchdog8progress
FNDA:0,_RNvMs0_NtCsgphuHPmxLkZ_11lb_security8watchdogNtB5_8Watchdog8register
FNDA:0,_RNvXs_NtCsgphuHPmxLkZ_11lb_security8watchdogNtB4_14WatchdogConfigNtNtCs2va5m0jqTTM_4core7default7Default7default
FNDA:0,_RNCNvMs0_NtCsgphuHPmxLkZ_11lb_security8watchdogNtB7_8Watchdog13sweep_expired0B9_
FNF:11
FNH:0
DA:66,0
DA:67,0
DA:68,0
DA:114,0
DA:115,0
DA:116,0
DA:117,0
DA:118,0
DA:119,0
DA:120,0
DA:121,0
DA:122,0
DA:123,0
DA:124,0
DA:125,0
DA:154,0
DA:155,0
DA:156,0
DA:157,0
DA:158,0
DA:159,0
DA:160,0
DA:161,0
DA:165,0
DA:166,0
DA:167,0
DA:171,0
DA:172,0
DA:173,0
DA:177,0
DA:178,0
DA:179,0
DA:187,0
DA:188,0
DA:189,0
DA:190,0
DA:191,0
DA:192,0
DA:193,0
DA:194,0
DA:195,0
DA:196,0
DA:197,0
DA:198,0
DA:199,0
DA:200,0
DA:201,0
DA:212,0
DA:213,0
DA:214,0
DA:215,0
DA:216,0
DA:218,0
DA:219,0
DA:220,0
DA:223,0
DA:224,0
DA:225,0
DA:227,0
DA:228,0
DA:229,0
DA:230,0
DA:231,0
DA:232,0
DA:233,0
DA:234,0
DA:235,0
DA:236,0
DA:237,0
DA:238,0
DA:239,0
DA:240,0
DA:241,0
DA:242,0
DA:244,0
DA:245,0
DA:246,0
DA:247,0
DA:249,0
DA:250,0
DA:253,0
DA:256,0
DA:257,0
DA:258,0
DA:259,0
DA:260,0
DA:265,0
DA:266,0
DA:267,0
DA:279,0
DA:280,0
DA:281,0
DA:282,0
DA:283,0
DA:284,0
DA:285,0
DA:287,0
DA:289,0
DA:290,0
DA:291,0
BRF:0
BRH:0
LF:102
LH:0
end_of_record
SF:/home/ubuntu/Code/s9-verifier/crates/lb-security/src/zero_rtt.rs
FN:232,_RNvMNtCsgphuHPmxLkZ_11lb_security8zero_rttNtB2_18ZeroRttReplayGuard10alloc_node
FN:312,_RNvMNtCsgphuHPmxLkZ_11lb_security8zero_rttNtB2_18ZeroRttReplayGuard12move_to_back
FN:163,_RNvMNtCsgphuHPmxLkZ_11lb_security8zero_rttNtB2_18ZeroRttReplayGuard15new_with_secret
FN:346,_RNvMNtCsgphuHPmxLkZ_11lb_security8zero_rttNtB2_18ZeroRttReplayGuard16check_0rtt_token
FN:207,_RNvMNtCsgphuHPmxLkZ_11lb_security8zero_rttNtB2_18ZeroRttReplayGuard16check_and_record
FN:154,_RNvMNtCsgphuHPmxLkZ_11lb_security8zero_rttNtB2_18ZeroRttReplayGuard19with_default_window
FN:179,_RNvMNtCsgphuHPmxLkZ_11lb_security8zero_rttNtB2_18ZeroRttReplayGuard3len
FN:147,_RNvMNtCsgphuHPmxLkZ_11lb_security8zero_rttNtB2_18ZeroRttReplayGuard3new
FN:298,_RNvMNtCsgphuHPmxLkZ_11lb_security8zero_rttNtB2_18ZeroRttReplayGuard6unlink
FN:191,_RNvMNtCsgphuHPmxLkZ_11lb_security8zero_rttNtB2_18ZeroRttReplayGuard8capacity
FN:185,_RNvMNtCsgphuHPmxLkZ_11lb_security8zero_rttNtB2_18ZeroRttReplayGuard8is_empty
FN:322,_RNvMNtCsgphuHPmxLkZ_11lb_security8zero_rttNtB2_18ZeroRttReplayGuard9evict_lru
FN:272,_RNvMNtCsgphuHPmxLkZ_11lb_security8zero_rttNtB2_18ZeroRttReplayGuard9free_node
FN:281,_RNvMNtCsgphuHPmxLkZ_11lb_security8zero_rttNtB2_18ZeroRttReplayGuard9push_back
FN:51,_RNvNtCsgphuHPmxLkZ_11lb_security8zero_rtt10hash_token
FN:73,_RNvNtCsgphuHPmxLkZ_11lb_security8zero_rtt12fresh_secret
FN:299,_RNCNvMNtCsgphuHPmxLkZ_11lb_security8zero_rttNtB4_18ZeroRttReplayGuard6unlink0B6_
FN:327,_RNCNvMNtCsgphuHPmxLkZ_11lb_security8zero_rttNtB4_18ZeroRttReplayGuard9evict_lru0B6_
FN:79,_RNCNvNtCsgphuHPmxLkZ_11lb_security8zero_rtt12fresh_secret0B5_
FNDA:0,_RNvMNtCsgphuHPmxLkZ_11lb_security8zero_rttNtB2_18ZeroRttReplayGuard10alloc_node
FNDA:0,_RNvMNtCsgphuHPmxLkZ_11lb_security8zero_rttNtB2_18ZeroRttReplayGuard12move_to_back
FNDA:0,_RNvMNtCsgphuHPmxLkZ_11lb_security8zero_rttNtB2_18ZeroRttReplayGuard15new_with_secret
FNDA:0,_RNvMNtCsgphuHPmxLkZ_11lb_security8zero_rttNtB2_18ZeroRttReplayGuard16check_0rtt_token
FNDA:0,_RNvMNtCsgphuHPmxLkZ_11lb_security8zero_rttNtB2_18ZeroRttReplayGuard16check_and_record
FNDA:0,_RNvMNtCsgphuHPmxLkZ_11lb_security8zero_rttNtB2_18ZeroRttReplayGuard19with_default_window
FNDA:0,_RNvMNtCsgphuHPmxLkZ_11lb_security8zero_rttNtB2_18ZeroRttReplayGuard3len
FNDA:0,_RNvMNtCsgphuHPmxLkZ_11lb_security8zero_rttNtB2_18ZeroRttReplayGuard3new
FNDA:0,_RNvMNtCsgphuHPmxLkZ_11lb_security8zero_rttNtB2_18ZeroRttReplayGuard6unlink
FNDA:0,_RNvMNtCsgphuHPmxLkZ_11lb_security8zero_rttNtB2_18ZeroRttReplayGuard8capacity
FNDA:0,_RNvMNtCsgphuHPmxLkZ_11lb_security8zero_rttNtB2_18ZeroRttReplayGuard8is_empty
FNDA:0,_RNvMNtCsgphuHPmxLkZ_11lb_security8zero_rttNtB2_18ZeroRttReplayGuard9evict_lru
FNDA:0,_RNvMNtCsgphuHPmxLkZ_11lb_security8zero_rttNtB2_18ZeroRttReplayGuard9free_node
FNDA:0,_RNvMNtCsgphuHPmxLkZ_11lb_security8zero_rttNtB2_18ZeroRttReplayGuard9push_back
FNDA:0,_RNvNtCsgphuHPmxLkZ_11lb_security8zero_rtt10hash_token
FNDA:0,_RNvNtCsgphuHPmxLkZ_11lb_security8zero_rtt12fresh_secret
FNDA:0,_RNCNvMNtCsgphuHPmxLkZ_11lb_security8zero_rttNtB4_18ZeroRttReplayGuard6unlink0B6_
FNDA:0,_RNCNvMNtCsgphuHPmxLkZ_11lb_security8zero_rttNtB4_18ZeroRttReplayGuard9evict_lru0B6_
FNDA:0,_RNCNvNtCsgphuHPmxLkZ_11lb_security8zero_rtt12fresh_secret0B5_
FNF:19
FNH:0
DA:51,0
DA:52,0
DA:53,0
DA:54,0
DA:55,0
DA:56,0
DA:57,0
DA:58,0
DA:59,0
DA:60,0
DA:61,0
DA:62,0
DA:73,0
DA:74,0
DA:75,0
DA:76,0
DA:77,0
DA:78,0
DA:79,0
DA:80,0
DA:81,0
DA:82,0
DA:83,0
DA:84,0
DA:85,0
DA:86,0
DA:87,0
DA:88,0
DA:147,0
DA:148,0
DA:149,0
DA:154,0
DA:155,0
DA:156,0
DA:163,0
DA:164,0
DA:165,0
DA:166,0
DA:167,0
DA:168,0
DA:169,0
DA:170,0
DA:171,0
DA:172,0
DA:173,0
DA:174,0
DA:175,0
DA:179,0
DA:180,0
DA:181,0
DA:185,0
DA:186,0
DA:187,0
DA:191,0
DA:192,0
DA:193,0
DA:207,0
DA:208,0
DA:210,0
DA:213,0
DA:214,0
DA:215,0
DA:216,0
DA:217,0
DA:218,0
DA:219,0
DA:220,0
DA:223,0
DA:224,0
DA:225,0
DA:226,0
DA:227,0
DA:228,0
DA:232,0
DA:233,0
DA:234,0
DA:235,0
DA:236,0
DA:237,0
DA:238,0
DA:239,0
DA:240,0
DA:242,0
DA:243,0
DA:244,0
DA:245,0
DA:246,0
DA:247,0
DA:248,0
DA:249,0
DA:250,0
DA:251,0
DA:252,0
DA:253,0
DA:254,0
DA:255,0
DA:258,0
DA:259,0
DA:260,0
DA:261,0
DA:262,0
DA:263,0
DA:264,0
DA:265,0
DA:269,0
DA:272,0
DA:273,0
DA:274,0
DA:275,0
DA:276,0
DA:277,0
DA:278,0
DA:281,0
DA:282,0
DA:283,0
DA:284,0
DA:285,0
DA:286,0
DA:287,0
DA:288,0
DA:289,0
DA:290,0
DA:291,0
DA:292,0
DA:293,0
DA:298,0
DA:299,0
DA:300,0
DA:301,0
DA:302,0
DA:303,0
DA:304,0
DA:305,0
DA:306,0
DA:307,0
DA:308,0
DA:309,0
DA:310,0
DA:312,0
DA:313,0
DA:314,0
DA:315,0
DA:316,0
DA:317,0
DA:318,0
DA:322,0
DA:323,0
DA:324,0
DA:325,0
DA:326,0
DA:327,0
DA:328,0
DA:329,0
DA:330,0
DA:331,0
DA:332,0
DA:333,0
DA:346,0
DA:347,0
DA:348,0
BRF:0
BRH:0
LF:163
LH:0
end_of_record