SF:/home/ubuntu/Code/eg-verifier/crates/lb-quic/src/cleanup_guard.rs
FN:50,_RNvMNtCseagxtsvVhuF_7lb_quic13cleanup_guardINtB2_13CidEntryGuardINtNtCs8GO9KFlE3Dq_5alloc3vec3VechEINtNtNtNtCsfWKKmeeA0Vo_5tokio4sync4mpsc7bounded6SenderNtNtB4_10conn_actor13InboundPacketEE3newB4_
FN:68,_RNvXs_NtCseagxtsvVhuF_7lb_quic13cleanup_guardINtB4_13CidEntryGuardINtNtCs8GO9KFlE3Dq_5alloc3vec3VechEINtNtNtNtCsfWKKmeeA0Vo_5tokio4sync4mpsc7bounded6SenderNtNtB6_10conn_actor13InboundPacketEENtNtNtCs2va5m0jqTTM_4core3ops4drop4Drop4dropB6_
FN:59,_RNvMNtCseagxtsvVhuF_7lb_quic13cleanup_guardINtB2_13CidEntryGuardppE6disarmB4_
FN:59,_RNvMNtCs5tlsoORduBh_7lb_quic13cleanup_guardINtB2_13CidEntryGuardppE6disarmB4_
FN:50,_RNvMNtCs5tlsoORduBh_7lb_quic13cleanup_guardINtB2_13CidEntryGuardINtNtCs8GO9KFlE3Dq_5alloc3vec3VechEINtNtNtNtCsfWKKmeeA0Vo_5tokio4sync4mpsc7bounded6SenderNtNtB4_10conn_actor13InboundPacketEE3newB4_
FN:68,_RNvXs_NtCs5tlsoORduBh_7lb_quic13cleanup_guardINtB4_13CidEntryGuardINtNtCs8GO9KFlE3Dq_5alloc3vec3VechEINtNtNtNtCsfWKKmeeA0Vo_5tokio4sync4mpsc7bounded6SenderNtNtB6_10conn_actor13InboundPacketEENtNtNtCs2va5m0jqTTM_4core3ops4drop4Drop4dropB6_
FN:50,_RNvMNtCseagxtsvVhuF_7lb_quic13cleanup_guardINtB2_13CidEntryGuardINtNtCs8GO9KFlE3Dq_5alloc3vec3VechEuE3newCsa13CfGlGKVa_16quic_router_leak
FN:68,_RNvXs_NtCseagxtsvVhuF_7lb_quic13cleanup_guardINtB4_13CidEntryGuardINtNtCs8GO9KFlE3Dq_5alloc3vec3VechEuENtNtNtCs2va5m0jqTTM_4core3ops4drop4Drop4dropCsa13CfGlGKVa_16quic_router_leak
FNDA:40,_RNvMNtCseagxtsvVhuF_7lb_quic13cleanup_guardINtB2_13CidEntryGuardINtNtCs8GO9KFlE3Dq_5alloc3vec3VechEINtNtNtNtCsfWKKmeeA0Vo_5tokio4sync4mpsc7bounded6SenderNtNtB4_10conn_actor13InboundPacketEE3newB4_
FNDA:40,_RNvXs_NtCseagxtsvVhuF_7lb_quic13cleanup_guardINtB4_13CidEntryGuardINtNtCs8GO9KFlE3Dq_5alloc3vec3VechEINtNtNtNtCsfWKKmeeA0Vo_5tokio4sync4mpsc7bounded6SenderNtNtB6_10conn_actor13InboundPacketEENtNtNtCs2va5m0jqTTM_4core3ops4drop4Drop4dropB6_
FNDA:0,_RNvMNtCseagxtsvVhuF_7lb_quic13cleanup_guardINtB2_13CidEntryGuardppE6disarmB4_
FNDA:0,_RNvMNtCs5tlsoORduBh_7lb_quic13cleanup_guardINtB2_13CidEntryGuardppE6disarmB4_
FNDA:0,_RNvMNtCs5tlsoORduBh_7lb_quic13cleanup_guardINtB2_13CidEntryGuardINtNtCs8GO9KFlE3Dq_5alloc3vec3VechEINtNtNtNtCsfWKKmeeA0Vo_5tokio4sync4mpsc7bounded6SenderNtNtB4_10conn_actor13InboundPacketEE3newB4_
FNDA:0,_RNvXs_NtCs5tlsoORduBh_7lb_quic13cleanup_guardINtB4_13CidEntryGuardINtNtCs8GO9KFlE3Dq_5alloc3vec3VechEINtNtNtNtCsfWKKmeeA0Vo_5tokio4sync4mpsc7bounded6SenderNtNtB6_10conn_actor13InboundPacketEENtNtNtCs2va5m0jqTTM_4core3ops4drop4Drop4dropB6_
FNDA:3,_RNvMNtCseagxtsvVhuF_7lb_quic13cleanup_guardINtB2_13CidEntryGuardINtNtCs8GO9KFlE3Dq_5alloc3vec3VechEuE3newCsa13CfGlGKVa_16quic_router_leak
FNDA:3,_RNvXs_NtCseagxtsvVhuF_7lb_quic13cleanup_guardINtB4_13CidEntryGuardINtNtCs8GO9KFlE3Dq_5alloc3vec3VechEuENtNtNtCs2va5m0jqTTM_4core3ops4drop4Drop4dropCsa13CfGlGKVa_16quic_router_leak
FNF:3
FNH:2
DA:50,43
DA:51,43
DA:52,43
DA:53,43
DA:54,43
DA:55,43
DA:59,0
DA:60,0
DA:61,0
DA:68,43
DA:69,129
DA:70,86
DA:71,86
DA:72,86
DA:73,86
DA:74,86
DA:75,86
DA:77,43
BRF:0
BRH:0
LF:18
LH:15
end_of_record
SF:/home/ubuntu/Code/eg-verifier/crates/lb-quic/src/conn_actor.rs
FN:490,_RNvMNtCseagxtsvVhuF_7lb_quic10conn_actorNtB2_8StreamTx11progressive
FN:481,_RNvMNtCseagxtsvVhuF_7lb_quic10conn_actorNtB2_8StreamTx3new
FN:1122,_RNvNtCseagxtsvVhuF_7lb_quic10conn_actor13flush_pending
FN:1165,_RNvNtCseagxtsvVhuF_7lb_quic10conn_actor14select_backend
FN:679,_RNvNtCseagxtsvVhuF_7lb_quic10conn_actor15drain_conn_send
FN:940,_RNvNtCseagxtsvVhuF_7lb_quic10conn_actor17drain_body_stream
FN:1029,_RNvNtCseagxtsvVhuF_7lb_quic10conn_actor19decode_into_pending
FN:364,_RNvNtCseagxtsvVhuF_7lb_quic10conn_actor19drain_resp_channels
FN:643,_RNvNtCseagxtsvVhuF_7lb_quic10conn_actor20graceful_h3_shutdown
FN:503,_RNvNtCseagxtsvVhuF_7lb_quic10conn_actor21drain_streams_to_conn
FN:1090,_RNvNtCseagxtsvVhuF_7lb_quic10conn_actor26record_retained_for_stream
FN:317,_RNvNtCseagxtsvVhuF_7lb_quic10conn_actor31reap_client_cancelled_responses
FN:702,_RNvNtCseagxtsvVhuF_7lb_quic10conn_actor7poll_h3
FN:138,_RNvNtCseagxtsvVhuF_7lb_quic10conn_actor9run_actor
FN:1101,_RNCNCNvNtCseagxtsvVhuF_7lb_quic10conn_actor26record_retained_for_stream00B7_
FN:209,_RNCNCNvNtCseagxtsvVhuF_7lb_quic10conn_actor9run_actor00B7_
FN:299,_RNCNCNvNtCseagxtsvVhuF_7lb_quic10conn_actor9run_actor0s_0B7_
FN:679,_RNCNvNtCseagxtsvVhuF_7lb_quic10conn_actor15drain_conn_send0B5_
FN:647,_RNCNvNtCseagxtsvVhuF_7lb_quic10conn_actor20graceful_h3_shutdown0B5_
FN:614,_RNCNvNtCseagxtsvVhuF_7lb_quic10conn_actor21drain_streams_to_conn0B5_
FN:1099,_RNCNvNtCseagxtsvVhuF_7lb_quic10conn_actor26record_retained_for_stream0B5_
FN:1112,_RNCNvNtCseagxtsvVhuF_7lb_quic10conn_actor26record_retained_for_streams_0B5_
FN:788,_RNCNvNtCseagxtsvVhuF_7lb_quic10conn_actor7poll_h30B5_
FN:808,_RNCNvNtCseagxtsvVhuF_7lb_quic10conn_actor7poll_h3s0_0B5_
FN:845,_RNCNvNtCseagxtsvVhuF_7lb_quic10conn_actor7poll_h3s1_0B5_
FN:797,_RNCNvNtCseagxtsvVhuF_7lb_quic10conn_actor7poll_h3s_0B5_
FN:138,_RNCNvNtCseagxtsvVhuF_7lb_quic10conn_actor9run_actor0B5_
FN:1101,_RNCNCNvNtCs5tlsoORduBh_7lb_quic10conn_actor26record_retained_for_stream00B7_
FN:209,_RNCNCNvNtCs5tlsoORduBh_7lb_quic10conn_actor9run_actor00B7_
FN:299,_RNCNCNvNtCs5tlsoORduBh_7lb_quic10conn_actor9run_actor0s_0B7_
FN:679,_RNCNvNtCs5tlsoORduBh_7lb_quic10conn_actor15drain_conn_send0B5_
FN:647,_RNCNvNtCs5tlsoORduBh_7lb_quic10conn_actor20graceful_h3_shutdown0B5_
FN:614,_RNCNvNtCs5tlsoORduBh_7lb_quic10conn_actor21drain_streams_to_conn0B5_
FN:1099,_RNCNvNtCs5tlsoORduBh_7lb_quic10conn_actor26record_retained_for_stream0B5_
FN:1112,_RNCNvNtCs5tlsoORduBh_7lb_quic10conn_actor26record_retained_for_streams_0B5_
FN:788,_RNCNvNtCs5tlsoORduBh_7lb_quic10conn_actor7poll_h30B5_
FN:808,_RNCNvNtCs5tlsoORduBh_7lb_quic10conn_actor7poll_h3s0_0B5_
FN:845,_RNCNvNtCs5tlsoORduBh_7lb_quic10conn_actor7poll_h3s1_0B5_
FN:797,_RNCNvNtCs5tlsoORduBh_7lb_quic10conn_actor7poll_h3s_0B5_
FN:138,_RNCNvNtCs5tlsoORduBh_7lb_quic10conn_actor9run_actor0B5_
FN:490,_RNvMNtCs5tlsoORduBh_7lb_quic10conn_actorNtB2_8StreamTx11progressive
FN:481,_RNvMNtCs5tlsoORduBh_7lb_quic10conn_actorNtB2_8StreamTx3new
FN:1122,_RNvNtCs5tlsoORduBh_7lb_quic10conn_actor13flush_pending
FN:1165,_RNvNtCs5tlsoORduBh_7lb_quic10conn_actor14select_backend
FN:679,_RNvNtCs5tlsoORduBh_7lb_quic10conn_actor15drain_conn_send
FN:940,_RNvNtCs5tlsoORduBh_7lb_quic10conn_actor17drain_body_stream
FN:1029,_RNvNtCs5tlsoORduBh_7lb_quic10conn_actor19decode_into_pending
FN:364,_RNvNtCs5tlsoORduBh_7lb_quic10conn_actor19drain_resp_channels
FN:643,_RNvNtCs5tlsoORduBh_7lb_quic10conn_actor20graceful_h3_shutdown
FN:503,_RNvNtCs5tlsoORduBh_7lb_quic10conn_actor21drain_streams_to_conn
FN:1090,_RNvNtCs5tlsoORduBh_7lb_quic10conn_actor26record_retained_for_stream
FN:317,_RNvNtCs5tlsoORduBh_7lb_quic10conn_actor31reap_client_cancelled_responses
FN:702,_RNvNtCs5tlsoORduBh_7lb_quic10conn_actor7poll_h3
FN:138,_RNvNtCs5tlsoORduBh_7lb_quic10conn_actor9run_actor
FNDA:1039,_RNvMNtCseagxtsvVhuF_7lb_quic10conn_actorNtB2_8StreamTx11progressive
FNDA:2,_RNvMNtCseagxtsvVhuF_7lb_quic10conn_actorNtB2_8StreamTx3new
FNDA:9361,_RNvNtCseagxtsvVhuF_7lb_quic10conn_actor13flush_pending
FNDA:35,_RNvNtCseagxtsvVhuF_7lb_quic10conn_actor14select_backend
FNDA:87062,_RNvNtCseagxtsvVhuF_7lb_quic10conn_actor15drain_conn_send
FNDA:3684,_RNvNtCseagxtsvVhuF_7lb_quic10conn_actor17drain_body_stream
FNDA:669,_RNvNtCseagxtsvVhuF_7lb_quic10conn_actor19decode_into_pending
FNDA:86956,_RNvNtCseagxtsvVhuF_7lb_quic10conn_actor19drain_resp_channels
FNDA:44,_RNvNtCseagxtsvVhuF_7lb_quic10conn_actor20graceful_h3_shutdown
FNDA:86999,_RNvNtCseagxtsvVhuF_7lb_quic10conn_actor21drain_streams_to_conn
FNDA:669,_RNvNtCseagxtsvVhuF_7lb_quic10conn_actor26record_retained_for_stream
FNDA:86956,_RNvNtCseagxtsvVhuF_7lb_quic10conn_actor31reap_client_cancelled_responses
FNDA:86916,_RNvNtCseagxtsvVhuF_7lb_quic10conn_actor7poll_h3
FNDA:43,_RNvNtCseagxtsvVhuF_7lb_quic10conn_actor9run_actor
FNDA:679,_RNCNCNvNtCseagxtsvVhuF_7lb_quic10conn_actor26record_retained_for_stream00B7_
FNDA:7374,_RNCNCNvNtCseagxtsvVhuF_7lb_quic10conn_actor9run_actor00B7_
FNDA:85313,_RNCNCNvNtCseagxtsvVhuF_7lb_quic10conn_actor9run_actor0s_0B7_
FNDA:87062,_RNCNvNtCseagxtsvVhuF_7lb_quic10conn_actor15drain_conn_send0B5_
FNDA:44,_RNCNvNtCseagxtsvVhuF_7lb_quic10conn_actor20graceful_h3_shutdown0B5_
FNDA:86854,_RNCNvNtCseagxtsvVhuF_7lb_quic10conn_actor21drain_streams_to_conn0B5_
FNDA:669,_RNCNvNtCseagxtsvVhuF_7lb_quic10conn_actor26record_retained_for_stream0B5_
FNDA:669,_RNCNvNtCseagxtsvVhuF_7lb_quic10conn_actor26record_retained_for_streams_0B5_
FNDA:2,_RNCNvNtCseagxtsvVhuF_7lb_quic10conn_actor7poll_h30B5_
FNDA:0,_RNCNvNtCseagxtsvVhuF_7lb_quic10conn_actor7poll_h3s0_0B5_
FNDA:35,_RNCNvNtCseagxtsvVhuF_7lb_quic10conn_actor7poll_h3s1_0B5_
FNDA:0,_RNCNvNtCseagxtsvVhuF_7lb_quic10conn_actor7poll_h3s_0B5_
FNDA:43,_RNCNvNtCseagxtsvVhuF_7lb_quic10conn_actor9run_actor0B5_
FNDA:0,_RNCNCNvNtCs5tlsoORduBh_7lb_quic10conn_actor26record_retained_for_stream00B7_
FNDA:0,_RNCNCNvNtCs5tlsoORduBh_7lb_quic10conn_actor9run_actor00B7_
FNDA:0,_RNCNCNvNtCs5tlsoORduBh_7lb_quic10conn_actor9run_actor0s_0B7_
FNDA:0,_RNCNvNtCs5tlsoORduBh_7lb_quic10conn_actor15drain_conn_send0B5_
FNDA:0,_RNCNvNtCs5tlsoORduBh_7lb_quic10conn_actor20graceful_h3_shutdown0B5_
FNDA:0,_RNCNvNtCs5tlsoORduBh_7lb_quic10conn_actor21drain_streams_to_conn0B5_
FNDA:0,_RNCNvNtCs5tlsoORduBh_7lb_quic10conn_actor26record_retained_for_stream0B5_
FNDA:0,_RNCNvNtCs5tlsoORduBh_7lb_quic10conn_actor26record_retained_for_streams_0B5_
FNDA:0,_RNCNvNtCs5tlsoORduBh_7lb_quic10conn_actor7poll_h30B5_
FNDA:0,_RNCNvNtCs5tlsoORduBh_7lb_quic10conn_actor7poll_h3s0_0B5_
FNDA:0,_RNCNvNtCs5tlsoORduBh_7lb_quic10conn_actor7poll_h3s1_0B5_
FNDA:0,_RNCNvNtCs5tlsoORduBh_7lb_quic10conn_actor7poll_h3s_0B5_
FNDA:0,_RNCNvNtCs5tlsoORduBh_7lb_quic10conn_actor9run_actor0B5_
FNDA:0,_RNvMNtCs5tlsoORduBh_7lb_quic10conn_actorNtB2_8StreamTx11progressive
FNDA:0,_RNvMNtCs5tlsoORduBh_7lb_quic10conn_actorNtB2_8StreamTx3new
FNDA:0,_RNvNtCs5tlsoORduBh_7lb_quic10conn_actor13flush_pending
FNDA:0,_RNvNtCs5tlsoORduBh_7lb_quic10conn_actor14select_backend
FNDA:0,_RNvNtCs5tlsoORduBh_7lb_quic10conn_actor15drain_conn_send
FNDA:0,_RNvNtCs5tlsoORduBh_7lb_quic10conn_actor17drain_body_stream
FNDA:0,_RNvNtCs5tlsoORduBh_7lb_quic10conn_actor19decode_into_pending
FNDA:0,_RNvNtCs5tlsoORduBh_7lb_quic10conn_actor19drain_resp_channels
FNDA:0,_RNvNtCs5tlsoORduBh_7lb_quic10conn_actor20graceful_h3_shutdown
FNDA:0,_RNvNtCs5tlsoORduBh_7lb_quic10conn_actor21drain_streams_to_conn
FNDA:0,_RNvNtCs5tlsoORduBh_7lb_quic10conn_actor26record_retained_for_stream
FNDA:0,_RNvNtCs5tlsoORduBh_7lb_quic10conn_actor31reap_client_cancelled_responses
FNDA:0,_RNvNtCs5tlsoORduBh_7lb_quic10conn_actor7poll_h3
FNDA:0,_RNvNtCs5tlsoORduBh_7lb_quic10conn_actor9run_actor
FNF:27
FNH:25
DA:138,43
DA:139,43
DA:140,43
DA:141,43
DA:142,43
DA:143,43
DA:144,43
DA:145,43
DA:146,43
DA:147,43
DA:148,43
DA:149,43
DA:150,43
DA:151,43
DA:152,43
DA:153,43
DA:154,43
DA:155,43
DA:156,43
DA:157,43
DA:158,43
DA:159,43
DA:160,43
DA:161,43
DA:162,43
DA:163,43
DA:164,43
DA:165,43
DA:166,43
DA:167,43
DA:168,43
DA:169,43
DA:170,43
DA:175,86999
DA:176,86999
DA:178,86999
DA:179,0
DA:180,86999
DA:181,86999
DA:182,86999
DA:183,86999
DA:184,86999
DA:185,86999
DA:186,86999
DA:187,86999
DA:188,86999
DA:189,86999
DA:190,86999
DA:191,86999
DA:192,86999
DA:193,86999
DA:194,86999
DA:195,86999
DA:196,86999
DA:197,86999
DA:198,86999
DA:199,86999
DA:200,82394
DA:201,82394
DA:202,86852
DA:203,86852
DA:204,86852
DA:209,86999
DA:210,7374
DA:211,7370
DA:216,4
DA:217,2
DA:218,2
DA:219,2
DA:221,2
DA:222,2
DA:223,2
DA:224,0
DA:225,0
DA:226,0
DA:229,0
DA:232,2
DA:234,86999
DA:236,86999
DA:237,43
DA:238,18
DA:240,86999
DA:241,82751
DA:242,82751
DA:243,82751
DA:244,82750
DA:245,1
DA:246,1
DA:250,86999
DA:251,2
DA:252,2
DA:253,2
DA:255,86999
DA:256,4203
DA:257,4203
DA:261,86956
DA:262,86916
DA:263,86916
DA:264,86916
DA:265,86916
DA:266,86916
DA:267,86916
DA:268,86916
DA:269,86916
DA:270,86916
DA:271,86916
DA:272,86916
DA:273,86916
DA:274,86916
DA:275,86916
DA:276,86916
DA:282,86956
DA:283,86956
DA:284,86956
DA:285,86956
DA:286,86956
DA:287,86956
DA:288,86956
DA:289,86956
DA:290,86956
DA:291,86956
DA:292,86956
DA:293,86956
DA:294,86956
DA:295,86956
DA:296,86956
DA:297,86956
DA:298,86956
DA:299,86956
DA:301,18
DA:302,18
DA:317,86956
DA:318,86956
DA:319,86956
DA:320,86956
DA:321,86956
DA:322,86956
DA:323,86956
DA:324,86854
DA:325,2
DA:326,2
DA:329,0
DA:330,0
DA:332,2
DA:334,86852
DA:337,86958
DA:338,2
DA:339,2
DA:340,2
DA:341,2
DA:342,2
DA:343,2
DA:344,86956
DA:364,86956
DA:365,86956
DA:366,86956
DA:367,86956
DA:368,86956
DA:369,173808
DA:373,86852
DA:374,86852
DA:375,86852
DA:377,86852
DA:378,86852
DA:379,86852
DA:380,86852
DA:381,86852
DA:383,0
DA:385,86852
DA:389,0
DA:390,86852
DA:391,86852
DA:392,86852
DA:393,15722
DA:394,71130
DA:395,71130
DA:396,0
DA:403,71130
DA:404,18127
DA:405,12
DA:406,12
DA:407,51975
DA:408,1004
DA:409,1004
DA:410,1004
DA:411,1004
DA:412,1004
DA:413,1004
DA:427,86956
DA:428,86956
DA:429,86854
DA:430,86852
DA:431,86852
DA:433,86956
DA:434,86852
DA:435,86852
DA:436,86852
DA:437,86852
DA:438,86852
DA:439,86956
DA:440,86956
DA:441,86956
DA:481,2
DA:482,2
DA:483,2
DA:484,2
DA:485,2
DA:486,2
DA:487,2
DA:490,1039
DA:491,1039
DA:492,1039
DA:493,1039
DA:494,1039
DA:495,1039
DA:496,1039
DA:497,1039
DA:503,86999
DA:504,86999
DA:505,86999
DA:506,86854
DA:510,2
DA:511,2
DA:512,2
DA:513,2
DA:514,2
DA:515,0
DA:516,2
DA:518,4
DA:519,4
DA:522,2
DA:523,2
DA:524,2
DA:525,2
DA:526,0
DA:527,0
DA:528,0
DA:531,2
DA:532,2
DA:533,2
DA:534,2
DA:535,0
DA:536,2
DA:537,2
DA:538,2
DA:539,0
DA:540,0
DA:541,0
DA:548,86852
DA:549,86852
DA:550,86852
DA:551,86852
DA:552,86852
DA:553,86852
DA:554,0
DA:555,86852
DA:559,104976
DA:560,33849
DA:561,14898
DA:562,18951
DA:563,18124
DA:564,18124
DA:565,827
DA:566,827
DA:567,827
DA:568,827
DA:569,827
DA:571,0
DA:572,0
DA:573,0
DA:577,86852
DA:581,1016
DA:582,1016
DA:583,0
DA:584,0
DA:587,1016
DA:588,1016
DA:589,85836
DA:592,12
DA:593,12
DA:594,0
DA:595,0
DA:598,12
DA:599,12
DA:600,85824
DA:604,88029
DA:607,1030
DA:608,1030
DA:609,2
DA:610,1028
DA:612,0
DA:614,86999
DA:615,2
DA:616,86852
DA:617,86999
DA:618,86999
DA:643,44
DA:644,44
DA:645,44
DA:646,44
DA:647,44
DA:648,44
DA:649,44
DA:650,0
DA:651,0
DA:654,44
DA:656,63
DA:657,63
DA:658,18
DA:659,45
DA:660,45
DA:661,1
DA:662,0
DA:664,1
DA:665,44
DA:666,44
DA:667,44
DA:668,44
DA:669,44
DA:670,44
DA:671,44
DA:672,44
DA:673,19
DA:675,19
DA:679,87062
DA:681,221645
DA:682,134583
DA:683,134583
DA:684,134583
DA:685,0
DA:686,0
DA:687,134583
DA:689,87062
DA:690,0
DA:691,0
DA:692,0
DA:696,87062
DA:702,86916
DA:703,86916
DA:704,86916
DA:705,86916
DA:706,86916
DA:707,86916
DA:708,86916
DA:709,86916
DA:710,86916
DA:711,86916
DA:712,86916
DA:713,86916
DA:714,86916
DA:715,86916
DA:716,86916
DA:717,86916
DA:718,86916
DA:719,86916
DA:720,86916
DA:721,86916
DA:722,86916
DA:723,86916
DA:724,86916
DA:725,86916
DA:726,86916
DA:727,86916
DA:728,86916
DA:729,86916
DA:730,86916
DA:731,86916
DA:732,86916
DA:733,91521
DA:734,4605
DA:735,4605
DA:737,86916
DA:738,90669
DA:747,3753
DA:748,3684
DA:749,3684
DA:750,69
DA:751,69
DA:753,105
DA:754,71
DA:755,71
DA:756,71
DA:757,37
DA:758,37
DA:759,37
DA:760,37
DA:761,37
DA:762,37
DA:763,37
DA:764,37
DA:765,37
DA:766,37
DA:767,37
DA:768,37
DA:769,37
DA:770,37
DA:771,37
DA:772,37
DA:773,37
DA:774,37
DA:775,37
DA:776,37
DA:777,37
DA:778,37
DA:779,2
DA:783,0
DA:784,0
DA:786,2
DA:787,2
DA:788,2
DA:789,2
DA:790,35
DA:791,0
DA:794,35
DA:795,0
DA:796,0
DA:797,0
DA:798,0
DA:799,0
DA:800,0
DA:801,0
DA:802,0
DA:803,35
DA:804,35
DA:805,0
DA:806,0
DA:807,0
DA:808,0
DA:809,0
DA:810,0
DA:811,0
DA:812,0
DA:813,0
DA:814,0
DA:815,35
DA:816,35
DA:817,0
DA:818,0
DA:839,35
DA:840,35
DA:841,35
DA:842,35
DA:843,35
DA:844,35
DA:845,35
DA:846,35
DA:847,35
DA:848,35
DA:849,35
DA:850,35
DA:851,35
DA:852,35
DA:853,35
DA:854,35
DA:856,14
DA:859,0
DA:861,21
DA:862,35
DA:863,35
DA:864,28
DA:865,28
DA:866,28
DA:867,28
DA:868,28
DA:869,28
DA:870,28
DA:871,28
DA:872,7
DA:873,7
DA:874,7
DA:875,7
DA:876,7
DA:877,7
DA:878,7
DA:879,7
DA:880,7
DA:881,7
DA:882,7
DA:883,7
DA:884,7
DA:885,7
DA:886,7
DA:887,7
DA:890,35
DA:893,34
DA:897,0
DA:898,0
DA:899,34
DA:901,0
DA:902,0
DA:906,34
DA:913,0
DA:914,0
DA:917,0
DA:918,0
DA:920,0
DA:921,0
DA:923,0
DA:924,0
DA:925,0
DA:926,0
DA:931,86916
DA:940,3684
DA:941,3684
DA:942,3684
DA:943,3684
DA:944,3684
DA:945,3684
DA:946,3684
DA:947,3684
DA:950,4346
DA:951,4346
DA:953,5
DA:954,4341
DA:955,4341
DA:956,4341
DA:957,4341
DA:958,4341
DA:959,3275
DA:960,1066
DA:961,1066
DA:962,662
DA:963,662
DA:964,662
DA:965,662
DA:966,662
DA:967,662
DA:968,662
DA:969,662
DA:970,662
DA:971,662
DA:972,0
DA:973,0
DA:974,662
DA:977,403
DA:978,403
DA:996,1
DA:997,1
DA:1000,0
DA:1001,0
DA:1003,1
DA:1004,1
DA:1005,1
DA:1006,1
DA:1007,1
DA:1008,1
DA:1010,0
DA:1011,0
DA:1012,0
DA:1013,0
DA:1014,0
DA:1015,0
DA:1016,0
DA:1017,0
DA:1021,3684
DA:1029,669
DA:1030,669
DA:1031,669
DA:1032,669
DA:1033,669
DA:1034,669
DA:1035,669
DA:1036,669
DA:1037,669
DA:1038,0
DA:1040,669
DA:1041,669
DA:1042,0
DA:1043,0
DA:1044,0
DA:1045,0
DA:1046,0
DA:1047,0
DA:1048,0
DA:1049,0
DA:1052,669
DA:1053,669
DA:1054,1344
DA:1055,675
DA:1056,674
DA:1057,1
DA:1061,0
DA:1062,0
DA:1063,0
DA:1064,0
DA:1065,0
DA:1066,0
DA:1070,669
DA:1071,5
DA:1072,5
DA:1073,5
DA:1074,5
DA:1075,5
DA:1076,664
DA:1084,669
DA:1085,669
DA:1090,669
DA:1091,669
DA:1092,669
DA:1093,669
DA:1094,669
DA:1095,669
DA:1096,669
DA:1097,669
DA:1098,669
DA:1099,669
DA:1100,669
DA:1101,679
DA:1102,674
DA:1103,5
DA:1104,679
DA:1105,669
DA:1106,669
DA:1107,669
DA:1108,669
DA:1109,669
DA:1110,669
DA:1111,669
DA:1112,669
DA:1113,669
DA:1114,669
DA:1115,669
DA:1122,9361
DA:1123,9361
DA:1124,9361
DA:1125,9361
DA:1126,9361
DA:1127,9361
DA:1128,0
DA:1129,0
DA:1131,9361
DA:1132,0
DA:1134,9361
DA:1135,10034
DA:1136,7160
DA:1137,678
DA:1140,678
DA:1141,678
DA:1142,678
DA:1143,678
DA:1144,5
DA:1145,5
DA:1146,673
DA:1148,6481
DA:1151,1
DA:1152,1
DA:1156,9361
DA:1157,6
DA:1158,6
DA:1159,9355
DA:1160,9361
DA:1165,35
DA:1166,35
DA:1167,35
BRF:0
BRH:0
LF:673
LH:566
end_of_record
SF:/home/ubuntu/Code/eg-verifier/crates/lb-quic/src/h3_bridge.rs
FN:1245,_RNCNCNCNvNtCseagxtsvVhuF_7lb_quic9h3_bridge18stream_h1_response0s_00B9_
FN:1607,_RNCNCNvNtCseagxtsvVhuF_7lb_quic9h3_bridge16write_body_chunk00B7_
FN:1609,_RNCNCNvNtCseagxtsvVhuF_7lb_quic9h3_bridge16write_body_chunk0s0_0B7_
FN:1611,_RNCNCNvNtCseagxtsvVhuF_7lb_quic9h3_bridge16write_body_chunk0s1_0B7_
FN:1608,_RNCNCNvNtCseagxtsvVhuF_7lb_quic9h3_bridge16write_body_chunk0s_0B7_
FN:1690,_RNCNCNvNtCseagxtsvVhuF_7lb_quic9h3_bridge16write_h1_request00B7_
FN:2253,_RNCNCNvNtCseagxtsvVhuF_7lb_quic9h3_bridge18h3_to_h2_roundtrip00B7_
FN:2321,_RNCNCNvNtCseagxtsvVhuF_7lb_quic9h3_bridge18h3_to_h3_roundtrip00B7_
FN:2476,_RNCNCNvNtCseagxtsvVhuF_7lb_quic9h3_bridge18h3_to_h3_roundtrip0s_0B7_
FN:1230,_RNCNCNvNtCseagxtsvVhuF_7lb_quic9h3_bridge18stream_h1_response00B7_
FN:1195,_RNCNCNvNtCseagxtsvVhuF_7lb_quic9h3_bridge18stream_h1_response0s0_0B7_
FN:1195,_RNCNCNvNtCseagxtsvVhuF_7lb_quic9h3_bridge18stream_h1_response0s1_0B7_
FN:1195,_RNCNCNvNtCseagxtsvVhuF_7lb_quic9h3_bridge18stream_h1_response0s2_0B7_
FN:1195,_RNCNCNvNtCseagxtsvVhuF_7lb_quic9h3_bridge18stream_h1_response0s3_0B7_
FN:1195,_RNCNCNvNtCseagxtsvVhuF_7lb_quic9h3_bridge18stream_h1_response0s4_0B7_
FN:1195,_RNCNCNvNtCseagxtsvVhuF_7lb_quic9h3_bridge18stream_h1_response0s5_0B7_
FN:1195,_RNCNCNvNtCseagxtsvVhuF_7lb_quic9h3_bridge18stream_h1_response0s6_0B7_
FN:1195,_RNCNCNvNtCseagxtsvVhuF_7lb_quic9h3_bridge18stream_h1_response0s7_0B7_
FN:1195,_RNCNCNvNtCseagxtsvVhuF_7lb_quic9h3_bridge18stream_h1_response0s8_0B7_
FN:1245,_RNCNCNvNtCseagxtsvVhuF_7lb_quic9h3_bridge18stream_h1_response0s_0B7_
FN:671,_RNCNvMs1_NtCseagxtsvVhuF_7lb_quic9h3_bridgeNtB7_9H3Request12from_headers0B9_
FN:672,_RNCNvMs1_NtCseagxtsvVhuF_7lb_quic9h3_bridgeNtB7_9H3Request12from_headerss_0B9_
FN:1116,_RNCNvMs2_NtCseagxtsvVhuF_7lb_quic9h3_bridgeNtB7_12ChunkDecoder21parse_trailer_section0B9_
FN:1131,_RNCNvMs2_NtCseagxtsvVhuF_7lb_quic9h3_bridgeNtB7_12ChunkDecoder21parse_trailer_sections_0B9_
FN:1049,_RNCNvMs2_NtCseagxtsvVhuF_7lb_quic9h3_bridgeNtB7_12ChunkDecoder4feed0B9_
FN:1065,_RNCNvMs2_NtCseagxtsvVhuF_7lb_quic9h3_bridgeNtB7_12ChunkDecoder4feeds0_0B9_
FN:1071,_RNCNvMs2_NtCseagxtsvVhuF_7lb_quic9h3_bridgeNtB7_12ChunkDecoder4feeds1_0B9_
FN:1063,_RNCNvMs2_NtCseagxtsvVhuF_7lb_quic9h3_bridgeNtB7_12ChunkDecoder4feeds_0B9_
FN:289,_RNCNvMs_NtCseagxtsvVhuF_7lb_quic9h3_bridgeNtB6_11StreamRxBuf4feed0B8_
FN:382,_RNCNvMs_NtCseagxtsvVhuF_7lb_quic9h3_bridgeNtB6_11StreamRxBuf9feed_body0B8_
FN:465,_RNCNvMs_NtCseagxtsvVhuF_7lb_quic9h3_bridgeNtB6_11StreamRxBuf9feed_bodys0_0B8_
FN:455,_RNCNvMs_NtCseagxtsvVhuF_7lb_quic9h3_bridgeNtB6_11StreamRxBuf9feed_bodys_0B8_
FN:1926,_RNCNvNCNvNtCseagxtsvVhuF_7lb_quic9h3_bridge20h3_to_h1_stream_resp06inline0B9_
FN:813,_RNCNvNtCseagxtsvVhuF_7lb_quic9h3_bridge15find_header_sep0B5_
FN:1601,_RNCNvNtCseagxtsvVhuF_7lb_quic9h3_bridge16write_body_chunk0B5_
FN:1676,_RNCNvNtCseagxtsvVhuF_7lb_quic9h3_bridge16write_h1_request0B5_
FN:821,_RNCNvNtCseagxtsvVhuF_7lb_quic9h3_bridge17parse_status_line0B5_
FN:2252,_RNCNvNtCseagxtsvVhuF_7lb_quic9h3_bridge18h3_to_h2_roundtrip0B5_
FN:2316,_RNCNvNtCseagxtsvVhuF_7lb_quic9h3_bridge18h3_to_h3_roundtrip0B5_
FN:1190,_RNCNvNtCseagxtsvVhuF_7lb_quic9h3_bridge18stream_h1_response0B5_
FN:893,_RNCNvNtCseagxtsvVhuF_7lb_quic9h3_bridge20encode_h3_data_frame0B5_
FN:1922,_RNCNvNtCseagxtsvVhuF_7lb_quic9h3_bridge20h3_to_h1_stream_resp0B5_
FN:877,_RNCNvNtCseagxtsvVhuF_7lb_quic9h3_bridge23encode_h3_headers_frame0B5_
FN:878,_RNCNvNtCseagxtsvVhuF_7lb_quic9h3_bridge23encode_h3_headers_frames_0B5_
FN:915,_RNCNvNtCseagxtsvVhuF_7lb_quic9h3_bridge24encode_h3_trailers_frame0B5_
FN:916,_RNCNvNtCseagxtsvVhuF_7lb_quic9h3_bridge24encode_h3_trailers_frames_0B5_
FN:654,_RNvMs1_NtCseagxtsvVhuF_7lb_quic9h3_bridgeNtB5_9H3Request12from_headers
FN:997,_RNvMs2_NtCseagxtsvVhuF_7lb_quic9h3_bridgeNtB5_12ChunkDecoder13take_trailers
FN:1107,_RNvMs2_NtCseagxtsvVhuF_7lb_quic9h3_bridgeNtB5_12ChunkDecoder21parse_trailer_section
FN:983,_RNvMs2_NtCseagxtsvVhuF_7lb_quic9h3_bridgeNtB5_12ChunkDecoder3new
FN:1005,_RNvMs2_NtCseagxtsvVhuF_7lb_quic9h3_bridgeNtB5_12ChunkDecoder4feed
FN:518,_RNvMs_NtCseagxtsvVhuF_7lb_quic9h3_bridgeNtB4_11StreamRxBuf12is_too_large
FN:531,_RNvMs_NtCseagxtsvVhuF_7lb_quic9h3_bridgeNtB4_11StreamRxBuf14retained_bytes
FN:500,_RNvMs_NtCseagxtsvVhuF_7lb_quic9h3_bridgeNtB4_11StreamRxBuf22try_parse_frame_header
FN:273,_RNvMs_NtCseagxtsvVhuF_7lb_quic9h3_bridgeNtB4_11StreamRxBuf4feed
FN:324,_RNvMs_NtCseagxtsvVhuF_7lb_quic9h3_bridgeNtB4_11StreamRxBuf9feed_body
FN:1926,_RNvNCNvNtCseagxtsvVhuF_7lb_quic9h3_bridge20h3_to_h1_stream_resp06inline
FN:1532,_RNvNtCseagxtsvVhuF_7lb_quic9h3_bridge13build_h1_head
FN:812,_RNvNtCseagxtsvVhuF_7lb_quic9h3_bridge15find_header_sep
FN:1834,_RNvNtCseagxtsvVhuF_7lb_quic9h3_bridge15h3_to_h1_stream
FN:1577,_RNvNtCseagxtsvVhuF_7lb_quic9h3_bridge15record_inflight
FN:558,_RNvNtCseagxtsvVhuF_7lb_quic9h3_bridge15record_retained
FN:701,_RNvNtCseagxtsvVhuF_7lb_quic9h3_bridge16build_h1_request
FN:748,_RNvNtCseagxtsvVhuF_7lb_quic9h3_bridge16read_h1_response
FN:1601,_RNvNtCseagxtsvVhuF_7lb_quic9h3_bridge16write_body_chunk
FN:1672,_RNvNtCseagxtsvVhuF_7lb_quic9h3_bridge16write_h1_request
FN:816,_RNvNtCseagxtsvVhuF_7lb_quic9h3_bridge17parse_status_line
FN:839,_RNvNtCseagxtsvVhuF_7lb_quic9h3_bridge18encode_h3_response
FN:1480,_RNvNtCseagxtsvVhuF_7lb_quic9h3_bridge18h3_to_h1_roundtrip
FN:2248,_RNvNtCseagxtsvVhuF_7lb_quic9h3_bridge18h3_to_h2_roundtrip
FN:2311,_RNvNtCseagxtsvVhuF_7lb_quic9h3_bridge18h3_to_h3_roundtrip
FN:1186,_RNvNtCseagxtsvVhuF_7lb_quic9h3_bridge18stream_h1_response
FN:2041,_RNvNtCseagxtsvVhuF_7lb_quic9h3_bridge19request_h3_upstream
FN:889,_RNvNtCseagxtsvVhuF_7lb_quic9h3_bridge20encode_h3_data_frame
FN:1915,_RNvNtCseagxtsvVhuF_7lb_quic9h3_bridge20h3_to_h1_stream_resp
FN:595,_RNvNtCseagxtsvVhuF_7lb_quic9h3_bridge20record_resp_retained
FN:866,_RNvNtCseagxtsvVhuF_7lb_quic9h3_bridge23encode_h3_headers_frame
FN:765,_RNvNtCseagxtsvVhuF_7lb_quic9h3_bridge23read_h1_response_capped
FN:912,_RNvNtCseagxtsvVhuF_7lb_quic9h3_bridge24encode_h3_trailers_frame
FN:226,_RNvXNtCseagxtsvVhuF_7lb_quic9h3_bridgeNtB2_9BodyParseNtNtCs2va5m0jqTTM_4core7default7Default7default
FN:637,_RNvXs0_NtCseagxtsvVhuF_7lb_quic9h3_bridgeNtB5_9H3RequestNtNtCs2va5m0jqTTM_4core7default7Default7default
FN:2013,_RNvXs3_NtCseagxtsvVhuF_7lb_quic9h3_bridgeNtB5_18H3UpstreamResponseNtNtCs2va5m0jqTTM_4core7default7Default7default
FN:1853,_RNCNCNvNtCseagxtsvVhuF_7lb_quic9h3_bridge15h3_to_h1_stream00B7_
FN:1497,_RNCNCNvNtCseagxtsvVhuF_7lb_quic9h3_bridge18h3_to_h1_roundtrip00B7_
FN:772,_RNCNCNvNtCseagxtsvVhuF_7lb_quic9h3_bridge23read_h1_response_capped00B7_
FN:795,_RNCNCNvNtCseagxtsvVhuF_7lb_quic9h3_bridge23read_h1_response_capped0s0_0B7_
FN:792,_RNCNCNvNtCseagxtsvVhuF_7lb_quic9h3_bridge23read_h1_response_capped0s_0B7_
FN:1840,_RNCNvNtCseagxtsvVhuF_7lb_quic9h3_bridge15h3_to_h1_stream0B5_
FN:748,_RNCNvNtCseagxtsvVhuF_7lb_quic9h3_bridge16read_h1_response0B5_
FN:1485,_RNCNvNtCseagxtsvVhuF_7lb_quic9h3_bridge18h3_to_h1_roundtrip0B5_
FN:2048,_RNCNvNtCseagxtsvVhuF_7lb_quic9h3_bridge19request_h3_upstream0B5_
FN:765,_RNCNvNtCseagxtsvVhuF_7lb_quic9h3_bridge23read_h1_response_capped0B5_
FN:1497,_RNCNCNvNtCseagxtsvVhuF_7lb_quic9h3_bridge18h3_to_h1_roundtrip00Cs6P9tpzEPwMD_21h3_h1_binary_body_e2e
FN:772,_RNCNCNvNtCseagxtsvVhuF_7lb_quic9h3_bridge23read_h1_response_capped00Cs6P9tpzEPwMD_21h3_h1_binary_body_e2e
FN:795,_RNCNCNvNtCseagxtsvVhuF_7lb_quic9h3_bridge23read_h1_response_capped0s0_0Cs6P9tpzEPwMD_21h3_h1_binary_body_e2e
FN:792,_RNCNCNvNtCseagxtsvVhuF_7lb_quic9h3_bridge23read_h1_response_capped0s_0Cs6P9tpzEPwMD_21h3_h1_binary_body_e2e
FN:748,_RNCNvNtCseagxtsvVhuF_7lb_quic9h3_bridge16read_h1_response0Cs6P9tpzEPwMD_21h3_h1_binary_body_e2e
FN:1485,_RNCNvNtCseagxtsvVhuF_7lb_quic9h3_bridge18h3_to_h1_roundtrip0Cs6P9tpzEPwMD_21h3_h1_binary_body_e2e
FN:765,_RNCNvNtCseagxtsvVhuF_7lb_quic9h3_bridge23read_h1_response_capped0Cs6P9tpzEPwMD_21h3_h1_binary_body_e2e
FN:1853,_RNCNCNvNtCseagxtsvVhuF_7lb_quic9h3_bridge15h3_to_h1_stream00CsQbgCkoNZ73_21h3_h1_stream_body_e2e
FN:772,_RNCNCNvNtCseagxtsvVhuF_7lb_quic9h3_bridge23read_h1_response_capped00CsQbgCkoNZ73_21h3_h1_stream_body_e2e
FN:795,_RNCNCNvNtCseagxtsvVhuF_7lb_quic9h3_bridge23read_h1_response_capped0s0_0CsQbgCkoNZ73_21h3_h1_stream_body_e2e
FN:792,_RNCNCNvNtCseagxtsvVhuF_7lb_quic9h3_bridge23read_h1_response_capped0s_0CsQbgCkoNZ73_21h3_h1_stream_body_e2e
FN:1840,_RNCNvNtCseagxtsvVhuF_7lb_quic9h3_bridge15h3_to_h1_stream0CsQbgCkoNZ73_21h3_h1_stream_body_e2e
FN:748,_RNCNvNtCseagxtsvVhuF_7lb_quic9h3_bridge16read_h1_response0CsQbgCkoNZ73_21h3_h1_stream_body_e2e
FN:765,_RNCNvNtCseagxtsvVhuF_7lb_quic9h3_bridge23read_h1_response_capped0CsQbgCkoNZ73_21h3_h1_stream_body_e2e
FN:1853,_RNCNCNvNtCseagxtsvVhuF_7lb_quic9h3_bridge15h3_to_h1_stream00Csd1HyTVhDm13_28h3_h1_stream_body_errors_e2e
FN:772,_RNCNCNvNtCseagxtsvVhuF_7lb_quic9h3_bridge23read_h1_response_capped00Csd1HyTVhDm13_28h3_h1_stream_body_errors_e2e
FN:795,_RNCNCNvNtCseagxtsvVhuF_7lb_quic9h3_bridge23read_h1_response_capped0s0_0Csd1HyTVhDm13_28h3_h1_stream_body_errors_e2e
FN:792,_RNCNCNvNtCseagxtsvVhuF_7lb_quic9h3_bridge23read_h1_response_capped0s_0Csd1HyTVhDm13_28h3_h1_stream_body_errors_e2e
FN:1840,_RNCNvNtCseagxtsvVhuF_7lb_quic9h3_bridge15h3_to_h1_stream0Csd1HyTVhDm13_28h3_h1_stream_body_errors_e2e
FN:748,_RNCNvNtCseagxtsvVhuF_7lb_quic9h3_bridge16read_h1_response0Csd1HyTVhDm13_28h3_h1_stream_body_errors_e2e
FN:765,_RNCNvNtCseagxtsvVhuF_7lb_quic9h3_bridge23read_h1_response_capped0Csd1HyTVhDm13_28h3_h1_stream_body_errors_e2e
FN:1853,_RNCNCNvNtCs5tlsoORduBh_7lb_quic9h3_bridge15h3_to_h1_stream00B7_
FN:1497,_RNCNCNvNtCs5tlsoORduBh_7lb_quic9h3_bridge18h3_to_h1_roundtrip00B7_
FN:1840,_RNCNvNtCs5tlsoORduBh_7lb_quic9h3_bridge15h3_to_h1_stream0B5_
FN:748,_RNCNvNtCs5tlsoORduBh_7lb_quic9h3_bridge16read_h1_response0B5_
FN:1485,_RNCNvNtCs5tlsoORduBh_7lb_quic9h3_bridge18h3_to_h1_roundtrip0B5_
FN:2048,_RNCNvNtCs5tlsoORduBh_7lb_quic9h3_bridge19request_h3_upstream0B5_
FN:518,_RNvMs_NtCs5tlsoORduBh_7lb_quic9h3_bridgeNtB4_11StreamRxBuf12is_too_large
FN:1834,_RNvNtCs5tlsoORduBh_7lb_quic9h3_bridge15h3_to_h1_stream
FN:748,_RNvNtCs5tlsoORduBh_7lb_quic9h3_bridge16read_h1_response
FN:1480,_RNvNtCs5tlsoORduBh_7lb_quic9h3_bridge18h3_to_h1_roundtrip
FN:2041,_RNvNtCs5tlsoORduBh_7lb_quic9h3_bridge19request_h3_upstream
FN:637,_RNvXs0_NtCs5tlsoORduBh_7lb_quic9h3_bridgeNtB5_9H3RequestNtNtCs2va5m0jqTTM_4core7default7Default7default
FN:2013,_RNvXs3_NtCs5tlsoORduBh_7lb_quic9h3_bridgeNtB5_18H3UpstreamResponseNtNtCs2va5m0jqTTM_4core7default7Default7default
FN:2704,_RNCNCNvNtNtCs5tlsoORduBh_7lb_quic9h3_bridge5testss_35feed_body_accepts_valid_h3_trailers00B9_
FN:2599,_RNCNCNvNtNtCs5tlsoORduBh_7lb_quic9h3_bridge5testss_61read_h1_response_capped_rejects_over_cap_and_passes_under_cap00B9_
FN:2625,_RNCNCNvNtNtCs5tlsoORduBh_7lb_quic9h3_bridge5testss_61read_h1_response_capped_rejects_over_cap_and_passes_under_cap0s_0B9_
FN:2703,_RNCNvNtNtCs5tlsoORduBh_7lb_quic9h3_bridge5testss_35feed_body_accepts_valid_h3_trailers0B7_
FN:2494,_RNCNvNtNtCs5tlsoORduBh_7lb_quic9h3_bridge5testss_43encode_h3_response_includes_status_and_body0B7_
FN:2498,_RNCNvNtNtCs5tlsoORduBh_7lb_quic9h3_bridge5testss_43encode_h3_response_includes_status_and_bodys_0B7_
FN:2761,_RNCNvNtNtCs5tlsoORduBh_7lb_quic9h3_bridge5testss_49encode_h3_headers_frame_none_omits_content_length0B7_
FN:2763,_RNCNvNtNtCs5tlsoORduBh_7lb_quic9h3_bridge5testss_49encode_h3_headers_frame_none_omits_content_lengths_0B7_
FN:2584,_RNCNvNtNtCs5tlsoORduBh_7lb_quic9h3_bridge5testss_61read_h1_response_capped_rejects_over_cap_and_passes_under_cap0B7_
FN:654,_RNvMs1_NtCs5tlsoORduBh_7lb_quic9h3_bridgeNtB5_9H3Request12from_headers
FN:997,_RNvMs2_NtCs5tlsoORduBh_7lb_quic9h3_bridgeNtB5_12ChunkDecoder13take_trailers
FN:1107,_RNvMs2_NtCs5tlsoORduBh_7lb_quic9h3_bridgeNtB5_12ChunkDecoder21parse_trailer_section
FN:983,_RNvMs2_NtCs5tlsoORduBh_7lb_quic9h3_bridgeNtB5_12ChunkDecoder3new
FN:1005,_RNvMs2_NtCs5tlsoORduBh_7lb_quic9h3_bridgeNtB5_12ChunkDecoder4feed
FN:531,_RNvMs_NtCs5tlsoORduBh_7lb_quic9h3_bridgeNtB4_11StreamRxBuf14retained_bytes
FN:500,_RNvMs_NtCs5tlsoORduBh_7lb_quic9h3_bridgeNtB4_11StreamRxBuf22try_parse_frame_header
FN:273,_RNvMs_NtCs5tlsoORduBh_7lb_quic9h3_bridgeNtB4_11StreamRxBuf4feed
FN:324,_RNvMs_NtCs5tlsoORduBh_7lb_quic9h3_bridgeNtB4_11StreamRxBuf9feed_body
FN:1926,_RNvNCNvNtCs5tlsoORduBh_7lb_quic9h3_bridge20h3_to_h1_stream_resp06inline
FN:1532,_RNvNtCs5tlsoORduBh_7lb_quic9h3_bridge13build_h1_head
FN:812,_RNvNtCs5tlsoORduBh_7lb_quic9h3_bridge15find_header_sep
FN:1577,_RNvNtCs5tlsoORduBh_7lb_quic9h3_bridge15record_inflight
FN:558,_RNvNtCs5tlsoORduBh_7lb_quic9h3_bridge15record_retained
FN:701,_RNvNtCs5tlsoORduBh_7lb_quic9h3_bridge16build_h1_request
FN:1601,_RNvNtCs5tlsoORduBh_7lb_quic9h3_bridge16write_body_chunk
FN:1672,_RNvNtCs5tlsoORduBh_7lb_quic9h3_bridge16write_h1_request
FN:816,_RNvNtCs5tlsoORduBh_7lb_quic9h3_bridge17parse_status_line
FN:839,_RNvNtCs5tlsoORduBh_7lb_quic9h3_bridge18encode_h3_response
FN:2248,_RNvNtCs5tlsoORduBh_7lb_quic9h3_bridge18h3_to_h2_roundtrip
FN:2311,_RNvNtCs5tlsoORduBh_7lb_quic9h3_bridge18h3_to_h3_roundtrip
FN:1186,_RNvNtCs5tlsoORduBh_7lb_quic9h3_bridge18stream_h1_response
FN:889,_RNvNtCs5tlsoORduBh_7lb_quic9h3_bridge20encode_h3_data_frame
FN:1915,_RNvNtCs5tlsoORduBh_7lb_quic9h3_bridge20h3_to_h1_stream_resp
FN:595,_RNvNtCs5tlsoORduBh_7lb_quic9h3_bridge20record_resp_retained
FN:866,_RNvNtCs5tlsoORduBh_7lb_quic9h3_bridge23encode_h3_headers_frame
FN:765,_RNvNtCs5tlsoORduBh_7lb_quic9h3_bridge23read_h1_response_capped
FN:912,_RNvNtCs5tlsoORduBh_7lb_quic9h3_bridge24encode_h3_trailers_frame
FN:226,_RNvXNtCs5tlsoORduBh_7lb_quic9h3_bridgeNtB2_9BodyParseNtNtCs2va5m0jqTTM_4core7default7Default7default
FN:1245,_RNCNCNCNvNtCs5tlsoORduBh_7lb_quic9h3_bridge18stream_h1_response0s_00B9_
FN:1607,_RNCNCNvNtCs5tlsoORduBh_7lb_quic9h3_bridge16write_body_chunk00B7_
FN:1609,_RNCNCNvNtCs5tlsoORduBh_7lb_quic9h3_bridge16write_body_chunk0s0_0B7_
FN:1611,_RNCNCNvNtCs5tlsoORduBh_7lb_quic9h3_bridge16write_body_chunk0s1_0B7_
FN:1608,_RNCNCNvNtCs5tlsoORduBh_7lb_quic9h3_bridge16write_body_chunk0s_0B7_
FN:1690,_RNCNCNvNtCs5tlsoORduBh_7lb_quic9h3_bridge16write_h1_request00B7_
FN:2253,_RNCNCNvNtCs5tlsoORduBh_7lb_quic9h3_bridge18h3_to_h2_roundtrip00B7_
FN:2321,_RNCNCNvNtCs5tlsoORduBh_7lb_quic9h3_bridge18h3_to_h3_roundtrip00B7_
FN:2476,_RNCNCNvNtCs5tlsoORduBh_7lb_quic9h3_bridge18h3_to_h3_roundtrip0s_0B7_
FN:1230,_RNCNCNvNtCs5tlsoORduBh_7lb_quic9h3_bridge18stream_h1_response00B7_
FN:1195,_RNCNCNvNtCs5tlsoORduBh_7lb_quic9h3_bridge18stream_h1_response0s0_0B7_
FN:1195,_RNCNCNvNtCs5tlsoORduBh_7lb_quic9h3_bridge18stream_h1_response0s1_0B7_
FN:1195,_RNCNCNvNtCs5tlsoORduBh_7lb_quic9h3_bridge18stream_h1_response0s2_0B7_
FN:1195,_RNCNCNvNtCs5tlsoORduBh_7lb_quic9h3_bridge18stream_h1_response0s3_0B7_
FN:1195,_RNCNCNvNtCs5tlsoORduBh_7lb_quic9h3_bridge18stream_h1_response0s4_0B7_
FN:1195,_RNCNCNvNtCs5tlsoORduBh_7lb_quic9h3_bridge18stream_h1_response0s5_0B7_
FN:1195,_RNCNCNvNtCs5tlsoORduBh_7lb_quic9h3_bridge18stream_h1_response0s6_0B7_
FN:1195,_RNCNCNvNtCs5tlsoORduBh_7lb_quic9h3_bridge18stream_h1_response0s7_0B7_
FN:1195,_RNCNCNvNtCs5tlsoORduBh_7lb_quic9h3_bridge18stream_h1_response0s8_0B7_
FN:1245,_RNCNCNvNtCs5tlsoORduBh_7lb_quic9h3_bridge18stream_h1_response0s_0B7_
FN:772,_RNCNCNvNtCs5tlsoORduBh_7lb_quic9h3_bridge23read_h1_response_capped00B7_
FN:795,_RNCNCNvNtCs5tlsoORduBh_7lb_quic9h3_bridge23read_h1_response_capped0s0_0B7_
FN:792,_RNCNCNvNtCs5tlsoORduBh_7lb_quic9h3_bridge23read_h1_response_capped0s_0B7_
FN:671,_RNCNvMs1_NtCs5tlsoORduBh_7lb_quic9h3_bridgeNtB7_9H3Request12from_headers0B9_
FN:672,_RNCNvMs1_NtCs5tlsoORduBh_7lb_quic9h3_bridgeNtB7_9H3Request12from_headerss_0B9_
FN:1116,_RNCNvMs2_NtCs5tlsoORduBh_7lb_quic9h3_bridgeNtB7_12ChunkDecoder21parse_trailer_section0B9_
FN:1131,_RNCNvMs2_NtCs5tlsoORduBh_7lb_quic9h3_bridgeNtB7_12ChunkDecoder21parse_trailer_sections_0B9_
FN:1049,_RNCNvMs2_NtCs5tlsoORduBh_7lb_quic9h3_bridgeNtB7_12ChunkDecoder4feed0B9_
FN:1065,_RNCNvMs2_NtCs5tlsoORduBh_7lb_quic9h3_bridgeNtB7_12ChunkDecoder4feeds0_0B9_
FN:1071,_RNCNvMs2_NtCs5tlsoORduBh_7lb_quic9h3_bridgeNtB7_12ChunkDecoder4feeds1_0B9_
FN:1063,_RNCNvMs2_NtCs5tlsoORduBh_7lb_quic9h3_bridgeNtB7_12ChunkDecoder4feeds_0B9_
FN:289,_RNCNvMs_NtCs5tlsoORduBh_7lb_quic9h3_bridgeNtB6_11StreamRxBuf4feed0B8_
FN:382,_RNCNvMs_NtCs5tlsoORduBh_7lb_quic9h3_bridgeNtB6_11StreamRxBuf9feed_body0B8_
FN:465,_RNCNvMs_NtCs5tlsoORduBh_7lb_quic9h3_bridgeNtB6_11StreamRxBuf9feed_bodys0_0B8_
FN:455,_RNCNvMs_NtCs5tlsoORduBh_7lb_quic9h3_bridgeNtB6_11StreamRxBuf9feed_bodys_0B8_
FN:1926,_RNCNvNCNvNtCs5tlsoORduBh_7lb_quic9h3_bridge20h3_to_h1_stream_resp06inline0B9_
FN:813,_RNCNvNtCs5tlsoORduBh_7lb_quic9h3_bridge15find_header_sep0B5_
FN:1601,_RNCNvNtCs5tlsoORduBh_7lb_quic9h3_bridge16write_body_chunk0B5_
FN:1676,_RNCNvNtCs5tlsoORduBh_7lb_quic9h3_bridge16write_h1_request0B5_
FN:821,_RNCNvNtCs5tlsoORduBh_7lb_quic9h3_bridge17parse_status_line0B5_
FN:2252,_RNCNvNtCs5tlsoORduBh_7lb_quic9h3_bridge18h3_to_h2_roundtrip0B5_
FN:2316,_RNCNvNtCs5tlsoORduBh_7lb_quic9h3_bridge18h3_to_h3_roundtrip0B5_
FN:1190,_RNCNvNtCs5tlsoORduBh_7lb_quic9h3_bridge18stream_h1_response0B5_
FN:893,_RNCNvNtCs5tlsoORduBh_7lb_quic9h3_bridge20encode_h3_data_frame0B5_
FN:1922,_RNCNvNtCs5tlsoORduBh_7lb_quic9h3_bridge20h3_to_h1_stream_resp0B5_
FN:877,_RNCNvNtCs5tlsoORduBh_7lb_quic9h3_bridge23encode_h3_headers_frame0B5_
FN:878,_RNCNvNtCs5tlsoORduBh_7lb_quic9h3_bridge23encode_h3_headers_frames_0B5_
FN:765,_RNCNvNtCs5tlsoORduBh_7lb_quic9h3_bridge23read_h1_response_capped0B5_
FN:915,_RNCNvNtCs5tlsoORduBh_7lb_quic9h3_bridge24encode_h3_trailers_frame0B5_
FN:916,_RNCNvNtCs5tlsoORduBh_7lb_quic9h3_bridge24encode_h3_trailers_frames_0B5_
FN:2771,_RNvNtNtCs5tlsoORduBh_7lb_quic9h3_bridge5testss_34chunk_decoder_decodes_split_chunks
FN:2683,_RNvNtNtCs5tlsoORduBh_7lb_quic9h3_bridge5testss_35feed_body_accepts_valid_h3_trailers
FN:2833,_RNvNtNtCs5tlsoORduBh_7lb_quic9h3_bridge5testss_39chunk_decoder_parses_trailer_section_c4
FN:2817,_RNvNtNtCs5tlsoORduBh_7lb_quic9h3_bridge5testss_39chunk_decoder_tolerates_chunk_extension
FN:2710,_RNvNtNtCs5tlsoORduBh_7lb_quic9h3_bridge5testss_41stream_rx_buf_accumulates_partial_headers
FN:2787,_RNvNtNtCs5tlsoORduBh_7lb_quic9h3_bridge5testss_42chunk_decoder_rejects_malformed_framing_c3
FN:2484,_RNvNtNtCs5tlsoORduBh_7lb_quic9h3_bridge5testss_43encode_h3_response_includes_status_and_body
FN:2650,_RNvNtNtCs5tlsoORduBh_7lb_quic9h3_bridge5testss_46feed_body_rejects_pseudo_header_in_h3_trailers
FN:2754,_RNvNtNtCs5tlsoORduBh_7lb_quic9h3_bridge5testss_49encode_h3_headers_frame_none_omits_content_length
FN:2737,_RNvNtNtCs5tlsoORduBh_7lb_quic9h3_bridge5testss_53encode_h3_response_is_byte_identical_to_split_helpers
FN:2584,_RNvNtNtCs5tlsoORduBh_7lb_quic9h3_bridge5testss_61read_h1_response_capped_rejects_over_cap_and_passes_under_cap
FN:2507,_RNvNtNtCs5tlsoORduBh_7lb_quic9h3_bridge5testss_63build_h1_request_none_body_is_byte_identical_to_legacy_bodyless
FN:2548,_RNvNtNtCs5tlsoORduBh_7lb_quic9h3_bridge5testss_76s2_target_build_h1_request_with_body_sets_content_length_and_appends_payload
FNDA:0,_RNCNCNCNvNtCseagxtsvVhuF_7lb_quic9h3_bridge18stream_h1_response0s_00B9_
FNDA:1,_RNCNCNvNtCseagxtsvVhuF_7lb_quic9h3_bridge16write_body_chunk00B7_
FNDA:0,_RNCNCNvNtCseagxtsvVhuF_7lb_quic9h3_bridge16write_body_chunk0s0_0B7_
FNDA:0,_RNCNCNvNtCseagxtsvVhuF_7lb_quic9h3_bridge16write_body_chunk0s1_0B7_
FNDA:0,_RNCNCNvNtCseagxtsvVhuF_7lb_quic9h3_bridge16write_body_chunk0s_0B7_
FNDA:1,_RNCNCNvNtCseagxtsvVhuF_7lb_quic9h3_bridge16write_h1_request00B7_
FNDA:0,_RNCNCNvNtCseagxtsvVhuF_7lb_quic9h3_bridge18h3_to_h2_roundtrip00B7_
FNDA:0,_RNCNCNvNtCseagxtsvVhuF_7lb_quic9h3_bridge18h3_to_h3_roundtrip00B7_
FNDA:0,_RNCNCNvNtCseagxtsvVhuF_7lb_quic9h3_bridge18h3_to_h3_roundtrip0s_0B7_
FNDA:0,_RNCNCNvNtCseagxtsvVhuF_7lb_quic9h3_bridge18stream_h1_response00B7_
FNDA:0,_RNCNCNvNtCseagxtsvVhuF_7lb_quic9h3_bridge18stream_h1_response0s0_0B7_
FNDA:0,_RNCNCNvNtCseagxtsvVhuF_7lb_quic9h3_bridge18stream_h1_response0s1_0B7_
FNDA:2,_RNCNCNvNtCseagxtsvVhuF_7lb_quic9h3_bridge18stream_h1_response0s2_0B7_
FNDA:0,_RNCNCNvNtCseagxtsvVhuF_7lb_quic9h3_bridge18stream_h1_response0s3_0B7_
FNDA:0,_RNCNCNvNtCseagxtsvVhuF_7lb_quic9h3_bridge18stream_h1_response0s4_0B7_
FNDA:0,_RNCNCNvNtCseagxtsvVhuF_7lb_quic9h3_bridge18stream_h1_response0s5_0B7_
FNDA:0,_RNCNCNvNtCseagxtsvVhuF_7lb_quic9h3_bridge18stream_h1_response0s6_0B7_
FNDA:0,_RNCNCNvNtCseagxtsvVhuF_7lb_quic9h3_bridge18stream_h1_response0s7_0B7_
FNDA:0,_RNCNCNvNtCseagxtsvVhuF_7lb_quic9h3_bridge18stream_h1_response0s8_0B7_
FNDA:32,_RNCNCNvNtCseagxtsvVhuF_7lb_quic9h3_bridge18stream_h1_response0s_0B7_
FNDA:0,_RNCNvMs1_NtCseagxtsvVhuF_7lb_quic9h3_bridgeNtB7_9H3Request12from_headers0B9_
FNDA:0,_RNCNvMs1_NtCseagxtsvVhuF_7lb_quic9h3_bridgeNtB7_9H3Request12from_headerss_0B9_
FNDA:876,_RNCNvMs2_NtCseagxtsvVhuF_7lb_quic9h3_bridgeNtB7_12ChunkDecoder21parse_trailer_section0B9_
FNDA:0,_RNCNvMs2_NtCseagxtsvVhuF_7lb_quic9h3_bridgeNtB7_12ChunkDecoder21parse_trailer_sections_0B9_
FNDA:101,_RNCNvMs2_NtCseagxtsvVhuF_7lb_quic9h3_bridgeNtB7_12ChunkDecoder4feed0B9_
FNDA:0,_RNCNvMs2_NtCseagxtsvVhuF_7lb_quic9h3_bridgeNtB7_12ChunkDecoder4feeds0_0B9_
FNDA:2,_RNCNvMs2_NtCseagxtsvVhuF_7lb_quic9h3_bridgeNtB7_12ChunkDecoder4feeds1_0B9_
FNDA:70,_RNCNvMs2_NtCseagxtsvVhuF_7lb_quic9h3_bridgeNtB7_12ChunkDecoder4feeds_0B9_
FNDA:0,_RNCNvMs_NtCseagxtsvVhuF_7lb_quic9h3_bridgeNtB6_11StreamRxBuf4feed0B8_
FNDA:0,_RNCNvMs_NtCseagxtsvVhuF_7lb_quic9h3_bridgeNtB6_11StreamRxBuf9feed_body0B8_
FNDA:2,_RNCNvMs_NtCseagxtsvVhuF_7lb_quic9h3_bridgeNtB6_11StreamRxBuf9feed_bodys0_0B8_
FNDA:0,_RNCNvMs_NtCseagxtsvVhuF_7lb_quic9h3_bridgeNtB6_11StreamRxBuf9feed_bodys_0B8_
FNDA:2,_RNCNvNCNvNtCseagxtsvVhuF_7lb_quic9h3_bridge20h3_to_h1_stream_resp06inline0B9_
FNDA:1824,_RNCNvNtCseagxtsvVhuF_7lb_quic9h3_bridge15find_header_sep0B5_
FNDA:669,_RNCNvNtCseagxtsvVhuF_7lb_quic9h3_bridge16write_body_chunk0B5_
FNDA:37,_RNCNvNtCseagxtsvVhuF_7lb_quic9h3_bridge16write_h1_request0B5_
FNDA:0,_RNCNvNtCseagxtsvVhuF_7lb_quic9h3_bridge17parse_status_line0B5_
FNDA:0,_RNCNvNtCseagxtsvVhuF_7lb_quic9h3_bridge18h3_to_h2_roundtrip0B5_
FNDA:0,_RNCNvNtCseagxtsvVhuF_7lb_quic9h3_bridge18h3_to_h3_roundtrip0B5_
FNDA:33,_RNCNvNtCseagxtsvVhuF_7lb_quic9h3_bridge18stream_h1_response0B5_
FNDA:0,_RNCNvNtCseagxtsvVhuF_7lb_quic9h3_bridge20encode_h3_data_frame0B5_
FNDA:35,_RNCNvNtCseagxtsvVhuF_7lb_quic9h3_bridge20h3_to_h1_stream_resp0B5_
FNDA:0,_RNCNvNtCseagxtsvVhuF_7lb_quic9h3_bridge23encode_h3_headers_frame0B5_
FNDA:0,_RNCNvNtCseagxtsvVhuF_7lb_quic9h3_bridge23encode_h3_headers_frames_0B5_
FNDA:0,_RNCNvNtCseagxtsvVhuF_7lb_quic9h3_bridge24encode_h3_trailers_frame0B5_
FNDA:0,_RNCNvNtCseagxtsvVhuF_7lb_quic9h3_bridge24encode_h3_trailers_frames_0B5_
FNDA:37,_RNvMs1_NtCseagxtsvVhuF_7lb_quic9h3_bridgeNtB5_9H3Request12from_headers
FNDA:4,_RNvMs2_NtCseagxtsvVhuF_7lb_quic9h3_bridgeNtB5_12ChunkDecoder13take_trailers
FNDA:65,_RNvMs2_NtCseagxtsvVhuF_7lb_quic9h3_bridgeNtB5_12ChunkDecoder21parse_trailer_section
FNDA:9,_RNvMs2_NtCseagxtsvVhuF_7lb_quic9h3_bridgeNtB5_12ChunkDecoder3new
FNDA:98,_RNvMs2_NtCseagxtsvVhuF_7lb_quic9h3_bridgeNtB5_12ChunkDecoder4feed
FNDA:1,_RNvMs_NtCseagxtsvVhuF_7lb_quic9h3_bridgeNtB4_11StreamRxBuf12is_too_large
FNDA:664,_RNvMs_NtCseagxtsvVhuF_7lb_quic9h3_bridgeNtB4_11StreamRxBuf14retained_bytes
FNDA:76,_RNvMs_NtCseagxtsvVhuF_7lb_quic9h3_bridgeNtB4_11StreamRxBuf22try_parse_frame_header
FNDA:72,_RNvMs_NtCseagxtsvVhuF_7lb_quic9h3_bridgeNtB4_11StreamRxBuf4feed
FNDA:671,_RNvMs_NtCseagxtsvVhuF_7lb_quic9h3_bridgeNtB4_11StreamRxBuf9feed_body
FNDA:2,_RNvNCNvNtCseagxtsvVhuF_7lb_quic9h3_bridge20h3_to_h1_stream_resp06inline
FNDA:37,_RNvNtCseagxtsvVhuF_7lb_quic9h3_bridge13build_h1_head
FNDA:67,_RNvNtCseagxtsvVhuF_7lb_quic9h3_bridge15find_header_sep
FNDA:2,_RNvNtCseagxtsvVhuF_7lb_quic9h3_bridge15h3_to_h1_stream
FNDA:697,_RNvNtCseagxtsvVhuF_7lb_quic9h3_bridge15record_inflight
FNDA:669,_RNvNtCseagxtsvVhuF_7lb_quic9h3_bridge15record_retained
FNDA:1,_RNvNtCseagxtsvVhuF_7lb_quic9h3_bridge16build_h1_request
FNDA:1,_RNvNtCseagxtsvVhuF_7lb_quic9h3_bridge16read_h1_response
FNDA:669,_RNvNtCseagxtsvVhuF_7lb_quic9h3_bridge16write_body_chunk
FNDA:37,_RNvNtCseagxtsvVhuF_7lb_quic9h3_bridge16write_h1_request
FNDA:33,_RNvNtCseagxtsvVhuF_7lb_quic9h3_bridge17parse_status_line
FNDA:7,_RNvNtCseagxtsvVhuF_7lb_quic9h3_bridge18encode_h3_response
FNDA:1,_RNvNtCseagxtsvVhuF_7lb_quic9h3_bridge18h3_to_h1_roundtrip
FNDA:0,_RNvNtCseagxtsvVhuF_7lb_quic9h3_bridge18h3_to_h2_roundtrip
FNDA:0,_RNvNtCseagxtsvVhuF_7lb_quic9h3_bridge18h3_to_h3_roundtrip
FNDA:33,_RNvNtCseagxtsvVhuF_7lb_quic9h3_bridge18stream_h1_response
FNDA:0,_RNvNtCseagxtsvVhuF_7lb_quic9h3_bridge19request_h3_upstream
FNDA:18116,_RNvNtCseagxtsvVhuF_7lb_quic9h3_bridge20encode_h3_data_frame
FNDA:35,_RNvNtCseagxtsvVhuF_7lb_quic9h3_bridge20h3_to_h1_stream_resp
FNDA:86956,_RNvNtCseagxtsvVhuF_7lb_quic9h3_bridge20record_resp_retained
FNDA:39,_RNvNtCseagxtsvVhuF_7lb_quic9h3_bridge23encode_h3_headers_frame
FNDA:1,_RNvNtCseagxtsvVhuF_7lb_quic9h3_bridge23read_h1_response_capped
FNDA:2,_RNvNtCseagxtsvVhuF_7lb_quic9h3_bridge24encode_h3_trailers_frame
FNDA:742,_RNvXNtCseagxtsvVhuF_7lb_quic9h3_bridgeNtB2_9BodyParseNtNtCs2va5m0jqTTM_4core7default7Default7default
FNDA:0,_RNvXs0_NtCseagxtsvVhuF_7lb_quic9h3_bridgeNtB5_9H3RequestNtNtCs2va5m0jqTTM_4core7default7Default7default
FNDA:0,_RNvXs3_NtCseagxtsvVhuF_7lb_quic9h3_bridgeNtB5_18H3UpstreamResponseNtNtCs2va5m0jqTTM_4core7default7Default7default
FNDA:0,_RNCNCNvNtCseagxtsvVhuF_7lb_quic9h3_bridge15h3_to_h1_stream00B7_
FNDA:0,_RNCNCNvNtCseagxtsvVhuF_7lb_quic9h3_bridge18h3_to_h1_roundtrip00B7_
FNDA:0,_RNCNCNvNtCseagxtsvVhuF_7lb_quic9h3_bridge23read_h1_response_capped00B7_
FNDA:0,_RNCNCNvNtCseagxtsvVhuF_7lb_quic9h3_bridge23read_h1_response_capped0s0_0B7_
FNDA:0,_RNCNCNvNtCseagxtsvVhuF_7lb_quic9h3_bridge23read_h1_response_capped0s_0B7_
FNDA:0,_RNCNvNtCseagxtsvVhuF_7lb_quic9h3_bridge15h3_to_h1_stream0B5_
FNDA:0,_RNCNvNtCseagxtsvVhuF_7lb_quic9h3_bridge16read_h1_response0B5_
FNDA:0,_RNCNvNtCseagxtsvVhuF_7lb_quic9h3_bridge18h3_to_h1_roundtrip0B5_
FNDA:0,_RNCNvNtCseagxtsvVhuF_7lb_quic9h3_bridge19request_h3_upstream0B5_
FNDA:0,_RNCNvNtCseagxtsvVhuF_7lb_quic9h3_bridge23read_h1_response_capped0B5_
FNDA:0,_RNCNCNvNtCseagxtsvVhuF_7lb_quic9h3_bridge18h3_to_h1_roundtrip00Cs6P9tpzEPwMD_21h3_h1_binary_body_e2e
FNDA:0,_RNCNCNvNtCseagxtsvVhuF_7lb_quic9h3_bridge23read_h1_response_capped00Cs6P9tpzEPwMD_21h3_h1_binary_body_e2e
FNDA:0,_RNCNCNvNtCseagxtsvVhuF_7lb_quic9h3_bridge23read_h1_response_capped0s0_0Cs6P9tpzEPwMD_21h3_h1_binary_body_e2e
FNDA:0,_RNCNCNvNtCseagxtsvVhuF_7lb_quic9h3_bridge23read_h1_response_capped0s_0Cs6P9tpzEPwMD_21h3_h1_binary_body_e2e
FNDA:1,_RNCNvNtCseagxtsvVhuF_7lb_quic9h3_bridge16read_h1_response0Cs6P9tpzEPwMD_21h3_h1_binary_body_e2e
FNDA:1,_RNCNvNtCseagxtsvVhuF_7lb_quic9h3_bridge18h3_to_h1_roundtrip0Cs6P9tpzEPwMD_21h3_h1_binary_body_e2e
FNDA:1,_RNCNvNtCseagxtsvVhuF_7lb_quic9h3_bridge23read_h1_response_capped0Cs6P9tpzEPwMD_21h3_h1_binary_body_e2e
FNDA:0,_RNCNCNvNtCseagxtsvVhuF_7lb_quic9h3_bridge15h3_to_h1_stream00CsQbgCkoNZ73_21h3_h1_stream_body_e2e
FNDA:0,_RNCNCNvNtCseagxtsvVhuF_7lb_quic9h3_bridge23read_h1_response_capped00CsQbgCkoNZ73_21h3_h1_stream_body_e2e
FNDA:0,_RNCNCNvNtCseagxtsvVhuF_7lb_quic9h3_bridge23read_h1_response_capped0s0_0CsQbgCkoNZ73_21h3_h1_stream_body_e2e
FNDA:0,_RNCNCNvNtCseagxtsvVhuF_7lb_quic9h3_bridge23read_h1_response_capped0s_0CsQbgCkoNZ73_21h3_h1_stream_body_e2e
FNDA:1,_RNCNvNtCseagxtsvVhuF_7lb_quic9h3_bridge15h3_to_h1_stream0CsQbgCkoNZ73_21h3_h1_stream_body_e2e
FNDA:0,_RNCNvNtCseagxtsvVhuF_7lb_quic9h3_bridge16read_h1_response0CsQbgCkoNZ73_21h3_h1_stream_body_e2e
FNDA:0,_RNCNvNtCseagxtsvVhuF_7lb_quic9h3_bridge23read_h1_response_capped0CsQbgCkoNZ73_21h3_h1_stream_body_e2e
FNDA:0,_RNCNCNvNtCseagxtsvVhuF_7lb_quic9h3_bridge15h3_to_h1_stream00Csd1HyTVhDm13_28h3_h1_stream_body_errors_e2e
FNDA:0,_RNCNCNvNtCseagxtsvVhuF_7lb_quic9h3_bridge23read_h1_response_capped00Csd1HyTVhDm13_28h3_h1_stream_body_errors_e2e
FNDA:0,_RNCNCNvNtCseagxtsvVhuF_7lb_quic9h3_bridge23read_h1_response_capped0s0_0Csd1HyTVhDm13_28h3_h1_stream_body_errors_e2e
FNDA:0,_RNCNCNvNtCseagxtsvVhuF_7lb_quic9h3_bridge23read_h1_response_capped0s_0Csd1HyTVhDm13_28h3_h1_stream_body_errors_e2e
FNDA:1,_RNCNvNtCseagxtsvVhuF_7lb_quic9h3_bridge15h3_to_h1_stream0Csd1HyTVhDm13_28h3_h1_stream_body_errors_e2e
FNDA:0,_RNCNvNtCseagxtsvVhuF_7lb_quic9h3_bridge16read_h1_response0Csd1HyTVhDm13_28h3_h1_stream_body_errors_e2e
FNDA:0,_RNCNvNtCseagxtsvVhuF_7lb_quic9h3_bridge23read_h1_response_capped0Csd1HyTVhDm13_28h3_h1_stream_body_errors_e2e
FNDA:0,_RNCNCNvNtCs5tlsoORduBh_7lb_quic9h3_bridge15h3_to_h1_stream00B7_
FNDA:0,_RNCNCNvNtCs5tlsoORduBh_7lb_quic9h3_bridge18h3_to_h1_roundtrip00B7_
FNDA:0,_RNCNvNtCs5tlsoORduBh_7lb_quic9h3_bridge15h3_to_h1_stream0B5_
FNDA:0,_RNCNvNtCs5tlsoORduBh_7lb_quic9h3_bridge16read_h1_response0B5_
FNDA:0,_RNCNvNtCs5tlsoORduBh_7lb_quic9h3_bridge18h3_to_h1_roundtrip0B5_
FNDA:0,_RNCNvNtCs5tlsoORduBh_7lb_quic9h3_bridge19request_h3_upstream0B5_
FNDA:0,_RNvMs_NtCs5tlsoORduBh_7lb_quic9h3_bridgeNtB4_11StreamRxBuf12is_too_large
FNDA:0,_RNvNtCs5tlsoORduBh_7lb_quic9h3_bridge15h3_to_h1_stream
FNDA:0,_RNvNtCs5tlsoORduBh_7lb_quic9h3_bridge16read_h1_response
FNDA:0,_RNvNtCs5tlsoORduBh_7lb_quic9h3_bridge18h3_to_h1_roundtrip
FNDA:0,_RNvNtCs5tlsoORduBh_7lb_quic9h3_bridge19request_h3_upstream
FNDA:0,_RNvXs0_NtCs5tlsoORduBh_7lb_quic9h3_bridgeNtB5_9H3RequestNtNtCs2va5m0jqTTM_4core7default7Default7default
FNDA:0,_RNvXs3_NtCs5tlsoORduBh_7lb_quic9h3_bridgeNtB5_18H3UpstreamResponseNtNtCs2va5m0jqTTM_4core7default7Default7default
FNDA:1,_RNCNCNvNtNtCs5tlsoORduBh_7lb_quic9h3_bridge5testss_35feed_body_accepts_valid_h3_trailers00B9_
FNDA:1,_RNCNCNvNtNtCs5tlsoORduBh_7lb_quic9h3_bridge5testss_61read_h1_response_capped_rejects_over_cap_and_passes_under_cap00B9_
FNDA:1,_RNCNCNvNtNtCs5tlsoORduBh_7lb_quic9h3_bridge5testss_61read_h1_response_capped_rejects_over_cap_and_passes_under_cap0s_0B9_
FNDA:1,_RNCNvNtNtCs5tlsoORduBh_7lb_quic9h3_bridge5testss_35feed_body_accepts_valid_h3_trailers0B7_
FNDA:1,_RNCNvNtNtCs5tlsoORduBh_7lb_quic9h3_bridge5testss_43encode_h3_response_includes_status_and_body0B7_
FNDA:2,_RNCNvNtNtCs5tlsoORduBh_7lb_quic9h3_bridge5testss_43encode_h3_response_includes_status_and_bodys_0B7_
FNDA:1,_RNCNvNtNtCs5tlsoORduBh_7lb_quic9h3_bridge5testss_49encode_h3_headers_frame_none_omits_content_length0B7_
FNDA:1,_RNCNvNtNtCs5tlsoORduBh_7lb_quic9h3_bridge5testss_49encode_h3_headers_frame_none_omits_content_lengths_0B7_
FNDA:1,_RNCNvNtNtCs5tlsoORduBh_7lb_quic9h3_bridge5testss_61read_h1_response_capped_rejects_over_cap_and_passes_under_cap0B7_
FNDA:0,_RNvMs1_NtCs5tlsoORduBh_7lb_quic9h3_bridgeNtB5_9H3Request12from_headers
FNDA:3,_RNvMs2_NtCs5tlsoORduBh_7lb_quic9h3_bridgeNtB5_12ChunkDecoder13take_trailers
FNDA:11,_RNvMs2_NtCs5tlsoORduBh_7lb_quic9h3_bridgeNtB5_12ChunkDecoder21parse_trailer_section
FNDA:12,_RNvMs2_NtCs5tlsoORduBh_7lb_quic9h3_bridgeNtB5_12ChunkDecoder3new
FNDA:17,_RNvMs2_NtCs5tlsoORduBh_7lb_quic9h3_bridgeNtB5_12ChunkDecoder4feed
FNDA:0,_RNvMs_NtCs5tlsoORduBh_7lb_quic9h3_bridgeNtB4_11StreamRxBuf14retained_bytes
FNDA:12,_RNvMs_NtCs5tlsoORduBh_7lb_quic9h3_bridgeNtB4_11StreamRxBuf22try_parse_frame_header
FNDA:2,_RNvMs_NtCs5tlsoORduBh_7lb_quic9h3_bridgeNtB4_11StreamRxBuf4feed
FNDA:2,_RNvMs_NtCs5tlsoORduBh_7lb_quic9h3_bridgeNtB4_11StreamRxBuf9feed_body
FNDA:0,_RNvNCNvNtCs5tlsoORduBh_7lb_quic9h3_bridge20h3_to_h1_stream_resp06inline
FNDA:0,_RNvNtCs5tlsoORduBh_7lb_quic9h3_bridge13build_h1_head
FNDA:1,_RNvNtCs5tlsoORduBh_7lb_quic9h3_bridge15find_header_sep
FNDA:0,_RNvNtCs5tlsoORduBh_7lb_quic9h3_bridge15record_inflight
FNDA:0,_RNvNtCs5tlsoORduBh_7lb_quic9h3_bridge15record_retained
FNDA:2,_RNvNtCs5tlsoORduBh_7lb_quic9h3_bridge16build_h1_request
FNDA:0,_RNvNtCs5tlsoORduBh_7lb_quic9h3_bridge16write_body_chunk
FNDA:0,_RNvNtCs5tlsoORduBh_7lb_quic9h3_bridge16write_h1_request
FNDA:1,_RNvNtCs5tlsoORduBh_7lb_quic9h3_bridge17parse_status_line
FNDA:5,_RNvNtCs5tlsoORduBh_7lb_quic9h3_bridge18encode_h3_response
FNDA:0,_RNvNtCs5tlsoORduBh_7lb_quic9h3_bridge18h3_to_h2_roundtrip
FNDA:0,_RNvNtCs5tlsoORduBh_7lb_quic9h3_bridge18h3_to_h3_roundtrip
FNDA:0,_RNvNtCs5tlsoORduBh_7lb_quic9h3_bridge18stream_h1_response
FNDA:9,_RNvNtCs5tlsoORduBh_7lb_quic9h3_bridge20encode_h3_data_frame
FNDA:0,_RNvNtCs5tlsoORduBh_7lb_quic9h3_bridge20h3_to_h1_stream_resp
FNDA:0,_RNvNtCs5tlsoORduBh_7lb_quic9h3_bridge20record_resp_retained
FNDA:10,_RNvNtCs5tlsoORduBh_7lb_quic9h3_bridge23encode_h3_headers_frame
FNDA:2,_RNvNtCs5tlsoORduBh_7lb_quic9h3_bridge23read_h1_response_capped
FNDA:0,_RNvNtCs5tlsoORduBh_7lb_quic9h3_bridge24encode_h3_trailers_frame
FNDA:14,_RNvXNtCs5tlsoORduBh_7lb_quic9h3_bridgeNtB2_9BodyParseNtNtCs2va5m0jqTTM_4core7default7Default7default
FNDA:0,_RNCNCNCNvNtCs5tlsoORduBh_7lb_quic9h3_bridge18stream_h1_response0s_00B9_
FNDA:0,_RNCNCNvNtCs5tlsoORduBh_7lb_quic9h3_bridge16write_body_chunk00B7_
FNDA:0,_RNCNCNvNtCs5tlsoORduBh_7lb_quic9h3_bridge16write_body_chunk0s0_0B7_
FNDA:0,_RNCNCNvNtCs5tlsoORduBh_7lb_quic9h3_bridge16write_body_chunk0s1_0B7_
FNDA:0,_RNCNCNvNtCs5tlsoORduBh_7lb_quic9h3_bridge16write_body_chunk0s_0B7_
FNDA:0,_RNCNCNvNtCs5tlsoORduBh_7lb_quic9h3_bridge16write_h1_request00B7_
FNDA:0,_RNCNCNvNtCs5tlsoORduBh_7lb_quic9h3_bridge18h3_to_h2_roundtrip00B7_
FNDA:0,_RNCNCNvNtCs5tlsoORduBh_7lb_quic9h3_bridge18h3_to_h3_roundtrip00B7_
FNDA:0,_RNCNCNvNtCs5tlsoORduBh_7lb_quic9h3_bridge18h3_to_h3_roundtrip0s_0B7_
FNDA:0,_RNCNCNvNtCs5tlsoORduBh_7lb_quic9h3_bridge18stream_h1_response00B7_
FNDA:0,_RNCNCNvNtCs5tlsoORduBh_7lb_quic9h3_bridge18stream_h1_response0s0_0B7_
FNDA:0,_RNCNCNvNtCs5tlsoORduBh_7lb_quic9h3_bridge18stream_h1_response0s1_0B7_
FNDA:0,_RNCNCNvNtCs5tlsoORduBh_7lb_quic9h3_bridge18stream_h1_response0s2_0B7_
FNDA:0,_RNCNCNvNtCs5tlsoORduBh_7lb_quic9h3_bridge18stream_h1_response0s3_0B7_
FNDA:0,_RNCNCNvNtCs5tlsoORduBh_7lb_quic9h3_bridge18stream_h1_response0s4_0B7_
FNDA:0,_RNCNCNvNtCs5tlsoORduBh_7lb_quic9h3_bridge18stream_h1_response0s5_0B7_
FNDA:0,_RNCNCNvNtCs5tlsoORduBh_7lb_quic9h3_bridge18stream_h1_response0s6_0B7_
FNDA:0,_RNCNCNvNtCs5tlsoORduBh_7lb_quic9h3_bridge18stream_h1_response0s7_0B7_
FNDA:0,_RNCNCNvNtCs5tlsoORduBh_7lb_quic9h3_bridge18stream_h1_response0s8_0B7_
FNDA:0,_RNCNCNvNtCs5tlsoORduBh_7lb_quic9h3_bridge18stream_h1_response0s_0B7_
FNDA:0,_RNCNCNvNtCs5tlsoORduBh_7lb_quic9h3_bridge23read_h1_response_capped00B7_
FNDA:0,_RNCNCNvNtCs5tlsoORduBh_7lb_quic9h3_bridge23read_h1_response_capped0s0_0B7_
FNDA:0,_RNCNCNvNtCs5tlsoORduBh_7lb_quic9h3_bridge23read_h1_response_capped0s_0B7_
FNDA:0,_RNCNvMs1_NtCs5tlsoORduBh_7lb_quic9h3_bridgeNtB7_9H3Request12from_headers0B9_
FNDA:0,_RNCNvMs1_NtCs5tlsoORduBh_7lb_quic9h3_bridgeNtB7_9H3Request12from_headerss_0B9_
FNDA:96,_RNCNvMs2_NtCs5tlsoORduBh_7lb_quic9h3_bridgeNtB7_12ChunkDecoder21parse_trailer_section0B9_
FNDA:0,_RNCNvMs2_NtCs5tlsoORduBh_7lb_quic9h3_bridgeNtB7_12ChunkDecoder21parse_trailer_sections_0B9_
FNDA:312,_RNCNvMs2_NtCs5tlsoORduBh_7lb_quic9h3_bridgeNtB7_12ChunkDecoder4feed0B9_
FNDA:0,_RNCNvMs2_NtCs5tlsoORduBh_7lb_quic9h3_bridgeNtB7_12ChunkDecoder4feeds0_0B9_
FNDA:1,_RNCNvMs2_NtCs5tlsoORduBh_7lb_quic9h3_bridgeNtB7_12ChunkDecoder4feeds1_0B9_
FNDA:19,_RNCNvMs2_NtCs5tlsoORduBh_7lb_quic9h3_bridgeNtB7_12ChunkDecoder4feeds_0B9_
FNDA:0,_RNCNvMs_NtCs5tlsoORduBh_7lb_quic9h3_bridgeNtB6_11StreamRxBuf4feed0B8_
FNDA:0,_RNCNvMs_NtCs5tlsoORduBh_7lb_quic9h3_bridgeNtB6_11StreamRxBuf9feed_body0B8_
FNDA:3,_RNCNvMs_NtCs5tlsoORduBh_7lb_quic9h3_bridgeNtB6_11StreamRxBuf9feed_bodys0_0B8_
FNDA:0,_RNCNvMs_NtCs5tlsoORduBh_7lb_quic9h3_bridgeNtB6_11StreamRxBuf9feed_bodys_0B8_
FNDA:0,_RNCNvNCNvNtCs5tlsoORduBh_7lb_quic9h3_bridge20h3_to_h1_stream_resp06inline0B9_
FNDA:34,_RNCNvNtCs5tlsoORduBh_7lb_quic9h3_bridge15find_header_sep0B5_
FNDA:0,_RNCNvNtCs5tlsoORduBh_7lb_quic9h3_bridge16write_body_chunk0B5_
FNDA:0,_RNCNvNtCs5tlsoORduBh_7lb_quic9h3_bridge16write_h1_request0B5_
FNDA:0,_RNCNvNtCs5tlsoORduBh_7lb_quic9h3_bridge17parse_status_line0B5_
FNDA:0,_RNCNvNtCs5tlsoORduBh_7lb_quic9h3_bridge18h3_to_h2_roundtrip0B5_
FNDA:0,_RNCNvNtCs5tlsoORduBh_7lb_quic9h3_bridge18h3_to_h3_roundtrip0B5_
FNDA:0,_RNCNvNtCs5tlsoORduBh_7lb_quic9h3_bridge18stream_h1_response0B5_
FNDA:0,_RNCNvNtCs5tlsoORduBh_7lb_quic9h3_bridge20encode_h3_data_frame0B5_
FNDA:0,_RNCNvNtCs5tlsoORduBh_7lb_quic9h3_bridge20h3_to_h1_stream_resp0B5_
FNDA:0,_RNCNvNtCs5tlsoORduBh_7lb_quic9h3_bridge23encode_h3_headers_frame0B5_
FNDA:0,_RNCNvNtCs5tlsoORduBh_7lb_quic9h3_bridge23encode_h3_headers_frames_0B5_
FNDA:2,_RNCNvNtCs5tlsoORduBh_7lb_quic9h3_bridge23read_h1_response_capped0B5_
FNDA:0,_RNCNvNtCs5tlsoORduBh_7lb_quic9h3_bridge24encode_h3_trailers_frame0B5_
FNDA:0,_RNCNvNtCs5tlsoORduBh_7lb_quic9h3_bridge24encode_h3_trailers_frames_0B5_
FNDA:1,_RNvNtNtCs5tlsoORduBh_7lb_quic9h3_bridge5testss_34chunk_decoder_decodes_split_chunks
FNDA:1,_RNvNtNtCs5tlsoORduBh_7lb_quic9h3_bridge5testss_35feed_body_accepts_valid_h3_trailers
FNDA:1,_RNvNtNtCs5tlsoORduBh_7lb_quic9h3_bridge5testss_39chunk_decoder_parses_trailer_section_c4
FNDA:1,_RNvNtNtCs5tlsoORduBh_7lb_quic9h3_bridge5testss_39chunk_decoder_tolerates_chunk_extension
FNDA:1,_RNvNtNtCs5tlsoORduBh_7lb_quic9h3_bridge5testss_41stream_rx_buf_accumulates_partial_headers
FNDA:1,_RNvNtNtCs5tlsoORduBh_7lb_quic9h3_bridge5testss_42chunk_decoder_rejects_malformed_framing_c3
FNDA:1,_RNvNtNtCs5tlsoORduBh_7lb_quic9h3_bridge5testss_43encode_h3_response_includes_status_and_body
FNDA:1,_RNvNtNtCs5tlsoORduBh_7lb_quic9h3_bridge5testss_46feed_body_rejects_pseudo_header_in_h3_trailers
FNDA:1,_RNvNtNtCs5tlsoORduBh_7lb_quic9h3_bridge5testss_49encode_h3_headers_frame_none_omits_content_length
FNDA:1,_RNvNtNtCs5tlsoORduBh_7lb_quic9h3_bridge5testss_53encode_h3_response_is_byte_identical_to_split_helpers
FNDA:1,_RNvNtNtCs5tlsoORduBh_7lb_quic9h3_bridge5testss_61read_h1_response_capped_rejects_over_cap_and_passes_under_cap
FNDA:1,_RNvNtNtCs5tlsoORduBh_7lb_quic9h3_bridge5testss_63build_h1_request_none_body_is_byte_identical_to_legacy_bodyless
FNDA:1,_RNvNtNtCs5tlsoORduBh_7lb_quic9h3_bridge5testss_76s2_target_build_h1_request_with_body_sets_content_length_and_appends_payload
FNF:106
FNH:72
DA:226,756
DA:227,756
DA:228,756
DA:273,74
DA:274,74
DA:277,34
DA:278,34
DA:279,40
DA:280,40
DA:282,40
DA:283,39
DA:284,39
DA:285,39
DA:286,39
DA:287,39
DA:288,39
DA:289,39
DA:290,39
DA:292,0
DA:293,0
DA:294,0
DA:295,0
DA:296,0
DA:297,0
DA:298,1
DA:299,0
DA:302,74
DA:324,673
DA:325,673
DA:326,673
DA:327,1
DA:328,1
DA:329,672
DA:330,672
DA:331,672
DA:332,672
DA:333,672
DA:334,672
DA:335,672
DA:336,672
DA:337,672
DA:338,672
DA:339,7
DA:340,665
DA:341,672
DA:342,672
DA:343,672
DA:344,1369
DA:345,699
DA:346,699
DA:347,19
DA:348,19
DA:349,19
DA:350,19
DA:351,19
DA:352,19
DA:353,19
DA:354,88
DA:355,19
DA:356,0
DA:358,69
DA:359,0
DA:361,69
DA:362,69
DA:363,69
DA:364,0
DA:365,0
DA:366,0
DA:367,0
DA:368,69
DA:372,19
DA:373,19
DA:377,0
DA:378,0
DA:380,19
DA:381,19
DA:382,19
DA:383,19
DA:384,16
DA:385,3
DA:386,3
DA:387,3
DA:388,3
DA:391,0
DA:396,677
DA:397,677
DA:399,0
DA:400,0
DA:401,677
DA:402,677
DA:403,677
DA:404,677
DA:405,677
DA:406,677
DA:407,677
DA:408,677
DA:409,677
DA:410,1
DA:411,1
DA:412,1
DA:413,676
DA:414,676
DA:415,676
DA:416,676
DA:417,676
DA:418,1352
DA:419,676
DA:420,676
DA:421,676
DA:422,676
DA:423,676
DA:424,676
DA:425,676
DA:426,676
DA:427,676
DA:428,14
DA:430,662
DA:434,3
DA:435,3
DA:436,3
DA:437,3
DA:438,3
DA:439,3
DA:440,3
DA:441,3
DA:442,3
DA:443,3
DA:444,0
DA:445,0
DA:446,0
DA:447,0
DA:448,3
DA:449,3
DA:450,3
DA:451,3
DA:452,3
DA:453,3
DA:454,3
DA:455,3
DA:465,5
DA:466,1
DA:467,2
DA:468,2
DA:469,2
DA:470,0
DA:471,0
DA:472,0
DA:473,0
DA:474,0
DA:475,0
DA:477,0
DA:478,0
DA:479,0
DA:480,0
DA:481,0
DA:482,0
DA:483,0
DA:484,0
DA:486,0
DA:491,670
DA:492,673
DA:500,88
DA:501,88
DA:502,69
DA:503,19
DA:504,0
DA:506,69
DA:507,69
DA:508,19
DA:509,50
DA:510,0
DA:512,19
DA:513,88
DA:518,1
DA:519,1
DA:520,1
DA:531,664
DA:532,664
DA:533,2
DA:534,0
DA:535,662
DA:537,664
DA:538,664
DA:558,669
DA:560,669
DA:561,669
DA:562,38
DA:563,38
DA:564,38
DA:565,38
DA:566,38
DA:567,38
DA:568,38
DA:569,0
DA:572,669
DA:595,86956
DA:597,86956
DA:598,86956
DA:599,18
DA:600,18
DA:601,18
DA:602,18
DA:603,18
DA:604,18
DA:605,18
DA:606,0
DA:609,86956
DA:637,0
DA:638,0
DA:639,0
DA:640,0
DA:641,0
DA:642,0
DA:643,0
DA:644,0
DA:645,0
DA:654,37
DA:655,37
DA:656,37
DA:657,37
DA:658,37
DA:659,185
DA:660,148
DA:661,148
DA:662,111
DA:663,74
DA:664,37
DA:665,37
DA:666,37
DA:667,0
DA:670,37
DA:671,37
DA:672,37
DA:673,37
DA:674,37
DA:675,37
DA:676,37
DA:677,37
DA:678,37
DA:679,37
DA:680,37
DA:681,37
DA:682,37
DA:701,3
DA:702,3
DA:703,3
DA:704,3
DA:705,3
DA:706,3
DA:707,3
DA:708,3
DA:709,3
DA:710,3
DA:711,3
DA:712,3
DA:713,3
DA:714,3
DA:715,3
DA:716,3
DA:717,3
DA:720,3
DA:721,3
DA:722,3
DA:723,3
DA:724,3
DA:725,3
DA:726,3
DA:727,3
DA:728,2
DA:729,2
DA:730,2
DA:731,2
DA:732,3
DA:733,3
DA:748,1
DA:749,1
DA:750,1
DA:751,1
DA:752,1
DA:753,1
DA:754,1
DA:755,1
DA:756,1
DA:757,1
DA:765,3
DA:766,3
DA:767,3
DA:769,21
DA:770,21
DA:771,21
DA:772,21
DA:773,21
DA:774,2
DA:775,19
DA:776,19
DA:777,19
DA:778,19
DA:779,19
DA:780,19
DA:781,19
DA:782,1
DA:783,1
DA:784,1
DA:785,1
DA:786,18
DA:791,2
DA:792,2
DA:793,2
DA:794,2
DA:795,2
DA:796,2
DA:797,2
DA:798,2
DA:799,2
DA:800,4
DA:801,2
DA:802,2
DA:803,2
DA:805,2
DA:806,2
DA:807,2
DA:808,2
DA:809,2
DA:810,3
DA:812,68
DA:813,1858
DA:814,68
DA:816,34
DA:817,34
DA:818,34
DA:819,34
DA:820,34
DA:821,34
DA:822,34
DA:839,12
DA:840,12
DA:841,12
DA:842,12
DA:843,12
DA:844,12
DA:845,12
DA:846,12
DA:866,49
DA:867,49
DA:868,49
DA:869,49
DA:870,49
DA:871,49
DA:872,49
DA:873,39
DA:874,39
DA:875,49
DA:876,49
DA:877,49
DA:878,49
DA:879,49
DA:889,18125
DA:890,18125
DA:891,18125
DA:892,18125
DA:893,18125
DA:894,18125
DA:912,2
DA:913,2
DA:914,2
DA:915,2
DA:916,2
DA:917,2
DA:983,21
DA:984,21
DA:985,21
DA:986,21
DA:987,21
DA:988,21
DA:989,21
DA:990,21
DA:991,21
DA:992,21
DA:997,7
DA:998,7
DA:999,7
DA:1005,115
DA:1006,115
DA:1008,246
DA:1012,0
DA:1013,246
DA:1014,246
DA:1021,76
DA:1022,170
DA:1023,170
DA:1026,30
DA:1027,0
DA:1029,30
DA:1030,2
DA:1031,28
DA:1032,28
DA:1033,28
DA:1035,88
DA:1036,88
DA:1037,29
DA:1038,59
DA:1039,59
DA:1040,59
DA:1041,0
DA:1043,59
DA:1044,59
DA:1045,59
DA:1049,413
DA:1050,3
DA:1051,0
DA:1052,3
DA:1053,3
DA:1055,49
DA:1056,1
DA:1057,48
DA:1058,48
DA:1059,0
DA:1063,89
DA:1064,48
DA:1065,48
DA:1066,48
DA:1067,48
DA:1068,1
DA:1069,47
DA:1070,44
DA:1071,47
DA:1072,44
DA:1073,44
DA:1082,13
DA:1083,13
DA:1084,31
DA:1085,31
DA:1089,115
DA:1107,76
DA:1110,83
DA:1111,72
DA:1112,1
DA:1113,71
DA:1114,71
DA:1115,11
DA:1116,972
DA:1119,66
DA:1120,0
DA:1121,66
DA:1122,66
DA:1124,16
DA:1126,7
DA:1127,7
DA:1128,7
DA:1129,9
DA:1130,9
DA:1131,9
DA:1135,9
DA:1136,8
DA:1137,8
DA:1138,1
DA:1139,7
DA:1140,7
DA:1141,7
DA:1142,7
DA:1143,7
DA:1144,0
DA:1145,7
DA:1146,7
DA:1147,7
DA:1149,76
DA:1186,33
DA:1187,33
DA:1188,33
DA:1189,33
DA:1190,33
DA:1195,2
DA:1201,33
DA:1202,33
DA:1203,32
DA:1204,66
DA:1205,32
DA:1206,34
DA:1207,34
DA:1208,0
DA:1209,0
DA:1210,34
DA:1211,34
DA:1212,34
DA:1214,0
DA:1215,0
DA:1218,34
DA:1220,1
DA:1221,1
DA:1222,33
DA:1223,33
DA:1227,32
DA:1228,32
DA:1229,32
DA:1230,32
DA:1231,0
DA:1232,0
DA:1233,32
DA:1234,32
DA:1235,32
DA:1236,0
DA:1237,0
DA:1238,0
DA:1241,32
DA:1242,32
DA:1243,32
DA:1244,32
DA:1245,32
DA:1247,32
DA:1248,0
DA:1249,0
DA:1250,0
DA:1253,32
DA:1254,32
DA:1255,87
DA:1256,55
DA:1257,0
DA:1259,55
DA:1260,55
DA:1261,23
DA:1262,23
DA:1264,0
DA:1265,0
DA:1268,32
DA:1269,9
DA:1270,23
DA:1274,32
DA:1275,9
DA:1276,0
DA:1277,0
DA:1278,9
DA:1279,9
DA:1280,23
DA:1281,23
DA:1283,0
DA:1287,32
DA:1288,23
DA:1289,9
DA:1291,32
DA:1292,32
DA:1294,0
DA:1295,0
DA:1298,32
DA:1299,32
DA:1300,0
DA:1301,0
DA:1302,32
DA:1303,32
DA:1304,32
DA:1328,32
DA:1329,23
DA:1330,23
DA:1331,23
DA:1332,23
DA:1333,21
DA:1335,0
DA:1336,0
DA:1337,21
DA:1338,21
DA:1339,21
DA:1340,21
DA:1341,2
DA:1342,18074
DA:1343,18059
DA:1344,18059
DA:1345,18059
DA:1346,18057
DA:1348,2
DA:1349,2
DA:1352,18057
DA:1354,2
DA:1355,2
DA:1356,18055
DA:1357,18055
DA:1358,18055
DA:1359,18055
DA:1363,9
DA:1364,9
DA:1365,9
DA:1366,9
DA:1367,9
DA:1368,3
DA:1369,3
DA:1370,6
DA:1371,6
DA:1372,6
DA:1373,6
DA:1374,0
DA:1375,0
DA:1382,95
DA:1383,91
DA:1384,91
DA:1386,0
DA:1387,0
DA:1390,91
DA:1393,2
DA:1394,2
DA:1395,89
DA:1396,89
DA:1397,0
DA:1398,0
DA:1399,89
DA:1400,89
DA:1401,27
DA:1402,27
DA:1403,62
DA:1413,4
DA:1414,4
DA:1415,2
DA:1416,2
DA:1418,0
DA:1419,0
DA:1422,2
DA:1423,2
DA:1424,0
DA:1425,0
DA:1426,2
DA:1427,2
DA:1428,2
DA:1431,0
DA:1432,0
DA:1433,0
DA:1434,0
DA:1436,0
DA:1437,0
DA:1439,0
DA:1440,0
DA:1443,0
DA:1444,0
DA:1445,0
DA:1446,0
DA:1447,0
DA:1453,19
DA:1454,19
DA:1455,33
DA:1480,1
DA:1481,1
DA:1482,1
DA:1483,1
DA:1484,1
DA:1485,1
DA:1486,1
DA:1487,1
DA:1488,0
DA:1489,0
DA:1490,0
DA:1493,1
DA:1494,1
DA:1495,1
DA:1496,1
DA:1497,1
DA:1498,1
DA:1499,0
DA:1500,0
DA:1501,0
DA:1502,1
DA:1503,1
DA:1504,0
DA:1505,0
DA:1506,0
DA:1507,1
DA:1508,1
DA:1509,1
DA:1510,0
DA:1511,0
DA:1512,0
DA:1513,0
DA:1518,1
DA:1519,1
DA:1520,1
DA:1532,37
DA:1533,37
DA:1534,37
DA:1535,37
DA:1536,37
DA:1537,37
DA:1538,37
DA:1539,37
DA:1540,37
DA:1541,37
DA:1542,37
DA:1543,37
DA:1544,28
DA:1545,1
DA:1546,1
DA:1547,1
DA:1548,1
DA:1549,1
DA:1550,8
DA:1552,37
DA:1553,37
DA:1554,37
DA:1555,37
DA:1577,697
DA:1579,697
DA:1580,697
DA:1581,14
DA:1582,14
DA:1583,14
DA:1584,14
DA:1585,14
DA:1586,14
DA:1587,14
DA:1588,0
DA:1591,697
DA:1601,669
DA:1602,669
DA:1603,0
DA:1604,669
DA:1605,669
DA:1606,668
DA:1607,668
DA:1608,667
DA:1609,667
DA:1611,1
DA:1613,668
DA:1614,669
DA:1672,37
DA:1673,37
DA:1674,37
DA:1675,37
DA:1676,37
DA:1679,37
DA:1680,37
DA:1682,28
DA:1687,0
DA:1689,9
DA:1690,9
DA:1691,1
DA:1692,1
DA:1694,0
DA:1696,9
DA:1697,9
DA:1698,1
DA:1699,8
DA:1703,37
DA:1704,37
DA:1705,37
DA:1706,37
DA:1708,37
DA:1709,0
DA:1710,0
DA:1711,37
DA:1713,37
DA:1714,9
DA:1715,0
DA:1716,0
DA:1717,9
DA:1718,28
DA:1725,37
DA:1726,696
DA:1727,668
DA:1728,660
DA:1729,660
DA:1730,660
DA:1731,1
DA:1732,1
DA:1733,659
DA:1761,5
DA:1762,5
DA:1783,3
DA:1784,0
DA:1785,0
DA:1787,3
DA:1791,33
DA:1795,0
DA:1796,0
DA:1797,33
DA:1798,33
DA:1799,5
DA:1800,0
DA:1801,0
DA:1802,5
DA:1803,28
DA:1805,33
DA:1806,0
DA:1807,0
DA:1808,33
DA:1809,33
DA:1810,37
DA:1834,2
DA:1835,2
DA:1836,2
DA:1837,2
DA:1838,2
DA:1839,2
DA:1840,2
DA:1841,2
DA:1842,2
DA:1843,0
DA:1844,0
DA:1845,0
DA:1850,0
DA:1851,2
DA:1852,2
DA:1853,2
DA:1855,2
DA:1856,0
DA:1857,0
DA:1858,0
DA:1859,0
DA:1860,0
DA:1861,0
DA:1864,2
DA:1865,2
DA:1866,2
DA:1867,2
DA:1868,2
DA:1869,2
DA:1870,2
DA:1871,2
DA:1876,0
DA:1877,0
DA:1882,0
DA:1883,0
DA:1884,2
DA:1915,35
DA:1916,35
DA:1917,35
DA:1918,35
DA:1919,35
DA:1920,35
DA:1921,35
DA:1922,35
DA:1926,2
DA:1927,2
DA:1928,2
DA:1929,2
DA:1931,0
DA:1933,2
DA:1935,35
DA:1936,35
DA:1937,0
DA:1938,0
DA:1939,0
DA:1941,0
DA:1945,33
DA:1946,35
DA:1947,0
DA:1948,0
DA:1949,0
DA:1952,35
DA:1958,33
DA:1960,1
DA:1961,1
DA:1963,1
DA:1964,1
DA:1967,1
DA:1968,1
DA:1969,1
DA:1980,33
DA:1981,33
DA:1982,35
DA:2013,0
DA:2014,0
DA:2015,0
DA:2016,0
DA:2017,0
DA:2018,0
DA:2019,0
DA:2020,0
DA:2041,0
DA:2042,0
DA:2043,0
DA:2044,0
DA:2045,0
DA:2046,0
DA:2047,0
DA:2048,0
DA:2049,0
DA:2051,0
DA:2052,0
DA:2053,0
DA:2054,0
DA:2055,0
DA:2058,0
DA:2059,0
DA:2060,0
DA:2063,0
DA:2064,0
DA:2065,0
DA:2067,0
DA:2068,0
DA:2070,0
DA:2071,0
DA:2073,0
DA:2074,0
DA:2075,0
DA:2076,0
DA:2077,0
DA:2084,0
DA:2085,0
DA:2087,0
DA:2088,0
DA:2090,0
DA:2091,0
DA:2092,0
DA:2093,0
DA:2094,0
DA:2097,0
DA:2098,0
DA:2099,0
DA:2100,0
DA:2101,0
DA:2102,0
DA:2103,0
DA:2104,0
DA:2105,0
DA:2106,0
DA:2107,0
DA:2108,0
DA:2109,0
DA:2112,0
DA:2113,0
DA:2114,0
DA:2115,0
DA:2116,0
DA:2117,0
DA:2118,0
DA:2119,0
DA:2120,0
DA:2121,0
DA:2123,0
DA:2124,0
DA:2125,0
DA:2126,0
DA:2127,0
DA:2132,0
DA:2133,0
DA:2134,0
DA:2135,0
DA:2136,0
DA:2137,0
DA:2138,0
DA:2139,0
DA:2140,0
DA:2141,0
DA:2142,0
DA:2144,0
DA:2145,0
DA:2146,0
DA:2147,0
DA:2148,0
DA:2149,0
DA:2152,0
DA:2153,0
DA:2154,0
DA:2155,0
DA:2156,0
DA:2157,0
DA:2158,0
DA:2159,0
DA:2160,0
DA:2161,0
DA:2162,0
DA:2167,0
DA:2168,0
DA:2169,0
DA:2170,0
DA:2171,0
DA:2172,0
DA:2173,0
DA:2174,0
DA:2175,0
DA:2176,0
DA:2177,0
DA:2178,0
DA:2179,0
DA:2180,0
DA:2181,0
DA:2182,0
DA:2183,0
DA:2184,0
DA:2185,0
DA:2186,0
DA:2187,0
DA:2188,0
DA:2189,0
DA:2191,0
DA:2193,0
DA:2194,0
DA:2195,0
DA:2196,0
DA:2197,0
DA:2198,0
DA:2199,0
DA:2200,0
DA:2202,0
DA:2203,0
DA:2204,0
DA:2205,0
DA:2206,0
DA:2207,0
DA:2208,0
DA:2209,0
DA:2210,0
DA:2211,0
DA:2212,0
DA:2213,0
DA:2214,0
DA:2215,0
DA:2216,0
DA:2217,0
DA:2218,0
DA:2219,0
DA:2220,0
DA:2221,0
DA:2222,0
DA:2225,0
DA:2226,0
DA:2227,0
DA:2231,0
DA:2232,0
DA:2233,0
DA:2234,0
DA:2235,0
DA:2236,0
DA:2237,0
DA:2238,0
DA:2239,0
DA:2248,0
DA:2249,0
DA:2250,0
DA:2251,0
DA:2252,0
DA:2253,0
DA:2257,0
DA:2258,0
DA:2259,0
DA:2261,0
DA:2263,0
DA:2264,0
DA:2265,0
DA:2266,0
DA:2267,0
DA:2268,0
DA:2269,0
DA:2271,0
DA:2272,0
DA:2273,0
DA:2274,0
DA:2275,0
DA:2276,0
DA:2279,0
DA:2280,0
DA:2281,0
DA:2282,0
DA:2283,0
DA:2287,0
DA:2288,0
DA:2289,0
DA:2290,0
DA:2291,0
DA:2292,0
DA:2295,0
DA:2296,0
DA:2311,0
DA:2312,0
DA:2313,0
DA:2314,0
DA:2315,0
DA:2316,0
DA:2317,0
DA:2318,0
DA:2319,0
DA:2320,0
DA:2321,0
DA:2325,0
DA:2326,0
DA:2327,0
DA:2331,0
DA:2332,0
DA:2333,0
DA:2334,0
DA:2335,0
DA:2336,0
DA:2338,0
DA:2340,0
DA:2341,0
DA:2342,0
DA:2343,0
DA:2345,0
DA:2346,0
DA:2351,0
DA:2352,0
DA:2353,0
DA:2354,0
DA:2355,0
DA:2356,0
DA:2358,0
DA:2363,0
DA:2364,0
DA:2365,0
DA:2366,0
DA:2367,0
DA:2368,0
DA:2369,0
DA:2370,0
DA:2371,0
DA:2372,0
DA:2374,0
DA:2375,0
DA:2376,0
DA:2377,0
DA:2378,0
DA:2384,0
DA:2385,0
DA:2386,0
DA:2387,0
DA:2388,0
DA:2389,0
DA:2390,0
DA:2391,0
DA:2393,0
DA:2395,0
DA:2396,0
DA:2397,0
DA:2398,0
DA:2399,0
DA:2403,0
DA:2404,0
DA:2405,0
DA:2406,0
DA:2407,0
DA:2408,0
DA:2409,0
DA:2410,0
DA:2411,0
DA:2416,0
DA:2417,0
DA:2418,0
DA:2419,0
DA:2420,0
DA:2421,0
DA:2422,0
DA:2423,0
DA:2424,0
DA:2425,0
DA:2427,0
DA:2429,0
DA:2430,0
DA:2431,0
DA:2432,0
DA:2433,0
DA:2434,0
DA:2435,0
DA:2436,0
DA:2438,0
DA:2439,0
DA:2440,0
DA:2441,0
DA:2442,0
DA:2443,0
DA:2444,0
DA:2445,0
DA:2446,0
DA:2447,0
DA:2448,0
DA:2449,0
DA:2450,0
DA:2451,0
DA:2452,0
DA:2453,0
DA:2454,0
DA:2455,0
DA:2456,0
DA:2457,0
DA:2458,0
DA:2461,0
DA:2462,0
DA:2463,0
DA:2465,0
DA:2473,0
DA:2474,0
DA:2475,0
DA:2476,0
DA:2477,0
DA:2484,1
DA:2485,1
DA:2486,1
DA:2487,1
DA:2488,1
DA:2489,1
DA:2490,1
DA:2491,0
DA:2493,1
DA:2494,1
DA:2495,1
DA:2496,1
DA:2497,1
DA:2498,2
DA:2499,1
DA:2500,1
DA:2501,1
DA:2502,0
DA:2504,1
DA:2507,1
DA:2508,1
DA:2509,1
DA:2510,1
DA:2511,1
DA:2512,1
DA:2513,1
DA:2514,1
DA:2515,1
DA:2516,1
DA:2517,1
DA:2518,1
DA:2519,1
DA:2520,1
DA:2521,1
DA:2522,1
DA:2523,1
DA:2524,1
DA:2525,1
DA:2548,1
DA:2549,1
DA:2550,1
DA:2551,1
DA:2552,1
DA:2553,1
DA:2554,1
DA:2555,1
DA:2556,1
DA:2557,1
DA:2558,1
DA:2559,1
DA:2560,1
DA:2561,1
DA:2562,1
DA:2563,1
DA:2564,1
DA:2565,1
DA:2566,1
DA:2567,1
DA:2584,1
DA:2585,1
DA:2586,1
DA:2587,1
DA:2588,1
DA:2589,1
DA:2590,1
DA:2591,1
DA:2592,1
DA:2593,1
DA:2594,1
DA:2595,1
DA:2596,1
DA:2597,1
DA:2598,1
DA:2599,1
DA:2600,1
DA:2601,1
DA:2602,1
DA:2603,1
DA:2604,1
DA:2605,1
DA:2606,1
DA:2607,1
DA:2608,1
DA:2609,1
DA:2610,1
DA:2611,1
DA:2612,1
DA:2613,1
DA:2614,1
DA:2615,1
DA:2616,1
DA:2617,1
DA:2618,1
DA:2619,1
DA:2620,1
DA:2621,1
DA:2622,1
DA:2623,1
DA:2624,1
DA:2625,1
DA:2626,1
DA:2627,1
DA:2628,1
DA:2629,1
DA:2630,1
DA:2631,1
DA:2632,1
DA:2633,1
DA:2634,1
DA:2635,1
DA:2636,1
DA:2637,1
DA:2638,1
DA:2639,1
DA:2640,1
DA:2641,1
DA:2642,1
DA:2650,1
DA:2651,1
DA:2652,1
DA:2653,1
DA:2654,1
DA:2655,1
DA:2656,1
DA:2657,1
DA:2658,1
DA:2659,1
DA:2660,1
DA:2661,1
DA:2662,1
DA:2663,1
DA:2664,1
DA:2665,1
DA:2666,1
DA:2667,1
DA:2668,1
DA:2669,1
DA:2670,1
DA:2671,1
DA:2672,1
DA:2673,1
DA:2674,1
DA:2675,0
DA:2677,1
DA:2683,1
DA:2684,1
DA:2685,1
DA:2686,1
DA:2687,1
DA:2688,1
DA:2689,1
DA:2690,1
DA:2691,1
DA:2692,1
DA:2693,1
DA:2694,1
DA:2695,1
DA:2696,1
DA:2697,1
DA:2698,1
DA:2699,1
DA:2700,1
DA:2701,1
DA:2702,1
DA:2703,1
DA:2704,1
DA:2705,0
DA:2707,1
DA:2710,1
DA:2711,1
DA:2712,1
DA:2713,1
DA:2714,1
DA:2715,1
DA:2716,1
DA:2717,1
DA:2718,1
DA:2719,1
DA:2720,1
DA:2721,1
DA:2722,1
DA:2723,1
DA:2724,1
DA:2725,1
DA:2726,1
DA:2728,1
DA:2729,1
DA:2730,1
DA:2737,1
DA:2738,4
DA:2739,1
DA:2740,1
DA:2741,1
DA:2742,1
DA:2744,4
DA:2745,4
DA:2746,4
DA:2747,4
DA:2748,4
DA:2750,1
DA:2754,1
DA:2755,1
DA:2756,1
DA:2757,1
DA:2758,0
DA:2760,1
DA:2761,1
DA:2762,1
DA:2763,1
DA:2764,0
DA:2766,1
DA:2771,1
DA:2772,1
DA:2773,1
DA:2774,1
DA:2775,1
DA:2776,1
DA:2777,1
DA:2778,1
DA:2779,1
DA:2780,1
DA:2781,1
DA:2787,1
DA:2788,1
DA:2789,1
DA:2790,1
DA:2791,1
DA:2792,1
DA:2793,1
DA:2795,1
DA:2796,1
DA:2797,1
DA:2798,1
DA:2799,1
DA:2801,1
DA:2802,1
DA:2803,1
DA:2805,1
DA:2806,1
DA:2807,1
DA:2808,1
DA:2809,1
DA:2810,1
DA:2811,1
DA:2817,1
DA:2818,1
DA:2819,1
DA:2820,1
DA:2821,1
DA:2822,1
DA:2823,1
DA:2824,1
DA:2833,1
DA:2834,1
DA:2835,1
DA:2836,1
DA:2837,1
DA:2838,1
DA:2839,1
DA:2840,1
DA:2841,1
DA:2842,1
DA:2843,1
DA:2844,1
DA:2845,1
DA:2846,1
DA:2847,1
DA:2848,1
DA:2849,1
DA:2850,1
DA:2854,1
DA:2855,1
DA:2856,1
DA:2857,1
DA:2858,1
DA:2859,1
DA:2860,1
DA:2861,1
DA:2862,1
DA:2863,1
DA:2864,1
DA:2865,1
DA:2866,1
DA:2867,1
DA:2870,1
DA:2871,1
DA:2872,1
DA:2873,1
DA:2874,1
DA:2875,1
DA:2880,1
DA:2881,1
DA:2882,1
DA:2883,1
DA:2884,1
DA:2888,1
DA:2889,1
DA:2890,1
DA:2891,1
DA:2892,1
DA:2896,1
DA:2897,1
DA:2898,1
DA:2899,1
DA:2900,1
DA:2901,1
DA:2902,1
DA:2903,1
DA:2904,1
BRF:0
BRH:0
LF:1592
LH:1072
end_of_record
SF:/home/ubuntu/Code/eg-verifier/crates/lb-quic/src/lib.rs
FN:481,_RNCNvCseagxtsvVhuF_7lb_quic11random_scid0B3_
FN:447,_RNCNvCseagxtsvVhuF_7lb_quic12build_config0B3_
FN:461,_RNCNvCseagxtsvVhuF_7lb_quic12build_configs0_0B3_
FN:450,_RNCNvCseagxtsvVhuF_7lb_quic12build_configs_0B3_
FN:542,_RINvCseagxtsvVhuF_7lb_quic5driveppEB2_
FN:550,_RNCINvCseagxtsvVhuF_7lb_quic5driveppE0B4_
FN:578,_RNCNCINvCseagxtsvVhuF_7lb_quic5driveppE00B6_
FN:839,_RNCNCNvCseagxtsvVhuF_7lb_quic16roundtrip_stream00B5_
FN:854,_RNCNCNvCseagxtsvVhuF_7lb_quic16roundtrip_stream0s_0B5_
FN:614,_RNCNCNvCseagxtsvVhuF_7lb_quic17server_accept_one00B5_
FN:763,_RNCNCNvCseagxtsvVhuF_7lb_quic18roundtrip_datagram00B5_
FN:778,_RNCNCNvCseagxtsvVhuF_7lb_quic18roundtrip_datagram0s_0B5_
FN:688,_RNCNCNvCseagxtsvVhuF_7lb_quic18server_stream_task00B5_
FN:661,_RNCNCNvCseagxtsvVhuF_7lb_quic20server_datagram_task00B5_
FN:644,_RNCNvCseagxtsvVhuF_7lb_quic14graceful_close0B3_
FN:804,_RNCNvCseagxtsvVhuF_7lb_quic16roundtrip_stream0B3_
FN:606,_RNCNvCseagxtsvVhuF_7lb_quic17server_accept_one0B3_
FN:732,_RNCNvCseagxtsvVhuF_7lb_quic18roundtrip_datagram0B3_
FN:686,_RNCNvCseagxtsvVhuF_7lb_quic18server_stream_task0B3_
FN:659,_RNCNvCseagxtsvVhuF_7lb_quic20server_datagram_task0B3_
FN:523,_RNCNvCseagxtsvVhuF_7lb_quic21flush_out_best_effort0B3_
FN:501,_RNCNvCseagxtsvVhuF_7lb_quic9flush_out0B3_
FN:348,_RNCNvMs_CseagxtsvVhuF_7lb_quicNtB6_12QuicEndpoint18client_on_loopback0B6_
FN:325,_RNCNvMs_CseagxtsvVhuF_7lb_quicNtB6_12QuicEndpoint18server_on_loopback0B6_
FN:477,_RNvCseagxtsvVhuF_7lb_quic11random_scid
FN:426,_RNvCseagxtsvVhuF_7lb_quic12build_config
FN:264,_RNvCseagxtsvVhuF_7lb_quic14forward_stream
FN:644,_RNvCseagxtsvVhuF_7lb_quic14graceful_close
FN:251,_RNvCseagxtsvVhuF_7lb_quic16forward_datagram
FN:800,_RNvCseagxtsvVhuF_7lb_quic16roundtrip_stream
FN:602,_RNvCseagxtsvVhuF_7lb_quic17server_accept_one
FN:728,_RNvCseagxtsvVhuF_7lb_quic18roundtrip_datagram
FN:682,_RNvCseagxtsvVhuF_7lb_quic18server_stream_task
FN:655,_RNvCseagxtsvVhuF_7lb_quic20server_datagram_task
FN:519,_RNvCseagxtsvVhuF_7lb_quic21flush_out_best_effort
FN:176,_RNvCseagxtsvVhuF_7lb_quic6prefix
FN:497,_RNvCseagxtsvVhuF_7lb_quic9flush_out
FN:363,_RNvMs_CseagxtsvVhuF_7lb_quicNtB4_12QuicEndpoint10local_addr
FN:400,_RNvMs_CseagxtsvVhuF_7lb_quicNtB4_12QuicEndpoint12retry_signer
FN:407,_RNvMs_CseagxtsvVhuF_7lb_quicNtB4_12QuicEndpoint13replay_filter
FN:378,_RNvMs_CseagxtsvVhuF_7lb_quicNtB4_12QuicEndpoint17with_retry_signer
FN:348,_RNvMs_CseagxtsvVhuF_7lb_quicNtB4_12QuicEndpoint18client_on_loopback
FN:322,_RNvMs_CseagxtsvVhuF_7lb_quicNtB4_12QuicEndpoint18server_on_loopback
FN:392,_RNvMs_CseagxtsvVhuF_7lb_quicNtB4_12QuicEndpoint18with_replay_filter
FN:301,_RNvXCseagxtsvVhuF_7lb_quicNtB2_12QuicEndpointNtNtCs2va5m0jqTTM_4core3fmt5Debug3fmt
FN:542,_RINvCs5tlsoORduBh_7lb_quic5driveppEB2_
FN:550,_RNCINvCs5tlsoORduBh_7lb_quic5driveppE0B4_
FN:578,_RNCNCINvCs5tlsoORduBh_7lb_quic5driveppE00B6_
FN:839,_RNCNCNvCs5tlsoORduBh_7lb_quic16roundtrip_stream00B5_
FN:854,_RNCNCNvCs5tlsoORduBh_7lb_quic16roundtrip_stream0s_0B5_
FN:614,_RNCNCNvCs5tlsoORduBh_7lb_quic17server_accept_one00B5_
FN:763,_RNCNCNvCs5tlsoORduBh_7lb_quic18roundtrip_datagram00B5_
FN:778,_RNCNCNvCs5tlsoORduBh_7lb_quic18roundtrip_datagram0s_0B5_
FN:688,_RNCNCNvCs5tlsoORduBh_7lb_quic18server_stream_task00B5_
FN:661,_RNCNCNvCs5tlsoORduBh_7lb_quic20server_datagram_task00B5_
FN:481,_RNCNvCs5tlsoORduBh_7lb_quic11random_scid0B3_
FN:447,_RNCNvCs5tlsoORduBh_7lb_quic12build_config0B3_
FN:461,_RNCNvCs5tlsoORduBh_7lb_quic12build_configs0_0B3_
FN:450,_RNCNvCs5tlsoORduBh_7lb_quic12build_configs_0B3_
FN:644,_RNCNvCs5tlsoORduBh_7lb_quic14graceful_close0B3_
FN:804,_RNCNvCs5tlsoORduBh_7lb_quic16roundtrip_stream0B3_
FN:606,_RNCNvCs5tlsoORduBh_7lb_quic17server_accept_one0B3_
FN:732,_RNCNvCs5tlsoORduBh_7lb_quic18roundtrip_datagram0B3_
FN:686,_RNCNvCs5tlsoORduBh_7lb_quic18server_stream_task0B3_
FN:659,_RNCNvCs5tlsoORduBh_7lb_quic20server_datagram_task0B3_
FN:523,_RNCNvCs5tlsoORduBh_7lb_quic21flush_out_best_effort0B3_
FN:501,_RNCNvCs5tlsoORduBh_7lb_quic9flush_out0B3_
FN:348,_RNCNvMs_Cs5tlsoORduBh_7lb_quicNtB6_12QuicEndpoint18client_on_loopback0B6_
FN:325,_RNCNvMs_Cs5tlsoORduBh_7lb_quicNtB6_12QuicEndpoint18server_on_loopback0B6_
FN:477,_RNvCs5tlsoORduBh_7lb_quic11random_scid
FN:426,_RNvCs5tlsoORduBh_7lb_quic12build_config
FN:644,_RNvCs5tlsoORduBh_7lb_quic14graceful_close
FN:800,_RNvCs5tlsoORduBh_7lb_quic16roundtrip_stream
FN:602,_RNvCs5tlsoORduBh_7lb_quic17server_accept_one
FN:728,_RNvCs5tlsoORduBh_7lb_quic18roundtrip_datagram
FN:682,_RNvCs5tlsoORduBh_7lb_quic18server_stream_task
FN:655,_RNvCs5tlsoORduBh_7lb_quic20server_datagram_task
FN:519,_RNvCs5tlsoORduBh_7lb_quic21flush_out_best_effort
FN:176,_RNvCs5tlsoORduBh_7lb_quic6prefix
FN:497,_RNvCs5tlsoORduBh_7lb_quic9flush_out
FN:363,_RNvMs_Cs5tlsoORduBh_7lb_quicNtB4_12QuicEndpoint10local_addr
FN:400,_RNvMs_Cs5tlsoORduBh_7lb_quicNtB4_12QuicEndpoint12retry_signer
FN:407,_RNvMs_Cs5tlsoORduBh_7lb_quicNtB4_12QuicEndpoint13replay_filter
FN:378,_RNvMs_Cs5tlsoORduBh_7lb_quicNtB4_12QuicEndpoint17with_retry_signer
FN:348,_RNvMs_Cs5tlsoORduBh_7lb_quicNtB4_12QuicEndpoint18client_on_loopback
FN:322,_RNvMs_Cs5tlsoORduBh_7lb_quicNtB4_12QuicEndpoint18server_on_loopback
FN:392,_RNvMs_Cs5tlsoORduBh_7lb_quicNtB4_12QuicEndpoint18with_replay_filter
FN:301,_RNvXCs5tlsoORduBh_7lb_quicNtB2_12QuicEndpointNtNtCs2va5m0jqTTM_4core3fmt5Debug3fmt
FN:889,_RNvNtCs5tlsoORduBh_7lb_quic5testss_17stream_forward_ok
FN:869,_RNvNtCs5tlsoORduBh_7lb_quic5testss_19datagram_forward_ok
FN:901,_RNvNtCs5tlsoORduBh_7lb_quic5testss_21stream_empty_rejected
FN:880,_RNvNtCs5tlsoORduBh_7lb_quic5testss_23datagram_empty_rejected
FN:264,_RNvCs5tlsoORduBh_7lb_quic14forward_stream
FN:251,_RNvCs5tlsoORduBh_7lb_quic16forward_datagram
FNDA:0,_RNCNvCseagxtsvVhuF_7lb_quic11random_scid0B3_
FNDA:0,_RNCNvCseagxtsvVhuF_7lb_quic12build_config0B3_
FNDA:0,_RNCNvCseagxtsvVhuF_7lb_quic12build_configs0_0B3_
FNDA:0,_RNCNvCseagxtsvVhuF_7lb_quic12build_configs_0B3_
FNDA:0,_RINvCseagxtsvVhuF_7lb_quic5driveppEB2_
FNDA:0,_RNCINvCseagxtsvVhuF_7lb_quic5driveppE0B4_
FNDA:0,_RNCNCINvCseagxtsvVhuF_7lb_quic5driveppE00B6_
FNDA:0,_RNCNCNvCseagxtsvVhuF_7lb_quic16roundtrip_stream00B5_
FNDA:0,_RNCNCNvCseagxtsvVhuF_7lb_quic16roundtrip_stream0s_0B5_
FNDA:0,_RNCNCNvCseagxtsvVhuF_7lb_quic17server_accept_one00B5_
FNDA:0,_RNCNCNvCseagxtsvVhuF_7lb_quic18roundtrip_datagram00B5_
FNDA:0,_RNCNCNvCseagxtsvVhuF_7lb_quic18roundtrip_datagram0s_0B5_
FNDA:0,_RNCNCNvCseagxtsvVhuF_7lb_quic18server_stream_task00B5_
FNDA:0,_RNCNCNvCseagxtsvVhuF_7lb_quic20server_datagram_task00B5_
FNDA:0,_RNCNvCseagxtsvVhuF_7lb_quic14graceful_close0B3_
FNDA:0,_RNCNvCseagxtsvVhuF_7lb_quic16roundtrip_stream0B3_
FNDA:0,_RNCNvCseagxtsvVhuF_7lb_quic17server_accept_one0B3_
FNDA:0,_RNCNvCseagxtsvVhuF_7lb_quic18roundtrip_datagram0B3_
FNDA:0,_RNCNvCseagxtsvVhuF_7lb_quic18server_stream_task0B3_
FNDA:0,_RNCNvCseagxtsvVhuF_7lb_quic20server_datagram_task0B3_
FNDA:0,_RNCNvCseagxtsvVhuF_7lb_quic21flush_out_best_effort0B3_
FNDA:0,_RNCNvCseagxtsvVhuF_7lb_quic9flush_out0B3_
FNDA:0,_RNCNvMs_CseagxtsvVhuF_7lb_quicNtB6_12QuicEndpoint18client_on_loopback0B6_
FNDA:0,_RNCNvMs_CseagxtsvVhuF_7lb_quicNtB6_12QuicEndpoint18server_on_loopback0B6_
FNDA:0,_RNvCseagxtsvVhuF_7lb_quic11random_scid
FNDA:0,_RNvCseagxtsvVhuF_7lb_quic12build_config
FNDA:0,_RNvCseagxtsvVhuF_7lb_quic14forward_stream
FNDA:0,_RNvCseagxtsvVhuF_7lb_quic14graceful_close
FNDA:0,_RNvCseagxtsvVhuF_7lb_quic16forward_datagram
FNDA:0,_RNvCseagxtsvVhuF_7lb_quic16roundtrip_stream
FNDA:0,_RNvCseagxtsvVhuF_7lb_quic17server_accept_one
FNDA:0,_RNvCseagxtsvVhuF_7lb_quic18roundtrip_datagram
FNDA:0,_RNvCseagxtsvVhuF_7lb_quic18server_stream_task
FNDA:0,_RNvCseagxtsvVhuF_7lb_quic20server_datagram_task
FNDA:0,_RNvCseagxtsvVhuF_7lb_quic21flush_out_best_effort
FNDA:0,_RNvCseagxtsvVhuF_7lb_quic6prefix
FNDA:0,_RNvCseagxtsvVhuF_7lb_quic9flush_out
FNDA:0,_RNvMs_CseagxtsvVhuF_7lb_quicNtB4_12QuicEndpoint10local_addr
FNDA:0,_RNvMs_CseagxtsvVhuF_7lb_quicNtB4_12QuicEndpoint12retry_signer
FNDA:0,_RNvMs_CseagxtsvVhuF_7lb_quicNtB4_12QuicEndpoint13replay_filter
FNDA:0,_RNvMs_CseagxtsvVhuF_7lb_quicNtB4_12QuicEndpoint17with_retry_signer
FNDA:0,_RNvMs_CseagxtsvVhuF_7lb_quicNtB4_12QuicEndpoint18client_on_loopback
FNDA:0,_RNvMs_CseagxtsvVhuF_7lb_quicNtB4_12QuicEndpoint18server_on_loopback
FNDA:0,_RNvMs_CseagxtsvVhuF_7lb_quicNtB4_12QuicEndpoint18with_replay_filter
FNDA:0,_RNvXCseagxtsvVhuF_7lb_quicNtB2_12QuicEndpointNtNtCs2va5m0jqTTM_4core3fmt5Debug3fmt
FNDA:0,_RINvCs5tlsoORduBh_7lb_quic5driveppEB2_
FNDA:0,_RNCINvCs5tlsoORduBh_7lb_quic5driveppE0B4_
FNDA:0,_RNCNCINvCs5tlsoORduBh_7lb_quic5driveppE00B6_
FNDA:0,_RNCNCNvCs5tlsoORduBh_7lb_quic16roundtrip_stream00B5_
FNDA:0,_RNCNCNvCs5tlsoORduBh_7lb_quic16roundtrip_stream0s_0B5_
FNDA:0,_RNCNCNvCs5tlsoORduBh_7lb_quic17server_accept_one00B5_
FNDA:0,_RNCNCNvCs5tlsoORduBh_7lb_quic18roundtrip_datagram00B5_
FNDA:0,_RNCNCNvCs5tlsoORduBh_7lb_quic18roundtrip_datagram0s_0B5_
FNDA:0,_RNCNCNvCs5tlsoORduBh_7lb_quic18server_stream_task00B5_
FNDA:0,_RNCNCNvCs5tlsoORduBh_7lb_quic20server_datagram_task00B5_
FNDA:0,_RNCNvCs5tlsoORduBh_7lb_quic11random_scid0B3_
FNDA:0,_RNCNvCs5tlsoORduBh_7lb_quic12build_config0B3_
FNDA:0,_RNCNvCs5tlsoORduBh_7lb_quic12build_configs0_0B3_
FNDA:0,_RNCNvCs5tlsoORduBh_7lb_quic12build_configs_0B3_
FNDA:0,_RNCNvCs5tlsoORduBh_7lb_quic14graceful_close0B3_
FNDA:0,_RNCNvCs5tlsoORduBh_7lb_quic16roundtrip_stream0B3_
FNDA:0,_RNCNvCs5tlsoORduBh_7lb_quic17server_accept_one0B3_
FNDA:0,_RNCNvCs5tlsoORduBh_7lb_quic18roundtrip_datagram0B3_
FNDA:0,_RNCNvCs5tlsoORduBh_7lb_quic18server_stream_task0B3_
FNDA:0,_RNCNvCs5tlsoORduBh_7lb_quic20server_datagram_task0B3_
FNDA:0,_RNCNvCs5tlsoORduBh_7lb_quic21flush_out_best_effort0B3_
FNDA:0,_RNCNvCs5tlsoORduBh_7lb_quic9flush_out0B3_
FNDA:0,_RNCNvMs_Cs5tlsoORduBh_7lb_quicNtB6_12QuicEndpoint18client_on_loopback0B6_
FNDA:0,_RNCNvMs_Cs5tlsoORduBh_7lb_quicNtB6_12QuicEndpoint18server_on_loopback0B6_
FNDA:0,_RNvCs5tlsoORduBh_7lb_quic11random_scid
FNDA:0,_RNvCs5tlsoORduBh_7lb_quic12build_config
FNDA:0,_RNvCs5tlsoORduBh_7lb_quic14graceful_close
FNDA:0,_RNvCs5tlsoORduBh_7lb_quic16roundtrip_stream
FNDA:0,_RNvCs5tlsoORduBh_7lb_quic17server_accept_one
FNDA:0,_RNvCs5tlsoORduBh_7lb_quic18roundtrip_datagram
FNDA:0,_RNvCs5tlsoORduBh_7lb_quic18server_stream_task
FNDA:0,_RNvCs5tlsoORduBh_7lb_quic20server_datagram_task
FNDA:0,_RNvCs5tlsoORduBh_7lb_quic21flush_out_best_effort
FNDA:0,_RNvCs5tlsoORduBh_7lb_quic6prefix
FNDA:0,_RNvCs5tlsoORduBh_7lb_quic9flush_out
FNDA:0,_RNvMs_Cs5tlsoORduBh_7lb_quicNtB4_12QuicEndpoint10local_addr
FNDA:0,_RNvMs_Cs5tlsoORduBh_7lb_quicNtB4_12QuicEndpoint12retry_signer
FNDA:0,_RNvMs_Cs5tlsoORduBh_7lb_quicNtB4_12QuicEndpoint13replay_filter
FNDA:0,_RNvMs_Cs5tlsoORduBh_7lb_quicNtB4_12QuicEndpoint17with_retry_signer
FNDA:0,_RNvMs_Cs5tlsoORduBh_7lb_quicNtB4_12QuicEndpoint18client_on_loopback
FNDA:0,_RNvMs_Cs5tlsoORduBh_7lb_quicNtB4_12QuicEndpoint18server_on_loopback
FNDA:0,_RNvMs_Cs5tlsoORduBh_7lb_quicNtB4_12QuicEndpoint18with_replay_filter
FNDA:0,_RNvXCs5tlsoORduBh_7lb_quicNtB2_12QuicEndpointNtNtCs2va5m0jqTTM_4core3fmt5Debug3fmt
FNDA:1,_RNvNtCs5tlsoORduBh_7lb_quic5testss_17stream_forward_ok
FNDA:1,_RNvNtCs5tlsoORduBh_7lb_quic5testss_19datagram_forward_ok
FNDA:1,_RNvNtCs5tlsoORduBh_7lb_quic5testss_21stream_empty_rejected
FNDA:1,_RNvNtCs5tlsoORduBh_7lb_quic5testss_23datagram_empty_rejected
FNDA:2,_RNvCs5tlsoORduBh_7lb_quic14forward_stream
FNDA:2,_RNvCs5tlsoORduBh_7lb_quic16forward_datagram
FNF:49
FNH:6
DA:176,0
DA:177,0
DA:178,0
DA:251,2
DA:252,2
DA:253,1
DA:254,1
DA:255,1
DA:256,2
DA:264,2
DA:265,2
DA:266,1
DA:267,1
DA:268,1
DA:269,2
DA:301,0
DA:302,0
DA:303,0
DA:304,0
DA:306,0
DA:307,0
DA:308,0
DA:309,0
DA:310,0
DA:322,0
DA:323,0
DA:324,0
DA:325,0
DA:326,0
DA:327,0
DA:328,0
DA:329,0
DA:330,0
DA:331,0
DA:332,0
DA:333,0
DA:334,0
DA:335,0
DA:336,0
DA:337,0
DA:338,0
DA:339,0
DA:348,0
DA:349,0
DA:350,0
DA:351,0
DA:352,0
DA:353,0
DA:354,0
DA:355,0
DA:356,0
DA:357,0
DA:358,0
DA:359,0
DA:363,0
DA:364,0
DA:365,0
DA:378,0
DA:379,0
DA:380,0
DA:381,0
DA:392,0
DA:393,0
DA:394,0
DA:395,0
DA:400,0
DA:401,0
DA:402,0
DA:407,0
DA:408,0
DA:409,0
DA:426,0
DA:427,0
DA:428,0
DA:429,0
DA:430,0
DA:431,0
DA:432,0
DA:433,0
DA:434,0
DA:435,0
DA:436,0
DA:437,0
DA:438,0
DA:439,0
DA:440,0
DA:442,0
DA:443,0
DA:445,0
DA:446,0
DA:447,0
DA:448,0
DA:449,0
DA:450,0
DA:451,0
DA:452,0
DA:458,0
DA:459,0
DA:460,0
DA:461,0
DA:462,0
DA:468,0
DA:471,0
DA:472,0
DA:477,0
DA:478,0
DA:479,0
DA:480,0
DA:481,0
DA:482,0
DA:483,0
DA:484,0
DA:485,0
DA:486,0
DA:487,0
DA:488,0
DA:489,0
DA:490,0
DA:491,0
DA:492,0
DA:493,0
DA:494,0
DA:497,0
DA:498,0
DA:499,0
DA:500,0
DA:501,0
DA:503,0
DA:504,0
DA:505,0
DA:507,0
DA:508,0
DA:509,0
DA:511,0
DA:512,0
DA:515,0
DA:519,0
DA:520,0
DA:521,0
DA:522,0
DA:523,0
DA:525,0
DA:526,0
DA:527,0
DA:528,0
DA:529,0
DA:530,0
DA:531,0
DA:533,0
DA:534,0
DA:535,0
DA:536,0
DA:542,0
DA:543,0
DA:544,0
DA:545,0
DA:546,0
DA:547,0
DA:548,0
DA:549,0
DA:550,0
DA:551,0
DA:552,0
DA:553,0
DA:556,0
DA:557,0
DA:558,0
DA:559,0
DA:562,0
DA:563,0
DA:564,0
DA:565,0
DA:566,0
DA:567,0
DA:568,0
DA:569,0
DA:570,0
DA:573,0
DA:574,0
DA:575,0
DA:576,0
DA:577,0
DA:578,0
DA:579,0
DA:580,0
DA:581,0
DA:582,0
DA:583,0
DA:584,0
DA:585,0
DA:586,0
DA:587,0
DA:588,0
DA:591,0
DA:592,0
DA:593,0
DA:597,0
DA:602,0
DA:603,0
DA:604,0
DA:605,0
DA:606,0
DA:607,0
DA:608,0
DA:609,0
DA:610,0
DA:611,0
DA:612,0
DA:613,0
DA:614,0
DA:616,0
DA:617,0
DA:618,0
DA:619,0
DA:620,0
DA:621,0
DA:622,0
DA:623,0
DA:624,0
DA:625,0
DA:626,0
DA:630,0
DA:631,0
DA:632,0
DA:634,0
DA:635,0
DA:639,0
DA:640,0
DA:644,0
DA:646,0
DA:647,0
DA:648,0
DA:649,0
DA:650,0
DA:651,0
DA:655,0
DA:656,0
DA:657,0
DA:658,0
DA:659,0
DA:660,0
DA:661,0
DA:662,0
DA:663,0
DA:664,0
DA:665,0
DA:666,0
DA:667,0
DA:668,0
DA:669,0
DA:671,0
DA:672,0
DA:674,0
DA:675,0
DA:676,0
DA:677,0
DA:678,0
DA:682,0
DA:683,0
DA:684,0
DA:685,0
DA:686,0
DA:687,0
DA:688,0
DA:689,0
DA:690,0
DA:691,0
DA:692,0
DA:693,0
DA:695,0
DA:696,0
DA:698,0
DA:699,0
DA:700,0
DA:701,0
DA:702,0
DA:703,0
DA:704,0
DA:706,0
DA:707,0
DA:710,0
DA:711,0
DA:712,0
DA:713,0
DA:714,0
DA:728,0
DA:729,0
DA:730,0
DA:731,0
DA:732,0
DA:733,0
DA:734,0
DA:735,0
DA:737,0
DA:738,0
DA:740,0
DA:741,0
DA:742,0
DA:743,0
DA:744,0
DA:745,0
DA:746,0
DA:747,0
DA:748,0
DA:749,0
DA:750,0
DA:751,0
DA:752,0
DA:753,0
DA:754,0
DA:755,0
DA:756,0
DA:757,0
DA:758,0
DA:759,0
DA:760,0
DA:761,0
DA:762,0
DA:763,0
DA:764,0
DA:765,0
DA:766,0
DA:767,0
DA:768,0
DA:769,0
DA:770,0
DA:771,0
DA:772,0
DA:773,0
DA:774,0
DA:776,0
DA:777,0
DA:778,0
DA:779,0
DA:781,0
DA:782,0
DA:783,0
DA:784,0
DA:785,0
DA:800,0
DA:801,0
DA:802,0
DA:803,0
DA:804,0
DA:805,0
DA:806,0
DA:807,0
DA:809,0
DA:810,0
DA:812,0
DA:813,0
DA:814,0
DA:815,0
DA:816,0
DA:817,0
DA:818,0
DA:819,0
DA:820,0
DA:821,0
DA:822,0
DA:823,0
DA:824,0
DA:825,0
DA:826,0
DA:827,0
DA:828,0
DA:829,0
DA:830,0
DA:831,0
DA:832,0
DA:833,0
DA:834,0
DA:835,0
DA:836,0
DA:837,0
DA:838,0
DA:839,0
DA:840,0
DA:841,0
DA:842,0
DA:843,0
DA:844,0
DA:845,0
DA:846,0
DA:847,0
DA:848,0
DA:849,0
DA:850,0
DA:852,0
DA:853,0
DA:854,0
DA:855,0
DA:857,0
DA:858,0
DA:859,0
DA:860,0
DA:861,0
DA:862,0
DA:869,1
DA:870,1
DA:871,1
DA:872,1
DA:873,1
DA:874,1
DA:875,1
DA:876,1
DA:877,1
DA:880,1
DA:881,1
DA:882,1
DA:883,1
DA:884,1
DA:885,1
DA:886,1
DA:889,1
DA:890,1
DA:891,1
DA:892,1
DA:893,1
DA:894,1
DA:895,1
DA:896,1
DA:897,1
DA:898,1
DA:901,1
DA:902,1
DA:903,1
DA:904,1
DA:905,1
DA:906,1
DA:907,1
DA:908,1
BRF:0
BRH:0
LF:459
LH:46
end_of_record
SF:/home/ubuntu/Code/eg-verifier/crates/lb-quic/src/listener.rs
FN:318,_RNCNvNtCseagxtsvVhuF_7lb_quic8listener29load_or_generate_retry_secret0B5_
FN:137,_RINvMs_NtCseagxtsvVhuF_7lb_quic8listenerNtB5_18QuicListenerParams15with_h3_backendpEB7_
FN:209,_RNCNCNvMs0_NtCseagxtsvVhuF_7lb_quic8listenerNtB9_12QuicListener5spawn00Bb_
FN:230,_RNCNCNvMs0_NtCseagxtsvVhuF_7lb_quic8listenerNtB9_12QuicListener5spawn0s0_0Bb_
FN:249,_RNCNCNvMs0_NtCseagxtsvVhuF_7lb_quic8listenerNtB9_12QuicListener5spawn0s1_0Bb_
FN:215,_RNCNCNvMs0_NtCseagxtsvVhuF_7lb_quic8listenerNtB9_12QuicListener5spawn0s_0Bb_
FN:180,_RNCNvMs0_NtCseagxtsvVhuF_7lb_quic8listenerNtB7_12QuicListener5spawn0B9_
FN:209,_RNCNCNvMs0_NtCseagxtsvVhuF_7lb_quic8listenerNtB9_12QuicListener5spawn00Cs5vFBol92ucX_16h3_h1_bridge_e2e
FN:230,_RNCNCNvMs0_NtCseagxtsvVhuF_7lb_quic8listenerNtB9_12QuicListener5spawn0s0_0Cs5vFBol92ucX_16h3_h1_bridge_e2e
FN:249,_RNCNCNvMs0_NtCseagxtsvVhuF_7lb_quic8listenerNtB9_12QuicListener5spawn0s1_0Cs5vFBol92ucX_16h3_h1_bridge_e2e
FN:215,_RNCNCNvMs0_NtCseagxtsvVhuF_7lb_quic8listenerNtB9_12QuicListener5spawn0s_0Cs5vFBol92ucX_16h3_h1_bridge_e2e
FN:180,_RNCNvMs0_NtCseagxtsvVhuF_7lb_quic8listenerNtB7_12QuicListener5spawn0Cs5vFBol92ucX_16h3_h1_bridge_e2e
FN:267,_RNvMs0_NtCseagxtsvVhuF_7lb_quic8listenerNtB5_12QuicListener10local_addr
FN:279,_RNvMs0_NtCseagxtsvVhuF_7lb_quic8listenerNtB5_12QuicListener12replay_guard
FN:273,_RNvMs0_NtCseagxtsvVhuF_7lb_quic8listenerNtB5_12QuicListener12retry_signer
FN:177,_RNvMs0_NtCseagxtsvVhuF_7lb_quic8listenerNtB5_12QuicListener5spawn
FN:285,_RNvMs0_NtCseagxtsvVhuF_7lb_quic8listenerNtB5_12QuicListener8shutdown
FN:127,_RNvMs_NtCseagxtsvVhuF_7lb_quic8listenerNtB4_18QuicListenerParams13with_backends
FN:151,_RNvMs_NtCseagxtsvVhuF_7lb_quic8listenerNtB4_18QuicListenerParams15with_h2_backend
FN:103,_RNvMs_NtCseagxtsvVhuF_7lb_quic8listenerNtB4_18QuicListenerParams3new
FN:327,_RNvNtCseagxtsvVhuF_7lb_quic8listener17write_secret_file
FN:345,_RNvNtCseagxtsvVhuF_7lb_quic8listener19build_server_config
FN:291,_RNvNtCseagxtsvVhuF_7lb_quic8listener29load_or_generate_retry_secret
FN:82,_RNvXNtCseagxtsvVhuF_7lb_quic8listenerNtB2_18QuicListenerParamsNtNtCs2va5m0jqTTM_4core3fmt5Debug3fmt
FN:209,_RNCNCNvMs0_NtCseagxtsvVhuF_7lb_quic8listenerNtB9_12QuicListener5spawn00CsggbQr1QHyE9_21h3_h1_resp_stream_e2e
FN:230,_RNCNCNvMs0_NtCseagxtsvVhuF_7lb_quic8listenerNtB9_12QuicListener5spawn0s0_0CsggbQr1QHyE9_21h3_h1_resp_stream_e2e
FN:249,_RNCNCNvMs0_NtCseagxtsvVhuF_7lb_quic8listenerNtB9_12QuicListener5spawn0s1_0CsggbQr1QHyE9_21h3_h1_resp_stream_e2e
FN:215,_RNCNCNvMs0_NtCseagxtsvVhuF_7lb_quic8listenerNtB9_12QuicListener5spawn0s_0CsggbQr1QHyE9_21h3_h1_resp_stream_e2e
FN:180,_RNCNvMs0_NtCseagxtsvVhuF_7lb_quic8listenerNtB7_12QuicListener5spawn0CsggbQr1QHyE9_21h3_h1_resp_stream_e2e
FN:209,_RNCNCNvMs0_NtCseagxtsvVhuF_7lb_quic8listenerNtB9_12QuicListener5spawn00CsQbgCkoNZ73_21h3_h1_stream_body_e2e
FN:230,_RNCNCNvMs0_NtCseagxtsvVhuF_7lb_quic8listenerNtB9_12QuicListener5spawn0s0_0CsQbgCkoNZ73_21h3_h1_stream_body_e2e
FN:249,_RNCNCNvMs0_NtCseagxtsvVhuF_7lb_quic8listenerNtB9_12QuicListener5spawn0s1_0CsQbgCkoNZ73_21h3_h1_stream_body_e2e
FN:215,_RNCNCNvMs0_NtCseagxtsvVhuF_7lb_quic8listenerNtB9_12QuicListener5spawn0s_0CsQbgCkoNZ73_21h3_h1_stream_body_e2e
FN:180,_RNCNvMs0_NtCseagxtsvVhuF_7lb_quic8listenerNtB7_12QuicListener5spawn0CsQbgCkoNZ73_21h3_h1_stream_body_e2e
FN:209,_RNCNCNvMs0_NtCseagxtsvVhuF_7lb_quic8listenerNtB9_12QuicListener5spawn00Csd1HyTVhDm13_28h3_h1_stream_body_errors_e2e
FN:230,_RNCNCNvMs0_NtCseagxtsvVhuF_7lb_quic8listenerNtB9_12QuicListener5spawn0s0_0Csd1HyTVhDm13_28h3_h1_stream_body_errors_e2e
FN:249,_RNCNCNvMs0_NtCseagxtsvVhuF_7lb_quic8listenerNtB9_12QuicListener5spawn0s1_0Csd1HyTVhDm13_28h3_h1_stream_body_errors_e2e
FN:215,_RNCNCNvMs0_NtCseagxtsvVhuF_7lb_quic8listenerNtB9_12QuicListener5spawn0s_0Csd1HyTVhDm13_28h3_h1_stream_body_errors_e2e
FN:180,_RNCNvMs0_NtCseagxtsvVhuF_7lb_quic8listenerNtB7_12QuicListener5spawn0Csd1HyTVhDm13_28h3_h1_stream_body_errors_e2e
FN:209,_RNCNCNvMs0_NtCseagxtsvVhuF_7lb_quic8listenerNtB9_12QuicListener5spawn00CsdrYhuxVj2nq_23h3_h1_trailers_resp_e2e
FN:230,_RNCNCNvMs0_NtCseagxtsvVhuF_7lb_quic8listenerNtB9_12QuicListener5spawn0s0_0CsdrYhuxVj2nq_23h3_h1_trailers_resp_e2e
FN:249,_RNCNCNvMs0_NtCseagxtsvVhuF_7lb_quic8listenerNtB9_12QuicListener5spawn0s1_0CsdrYhuxVj2nq_23h3_h1_trailers_resp_e2e
FN:215,_RNCNCNvMs0_NtCseagxtsvVhuF_7lb_quic8listenerNtB9_12QuicListener5spawn0s_0CsdrYhuxVj2nq_23h3_h1_trailers_resp_e2e
FN:180,_RNCNvMs0_NtCseagxtsvVhuF_7lb_quic8listenerNtB7_12QuicListener5spawn0CsdrYhuxVj2nq_23h3_h1_trailers_resp_e2e
FN:137,_RINvMs_NtCs5tlsoORduBh_7lb_quic8listenerNtB5_18QuicListenerParams15with_h3_backendpEB7_
FN:209,_RNCNCNvMs0_NtCs5tlsoORduBh_7lb_quic8listenerNtB9_12QuicListener5spawn00Bb_
FN:230,_RNCNCNvMs0_NtCs5tlsoORduBh_7lb_quic8listenerNtB9_12QuicListener5spawn0s0_0Bb_
FN:249,_RNCNCNvMs0_NtCs5tlsoORduBh_7lb_quic8listenerNtB9_12QuicListener5spawn0s1_0Bb_
FN:215,_RNCNCNvMs0_NtCs5tlsoORduBh_7lb_quic8listenerNtB9_12QuicListener5spawn0s_0Bb_
FN:180,_RNCNvMs0_NtCs5tlsoORduBh_7lb_quic8listenerNtB7_12QuicListener5spawn0B9_
FN:318,_RNCNvNtCs5tlsoORduBh_7lb_quic8listener29load_or_generate_retry_secret0B5_
FN:267,_RNvMs0_NtCs5tlsoORduBh_7lb_quic8listenerNtB5_12QuicListener10local_addr
FN:279,_RNvMs0_NtCs5tlsoORduBh_7lb_quic8listenerNtB5_12QuicListener12replay_guard
FN:273,_RNvMs0_NtCs5tlsoORduBh_7lb_quic8listenerNtB5_12QuicListener12retry_signer
FN:177,_RNvMs0_NtCs5tlsoORduBh_7lb_quic8listenerNtB5_12QuicListener5spawn
FN:285,_RNvMs0_NtCs5tlsoORduBh_7lb_quic8listenerNtB5_12QuicListener8shutdown
FN:127,_RNvMs_NtCs5tlsoORduBh_7lb_quic8listenerNtB4_18QuicListenerParams13with_backends
FN:151,_RNvMs_NtCs5tlsoORduBh_7lb_quic8listenerNtB4_18QuicListenerParams15with_h2_backend
FN:103,_RNvMs_NtCs5tlsoORduBh_7lb_quic8listenerNtB4_18QuicListenerParams3new
FN:327,_RNvNtCs5tlsoORduBh_7lb_quic8listener17write_secret_file
FN:345,_RNvNtCs5tlsoORduBh_7lb_quic8listener19build_server_config
FN:291,_RNvNtCs5tlsoORduBh_7lb_quic8listener29load_or_generate_retry_secret
FN:82,_RNvXNtCs5tlsoORduBh_7lb_quic8listenerNtB2_18QuicListenerParamsNtNtCs2va5m0jqTTM_4core3fmt5Debug3fmt
FN:209,_RNCNCNvMs0_NtCseagxtsvVhuF_7lb_quic8listenerNtB9_12QuicListener5spawn00CsbzKUtbruD1t_18listener_lifecycle
FN:230,_RNCNCNvMs0_NtCseagxtsvVhuF_7lb_quic8listenerNtB9_12QuicListener5spawn0s0_0CsbzKUtbruD1t_18listener_lifecycle
FN:249,_RNCNCNvMs0_NtCseagxtsvVhuF_7lb_quic8listenerNtB9_12QuicListener5spawn0s1_0CsbzKUtbruD1t_18listener_lifecycle
FN:215,_RNCNCNvMs0_NtCseagxtsvVhuF_7lb_quic8listenerNtB9_12QuicListener5spawn0s_0CsbzKUtbruD1t_18listener_lifecycle
FN:180,_RNCNvMs0_NtCseagxtsvVhuF_7lb_quic8listenerNtB7_12QuicListener5spawn0CsbzKUtbruD1t_18listener_lifecycle
FN:209,_RNCNCNvMs0_NtCseagxtsvVhuF_7lb_quic8listenerNtB9_12QuicListener5spawn00Cskyzrmc5CcaX_18router_accept_path
FN:230,_RNCNCNvMs0_NtCseagxtsvVhuF_7lb_quic8listenerNtB9_12QuicListener5spawn0s0_0Cskyzrmc5CcaX_18router_accept_path
FN:249,_RNCNCNvMs0_NtCseagxtsvVhuF_7lb_quic8listenerNtB9_12QuicListener5spawn0s1_0Cskyzrmc5CcaX_18router_accept_path
FN:215,_RNCNCNvMs0_NtCseagxtsvVhuF_7lb_quic8listenerNtB9_12QuicListener5spawn0s_0Cskyzrmc5CcaX_18router_accept_path
FN:180,_RNCNvMs0_NtCseagxtsvVhuF_7lb_quic8listenerNtB7_12QuicListener5spawn0Cskyzrmc5CcaX_18router_accept_path
FNDA:0,_RNCNvNtCseagxtsvVhuF_7lb_quic8listener29load_or_generate_retry_secret0B5_
FNDA:0,_RINvMs_NtCseagxtsvVhuF_7lb_quic8listenerNtB5_18QuicListenerParams15with_h3_backendpEB7_
FNDA:0,_RNCNCNvMs0_NtCseagxtsvVhuF_7lb_quic8listenerNtB9_12QuicListener5spawn00Bb_
FNDA:0,_RNCNCNvMs0_NtCseagxtsvVhuF_7lb_quic8listenerNtB9_12QuicListener5spawn0s0_0Bb_
FNDA:0,_RNCNCNvMs0_NtCseagxtsvVhuF_7lb_quic8listenerNtB9_12QuicListener5spawn0s1_0Bb_
FNDA:0,_RNCNCNvMs0_NtCseagxtsvVhuF_7lb_quic8listenerNtB9_12QuicListener5spawn0s_0Bb_
FNDA:0,_RNCNvMs0_NtCseagxtsvVhuF_7lb_quic8listenerNtB7_12QuicListener5spawn0B9_
FNDA:1,_RNCNCNvMs0_NtCseagxtsvVhuF_7lb_quic8listenerNtB9_12QuicListener5spawn00Cs5vFBol92ucX_16h3_h1_bridge_e2e
FNDA:1,_RNCNCNvMs0_NtCseagxtsvVhuF_7lb_quic8listenerNtB9_12QuicListener5spawn0s0_0Cs5vFBol92ucX_16h3_h1_bridge_e2e
FNDA:1,_RNCNCNvMs0_NtCseagxtsvVhuF_7lb_quic8listenerNtB9_12QuicListener5spawn0s1_0Cs5vFBol92ucX_16h3_h1_bridge_e2e
FNDA:0,_RNCNCNvMs0_NtCseagxtsvVhuF_7lb_quic8listenerNtB9_12QuicListener5spawn0s_0Cs5vFBol92ucX_16h3_h1_bridge_e2e
FNDA:1,_RNCNvMs0_NtCseagxtsvVhuF_7lb_quic8listenerNtB7_12QuicListener5spawn0Cs5vFBol92ucX_16h3_h1_bridge_e2e
FNDA:40,_RNvMs0_NtCseagxtsvVhuF_7lb_quic8listenerNtB5_12QuicListener10local_addr
FNDA:1,_RNvMs0_NtCseagxtsvVhuF_7lb_quic8listenerNtB5_12QuicListener12replay_guard
FNDA:2,_RNvMs0_NtCseagxtsvVhuF_7lb_quic8listenerNtB5_12QuicListener12retry_signer
FNDA:43,_RNvMs0_NtCseagxtsvVhuF_7lb_quic8listenerNtB5_12QuicListener5spawn
FNDA:43,_RNvMs0_NtCseagxtsvVhuF_7lb_quic8listenerNtB5_12QuicListener8shutdown
FNDA:33,_RNvMs_NtCseagxtsvVhuF_7lb_quic8listenerNtB4_18QuicListenerParams13with_backends
FNDA:0,_RNvMs_NtCseagxtsvVhuF_7lb_quic8listenerNtB4_18QuicListenerParams15with_h2_backend
FNDA:43,_RNvMs_NtCseagxtsvVhuF_7lb_quic8listenerNtB4_18QuicListenerParams3new
FNDA:41,_RNvNtCseagxtsvVhuF_7lb_quic8listener17write_secret_file
FNDA:40,_RNvNtCseagxtsvVhuF_7lb_quic8listener19build_server_config
FNDA:43,_RNvNtCseagxtsvVhuF_7lb_quic8listener29load_or_generate_retry_secret
FNDA:0,_RNvXNtCseagxtsvVhuF_7lb_quic8listenerNtB2_18QuicListenerParamsNtNtCs2va5m0jqTTM_4core3fmt5Debug3fmt
FNDA:23,_RNCNCNvMs0_NtCseagxtsvVhuF_7lb_quic8listenerNtB9_12QuicListener5spawn00CsggbQr1QHyE9_21h3_h1_resp_stream_e2e
FNDA:23,_RNCNCNvMs0_NtCseagxtsvVhuF_7lb_quic8listenerNtB9_12QuicListener5spawn0s0_0CsggbQr1QHyE9_21h3_h1_resp_stream_e2e
FNDA:23,_RNCNCNvMs0_NtCseagxtsvVhuF_7lb_quic8listenerNtB9_12QuicListener5spawn0s1_0CsggbQr1QHyE9_21h3_h1_resp_stream_e2e
FNDA:0,_RNCNCNvMs0_NtCseagxtsvVhuF_7lb_quic8listenerNtB9_12QuicListener5spawn0s_0CsggbQr1QHyE9_21h3_h1_resp_stream_e2e
FNDA:23,_RNCNvMs0_NtCseagxtsvVhuF_7lb_quic8listenerNtB7_12QuicListener5spawn0CsggbQr1QHyE9_21h3_h1_resp_stream_e2e
FNDA:5,_RNCNCNvMs0_NtCseagxtsvVhuF_7lb_quic8listenerNtB9_12QuicListener5spawn00CsQbgCkoNZ73_21h3_h1_stream_body_e2e
FNDA:5,_RNCNCNvMs0_NtCseagxtsvVhuF_7lb_quic8listenerNtB9_12QuicListener5spawn0s0_0CsQbgCkoNZ73_21h3_h1_stream_body_e2e
FNDA:5,_RNCNCNvMs0_NtCseagxtsvVhuF_7lb_quic8listenerNtB9_12QuicListener5spawn0s1_0CsQbgCkoNZ73_21h3_h1_stream_body_e2e
FNDA:0,_RNCNCNvMs0_NtCseagxtsvVhuF_7lb_quic8listenerNtB9_12QuicListener5spawn0s_0CsQbgCkoNZ73_21h3_h1_stream_body_e2e
FNDA:5,_RNCNvMs0_NtCseagxtsvVhuF_7lb_quic8listenerNtB7_12QuicListener5spawn0CsQbgCkoNZ73_21h3_h1_stream_body_e2e
FNDA:3,_RNCNCNvMs0_NtCseagxtsvVhuF_7lb_quic8listenerNtB9_12QuicListener5spawn00Csd1HyTVhDm13_28h3_h1_stream_body_errors_e2e
FNDA:2,_RNCNCNvMs0_NtCseagxtsvVhuF_7lb_quic8listenerNtB9_12QuicListener5spawn0s0_0Csd1HyTVhDm13_28h3_h1_stream_body_errors_e2e
FNDA:2,_RNCNCNvMs0_NtCseagxtsvVhuF_7lb_quic8listenerNtB9_12QuicListener5spawn0s1_0Csd1HyTVhDm13_28h3_h1_stream_body_errors_e2e
FNDA:0,_RNCNCNvMs0_NtCseagxtsvVhuF_7lb_quic8listenerNtB9_12QuicListener5spawn0s_0Csd1HyTVhDm13_28h3_h1_stream_body_errors_e2e
FNDA:2,_RNCNvMs0_NtCseagxtsvVhuF_7lb_quic8listenerNtB7_12QuicListener5spawn0Csd1HyTVhDm13_28h3_h1_stream_body_errors_e2e
FNDA:2,_RNCNCNvMs0_NtCseagxtsvVhuF_7lb_quic8listenerNtB9_12QuicListener5spawn00CsdrYhuxVj2nq_23h3_h1_trailers_resp_e2e
FNDA:2,_RNCNCNvMs0_NtCseagxtsvVhuF_7lb_quic8listenerNtB9_12QuicListener5spawn0s0_0CsdrYhuxVj2nq_23h3_h1_trailers_resp_e2e
FNDA:2,_RNCNCNvMs0_NtCseagxtsvVhuF_7lb_quic8listenerNtB9_12QuicListener5spawn0s1_0CsdrYhuxVj2nq_23h3_h1_trailers_resp_e2e
FNDA:0,_RNCNCNvMs0_NtCseagxtsvVhuF_7lb_quic8listenerNtB9_12QuicListener5spawn0s_0CsdrYhuxVj2nq_23h3_h1_trailers_resp_e2e
FNDA:2,_RNCNvMs0_NtCseagxtsvVhuF_7lb_quic8listenerNtB7_12QuicListener5spawn0CsdrYhuxVj2nq_23h3_h1_trailers_resp_e2e
FNDA:0,_RINvMs_NtCs5tlsoORduBh_7lb_quic8listenerNtB5_18QuicListenerParams15with_h3_backendpEB7_
FNDA:0,_RNCNCNvMs0_NtCs5tlsoORduBh_7lb_quic8listenerNtB9_12QuicListener5spawn00Bb_
FNDA:0,_RNCNCNvMs0_NtCs5tlsoORduBh_7lb_quic8listenerNtB9_12QuicListener5spawn0s0_0Bb_
FNDA:0,_RNCNCNvMs0_NtCs5tlsoORduBh_7lb_quic8listenerNtB9_12QuicListener5spawn0s1_0Bb_
FNDA:0,_RNCNCNvMs0_NtCs5tlsoORduBh_7lb_quic8listenerNtB9_12QuicListener5spawn0s_0Bb_
FNDA:0,_RNCNvMs0_NtCs5tlsoORduBh_7lb_quic8listenerNtB7_12QuicListener5spawn0B9_
FNDA:0,_RNCNvNtCs5tlsoORduBh_7lb_quic8listener29load_or_generate_retry_secret0B5_
FNDA:0,_RNvMs0_NtCs5tlsoORduBh_7lb_quic8listenerNtB5_12QuicListener10local_addr
FNDA:0,_RNvMs0_NtCs5tlsoORduBh_7lb_quic8listenerNtB5_12QuicListener12replay_guard
FNDA:0,_RNvMs0_NtCs5tlsoORduBh_7lb_quic8listenerNtB5_12QuicListener12retry_signer
FNDA:0,_RNvMs0_NtCs5tlsoORduBh_7lb_quic8listenerNtB5_12QuicListener5spawn
FNDA:0,_RNvMs0_NtCs5tlsoORduBh_7lb_quic8listenerNtB5_12QuicListener8shutdown
FNDA:0,_RNvMs_NtCs5tlsoORduBh_7lb_quic8listenerNtB4_18QuicListenerParams13with_backends
FNDA:0,_RNvMs_NtCs5tlsoORduBh_7lb_quic8listenerNtB4_18QuicListenerParams15with_h2_backend
FNDA:0,_RNvMs_NtCs5tlsoORduBh_7lb_quic8listenerNtB4_18QuicListenerParams3new
FNDA:0,_RNvNtCs5tlsoORduBh_7lb_quic8listener17write_secret_file
FNDA:0,_RNvNtCs5tlsoORduBh_7lb_quic8listener19build_server_config
FNDA:0,_RNvNtCs5tlsoORduBh_7lb_quic8listener29load_or_generate_retry_secret
FNDA:0,_RNvXNtCs5tlsoORduBh_7lb_quic8listenerNtB2_18QuicListenerParamsNtNtCs2va5m0jqTTM_4core3fmt5Debug3fmt
FNDA:3,_RNCNCNvMs0_NtCseagxtsvVhuF_7lb_quic8listenerNtB9_12QuicListener5spawn00CsbzKUtbruD1t_18listener_lifecycle
FNDA:0,_RNCNCNvMs0_NtCseagxtsvVhuF_7lb_quic8listenerNtB9_12QuicListener5spawn0s0_0CsbzKUtbruD1t_18listener_lifecycle
FNDA:7,_RNCNCNvMs0_NtCseagxtsvVhuF_7lb_quic8listenerNtB9_12QuicListener5spawn0s1_0CsbzKUtbruD1t_18listener_lifecycle
FNDA:7,_RNCNCNvMs0_NtCseagxtsvVhuF_7lb_quic8listenerNtB9_12QuicListener5spawn0s_0CsbzKUtbruD1t_18listener_lifecycle
FNDA:7,_RNCNvMs0_NtCseagxtsvVhuF_7lb_quic8listenerNtB7_12QuicListener5spawn0CsbzKUtbruD1t_18listener_lifecycle
FNDA:3,_RNCNCNvMs0_NtCseagxtsvVhuF_7lb_quic8listenerNtB9_12QuicListener5spawn00Cskyzrmc5CcaX_18router_accept_path
FNDA:0,_RNCNCNvMs0_NtCseagxtsvVhuF_7lb_quic8listenerNtB9_12QuicListener5spawn0s0_0Cskyzrmc5CcaX_18router_accept_path
FNDA:3,_RNCNCNvMs0_NtCseagxtsvVhuF_7lb_quic8listenerNtB9_12QuicListener5spawn0s1_0Cskyzrmc5CcaX_18router_accept_path
FNDA:3,_RNCNCNvMs0_NtCseagxtsvVhuF_7lb_quic8listenerNtB9_12QuicListener5spawn0s_0Cskyzrmc5CcaX_18router_accept_path
FNDA:3,_RNCNvMs0_NtCseagxtsvVhuF_7lb_quic8listenerNtB7_12QuicListener5spawn0Cskyzrmc5CcaX_18router_accept_path
FNF:19
FNH:15
DA:82,0
DA:83,0
DA:84,0
DA:85,0
DA:86,0
DA:87,0
DA:88,0
DA:89,0
DA:90,0
DA:91,0
DA:92,0
DA:93,0
DA:94,0
DA:95,0
DA:96,0
DA:103,43
DA:104,43
DA:105,43
DA:106,43
DA:107,43
DA:108,43
DA:109,43
DA:110,43
DA:111,43
DA:112,43
DA:113,43
DA:114,43
DA:115,43
DA:116,43
DA:117,43
DA:118,43
DA:119,43
DA:120,43
DA:121,43
DA:122,43
DA:127,33
DA:128,33
DA:129,33
DA:130,33
DA:131,33
DA:137,0
DA:138,0
DA:139,0
DA:140,0
DA:141,0
DA:142,0
DA:143,0
DA:144,0
DA:145,0
DA:151,0
DA:152,0
DA:153,0
DA:154,0
DA:177,43
DA:178,43
DA:179,43
DA:180,43
DA:181,43
DA:182,43
DA:183,43
DA:185,43
DA:186,43
DA:187,43
DA:188,43
DA:189,43
DA:190,43
DA:193,0
DA:194,0
DA:195,0
DA:196,0
DA:204,43
DA:205,43
DA:206,43
DA:207,43
DA:208,43
DA:209,43
DA:210,43
DA:211,43
DA:212,43
DA:213,43
DA:214,43
DA:215,43
DA:216,10
DA:217,10
DA:218,10
DA:219,10
DA:220,10
DA:221,10
DA:222,10
DA:223,10
DA:224,10
DA:225,10
DA:226,10
DA:227,10
DA:228,10
DA:229,43
DA:230,43
DA:231,43
DA:232,43
DA:233,43
DA:234,43
DA:235,43
DA:236,43
DA:237,43
DA:238,43
DA:239,43
DA:240,43
DA:241,43
DA:242,43
DA:243,43
DA:244,43
DA:245,43
DA:246,43
DA:247,43
DA:248,43
DA:249,43
DA:250,43
DA:251,0
DA:252,43
DA:253,43
DA:254,43
DA:255,43
DA:256,43
DA:257,43
DA:258,43
DA:259,43
DA:260,43
DA:261,43
DA:262,43
DA:263,43
DA:267,40
DA:268,40
DA:269,40
DA:273,2
DA:274,2
DA:275,2
DA:279,1
DA:280,1
DA:281,1
DA:285,43
DA:286,43
DA:287,43
DA:288,43
DA:291,43
DA:292,43
DA:293,2
DA:294,2
DA:295,0
DA:296,0
DA:297,0
DA:298,0
DA:299,0
DA:300,0
DA:301,2
DA:302,2
DA:303,2
DA:304,2
DA:305,2
DA:306,2
DA:307,2
DA:308,2
DA:310,41
DA:311,41
DA:312,41
DA:313,41
DA:314,0
DA:315,0
DA:316,41
DA:317,41
DA:318,41
DA:319,41
DA:320,41
DA:322,0
DA:324,43
DA:327,41
DA:330,41
DA:331,41
DA:332,41
DA:333,41
DA:334,41
DA:335,41
DA:336,41
DA:337,41
DA:338,41
DA:345,40
DA:346,40
DA:347,40
DA:348,40
DA:349,40
DA:350,40
DA:351,40
DA:352,40
DA:353,40
DA:354,40
DA:355,40
DA:356,40
DA:357,40
DA:358,40
DA:359,40
DA:360,40
DA:361,40
DA:362,40
DA:363,40
DA:364,40
DA:365,40
DA:366,40
DA:367,40
DA:368,40
BRF:0
BRH:0
LF:216
LH:173
end_of_record
SF:/home/ubuntu/Code/eg-verifier/crates/lb-quic/src/router.rs
FN:189,_RNCNCNvNtCseagxtsvVhuF_7lb_quic6router15dispatch_packet00B7_
FN:265,_RNCNvNtCseagxtsvVhuF_7lb_quic6router10send_retry0B5_
FN:121,_RNCNvNtCseagxtsvVhuF_7lb_quic6router11router_main0B5_
FN:403,_RNCNvNtCseagxtsvVhuF_7lb_quic6router14sample_conn_id0B5_
FN:166,_RNCNvNtCseagxtsvVhuF_7lb_quic6router15dispatch_packet0B5_
FN:330,_RNCNvNtCseagxtsvVhuF_7lb_quic6router20spawn_new_connection0B5_
FN:387,_RNCNvNtCseagxtsvVhuF_7lb_quic6router20spawn_new_connections0_0B5_
FN:341,_RNCNvNtCseagxtsvVhuF_7lb_quic6router20spawn_new_connections_0B5_
FN:113,_RNCNvNtCseagxtsvVhuF_7lb_quic6router5spawn0B5_
FN:105,_RNvMNtCseagxtsvVhuF_7lb_quic6routerNtB2_12RouterHandle4join
FN:260,_RNvNtCseagxtsvVhuF_7lb_quic6router10send_retry
FN:121,_RNvNtCseagxtsvVhuF_7lb_quic6router11router_main
FN:397,_RNvNtCseagxtsvVhuF_7lb_quic6router14sample_conn_id
FN:160,_RNvNtCseagxtsvVhuF_7lb_quic6router15dispatch_packet
FN:229,_RNvNtCseagxtsvVhuF_7lb_quic6router16build_replay_key
FN:238,_RNvNtCseagxtsvVhuF_7lb_quic6router16forward_to_actor
FN:296,_RNvNtCseagxtsvVhuF_7lb_quic6router20spawn_new_connection
FN:112,_RNvNtCseagxtsvVhuF_7lb_quic6router5spawn
FN:105,_RNCNvMNtCseagxtsvVhuF_7lb_quic6routerNtB4_12RouterHandle4join0B6_
FN:105,_RNCNvMNtCseagxtsvVhuF_7lb_quic6routerNtB4_12RouterHandle4join0Cs5vFBol92ucX_16h3_h1_bridge_e2e
FN:105,_RNCNvMNtCseagxtsvVhuF_7lb_quic6routerNtB4_12RouterHandle4join0CsggbQr1QHyE9_21h3_h1_resp_stream_e2e
FN:105,_RNCNvMNtCseagxtsvVhuF_7lb_quic6routerNtB4_12RouterHandle4join0CsQbgCkoNZ73_21h3_h1_stream_body_e2e
FN:105,_RNCNvMNtCseagxtsvVhuF_7lb_quic6routerNtB4_12RouterHandle4join0Csd1HyTVhDm13_28h3_h1_stream_body_errors_e2e
FN:105,_RNCNvMNtCseagxtsvVhuF_7lb_quic6routerNtB4_12RouterHandle4join0CsdrYhuxVj2nq_23h3_h1_trailers_resp_e2e
FN:189,_RNCNCNvNtCs5tlsoORduBh_7lb_quic6router15dispatch_packet00B7_
FN:105,_RNCNvMNtCs5tlsoORduBh_7lb_quic6routerNtB4_12RouterHandle4join0B6_
FN:265,_RNCNvNtCs5tlsoORduBh_7lb_quic6router10send_retry0B5_
FN:121,_RNCNvNtCs5tlsoORduBh_7lb_quic6router11router_main0B5_
FN:166,_RNCNvNtCs5tlsoORduBh_7lb_quic6router15dispatch_packet0B5_
FN:113,_RNCNvNtCs5tlsoORduBh_7lb_quic6router5spawn0B5_
FN:105,_RNvMNtCs5tlsoORduBh_7lb_quic6routerNtB2_12RouterHandle4join
FN:260,_RNvNtCs5tlsoORduBh_7lb_quic6router10send_retry
FN:121,_RNvNtCs5tlsoORduBh_7lb_quic6router11router_main
FN:160,_RNvNtCs5tlsoORduBh_7lb_quic6router15dispatch_packet
FN:229,_RNvNtCs5tlsoORduBh_7lb_quic6router16build_replay_key
FN:238,_RNvNtCs5tlsoORduBh_7lb_quic6router16forward_to_actor
FN:112,_RNvNtCs5tlsoORduBh_7lb_quic6router5spawn
FN:445,_RNvNtNtCs5tlsoORduBh_7lb_quic6router5testss_37router_drops_initial_when_cap_reached
FN:403,_RNCNvNtCs5tlsoORduBh_7lb_quic6router14sample_conn_id0B5_
FN:330,_RNCNvNtCs5tlsoORduBh_7lb_quic6router20spawn_new_connection0B5_
FN:387,_RNCNvNtCs5tlsoORduBh_7lb_quic6router20spawn_new_connections0_0B5_
FN:341,_RNCNvNtCs5tlsoORduBh_7lb_quic6router20spawn_new_connections_0B5_
FN:397,_RNvNtCs5tlsoORduBh_7lb_quic6router14sample_conn_id
FN:296,_RNvNtCs5tlsoORduBh_7lb_quic6router20spawn_new_connection
FN:462,_RNCNCNvNtNtCs5tlsoORduBh_7lb_quic6router5testss_37router_drops_initial_when_cap_reached00B9_
FN:445,_RNCNvNtNtCs5tlsoORduBh_7lb_quic6router5testss_37router_drops_initial_when_cap_reached0B7_
FN:105,_RNCNvMNtCseagxtsvVhuF_7lb_quic6routerNtB4_12RouterHandle4join0CsbzKUtbruD1t_18listener_lifecycle
FN:105,_RNCNvMNtCseagxtsvVhuF_7lb_quic6routerNtB4_12RouterHandle4join0Cskyzrmc5CcaX_18router_accept_path
FNDA:80,_RNCNCNvNtCseagxtsvVhuF_7lb_quic6router15dispatch_packet00B7_
FNDA:40,_RNCNvNtCseagxtsvVhuF_7lb_quic6router10send_retry0B5_
FNDA:43,_RNCNvNtCseagxtsvVhuF_7lb_quic6router11router_main0B5_
FNDA:0,_RNCNvNtCseagxtsvVhuF_7lb_quic6router14sample_conn_id0B5_
FNDA:133761,_RNCNvNtCseagxtsvVhuF_7lb_quic6router15dispatch_packet0B5_
FNDA:0,_RNCNvNtCseagxtsvVhuF_7lb_quic6router20spawn_new_connection0B5_
FNDA:40,_RNCNvNtCseagxtsvVhuF_7lb_quic6router20spawn_new_connections0_0B5_
FNDA:0,_RNCNvNtCseagxtsvVhuF_7lb_quic6router20spawn_new_connections_0B5_
FNDA:43,_RNCNvNtCseagxtsvVhuF_7lb_quic6router5spawn0B5_
FNDA:43,_RNvMNtCseagxtsvVhuF_7lb_quic6routerNtB2_12RouterHandle4join
FNDA:40,_RNvNtCseagxtsvVhuF_7lb_quic6router10send_retry
FNDA:43,_RNvNtCseagxtsvVhuF_7lb_quic6router11router_main
FNDA:80,_RNvNtCseagxtsvVhuF_7lb_quic6router14sample_conn_id
FNDA:133761,_RNvNtCseagxtsvVhuF_7lb_quic6router15dispatch_packet
FNDA:40,_RNvNtCseagxtsvVhuF_7lb_quic6router16build_replay_key
FNDA:133681,_RNvNtCseagxtsvVhuF_7lb_quic6router16forward_to_actor
FNDA:40,_RNvNtCseagxtsvVhuF_7lb_quic6router20spawn_new_connection
FNDA:43,_RNvNtCseagxtsvVhuF_7lb_quic6router5spawn
FNDA:0,_RNCNvMNtCseagxtsvVhuF_7lb_quic6routerNtB4_12RouterHandle4join0B6_
FNDA:1,_RNCNvMNtCseagxtsvVhuF_7lb_quic6routerNtB4_12RouterHandle4join0Cs5vFBol92ucX_16h3_h1_bridge_e2e
FNDA:23,_RNCNvMNtCseagxtsvVhuF_7lb_quic6routerNtB4_12RouterHandle4join0CsggbQr1QHyE9_21h3_h1_resp_stream_e2e
FNDA:5,_RNCNvMNtCseagxtsvVhuF_7lb_quic6routerNtB4_12RouterHandle4join0CsQbgCkoNZ73_21h3_h1_stream_body_e2e
FNDA:2,_RNCNvMNtCseagxtsvVhuF_7lb_quic6routerNtB4_12RouterHandle4join0Csd1HyTVhDm13_28h3_h1_stream_body_errors_e2e
FNDA:2,_RNCNvMNtCseagxtsvVhuF_7lb_quic6routerNtB4_12RouterHandle4join0CsdrYhuxVj2nq_23h3_h1_trailers_resp_e2e
FNDA:0,_RNCNCNvNtCs5tlsoORduBh_7lb_quic6router15dispatch_packet00B7_
FNDA:0,_RNCNvMNtCs5tlsoORduBh_7lb_quic6routerNtB4_12RouterHandle4join0B6_
FNDA:0,_RNCNvNtCs5tlsoORduBh_7lb_quic6router10send_retry0B5_
FNDA:0,_RNCNvNtCs5tlsoORduBh_7lb_quic6router11router_main0B5_
FNDA:0,_RNCNvNtCs5tlsoORduBh_7lb_quic6router15dispatch_packet0B5_
FNDA:0,_RNCNvNtCs5tlsoORduBh_7lb_quic6router5spawn0B5_
FNDA:0,_RNvMNtCs5tlsoORduBh_7lb_quic6routerNtB2_12RouterHandle4join
FNDA:0,_RNvNtCs5tlsoORduBh_7lb_quic6router10send_retry
FNDA:0,_RNvNtCs5tlsoORduBh_7lb_quic6router11router_main
FNDA:0,_RNvNtCs5tlsoORduBh_7lb_quic6router15dispatch_packet
FNDA:0,_RNvNtCs5tlsoORduBh_7lb_quic6router16build_replay_key
FNDA:0,_RNvNtCs5tlsoORduBh_7lb_quic6router16forward_to_actor
FNDA:0,_RNvNtCs5tlsoORduBh_7lb_quic6router5spawn
FNDA:1,_RNvNtNtCs5tlsoORduBh_7lb_quic6router5testss_37router_drops_initial_when_cap_reached
FNDA:0,_RNCNvNtCs5tlsoORduBh_7lb_quic6router14sample_conn_id0B5_
FNDA:0,_RNCNvNtCs5tlsoORduBh_7lb_quic6router20spawn_new_connection0B5_
FNDA:0,_RNCNvNtCs5tlsoORduBh_7lb_quic6router20spawn_new_connections0_0B5_
FNDA:0,_RNCNvNtCs5tlsoORduBh_7lb_quic6router20spawn_new_connections_0B5_
FNDA:1,_RNvNtCs5tlsoORduBh_7lb_quic6router14sample_conn_id
FNDA:1,_RNvNtCs5tlsoORduBh_7lb_quic6router20spawn_new_connection
FNDA:0,_RNCNCNvNtNtCs5tlsoORduBh_7lb_quic6router5testss_37router_drops_initial_when_cap_reached00B9_
FNDA:1,_RNCNvNtNtCs5tlsoORduBh_7lb_quic6router5testss_37router_drops_initial_when_cap_reached0B7_
FNDA:7,_RNCNvMNtCseagxtsvVhuF_7lb_quic6routerNtB4_12RouterHandle4join0CsbzKUtbruD1t_18listener_lifecycle
FNDA:3,_RNCNvMNtCseagxtsvVhuF_7lb_quic6routerNtB4_12RouterHandle4join0Cskyzrmc5CcaX_18router_accept_path
FNF:22
FNH:18
DA:105,43
DA:106,43
DA:107,43
DA:112,43
DA:113,43
DA:114,43
DA:115,0
DA:116,43
DA:117,43
DA:118,43
DA:119,43
DA:121,43
DA:122,43
DA:124,43
DA:125,43
DA:126,43
DA:127,43
DA:130,133804
DA:132,133804
DA:133,43
DA:134,43
DA:136,133804
DA:137,133761
DA:138,133761
DA:139,0
DA:140,0
DA:141,0
DA:144,133761
DA:145,133761
DA:146,133761
DA:147,133761
DA:148,133761
DA:149,133761
DA:150,133761
DA:151,133761
DA:153,0
DA:154,133761
DA:158,43
DA:160,133761
DA:161,133761
DA:162,133761
DA:163,133761
DA:164,133761
DA:165,133761
DA:166,133761
DA:170,133761
DA:171,133761
DA:172,0
DA:174,133761
DA:177,133761
DA:178,133681
DA:179,133681
DA:180,80
DA:181,80
DA:182,80
DA:183,80
DA:184,80
DA:185,80
DA:186,0
DA:187,80
DA:188,80
DA:189,80
DA:190,80
DA:191,40
DA:192,40
DA:193,40
DA:195,40
DA:196,40
DA:197,0
DA:198,0
DA:199,0
DA:206,40
DA:207,40
DA:208,40
DA:209,0
DA:210,0
DA:211,40
DA:212,40
DA:213,40
DA:214,40
DA:215,40
DA:216,40
DA:217,40
DA:218,40
DA:219,40
DA:220,40
DA:221,133761
DA:229,40
DA:230,40
DA:231,40
DA:232,40
DA:233,40
DA:234,40
DA:235,40
DA:238,133681
DA:239,133681
DA:240,133681
DA:241,133681
DA:242,133681
DA:243,133681
DA:244,133681
DA:245,133681
DA:246,133681
DA:247,133681
DA:248,82705
DA:250,50976
DA:252,0
DA:253,0
DA:254,0
DA:256,133681
DA:260,40
DA:261,40
DA:262,40
DA:263,40
DA:264,40
DA:265,40
DA:266,40
DA:267,40
DA:268,40
DA:269,40
DA:270,40
DA:271,40
DA:272,40
DA:273,40
DA:274,40
DA:275,40
DA:276,40
DA:277,40
DA:278,40
DA:279,40
DA:280,40
DA:281,40
DA:282,40
DA:283,40
DA:284,40
DA:285,40
DA:286,40
DA:287,0
DA:289,40
DA:290,40
DA:291,0
DA:292,40
DA:293,40
DA:294,40
DA:296,41
DA:297,41
DA:298,41
DA:299,41
DA:300,41
DA:301,41
DA:302,41
DA:303,41
DA:304,41
DA:305,41
DA:306,41
DA:307,41
DA:308,41
DA:309,41
DA:310,41
DA:311,1
DA:312,0
DA:313,0
DA:314,0
DA:315,0
DA:316,0
DA:318,1
DA:319,40
DA:320,40
DA:321,40
DA:322,40
DA:323,40
DA:324,40
DA:325,40
DA:326,40
DA:327,40
DA:328,40
DA:330,40
DA:331,40
DA:332,40
DA:333,40
DA:334,40
DA:335,40
DA:336,40
DA:337,40
DA:338,40
DA:339,40
DA:340,40
DA:341,40
DA:343,40
DA:344,40
DA:345,40
DA:346,40
DA:347,40
DA:348,40
DA:349,40
DA:350,40
DA:351,40
DA:352,40
DA:353,40
DA:354,40
DA:355,40
DA:356,40
DA:357,40
DA:358,40
DA:359,40
DA:360,40
DA:361,40
DA:362,40
DA:363,40
DA:364,40
DA:365,40
DA:366,40
DA:367,40
DA:368,40
DA:369,40
DA:370,40
DA:371,40
DA:372,40
DA:373,40
DA:374,40
DA:375,40
DA:376,40
DA:377,40
DA:378,40
DA:379,40
DA:380,40
DA:381,40
DA:382,40
DA:383,40
DA:384,40
DA:385,40
DA:386,40
DA:387,40
DA:388,40
DA:389,40
DA:390,40
DA:391,40
DA:393,40
DA:394,40
DA:395,41
DA:397,81
DA:399,81
DA:400,81
DA:401,0
DA:402,0
DA:403,0
DA:404,0
DA:405,0
DA:406,0
DA:407,0
DA:408,0
DA:409,0
DA:410,0
DA:411,0
DA:412,0
DA:413,0
DA:415,81
DA:416,81
DA:417,81
DA:445,1
DA:446,1
DA:447,1
DA:448,1
DA:449,1
DA:450,1
DA:451,1
DA:452,1
DA:453,1
DA:454,1
DA:455,1
DA:456,1
DA:457,1
DA:458,1
DA:459,1
DA:460,1
DA:461,1
DA:462,1
DA:463,1
DA:464,1
DA:465,1
DA:466,1
DA:467,1
DA:468,1
DA:469,1
DA:470,1
DA:471,1
DA:472,1
DA:473,1
DA:474,1
DA:475,1
DA:476,1
DA:477,1
DA:478,1
DA:479,1
DA:480,1
DA:481,1
DA:482,1
DA:483,1
DA:484,1
DA:485,5
DA:486,4
DA:487,4
DA:488,4
DA:489,4
DA:490,4
DA:491,4
DA:492,4
DA:493,4
DA:494,4
DA:495,1
DA:496,1
DA:497,1
DA:498,1
DA:499,1
DA:500,1
DA:501,1
DA:502,1
DA:503,1
DA:504,1
DA:505,1
DA:506,1
DA:507,1
DA:508,1
DA:509,1
DA:510,1
DA:511,1
DA:512,1
DA:513,1
DA:514,1
DA:515,1
DA:516,1
DA:517,1
DA:518,1
DA:519,1
DA:520,1
DA:521,1
DA:522,1
DA:523,1
DA:524,1
DA:525,1
DA:526,1
DA:527,1
DA:528,1
DA:529,1
DA:530,1
DA:531,1
DA:532,1
DA:533,1
DA:534,1
DA:535,1
DA:536,1
DA:537,1
DA:538,1
DA:539,1
DA:540,1
DA:541,1
DA:542,1
DA:543,1
DA:544,1
DA:545,1
DA:546,1
DA:547,1
DA:548,1
DA:549,1
DA:550,1
DA:551,1
DA:552,1
DA:553,1
DA:554,1
DA:555,1
DA:556,1
DA:557,1
DA:558,1
DA:559,1
BRF:0
BRH:0
LF:489
LH:444
end_of_record