SF:/home/ubuntu/Code/ExpressGateway/crates/lb-quic/src/cleanup_guard.rs
FN:59,_RNvMNtCskwRMVHy5hME_7lb_quic13cleanup_guardINtB2_13CidEntryGuardppE6disarmB4_
FN:50,_RNvMNtCskwRMVHy5hME_7lb_quic13cleanup_guardINtB2_13CidEntryGuardINtNtCs8GO9KFlE3Dq_5alloc3vec3VechEINtNtNtNtCsfWKKmeeA0Vo_5tokio4sync4mpsc7bounded6SenderNtNtB4_10conn_actor13InboundPacketEE3newB4_
FN:68,_RNvXs_NtCskwRMVHy5hME_7lb_quic13cleanup_guardINtB4_13CidEntryGuardINtNtCs8GO9KFlE3Dq_5alloc3vec3VechEINtNtNtNtCsfWKKmeeA0Vo_5tokio4sync4mpsc7bounded6SenderNtNtB6_10conn_actor13InboundPacketEENtNtNtCs2va5m0jqTTM_4core3ops4drop4Drop4dropB6_
FNDA:0,_RNvMNtCskwRMVHy5hME_7lb_quic13cleanup_guardINtB2_13CidEntryGuardppE6disarmB4_
FNDA:70,_RNvMNtCskwRMVHy5hME_7lb_quic13cleanup_guardINtB2_13CidEntryGuardINtNtCs8GO9KFlE3Dq_5alloc3vec3VechEINtNtNtNtCsfWKKmeeA0Vo_5tokio4sync4mpsc7bounded6SenderNtNtB4_10conn_actor13InboundPacketEE3newB4_
FNDA:70,_RNvXs_NtCskwRMVHy5hME_7lb_quic13cleanup_guardINtB4_13CidEntryGuardINtNtCs8GO9KFlE3Dq_5alloc3vec3VechEINtNtNtNtCsfWKKmeeA0Vo_5tokio4sync4mpsc7bounded6SenderNtNtB6_10conn_actor13InboundPacketEENtNtNtCs2va5m0jqTTM_4core3ops4drop4Drop4dropB6_
FNF:3
FNH:2
DA:50,70
DA:51,70
DA:52,70
DA:53,70
DA:54,70
DA:55,70
DA:59,0
DA:60,0
DA:61,0
DA:68,70
DA:69,210
DA:70,140
DA:71,140
DA:72,140
DA:73,140
DA:74,140
DA:75,140
DA:77,70
BRF:0
BRH:0
LF:18
LH:15
end_of_record
SF:/home/ubuntu/Code/ExpressGateway/crates/lb-quic/src/conn_actor.rs
FN:390,_RNCNCNvNtCskwRMVHy5hME_7lb_quic10conn_actor9run_actor00B7_
FN:444,_RNCNCNvNtCskwRMVHy5hME_7lb_quic10conn_actor9run_actor0s_0B7_
FN:949,_RNCNvNtCskwRMVHy5hME_7lb_quic10conn_actor15drain_conn_send0B5_
FN:1540,_RNCNvNtCskwRMVHy5hME_7lb_quic10conn_actor15setup_ws_tunnel0B5_
FN:1541,_RNCNvNtCskwRMVHy5hME_7lb_quic10conn_actor15setup_ws_tunnels_0B5_
FN:606,_RNCNvNtCskwRMVHy5hME_7lb_quic10conn_actor19drain_resp_channels0B5_
FN:608,_RNCNvNtCskwRMVHy5hME_7lb_quic10conn_actor19drain_resp_channelss_0B5_
FN:1433,_RNCNvNtCskwRMVHy5hME_7lb_quic10conn_actor19record_req_retained0B5_
FN:886,_RNCNvNtCskwRMVHy5hME_7lb_quic10conn_actor20graceful_h3_shutdown0B5_
FN:787,_RNCNvNtCskwRMVHy5hME_7lb_quic10conn_actor21drain_streams_to_conn0B5_
FN:853,_RNCNvNtCskwRMVHy5hME_7lb_quic10conn_actor21drain_streams_to_conns_0B5_
FN:1462,_RNCNvNtCskwRMVHy5hME_7lb_quic10conn_actor24spawn_inline_h3_response0B5_
FN:1110,_RNCNvNtCskwRMVHy5hME_7lb_quic10conn_actor7poll_h30B5_
FN:1199,_RNCNvNtCskwRMVHy5hME_7lb_quic10conn_actor7poll_h3s0_0B5_
FN:1200,_RNCNvNtCskwRMVHy5hME_7lb_quic10conn_actor7poll_h3s1_0B5_
FN:1226,_RNCNvNtCskwRMVHy5hME_7lb_quic10conn_actor7poll_h3s2_0B5_
FN:1243,_RNCNvNtCskwRMVHy5hME_7lb_quic10conn_actor7poll_h3s3_0B5_
FN:1261,_RNCNvNtCskwRMVHy5hME_7lb_quic10conn_actor7poll_h3s4_0B5_
FN:1124,_RNCNvNtCskwRMVHy5hME_7lb_quic10conn_actor7poll_h3s_0B5_
FN:265,_RNCNvNtCskwRMVHy5hME_7lb_quic10conn_actor9run_actor0B5_
FN:679,_RNvMNtCskwRMVHy5hME_7lb_quic10conn_actorNtB2_8StreamTx11progressive
FN:1667,_RNvNtCskwRMVHy5hME_7lb_quic10conn_actor11ws_teardown
FN:1441,_RNvNtCskwRMVHy5hME_7lb_quic10conn_actor14select_backend
FN:945,_RNvNtCskwRMVHy5hME_7lb_quic10conn_actor15drain_conn_send
FN:1694,_RNvNtCskwRMVHy5hME_7lb_quic10conn_actor15pump_ws_tunnels
FN:934,_RNvNtCskwRMVHy5hME_7lb_quic10conn_actor15reset_h3_stream
FN:1490,_RNvNtCskwRMVHy5hME_7lb_quic10conn_actor15setup_ws_tunnel
FN:1580,_RNvNtCskwRMVHy5hME_7lb_quic10conn_actor16ws_drain_inbound
FN:989,_RNvNtCskwRMVHy5hME_7lb_quic10conn_actor18drain_request_body
FN:517,_RNvNtCskwRMVHy5hME_7lb_quic10conn_actor19drain_resp_channels
FN:1426,_RNvNtCskwRMVHy5hME_7lb_quic10conn_actor19record_req_retained
FN:882,_RNvNtCskwRMVHy5hME_7lb_quic10conn_actor20graceful_h3_shutdown
FN:1624,_RNvNtCskwRMVHy5hME_7lb_quic10conn_actor20ws_handle_client_fin
FN:700,_RNvNtCskwRMVHy5hME_7lb_quic10conn_actor21drain_streams_to_conn
FN:1654,_RNvNtCskwRMVHy5hME_7lb_quic10conn_actor22ws_handle_client_reset
FN:1453,_RNvNtCskwRMVHy5hME_7lb_quic10conn_actor24spawn_inline_h3_response
FN:470,_RNvNtCskwRMVHy5hME_7lb_quic10conn_actor31reap_client_cancelled_responses
FN:1068,_RNvNtCskwRMVHy5hME_7lb_quic10conn_actor7poll_h3
FN:265,_RNvNtCskwRMVHy5hME_7lb_quic10conn_actor9run_actor
FNDA:70,_RNCNCNvNtCskwRMVHy5hME_7lb_quic10conn_actor9run_actor00B7_
FNDA:8850,_RNCNCNvNtCskwRMVHy5hME_7lb_quic10conn_actor9run_actor0s_0B7_
FNDA:9588,_RNCNvNtCskwRMVHy5hME_7lb_quic10conn_actor15drain_conn_send0B5_
FNDA:0,_RNCNvNtCskwRMVHy5hME_7lb_quic10conn_actor15setup_ws_tunnel0B5_
FNDA:0,_RNCNvNtCskwRMVHy5hME_7lb_quic10conn_actor15setup_ws_tunnels_0B5_
FNDA:142,_RNCNvNtCskwRMVHy5hME_7lb_quic10conn_actor19drain_resp_channels0B5_
FNDA:134,_RNCNvNtCskwRMVHy5hME_7lb_quic10conn_actor19drain_resp_channelss_0B5_
FNDA:3699,_RNCNvNtCskwRMVHy5hME_7lb_quic10conn_actor19record_req_retained0B5_
FNDA:0,_RNCNvNtCskwRMVHy5hME_7lb_quic10conn_actor20graceful_h3_shutdown0B5_
FNDA:134,_RNCNvNtCskwRMVHy5hME_7lb_quic10conn_actor21drain_streams_to_conn0B5_
FNDA:9050,_RNCNvNtCskwRMVHy5hME_7lb_quic10conn_actor21drain_streams_to_conns_0B5_
FNDA:0,_RNCNvNtCskwRMVHy5hME_7lb_quic10conn_actor24spawn_inline_h3_response0B5_
FNDA:420,_RNCNvNtCskwRMVHy5hME_7lb_quic10conn_actor7poll_h30B5_
FNDA:0,_RNCNvNtCskwRMVHy5hME_7lb_quic10conn_actor7poll_h3s0_0B5_
FNDA:0,_RNCNvNtCskwRMVHy5hME_7lb_quic10conn_actor7poll_h3s1_0B5_
FNDA:69,_RNCNvNtCskwRMVHy5hME_7lb_quic10conn_actor7poll_h3s2_0B5_
FNDA:0,_RNCNvNtCskwRMVHy5hME_7lb_quic10conn_actor7poll_h3s3_0B5_
FNDA:1,_RNCNvNtCskwRMVHy5hME_7lb_quic10conn_actor7poll_h3s4_0B5_
FNDA:0,_RNCNvNtCskwRMVHy5hME_7lb_quic10conn_actor7poll_h3s_0B5_
FNDA:70,_RNCNvNtCskwRMVHy5hME_7lb_quic10conn_actor9run_actor0B5_
FNDA:70,_RNvMNtCskwRMVHy5hME_7lb_quic10conn_actorNtB2_8StreamTx11progressive
FNDA:0,_RNvNtCskwRMVHy5hME_7lb_quic10conn_actor11ws_teardown
FNDA:1,_RNvNtCskwRMVHy5hME_7lb_quic10conn_actor14select_backend
FNDA:9588,_RNvNtCskwRMVHy5hME_7lb_quic10conn_actor15drain_conn_send
FNDA:9448,_RNvNtCskwRMVHy5hME_7lb_quic10conn_actor15pump_ws_tunnels
FNDA:0,_RNvNtCskwRMVHy5hME_7lb_quic10conn_actor15reset_h3_stream
FNDA:0,_RNvNtCskwRMVHy5hME_7lb_quic10conn_actor15setup_ws_tunnel
FNDA:0,_RNvNtCskwRMVHy5hME_7lb_quic10conn_actor16ws_drain_inbound
FNDA:5306,_RNvNtCskwRMVHy5hME_7lb_quic10conn_actor18drain_request_body
FNDA:9518,_RNvNtCskwRMVHy5hME_7lb_quic10conn_actor19drain_resp_channels
FNDA:3699,_RNvNtCskwRMVHy5hME_7lb_quic10conn_actor19record_req_retained
FNDA:0,_RNvNtCskwRMVHy5hME_7lb_quic10conn_actor20graceful_h3_shutdown
FNDA:0,_RNvNtCskwRMVHy5hME_7lb_quic10conn_actor20ws_handle_client_fin
FNDA:9588,_RNvNtCskwRMVHy5hME_7lb_quic10conn_actor21drain_streams_to_conn
FNDA:0,_RNvNtCskwRMVHy5hME_7lb_quic10conn_actor22ws_handle_client_reset
FNDA:0,_RNvNtCskwRMVHy5hME_7lb_quic10conn_actor24spawn_inline_h3_response
FNDA:9518,_RNvNtCskwRMVHy5hME_7lb_quic10conn_actor31reap_client_cancelled_responses
FNDA:9448,_RNvNtCskwRMVHy5hME_7lb_quic10conn_actor7poll_h3
FNDA:70,_RNvNtCskwRMVHy5hME_7lb_quic10conn_actor9run_actor
FNF:39
FNH:23
DA:265,70
DA:266,70
DA:267,70
DA:268,70
DA:269,70
DA:270,70
DA:271,70
DA:272,0
DA:273,70
DA:274,70
DA:275,70
DA:276,70
DA:277,70
DA:278,70
DA:279,70
DA:280,70
DA:281,70
DA:282,70
DA:283,70
DA:284,70
DA:285,70
DA:286,70
DA:287,70
DA:288,70
DA:289,70
DA:290,70
DA:291,70
DA:292,70
DA:293,70
DA:294,70
DA:295,70
DA:296,70
DA:297,70
DA:298,70
DA:299,70
DA:300,70
DA:301,70
DA:302,70
DA:303,70
DA:304,70
DA:305,70
DA:306,70
DA:307,70
DA:308,70
DA:309,70
DA:310,70
DA:311,70
DA:312,70
DA:313,70
DA:322,9588
DA:323,9588
DA:325,9588
DA:326,0
DA:327,9588
DA:328,9588
DA:329,9588
DA:330,9588
DA:331,9588
DA:332,9588
DA:333,9588
DA:334,9588
DA:335,9588
DA:336,9588
DA:337,9588
DA:338,9588
DA:339,9588
DA:340,9588
DA:341,9588
DA:342,9588
DA:343,9588
DA:344,9588
DA:345,9588
DA:346,9588
DA:347,9588
DA:348,9588
DA:349,9588
DA:350,9588
DA:351,9588
DA:352,9588
DA:353,9588
DA:354,9050
DA:355,9050
DA:356,9050
DA:358,9588
DA:360,9588
DA:361,0
DA:362,0
DA:364,9588
DA:365,9232
DA:366,9232
DA:367,9232
DA:368,9232
DA:369,0
DA:370,0
DA:374,9588
DA:375,286
DA:376,286
DA:380,9518
DA:384,9448
DA:389,70
DA:390,70
DA:392,70
DA:393,0
DA:394,0
DA:395,0
DA:396,0
DA:397,0
DA:401,9378
DA:402,9448
DA:403,9448
DA:404,9448
DA:405,9448
DA:406,9448
DA:407,9448
DA:408,9448
DA:409,9448
DA:410,9448
DA:411,9448
DA:412,9448
DA:413,9448
DA:414,9448
DA:415,9448
DA:416,9448
DA:417,9448
DA:418,9448
DA:419,9448
DA:420,9448
DA:421,70
DA:427,9518
DA:428,9518
DA:429,9518
DA:430,9518
DA:431,9518
DA:432,9518
DA:433,9518
DA:434,9518
DA:435,9518
DA:436,9518
DA:437,9518
DA:438,9518
DA:439,9518
DA:440,9518
DA:441,9518
DA:442,9518
DA:443,9518
DA:444,9518
DA:451,0
DA:452,0
DA:453,0
DA:454,0
DA:455,0
DA:470,9518
DA:471,9518
DA:472,9518
DA:473,9518
DA:474,9518
DA:475,9518
DA:476,9518
DA:477,9120
DA:478,0
DA:479,0
DA:482,0
DA:483,0
DA:485,0
DA:487,9120
DA:490,9518
DA:491,0
DA:492,0
DA:493,0
DA:494,0
DA:495,0
DA:496,0
DA:497,9518
DA:517,9518
DA:518,9518
DA:519,9518
DA:520,9518
DA:521,9518
DA:522,18638
DA:538,9050
DA:539,9050
DA:540,9050
DA:541,9050
DA:543,9120
DA:545,70
DA:546,70
DA:548,9050
DA:552,0
DA:553,9050
DA:554,9050
DA:555,9050
DA:556,354
DA:557,8696
DA:558,8696
DA:559,0
DA:566,8696
DA:570,70
DA:571,70
DA:572,70
DA:573,3054
DA:574,67
DA:575,2
DA:576,1
DA:577,5502
DA:578,0
DA:579,0
DA:580,0
DA:581,0
DA:582,0
DA:583,0
DA:599,9518
DA:600,9518
DA:601,9050
DA:602,9050
DA:603,3545
DA:604,3408
DA:605,70
DA:606,142
DA:608,134
DA:612,9518
DA:613,9050
DA:614,9050
DA:615,9050
DA:616,9050
DA:617,9050
DA:618,9518
DA:619,9518
DA:620,9518
DA:679,70
DA:680,70
DA:681,70
DA:682,70
DA:683,70
DA:684,70
DA:685,70
DA:686,70
DA:687,70
DA:700,9588
DA:701,9588
DA:702,9588
DA:703,9588
DA:704,9588
DA:705,9588
DA:706,9588
DA:707,9050
DA:708,9050
DA:709,9050
DA:710,9050
DA:711,9050
DA:712,9050
DA:713,9050
DA:714,9050
DA:715,9050
DA:716,9050
DA:717,9050
DA:718,0
DA:719,9050
DA:723,9050
DA:724,0
DA:731,12174
DA:732,3545
DA:733,70
DA:734,70
DA:737,0
DA:738,0
DA:739,70
DA:740,70
DA:741,70
DA:742,70
DA:743,70
DA:744,70
DA:745,70
DA:746,142
DA:747,142
DA:748,142
DA:749,142
DA:750,70
DA:751,70
DA:752,70
DA:753,70
DA:754,70
DA:756,0
DA:757,0
DA:758,0
DA:759,0
DA:760,0
DA:764,3408
DA:765,3408
DA:766,0
DA:767,3408
DA:768,3054
DA:769,3054
DA:770,354
DA:771,354
DA:772,354
DA:773,354
DA:774,354
DA:776,0
DA:777,0
DA:778,0
DA:779,0
DA:780,0
DA:784,67
DA:785,67
DA:786,67
DA:787,134
DA:788,67
DA:789,67
DA:790,67
DA:791,67
DA:792,67
DA:793,67
DA:794,67
DA:795,67
DA:796,67
DA:797,67
DA:798,67
DA:800,67
DA:801,67
DA:802,67
DA:803,67
DA:806,0
DA:807,0
DA:808,0
DA:809,0
DA:810,0
DA:816,9050
DA:821,1
DA:822,1
DA:823,0
DA:824,0
DA:827,1
DA:828,1
DA:829,9049
DA:834,2
DA:835,2
DA:836,0
DA:837,0
DA:840,2
DA:841,2
DA:842,9047
DA:846,9658
DA:849,70
DA:850,70
DA:851,70
DA:853,9588
DA:854,9050
DA:855,9050
DA:856,9588
DA:857,9588
DA:882,0
DA:883,0
DA:884,0
DA:885,0
DA:886,0
DA:887,0
DA:888,0
DA:889,0
DA:890,0
DA:893,0
DA:895,0
DA:896,0
DA:897,0
DA:898,0
DA:899,0
DA:900,0
DA:901,0
DA:903,0
DA:904,0
DA:905,0
DA:906,0
DA:907,0
DA:908,0
DA:909,0
DA:910,0
DA:911,0
DA:912,0
DA:914,0
DA:934,0
DA:935,0
DA:936,0
DA:937,0
DA:939,0
DA:940,0
DA:941,0
DA:943,0
DA:945,9588
DA:946,9588
DA:947,9588
DA:948,9588
DA:949,9588
DA:951,22626
DA:952,13038
DA:953,13038
DA:954,13038
DA:955,0
DA:956,0
DA:957,13038
DA:959,9588
DA:960,0
DA:961,0
DA:962,0
DA:966,9588
DA:989,5306
DA:990,5306
DA:991,5306
DA:992,5306
DA:993,5306
DA:994,5306
DA:995,5306
DA:996,5306
DA:997,5306
DA:1000,9005
DA:1001,9005
DA:1002,0
DA:1004,9005
DA:1005,0
DA:1006,3699
DA:1007,3699
DA:1008,3699
DA:1009,3699
DA:1013,0
DA:1014,0
DA:1015,0
DA:1016,0
DA:1017,0
DA:1018,0
DA:1019,3699
DA:1022,3699
DA:1023,3699
DA:1024,3699
DA:1025,3699
DA:1026,3699
DA:1028,3699
DA:1030,5306
DA:1031,0
DA:1032,0
DA:1033,0
DA:1034,0
DA:1037,0
DA:1039,0
DA:1040,0
DA:1041,0
DA:1042,0
DA:1043,0
DA:1044,0
DA:1048,5306
DA:1068,9448
DA:1069,9448
DA:1070,9448
DA:1071,9448
DA:1072,9448
DA:1073,9448
DA:1074,9448
DA:1075,9448
DA:1076,9448
DA:1077,9448
DA:1078,9448
DA:1079,9448
DA:1080,9448
DA:1081,9448
DA:1082,9448
DA:1083,9448
DA:1084,9448
DA:1085,9448
DA:1086,9448
DA:1087,9448
DA:1088,9448
DA:1089,9448
DA:1090,9448
DA:1091,9448
DA:1092,9448
DA:1093,14614
DA:1094,5166
DA:1095,5166
DA:1096,5166
DA:1097,5166
DA:1098,5166
DA:1099,5166
DA:1100,5166
DA:1101,5166
DA:1102,5166
DA:1106,9658
DA:1107,70
DA:1108,70
DA:1109,70
DA:1110,420
DA:1112,420
DA:1113,420
DA:1114,420
DA:1115,420
DA:1116,420
DA:1117,70
DA:1118,70
DA:1119,70
DA:1120,70
DA:1121,70
DA:1124,0
DA:1125,0
DA:1127,0
DA:1129,0
DA:1130,0
DA:1131,0
DA:1132,0
DA:1133,0
DA:1134,0
DA:1135,0
DA:1136,0
DA:1137,0
DA:1138,70
DA:1144,70
DA:1145,0
DA:1148,0
DA:1150,0
DA:1151,0
DA:1152,70
DA:1153,70
DA:1154,70
DA:1155,70
DA:1156,70
DA:1157,70
DA:1158,70
DA:1159,0
DA:1163,0
DA:1170,0
DA:1171,0
DA:1172,0
DA:1173,0
DA:1174,0
DA:1175,0
DA:1176,0
DA:1177,0
DA:1178,0
DA:1179,70
DA:1180,0
DA:1195,70
DA:1196,0
DA:1197,0
DA:1198,0
DA:1199,0
DA:1200,0
DA:1201,0
DA:1202,0
DA:1203,0
DA:1204,0
DA:1205,0
DA:1206,0
DA:1207,0
DA:1208,0
DA:1209,0
DA:1210,0
DA:1211,0
DA:1212,0
DA:1213,0
DA:1214,70
DA:1216,70
DA:1217,70
DA:1218,70
DA:1219,70
DA:1220,70
DA:1221,70
DA:1222,70
DA:1224,70
DA:1225,69
DA:1226,69
DA:1227,69
DA:1228,69
DA:1229,69
DA:1230,69
DA:1231,69
DA:1232,69
DA:1233,69
DA:1234,69
DA:1235,69
DA:1237,1
DA:1238,68
DA:1239,69
DA:1240,69
DA:1241,1
DA:1242,0
DA:1243,0
DA:1244,0
DA:1245,0
DA:1246,0
DA:1247,0
DA:1248,0
DA:1249,0
DA:1250,0
DA:1251,0
DA:1252,0
DA:1253,0
DA:1255,0
DA:1256,0
DA:1257,0
DA:1258,0
DA:1259,1
DA:1260,1
DA:1261,1
DA:1262,1
DA:1263,1
DA:1264,1
DA:1265,1
DA:1266,1
DA:1267,1
DA:1268,1
DA:1269,1
DA:1270,1
DA:1272,0
DA:1273,1
DA:1274,1
DA:1275,1
DA:1277,0
DA:1278,0
DA:1280,70
DA:1281,0
DA:1282,70
DA:1283,70
DA:1284,70
DA:1285,70
DA:1286,70
DA:1287,0
DA:1288,0
DA:1289,0
DA:1290,0
DA:1291,0
DA:1292,0
DA:1293,0
DA:1294,70
DA:1295,70
DA:1296,70
DA:1297,70
DA:1298,70
DA:1299,70
DA:1300,70
DA:1301,70
DA:1302,70
DA:1303,70
DA:1304,70
DA:1305,70
DA:1306,70
DA:1307,70
DA:1308,70
DA:1309,70
DA:1311,70
DA:1312,70
DA:1313,70
DA:1314,70
DA:1315,70
DA:1316,70
DA:1317,70
DA:1318,70
DA:1319,70
DA:1320,70
DA:1321,70
DA:1326,70
DA:1327,0
DA:1328,0
DA:1329,70
DA:1346,70
DA:1347,70
DA:1350,70
DA:1351,70
DA:1352,0
DA:1354,0
DA:1355,0
DA:1357,0
DA:1358,70
DA:1359,70
DA:1360,70
DA:1361,70
DA:1362,0
DA:1363,70
DA:1364,70
DA:1366,0
DA:1371,0
DA:1372,0
DA:1373,0
DA:1374,0
DA:1375,0
DA:1376,0
DA:1377,0
DA:1380,0
DA:1382,0
DA:1383,0
DA:1384,0
DA:1385,0
DA:1386,0
DA:1390,0
DA:1391,9448
DA:1392,0
DA:1393,0
DA:1394,0
DA:1395,0
DA:1396,0
DA:1397,0
DA:1398,0
DA:1399,0
DA:1408,9448
DA:1409,9448
DA:1410,9448
DA:1411,9448
DA:1412,9448
DA:1413,9448
DA:1414,9448
DA:1415,9448
DA:1416,9448
DA:1426,3699
DA:1427,3699
DA:1428,3699
DA:1429,3699
DA:1430,3699
DA:1431,3699
DA:1432,3699
DA:1433,3699
DA:1434,3699
DA:1435,3699
DA:1436,3699
DA:1441,1
DA:1442,1
DA:1443,1
DA:1453,0
DA:1454,0
DA:1455,0
DA:1456,0
DA:1457,0
DA:1458,0
DA:1459,0
DA:1460,0
DA:1461,0
DA:1462,0
DA:1463,0
DA:1464,0
DA:1465,0
DA:1466,0
DA:1467,0
DA:1468,0
DA:1469,0
DA:1470,0
DA:1471,0
DA:1472,0
DA:1473,0
DA:1474,0
DA:1475,0
DA:1476,0
DA:1490,0
DA:1491,0
DA:1492,0
DA:1493,0
DA:1494,0
DA:1495,0
DA:1496,0
DA:1497,0
DA:1498,0
DA:1499,0
DA:1500,0
DA:1501,0
DA:1502,0
DA:1503,0
DA:1506,0
DA:1508,0
DA:1509,0
DA:1510,0
DA:1511,0
DA:1512,0
DA:1513,0
DA:1514,0
DA:1515,0
DA:1516,0
DA:1517,0
DA:1518,0
DA:1521,0
DA:1523,0
DA:1525,0
DA:1526,0
DA:1527,0
DA:1528,0
DA:1529,0
DA:1530,0
DA:1531,0
DA:1532,0
DA:1533,0
DA:1537,0
DA:1538,0
DA:1539,0
DA:1540,0
DA:1541,0
DA:1542,0
DA:1543,0
DA:1544,0
DA:1545,0
DA:1546,0
DA:1547,0
DA:1548,0
DA:1549,0
DA:1550,0
DA:1551,0
DA:1552,0
DA:1553,0
DA:1555,0
DA:1557,0
DA:1558,0
DA:1559,0
DA:1560,0
DA:1561,0
DA:1562,0
DA:1563,0
DA:1564,0
DA:1565,0
DA:1566,0
DA:1567,0
DA:1568,0
DA:1569,0
DA:1570,0
DA:1571,0
DA:1580,0
DA:1581,0
DA:1582,0
DA:1583,0
DA:1584,0
DA:1585,0
DA:1586,0
DA:1587,0
DA:1588,0
DA:1591,0
DA:1592,0
DA:1594,0
DA:1597,0
DA:1598,0
DA:1599,0
DA:1600,0
DA:1601,0
DA:1602,0
DA:1603,0
DA:1604,0
DA:1605,0
DA:1606,0
DA:1607,0
DA:1608,0
DA:1609,0
DA:1610,0
DA:1611,0
DA:1612,0
DA:1616,0
DA:1624,0
DA:1625,0
DA:1626,0
DA:1627,0
DA:1628,0
DA:1629,0
DA:1630,0
DA:1631,0
DA:1632,0
DA:1633,0
DA:1635,0
DA:1636,0
DA:1639,0
DA:1640,0
DA:1642,0
DA:1644,0
DA:1646,0
DA:1649,0
DA:1654,0
DA:1655,0
DA:1656,0
DA:1658,0
DA:1660,0
DA:1661,0
DA:1662,0
DA:1667,0
DA:1668,0
DA:1669,0
DA:1670,0
DA:1671,0
DA:1672,0
DA:1674,0
DA:1675,0
DA:1676,0
DA:1678,0
DA:1679,0
DA:1680,0
DA:1694,9448
DA:1695,9448
DA:1696,9448
DA:1697,9448
DA:1698,9448
DA:1699,9448
DA:1700,9448
DA:1701,9448
DA:1702,9448
DA:1703,9448
DA:1704,0
DA:1705,0
DA:1706,0
DA:1707,0
DA:1708,0
DA:1709,0
DA:1713,0
DA:1714,0
DA:1715,0
DA:1716,0
DA:1717,0
DA:1718,0
DA:1719,0
DA:1720,0
DA:1721,0
DA:1722,0
DA:1723,0
DA:1724,0
DA:1725,0
DA:1726,0
DA:1727,0
DA:1728,0
DA:1729,0
DA:1730,0
DA:1734,0
DA:1739,0
DA:1740,0
DA:1741,0
DA:1742,0
DA:1743,0
DA:1744,0
DA:1745,0
DA:1746,0
DA:1747,0
DA:1748,0
DA:1749,0
DA:1752,0
DA:1755,0
DA:1756,0
DA:1757,0
DA:1758,0
DA:1759,0
DA:1760,0
DA:1761,0
DA:1763,0
DA:1764,0
DA:1765,0
DA:1768,0
DA:1770,0
DA:1771,0
DA:1772,0
DA:1773,0
DA:1774,0
DA:1777,0
DA:1779,0
DA:1780,0
DA:1781,0
DA:1782,0
DA:1783,0
DA:1784,0
DA:1789,0
DA:1790,0
DA:1791,0
DA:1792,0
DA:1795,0
DA:1796,0
DA:1797,0
DA:1798,0
DA:1799,0
DA:1802,0
DA:1803,0
DA:1804,0
DA:1805,0
DA:1808,0
DA:1809,0
DA:1810,0
DA:1811,0
DA:1812,0
DA:1813,0
DA:1816,0
DA:1817,0
DA:1818,0
DA:1819,0
DA:1821,0
DA:1822,0
DA:1823,0
DA:1824,0
DA:1825,0
DA:1829,0
DA:1833,0
DA:1834,0
DA:1835,0
DA:1837,0
DA:1838,0
DA:1839,0
DA:1840,0
DA:1841,0
DA:1842,0
DA:1843,0
DA:1845,9448
BRF:0
BRH:0
LF:1016
LH:525
end_of_record
SF:/home/ubuntu/Code/ExpressGateway/crates/lb-quic/src/h3_bridge.rs
FN:993,_RNCNCNCNvNtCskwRMVHy5hME_7lb_quic9h3_bridge18stream_h1_response0s_00B9_
FN:1354,_RNCNCNCNvNtCskwRMVHy5hME_7lb_quic9h3_bridge18stream_h2_response0s2_00B9_
FN:2230,_RNCNCNvMs4_NtCskwRMVHy5hME_7lb_quic9h3_bridgeNtB9_9H3RespOut11on_trailers00Bb_
FN:2242,_RNCNCNvMs4_NtCskwRMVHy5hME_7lb_quic9h3_bridgeNtB9_9H3RespOut11on_trailers0s0_0Bb_
FN:2237,_RNCNCNvMs4_NtCskwRMVHy5hME_7lb_quic9h3_bridgeNtB9_9H3RespOut11on_trailers0s_0Bb_
FN:2252,_RNCNCNvMs4_NtCskwRMVHy5hME_7lb_quic9h3_bridgeNtB9_9H3RespOut6on_end00Bb_
FN:2256,_RNCNCNvMs4_NtCskwRMVHy5hME_7lb_quic9h3_bridgeNtB9_9H3RespOut6on_end0s_0Bb_
FN:2202,_RNCNCNvMs4_NtCskwRMVHy5hME_7lb_quic9h3_bridgeNtB9_9H3RespOut7on_data00Bb_
FN:2212,_RNCNCNvMs4_NtCskwRMVHy5hME_7lb_quic9h3_bridgeNtB9_9H3RespOut7on_data0s_0Bb_
FN:2157,_RNCNCNvMs4_NtCskwRMVHy5hME_7lb_quic9h3_bridgeNtB9_9H3RespOut7on_head00Bb_
FN:2180,_RNCNCNvMs4_NtCskwRMVHy5hME_7lb_quic9h3_bridgeNtB9_9H3RespOut7on_head0s0_0Bb_
FN:2164,_RNCNCNvMs4_NtCskwRMVHy5hME_7lb_quic9h3_bridgeNtB9_9H3RespOut7on_head0s_0Bb_
FN:1462,_RNCNCNvNtCskwRMVHy5hME_7lb_quic9h3_bridge16write_body_chunk00B7_
FN:1464,_RNCNCNvNtCskwRMVHy5hME_7lb_quic9h3_bridge16write_body_chunk0s0_0B7_
FN:1466,_RNCNCNvNtCskwRMVHy5hME_7lb_quic9h3_bridge16write_body_chunk0s1_0B7_
FN:1463,_RNCNCNvNtCskwRMVHy5hME_7lb_quic9h3_bridge16write_body_chunk0s_0B7_
FN:1545,_RNCNCNvNtCskwRMVHy5hME_7lb_quic9h3_bridge16write_h1_request00B7_
FN:978,_RNCNCNvNtCskwRMVHy5hME_7lb_quic9h3_bridge18stream_h1_response00B7_
FN:1059,_RNCNCNvNtCskwRMVHy5hME_7lb_quic9h3_bridge18stream_h1_response0s0_0B7_
FN:1176,_RNCNCNvNtCskwRMVHy5hME_7lb_quic9h3_bridge18stream_h1_response0s1_0B7_
FN:943,_RNCNCNvNtCskwRMVHy5hME_7lb_quic9h3_bridge18stream_h1_response0s2_0B7_
FN:943,_RNCNCNvNtCskwRMVHy5hME_7lb_quic9h3_bridge18stream_h1_response0s3_0B7_
FN:943,_RNCNCNvNtCskwRMVHy5hME_7lb_quic9h3_bridge18stream_h1_response0s4_0B7_
FN:943,_RNCNCNvNtCskwRMVHy5hME_7lb_quic9h3_bridge18stream_h1_response0s5_0B7_
FN:943,_RNCNCNvNtCskwRMVHy5hME_7lb_quic9h3_bridge18stream_h1_response0s6_0B7_
FN:943,_RNCNCNvNtCskwRMVHy5hME_7lb_quic9h3_bridge18stream_h1_response0s7_0B7_
FN:943,_RNCNCNvNtCskwRMVHy5hME_7lb_quic9h3_bridge18stream_h1_response0s8_0B7_
FN:943,_RNCNCNvNtCskwRMVHy5hME_7lb_quic9h3_bridge18stream_h1_response0s9_0B7_
FN:993,_RNCNCNvNtCskwRMVHy5hME_7lb_quic9h3_bridge18stream_h1_response0s_0B7_
FN:943,_RNCNCNvNtCskwRMVHy5hME_7lb_quic9h3_bridge18stream_h1_response0sa_0B7_
FN:1270,_RNCNCNvNtCskwRMVHy5hME_7lb_quic9h3_bridge18stream_h2_response00B7_
FN:1297,_RNCNCNvNtCskwRMVHy5hME_7lb_quic9h3_bridge18stream_h2_response0s0_0B7_
FN:1350,_RNCNCNvNtCskwRMVHy5hME_7lb_quic9h3_bridge18stream_h2_response0s1_0B7_
FN:1351,_RNCNCNvNtCskwRMVHy5hME_7lb_quic9h3_bridge18stream_h2_response0s2_0B7_
FN:1360,_RNCNCNvNtCskwRMVHy5hME_7lb_quic9h3_bridge18stream_h2_response0s3_0B7_
FN:1257,_RNCNCNvNtCskwRMVHy5hME_7lb_quic9h3_bridge18stream_h2_response0s4_0B7_
FN:1257,_RNCNCNvNtCskwRMVHy5hME_7lb_quic9h3_bridge18stream_h2_response0s5_0B7_
FN:1257,_RNCNCNvNtCskwRMVHy5hME_7lb_quic9h3_bridge18stream_h2_response0s6_0B7_
FN:1257,_RNCNCNvNtCskwRMVHy5hME_7lb_quic9h3_bridge18stream_h2_response0s7_0B7_
FN:1271,_RNCNCNvNtCskwRMVHy5hME_7lb_quic9h3_bridge18stream_h2_response0s_0B7_
FN:2488,_RNCNCNvNtCskwRMVHy5hME_7lb_quic9h3_bridge29stream_request_to_h3_upstream00B7_
FN:2527,_RNCNCNvNtCskwRMVHy5hME_7lb_quic9h3_bridge29stream_request_to_h3_upstream0s0_0B7_
FN:2584,_RNCNCNvNtCskwRMVHy5hME_7lb_quic9h3_bridge29stream_request_to_h3_upstream0s1_0B7_
FN:2684,_RNCNCNvNtCskwRMVHy5hME_7lb_quic9h3_bridge29stream_request_to_h3_upstream0s2_0B7_
FN:2709,_RNCNCNvNtCskwRMVHy5hME_7lb_quic9h3_bridge29stream_request_to_h3_upstream0s3_0B7_
FN:2767,_RNCNCNvNtCskwRMVHy5hME_7lb_quic9h3_bridge29stream_request_to_h3_upstream0s4_0B7_
FN:2506,_RNCNCNvNtCskwRMVHy5hME_7lb_quic9h3_bridge29stream_request_to_h3_upstream0s_0B7_
FN:2873,_RNCNCNvNtCskwRMVHy5hME_7lb_quic9h3_bridge29stream_request_to_h3_upstream0si_0B7_
FN:864,_RNCNvMs0_NtCskwRMVHy5hME_7lb_quic9h3_bridgeNtB7_12ChunkDecoder21parse_trailer_section0B9_
FN:879,_RNCNvMs0_NtCskwRMVHy5hME_7lb_quic9h3_bridgeNtB7_12ChunkDecoder21parse_trailer_sections_0B9_
FN:797,_RNCNvMs0_NtCskwRMVHy5hME_7lb_quic9h3_bridgeNtB7_12ChunkDecoder4feed0B9_
FN:813,_RNCNvMs0_NtCskwRMVHy5hME_7lb_quic9h3_bridgeNtB7_12ChunkDecoder4feeds0_0B9_
FN:819,_RNCNvMs0_NtCskwRMVHy5hME_7lb_quic9h3_bridgeNtB7_12ChunkDecoder4feeds1_0B9_
FN:811,_RNCNvMs0_NtCskwRMVHy5hME_7lb_quic9h3_bridgeNtB7_12ChunkDecoder4feeds_0B9_
FN:2223,_RNCNvMs4_NtCskwRMVHy5hME_7lb_quic9h3_bridgeNtB7_9H3RespOut11on_trailers0B9_
FN:2077,_RNCNvMs4_NtCskwRMVHy5hME_7lb_quic9h3_bridgeNtB7_9H3RespOut6inline0B9_
FN:2247,_RNCNvMs4_NtCskwRMVHy5hME_7lb_quic9h3_bridgeNtB7_9H3RespOut6on_end0B9_
FN:2190,_RNCNvMs4_NtCskwRMVHy5hME_7lb_quic9h3_bridgeNtB7_9H3RespOut7on_data0B9_
FN:2125,_RNCNvMs4_NtCskwRMVHy5hME_7lb_quic9h3_bridgeNtB7_9H3RespOut7on_head0B9_
FN:2263,_RNCNvMs4_NtCskwRMVHy5hME_7lb_quic9h3_bridgeNtB7_9H3RespOut8on_reset0B9_
FN:420,_RNCNvMs_NtCskwRMVHy5hME_7lb_quic9h3_bridgeNtB6_9H3Request12from_headers0B8_
FN:421,_RNCNvMs_NtCskwRMVHy5hME_7lb_quic9h3_bridgeNtB6_9H3Request12from_headerss_0B8_
FN:1709,_RNCNvNCNvNtCskwRMVHy5hME_7lb_quic9h3_bridge20h3_to_h1_stream_resp06inline0B9_
FN:1972,_RNCNvNCNvNtCskwRMVHy5hME_7lb_quic9h3_bridge20h3_to_h2_stream_resp06inline0B9_
FN:622,_RNCNvNtCskwRMVHy5hME_7lb_quic9h3_bridge15find_header_sep0B5_
FN:1456,_RNCNvNtCskwRMVHy5hME_7lb_quic9h3_bridge16write_body_chunk0B5_
FN:1531,_RNCNvNtCskwRMVHy5hME_7lb_quic9h3_bridge16write_h1_request0B5_
FN:630,_RNCNvNtCskwRMVHy5hME_7lb_quic9h3_bridge17parse_status_line0B5_
FN:938,_RNCNvNtCskwRMVHy5hME_7lb_quic9h3_bridge18stream_h1_response0B5_
FN:1254,_RNCNvNtCskwRMVHy5hME_7lb_quic9h3_bridge18stream_h2_response0B5_
FN:1703,_RNCNvNtCskwRMVHy5hME_7lb_quic9h3_bridge20h3_to_h1_stream_resp0B5_
FN:1966,_RNCNvNtCskwRMVHy5hME_7lb_quic9h3_bridge20h3_to_h2_stream_resp0B5_
FN:2295,_RNCNvNtCskwRMVHy5hME_7lb_quic9h3_bridge20h3_to_h3_stream_resp0B5_
FN:1936,_RNCNvNtCskwRMVHy5hME_7lb_quic9h3_bridge23h2_request_body_from_rxs_0B5_
FN:2423,_RNCNvNtCskwRMVHy5hME_7lb_quic9h3_bridge29stream_request_to_h3_upstream0B5_
FN:745,_RNvMs0_NtCskwRMVHy5hME_7lb_quic9h3_bridgeNtB5_12ChunkDecoder13take_trailers
FN:855,_RNvMs0_NtCskwRMVHy5hME_7lb_quic9h3_bridgeNtB5_12ChunkDecoder21parse_trailer_section
FN:731,_RNvMs0_NtCskwRMVHy5hME_7lb_quic9h3_bridgeNtB5_12ChunkDecoder3new
FN:753,_RNvMs0_NtCskwRMVHy5hME_7lb_quic9h3_bridgeNtB5_12ChunkDecoder4feed
FN:2223,_RNvMs4_NtCskwRMVHy5hME_7lb_quic9h3_bridgeNtB5_9H3RespOut11on_trailers
FN:2077,_RNvMs4_NtCskwRMVHy5hME_7lb_quic9h3_bridgeNtB5_9H3RespOut6inline
FN:2247,_RNvMs4_NtCskwRMVHy5hME_7lb_quic9h3_bridgeNtB5_9H3RespOut6on_end
FN:2190,_RNvMs4_NtCskwRMVHy5hME_7lb_quic9h3_bridgeNtB5_9H3RespOut7on_data
FN:2125,_RNvMs4_NtCskwRMVHy5hME_7lb_quic9h3_bridgeNtB5_9H3RespOut7on_head
FN:2263,_RNvMs4_NtCskwRMVHy5hME_7lb_quic9h3_bridgeNtB5_9H3RespOut8on_reset
FN:403,_RNvMs_NtCskwRMVHy5hME_7lb_quic9h3_bridgeNtB4_9H3Request12from_headers
FN:1709,_RNvNCNvNtCskwRMVHy5hME_7lb_quic9h3_bridge20h3_to_h1_stream_resp06inline
FN:1972,_RNvNCNvNtCskwRMVHy5hME_7lb_quic9h3_bridge20h3_to_h2_stream_resp06inline
FN:1387,_RNvNtCskwRMVHy5hME_7lb_quic9h3_bridge13build_h1_head
FN:621,_RNvNtCskwRMVHy5hME_7lb_quic9h3_bridge15find_header_sep
FN:1432,_RNvNtCskwRMVHy5hME_7lb_quic9h3_bridge15record_inflight
FN:307,_RNvNtCskwRMVHy5hME_7lb_quic9h3_bridge15record_retained
FN:1456,_RNvNtCskwRMVHy5hME_7lb_quic9h3_bridge16write_body_chunk
FN:1527,_RNvNtCskwRMVHy5hME_7lb_quic9h3_bridge16write_h1_request
FN:625,_RNvNtCskwRMVHy5hME_7lb_quic9h3_bridge17parse_status_line
FN:934,_RNvNtCskwRMVHy5hME_7lb_quic9h3_bridge18stream_h1_response
FN:1250,_RNvNtCskwRMVHy5hME_7lb_quic9h3_bridge18stream_h2_response
FN:2987,_RNvNtCskwRMVHy5hME_7lb_quic9h3_bridge19j2_req_event_action
FN:1696,_RNvNtCskwRMVHy5hME_7lb_quic9h3_bridge20h3_to_h1_stream_resp
FN:1959,_RNvNtCskwRMVHy5hME_7lb_quic9h3_bridge20h3_to_h2_stream_resp
FN:2287,_RNvNtCskwRMVHy5hME_7lb_quic9h3_bridge20h3_to_h3_stream_resp
FN:344,_RNvNtCskwRMVHy5hME_7lb_quic9h3_bridge20record_resp_retained
FN:663,_RNvNtCskwRMVHy5hME_7lb_quic9h3_bridge22is_response_hop_by_hop
FN:1891,_RNvNtCskwRMVHy5hME_7lb_quic9h3_bridge23h2_request_body_from_rx
FN:2415,_RNvNtCskwRMVHy5hME_7lb_quic9h3_bridge29stream_request_to_h3_upstream
FN:489,_RNvNtCskwRMVHy5hME_7lb_quic9h3_bridge31validate_request_pseudo_headers
FN:386,_RNvXNtCskwRMVHy5hME_7lb_quic9h3_bridgeNtB2_9H3RequestNtNtCs2va5m0jqTTM_4core7default7Default7default
FN:1780,_RNvXs1_NtCskwRMVHy5hME_7lb_quic9h3_bridgeNtB5_10H3ReqAbortNtNtCs2va5m0jqTTM_4core3fmt7Display3fmt
FN:1813,_RNvXs3_NtCskwRMVHy5hME_7lb_quic9h3_bridgeNtB5_15H3ReqStreamBodyNtCsl5a7MsEZ2mF_9http_body4Body10poll_frame
FNDA:0,_RNCNCNCNvNtCskwRMVHy5hME_7lb_quic9h3_bridge18stream_h1_response0s_00B9_
FNDA:142,_RNCNCNCNvNtCskwRMVHy5hME_7lb_quic9h3_bridge18stream_h2_response0s2_00B9_
FNDA:0,_RNCNCNvMs4_NtCskwRMVHy5hME_7lb_quic9h3_bridgeNtB9_9H3RespOut11on_trailers00Bb_
FNDA:0,_RNCNCNvMs4_NtCskwRMVHy5hME_7lb_quic9h3_bridgeNtB9_9H3RespOut11on_trailers0s0_0Bb_
FNDA:0,_RNCNCNvMs4_NtCskwRMVHy5hME_7lb_quic9h3_bridgeNtB9_9H3RespOut11on_trailers0s_0Bb_
FNDA:0,_RNCNCNvMs4_NtCskwRMVHy5hME_7lb_quic9h3_bridgeNtB9_9H3RespOut6on_end00Bb_
FNDA:0,_RNCNCNvMs4_NtCskwRMVHy5hME_7lb_quic9h3_bridgeNtB9_9H3RespOut6on_end0s_0Bb_
FNDA:0,_RNCNCNvMs4_NtCskwRMVHy5hME_7lb_quic9h3_bridgeNtB9_9H3RespOut7on_data00Bb_
FNDA:0,_RNCNCNvMs4_NtCskwRMVHy5hME_7lb_quic9h3_bridgeNtB9_9H3RespOut7on_data0s_0Bb_
FNDA:0,_RNCNCNvMs4_NtCskwRMVHy5hME_7lb_quic9h3_bridgeNtB9_9H3RespOut7on_head00Bb_
FNDA:0,_RNCNCNvMs4_NtCskwRMVHy5hME_7lb_quic9h3_bridgeNtB9_9H3RespOut7on_head0s0_0Bb_
FNDA:0,_RNCNCNvMs4_NtCskwRMVHy5hME_7lb_quic9h3_bridgeNtB9_9H3RespOut7on_head0s_0Bb_
FNDA:0,_RNCNCNvNtCskwRMVHy5hME_7lb_quic9h3_bridge16write_body_chunk00B7_
FNDA:0,_RNCNCNvNtCskwRMVHy5hME_7lb_quic9h3_bridge16write_body_chunk0s0_0B7_
FNDA:0,_RNCNCNvNtCskwRMVHy5hME_7lb_quic9h3_bridge16write_body_chunk0s1_0B7_
FNDA:0,_RNCNCNvNtCskwRMVHy5hME_7lb_quic9h3_bridge16write_body_chunk0s_0B7_
FNDA:2,_RNCNCNvNtCskwRMVHy5hME_7lb_quic9h3_bridge16write_h1_request00B7_
FNDA:0,_RNCNCNvNtCskwRMVHy5hME_7lb_quic9h3_bridge18stream_h1_response00B7_
FNDA:2,_RNCNCNvNtCskwRMVHy5hME_7lb_quic9h3_bridge18stream_h1_response0s0_0B7_
FNDA:0,_RNCNCNvNtCskwRMVHy5hME_7lb_quic9h3_bridge18stream_h1_response0s1_0B7_
FNDA:0,_RNCNCNvNtCskwRMVHy5hME_7lb_quic9h3_bridge18stream_h1_response0s2_0B7_
FNDA:0,_RNCNCNvNtCskwRMVHy5hME_7lb_quic9h3_bridge18stream_h1_response0s3_0B7_
FNDA:0,_RNCNCNvNtCskwRMVHy5hME_7lb_quic9h3_bridge18stream_h1_response0s4_0B7_
FNDA:0,_RNCNCNvNtCskwRMVHy5hME_7lb_quic9h3_bridge18stream_h1_response0s5_0B7_
FNDA:0,_RNCNCNvNtCskwRMVHy5hME_7lb_quic9h3_bridge18stream_h1_response0s6_0B7_
FNDA:0,_RNCNCNvNtCskwRMVHy5hME_7lb_quic9h3_bridge18stream_h1_response0s7_0B7_
FNDA:0,_RNCNCNvNtCskwRMVHy5hME_7lb_quic9h3_bridge18stream_h1_response0s8_0B7_
FNDA:0,_RNCNCNvNtCskwRMVHy5hME_7lb_quic9h3_bridge18stream_h1_response0s9_0B7_
FNDA:1,_RNCNCNvNtCskwRMVHy5hME_7lb_quic9h3_bridge18stream_h1_response0s_0B7_
FNDA:0,_RNCNCNvNtCskwRMVHy5hME_7lb_quic9h3_bridge18stream_h1_response0sa_0B7_
FNDA:0,_RNCNCNvNtCskwRMVHy5hME_7lb_quic9h3_bridge18stream_h2_response00B7_
FNDA:148,_RNCNCNvNtCskwRMVHy5hME_7lb_quic9h3_bridge18stream_h2_response0s0_0B7_
FNDA:142,_RNCNCNvNtCskwRMVHy5hME_7lb_quic9h3_bridge18stream_h2_response0s1_0B7_
FNDA:142,_RNCNCNvNtCskwRMVHy5hME_7lb_quic9h3_bridge18stream_h2_response0s2_0B7_
FNDA:142,_RNCNCNvNtCskwRMVHy5hME_7lb_quic9h3_bridge18stream_h2_response0s3_0B7_
FNDA:0,_RNCNCNvNtCskwRMVHy5hME_7lb_quic9h3_bridge18stream_h2_response0s4_0B7_
FNDA:0,_RNCNCNvNtCskwRMVHy5hME_7lb_quic9h3_bridge18stream_h2_response0s5_0B7_
FNDA:0,_RNCNCNvNtCskwRMVHy5hME_7lb_quic9h3_bridge18stream_h2_response0s6_0B7_
FNDA:0,_RNCNCNvNtCskwRMVHy5hME_7lb_quic9h3_bridge18stream_h2_response0s7_0B7_
FNDA:0,_RNCNCNvNtCskwRMVHy5hME_7lb_quic9h3_bridge18stream_h2_response0s_0B7_
FNDA:0,_RNCNCNvNtCskwRMVHy5hME_7lb_quic9h3_bridge29stream_request_to_h3_upstream00B7_
FNDA:0,_RNCNCNvNtCskwRMVHy5hME_7lb_quic9h3_bridge29stream_request_to_h3_upstream0s0_0B7_
FNDA:0,_RNCNCNvNtCskwRMVHy5hME_7lb_quic9h3_bridge29stream_request_to_h3_upstream0s1_0B7_
FNDA:0,_RNCNCNvNtCskwRMVHy5hME_7lb_quic9h3_bridge29stream_request_to_h3_upstream0s2_0B7_
FNDA:0,_RNCNCNvNtCskwRMVHy5hME_7lb_quic9h3_bridge29stream_request_to_h3_upstream0s3_0B7_
FNDA:0,_RNCNCNvNtCskwRMVHy5hME_7lb_quic9h3_bridge29stream_request_to_h3_upstream0s4_0B7_
FNDA:0,_RNCNCNvNtCskwRMVHy5hME_7lb_quic9h3_bridge29stream_request_to_h3_upstream0s_0B7_
FNDA:0,_RNCNCNvNtCskwRMVHy5hME_7lb_quic9h3_bridge29stream_request_to_h3_upstream0si_0B7_
FNDA:0,_RNCNvMs0_NtCskwRMVHy5hME_7lb_quic9h3_bridgeNtB7_12ChunkDecoder21parse_trailer_section0B9_
FNDA:0,_RNCNvMs0_NtCskwRMVHy5hME_7lb_quic9h3_bridgeNtB7_12ChunkDecoder21parse_trailer_sections_0B9_
FNDA:0,_RNCNvMs0_NtCskwRMVHy5hME_7lb_quic9h3_bridgeNtB7_12ChunkDecoder4feed0B9_
FNDA:0,_RNCNvMs0_NtCskwRMVHy5hME_7lb_quic9h3_bridgeNtB7_12ChunkDecoder4feeds0_0B9_
FNDA:0,_RNCNvMs0_NtCskwRMVHy5hME_7lb_quic9h3_bridgeNtB7_12ChunkDecoder4feeds1_0B9_
FNDA:0,_RNCNvMs0_NtCskwRMVHy5hME_7lb_quic9h3_bridgeNtB7_12ChunkDecoder4feeds_0B9_
FNDA:0,_RNCNvMs4_NtCskwRMVHy5hME_7lb_quic9h3_bridgeNtB7_9H3RespOut11on_trailers0B9_
FNDA:0,_RNCNvMs4_NtCskwRMVHy5hME_7lb_quic9h3_bridgeNtB7_9H3RespOut6inline0B9_
FNDA:0,_RNCNvMs4_NtCskwRMVHy5hME_7lb_quic9h3_bridgeNtB7_9H3RespOut6on_end0B9_
FNDA:0,_RNCNvMs4_NtCskwRMVHy5hME_7lb_quic9h3_bridgeNtB7_9H3RespOut7on_data0B9_
FNDA:0,_RNCNvMs4_NtCskwRMVHy5hME_7lb_quic9h3_bridgeNtB7_9H3RespOut7on_head0B9_
FNDA:0,_RNCNvMs4_NtCskwRMVHy5hME_7lb_quic9h3_bridgeNtB7_9H3RespOut8on_reset0B9_
FNDA:0,_RNCNvMs_NtCskwRMVHy5hME_7lb_quic9h3_bridgeNtB6_9H3Request12from_headers0B8_
FNDA:0,_RNCNvMs_NtCskwRMVHy5hME_7lb_quic9h3_bridgeNtB6_9H3Request12from_headerss_0B8_
FNDA:0,_RNCNvNCNvNtCskwRMVHy5hME_7lb_quic9h3_bridge20h3_to_h1_stream_resp06inline0B9_
FNDA:0,_RNCNvNCNvNtCskwRMVHy5hME_7lb_quic9h3_bridge20h3_to_h2_stream_resp06inline0B9_
FNDA:73,_RNCNvNtCskwRMVHy5hME_7lb_quic9h3_bridge15find_header_sep0B5_
FNDA:1,_RNCNvNtCskwRMVHy5hME_7lb_quic9h3_bridge16write_body_chunk0B5_
FNDA:1,_RNCNvNtCskwRMVHy5hME_7lb_quic9h3_bridge16write_h1_request0B5_
FNDA:0,_RNCNvNtCskwRMVHy5hME_7lb_quic9h3_bridge17parse_status_line0B5_
FNDA:1,_RNCNvNtCskwRMVHy5hME_7lb_quic9h3_bridge18stream_h1_response0B5_
FNDA:73,_RNCNvNtCskwRMVHy5hME_7lb_quic9h3_bridge18stream_h2_response0B5_
FNDA:1,_RNCNvNtCskwRMVHy5hME_7lb_quic9h3_bridge20h3_to_h1_stream_resp0B5_
FNDA:69,_RNCNvNtCskwRMVHy5hME_7lb_quic9h3_bridge20h3_to_h2_stream_resp0B5_
FNDA:0,_RNCNvNtCskwRMVHy5hME_7lb_quic9h3_bridge20h3_to_h3_stream_resp0B5_
FNDA:0,_RNCNvNtCskwRMVHy5hME_7lb_quic9h3_bridge23h2_request_body_from_rxs_0B5_
FNDA:0,_RNCNvNtCskwRMVHy5hME_7lb_quic9h3_bridge29stream_request_to_h3_upstream0B5_
FNDA:0,_RNvMs0_NtCskwRMVHy5hME_7lb_quic9h3_bridgeNtB5_12ChunkDecoder13take_trailers
FNDA:0,_RNvMs0_NtCskwRMVHy5hME_7lb_quic9h3_bridgeNtB5_12ChunkDecoder21parse_trailer_section
FNDA:0,_RNvMs0_NtCskwRMVHy5hME_7lb_quic9h3_bridgeNtB5_12ChunkDecoder3new
FNDA:0,_RNvMs0_NtCskwRMVHy5hME_7lb_quic9h3_bridgeNtB5_12ChunkDecoder4feed
FNDA:0,_RNvMs4_NtCskwRMVHy5hME_7lb_quic9h3_bridgeNtB5_9H3RespOut11on_trailers
FNDA:0,_RNvMs4_NtCskwRMVHy5hME_7lb_quic9h3_bridgeNtB5_9H3RespOut6inline
FNDA:0,_RNvMs4_NtCskwRMVHy5hME_7lb_quic9h3_bridgeNtB5_9H3RespOut6on_end
FNDA:0,_RNvMs4_NtCskwRMVHy5hME_7lb_quic9h3_bridgeNtB5_9H3RespOut7on_data
FNDA:0,_RNvMs4_NtCskwRMVHy5hME_7lb_quic9h3_bridgeNtB5_9H3RespOut7on_head
FNDA:0,_RNvMs4_NtCskwRMVHy5hME_7lb_quic9h3_bridgeNtB5_9H3RespOut8on_reset
FNDA:70,_RNvMs_NtCskwRMVHy5hME_7lb_quic9h3_bridgeNtB4_9H3Request12from_headers
FNDA:0,_RNvNCNvNtCskwRMVHy5hME_7lb_quic9h3_bridge20h3_to_h1_stream_resp06inline
FNDA:0,_RNvNCNvNtCskwRMVHy5hME_7lb_quic9h3_bridge20h3_to_h2_stream_resp06inline
FNDA:1,_RNvNtCskwRMVHy5hME_7lb_quic9h3_bridge13build_h1_head
FNDA:2,_RNvNtCskwRMVHy5hME_7lb_quic9h3_bridge15find_header_sep
FNDA:1,_RNvNtCskwRMVHy5hME_7lb_quic9h3_bridge15record_inflight
FNDA:3699,_RNvNtCskwRMVHy5hME_7lb_quic9h3_bridge15record_retained
FNDA:1,_RNvNtCskwRMVHy5hME_7lb_quic9h3_bridge16write_body_chunk
FNDA:1,_RNvNtCskwRMVHy5hME_7lb_quic9h3_bridge16write_h1_request
FNDA:1,_RNvNtCskwRMVHy5hME_7lb_quic9h3_bridge17parse_status_line
FNDA:1,_RNvNtCskwRMVHy5hME_7lb_quic9h3_bridge18stream_h1_response
FNDA:73,_RNvNtCskwRMVHy5hME_7lb_quic9h3_bridge18stream_h2_response
FNDA:0,_RNvNtCskwRMVHy5hME_7lb_quic9h3_bridge19j2_req_event_action
FNDA:1,_RNvNtCskwRMVHy5hME_7lb_quic9h3_bridge20h3_to_h1_stream_resp
FNDA:69,_RNvNtCskwRMVHy5hME_7lb_quic9h3_bridge20h3_to_h2_stream_resp
FNDA:0,_RNvNtCskwRMVHy5hME_7lb_quic9h3_bridge20h3_to_h3_stream_resp
FNDA:9518,_RNvNtCskwRMVHy5hME_7lb_quic9h3_bridge20record_resp_retained
FNDA:149,_RNvNtCskwRMVHy5hME_7lb_quic9h3_bridge22is_response_hop_by_hop
FNDA:69,_RNvNtCskwRMVHy5hME_7lb_quic9h3_bridge23h2_request_body_from_rx
FNDA:0,_RNvNtCskwRMVHy5hME_7lb_quic9h3_bridge29stream_request_to_h3_upstream
FNDA:70,_RNvNtCskwRMVHy5hME_7lb_quic9h3_bridge31validate_request_pseudo_headers
FNDA:0,_RNvXNtCskwRMVHy5hME_7lb_quic9h3_bridgeNtB2_9H3RequestNtNtCs2va5m0jqTTM_4core7default7Default7default
FNDA:0,_RNvXs1_NtCskwRMVHy5hME_7lb_quic9h3_bridgeNtB5_10H3ReqAbortNtNtCs2va5m0jqTTM_4core3fmt7Display3fmt
FNDA:10175,_RNvXs3_NtCskwRMVHy5hME_7lb_quic9h3_bridgeNtB5_15H3ReqStreamBodyNtCsl5a7MsEZ2mF_9http_body4Body10poll_frame
FNF:98
FNH:32
DA:307,3699
DA:309,3699
DA:310,3699
DA:311,11
DA:312,11
DA:313,11
DA:314,11
DA:315,11
DA:316,11
DA:317,11
DA:318,0
DA:321,3699
DA:344,9518
DA:346,9518
DA:347,9518
DA:348,7
DA:349,7
DA:350,7
DA:351,7
DA:352,7
DA:353,7
DA:354,7
DA:355,0
DA:358,9518
DA:386,0
DA:387,0
DA:388,0
DA:389,0
DA:390,0
DA:391,0
DA:392,0
DA:393,0
DA:394,0
DA:403,70
DA:404,70
DA:405,70
DA:406,70
DA:407,70
DA:408,490
DA:409,420
DA:410,420
DA:411,350
DA:412,280
DA:413,210
DA:414,70
DA:415,70
DA:416,140
DA:419,70
DA:420,70
DA:421,70
DA:422,70
DA:423,70
DA:424,70
DA:425,70
DA:426,70
DA:427,70
DA:428,70
DA:429,70
DA:430,70
DA:431,70
DA:489,70
DA:490,70
DA:491,70
DA:492,70
DA:493,70
DA:494,70
DA:495,70
DA:496,70
DA:497,70
DA:498,70
DA:499,70
DA:501,490
DA:502,420
DA:505,280
DA:506,0
DA:507,280
DA:508,280
DA:509,280
DA:510,70
DA:511,0
DA:512,70
DA:513,70
DA:515,210
DA:516,70
DA:517,0
DA:518,70
DA:519,70
DA:521,140
DA:522,70
DA:523,0
DA:524,70
DA:525,70
DA:527,70
DA:528,70
DA:529,0
DA:530,70
DA:531,70
DA:538,0
DA:539,0
DA:540,0
DA:541,0
DA:542,0
DA:549,0
DA:553,140
DA:554,140
DA:555,140
DA:556,140
DA:557,0
DA:558,140
DA:569,0
DA:570,0
DA:571,70
DA:572,0
DA:573,0
DA:574,0
DA:575,0
DA:576,0
DA:577,0
DA:578,0
DA:579,0
DA:580,0
DA:582,0
DA:586,0
DA:587,0
DA:588,0
DA:589,0
DA:591,0
DA:599,70
DA:600,0
DA:601,70
DA:602,70
DA:603,0
DA:605,70
DA:606,0
DA:607,70
DA:611,70
DA:612,70
DA:613,70
DA:614,0
DA:615,70
DA:616,70
DA:619,70
DA:621,2
DA:622,73
DA:623,2
DA:625,1
DA:626,1
DA:627,1
DA:628,1
DA:629,1
DA:630,1
DA:631,1
DA:663,149
DA:664,149
DA:665,149
DA:731,0
DA:732,0
DA:733,0
DA:734,0
DA:735,0
DA:736,0
DA:737,0
DA:738,0
DA:739,0
DA:740,0
DA:745,0
DA:746,0
DA:747,0
DA:753,0
DA:754,0
DA:756,0
DA:760,0
DA:761,0
DA:762,0
DA:769,0
DA:770,0
DA:771,0
DA:774,0
DA:775,0
DA:777,0
DA:778,0
DA:779,0
DA:780,0
DA:781,0
DA:783,0
DA:784,0
DA:785,0
DA:786,0
DA:787,0
DA:788,0
DA:789,0
DA:791,0
DA:792,0
DA:793,0
DA:797,0
DA:798,0
DA:799,0
DA:800,0
DA:801,0
DA:803,0
DA:804,0
DA:805,0
DA:806,0
DA:807,0
DA:811,0
DA:812,0
DA:813,0
DA:814,0
DA:815,0
DA:816,0
DA:817,0
DA:818,0
DA:819,0
DA:820,0
DA:821,0
DA:830,0
DA:831,0
DA:832,0
DA:833,0
DA:837,0
DA:855,0
DA:858,0
DA:859,0
DA:860,0
DA:861,0
DA:862,0
DA:863,0
DA:864,0
DA:867,0
DA:868,0
DA:869,0
DA:870,0
DA:872,0
DA:874,0
DA:875,0
DA:876,0
DA:877,0
DA:878,0
DA:879,0
DA:883,0
DA:884,0
DA:885,0
DA:886,0
DA:887,0
DA:888,0
DA:889,0
DA:890,0
DA:891,0
DA:892,0
DA:893,0
DA:894,0
DA:895,0
DA:897,0
DA:934,1
DA:935,1
DA:936,1
DA:937,1
DA:938,1
DA:943,0
DA:949,1
DA:950,1
DA:951,1
DA:952,2
DA:953,1
DA:954,1
DA:955,1
DA:956,0
DA:957,0
DA:958,1
DA:959,1
DA:960,1
DA:962,0
DA:963,0
DA:966,1
DA:968,0
DA:969,0
DA:970,1
DA:971,1
DA:975,1
DA:976,1
DA:977,1
DA:978,1
DA:979,0
DA:980,0
DA:981,1
DA:982,1
DA:983,1
DA:984,0
DA:985,0
DA:986,0
DA:989,1
DA:990,1
DA:991,1
DA:992,1
DA:993,1
DA:995,1
DA:996,0
DA:997,0
DA:998,0
DA:1001,1
DA:1002,1
DA:1003,1
DA:1004,1
DA:1005,1
DA:1006,1
DA:1007,1
DA:1008,1
DA:1009,1
DA:1010,1
DA:1011,3
DA:1012,2
DA:1013,0
DA:1015,2
DA:1016,2
DA:1017,1
DA:1018,1
DA:1020,0
DA:1021,0
DA:1024,1
DA:1025,0
DA:1026,1
DA:1027,1
DA:1028,1
DA:1032,1
DA:1033,0
DA:1034,0
DA:1035,0
DA:1036,0
DA:1037,0
DA:1038,1
DA:1039,1
DA:1041,0
DA:1049,1
DA:1050,1
DA:1051,1
DA:1058,1
DA:1059,2
DA:1060,1
DA:1061,0
DA:1062,0
DA:1063,1
DA:1064,1
DA:1065,1
DA:1066,1
DA:1067,1
DA:1068,1
DA:1069,1
DA:1070,1
DA:1089,1
DA:1090,1
DA:1091,1
DA:1092,1
DA:1093,1
DA:1094,0
DA:1096,0
DA:1097,0
DA:1098,0
DA:1099,0
DA:1100,0
DA:1101,0
DA:1102,1
DA:1103,1
DA:1104,0
DA:1105,0
DA:1106,0
DA:1107,0
DA:1109,0
DA:1110,0
DA:1113,0
DA:1115,0
DA:1116,0
DA:1117,0
DA:1118,0
DA:1119,0
DA:1120,0
DA:1124,0
DA:1125,0
DA:1126,0
DA:1127,0
DA:1128,0
DA:1129,0
DA:1130,0
DA:1131,0
DA:1132,0
DA:1133,0
DA:1134,0
DA:1135,0
DA:1136,0
DA:1143,0
DA:1144,0
DA:1145,0
DA:1147,0
DA:1148,0
DA:1151,0
DA:1154,0
DA:1155,0
DA:1156,0
DA:1157,0
DA:1158,0
DA:1159,0
DA:1160,0
DA:1161,0
DA:1162,0
DA:1163,0
DA:1164,0
DA:1174,0
DA:1175,0
DA:1176,0
DA:1177,0
DA:1178,0
DA:1179,0
DA:1180,0
DA:1181,0
DA:1182,0
DA:1185,0
DA:1186,0
DA:1187,0
DA:1188,0
DA:1190,0
DA:1191,0
DA:1193,0
DA:1194,0
DA:1197,0
DA:1198,0
DA:1199,0
DA:1200,0
DA:1201,0
DA:1207,1
DA:1208,1
DA:1209,1
DA:1250,73
DA:1251,73
DA:1252,73
DA:1253,73
DA:1254,73
DA:1257,0
DA:1261,73
DA:1262,73
DA:1263,73
DA:1264,73
DA:1265,73
DA:1266,73
DA:1267,73
DA:1268,73
DA:1269,73
DA:1270,73
DA:1271,73
DA:1272,73
DA:1273,73
DA:1274,73
DA:1275,73
DA:1276,73
DA:1277,73
DA:1278,73
DA:1279,73
DA:1280,73
DA:1281,73
DA:1282,221
DA:1283,148
DA:1284,148
DA:1285,0
DA:1286,148
DA:1287,148
DA:1288,148
DA:1289,148
DA:1291,73
DA:1292,0
DA:1293,73
DA:1297,148
DA:1298,73
DA:1299,0
DA:1300,0
DA:1301,73
DA:1302,73
DA:1303,73
DA:1304,73
DA:1305,73
DA:1306,73
DA:1307,73
DA:1308,73
DA:1328,3059
DA:1329,2987
DA:1330,2986
DA:1334,1
DA:1335,1
DA:1338,2986
DA:1340,2915
DA:1341,2915
DA:1342,2914
DA:1343,1
DA:1344,71
DA:1348,71
DA:1349,71
DA:1350,142
DA:1351,142
DA:1352,142
DA:1353,142
DA:1354,142
DA:1355,142
DA:1356,71
DA:1357,71
DA:1360,142
DA:1361,71
DA:1362,0
DA:1363,0
DA:1364,71
DA:1365,71
DA:1366,0
DA:1367,0
DA:1373,72
DA:1374,72
DA:1375,73
DA:1387,1
DA:1388,1
DA:1389,1
DA:1390,1
DA:1391,1
DA:1392,1
DA:1393,1
DA:1394,1
DA:1395,1
DA:1396,1
DA:1397,1
DA:1398,1
DA:1399,0
DA:1400,0
DA:1401,0
DA:1402,0
DA:1403,0
DA:1404,0
DA:1405,1
DA:1407,1
DA:1408,1
DA:1409,1
DA:1410,1
DA:1432,1
DA:1434,1
DA:1435,1
DA:1436,1
DA:1437,1
DA:1438,1
DA:1439,1
DA:1440,1
DA:1441,1
DA:1442,1
DA:1443,0
DA:1446,1
DA:1456,1
DA:1457,1
DA:1458,0
DA:1459,1
DA:1460,1
DA:1461,1
DA:1462,1
DA:1463,1
DA:1464,1
DA:1466,0
DA:1468,1
DA:1469,1
DA:1527,1
DA:1528,1
DA:1529,1
DA:1530,1
DA:1531,1
DA:1534,1
DA:1535,1
DA:1537,0
DA:1542,0
DA:1544,1
DA:1545,2
DA:1546,2
DA:1547,0
DA:1549,2
DA:1551,2
DA:1552,1
DA:1553,0
DA:1554,1
DA:1558,1
DA:1559,1
DA:1560,1
DA:1561,1
DA:1563,1
DA:1564,0
DA:1565,0
DA:1566,1
DA:1568,1
DA:1569,1
DA:1570,0
DA:1571,0
DA:1572,1
DA:1573,0
DA:1580,1
DA:1581,1
DA:1582,1
DA:1583,0
DA:1584,0
DA:1585,0
DA:1586,0
DA:1587,0
DA:1588,0
DA:1616,1
DA:1617,1
DA:1638,0
DA:1639,0
DA:1640,0
DA:1642,0
DA:1646,1
DA:1650,0
DA:1651,0
DA:1652,1
DA:1653,1
DA:1654,1
DA:1655,0
DA:1656,0
DA:1657,1
DA:1658,0
DA:1660,1
DA:1661,0
DA:1662,0
DA:1663,1
DA:1664,1
DA:1665,1
DA:1696,1
DA:1697,1
DA:1698,1
DA:1699,1
DA:1700,1
DA:1701,1
DA:1702,1
DA:1703,1
DA:1709,0
DA:1710,0
DA:1711,0
DA:1712,0
DA:1713,0
DA:1714,0
DA:1715,0
DA:1716,0
DA:1717,0
DA:1718,0
DA:1719,0
DA:1720,0
DA:1722,1
DA:1723,1
DA:1724,0
DA:1725,0
DA:1726,0
DA:1728,0
DA:1732,1
DA:1733,1
DA:1734,0
DA:1735,0
DA:1736,0
DA:1739,1
DA:1745,1
DA:1747,0
DA:1748,0
DA:1750,0
DA:1751,0
DA:1754,0
DA:1755,0
DA:1756,0
DA:1767,1
DA:1768,1
DA:1769,1
DA:1780,0
DA:1781,0
DA:1782,0
DA:1813,10175
DA:1814,10175
DA:1815,10175
DA:1816,10175
DA:1818,10175
DA:1819,10175
DA:1820,0
DA:1821,10175
DA:1822,10175
DA:1826,69
DA:1827,10106
DA:1828,10106
DA:1829,6408
DA:1830,3629
DA:1831,3629
DA:1837,69
DA:1838,69
DA:1848,0
DA:1849,0
DA:1852,10175
DA:1891,69
DA:1892,69
DA:1893,69
DA:1894,69
DA:1895,69
DA:1896,69
DA:1897,69
DA:1898,69
DA:1899,69
DA:1900,69
DA:1901,69
DA:1902,0
DA:1904,69
DA:1906,69
DA:1907,69
DA:1908,207
DA:1909,138
DA:1910,0
DA:1911,138
DA:1912,138
DA:1915,69
DA:1918,0
DA:1919,0
DA:1920,0
DA:1923,0
DA:1929,69
DA:1930,69
DA:1931,69
DA:1932,69
DA:1933,69
DA:1936,69
DA:1937,69
DA:1959,69
DA:1960,69
DA:1961,69
DA:1962,69
DA:1963,69
DA:1964,69
DA:1965,69
DA:1966,69
DA:1972,0
DA:1973,0
DA:1974,0
DA:1975,0
DA:1976,0
DA:1977,0
DA:1978,0
DA:1979,0
DA:1980,0
DA:1981,0
DA:1982,0
DA:1983,0
DA:1987,69
DA:1989,69
DA:1990,69
DA:1992,0
DA:1993,0
DA:1996,0
DA:1997,0
DA:2001,69
DA:2002,69
DA:2003,0
DA:2004,0
DA:2005,0
DA:2006,0
DA:2010,69
DA:2011,69
DA:2077,0
DA:2078,0
DA:2079,0
DA:2080,0
DA:2081,0
DA:2082,0
DA:2083,0
DA:2084,0
DA:2085,0
DA:2086,0
DA:2087,0
DA:2088,0
DA:2089,0
DA:2090,0
DA:2091,0
DA:2092,0
DA:2093,0
DA:2095,0
DA:2096,0
DA:2097,0
DA:2098,0
DA:2099,0
DA:2100,0
DA:2101,0
DA:2102,0
DA:2103,0
DA:2104,0
DA:2105,0
DA:2106,0
DA:2107,0
DA:2110,0
DA:2125,0
DA:2126,0
DA:2127,0
DA:2128,0
DA:2129,0
DA:2130,0
DA:2131,0
DA:2132,0
DA:2133,0
DA:2134,0
DA:2135,0
DA:2136,0
DA:2137,0
DA:2138,0
DA:2139,0
DA:2140,0
DA:2141,0
DA:2142,0
DA:2143,0
DA:2144,0
DA:2145,0
DA:2146,0
DA:2147,0
DA:2148,0
DA:2149,0
DA:2150,0
DA:2151,0
DA:2157,0
DA:2158,0
DA:2159,0
DA:2160,0
DA:2161,0
DA:2162,0
DA:2163,0
DA:2164,0
DA:2166,0
DA:2167,0
DA:2168,0
DA:2169,0
DA:2170,0
DA:2171,0
DA:2172,0
DA:2173,0
DA:2174,0
DA:2175,0
DA:2176,0
DA:2178,0
DA:2179,0
DA:2180,0
DA:2183,0
DA:2190,0
DA:2191,0
DA:2192,0
DA:2193,0
DA:2194,0
DA:2195,0
DA:2196,0
DA:2197,0
DA:2198,0
DA:2199,0
DA:2200,0
DA:2201,0
DA:2202,0
DA:2204,0
DA:2205,0
DA:2206,0
DA:2207,0
DA:2208,0
DA:2209,0
DA:2210,0
DA:2211,0
DA:2212,0
DA:2215,0
DA:2223,0
DA:2224,0
DA:2225,0
DA:2226,0
DA:2227,0
DA:2228,0
DA:2229,0
DA:2230,0
DA:2231,0
DA:2232,0
DA:2233,0
DA:2234,0
DA:2235,0
DA:2236,0
DA:2237,0
DA:2239,0
DA:2240,0
DA:2241,0
DA:2242,0
DA:2244,0
DA:2247,0
DA:2248,0
DA:2249,0
DA:2250,0
DA:2251,0
DA:2252,0
DA:2253,0
DA:2254,0
DA:2255,0
DA:2256,0
DA:2258,0
DA:2263,0
DA:2264,0
DA:2265,0
DA:2266,0
DA:2268,0
DA:2269,0
DA:2272,0
DA:2287,0
DA:2288,0
DA:2289,0
DA:2290,0
DA:2291,0
DA:2292,0
DA:2293,0
DA:2294,0
DA:2295,0
DA:2300,0
DA:2301,0
DA:2303,0
DA:2305,0
DA:2306,0
DA:2307,0
DA:2308,0
DA:2309,0
DA:2310,0
DA:2311,0
DA:2312,0
DA:2313,0
DA:2314,0
DA:2315,0
DA:2316,0
DA:2317,0
DA:2415,0
DA:2416,0
DA:2417,0
DA:2418,0
DA:2419,0
DA:2420,0
DA:2421,0
DA:2422,0
DA:2423,0
DA:2424,0
DA:2425,0
DA:2426,0
DA:2427,0
DA:2436,0
DA:2437,0
DA:2438,0
DA:2439,0
DA:2440,0
DA:2441,0
DA:2442,0
DA:2443,0
DA:2444,0
DA:2446,0
DA:2447,0
DA:2449,0
DA:2450,0
DA:2451,0
DA:2452,0
DA:2456,0
DA:2457,0
DA:2458,0
DA:2459,0
DA:2460,0
DA:2461,0
DA:2464,0
DA:2465,0
DA:2466,0
DA:2467,0
DA:2470,0
DA:2471,0
DA:2472,0
DA:2473,0
DA:2474,0
DA:2476,0
DA:2477,0
DA:2478,0
DA:2487,0
DA:2488,0
DA:2490,0
DA:2491,0
DA:2492,0
DA:2493,0
DA:2494,0
DA:2495,0
DA:2503,0
DA:2504,0
DA:2505,0
DA:2506,0
DA:2507,0
DA:2508,0
DA:2509,0
DA:2510,0
DA:2511,0
DA:2512,0
DA:2513,0
DA:2514,0
DA:2517,0
DA:2523,0
DA:2524,0
DA:2525,0
DA:2526,0
DA:2527,0
DA:2528,0
DA:2529,0
DA:2530,0
DA:2531,0
DA:2532,0
DA:2533,0
DA:2534,0
DA:2535,0
DA:2536,0
DA:2549,0
DA:2550,0
DA:2551,0
DA:2552,0
DA:2557,0
DA:2560,0
DA:2561,0
DA:2562,0
DA:2563,0
DA:2564,0
DA:2565,0
DA:2566,0
DA:2567,0
DA:2568,0
DA:2569,0
DA:2570,0
DA:2571,0
DA:2572,0
DA:2573,0
DA:2574,0
DA:2575,0
DA:2576,0
DA:2577,0
DA:2578,0
DA:2579,0
DA:2580,0
DA:2581,0
DA:2582,0
DA:2583,0
DA:2584,0
DA:2585,0
DA:2586,0
DA:2587,0
DA:2636,0
DA:2639,0
DA:2644,0
DA:2645,0
DA:2646,0
DA:2647,0
DA:2648,0
DA:2649,0
DA:2650,0
DA:2651,0
DA:2652,0
DA:2653,0
DA:2654,0
DA:2656,0
DA:2657,0
DA:2658,0
DA:2659,0
DA:2660,0
DA:2661,0
DA:2662,0
DA:2663,0
DA:2664,0
DA:2665,0
DA:2668,0
DA:2671,0
DA:2672,0
DA:2673,0
DA:2674,0
DA:2675,0
DA:2680,0
DA:2681,0
DA:2682,0
DA:2683,0
DA:2684,0
DA:2686,0
DA:2687,0
DA:2688,0
DA:2689,0
DA:2690,0
DA:2691,0
DA:2692,0
DA:2697,0
DA:2698,0
DA:2699,0
DA:2700,0
DA:2701,0
DA:2702,0
DA:2704,0
DA:2705,0
DA:2709,0
DA:2710,0
DA:2711,0
DA:2712,0
DA:2713,0
DA:2714,0
DA:2720,0
DA:2721,0
DA:2722,0
DA:2723,0
DA:2724,0
DA:2725,0
DA:2726,0
DA:2727,0
DA:2730,0
DA:2733,0
DA:2734,0
DA:2736,0
DA:2748,0
DA:2749,0
DA:2761,0
DA:2762,0
DA:2763,0
DA:2764,0
DA:2766,0
DA:2767,0
DA:2768,0
DA:2769,0
DA:2771,0
DA:2772,0
DA:2774,0
DA:2775,0
DA:2776,0
DA:2777,0
DA:2778,0
DA:2782,0
DA:2783,0
DA:2785,0
DA:2786,0
DA:2787,0
DA:2788,0
DA:2789,0
DA:2791,0
DA:2792,0
DA:2793,0
DA:2796,0
DA:2798,0
DA:2799,0
DA:2802,0
DA:2803,0
DA:2804,0
DA:2805,0
DA:2806,0
DA:2807,0
DA:2808,0
DA:2809,0
DA:2810,0
DA:2811,0
DA:2820,0
DA:2821,0
DA:2822,0
DA:2824,0
DA:2825,0
DA:2826,0
DA:2827,0
DA:2828,0
DA:2829,0
DA:2830,0
DA:2831,0
DA:2832,0
DA:2833,0
DA:2834,0
DA:2835,0
DA:2836,0
DA:2837,0
DA:2838,0
DA:2839,0
DA:2840,0
DA:2841,0
DA:2842,0
DA:2843,0
DA:2844,0
DA:2846,0
DA:2847,0
DA:2848,0
DA:2849,0
DA:2850,0
DA:2851,0
DA:2852,0
DA:2853,0
DA:2854,0
DA:2855,0
DA:2856,0
DA:2860,0
DA:2861,0
DA:2862,0
DA:2865,0
DA:2866,0
DA:2867,0
DA:2868,0
DA:2869,0
DA:2870,0
DA:2871,0
DA:2872,0
DA:2873,0
DA:2874,0
DA:2875,0
DA:2876,0
DA:2877,0
DA:2878,0
DA:2879,0
DA:2880,0
DA:2881,0
DA:2882,0
DA:2883,0
DA:2884,0
DA:2885,0
DA:2886,0
DA:2887,0
DA:2888,0
DA:2889,0
DA:2894,0
DA:2895,0
DA:2896,0
DA:2897,0
DA:2898,0
DA:2899,0
DA:2900,0
DA:2901,0
DA:2902,0
DA:2905,0
DA:2912,0
DA:2913,0
DA:2914,0
DA:2915,0
DA:2916,0
DA:2917,0
DA:2918,0
DA:2923,0
DA:2927,0
DA:2928,0
DA:2929,0
DA:2930,0
DA:2931,0
DA:2932,0
DA:2933,0
DA:2936,0
DA:2937,0
DA:2938,0
DA:2939,0
DA:2940,0
DA:2941,0
DA:2942,0
DA:2987,0
DA:2988,0
DA:2989,0
DA:2990,0
DA:2991,0
DA:2992,0
DA:2994,0
DA:2997,0
DA:2999,0
BRF:0
BRH:0
LF:1313
LH:429
end_of_record
SF:/home/ubuntu/Code/ExpressGateway/crates/lb-quic/src/h3_config.rs
FN:99,_RNvNtCskwRMVHy5hME_7lb_quic9h3_config22build_client_h3_config
FN:62,_RNvNtCskwRMVHy5hME_7lb_quic9h3_config22build_server_h3_config
FNDA:0,_RNvNtCskwRMVHy5hME_7lb_quic9h3_config22build_client_h3_config
FNDA:70,_RNvNtCskwRMVHy5hME_7lb_quic9h3_config22build_server_h3_config
FNF:2
FNH:1
DA:62,70
DA:63,70
DA:64,70
DA:65,70
DA:66,70
DA:67,70
DA:68,70
DA:69,70
DA:70,70
DA:71,70
DA:72,70
DA:73,0
DA:74,70
DA:75,70
DA:76,70
DA:99,0
DA:100,0
DA:101,0
DA:102,0
DA:103,0
DA:104,0
DA:105,0
DA:106,0
DA:107,0
BRF:0
BRH:0
LF:24
LH:14
end_of_record
SF:/home/ubuntu/Code/ExpressGateway/crates/lb-quic/src/listener.rs
FN:322,_RNCNCNvMs0_NtCskwRMVHy5hME_7lb_quic8listenerNtB9_12QuicListener5spawn00Csehp0v1aTm1m_11grpc_h3_e2e
FN:383,_RNCNCNvMs0_NtCskwRMVHy5hME_7lb_quic8listenerNtB9_12QuicListener5spawn0s0_0Csehp0v1aTm1m_11grpc_h3_e2e
FN:336,_RNCNCNvMs0_NtCskwRMVHy5hME_7lb_quic8listenerNtB9_12QuicListener5spawn0s_0Csehp0v1aTm1m_11grpc_h3_e2e
FN:286,_RNCNvMs0_NtCskwRMVHy5hME_7lb_quic8listenerNtB7_12QuicListener5spawn0Csehp0v1aTm1m_11grpc_h3_e2e
FN:191,_RINvMs_NtCskwRMVHy5hME_7lb_quic8listenerNtB5_18QuicListenerParams15with_h3_backendpEB7_
FN:322,_RNCNCNvMs0_NtCskwRMVHy5hME_7lb_quic8listenerNtB9_12QuicListener5spawn00Bb_
FN:383,_RNCNCNvMs0_NtCskwRMVHy5hME_7lb_quic8listenerNtB9_12QuicListener5spawn0s0_0Bb_
FN:336,_RNCNCNvMs0_NtCskwRMVHy5hME_7lb_quic8listenerNtB9_12QuicListener5spawn0s_0Bb_
FN:286,_RNCNvMs0_NtCskwRMVHy5hME_7lb_quic8listenerNtB7_12QuicListener5spawn0B9_
FN:452,_RNCNvNtCskwRMVHy5hME_7lb_quic8listener29load_or_generate_retry_secret0B5_
FN:401,_RNvMs0_NtCskwRMVHy5hME_7lb_quic8listenerNtB5_12QuicListener10local_addr
FN:413,_RNvMs0_NtCskwRMVHy5hME_7lb_quic8listenerNtB5_12QuicListener12replay_guard
FN:407,_RNvMs0_NtCskwRMVHy5hME_7lb_quic8listenerNtB5_12QuicListener12retry_signer
FN:283,_RNvMs0_NtCskwRMVHy5hME_7lb_quic8listenerNtB5_12QuicListener5spawn
FN:419,_RNvMs0_NtCskwRMVHy5hME_7lb_quic8listenerNtB5_12QuicListener8shutdown
FN:181,_RNvMs_NtCskwRMVHy5hME_7lb_quic8listenerNtB4_18QuicListenerParams13with_backends
FN:242,_RNvMs_NtCskwRMVHy5hME_7lb_quic8listenerNtB4_18QuicListenerParams14with_websocket
FN:205,_RNvMs_NtCskwRMVHy5hME_7lb_quic8listenerNtB4_18QuicListenerParams15with_h2_backend
FN:219,_RNvMs_NtCskwRMVHy5hME_7lb_quic8listenerNtB4_18QuicListenerParams16with_raw_backend
FN:257,_RNvMs_NtCskwRMVHy5hME_7lb_quic8listenerNtB4_18QuicListenerParams22with_ws_relay_launcher
FN:144,_RNvMs_NtCskwRMVHy5hME_7lb_quic8listenerNtB4_18QuicListenerParams3new
FN:461,_RNvNtCskwRMVHy5hME_7lb_quic8listener17write_secret_file
FN:489,_RNvNtCskwRMVHy5hME_7lb_quic8listener19build_server_config
FN:425,_RNvNtCskwRMVHy5hME_7lb_quic8listener29load_or_generate_retry_secret
FN:118,_RNvXNtCskwRMVHy5hME_7lb_quic8listenerNtB2_18QuicListenerParamsNtNtCs2va5m0jqTTM_4core3fmt5Debug3fmt
FNDA:70,_RNCNCNvMs0_NtCskwRMVHy5hME_7lb_quic8listenerNtB9_12QuicListener5spawn00Csehp0v1aTm1m_11grpc_h3_e2e
FNDA:16,_RNCNCNvMs0_NtCskwRMVHy5hME_7lb_quic8listenerNtB9_12QuicListener5spawn0s0_0Csehp0v1aTm1m_11grpc_h3_e2e
FNDA:15,_RNCNCNvMs0_NtCskwRMVHy5hME_7lb_quic8listenerNtB9_12QuicListener5spawn0s_0Csehp0v1aTm1m_11grpc_h3_e2e
FNDA:16,_RNCNvMs0_NtCskwRMVHy5hME_7lb_quic8listenerNtB7_12QuicListener5spawn0Csehp0v1aTm1m_11grpc_h3_e2e
FNDA:0,_RINvMs_NtCskwRMVHy5hME_7lb_quic8listenerNtB5_18QuicListenerParams15with_h3_backendpEB7_
FNDA:0,_RNCNCNvMs0_NtCskwRMVHy5hME_7lb_quic8listenerNtB9_12QuicListener5spawn00Bb_
FNDA:0,_RNCNCNvMs0_NtCskwRMVHy5hME_7lb_quic8listenerNtB9_12QuicListener5spawn0s0_0Bb_
FNDA:0,_RNCNCNvMs0_NtCskwRMVHy5hME_7lb_quic8listenerNtB9_12QuicListener5spawn0s_0Bb_
FNDA:0,_RNCNvMs0_NtCskwRMVHy5hME_7lb_quic8listenerNtB7_12QuicListener5spawn0B9_
FNDA:0,_RNCNvNtCskwRMVHy5hME_7lb_quic8listener29load_or_generate_retry_secret0B5_
FNDA:16,_RNvMs0_NtCskwRMVHy5hME_7lb_quic8listenerNtB5_12QuicListener10local_addr
FNDA:0,_RNvMs0_NtCskwRMVHy5hME_7lb_quic8listenerNtB5_12QuicListener12replay_guard
FNDA:0,_RNvMs0_NtCskwRMVHy5hME_7lb_quic8listenerNtB5_12QuicListener12retry_signer
FNDA:16,_RNvMs0_NtCskwRMVHy5hME_7lb_quic8listenerNtB5_12QuicListener5spawn
FNDA:0,_RNvMs0_NtCskwRMVHy5hME_7lb_quic8listenerNtB5_12QuicListener8shutdown
FNDA:1,_RNvMs_NtCskwRMVHy5hME_7lb_quic8listenerNtB4_18QuicListenerParams13with_backends
FNDA:0,_RNvMs_NtCskwRMVHy5hME_7lb_quic8listenerNtB4_18QuicListenerParams14with_websocket
FNDA:15,_RNvMs_NtCskwRMVHy5hME_7lb_quic8listenerNtB4_18QuicListenerParams15with_h2_backend
FNDA:0,_RNvMs_NtCskwRMVHy5hME_7lb_quic8listenerNtB4_18QuicListenerParams16with_raw_backend
FNDA:0,_RNvMs_NtCskwRMVHy5hME_7lb_quic8listenerNtB4_18QuicListenerParams22with_ws_relay_launcher
FNDA:16,_RNvMs_NtCskwRMVHy5hME_7lb_quic8listenerNtB4_18QuicListenerParams3new
FNDA:15,_RNvNtCskwRMVHy5hME_7lb_quic8listener17write_secret_file
FNDA:70,_RNvNtCskwRMVHy5hME_7lb_quic8listener19build_server_config
FNDA:16,_RNvNtCskwRMVHy5hME_7lb_quic8listener29load_or_generate_retry_secret
FNDA:0,_RNvXNtCskwRMVHy5hME_7lb_quic8listenerNtB2_18QuicListenerParamsNtNtCs2va5m0jqTTM_4core3fmt5Debug3fmt
FNF:21
FNH:12
DA:118,0
DA:119,0
DA:120,0
DA:121,0
DA:122,0
DA:123,0
DA:124,0
DA:125,0
DA:126,0
DA:127,0
DA:128,0
DA:129,0
DA:130,0
DA:131,0
DA:132,0
DA:133,0
DA:134,0
DA:135,0
DA:136,0
DA:137,0
DA:144,16
DA:145,16
DA:146,16
DA:147,16
DA:148,16
DA:149,16
DA:150,16
DA:151,16
DA:152,16
DA:153,16
DA:154,16
DA:155,16
DA:156,16
DA:157,16
DA:158,16
DA:159,16
DA:160,16
DA:161,16
DA:162,16
DA:163,16
DA:164,16
DA:165,16
DA:166,16
DA:167,16
DA:168,16
DA:169,16
DA:170,16
DA:171,16
DA:172,16
DA:173,16
DA:174,16
DA:175,16
DA:176,16
DA:181,1
DA:182,1
DA:183,1
DA:184,1
DA:185,1
DA:191,0
DA:192,0
DA:193,0
DA:194,0
DA:195,0
DA:196,0
DA:197,0
DA:198,0
DA:199,0
DA:205,15
DA:206,15
DA:207,15
DA:208,15
DA:219,0
DA:220,0
DA:221,0
DA:222,0
DA:223,0
DA:224,0
DA:225,0
DA:226,0
DA:227,0
DA:228,0
DA:229,0
DA:242,0
DA:243,0
DA:244,0
DA:245,0
DA:257,0
DA:258,0
DA:259,0
DA:260,0
DA:283,16
DA:284,16
DA:285,16
DA:286,16
DA:287,16
DA:288,16
DA:289,16
DA:291,16
DA:292,16
DA:293,16
DA:294,16
DA:295,16
DA:296,16
DA:299,0
DA:300,0
DA:301,0
DA:302,0
DA:310,16
DA:311,16
DA:312,16
DA:313,16
DA:314,16
DA:315,16
DA:316,16
DA:317,16
DA:318,16
DA:319,16
DA:320,16
DA:321,16
DA:322,70
DA:323,70
DA:324,70
DA:325,70
DA:326,70
DA:327,70
DA:328,70
DA:329,70
DA:330,70
DA:331,70
DA:332,16
DA:333,16
DA:334,16
DA:335,16
DA:336,16
DA:337,15
DA:338,15
DA:339,15
DA:340,15
DA:341,15
DA:342,15
DA:343,15
DA:344,15
DA:345,15
DA:346,15
DA:347,15
DA:348,15
DA:349,15
DA:350,16
DA:351,16
DA:352,16
DA:353,16
DA:354,16
DA:355,16
DA:356,16
DA:357,16
DA:358,16
DA:359,16
DA:360,16
DA:361,16
DA:362,16
DA:363,16
DA:364,16
DA:365,16
DA:366,16
DA:367,16
DA:368,16
DA:369,16
DA:370,16
DA:371,16
DA:372,16
DA:373,16
DA:374,16
DA:375,16
DA:376,16
DA:377,16
DA:378,16
DA:379,16
DA:380,16
DA:381,16
DA:382,16
DA:383,16
DA:384,16
DA:385,0
DA:386,0
DA:387,0
DA:388,16
DA:389,16
DA:390,16
DA:391,16
DA:392,16
DA:393,16
DA:394,16
DA:395,16
DA:396,16
DA:397,16
DA:401,16
DA:402,16
DA:403,16
DA:407,0
DA:408,0
DA:409,0
DA:413,0
DA:414,0
DA:415,0
DA:419,0
DA:420,0
DA:421,0
DA:422,0
DA:425,16
DA:426,16
DA:427,1
DA:428,1
DA:429,0
DA:430,0
DA:431,0
DA:432,0
DA:433,0
DA:434,0
DA:435,1
DA:436,1
DA:437,1
DA:438,1
DA:439,1
DA:440,1
DA:441,1
DA:442,1
DA:444,15
DA:445,15
DA:446,15
DA:447,15
DA:448,0
DA:449,0
DA:450,15
DA:451,15
DA:452,15
DA:453,15
DA:454,15
DA:456,0
DA:458,16
DA:461,15
DA:464,15
DA:465,15
DA:466,15
DA:467,15
DA:468,15
DA:469,15
DA:470,15
DA:471,15
DA:472,15
DA:489,70
DA:490,70
DA:491,70
DA:492,70
DA:493,70
DA:494,70
DA:495,70
DA:496,70
DA:497,70
DA:498,70
DA:499,70
DA:500,70
DA:501,70
DA:502,70
DA:503,70
DA:504,70
DA:505,70
DA:506,70
DA:507,70
DA:508,70
DA:509,70
DA:510,70
DA:511,70
DA:512,0
DA:513,70
DA:514,70
DA:515,70
DA:516,70
DA:517,70
DA:518,70
DA:519,70
BRF:0
BRH:0
LF:288
LH:211
end_of_record
SF:/home/ubuntu/Code/ExpressGateway/crates/lb-quic/src/passthrough.rs
FN:1206,_RNCNCNCNCNvMs1_NtCskwRMVHy5hME_7lb_quic11passthroughNtBd_19PassthroughListener5spawn0s1_000Bf_
FN:1202,_RNCNCNCNvMs1_NtCskwRMVHy5hME_7lb_quic11passthroughNtBb_19PassthroughListener5spawn0s1_00Bd_
FN:1139,_RNCNCNvMs1_NtCskwRMVHy5hME_7lb_quic11passthroughNtB9_19PassthroughListener5spawn00Bb_
FN:1159,_RNCNCNvMs1_NtCskwRMVHy5hME_7lb_quic11passthroughNtB9_19PassthroughListener5spawn0s0_0Bb_
FN:1200,_RNCNCNvMs1_NtCskwRMVHy5hME_7lb_quic11passthroughNtB9_19PassthroughListener5spawn0s1_0Bb_
FN:1149,_RNCNCNvMs1_NtCskwRMVHy5hME_7lb_quic11passthroughNtB9_19PassthroughListener5spawn0s_0Bb_
FN:980,_RNCNCNvNtCskwRMVHy5hME_7lb_quic11passthrough12reverse_pump00B7_
FN:1024,_RNCNCNvNtCskwRMVHy5hME_7lb_quic11passthrough13forward_short00B7_
FN:1025,_RNCNCNvNtCskwRMVHy5hME_7lb_quic11passthrough13forward_short0s_0B7_
FN:916,_RNCNCNvNtCskwRMVHy5hME_7lb_quic11passthrough14handle_initial00B7_
FN:940,_RNCNCNvNtCskwRMVHy5hME_7lb_quic11passthrough14handle_initial0s_0B7_
FN:1129,_RNCNvMs1_NtCskwRMVHy5hME_7lb_quic11passthroughNtB7_19PassthroughListener5spawn0B9_
FN:944,_RNCNvNtCskwRMVHy5hME_7lb_quic11passthrough12reverse_pump0B5_
FN:1006,_RNCNvNtCskwRMVHy5hME_7lb_quic11passthrough13forward_short0B5_
FN:689,_RNCNvNtCskwRMVHy5hME_7lb_quic11passthrough14handle_inbound0B5_
FN:749,_RNCNvNtCskwRMVHy5hME_7lb_quic11passthrough14handle_initial0B5_
FN:667,_RNCNvNtCskwRMVHy5hME_7lb_quic11passthrough16run_idle_sweeper0B5_
FN:995,_RNCNvNtCskwRMVHy5hME_7lb_quic11passthrough21forward_long_existing0B5_
FN:284,_RNvNtCskwRMVHy5hME_7lb_quic11passthrough23__flow_entry_field_audit
FN:608,_RNCNCNvNtCskwRMVHy5hME_7lb_quic11passthrough13reclaim_flows00B7_
FN:609,_RNCNCNvNtCskwRMVHy5hME_7lb_quic11passthrough13reclaim_flows0s_0B7_
FN:522,_RNCNvNtCskwRMVHy5hME_7lb_quic11passthrough11audit_allow0B5_
FN:605,_RNCNvNtCskwRMVHy5hME_7lb_quic11passthrough13reclaim_flows0B5_
FN:621,_RNCNvNtCskwRMVHy5hME_7lb_quic11passthrough13reclaim_flowss_0B5_
FN:646,_RNCNvNtCskwRMVHy5hME_7lb_quic11passthrough16sweep_idle_flows0B5_
FN:411,_RNCNvNtCskwRMVHy5hME_7lb_quic11passthrough18build_retry_packet0B5_
FN:420,_RNCNvNtCskwRMVHy5hME_7lb_quic11passthrough18build_retry_packets_0B5_
FN:1285,_RNCNvNtCskwRMVHy5hME_7lb_quic11passthrough29load_or_generate_retry_secret0B5_
FN:248,_RNvXs_NtCskwRMVHy5hME_7lb_quic11passthroughNtB4_9FlowEntryNtNtNtCs2va5m0jqTTM_4core3ops4drop4Drop4drop
FN:152,_RNvMNtCskwRMVHy5hME_7lb_quic11passthroughNtB2_17PassthroughParams3new
FN:256,_RNvMs0_NtCskwRMVHy5hME_7lb_quic11passthroughNtB5_9FlowEntry5touch
FN:268,_RNvMs0_NtCskwRMVHy5hME_7lb_quic11passthroughNtB5_9FlowEntry8get_peer
FN:263,_RNvMs0_NtCskwRMVHy5hME_7lb_quic11passthroughNtB5_9FlowEntry8set_peer
FN:1230,_RNvMs1_NtCskwRMVHy5hME_7lb_quic11passthroughNtB5_19PassthroughListener10local_addr
FN:1126,_RNvMs1_NtCskwRMVHy5hME_7lb_quic11passthroughNtB5_19PassthroughListener5spawn
FN:1246,_RNvMs1_NtCskwRMVHy5hME_7lb_quic11passthroughNtB5_19PassthroughListener8shutdown
FN:1239,_RNvMs1_NtCskwRMVHy5hME_7lb_quic11passthroughNtB5_19PassthroughListener9flows_len
FN:1098,_RNvNtCskwRMVHy5hME_7lb_quic11passthrough10elapsed_ms
FN:519,_RNvNtCskwRMVHy5hME_7lb_quic11passthrough11audit_allow
FN:556,_RNvNtCskwRMVHy5hME_7lb_quic11passthrough12evict_oldest
FN:533,_RNvNtCskwRMVHy5hME_7lb_quic11passthrough12pick_backend
FN:944,_RNvNtCskwRMVHy5hME_7lb_quic11passthrough12reverse_pump
FN:1006,_RNvNtCskwRMVHy5hME_7lb_quic11passthrough13forward_short
FN:593,_RNvNtCskwRMVHy5hME_7lb_quic11passthrough13reclaim_flows
FN:689,_RNvNtCskwRMVHy5hME_7lb_quic11passthrough14handle_inbound
FN:741,_RNvNtCskwRMVHy5hME_7lb_quic11passthrough14handle_initial
FN:1085,_RNvNtCskwRMVHy5hME_7lb_quic11passthrough14sample_lb_scid
FN:545,_RNvNtCskwRMVHy5hME_7lb_quic11passthrough15set_flows_gauge
FN:662,_RNvNtCskwRMVHy5hME_7lb_quic11passthrough16run_idle_sweeper
FN:640,_RNvNtCskwRMVHy5hME_7lb_quic11passthrough16sweep_idle_flows
FN:1052,_RNvNtCskwRMVHy5hME_7lb_quic11passthrough17forward_short_via
FN:1294,_RNvNtCskwRMVHy5hME_7lb_quic11passthrough17write_secret_file
FN:369,_RNvNtCskwRMVHy5hME_7lb_quic11passthrough18build_retry_packet
FN:320,_RNvNtCskwRMVHy5hME_7lb_quic11passthrough20hash_dcid_for_maglev
FN:995,_RNvNtCskwRMVHy5hME_7lb_quic11passthrough21forward_long_existing
FN:736,_RNvNtCskwRMVHy5hME_7lb_quic11passthrough22default_short_dcid_len
FN:460,_RNvNtCskwRMVHy5hME_7lb_quic11passthrough24__test_build_retry_packet
FN:1258,_RNvNtCskwRMVHy5hME_7lb_quic11passthrough29load_or_generate_retry_secret
FNDA:0,_RNCNCNCNCNvMs1_NtCskwRMVHy5hME_7lb_quic11passthroughNtBd_19PassthroughListener5spawn0s1_000Bf_
FNDA:0,_RNCNCNCNvMs1_NtCskwRMVHy5hME_7lb_quic11passthroughNtBb_19PassthroughListener5spawn0s1_00Bd_
FNDA:0,_RNCNCNvMs1_NtCskwRMVHy5hME_7lb_quic11passthroughNtB9_19PassthroughListener5spawn00Bb_
FNDA:0,_RNCNCNvMs1_NtCskwRMVHy5hME_7lb_quic11passthroughNtB9_19PassthroughListener5spawn0s0_0Bb_
FNDA:0,_RNCNCNvMs1_NtCskwRMVHy5hME_7lb_quic11passthroughNtB9_19PassthroughListener5spawn0s1_0Bb_
FNDA:0,_RNCNCNvMs1_NtCskwRMVHy5hME_7lb_quic11passthroughNtB9_19PassthroughListener5spawn0s_0Bb_
FNDA:0,_RNCNCNvNtCskwRMVHy5hME_7lb_quic11passthrough12reverse_pump00B7_
FNDA:0,_RNCNCNvNtCskwRMVHy5hME_7lb_quic11passthrough13forward_short00B7_
FNDA:0,_RNCNCNvNtCskwRMVHy5hME_7lb_quic11passthrough13forward_short0s_0B7_
FNDA:0,_RNCNCNvNtCskwRMVHy5hME_7lb_quic11passthrough14handle_initial00B7_
FNDA:0,_RNCNCNvNtCskwRMVHy5hME_7lb_quic11passthrough14handle_initial0s_0B7_
FNDA:0,_RNCNvMs1_NtCskwRMVHy5hME_7lb_quic11passthroughNtB7_19PassthroughListener5spawn0B9_
FNDA:0,_RNCNvNtCskwRMVHy5hME_7lb_quic11passthrough12reverse_pump0B5_
FNDA:0,_RNCNvNtCskwRMVHy5hME_7lb_quic11passthrough13forward_short0B5_
FNDA:0,_RNCNvNtCskwRMVHy5hME_7lb_quic11passthrough14handle_inbound0B5_
FNDA:0,_RNCNvNtCskwRMVHy5hME_7lb_quic11passthrough14handle_initial0B5_
FNDA:0,_RNCNvNtCskwRMVHy5hME_7lb_quic11passthrough16run_idle_sweeper0B5_
FNDA:0,_RNCNvNtCskwRMVHy5hME_7lb_quic11passthrough21forward_long_existing0B5_
FNDA:0,_RNvNtCskwRMVHy5hME_7lb_quic11passthrough23__flow_entry_field_audit
FNDA:0,_RNCNCNvNtCskwRMVHy5hME_7lb_quic11passthrough13reclaim_flows00B7_
FNDA:0,_RNCNCNvNtCskwRMVHy5hME_7lb_quic11passthrough13reclaim_flows0s_0B7_
FNDA:0,_RNCNvNtCskwRMVHy5hME_7lb_quic11passthrough11audit_allow0B5_
FNDA:0,_RNCNvNtCskwRMVHy5hME_7lb_quic11passthrough13reclaim_flows0B5_
FNDA:0,_RNCNvNtCskwRMVHy5hME_7lb_quic11passthrough13reclaim_flowss_0B5_
FNDA:0,_RNCNvNtCskwRMVHy5hME_7lb_quic11passthrough16sweep_idle_flows0B5_
FNDA:0,_RNCNvNtCskwRMVHy5hME_7lb_quic11passthrough18build_retry_packet0B5_
FNDA:0,_RNCNvNtCskwRMVHy5hME_7lb_quic11passthrough18build_retry_packets_0B5_
FNDA:0,_RNCNvNtCskwRMVHy5hME_7lb_quic11passthrough29load_or_generate_retry_secret0B5_
FNDA:0,_RNvXs_NtCskwRMVHy5hME_7lb_quic11passthroughNtB4_9FlowEntryNtNtNtCs2va5m0jqTTM_4core3ops4drop4Drop4drop
FNDA:0,_RNvMNtCskwRMVHy5hME_7lb_quic11passthroughNtB2_17PassthroughParams3new
FNDA:0,_RNvMs0_NtCskwRMVHy5hME_7lb_quic11passthroughNtB5_9FlowEntry5touch
FNDA:0,_RNvMs0_NtCskwRMVHy5hME_7lb_quic11passthroughNtB5_9FlowEntry8get_peer
FNDA:0,_RNvMs0_NtCskwRMVHy5hME_7lb_quic11passthroughNtB5_9FlowEntry8set_peer
FNDA:0,_RNvMs1_NtCskwRMVHy5hME_7lb_quic11passthroughNtB5_19PassthroughListener10local_addr
FNDA:0,_RNvMs1_NtCskwRMVHy5hME_7lb_quic11passthroughNtB5_19PassthroughListener5spawn
FNDA:0,_RNvMs1_NtCskwRMVHy5hME_7lb_quic11passthroughNtB5_19PassthroughListener8shutdown
FNDA:0,_RNvMs1_NtCskwRMVHy5hME_7lb_quic11passthroughNtB5_19PassthroughListener9flows_len
FNDA:0,_RNvNtCskwRMVHy5hME_7lb_quic11passthrough10elapsed_ms
FNDA:0,_RNvNtCskwRMVHy5hME_7lb_quic11passthrough11audit_allow
FNDA:0,_RNvNtCskwRMVHy5hME_7lb_quic11passthrough12evict_oldest
FNDA:0,_RNvNtCskwRMVHy5hME_7lb_quic11passthrough12pick_backend
FNDA:0,_RNvNtCskwRMVHy5hME_7lb_quic11passthrough12reverse_pump
FNDA:0,_RNvNtCskwRMVHy5hME_7lb_quic11passthrough13forward_short
FNDA:0,_RNvNtCskwRMVHy5hME_7lb_quic11passthrough13reclaim_flows
FNDA:0,_RNvNtCskwRMVHy5hME_7lb_quic11passthrough14handle_inbound
FNDA:0,_RNvNtCskwRMVHy5hME_7lb_quic11passthrough14handle_initial
FNDA:0,_RNvNtCskwRMVHy5hME_7lb_quic11passthrough14sample_lb_scid
FNDA:0,_RNvNtCskwRMVHy5hME_7lb_quic11passthrough15set_flows_gauge
FNDA:0,_RNvNtCskwRMVHy5hME_7lb_quic11passthrough16run_idle_sweeper
FNDA:0,_RNvNtCskwRMVHy5hME_7lb_quic11passthrough16sweep_idle_flows
FNDA:0,_RNvNtCskwRMVHy5hME_7lb_quic11passthrough17forward_short_via
FNDA:0,_RNvNtCskwRMVHy5hME_7lb_quic11passthrough17write_secret_file
FNDA:0,_RNvNtCskwRMVHy5hME_7lb_quic11passthrough18build_retry_packet
FNDA:0,_RNvNtCskwRMVHy5hME_7lb_quic11passthrough20hash_dcid_for_maglev
FNDA:0,_RNvNtCskwRMVHy5hME_7lb_quic11passthrough21forward_long_existing
FNDA:0,_RNvNtCskwRMVHy5hME_7lb_quic11passthrough22default_short_dcid_len
FNDA:0,_RNvNtCskwRMVHy5hME_7lb_quic11passthrough24__test_build_retry_packet
FNDA:0,_RNvNtCskwRMVHy5hME_7lb_quic11passthrough29load_or_generate_retry_secret
FNF:58
FNH:0
DA:152,0
DA:153,0
DA:154,0
DA:155,0
DA:156,0
DA:157,0
DA:158,0
DA:159,0
DA:160,0
DA:161,0
DA:162,0
DA:163,0
DA:164,0
DA:165,0
DA:166,0
DA:167,0
DA:168,0
DA:169,0
DA:170,0
DA:171,0
DA:248,0
DA:249,0
DA:250,0
DA:256,0
DA:257,0
DA:258,0
DA:259,0
DA:260,0
DA:263,0
DA:264,0
DA:265,0
DA:268,0
DA:269,0
DA:270,0
DA:284,0
DA:285,0
DA:286,0
DA:287,0
DA:288,0
DA:289,0
DA:290,0
DA:291,0
DA:292,0
DA:293,0
DA:294,0
DA:295,0
DA:296,0
DA:297,0
DA:298,0
DA:299,0
DA:300,0
DA:301,0
DA:302,0
DA:303,0
DA:304,0
DA:305,0
DA:306,0
DA:307,0
DA:308,0
DA:309,0
DA:320,0
DA:321,0
DA:322,0
DA:323,0
DA:324,0
DA:325,0
DA:326,0
DA:327,0
DA:328,0
DA:329,0
DA:330,0
DA:331,0
DA:332,0
DA:333,0
DA:334,0
DA:335,0
DA:336,0
DA:369,0
DA:370,0
DA:371,0
DA:372,0
DA:373,0
DA:374,0
DA:375,0
DA:376,0
DA:377,0
DA:378,0
DA:379,0
DA:380,0
DA:381,0
DA:382,0
DA:383,0
DA:384,0
DA:385,0
DA:386,0
DA:387,0
DA:388,0
DA:389,0
DA:390,0
DA:391,0
DA:392,0
DA:393,0
DA:394,0
DA:395,0
DA:396,0
DA:397,0
DA:398,0
DA:399,0
DA:400,0
DA:401,0
DA:402,0
DA:403,0
DA:404,0
DA:405,0
DA:406,0
DA:407,0
DA:410,0
DA:411,0
DA:412,0
DA:413,0
DA:414,0
DA:415,0
DA:416,0
DA:417,0
DA:418,0
DA:419,0
DA:420,0
DA:421,0
DA:422,0
DA:423,0
DA:424,0
DA:425,0
DA:426,0
DA:427,0
DA:428,0
DA:429,0
DA:430,0
DA:431,0
DA:432,0
DA:433,0
DA:434,0
DA:435,0
DA:436,0
DA:437,0
DA:438,0
DA:439,0
DA:440,0
DA:441,0
DA:442,0
DA:460,0
DA:461,0
DA:462,0
DA:463,0
DA:464,0
DA:465,0
DA:466,0
DA:467,0
DA:468,0
DA:469,0
DA:519,0
DA:520,0
DA:521,0
DA:522,0
DA:523,0
DA:524,0
DA:526,0
DA:528,0
DA:529,0
DA:530,0
DA:533,0
DA:534,0
DA:535,0
DA:536,0
DA:537,0
DA:545,0
DA:546,0
DA:547,0
DA:548,0
DA:549,0
DA:550,0
DA:556,0
DA:557,0
DA:558,0
DA:559,0
DA:560,0
DA:561,0
DA:562,0
DA:563,0
DA:564,0
DA:566,0
DA:567,0
DA:568,0
DA:570,0
DA:593,0
DA:594,0
DA:595,0
DA:596,0
DA:598,0
DA:599,0
DA:600,0
DA:601,0
DA:602,0
DA:603,0
DA:604,0
DA:605,0
DA:606,0
DA:607,0
DA:608,0
DA:609,0
DA:610,0
DA:611,0
DA:612,0
DA:613,0
DA:614,0
DA:615,0
DA:616,0
DA:617,0
DA:618,0
DA:619,0
DA:621,0
DA:622,0
DA:623,0
DA:624,0
DA:625,0
DA:626,0
DA:628,0
DA:629,0
DA:630,0
DA:631,0
DA:640,0
DA:641,0
DA:642,0
DA:643,0
DA:644,0
DA:645,0
DA:646,0
DA:647,0
DA:648,0
DA:649,0
DA:651,0
DA:652,0
DA:653,0
DA:654,0
DA:662,0
DA:663,0
DA:664,0
DA:665,0
DA:666,0
DA:667,0
DA:668,0
DA:669,0
DA:671,0
DA:673,0
DA:674,0
DA:675,0
DA:676,0
DA:677,0
DA:680,0
DA:682,0
DA:686,0
DA:689,0
DA:690,0
DA:691,0
DA:692,0
DA:693,0
DA:694,0
DA:695,0
DA:696,0
DA:697,0
DA:701,0
DA:703,0
DA:704,0
DA:705,0
DA:706,0
DA:707,0
DA:708,0
DA:709,0
DA:711,0
DA:718,0
DA:723,0
DA:726,0
DA:727,0
DA:728,0
DA:729,0
DA:732,0
DA:736,0
DA:737,0
DA:738,0
DA:741,0
DA:742,0
DA:743,0
DA:744,0
DA:745,0
DA:746,0
DA:747,0
DA:748,0
DA:749,0
DA:750,0
DA:751,0
DA:752,0
DA:753,0
DA:755,0
DA:756,0
DA:757,0
DA:759,0
DA:760,0
DA:763,0
DA:764,0
DA:765,0
DA:766,0
DA:767,0
DA:768,0
DA:769,0
DA:770,0
DA:771,0
DA:772,0
DA:773,0
DA:774,0
DA:775,0
DA:776,0
DA:777,0
DA:778,0
DA:779,0
DA:780,0
DA:781,0
DA:782,0
DA:783,0
DA:784,0
DA:785,0
DA:786,0
DA:787,0
DA:788,0
DA:789,0
DA:790,0
DA:792,0
DA:793,0
DA:794,0
DA:795,0
DA:796,0
DA:797,0
DA:798,0
DA:799,0
DA:800,0
DA:801,0
DA:802,0
DA:803,0
DA:804,0
DA:805,0
DA:806,0
DA:807,0
DA:808,0
DA:809,0
DA:810,0
DA:811,0
DA:812,0
DA:813,0
DA:814,0
DA:815,0
DA:816,0
DA:817,0
DA:818,0
DA:819,0
DA:824,0
DA:825,0
DA:827,0
DA:828,0
DA:829,0
DA:830,0
DA:831,0
DA:832,0
DA:833,0
DA:836,0
DA:837,0
DA:838,0
DA:840,0
DA:841,0
DA:842,0
DA:843,0
DA:844,0
DA:846,0
DA:849,0
DA:850,0
DA:851,0
DA:855,0
DA:856,0
DA:857,0
DA:859,0
DA:860,0
DA:861,0
DA:862,0
DA:863,0
DA:864,0
DA:865,0
DA:866,0
DA:869,0
DA:870,0
DA:871,0
DA:872,0
DA:873,0
DA:874,0
DA:875,0
DA:876,0
DA:877,0
DA:878,0
DA:879,0
DA:880,0
DA:881,0
DA:882,0
DA:883,0
DA:884,0
DA:885,0
DA:886,0
DA:887,0
DA:888,0
DA:889,0
DA:890,0
DA:891,0
DA:892,0
DA:893,0
DA:894,0
DA:895,0
DA:896,0
DA:897,0
DA:898,0
DA:899,0
DA:900,0
DA:901,0
DA:902,0
DA:903,0
DA:904,0
DA:905,0
DA:906,0
DA:907,0
DA:908,0
DA:909,0
DA:910,0
DA:911,0
DA:912,0
DA:913,0
DA:914,0
DA:915,0
DA:916,0
DA:917,0
DA:919,0
DA:921,0
DA:922,0
DA:923,0
DA:924,0
DA:927,0
DA:928,0
DA:929,0
DA:930,0
DA:931,0
DA:932,0
DA:933,0
DA:935,0
DA:936,0
DA:937,0
DA:938,0
DA:939,0
DA:940,0
DA:941,0
DA:944,0
DA:945,0
DA:952,0
DA:954,0
DA:955,0
DA:956,0
DA:957,0
DA:958,0
DA:959,0
DA:960,0
DA:961,0
DA:962,0
DA:966,0
DA:973,0
DA:974,0
DA:975,0
DA:976,0
DA:977,0
DA:978,0
DA:979,0
DA:980,0
DA:981,0
DA:982,0
DA:983,0
DA:985,0
DA:986,0
DA:987,0
DA:990,0
DA:992,0
DA:995,0
DA:996,0
DA:997,0
DA:998,0
DA:999,0
DA:1000,0
DA:1001,0
DA:1002,0
DA:1006,0
DA:1008,0
DA:1009,0
DA:1010,0
DA:1011,0
DA:1012,0
DA:1013,0
DA:1014,0
DA:1015,0
DA:1016,0
DA:1017,0
DA:1018,0
DA:1019,0
DA:1020,0
DA:1021,0
DA:1022,0
DA:1023,0
DA:1024,0
DA:1025,0
DA:1026,0
DA:1027,0
DA:1028,0
DA:1029,0
DA:1030,0
DA:1031,0
DA:1032,0
DA:1034,0
DA:1035,0
DA:1036,0
DA:1037,0
DA:1038,0
DA:1039,0
DA:1040,0
DA:1041,0
DA:1042,0
DA:1043,0
DA:1044,0
DA:1048,0
DA:1052,0
DA:1053,0
DA:1054,0
DA:1055,0
DA:1056,0
DA:1057,0
DA:1059,0
DA:1062,0
DA:1067,0
DA:1068,0
DA:1069,0
DA:1070,0
DA:1071,0
DA:1072,0
DA:1073,0
DA:1077,0
DA:1079,0
DA:1080,0
DA:1081,0
DA:1082,0
DA:1083,0
DA:1085,0
DA:1086,0
DA:1087,0
DA:1088,0
DA:1089,0
DA:1090,0
DA:1091,0
DA:1092,0
DA:1093,0
DA:1094,0
DA:1095,0
DA:1096,0
DA:1098,0
DA:1099,0
DA:1100,0
DA:1126,0
DA:1127,0
DA:1128,0
DA:1129,0
DA:1130,0
DA:1131,0
DA:1132,0
DA:1133,0
DA:1134,0
DA:1135,0
DA:1137,0
DA:1138,0
DA:1139,0
DA:1140,0
DA:1141,0
DA:1142,0
DA:1143,0
DA:1144,0
DA:1145,0
DA:1146,0
DA:1147,0
DA:1148,0
DA:1149,0
DA:1150,0
DA:1151,0
DA:1152,0
DA:1153,0
DA:1154,0
DA:1155,0
DA:1156,0
DA:1157,0
DA:1158,0
DA:1159,0
DA:1161,0
DA:1162,0
DA:1163,0
DA:1164,0
DA:1165,0
DA:1166,0
DA:1167,0
DA:1168,0
DA:1169,0
DA:1170,0
DA:1171,0
DA:1172,0
DA:1173,0
DA:1176,0
DA:1177,0
DA:1185,0
DA:1186,0
DA:1187,0
DA:1188,0
DA:1189,0
DA:1190,0
DA:1191,0
DA:1192,0
DA:1193,0
DA:1194,0
DA:1195,0
DA:1196,0
DA:1198,0
DA:1199,0
DA:1200,0
DA:1201,0
DA:1202,0
DA:1203,0
DA:1204,0
DA:1205,0
DA:1206,0
DA:1207,0
DA:1208,0
DA:1209,0
DA:1210,0
DA:1211,0
DA:1212,0
DA:1214,0
DA:1215,0
DA:1216,0
DA:1217,0
DA:1218,0
DA:1219,0
DA:1220,0
DA:1221,0
DA:1222,0
DA:1223,0
DA:1224,0
DA:1225,0
DA:1226,0
DA:1230,0
DA:1231,0
DA:1232,0
DA:1239,0
DA:1240,0
DA:1241,0
DA:1246,0
DA:1247,0
DA:1248,0
DA:1249,0
DA:1258,0
DA:1259,0
DA:1260,0
DA:1261,0
DA:1262,0
DA:1263,0
DA:1264,0
DA:1265,0
DA:1266,0
DA:1267,0
DA:1268,0
DA:1269,0
DA:1270,0
DA:1271,0
DA:1272,0
DA:1273,0
DA:1274,0
DA:1275,0
DA:1277,0
DA:1278,0
DA:1279,0
DA:1280,0
DA:1281,0
DA:1282,0
DA:1283,0
DA:1284,0
DA:1285,0
DA:1286,0
DA:1287,0
DA:1289,0
DA:1291,0
DA:1294,0
DA:1297,0
DA:1298,0
DA:1299,0
DA:1300,0
DA:1301,0
DA:1302,0
DA:1303,0
DA:1304,0
DA:1305,0
BRF:0
BRH:0
LF:746
LH:0
end_of_record
SF:/home/ubuntu/Code/ExpressGateway/crates/lb-quic/src/public_header.rs
FN:183,_RNvNtCskwRMVHy5hME_7lb_quic13public_header10parse_long
FN:337,_RNvNtCskwRMVHy5hME_7lb_quic13public_header11parse_short
FN:134,_RNvNtCskwRMVHy5hME_7lb_quic13public_header13decode_varint
FN:165,_RNvNtCskwRMVHy5hME_7lb_quic13public_header19parse_public_header
FN:275,_RNCNvNtCskwRMVHy5hME_7lb_quic13public_header10parse_long0B5_
FNDA:0,_RNvNtCskwRMVHy5hME_7lb_quic13public_header10parse_long
FNDA:0,_RNvNtCskwRMVHy5hME_7lb_quic13public_header11parse_short
FNDA:0,_RNvNtCskwRMVHy5hME_7lb_quic13public_header13decode_varint
FNDA:0,_RNvNtCskwRMVHy5hME_7lb_quic13public_header19parse_public_header
FNDA:0,_RNCNvNtCskwRMVHy5hME_7lb_quic13public_header10parse_long0B5_
FNF:5
FNH:0
DA:134,0
DA:135,0
DA:136,0
DA:137,0
DA:138,0
DA:139,0
DA:140,0
DA:141,0
DA:142,0
DA:143,0
DA:144,0
DA:145,0
DA:146,0
DA:147,0
DA:148,0
DA:149,0
DA:150,0
DA:151,0
DA:153,0
DA:154,0
DA:165,0
DA:166,0
DA:167,0
DA:168,0
DA:169,0
DA:170,0
DA:171,0
DA:173,0
DA:174,0
DA:175,0
DA:176,0
DA:177,0
DA:179,0
DA:181,0
DA:183,0
DA:185,0
DA:186,0
DA:187,0
DA:188,0
DA:189,0
DA:190,0
DA:191,0
DA:192,0
DA:193,0
DA:194,0
DA:195,0
DA:196,0
DA:197,0
DA:198,0
DA:199,0
DA:200,0
DA:201,0
DA:202,0
DA:203,0
DA:204,0
DA:205,0
DA:206,0
DA:207,0
DA:208,0
DA:210,0
DA:211,0
DA:212,0
DA:213,0
DA:214,0
DA:215,0
DA:216,0
DA:217,0
DA:218,0
DA:219,0
DA:220,0
DA:221,0
DA:222,0
DA:223,0
DA:224,0
DA:225,0
DA:226,0
DA:227,0
DA:229,0
DA:230,0
DA:231,0
DA:232,0
DA:233,0
DA:234,0
DA:235,0
DA:236,0
DA:237,0
DA:238,0
DA:239,0
DA:240,0
DA:241,0
DA:242,0
DA:243,0
DA:244,0
DA:245,0
DA:246,0
DA:247,0
DA:250,0
DA:251,0
DA:252,0
DA:253,0
DA:254,0
DA:255,0
DA:256,0
DA:257,0
DA:258,0
DA:259,0
DA:261,0
DA:262,0
DA:263,0
DA:264,0
DA:265,0
DA:268,0
DA:269,0
DA:270,0
DA:271,0
DA:272,0
DA:274,0
DA:275,0
DA:276,0
DA:277,0
DA:278,0
DA:279,0
DA:280,0
DA:281,0
DA:282,0
DA:283,0
DA:284,0
DA:285,0
DA:286,0
DA:287,0
DA:288,0
DA:289,0
DA:290,0
DA:291,0
DA:292,0
DA:293,0
DA:294,0
DA:295,0
DA:296,0
DA:297,0
DA:298,0
DA:299,0
DA:300,0
DA:301,0
DA:302,0
DA:303,0
DA:306,0
DA:307,0
DA:308,0
DA:309,0
DA:310,0
DA:311,0
DA:312,0
DA:313,0
DA:314,0
DA:315,0
DA:324,0
DA:327,0
DA:328,0
DA:329,0
DA:330,0
DA:331,0
DA:332,0
DA:333,0
DA:334,0
DA:335,0
DA:337,0
DA:338,0
DA:344,0
DA:345,0
DA:346,0
DA:347,0
DA:348,0
DA:349,0
DA:350,0
DA:351,0
DA:352,0
DA:353,0
DA:354,0
DA:355,0
DA:356,0
DA:357,0
DA:358,0
BRF:0
BRH:0
LF:185
LH:0
end_of_record
SF:/home/ubuntu/Code/ExpressGateway/crates/lb-quic/src/raw_proxy.rs
FN:221,_RNCNvNtCskwRMVHy5hME_7lb_quic9raw_proxy28run_raw_proxy_actor_for_test0B5_
FN:358,_RNCNvMs_NtCskwRMVHy5hME_7lb_quic9raw_proxyNtB6_15ActiveConnGuard3new0B8_
FN:878,_RNCNvNtCskwRMVHy5hME_7lb_quic9raw_proxy13relay_streams0B5_
FN:476,_RNCNvNtCskwRMVHy5hME_7lb_quic9raw_proxy13run_dual_pump0B5_
FN:1480,_RNCNvNtCskwRMVHy5hME_7lb_quic9raw_proxy14graceful_close0B5_
FN:197,_RNCNvNtCskwRMVHy5hME_7lb_quic9raw_proxy19run_raw_proxy_actor0B5_
FN:229,_RNCNvNtCskwRMVHy5hME_7lb_quic9raw_proxy25run_raw_proxy_actor_inner0B5_
FN:386,_RNCNvNtCskwRMVHy5hME_7lb_quic9raw_proxy27drive_client_to_established0B5_
FN:729,_RNvMs1_NtCskwRMVHy5hME_7lb_quic9raw_proxyNtB5_9RelayHalf16propagate_cancel
FN:797,_RNvMs2_NtCskwRMVHy5hME_7lb_quic9raw_proxyNtB5_14RawStreamState11is_complete
FN:1043,_RNvMs3_NtCskwRMVHy5hME_7lb_quic9raw_proxyNtB5_17BoundedDgramQueue3len
FN:1001,_RNvMs3_NtCskwRMVHy5hME_7lb_quic9raw_proxyNtB5_17BoundedDgramQueue3new
FN:1016,_RNvMs3_NtCskwRMVHy5hME_7lb_quic9raw_proxyNtB5_17BoundedDgramQueue4push
FN:1033,_RNvMs3_NtCskwRMVHy5hME_7lb_quic9raw_proxyNtB5_17BoundedDgramQueue5front
FN:1055,_RNvMs3_NtCskwRMVHy5hME_7lb_quic9raw_proxyNtB5_17BoundedDgramQueue7dropped
FN:1048,_RNvMs3_NtCskwRMVHy5hME_7lb_quic9raw_proxyNtB5_17BoundedDgramQueue8is_empty
FN:1038,_RNvMs3_NtCskwRMVHy5hME_7lb_quic9raw_proxyNtB5_17BoundedDgramQueue9pop_front
FN:1219,_RNvMs4_NtCskwRMVHy5hME_7lb_quic9raw_proxyNtB5_9Direction6as_str
FN:357,_RNvMs_NtCskwRMVHy5hME_7lb_quic9raw_proxyNtB4_15ActiveConnGuard3new
FN:823,_RNvNtCskwRMVHy5hME_7lb_quic9raw_proxy13relay_streams
FN:459,_RNvNtCskwRMVHy5hME_7lb_quic9raw_proxy13run_dual_pump
FN:1480,_RNvNtCskwRMVHy5hME_7lb_quic9raw_proxy14graceful_close
FN:1111,_RNvNtCskwRMVHy5hME_7lb_quic9raw_proxy14pump_dgram_dir
FN:890,_RNvNtCskwRMVHy5hME_7lb_quic9raw_proxy15admit_or_refuse
FN:1069,_RNvNtCskwRMVHy5hME_7lb_quic9raw_proxy15relay_datagrams
FN:197,_RNvNtCskwRMVHy5hME_7lb_quic9raw_proxy19run_raw_proxy_actor
FN:229,_RNvNtCskwRMVHy5hME_7lb_quic9raw_proxy25run_raw_proxy_actor_inner
FN:380,_RNvNtCskwRMVHy5hME_7lb_quic9raw_proxy27drive_client_to_established
FN:221,_RNvNtCskwRMVHy5hME_7lb_quic9raw_proxy28run_raw_proxy_actor_for_test
FN:1275,_RNvNtCskwRMVHy5hME_7lb_quic9raw_proxy8pump_dir
FN:148,_RNvXNtCskwRMVHy5hME_7lb_quic9raw_proxyNtB2_10RawBackendNtNtCs2va5m0jqTTM_4core3fmt5Debug3fmt
FN:367,_RNvXs0_NtCskwRMVHy5hME_7lb_quic9raw_proxyNtB5_15ActiveConnGuardNtNtNtCs2va5m0jqTTM_4core3ops4drop4Drop4drop
FNDA:0,_RNCNvNtCskwRMVHy5hME_7lb_quic9raw_proxy28run_raw_proxy_actor_for_test0B5_
FNDA:0,_RNCNvMs_NtCskwRMVHy5hME_7lb_quic9raw_proxyNtB6_15ActiveConnGuard3new0B8_
FNDA:0,_RNCNvNtCskwRMVHy5hME_7lb_quic9raw_proxy13relay_streams0B5_
FNDA:0,_RNCNvNtCskwRMVHy5hME_7lb_quic9raw_proxy13run_dual_pump0B5_
FNDA:0,_RNCNvNtCskwRMVHy5hME_7lb_quic9raw_proxy14graceful_close0B5_
FNDA:0,_RNCNvNtCskwRMVHy5hME_7lb_quic9raw_proxy19run_raw_proxy_actor0B5_
FNDA:0,_RNCNvNtCskwRMVHy5hME_7lb_quic9raw_proxy25run_raw_proxy_actor_inner0B5_
FNDA:0,_RNCNvNtCskwRMVHy5hME_7lb_quic9raw_proxy27drive_client_to_established0B5_
FNDA:0,_RNvMs1_NtCskwRMVHy5hME_7lb_quic9raw_proxyNtB5_9RelayHalf16propagate_cancel
FNDA:0,_RNvMs2_NtCskwRMVHy5hME_7lb_quic9raw_proxyNtB5_14RawStreamState11is_complete
FNDA:0,_RNvMs3_NtCskwRMVHy5hME_7lb_quic9raw_proxyNtB5_17BoundedDgramQueue3len
FNDA:0,_RNvMs3_NtCskwRMVHy5hME_7lb_quic9raw_proxyNtB5_17BoundedDgramQueue3new
FNDA:0,_RNvMs3_NtCskwRMVHy5hME_7lb_quic9raw_proxyNtB5_17BoundedDgramQueue4push
FNDA:0,_RNvMs3_NtCskwRMVHy5hME_7lb_quic9raw_proxyNtB5_17BoundedDgramQueue5front
FNDA:0,_RNvMs3_NtCskwRMVHy5hME_7lb_quic9raw_proxyNtB5_17BoundedDgramQueue7dropped
FNDA:0,_RNvMs3_NtCskwRMVHy5hME_7lb_quic9raw_proxyNtB5_17BoundedDgramQueue8is_empty
FNDA:0,_RNvMs3_NtCskwRMVHy5hME_7lb_quic9raw_proxyNtB5_17BoundedDgramQueue9pop_front
FNDA:0,_RNvMs4_NtCskwRMVHy5hME_7lb_quic9raw_proxyNtB5_9Direction6as_str
FNDA:0,_RNvMs_NtCskwRMVHy5hME_7lb_quic9raw_proxyNtB4_15ActiveConnGuard3new
FNDA:0,_RNvNtCskwRMVHy5hME_7lb_quic9raw_proxy13relay_streams
FNDA:0,_RNvNtCskwRMVHy5hME_7lb_quic9raw_proxy13run_dual_pump
FNDA:0,_RNvNtCskwRMVHy5hME_7lb_quic9raw_proxy14graceful_close
FNDA:0,_RNvNtCskwRMVHy5hME_7lb_quic9raw_proxy14pump_dgram_dir
FNDA:0,_RNvNtCskwRMVHy5hME_7lb_quic9raw_proxy15admit_or_refuse
FNDA:0,_RNvNtCskwRMVHy5hME_7lb_quic9raw_proxy15relay_datagrams
FNDA:0,_RNvNtCskwRMVHy5hME_7lb_quic9raw_proxy19run_raw_proxy_actor
FNDA:0,_RNvNtCskwRMVHy5hME_7lb_quic9raw_proxy25run_raw_proxy_actor_inner
FNDA:0,_RNvNtCskwRMVHy5hME_7lb_quic9raw_proxy27drive_client_to_established
FNDA:0,_RNvNtCskwRMVHy5hME_7lb_quic9raw_proxy28run_raw_proxy_actor_for_test
FNDA:0,_RNvNtCskwRMVHy5hME_7lb_quic9raw_proxy8pump_dir
FNDA:0,_RNvXNtCskwRMVHy5hME_7lb_quic9raw_proxyNtB2_10RawBackendNtNtCs2va5m0jqTTM_4core3fmt5Debug3fmt
FNDA:0,_RNvXs0_NtCskwRMVHy5hME_7lb_quic9raw_proxyNtB5_15ActiveConnGuardNtNtNtCs2va5m0jqTTM_4core3ops4drop4Drop4drop
FNF:32
FNH:0
DA:148,0
DA:149,0
DA:150,0
DA:151,0
DA:152,0
DA:153,0
DA:154,0
DA:155,0
DA:197,0
DA:198,0
DA:199,0
DA:200,0
DA:201,0
DA:204,0
DA:207,0
DA:221,0
DA:222,0
DA:223,0
DA:229,0
DA:233,0
DA:234,0
DA:235,0
DA:236,0
DA:239,0
DA:246,0
DA:247,0
DA:248,0
DA:249,0
DA:250,0
DA:251,0
DA:252,0
DA:253,0
DA:254,0
DA:257,0
DA:258,0
DA:259,0
DA:260,0
DA:261,0
DA:262,0
DA:263,0
DA:264,0
DA:265,0
DA:266,0
DA:267,0
DA:268,0
DA:269,0
DA:270,0
DA:271,0
DA:272,0
DA:280,0
DA:281,0
DA:283,0
DA:285,0
DA:286,0
DA:287,0
DA:288,0
DA:289,0
DA:290,0
DA:291,0
DA:295,0
DA:298,0
DA:299,0
DA:300,0
DA:301,0
DA:302,0
DA:303,0
DA:304,0
DA:305,0
DA:306,0
DA:307,0
DA:308,0
DA:309,0
DA:310,0
DA:311,0
DA:312,0
DA:313,0
DA:314,0
DA:315,0
DA:316,0
DA:317,0
DA:318,0
DA:319,0
DA:320,0
DA:321,0
DA:322,0
DA:323,0
DA:324,0
DA:325,0
DA:326,0
DA:327,0
DA:328,0
DA:329,0
DA:330,0
DA:331,0
DA:332,0
DA:333,0
DA:334,0
DA:335,0
DA:340,0
DA:341,0
DA:343,0
DA:344,0
DA:357,0
DA:358,0
DA:359,0
DA:360,0
DA:361,0
DA:362,0
DA:363,0
DA:367,0
DA:368,0
DA:369,0
DA:370,0
DA:371,0
DA:380,0
DA:381,0
DA:382,0
DA:383,0
DA:384,0
DA:385,0
DA:386,0
DA:387,0
DA:389,0
DA:390,0
DA:391,0
DA:392,0
DA:393,0
DA:394,0
DA:395,0
DA:396,0
DA:397,0
DA:398,0
DA:399,0
DA:400,0
DA:401,0
DA:402,0
DA:403,0
DA:404,0
DA:406,0
DA:407,0
DA:409,0
DA:410,0
DA:411,0
DA:412,0
DA:413,0
DA:414,0
DA:417,0
DA:418,0
DA:419,0
DA:422,0
DA:459,0
DA:460,0
DA:461,0
DA:462,0
DA:463,0
DA:464,0
DA:465,0
DA:466,0
DA:467,0
DA:468,0
DA:469,0
DA:470,0
DA:471,0
DA:472,0
DA:473,0
DA:474,0
DA:475,0
DA:476,0
DA:477,0
DA:478,0
DA:479,0
DA:480,0
DA:481,0
DA:482,0
DA:483,0
DA:484,0
DA:485,0
DA:486,0
DA:487,0
DA:488,0
DA:489,0
DA:490,0
DA:491,0
DA:492,0
DA:493,0
DA:494,0
DA:495,0
DA:496,0
DA:497,0
DA:498,0
DA:499,0
DA:500,0
DA:505,0
DA:506,0
DA:508,0
DA:509,0
DA:510,0
DA:511,0
DA:512,0
DA:513,0
DA:514,0
DA:515,0
DA:516,0
DA:517,0
DA:518,0
DA:519,0
DA:520,0
DA:521,0
DA:522,0
DA:523,0
DA:524,0
DA:525,0
DA:526,0
DA:528,0
DA:530,0
DA:531,0
DA:533,0
DA:534,0
DA:535,0
DA:536,0
DA:537,0
DA:538,0
DA:541,0
DA:542,0
DA:543,0
DA:544,0
DA:545,0
DA:546,0
DA:547,0
DA:548,0
DA:549,0
DA:553,0
DA:554,0
DA:558,0
DA:559,0
DA:560,0
DA:561,0
DA:562,0
DA:563,0
DA:572,0
DA:573,0
DA:574,0
DA:575,0
DA:576,0
DA:577,0
DA:578,0
DA:579,0
DA:580,0
DA:581,0
DA:582,0
DA:583,0
DA:584,0
DA:585,0
DA:586,0
DA:587,0
DA:588,0
DA:597,0
DA:599,0
DA:600,0
DA:601,0
DA:602,0
DA:603,0
DA:604,0
DA:605,0
DA:606,0
DA:607,0
DA:608,0
DA:610,0
DA:729,0
DA:730,0
DA:731,0
DA:732,0
DA:733,0
DA:734,0
DA:735,0
DA:736,0
DA:737,0
DA:738,0
DA:739,0
DA:740,0
DA:741,0
DA:742,0
DA:743,0
DA:744,0
DA:745,0
DA:746,0
DA:749,0
DA:750,0
DA:751,0
DA:752,0
DA:753,0
DA:754,0
DA:755,0
DA:756,0
DA:762,0
DA:763,0
DA:764,0
DA:765,0
DA:797,0
DA:798,0
DA:799,0
DA:823,0
DA:824,0
DA:825,0
DA:826,0
DA:827,0
DA:828,0
DA:843,0
DA:844,0
DA:845,0
DA:846,0
DA:847,0
DA:848,0
DA:850,0
DA:851,0
DA:852,0
DA:853,0
DA:856,0
DA:857,0
DA:858,0
DA:859,0
DA:860,0
DA:861,0
DA:862,0
DA:863,0
DA:864,0
DA:865,0
DA:866,0
DA:867,0
DA:868,0
DA:869,0
DA:870,0
DA:878,0
DA:879,0
DA:890,0
DA:891,0
DA:894,0
DA:895,0
DA:896,0
DA:897,0
DA:898,0
DA:904,0
DA:906,0
DA:907,0
DA:908,0
DA:909,0
DA:912,0
DA:1001,0
DA:1002,0
DA:1003,0
DA:1004,0
DA:1005,0
DA:1006,0
DA:1007,0
DA:1016,0
DA:1017,0
DA:1021,0
DA:1022,0
DA:1024,0
DA:1025,0
DA:1027,0
DA:1033,0
DA:1034,0
DA:1035,0
DA:1038,0
DA:1039,0
DA:1040,0
DA:1043,0
DA:1044,0
DA:1045,0
DA:1048,0
DA:1049,0
DA:1050,0
DA:1055,0
DA:1056,0
DA:1057,0
DA:1069,0
DA:1070,0
DA:1071,0
DA:1072,0
DA:1073,0
DA:1074,0
DA:1075,0
DA:1076,0
DA:1077,0
DA:1078,0
DA:1079,0
DA:1111,0
DA:1112,0
DA:1113,0
DA:1114,0
DA:1115,0
DA:1116,0
DA:1117,0
DA:1118,0
DA:1119,0
DA:1121,0
DA:1122,0
DA:1123,0
DA:1124,0
DA:1125,0
DA:1126,0
DA:1127,0
DA:1128,0
DA:1129,0
DA:1130,0
DA:1131,0
DA:1133,0
DA:1135,0
DA:1138,0
DA:1139,0
DA:1140,0
DA:1141,0
DA:1142,0
DA:1144,0
DA:1146,0
DA:1147,0
DA:1148,0
DA:1149,0
DA:1151,0
DA:1157,0
DA:1158,0
DA:1159,0
DA:1160,0
DA:1161,0
DA:1162,0
DA:1165,0
DA:1170,0
DA:1171,0
DA:1172,0
DA:1173,0
DA:1174,0
DA:1175,0
DA:1183,0
DA:1184,0
DA:1185,0
DA:1186,0
DA:1187,0
DA:1188,0
DA:1189,0
DA:1190,0
DA:1192,0
DA:1194,0
DA:1195,0
DA:1196,0
DA:1197,0
DA:1198,0
DA:1199,0
DA:1200,0
DA:1201,0
DA:1202,0
DA:1204,0
DA:1208,0
DA:1219,0
DA:1220,0
DA:1221,0
DA:1222,0
DA:1224,0
DA:1275,0
DA:1276,0
DA:1277,0
DA:1278,0
DA:1279,0
DA:1280,0
DA:1281,0
DA:1282,0
DA:1283,0
DA:1284,0
DA:1296,0
DA:1297,0
DA:1298,0
DA:1299,0
DA:1300,0
DA:1301,0
DA:1302,0
DA:1303,0
DA:1304,0
DA:1305,0
DA:1306,0
DA:1307,0
DA:1310,0
DA:1311,0
DA:1313,0
DA:1321,0
DA:1322,0
DA:1325,0
DA:1326,0
DA:1327,0
DA:1329,0
DA:1330,0
DA:1341,0
DA:1342,0
DA:1343,0
DA:1344,0
DA:1345,0
DA:1347,0
DA:1348,0
DA:1349,0
DA:1355,0
DA:1356,0
DA:1357,0
DA:1358,0
DA:1359,0
DA:1360,0
DA:1361,0
DA:1362,0
DA:1364,0
DA:1365,0
DA:1371,0
DA:1373,0
DA:1374,0
DA:1376,0
DA:1385,0
DA:1386,0
DA:1389,0
DA:1390,0
DA:1391,0
DA:1393,0
DA:1394,0
DA:1402,0
DA:1403,0
DA:1404,0
DA:1405,0
DA:1406,0
DA:1408,0
DA:1409,0
DA:1410,0
DA:1416,0
DA:1417,0
DA:1418,0
DA:1421,0
DA:1422,0
DA:1423,0
DA:1424,0
DA:1425,0
DA:1426,0
DA:1437,0
DA:1439,0
DA:1440,0
DA:1448,0
DA:1449,0
DA:1452,0
DA:1453,0
DA:1455,0
DA:1457,0
DA:1458,0
DA:1459,0
DA:1460,0
DA:1462,0
DA:1465,0
DA:1466,0
DA:1480,0
DA:1481,0
DA:1482,0
DA:1483,0
DA:1485,0
DA:1487,0
DA:1488,0
DA:1489,0
DA:1490,0
DA:1491,0
DA:1492,0
DA:1493,0
DA:1494,0
DA:1495,0
DA:1496,0
DA:1497,0
DA:1498,0
DA:1499,0
DA:1501,0
BRF:0
BRH:0
LF:578
LH:0
end_of_record
SF:/home/ubuntu/Code/ExpressGateway/crates/lb-quic/src/router.rs
FN:140,_RNCNvMNtCskwRMVHy5hME_7lb_quic6routerNtB4_12RouterHandle4join0Csehp0v1aTm1m_11grpc_h3_e2e
FN:140,_RNCNvMNtCskwRMVHy5hME_7lb_quic6routerNtB4_12RouterHandle4join0B6_
FN:140,_RNvMNtCskwRMVHy5hME_7lb_quic6routerNtB2_12RouterHandle4join
FN:295,_RNvNtCskwRMVHy5hME_7lb_quic6router10send_retry
FN:156,_RNvNtCskwRMVHy5hME_7lb_quic6router11router_main
FN:448,_RNvNtCskwRMVHy5hME_7lb_quic6router14sample_conn_id
FN:195,_RNvNtCskwRMVHy5hME_7lb_quic6router15dispatch_packet
FN:264,_RNvNtCskwRMVHy5hME_7lb_quic6router16build_replay_key
FN:273,_RNvNtCskwRMVHy5hME_7lb_quic6router16forward_to_actor
FN:331,_RNvNtCskwRMVHy5hME_7lb_quic6router20spawn_new_connection
FN:147,_RNvNtCskwRMVHy5hME_7lb_quic6router5spawn
FN:224,_RNCNCNvNtCskwRMVHy5hME_7lb_quic6router15dispatch_packet00B7_
FN:300,_RNCNvNtCskwRMVHy5hME_7lb_quic6router10send_retry0B5_
FN:156,_RNCNvNtCskwRMVHy5hME_7lb_quic6router11router_main0B5_
FN:454,_RNCNvNtCskwRMVHy5hME_7lb_quic6router14sample_conn_id0B5_
FN:201,_RNCNvNtCskwRMVHy5hME_7lb_quic6router15dispatch_packet0B5_
FN:365,_RNCNvNtCskwRMVHy5hME_7lb_quic6router20spawn_new_connection0B5_
FN:438,_RNCNvNtCskwRMVHy5hME_7lb_quic6router20spawn_new_connections0_0B5_
FN:376,_RNCNvNtCskwRMVHy5hME_7lb_quic6router20spawn_new_connections_0B5_
FN:148,_RNCNvNtCskwRMVHy5hME_7lb_quic6router5spawn0B5_
FNDA:16,_RNCNvMNtCskwRMVHy5hME_7lb_quic6routerNtB4_12RouterHandle4join0Csehp0v1aTm1m_11grpc_h3_e2e
FNDA:0,_RNCNvMNtCskwRMVHy5hME_7lb_quic6routerNtB4_12RouterHandle4join0B6_
FNDA:16,_RNvMNtCskwRMVHy5hME_7lb_quic6routerNtB2_12RouterHandle4join
FNDA:70,_RNvNtCskwRMVHy5hME_7lb_quic6router10send_retry
FNDA:16,_RNvNtCskwRMVHy5hME_7lb_quic6router11router_main
FNDA:140,_RNvNtCskwRMVHy5hME_7lb_quic6router14sample_conn_id
FNDA:10169,_RNvNtCskwRMVHy5hME_7lb_quic6router15dispatch_packet
FNDA:70,_RNvNtCskwRMVHy5hME_7lb_quic6router16build_replay_key
FNDA:10029,_RNvNtCskwRMVHy5hME_7lb_quic6router16forward_to_actor
FNDA:70,_RNvNtCskwRMVHy5hME_7lb_quic6router20spawn_new_connection
FNDA:16,_RNvNtCskwRMVHy5hME_7lb_quic6router5spawn
FNDA:140,_RNCNCNvNtCskwRMVHy5hME_7lb_quic6router15dispatch_packet00B7_
FNDA:70,_RNCNvNtCskwRMVHy5hME_7lb_quic6router10send_retry0B5_
FNDA:16,_RNCNvNtCskwRMVHy5hME_7lb_quic6router11router_main0B5_
FNDA:0,_RNCNvNtCskwRMVHy5hME_7lb_quic6router14sample_conn_id0B5_
FNDA:10169,_RNCNvNtCskwRMVHy5hME_7lb_quic6router15dispatch_packet0B5_
FNDA:0,_RNCNvNtCskwRMVHy5hME_7lb_quic6router20spawn_new_connection0B5_
FNDA:70,_RNCNvNtCskwRMVHy5hME_7lb_quic6router20spawn_new_connections0_0B5_
FNDA:0,_RNCNvNtCskwRMVHy5hME_7lb_quic6router20spawn_new_connections_0B5_
FNDA:16,_RNCNvNtCskwRMVHy5hME_7lb_quic6router5spawn0B5_
FNF:19
FNH:16
DA:140,16
DA:141,16
DA:142,0
DA:147,16
DA:148,16
DA:149,16
DA:150,0
DA:151,0
DA:152,16
DA:153,16
DA:154,16
DA:156,16
DA:157,16
DA:159,16
DA:160,16
DA:161,16
DA:162,16
DA:165,10185
DA:167,10185
DA:168,0
DA:169,0
DA:171,10185
DA:172,10169
DA:173,10169
DA:174,0
DA:175,0
DA:176,0
DA:179,10169
DA:180,10169
DA:181,10169
DA:182,10169
DA:183,10169
DA:184,10169
DA:185,10169
DA:186,10169
DA:188,0
DA:189,10169
DA:193,0
DA:195,10169
DA:196,10169
DA:197,10169
DA:198,10169
DA:199,10169
DA:200,10169
DA:201,10169
DA:205,10169
DA:206,10169
DA:207,0
DA:209,10169
DA:212,10169
DA:213,10029
DA:214,10029
DA:215,140
DA:216,140
DA:217,140
DA:218,140
DA:219,140
DA:220,140
DA:221,0
DA:222,140
DA:223,140
DA:224,140
DA:225,140
DA:226,70
DA:227,70
DA:228,70
DA:230,70
DA:231,70
DA:232,0
DA:233,0
DA:234,0
DA:241,70
DA:242,70
DA:243,70
DA:244,0
DA:245,0
DA:246,70
DA:247,70
DA:248,70
DA:249,70
DA:250,70
DA:251,70
DA:252,70
DA:253,70
DA:254,70
DA:255,70
DA:256,10169
DA:264,70
DA:265,70
DA:266,70
DA:267,70
DA:268,70
DA:269,70
DA:270,70
DA:273,10029
DA:274,10029
DA:275,10029
DA:276,10029
DA:277,10029
DA:278,10029
DA:279,10029
DA:280,10029
DA:281,10029
DA:282,10029
DA:283,9162
DA:285,867
DA:287,0
DA:288,0
DA:289,0
DA:291,10029
DA:295,70
DA:296,70
DA:297,70
DA:298,70
DA:299,70
DA:300,70
DA:301,70
DA:302,70
DA:303,70
DA:304,70
DA:305,70
DA:306,70
DA:307,70
DA:308,70
DA:309,70
DA:310,70
DA:311,70
DA:312,70
DA:313,70
DA:314,70
DA:315,70
DA:316,70
DA:317,70
DA:318,70
DA:319,70
DA:320,70
DA:321,70
DA:322,0
DA:324,70
DA:325,70
DA:326,0
DA:327,70
DA:328,70
DA:329,70
DA:331,70
DA:332,70
DA:333,70
DA:334,70
DA:335,70
DA:336,70
DA:337,70
DA:338,70
DA:339,70
DA:340,70
DA:341,70
DA:342,70
DA:343,70
DA:344,70
DA:345,70
DA:346,0
DA:347,0
DA:348,0
DA:349,0
DA:350,0
DA:351,0
DA:353,0
DA:354,70
DA:355,70
DA:356,70
DA:357,70
DA:358,70
DA:359,70
DA:360,70
DA:361,70
DA:362,70
DA:363,70
DA:365,70
DA:366,70
DA:367,70
DA:368,70
DA:369,70
DA:370,70
DA:371,70
DA:372,70
DA:373,70
DA:374,70
DA:375,70
DA:376,70
DA:378,70
DA:379,70
DA:380,70
DA:381,70
DA:382,70
DA:383,70
DA:384,70
DA:385,70
DA:386,70
DA:387,70
DA:388,70
DA:389,70
DA:390,70
DA:391,70
DA:392,70
DA:393,70
DA:394,70
DA:395,70
DA:396,70
DA:397,70
DA:398,70
DA:399,70
DA:400,70
DA:401,70
DA:402,70
DA:403,70
DA:404,70
DA:405,70
DA:406,70
DA:407,70
DA:408,70
DA:409,70
DA:410,70
DA:411,70
DA:412,70
DA:413,70
DA:414,70
DA:415,70
DA:416,70
DA:417,70
DA:418,70
DA:419,70
DA:420,70
DA:421,70
DA:422,70
DA:423,70
DA:424,70
DA:425,70
DA:426,70
DA:427,70
DA:428,70
DA:429,70
DA:430,70
DA:431,70
DA:432,70
DA:433,70
DA:434,70
DA:435,70
DA:436,70
DA:437,70
DA:438,70
DA:439,70
DA:440,70
DA:441,70
DA:442,70
DA:444,70
DA:445,70
DA:446,70
DA:448,140
DA:450,140
DA:451,140
DA:452,0
DA:453,0
DA:454,0
DA:455,0
DA:456,0
DA:457,0
DA:458,0
DA:459,0
DA:460,0
DA:461,0
DA:462,0
DA:463,0
DA:464,0
DA:466,140
DA:467,140
DA:468,140
BRF:0
BRH:0
LF:287
LH:240
end_of_record
SF:/home/ubuntu/Code/ExpressGateway/crates/lb-quic/src/terminate_loopback.rs
FN:407,_RINvNtCskwRMVHy5hME_7lb_quic18terminate_loopback5driveppEB4_
FN:415,_RNCINvNtCskwRMVHy5hME_7lb_quic18terminate_loopback5driveppE0B6_
FN:443,_RNCNCINvNtCskwRMVHy5hME_7lb_quic18terminate_loopback5driveppE00B8_
FN:704,_RNCNCNvNtCskwRMVHy5hME_7lb_quic18terminate_loopback16roundtrip_stream00B7_
FN:719,_RNCNCNvNtCskwRMVHy5hME_7lb_quic18terminate_loopback16roundtrip_stream0s_0B7_
FN:479,_RNCNCNvNtCskwRMVHy5hME_7lb_quic18terminate_loopback17server_accept_one00B7_
FN:628,_RNCNCNvNtCskwRMVHy5hME_7lb_quic18terminate_loopback18roundtrip_datagram00B7_
FN:643,_RNCNCNvNtCskwRMVHy5hME_7lb_quic18terminate_loopback18roundtrip_datagram0s_0B7_
FN:553,_RNCNCNvNtCskwRMVHy5hME_7lb_quic18terminate_loopback18server_stream_task00B7_
FN:526,_RNCNCNvNtCskwRMVHy5hME_7lb_quic18terminate_loopback20server_datagram_task00B7_
FN:213,_RNCNvMs_NtCskwRMVHy5hME_7lb_quic18terminate_loopbackNtB6_12QuicEndpoint18client_on_loopback0B8_
FN:190,_RNCNvMs_NtCskwRMVHy5hME_7lb_quic18terminate_loopbackNtB6_12QuicEndpoint18server_on_loopback0B8_
FN:509,_RNCNvNtCskwRMVHy5hME_7lb_quic18terminate_loopback14graceful_close0B5_
FN:669,_RNCNvNtCskwRMVHy5hME_7lb_quic18terminate_loopback16roundtrip_stream0B5_
FN:471,_RNCNvNtCskwRMVHy5hME_7lb_quic18terminate_loopback17server_accept_one0B5_
FN:597,_RNCNvNtCskwRMVHy5hME_7lb_quic18terminate_loopback18roundtrip_datagram0B5_
FN:551,_RNCNvNtCskwRMVHy5hME_7lb_quic18terminate_loopback18server_stream_task0B5_
FN:524,_RNCNvNtCskwRMVHy5hME_7lb_quic18terminate_loopback20server_datagram_task0B5_
FN:388,_RNCNvNtCskwRMVHy5hME_7lb_quic18terminate_loopback21flush_out_best_effort0B5_
FN:366,_RNCNvNtCskwRMVHy5hME_7lb_quic18terminate_loopback9flush_out0B5_
FN:346,_RNCNvNtCskwRMVHy5hME_7lb_quic18terminate_loopback11random_scid0B5_
FN:312,_RNCNvNtCskwRMVHy5hME_7lb_quic18terminate_loopback12build_config0B5_
FN:326,_RNCNvNtCskwRMVHy5hME_7lb_quic18terminate_loopback12build_configs0_0B5_
FN:315,_RNCNvNtCskwRMVHy5hME_7lb_quic18terminate_loopback12build_configs_0B5_
FN:228,_RNvMs_NtCskwRMVHy5hME_7lb_quic18terminate_loopbackNtB4_12QuicEndpoint10local_addr
FN:265,_RNvMs_NtCskwRMVHy5hME_7lb_quic18terminate_loopbackNtB4_12QuicEndpoint12retry_signer
FN:272,_RNvMs_NtCskwRMVHy5hME_7lb_quic18terminate_loopbackNtB4_12QuicEndpoint13replay_filter
FN:243,_RNvMs_NtCskwRMVHy5hME_7lb_quic18terminate_loopbackNtB4_12QuicEndpoint17with_retry_signer
FN:213,_RNvMs_NtCskwRMVHy5hME_7lb_quic18terminate_loopbackNtB4_12QuicEndpoint18client_on_loopback
FN:187,_RNvMs_NtCskwRMVHy5hME_7lb_quic18terminate_loopbackNtB4_12QuicEndpoint18server_on_loopback
FN:257,_RNvMs_NtCskwRMVHy5hME_7lb_quic18terminate_loopbackNtB4_12QuicEndpoint18with_replay_filter
FN:342,_RNvNtCskwRMVHy5hME_7lb_quic18terminate_loopback11random_scid
FN:291,_RNvNtCskwRMVHy5hME_7lb_quic18terminate_loopback12build_config
FN:129,_RNvNtCskwRMVHy5hME_7lb_quic18terminate_loopback14forward_stream
FN:509,_RNvNtCskwRMVHy5hME_7lb_quic18terminate_loopback14graceful_close
FN:116,_RNvNtCskwRMVHy5hME_7lb_quic18terminate_loopback16forward_datagram
FN:665,_RNvNtCskwRMVHy5hME_7lb_quic18terminate_loopback16roundtrip_stream
FN:467,_RNvNtCskwRMVHy5hME_7lb_quic18terminate_loopback17server_accept_one
FN:593,_RNvNtCskwRMVHy5hME_7lb_quic18terminate_loopback18roundtrip_datagram
FN:547,_RNvNtCskwRMVHy5hME_7lb_quic18terminate_loopback18server_stream_task
FN:520,_RNvNtCskwRMVHy5hME_7lb_quic18terminate_loopback20server_datagram_task
FN:384,_RNvNtCskwRMVHy5hME_7lb_quic18terminate_loopback21flush_out_best_effort
FN:41,_RNvNtCskwRMVHy5hME_7lb_quic18terminate_loopback6prefix
FN:362,_RNvNtCskwRMVHy5hME_7lb_quic18terminate_loopback9flush_out
FN:166,_RNvXNtCskwRMVHy5hME_7lb_quic18terminate_loopbackNtB2_12QuicEndpointNtNtCs2va5m0jqTTM_4core3fmt5Debug3fmt
FNDA:0,_RINvNtCskwRMVHy5hME_7lb_quic18terminate_loopback5driveppEB4_
FNDA:0,_RNCINvNtCskwRMVHy5hME_7lb_quic18terminate_loopback5driveppE0B6_
FNDA:0,_RNCNCINvNtCskwRMVHy5hME_7lb_quic18terminate_loopback5driveppE00B8_
FNDA:0,_RNCNCNvNtCskwRMVHy5hME_7lb_quic18terminate_loopback16roundtrip_stream00B7_
FNDA:0,_RNCNCNvNtCskwRMVHy5hME_7lb_quic18terminate_loopback16roundtrip_stream0s_0B7_
FNDA:0,_RNCNCNvNtCskwRMVHy5hME_7lb_quic18terminate_loopback17server_accept_one00B7_
FNDA:0,_RNCNCNvNtCskwRMVHy5hME_7lb_quic18terminate_loopback18roundtrip_datagram00B7_
FNDA:0,_RNCNCNvNtCskwRMVHy5hME_7lb_quic18terminate_loopback18roundtrip_datagram0s_0B7_
FNDA:0,_RNCNCNvNtCskwRMVHy5hME_7lb_quic18terminate_loopback18server_stream_task00B7_
FNDA:0,_RNCNCNvNtCskwRMVHy5hME_7lb_quic18terminate_loopback20server_datagram_task00B7_
FNDA:0,_RNCNvMs_NtCskwRMVHy5hME_7lb_quic18terminate_loopbackNtB6_12QuicEndpoint18client_on_loopback0B8_
FNDA:0,_RNCNvMs_NtCskwRMVHy5hME_7lb_quic18terminate_loopbackNtB6_12QuicEndpoint18server_on_loopback0B8_
FNDA:0,_RNCNvNtCskwRMVHy5hME_7lb_quic18terminate_loopback14graceful_close0B5_
FNDA:0,_RNCNvNtCskwRMVHy5hME_7lb_quic18terminate_loopback16roundtrip_stream0B5_
FNDA:0,_RNCNvNtCskwRMVHy5hME_7lb_quic18terminate_loopback17server_accept_one0B5_
FNDA:0,_RNCNvNtCskwRMVHy5hME_7lb_quic18terminate_loopback18roundtrip_datagram0B5_
FNDA:0,_RNCNvNtCskwRMVHy5hME_7lb_quic18terminate_loopback18server_stream_task0B5_
FNDA:0,_RNCNvNtCskwRMVHy5hME_7lb_quic18terminate_loopback20server_datagram_task0B5_
FNDA:0,_RNCNvNtCskwRMVHy5hME_7lb_quic18terminate_loopback21flush_out_best_effort0B5_
FNDA:0,_RNCNvNtCskwRMVHy5hME_7lb_quic18terminate_loopback9flush_out0B5_
FNDA:0,_RNCNvNtCskwRMVHy5hME_7lb_quic18terminate_loopback11random_scid0B5_
FNDA:0,_RNCNvNtCskwRMVHy5hME_7lb_quic18terminate_loopback12build_config0B5_
FNDA:0,_RNCNvNtCskwRMVHy5hME_7lb_quic18terminate_loopback12build_configs0_0B5_
FNDA:0,_RNCNvNtCskwRMVHy5hME_7lb_quic18terminate_loopback12build_configs_0B5_
FNDA:0,_RNvMs_NtCskwRMVHy5hME_7lb_quic18terminate_loopbackNtB4_12QuicEndpoint10local_addr
FNDA:0,_RNvMs_NtCskwRMVHy5hME_7lb_quic18terminate_loopbackNtB4_12QuicEndpoint12retry_signer
FNDA:0,_RNvMs_NtCskwRMVHy5hME_7lb_quic18terminate_loopbackNtB4_12QuicEndpoint13replay_filter
FNDA:0,_RNvMs_NtCskwRMVHy5hME_7lb_quic18terminate_loopbackNtB4_12QuicEndpoint17with_retry_signer
FNDA:0,_RNvMs_NtCskwRMVHy5hME_7lb_quic18terminate_loopbackNtB4_12QuicEndpoint18client_on_loopback
FNDA:0,_RNvMs_NtCskwRMVHy5hME_7lb_quic18terminate_loopbackNtB4_12QuicEndpoint18server_on_loopback
FNDA:0,_RNvMs_NtCskwRMVHy5hME_7lb_quic18terminate_loopbackNtB4_12QuicEndpoint18with_replay_filter
FNDA:0,_RNvNtCskwRMVHy5hME_7lb_quic18terminate_loopback11random_scid
FNDA:0,_RNvNtCskwRMVHy5hME_7lb_quic18terminate_loopback12build_config
FNDA:0,_RNvNtCskwRMVHy5hME_7lb_quic18terminate_loopback14forward_stream
FNDA:0,_RNvNtCskwRMVHy5hME_7lb_quic18terminate_loopback14graceful_close
FNDA:0,_RNvNtCskwRMVHy5hME_7lb_quic18terminate_loopback16forward_datagram
FNDA:0,_RNvNtCskwRMVHy5hME_7lb_quic18terminate_loopback16roundtrip_stream
FNDA:0,_RNvNtCskwRMVHy5hME_7lb_quic18terminate_loopback17server_accept_one
FNDA:0,_RNvNtCskwRMVHy5hME_7lb_quic18terminate_loopback18roundtrip_datagram
FNDA:0,_RNvNtCskwRMVHy5hME_7lb_quic18terminate_loopback18server_stream_task
FNDA:0,_RNvNtCskwRMVHy5hME_7lb_quic18terminate_loopback20server_datagram_task
FNDA:0,_RNvNtCskwRMVHy5hME_7lb_quic18terminate_loopback21flush_out_best_effort
FNDA:0,_RNvNtCskwRMVHy5hME_7lb_quic18terminate_loopback6prefix
FNDA:0,_RNvNtCskwRMVHy5hME_7lb_quic18terminate_loopback9flush_out
FNDA:0,_RNvXNtCskwRMVHy5hME_7lb_quic18terminate_loopbackNtB2_12QuicEndpointNtNtCs2va5m0jqTTM_4core3fmt5Debug3fmt
FNF:45
FNH:0
DA:41,0
DA:42,0
DA:43,0
DA:116,0
DA:117,0
DA:118,0
DA:119,0
DA:120,0
DA:121,0
DA:129,0
DA:130,0
DA:131,0
DA:132,0
DA:133,0
DA:134,0
DA:166,0
DA:167,0
DA:168,0
DA:169,0
DA:171,0
DA:172,0
DA:173,0
DA:174,0
DA:175,0
DA:187,0
DA:188,0
DA:189,0
DA:190,0
DA:191,0
DA:192,0
DA:193,0
DA:194,0
DA:195,0
DA:196,0
DA:197,0
DA:198,0
DA:199,0
DA:200,0
DA:201,0
DA:202,0
DA:203,0
DA:204,0
DA:213,0
DA:214,0
DA:215,0
DA:216,0
DA:217,0
DA:218,0
DA:219,0
DA:220,0
DA:221,0
DA:222,0
DA:223,0
DA:224,0
DA:228,0
DA:229,0
DA:230,0
DA:243,0
DA:244,0
DA:245,0
DA:246,0
DA:257,0
DA:258,0
DA:259,0
DA:260,0
DA:265,0
DA:266,0
DA:267,0
DA:272,0
DA:273,0
DA:274,0
DA:291,0
DA:292,0
DA:293,0
DA:294,0
DA:295,0
DA:296,0
DA:297,0
DA:298,0
DA:299,0
DA:300,0
DA:301,0
DA:302,0
DA:303,0
DA:304,0
DA:305,0
DA:307,0
DA:308,0
DA:310,0
DA:311,0
DA:312,0
DA:313,0
DA:314,0
DA:315,0
DA:316,0
DA:317,0
DA:323,0
DA:324,0
DA:325,0
DA:326,0
DA:327,0
DA:333,0
DA:336,0
DA:337,0
DA:342,0
DA:343,0
DA:344,0
DA:345,0
DA:346,0
DA:347,0
DA:348,0
DA:349,0
DA:350,0
DA:351,0
DA:352,0
DA:353,0
DA:354,0
DA:355,0
DA:356,0
DA:357,0
DA:358,0
DA:359,0
DA:362,0
DA:363,0
DA:364,0
DA:365,0
DA:366,0
DA:368,0
DA:369,0
DA:370,0
DA:372,0
DA:373,0
DA:374,0
DA:376,0
DA:377,0
DA:380,0
DA:384,0
DA:385,0
DA:386,0
DA:387,0
DA:388,0
DA:390,0
DA:391,0
DA:392,0
DA:393,0
DA:394,0
DA:395,0
DA:396,0
DA:398,0
DA:399,0
DA:400,0
DA:401,0
DA:407,0
DA:408,0
DA:409,0
DA:410,0
DA:411,0
DA:412,0
DA:413,0
DA:414,0
DA:415,0
DA:416,0
DA:417,0
DA:418,0
DA:421,0
DA:422,0
DA:423,0
DA:424,0
DA:427,0
DA:428,0
DA:429,0
DA:430,0
DA:431,0
DA:432,0
DA:433,0
DA:434,0
DA:435,0
DA:438,0
DA:439,0
DA:440,0
DA:441,0
DA:442,0
DA:443,0
DA:444,0
DA:445,0
DA:446,0
DA:447,0
DA:448,0
DA:449,0
DA:450,0
DA:451,0
DA:452,0
DA:453,0
DA:456,0
DA:457,0
DA:458,0
DA:462,0
DA:467,0
DA:468,0
DA:469,0
DA:470,0
DA:471,0
DA:472,0
DA:473,0
DA:474,0
DA:475,0
DA:476,0
DA:477,0
DA:478,0
DA:479,0
DA:481,0
DA:482,0
DA:483,0
DA:484,0
DA:485,0
DA:486,0
DA:487,0
DA:488,0
DA:489,0
DA:490,0
DA:491,0
DA:495,0
DA:496,0
DA:497,0
DA:499,0
DA:500,0
DA:504,0
DA:505,0
DA:509,0
DA:511,0
DA:512,0
DA:513,0
DA:514,0
DA:515,0
DA:516,0
DA:520,0
DA:521,0
DA:522,0
DA:523,0
DA:524,0
DA:525,0
DA:526,0
DA:527,0
DA:528,0
DA:529,0
DA:530,0
DA:531,0
DA:532,0
DA:533,0
DA:534,0
DA:536,0
DA:537,0
DA:539,0
DA:540,0
DA:541,0
DA:542,0
DA:543,0
DA:547,0
DA:548,0
DA:549,0
DA:550,0
DA:551,0
DA:552,0
DA:553,0
DA:554,0
DA:555,0
DA:556,0
DA:557,0
DA:558,0
DA:560,0
DA:561,0
DA:563,0
DA:564,0
DA:565,0
DA:566,0
DA:567,0
DA:568,0
DA:569,0
DA:571,0
DA:572,0
DA:575,0
DA:576,0
DA:577,0
DA:578,0
DA:579,0
DA:593,0
DA:594,0
DA:595,0
DA:596,0
DA:597,0
DA:598,0
DA:599,0
DA:600,0
DA:602,0
DA:603,0
DA:605,0
DA:606,0
DA:607,0
DA:608,0
DA:609,0
DA:610,0
DA:611,0
DA:612,0
DA:613,0
DA:614,0
DA:615,0
DA:616,0
DA:617,0
DA:618,0
DA:619,0
DA:620,0
DA:621,0
DA:622,0
DA:623,0
DA:624,0
DA:625,0
DA:626,0
DA:627,0
DA:628,0
DA:629,0
DA:630,0
DA:631,0
DA:632,0
DA:633,0
DA:634,0
DA:635,0
DA:636,0
DA:637,0
DA:638,0
DA:639,0
DA:641,0
DA:642,0
DA:643,0
DA:644,0
DA:646,0
DA:647,0
DA:648,0
DA:649,0
DA:650,0
DA:665,0
DA:666,0
DA:667,0
DA:668,0
DA:669,0
DA:670,0
DA:671,0
DA:672,0
DA:674,0
DA:675,0
DA:677,0
DA:678,0
DA:679,0
DA:680,0
DA:681,0
DA:682,0
DA:683,0
DA:684,0
DA:685,0
DA:686,0
DA:687,0
DA:688,0
DA:689,0
DA:690,0
DA:691,0
DA:692,0
DA:693,0
DA:694,0
DA:695,0
DA:696,0
DA:697,0
DA:698,0
DA:699,0
DA:700,0
DA:701,0
DA:702,0
DA:703,0
DA:704,0
DA:705,0
DA:706,0
DA:707,0
DA:708,0
DA:709,0
DA:710,0
DA:711,0
DA:712,0
DA:713,0
DA:714,0
DA:715,0
DA:717,0
DA:718,0
DA:719,0
DA:720,0
DA:722,0
DA:723,0
DA:724,0
DA:725,0
DA:726,0
DA:727,0
BRF:0
BRH:0
LF:425
LH:0
end_of_record
SF:/home/ubuntu/Code/ExpressGateway/crates/lb-quic/src/udp_dataplane.rs
FN:211,_RNCNvMNtCskwRMVHy5hME_7lb_quic13udp_dataplaneNtB4_8TokioUdp4bind0B6_
FN:164,_RNCNvNtCskwRMVHy5hME_7lb_quic13udp_dataplane16select_dataplane0B5_
FN:129,_RNvYpNtNtCskwRMVHy5hME_7lb_quic13udp_dataplane12UdpDataplane11dcid_map_fdB7_
FN:198,_RNvMNtCskwRMVHy5hME_7lb_quic13udp_dataplaneNtB2_8TokioUdp3new
FN:211,_RNvMNtCskwRMVHy5hME_7lb_quic13udp_dataplaneNtB2_8TokioUdp4bind
FN:219,_RNvMNtCskwRMVHy5hME_7lb_quic13udp_dataplaneNtB2_8TokioUdp6socket
FN:161,_RNvNtCskwRMVHy5hME_7lb_quic13udp_dataplane16select_dataplane
FN:225,_RNvXs_NtCskwRMVHy5hME_7lb_quic13udp_dataplaneNtB4_8TokioUdpNtB4_12UdpDataplane10local_addr
FN:261,_RNvXs_NtCskwRMVHy5hME_7lb_quic13udp_dataplaneNtB4_8TokioUdpNtB4_12UdpDataplane7send_to
FN:229,_RNvXs_NtCskwRMVHy5hME_7lb_quic13udp_dataplaneNtB4_8TokioUdpNtB4_12UdpDataplane9recv_loop
FN:274,_RNvXs_NtCskwRMVHy5hME_7lb_quic13udp_dataplaneNtB4_8TokioUdpNtB4_12UdpDataplane9tier_name
FN:266,_RNCNvXs_NtCskwRMVHy5hME_7lb_quic13udp_dataplaneNtB6_8TokioUdpNtB6_12UdpDataplane7send_to0B8_
FN:234,_RNCNvXs_NtCskwRMVHy5hME_7lb_quic13udp_dataplaneNtB6_8TokioUdpNtB6_12UdpDataplane9recv_loop0B8_
FNDA:0,_RNCNvMNtCskwRMVHy5hME_7lb_quic13udp_dataplaneNtB4_8TokioUdp4bind0B6_
FNDA:0,_RNCNvNtCskwRMVHy5hME_7lb_quic13udp_dataplane16select_dataplane0B5_
FNDA:0,_RNvYpNtNtCskwRMVHy5hME_7lb_quic13udp_dataplane12UdpDataplane11dcid_map_fdB7_
FNDA:0,_RNvMNtCskwRMVHy5hME_7lb_quic13udp_dataplaneNtB2_8TokioUdp3new
FNDA:0,_RNvMNtCskwRMVHy5hME_7lb_quic13udp_dataplaneNtB2_8TokioUdp4bind
FNDA:0,_RNvMNtCskwRMVHy5hME_7lb_quic13udp_dataplaneNtB2_8TokioUdp6socket
FNDA:0,_RNvNtCskwRMVHy5hME_7lb_quic13udp_dataplane16select_dataplane
FNDA:0,_RNvXs_NtCskwRMVHy5hME_7lb_quic13udp_dataplaneNtB4_8TokioUdpNtB4_12UdpDataplane10local_addr
FNDA:0,_RNvXs_NtCskwRMVHy5hME_7lb_quic13udp_dataplaneNtB4_8TokioUdpNtB4_12UdpDataplane7send_to
FNDA:0,_RNvXs_NtCskwRMVHy5hME_7lb_quic13udp_dataplaneNtB4_8TokioUdpNtB4_12UdpDataplane9recv_loop
FNDA:0,_RNvXs_NtCskwRMVHy5hME_7lb_quic13udp_dataplaneNtB4_8TokioUdpNtB4_12UdpDataplane9tier_name
FNDA:0,_RNCNvXs_NtCskwRMVHy5hME_7lb_quic13udp_dataplaneNtB6_8TokioUdpNtB6_12UdpDataplane7send_to0B8_
FNDA:0,_RNCNvXs_NtCskwRMVHy5hME_7lb_quic13udp_dataplaneNtB6_8TokioUdpNtB6_12UdpDataplane9recv_loop0B8_
FNF:13
FNH:0
DA:129,0
DA:130,0
DA:131,0
DA:161,0
DA:162,0
DA:163,0
DA:164,0
DA:165,0
DA:167,0
DA:168,0
DA:169,0
DA:171,0
DA:172,0
DA:173,0
DA:174,0
DA:175,0
DA:176,0
DA:178,0
DA:198,0
DA:199,0
DA:200,0
DA:201,0
DA:202,0
DA:203,0
DA:204,0
DA:211,0
DA:212,0
DA:213,0
DA:214,0
DA:219,0
DA:220,0
DA:221,0
DA:225,0
DA:226,0
DA:227,0
DA:229,0
DA:230,0
DA:231,0
DA:232,0
DA:233,0
DA:234,0
DA:235,0
DA:236,0
DA:238,0
DA:240,0
DA:241,0
DA:242,0
DA:243,0
DA:244,0
DA:245,0
DA:246,0
DA:248,0
DA:249,0
DA:250,0
DA:251,0
DA:252,0
DA:258,0
DA:259,0
DA:261,0
DA:262,0
DA:263,0
DA:264,0
DA:265,0
DA:266,0
DA:267,0
DA:268,0
DA:269,0
DA:270,0
DA:271,0
DA:272,0
DA:274,0
DA:275,0
DA:276,0
BRF:0
BRH:0
LF:79
LH:0
end_of_record
SF:/home/ubuntu/Code/ExpressGateway/crates/lb-quic/src/ws_tunnel.rs
FN:241,_RNvMs_NtCskwRMVHy5hME_7lb_quic9ws_tunnelNtB4_10H3WsTunnel14drain_leftover
FN:220,_RNvMs_NtCskwRMVHy5hME_7lb_quic9ws_tunnelNtB4_10H3WsTunnel3new
FN:205,_RNvXNtCskwRMVHy5hME_7lb_quic9ws_tunnelNtB2_10H3WsTunnelNtNtCs2va5m0jqTTM_4core3fmt5Debug3fmt
FN:256,_RNvXs0_NtCskwRMVHy5hME_7lb_quic9ws_tunnelNtB5_10H3WsTunnelNtNtCs2va5m0jqTTM_4core7default7Default7default
FN:262,_RNvXs1_NtCskwRMVHy5hME_7lb_quic9ws_tunnelNtB5_10H3WsTunnelNtNtNtCsfWKKmeeA0Vo_5tokio2io10async_read9AsyncRead9poll_read
FN:359,_RNvXs2_NtCskwRMVHy5hME_7lb_quic9ws_tunnelNtB5_10H3WsTunnelNtNtNtCsfWKKmeeA0Vo_5tokio2io11async_write10AsyncWrite10poll_flush
FN:313,_RNvXs2_NtCskwRMVHy5hME_7lb_quic9ws_tunnelNtB5_10H3WsTunnelNtNtNtCsfWKKmeeA0Vo_5tokio2io11async_write10AsyncWrite10poll_write
FN:365,_RNvXs2_NtCskwRMVHy5hME_7lb_quic9ws_tunnelNtB5_10H3WsTunnelNtNtNtCsfWKKmeeA0Vo_5tokio2io11async_write10AsyncWrite13poll_shutdown
FNDA:0,_RNvMs_NtCskwRMVHy5hME_7lb_quic9ws_tunnelNtB4_10H3WsTunnel14drain_leftover
FNDA:0,_RNvMs_NtCskwRMVHy5hME_7lb_quic9ws_tunnelNtB4_10H3WsTunnel3new
FNDA:0,_RNvXNtCskwRMVHy5hME_7lb_quic9ws_tunnelNtB2_10H3WsTunnelNtNtCs2va5m0jqTTM_4core3fmt5Debug3fmt
FNDA:0,_RNvXs0_NtCskwRMVHy5hME_7lb_quic9ws_tunnelNtB5_10H3WsTunnelNtNtCs2va5m0jqTTM_4core7default7Default7default
FNDA:0,_RNvXs1_NtCskwRMVHy5hME_7lb_quic9ws_tunnelNtB5_10H3WsTunnelNtNtNtCsfWKKmeeA0Vo_5tokio2io10async_read9AsyncRead9poll_read
FNDA:0,_RNvXs2_NtCskwRMVHy5hME_7lb_quic9ws_tunnelNtB5_10H3WsTunnelNtNtNtCsfWKKmeeA0Vo_5tokio2io11async_write10AsyncWrite10poll_flush
FNDA:0,_RNvXs2_NtCskwRMVHy5hME_7lb_quic9ws_tunnelNtB5_10H3WsTunnelNtNtNtCsfWKKmeeA0Vo_5tokio2io11async_write10AsyncWrite10poll_write
FNDA:0,_RNvXs2_NtCskwRMVHy5hME_7lb_quic9ws_tunnelNtB5_10H3WsTunnelNtNtNtCsfWKKmeeA0Vo_5tokio2io11async_write10AsyncWrite13poll_shutdown
FNF:8
FNH:0
DA:205,0
DA:206,0
DA:207,0
DA:208,0
DA:209,0
DA:210,0
DA:211,0
DA:220,0
DA:221,0
DA:222,0
DA:223,0
DA:224,0
DA:225,0
DA:226,0
DA:227,0
DA:228,0
DA:229,0
DA:230,0
DA:231,0
DA:232,0
DA:233,0
DA:234,0
DA:235,0
DA:236,0
DA:237,0
DA:241,0
DA:242,0
DA:243,0
DA:244,0
DA:245,0
DA:246,0
DA:247,0
DA:248,0
DA:249,0
DA:250,0
DA:251,0
DA:252,0
DA:256,0
DA:257,0
DA:258,0
DA:262,0
DA:263,0
DA:264,0
DA:265,0
DA:266,0
DA:267,0
DA:268,0
DA:269,0
DA:270,0
DA:271,0
DA:272,0
DA:273,0
DA:274,0
DA:275,0
DA:276,0
DA:277,0
DA:278,0
DA:279,0
DA:280,0
DA:281,0
DA:282,0
DA:283,0
DA:284,0
DA:285,0
DA:286,0
DA:291,0
DA:292,0
DA:296,0
DA:297,0
DA:298,0
DA:299,0
DA:300,0
DA:304,0
DA:305,0
DA:307,0
DA:309,0
DA:313,0
DA:314,0
DA:315,0
DA:316,0
DA:317,0
DA:318,0
DA:319,0
DA:320,0
DA:321,0
DA:322,0
DA:323,0
DA:324,0
DA:325,0
DA:326,0
DA:327,0
DA:328,0
DA:329,0
DA:330,0
DA:331,0
DA:333,0
DA:334,0
DA:335,0
DA:336,0
DA:340,0
DA:341,0
DA:342,0
DA:343,0
DA:344,0
DA:349,0
DA:350,0
DA:351,0
DA:352,0
DA:353,0
DA:355,0
DA:357,0
DA:359,0
DA:360,0
DA:361,0
DA:362,0
DA:363,0
DA:365,0
DA:366,0
DA:367,0
DA:368,0
DA:369,0
DA:370,0
DA:371,0
BRF:0
BRH:0
LF:123
LH:0
end_of_record