SF:/home/ubuntu/Code/ExpressGateway/crates/lb-h3/src/frame.rs
FN:98,_RNCNvNtCs9vbOsrtJ9jD_5lb_h35frame12decode_frame0B5_
FN:84,_RNvNtCs9vbOsrtJ9jD_5lb_h35frame12decode_frame
FN:159,_RNvNtCs9vbOsrtJ9jD_5lb_h35frame12encode_frame
FN:98,_RNCNvNtCs29y4OA8UEZi_5lb_h35frame12decode_frame0B5_
FN:84,_RNvNtCs29y4OA8UEZi_5lb_h35frame12decode_frame
FN:159,_RNvNtCs29y4OA8UEZi_5lb_h35frame12encode_frame
FN:275,_RNvNtNtCs29y4OA8UEZi_5lb_h35frame5testss_16incomplete_input
FN:233,_RNvNtNtCs29y4OA8UEZi_5lb_h35frame5testss_20data_frame_roundtrip
FN:266,_RNvNtNtCs29y4OA8UEZi_5lb_h35frame5testss_22goaway_frame_roundtrip
FN:244,_RNvNtNtCs29y4OA8UEZi_5lb_h35frame5testss_23headers_frame_roundtrip
FN:287,_RNvNtNtCs29y4OA8UEZi_5lb_h35frame5testss_24frame_too_large_rejected
FN:255,_RNvNtNtCs29y4OA8UEZi_5lb_h35frame5testss_24settings_frame_roundtrip
FN:310,_RNvNtNtCs29y4OA8UEZi_5lb_h35frame5testss_26unknown_frame_type_ignored
FNDA:0,_RNCNvNtCs9vbOsrtJ9jD_5lb_h35frame12decode_frame0B5_
FNDA:301161,_RNvNtCs9vbOsrtJ9jD_5lb_h35frame12decode_frame
FNDA:63181,_RNvNtCs9vbOsrtJ9jD_5lb_h35frame12encode_frame
FNDA:0,_RNCNvNtCs29y4OA8UEZi_5lb_h35frame12decode_frame0B5_
FNDA:9,_RNvNtCs29y4OA8UEZi_5lb_h35frame12decode_frame
FNDA:4,_RNvNtCs29y4OA8UEZi_5lb_h35frame12encode_frame
FNDA:1,_RNvNtNtCs29y4OA8UEZi_5lb_h35frame5testss_16incomplete_input
FNDA:1,_RNvNtNtCs29y4OA8UEZi_5lb_h35frame5testss_20data_frame_roundtrip
FNDA:1,_RNvNtNtCs29y4OA8UEZi_5lb_h35frame5testss_22goaway_frame_roundtrip
FNDA:1,_RNvNtNtCs29y4OA8UEZi_5lb_h35frame5testss_23headers_frame_roundtrip
FNDA:1,_RNvNtNtCs29y4OA8UEZi_5lb_h35frame5testss_24frame_too_large_rejected
FNDA:1,_RNvNtNtCs29y4OA8UEZi_5lb_h35frame5testss_24settings_frame_roundtrip
FNDA:1,_RNvNtNtCs29y4OA8UEZi_5lb_h35frame5testss_26unknown_frame_type_ignored
FNF:10
FNH:9
DA:84,301170
DA:85,301170
DA:86,174201
DA:87,174201
DA:89,174200
DA:90,105
DA:91,105
DA:92,105
DA:93,105
DA:94,174095
DA:95,174095
DA:96,174095
DA:97,174095
DA:98,174095
DA:99,174095
DA:101,174095
DA:103,60865
DA:104,60481
DA:105,60481
DA:106,60481
DA:107,293
DA:108,293
DA:109,293
DA:111,2
DA:112,1
DA:115,2
DA:116,2
DA:117,5
DA:118,3
DA:119,3
DA:120,3
DA:121,3
DA:122,3
DA:123,3
DA:125,2
DA:128,0
DA:129,0
DA:130,0
DA:131,0
DA:132,0
DA:133,0
DA:136,2
DA:137,2
DA:140,2
DA:141,2
DA:144,83
DA:145,83
DA:146,83
DA:147,83
DA:150,60864
DA:151,301170
DA:159,63185
DA:160,63185
DA:161,63185
DA:162,63185
DA:163,62847
DA:164,62847
DA:165,62847
DA:166,62847
DA:168,329
DA:169,329
DA:170,329
DA:171,329
DA:173,1
DA:174,1
DA:175,1
DA:176,1
DA:177,1
DA:178,1
DA:180,3
DA:181,3
DA:182,6
DA:183,3
DA:184,3
DA:186,3
DA:187,3
DA:188,3
DA:191,0
DA:192,0
DA:193,0
DA:194,0
DA:195,0
DA:196,0
DA:197,0
DA:198,0
DA:199,0
DA:201,2
DA:202,2
DA:203,2
DA:204,2
DA:205,2
DA:206,2
DA:208,1
DA:209,1
DA:210,1
DA:211,1
DA:212,1
DA:213,1
DA:216,2
DA:217,2
DA:218,2
DA:219,2
DA:220,2
DA:221,2
DA:225,63185
DA:226,63185
DA:233,1
DA:234,1
DA:235,1
DA:236,1
DA:237,1
DA:238,1
DA:239,1
DA:240,1
DA:241,1
DA:244,1
DA:245,1
DA:246,1
DA:247,1
DA:248,1
DA:249,1
DA:250,1
DA:251,1
DA:252,1
DA:255,1
DA:256,1
DA:257,1
DA:258,1
DA:259,1
DA:260,1
DA:261,1
DA:262,1
DA:263,1
DA:266,1
DA:267,1
DA:268,1
DA:269,1
DA:270,1
DA:271,1
DA:272,1
DA:275,1
DA:276,1
DA:277,1
DA:280,1
DA:281,1
DA:284,1
DA:287,1
DA:288,1
DA:289,1
DA:290,1
DA:291,1
DA:292,1
DA:293,1
DA:294,1
DA:295,1
DA:296,1
DA:297,1
DA:305,1
DA:306,1
DA:307,1
DA:310,1
DA:311,1
DA:312,1
DA:313,1
DA:314,1
DA:315,1
DA:316,1
DA:317,1
DA:318,1
DA:319,1
DA:320,1
DA:321,1
DA:322,1
DA:323,1
DA:324,1
DA:325,1
DA:326,1
DA:327,1
DA:328,1
BRF:0
BRH:0
LF:180
LH:164
end_of_record
SF:/home/ubuntu/Code/ExpressGateway/crates/lb-h3/src/qpack.rs
FN:316,_RNCNvMs0_NtCs9vbOsrtJ9jD_5lb_h35qpackNtB7_12QpackDecoder6decode0B9_
FN:370,_RNCNvMs0_NtCs9vbOsrtJ9jD_5lb_h35qpackNtB7_12QpackDecoder6decodes0_0B9_
FN:331,_RNCNvMs0_NtCs9vbOsrtJ9jD_5lb_h35qpackNtB7_12QpackDecoder6decodes_0B9_
FN:137,_RNCNvNtCs9vbOsrtJ9jD_5lb_h35qpack11find_static0B5_
FN:198,_RNCNvNtCs9vbOsrtJ9jD_5lb_h35qpack14decode_qstring0B5_
FN:211,_RNvMNtCs9vbOsrtJ9jD_5lb_h35qpackNtB2_12QpackEncoder3new
FN:223,_RNvMNtCs9vbOsrtJ9jD_5lb_h35qpackNtB2_12QpackEncoder6encode
FN:282,_RNvMs0_NtCs9vbOsrtJ9jD_5lb_h35qpackNtB5_12QpackDecoder3new
FN:291,_RNvMs0_NtCs9vbOsrtJ9jD_5lb_h35qpackNtB5_12QpackDecoder6decode
FN:161,_RNvNtCs9vbOsrtJ9jD_5lb_h35qpack11decode_qint
FN:142,_RNvNtCs9vbOsrtJ9jD_5lb_h35qpack11encode_qint
FN:125,_RNvNtCs9vbOsrtJ9jD_5lb_h35qpack11find_static
FN:192,_RNvNtCs9vbOsrtJ9jD_5lb_h35qpack14decode_qstring
FN:187,_RNvNtCs9vbOsrtJ9jD_5lb_h35qpack14encode_qstring
FN:391,_RNvXs1_NtCs9vbOsrtJ9jD_5lb_h35qpackNtB5_12QpackDecoderNtNtCs2va5m0jqTTM_4core7default7Default7default
FN:268,_RNvXs_NtCs9vbOsrtJ9jD_5lb_h35qpackNtB4_12QpackEncoderNtNtCs2va5m0jqTTM_4core7default7Default7default
FN:316,_RNCNvMs0_NtCs29y4OA8UEZi_5lb_h35qpackNtB7_12QpackDecoder6decode0B9_
FN:370,_RNCNvMs0_NtCs29y4OA8UEZi_5lb_h35qpackNtB7_12QpackDecoder6decodes0_0B9_
FN:331,_RNCNvMs0_NtCs29y4OA8UEZi_5lb_h35qpackNtB7_12QpackDecoder6decodes_0B9_
FN:137,_RNCNvNtCs29y4OA8UEZi_5lb_h35qpack11find_static0B5_
FN:198,_RNCNvNtCs29y4OA8UEZi_5lb_h35qpack14decode_qstring0B5_
FN:211,_RNvMNtCs29y4OA8UEZi_5lb_h35qpackNtB2_12QpackEncoder3new
FN:223,_RNvMNtCs29y4OA8UEZi_5lb_h35qpackNtB2_12QpackEncoder6encode
FN:282,_RNvMs0_NtCs29y4OA8UEZi_5lb_h35qpackNtB5_12QpackDecoder3new
FN:291,_RNvMs0_NtCs29y4OA8UEZi_5lb_h35qpackNtB5_12QpackDecoder6decode
FN:161,_RNvNtCs29y4OA8UEZi_5lb_h35qpack11decode_qint
FN:142,_RNvNtCs29y4OA8UEZi_5lb_h35qpack11encode_qint
FN:125,_RNvNtCs29y4OA8UEZi_5lb_h35qpack11find_static
FN:192,_RNvNtCs29y4OA8UEZi_5lb_h35qpack14decode_qstring
FN:187,_RNvNtCs29y4OA8UEZi_5lb_h35qpack14encode_qstring
FN:401,_RNvNtNtCs29y4OA8UEZi_5lb_h35qpack5testss_21roundtrip_static_only
FN:418,_RNvNtNtCs29y4OA8UEZi_5lb_h35qpack5testss_23roundtrip_with_literals
FN:434,_RNvNtNtCs29y4OA8UEZi_5lb_h35qpack5testss_32roundtrip_name_ref_value_literal
FN:456,_RNvNtNtCs29y4OA8UEZi_5lb_h35qpack5testss_38decode_conformant_literal_literal_name
FN:501,_RNvNtNtCs29y4OA8UEZi_5lb_h35qpack5testss_43roundtrip_literal_literal_name_fixed_format
FN:481,_RNvNtNtCs29y4OA8UEZi_5lb_h35qpack5testss_47decode_literal_literal_name_length_continuation
FN:391,_RNvXs1_NtCs29y4OA8UEZi_5lb_h35qpackNtB5_12QpackDecoderNtNtCs2va5m0jqTTM_4core7default7Default7default
FN:268,_RNvXs_NtCs29y4OA8UEZi_5lb_h35qpackNtB4_12QpackEncoderNtNtCs2va5m0jqTTM_4core7default7Default7default
FNDA:2,_RNCNvMs0_NtCs9vbOsrtJ9jD_5lb_h35qpackNtB7_12QpackDecoder6decode0B9_
FNDA:0,_RNCNvMs0_NtCs9vbOsrtJ9jD_5lb_h35qpackNtB7_12QpackDecoder6decodes0_0B9_
FNDA:0,_RNCNvMs0_NtCs9vbOsrtJ9jD_5lb_h35qpackNtB7_12QpackDecoder6decodes_0B9_
FNDA:505,_RNCNvNtCs9vbOsrtJ9jD_5lb_h35qpack11find_static0B5_
FNDA:0,_RNCNvNtCs9vbOsrtJ9jD_5lb_h35qpack14decode_qstring0B5_
FNDA:582,_RNvMNtCs9vbOsrtJ9jD_5lb_h35qpackNtB2_12QpackEncoder3new
FNDA:582,_RNvMNtCs9vbOsrtJ9jD_5lb_h35qpackNtB2_12QpackEncoder6encode
FNDA:545,_RNvMs0_NtCs9vbOsrtJ9jD_5lb_h35qpackNtB5_12QpackDecoder3new
FNDA:545,_RNvMs0_NtCs9vbOsrtJ9jD_5lb_h35qpackNtB5_12QpackDecoder6decode
FNDA:6402,_RNvNtCs9vbOsrtJ9jD_5lb_h35qpack11decode_qint
FNDA:6651,_RNvNtCs9vbOsrtJ9jD_5lb_h35qpack11encode_qint
FNDA:2945,_RNvNtCs9vbOsrtJ9jD_5lb_h35qpack11find_static
FNDA:2484,_RNvNtCs9vbOsrtJ9jD_5lb_h35qpack14decode_qstring
FNDA:2542,_RNvNtCs9vbOsrtJ9jD_5lb_h35qpack14encode_qstring
FNDA:0,_RNvXs1_NtCs9vbOsrtJ9jD_5lb_h35qpackNtB5_12QpackDecoderNtNtCs2va5m0jqTTM_4core7default7Default7default
FNDA:0,_RNvXs_NtCs9vbOsrtJ9jD_5lb_h35qpackNtB4_12QpackEncoderNtNtCs2va5m0jqTTM_4core7default7Default7default
FNDA:0,_RNCNvMs0_NtCs29y4OA8UEZi_5lb_h35qpackNtB7_12QpackDecoder6decode0B9_
FNDA:0,_RNCNvMs0_NtCs29y4OA8UEZi_5lb_h35qpackNtB7_12QpackDecoder6decodes0_0B9_
FNDA:0,_RNCNvMs0_NtCs29y4OA8UEZi_5lb_h35qpackNtB7_12QpackDecoder6decodes_0B9_
FNDA:1,_RNCNvNtCs29y4OA8UEZi_5lb_h35qpack11find_static0B5_
FNDA:0,_RNCNvNtCs29y4OA8UEZi_5lb_h35qpack14decode_qstring0B5_
FNDA:4,_RNvMNtCs29y4OA8UEZi_5lb_h35qpackNtB2_12QpackEncoder3new
FNDA:4,_RNvMNtCs29y4OA8UEZi_5lb_h35qpackNtB2_12QpackEncoder6encode
FNDA:6,_RNvMs0_NtCs29y4OA8UEZi_5lb_h35qpackNtB5_12QpackDecoder3new
FNDA:6,_RNvMs0_NtCs29y4OA8UEZi_5lb_h35qpackNtB5_12QpackDecoder6decode
FNDA:31,_RNvNtCs29y4OA8UEZi_5lb_h35qpack11decode_qint
FNDA:20,_RNvNtCs29y4OA8UEZi_5lb_h35qpack11encode_qint
FNDA:8,_RNvNtCs29y4OA8UEZi_5lb_h35qpack11find_static
FNDA:6,_RNvNtCs29y4OA8UEZi_5lb_h35qpack14decode_qstring
FNDA:4,_RNvNtCs29y4OA8UEZi_5lb_h35qpack14encode_qstring
FNDA:1,_RNvNtNtCs29y4OA8UEZi_5lb_h35qpack5testss_21roundtrip_static_only
FNDA:1,_RNvNtNtCs29y4OA8UEZi_5lb_h35qpack5testss_23roundtrip_with_literals
FNDA:1,_RNvNtNtCs29y4OA8UEZi_5lb_h35qpack5testss_32roundtrip_name_ref_value_literal
FNDA:1,_RNvNtNtCs29y4OA8UEZi_5lb_h35qpack5testss_38decode_conformant_literal_literal_name
FNDA:1,_RNvNtNtCs29y4OA8UEZi_5lb_h35qpack5testss_43roundtrip_literal_literal_name_fixed_format
FNDA:1,_RNvNtNtCs29y4OA8UEZi_5lb_h35qpack5testss_47decode_literal_literal_name_length_continuation
FNDA:0,_RNvXs1_NtCs29y4OA8UEZi_5lb_h35qpackNtB5_12QpackDecoderNtNtCs2va5m0jqTTM_4core7default7Default7default
FNDA:0,_RNvXs_NtCs29y4OA8UEZi_5lb_h35qpackNtB4_12QpackEncoderNtNtCs2va5m0jqTTM_4core7default7Default7default
FNF:22
FNH:17
DA:125,2953
DA:126,2953
DA:127,261667
DA:128,261667
DA:129,2797
DA:130,407
DA:131,2390
DA:132,2390
DA:133,906
DA:134,1484
DA:135,258870
DA:137,2546
DA:138,2953
DA:142,6671
DA:143,6671
DA:144,6671
DA:145,4890
DA:146,4890
DA:147,4890
DA:149,1781
DA:150,1781
DA:151,1781
DA:152,0
DA:153,0
DA:154,0
DA:155,0
DA:157,1781
DA:159,6671
DA:161,6433
DA:162,6433
DA:163,6433
DA:164,6433
DA:165,6433
DA:166,6433
DA:167,4655
DA:168,1778
DA:169,1778
DA:170,1778
DA:171,1778
DA:173,1780
DA:174,1780
DA:175,1780
DA:176,1780
DA:177,1780
DA:178,1778
DA:179,2
DA:180,2
DA:181,0
DA:182,2
DA:184,1778
DA:185,6433
DA:187,2546
DA:188,2546
DA:189,2546
DA:190,2546
DA:192,2490
DA:193,2490
DA:194,2490
DA:195,2490
DA:196,2490
DA:197,2490
DA:198,2490
DA:199,2490
DA:200,2490
DA:211,586
DA:212,586
DA:213,586
DA:223,586
DA:224,586
DA:225,586
DA:226,586
DA:227,586
DA:228,586
DA:229,586
DA:231,3539
DA:232,2953
DA:233,407
DA:234,407
DA:235,407
DA:236,407
DA:237,506
DA:238,506
DA:239,506
DA:240,506
DA:241,506
DA:242,2040
DA:243,2040
DA:244,2040
DA:245,2040
DA:246,2040
DA:247,2040
DA:248,2040
DA:249,2040
DA:250,2040
DA:251,2040
DA:252,2040
DA:253,2040
DA:254,2040
DA:255,2040
DA:256,2040
DA:257,2040
DA:258,2040
DA:259,2040
DA:263,586
DA:264,586
DA:268,0
DA:269,0
DA:270,0
DA:282,551
DA:283,551
DA:284,551
DA:291,551
DA:292,551
DA:293,551
DA:294,551
DA:296,551
DA:297,0
DA:298,0
DA:299,0
DA:300,551
DA:301,551
DA:302,551
DA:303,551
DA:305,3390
DA:306,2841
DA:308,2841
DA:310,351
DA:311,351
DA:312,351
DA:314,351
DA:315,351
DA:316,351
DA:317,349
DA:318,2490
DA:320,0
DA:321,0
DA:322,0
DA:323,2490
DA:325,449
DA:326,449
DA:327,449
DA:329,449
DA:330,449
DA:331,449
DA:332,449
DA:334,449
DA:335,449
DA:336,449
DA:337,449
DA:338,449
DA:339,2041
DA:341,0
DA:342,0
DA:343,0
DA:344,2041
DA:363,2041
DA:364,2041
DA:365,2041
DA:366,2041
DA:367,2041
DA:368,2041
DA:369,2041
DA:370,2041
DA:371,2041
DA:372,2041
DA:374,2041
DA:375,2041
DA:376,2041
DA:377,2041
DA:378,2041
DA:380,0
DA:381,0
DA:382,0
DA:386,549
DA:387,551
DA:391,0
DA:392,0
DA:393,0
DA:401,1
DA:402,1
DA:403,1
DA:404,1
DA:405,1
DA:406,1
DA:407,1
DA:408,1
DA:409,1
DA:410,1
DA:411,1
DA:412,1
DA:413,1
DA:414,1
DA:415,1
DA:418,1
DA:419,1
DA:420,1
DA:421,1
DA:422,1
DA:423,1
DA:424,1
DA:425,1
DA:426,1
DA:427,1
DA:428,1
DA:429,1
DA:430,1
DA:431,1
DA:434,1
DA:435,1
DA:436,1
DA:437,1
DA:438,1
DA:439,1
DA:440,1
DA:441,1
DA:442,1
DA:443,1
DA:444,1
DA:456,1
DA:457,1
DA:458,1
DA:459,1
DA:460,1
DA:461,1
DA:462,1
DA:463,1
DA:464,1
DA:465,1
DA:466,1
DA:467,1
DA:468,1
DA:469,1
DA:470,1
DA:471,1
DA:472,1
DA:473,1
DA:474,1
DA:475,1
DA:476,1
DA:481,1
DA:482,1
DA:483,1
DA:484,1
DA:485,1
DA:486,1
DA:487,1
DA:488,1
DA:489,1
DA:490,1
DA:491,1
DA:492,1
DA:493,1
DA:494,1
DA:495,1
DA:501,1
DA:502,1
DA:503,1
DA:504,1
DA:505,1
DA:506,1
DA:507,1
DA:508,1
DA:509,1
DA:510,1
DA:511,1
DA:512,1
DA:513,1
DA:514,1
BRF:0
BRH:0
LF:273
LH:247
end_of_record
SF:/home/ubuntu/Code/ExpressGateway/crates/lb-h3/src/security.rs
FN:22,_RNvMNtCs9vbOsrtJ9jD_5lb_h38securityNtB2_17QpackBombDetector3new
FN:35,_RNvMNtCs9vbOsrtJ9jD_5lb_h38securityNtB2_17QpackBombDetector5check
FN:22,_RNvMNtCs29y4OA8UEZi_5lb_h38securityNtB2_17QpackBombDetector3new
FN:35,_RNvMNtCs29y4OA8UEZi_5lb_h38securityNtB2_17QpackBombDetector5check
FN:85,_RNvNtNtCs29y4OA8UEZi_5lb_h38security5testss_12zero_encoded
FN:79,_RNvNtNtCs29y4OA8UEZi_5lb_h38security5testss_13size_exceeded
FN:73,_RNvNtNtCs29y4OA8UEZi_5lb_h38security5testss_14ratio_exceeded
FN:67,_RNvNtNtCs29y4OA8UEZi_5lb_h38security5testss_15normal_input_ok
FNDA:0,_RNvMNtCs9vbOsrtJ9jD_5lb_h38securityNtB2_17QpackBombDetector3new
FNDA:0,_RNvMNtCs9vbOsrtJ9jD_5lb_h38securityNtB2_17QpackBombDetector5check
FNDA:4,_RNvMNtCs29y4OA8UEZi_5lb_h38securityNtB2_17QpackBombDetector3new
FNDA:4,_RNvMNtCs29y4OA8UEZi_5lb_h38securityNtB2_17QpackBombDetector5check
FNDA:1,_RNvNtNtCs29y4OA8UEZi_5lb_h38security5testss_12zero_encoded
FNDA:1,_RNvNtNtCs29y4OA8UEZi_5lb_h38security5testss_13size_exceeded
FNDA:1,_RNvNtNtCs29y4OA8UEZi_5lb_h38security5testss_14ratio_exceeded
FNDA:1,_RNvNtNtCs29y4OA8UEZi_5lb_h38security5testss_15normal_input_ok
FNF:6
FNH:6
DA:22,4
DA:23,4
DA:24,4
DA:25,4
DA:26,4
DA:27,4
DA:35,4
DA:36,4
DA:37,2
DA:38,1
DA:39,1
DA:41,2
DA:42,2
DA:43,2
DA:44,2
DA:45,2
DA:46,2
DA:48,2
DA:49,2
DA:50,1
DA:51,1
DA:52,1
DA:53,1
DA:54,1
DA:55,1
DA:56,0
DA:58,1
DA:59,4
DA:67,1
DA:68,1
DA:69,1
DA:70,1
DA:73,1
DA:74,1
DA:75,1
DA:76,1
DA:79,1
DA:80,1
DA:81,1
DA:82,1
DA:85,1
DA:86,1
DA:87,1
DA:88,1
BRF:0
BRH:0
LF:44
LH:43
end_of_record
SF:/home/ubuntu/Code/ExpressGateway/crates/lb-h3/src/varint.rs
FN:27,_RNvNtCs9vbOsrtJ9jD_5lb_h36varint13decode_varint
FN:68,_RNvNtCs9vbOsrtJ9jD_5lb_h36varint13encode_varint
FN:99,_RNvNtNtCs29y4OA8UEZi_5lb_h36varint5testss_15roundtrip_small
FN:111,_RNvNtNtCs29y4OA8UEZi_5lb_h36varint5testss_18roundtrip_two_byte
FN:123,_RNvNtNtCs29y4OA8UEZi_5lb_h36varint5testss_19roundtrip_four_byte
FN:135,_RNvNtNtCs29y4OA8UEZi_5lb_h36varint5testss_20roundtrip_eight_byte
FN:147,_RNvNtNtCs29y4OA8UEZi_5lb_h36varint5testss_8overflow
FN:27,_RNvNtCs29y4OA8UEZi_5lb_h36varint13decode_varint
FN:68,_RNvNtCs29y4OA8UEZi_5lb_h36varint13encode_varint
FNDA:501536,_RNvNtCs9vbOsrtJ9jD_5lb_h36varint13decode_varint
FNDA:126631,_RNvNtCs9vbOsrtJ9jD_5lb_h36varint13encode_varint
FNDA:1,_RNvNtNtCs29y4OA8UEZi_5lb_h36varint5testss_15roundtrip_small
FNDA:1,_RNvNtNtCs29y4OA8UEZi_5lb_h36varint5testss_18roundtrip_two_byte
FNDA:1,_RNvNtNtCs29y4OA8UEZi_5lb_h36varint5testss_19roundtrip_four_byte
FNDA:1,_RNvNtNtCs29y4OA8UEZi_5lb_h36varint5testss_20roundtrip_eight_byte
FNDA:1,_RNvNtNtCs29y4OA8UEZi_5lb_h36varint5testss_8overflow
FNDA:95,_RNvNtCs29y4OA8UEZi_5lb_h36varint13decode_varint
FNDA:91,_RNvNtCs29y4OA8UEZi_5lb_h36varint13encode_varint
FNF:7
FNH:7
DA:27,501631
DA:28,501631
DA:29,362363
DA:30,362363
DA:31,362363
DA:33,188640
DA:34,188640
DA:37,167216
DA:38,167199
DA:39,167199
DA:42,6069
DA:43,4640
DA:44,3206
DA:45,1583
DA:46,1583
DA:47,1583
DA:48,1583
DA:49,1583
DA:52,438
DA:53,3361
DA:54,2956
DA:55,2923
DA:57,405
DA:59,0
DA:61,501631
DA:68,126722
DA:69,126722
DA:70,1
DA:71,126721
DA:72,126721
DA:73,126721
DA:75,70294
DA:76,70294
DA:77,56427
DA:79,53933
DA:80,53933
DA:81,53933
DA:82,2494
DA:84,2236
DA:85,2236
DA:86,2236
DA:88,258
DA:89,258
DA:90,258
DA:92,126722
DA:99,1
DA:100,65
DA:101,64
DA:102,64
DA:103,64
DA:104,64
DA:105,64
DA:106,64
DA:108,1
DA:111,1
DA:112,5
DA:113,4
DA:114,4
DA:115,4
DA:116,4
DA:117,4
DA:118,4
DA:120,1
DA:123,1
DA:124,4
DA:125,3
DA:126,3
DA:127,3
DA:128,3
DA:129,3
DA:130,3
DA:132,1
DA:135,1
DA:136,2
DA:137,2
DA:138,2
DA:139,2
DA:140,2
DA:141,2
DA:142,2
DA:144,1
DA:147,1
DA:148,1
DA:149,1
DA:150,1
BRF:0
BRH:0
LF:85
LH:84
end_of_record
SF:/home/ubuntu/Code/ExpressGateway/crates/lb-quic/src/cleanup_guard.rs
FN:50,_RNvMNtCsFtQQ2UsJ2c_7lb_quic13cleanup_guardINtB2_13CidEntryGuardINtNtCs8GO9KFlE3Dq_5alloc3vec3VechEINtNtNtNtCsfWKKmeeA0Vo_5tokio4sync4mpsc7bounded6SenderNtNtB4_10conn_actor13InboundPacketEE3newB4_
FN:68,_RNvXs_NtCsFtQQ2UsJ2c_7lb_quic13cleanup_guardINtB4_13CidEntryGuardINtNtCs8GO9KFlE3Dq_5alloc3vec3VechEINtNtNtNtCsfWKKmeeA0Vo_5tokio4sync4mpsc7bounded6SenderNtNtB6_10conn_actor13InboundPacketEENtNtNtCs2va5m0jqTTM_4core3ops4drop4Drop4dropB6_
FN:59,_RNvMNtCsFtQQ2UsJ2c_7lb_quic13cleanup_guardINtB2_13CidEntryGuardppE6disarmB4_
FN:50,_RNvMNtCsiNLkn7P4XgI_7lb_quic13cleanup_guardINtB2_13CidEntryGuardINtNtCs8GO9KFlE3Dq_5alloc3vec3VechEINtNtNtNtCsfWKKmeeA0Vo_5tokio4sync4mpsc7bounded6SenderNtNtB4_10conn_actor13InboundPacketEE3newB4_
FN:68,_RNvXs_NtCsiNLkn7P4XgI_7lb_quic13cleanup_guardINtB4_13CidEntryGuardINtNtCs8GO9KFlE3Dq_5alloc3vec3VechEINtNtNtNtCsfWKKmeeA0Vo_5tokio4sync4mpsc7bounded6SenderNtNtB6_10conn_actor13InboundPacketEENtNtNtCs2va5m0jqTTM_4core3ops4drop4Drop4dropB6_
FN:59,_RNvMNtCsiNLkn7P4XgI_7lb_quic13cleanup_guardINtB2_13CidEntryGuardppE6disarmB4_
FN:50,_RNvMNtCsFtQQ2UsJ2c_7lb_quic13cleanup_guardINtB2_13CidEntryGuardINtNtCs8GO9KFlE3Dq_5alloc3vec3VechEuE3newCsjUX72moceO5_16quic_router_leak
FN:68,_RNvXs_NtCsFtQQ2UsJ2c_7lb_quic13cleanup_guardINtB4_13CidEntryGuardINtNtCs8GO9KFlE3Dq_5alloc3vec3VechEuENtNtNtCs2va5m0jqTTM_4core3ops4drop4Drop4dropCsjUX72moceO5_16quic_router_leak
FNDA:133,_RNvMNtCsFtQQ2UsJ2c_7lb_quic13cleanup_guardINtB2_13CidEntryGuardINtNtCs8GO9KFlE3Dq_5alloc3vec3VechEINtNtNtNtCsfWKKmeeA0Vo_5tokio4sync4mpsc7bounded6SenderNtNtB4_10conn_actor13InboundPacketEE3newB4_
FNDA:133,_RNvXs_NtCsFtQQ2UsJ2c_7lb_quic13cleanup_guardINtB4_13CidEntryGuardINtNtCs8GO9KFlE3Dq_5alloc3vec3VechEINtNtNtNtCsfWKKmeeA0Vo_5tokio4sync4mpsc7bounded6SenderNtNtB6_10conn_actor13InboundPacketEENtNtNtCs2va5m0jqTTM_4core3ops4drop4Drop4dropB6_
FNDA:0,_RNvMNtCsFtQQ2UsJ2c_7lb_quic13cleanup_guardINtB2_13CidEntryGuardppE6disarmB4_
FNDA:4,_RNvMNtCsiNLkn7P4XgI_7lb_quic13cleanup_guardINtB2_13CidEntryGuardINtNtCs8GO9KFlE3Dq_5alloc3vec3VechEINtNtNtNtCsfWKKmeeA0Vo_5tokio4sync4mpsc7bounded6SenderNtNtB4_10conn_actor13InboundPacketEE3newB4_
FNDA:4,_RNvXs_NtCsiNLkn7P4XgI_7lb_quic13cleanup_guardINtB4_13CidEntryGuardINtNtCs8GO9KFlE3Dq_5alloc3vec3VechEINtNtNtNtCsfWKKmeeA0Vo_5tokio4sync4mpsc7bounded6SenderNtNtB6_10conn_actor13InboundPacketEENtNtNtCs2va5m0jqTTM_4core3ops4drop4Drop4dropB6_
FNDA:0,_RNvMNtCsiNLkn7P4XgI_7lb_quic13cleanup_guardINtB2_13CidEntryGuardppE6disarmB4_
FNDA:3,_RNvMNtCsFtQQ2UsJ2c_7lb_quic13cleanup_guardINtB2_13CidEntryGuardINtNtCs8GO9KFlE3Dq_5alloc3vec3VechEuE3newCsjUX72moceO5_16quic_router_leak
FNDA:3,_RNvXs_NtCsFtQQ2UsJ2c_7lb_quic13cleanup_guardINtB4_13CidEntryGuardINtNtCs8GO9KFlE3Dq_5alloc3vec3VechEuENtNtNtCs2va5m0jqTTM_4core3ops4drop4Drop4dropCsjUX72moceO5_16quic_router_leak
FNF:3
FNH:2
DA:50,140
DA:51,140
DA:52,140
DA:53,140
DA:54,140
DA:55,140
DA:59,0
DA:60,0
DA:61,0
DA:68,140
DA:69,420
DA:70,280
DA:71,280
DA:72,280
DA:73,280
DA:74,280
DA:75,280
DA:77,140
BRF:0
BRH:0
LF:18
LH:15
end_of_record
SF:/home/ubuntu/Code/ExpressGateway/crates/lb-quic/src/conn_actor.rs
FN:1407,_RNCNCNvNtCsFtQQ2UsJ2c_7lb_quic10conn_actor26record_retained_for_stream00B7_
FN:266,_RNCNCNvNtCsFtQQ2UsJ2c_7lb_quic10conn_actor9run_actor00B7_
FN:356,_RNCNCNvNtCsFtQQ2UsJ2c_7lb_quic10conn_actor9run_actor0s_0B7_
FN:767,_RNCNvNtCsFtQQ2UsJ2c_7lb_quic10conn_actor15drain_conn_send0B5_
FN:704,_RNCNvNtCsFtQQ2UsJ2c_7lb_quic10conn_actor20graceful_h3_shutdown0B5_
FN:671,_RNCNvNtCsFtQQ2UsJ2c_7lb_quic10conn_actor21drain_streams_to_conn0B5_
FN:1405,_RNCNvNtCsFtQQ2UsJ2c_7lb_quic10conn_actor26record_retained_for_stream0B5_
FN:1418,_RNCNvNtCsFtQQ2UsJ2c_7lb_quic10conn_actor26record_retained_for_streams_0B5_
FN:915,_RNCNvNtCsFtQQ2UsJ2c_7lb_quic10conn_actor7poll_h30B5_
FN:1020,_RNCNvNtCsFtQQ2UsJ2c_7lb_quic10conn_actor7poll_h3s0_0B5_
FN:1096,_RNCNvNtCsFtQQ2UsJ2c_7lb_quic10conn_actor7poll_h3s1_0B5_
FN:944,_RNCNvNtCsFtQQ2UsJ2c_7lb_quic10conn_actor7poll_h3s_0B5_
FN:186,_RNCNvNtCsFtQQ2UsJ2c_7lb_quic10conn_actor9run_actor0B5_
FN:547,_RNvMNtCsFtQQ2UsJ2c_7lb_quic10conn_actorNtB2_8StreamTx11progressive
FN:538,_RNvMNtCsFtQQ2UsJ2c_7lb_quic10conn_actorNtB2_8StreamTx3new
FN:1428,_RNvNtCsFtQQ2UsJ2c_7lb_quic10conn_actor13flush_pending
FN:1471,_RNvNtCsFtQQ2UsJ2c_7lb_quic10conn_actor14select_backend
FN:763,_RNvNtCsFtQQ2UsJ2c_7lb_quic10conn_actor15drain_conn_send
FN:752,_RNvNtCsFtQQ2UsJ2c_7lb_quic10conn_actor15reset_h3_stream
FN:1246,_RNvNtCsFtQQ2UsJ2c_7lb_quic10conn_actor17drain_body_stream
FN:1335,_RNvNtCsFtQQ2UsJ2c_7lb_quic10conn_actor19decode_into_pending
FN:421,_RNvNtCsFtQQ2UsJ2c_7lb_quic10conn_actor19drain_resp_channels
FN:700,_RNvNtCsFtQQ2UsJ2c_7lb_quic10conn_actor20graceful_h3_shutdown
FN:560,_RNvNtCsFtQQ2UsJ2c_7lb_quic10conn_actor21drain_streams_to_conn
FN:1396,_RNvNtCsFtQQ2UsJ2c_7lb_quic10conn_actor26record_retained_for_stream
FN:374,_RNvNtCsFtQQ2UsJ2c_7lb_quic10conn_actor31reap_client_cancelled_responses
FN:790,_RNvNtCsFtQQ2UsJ2c_7lb_quic10conn_actor7poll_h3
FN:186,_RNvNtCsFtQQ2UsJ2c_7lb_quic10conn_actor9run_actor
FN:1407,_RNCNCNvNtCsiNLkn7P4XgI_7lb_quic10conn_actor26record_retained_for_stream00B7_
FN:266,_RNCNCNvNtCsiNLkn7P4XgI_7lb_quic10conn_actor9run_actor00B7_
FN:356,_RNCNCNvNtCsiNLkn7P4XgI_7lb_quic10conn_actor9run_actor0s_0B7_
FN:767,_RNCNvNtCsiNLkn7P4XgI_7lb_quic10conn_actor15drain_conn_send0B5_
FN:704,_RNCNvNtCsiNLkn7P4XgI_7lb_quic10conn_actor20graceful_h3_shutdown0B5_
FN:671,_RNCNvNtCsiNLkn7P4XgI_7lb_quic10conn_actor21drain_streams_to_conn0B5_
FN:1405,_RNCNvNtCsiNLkn7P4XgI_7lb_quic10conn_actor26record_retained_for_stream0B5_
FN:1418,_RNCNvNtCsiNLkn7P4XgI_7lb_quic10conn_actor26record_retained_for_streams_0B5_
FN:915,_RNCNvNtCsiNLkn7P4XgI_7lb_quic10conn_actor7poll_h30B5_
FN:1020,_RNCNvNtCsiNLkn7P4XgI_7lb_quic10conn_actor7poll_h3s0_0B5_
FN:1096,_RNCNvNtCsiNLkn7P4XgI_7lb_quic10conn_actor7poll_h3s1_0B5_
FN:944,_RNCNvNtCsiNLkn7P4XgI_7lb_quic10conn_actor7poll_h3s_0B5_
FN:186,_RNCNvNtCsiNLkn7P4XgI_7lb_quic10conn_actor9run_actor0B5_
FN:547,_RNvMNtCsiNLkn7P4XgI_7lb_quic10conn_actorNtB2_8StreamTx11progressive
FN:538,_RNvMNtCsiNLkn7P4XgI_7lb_quic10conn_actorNtB2_8StreamTx3new
FN:1428,_RNvNtCsiNLkn7P4XgI_7lb_quic10conn_actor13flush_pending
FN:1471,_RNvNtCsiNLkn7P4XgI_7lb_quic10conn_actor14select_backend
FN:763,_RNvNtCsiNLkn7P4XgI_7lb_quic10conn_actor15drain_conn_send
FN:752,_RNvNtCsiNLkn7P4XgI_7lb_quic10conn_actor15reset_h3_stream
FN:1246,_RNvNtCsiNLkn7P4XgI_7lb_quic10conn_actor17drain_body_stream
FN:1335,_RNvNtCsiNLkn7P4XgI_7lb_quic10conn_actor19decode_into_pending
FN:421,_RNvNtCsiNLkn7P4XgI_7lb_quic10conn_actor19drain_resp_channels
FN:700,_RNvNtCsiNLkn7P4XgI_7lb_quic10conn_actor20graceful_h3_shutdown
FN:560,_RNvNtCsiNLkn7P4XgI_7lb_quic10conn_actor21drain_streams_to_conn
FN:1396,_RNvNtCsiNLkn7P4XgI_7lb_quic10conn_actor26record_retained_for_stream
FN:374,_RNvNtCsiNLkn7P4XgI_7lb_quic10conn_actor31reap_client_cancelled_responses
FN:790,_RNvNtCsiNLkn7P4XgI_7lb_quic10conn_actor7poll_h3
FN:186,_RNvNtCsiNLkn7P4XgI_7lb_quic10conn_actor9run_actor
FNDA:5523,_RNCNCNvNtCsFtQQ2UsJ2c_7lb_quic10conn_actor26record_retained_for_stream00B7_
FNDA:582213,_RNCNCNvNtCsFtQQ2UsJ2c_7lb_quic10conn_actor9run_actor00B7_
FNDA:287459,_RNCNCNvNtCsFtQQ2UsJ2c_7lb_quic10conn_actor9run_actor0s_0B7_
FNDA:855144,_RNCNvNtCsFtQQ2UsJ2c_7lb_quic10conn_actor15drain_conn_send0B5_
FNDA:110,_RNCNvNtCsFtQQ2UsJ2c_7lb_quic10conn_actor20graceful_h3_shutdown0B5_
FNDA:671615,_RNCNvNtCsFtQQ2UsJ2c_7lb_quic10conn_actor21drain_streams_to_conn0B5_
FNDA:5264,_RNCNvNtCsFtQQ2UsJ2c_7lb_quic10conn_actor26record_retained_for_stream0B5_
FNDA:5264,_RNCNvNtCsFtQQ2UsJ2c_7lb_quic10conn_actor26record_retained_for_streams_0B5_
FNDA:2,_RNCNvNtCsFtQQ2UsJ2c_7lb_quic10conn_actor7poll_h30B5_
FNDA:81,_RNCNvNtCsFtQQ2UsJ2c_7lb_quic10conn_actor7poll_h3s0_0B5_
FNDA:36,_RNCNvNtCsFtQQ2UsJ2c_7lb_quic10conn_actor7poll_h3s1_0B5_
FNDA:8,_RNCNvNtCsFtQQ2UsJ2c_7lb_quic10conn_actor7poll_h3s_0B5_
FNDA:136,_RNCNvNtCsFtQQ2UsJ2c_7lb_quic10conn_actor9run_actor0B5_
FNDA:373771,_RNvMNtCsFtQQ2UsJ2c_7lb_quic10conn_actorNtB2_8StreamTx11progressive
FNDA:2,_RNvMNtCsFtQQ2UsJ2c_7lb_quic10conn_actorNtB2_8StreamTx3new
FNDA:296132,_RNvNtCsFtQQ2UsJ2c_7lb_quic10conn_actor13flush_pending
FNDA:36,_RNvNtCsFtQQ2UsJ2c_7lb_quic10conn_actor14select_backend
FNDA:855144,_RNvNtCsFtQQ2UsJ2c_7lb_quic10conn_actor15drain_conn_send
FNDA:1,_RNvNtCsFtQQ2UsJ2c_7lb_quic10conn_actor15reset_h3_stream
FNDA:141764,_RNvNtCsFtQQ2UsJ2c_7lb_quic10conn_actor17drain_body_stream
FNDA:5264,_RNvNtCsFtQQ2UsJ2c_7lb_quic10conn_actor19decode_into_pending
FNDA:671917,_RNvNtCsFtQQ2UsJ2c_7lb_quic10conn_actor19drain_resp_channels
FNDA:110,_RNvNtCsFtQQ2UsJ2c_7lb_quic10conn_actor20graceful_h3_shutdown
FNDA:672053,_RNvNtCsFtQQ2UsJ2c_7lb_quic10conn_actor21drain_streams_to_conn
FNDA:5264,_RNvNtCsFtQQ2UsJ2c_7lb_quic10conn_actor26record_retained_for_stream
FNDA:671917,_RNvNtCsFtQQ2UsJ2c_7lb_quic10conn_actor31reap_client_cancelled_responses
FNDA:671784,_RNvNtCsFtQQ2UsJ2c_7lb_quic10conn_actor7poll_h3
FNDA:136,_RNvNtCsFtQQ2UsJ2c_7lb_quic10conn_actor9run_actor
FNDA:0,_RNCNCNvNtCsiNLkn7P4XgI_7lb_quic10conn_actor26record_retained_for_stream00B7_
FNDA:0,_RNCNCNvNtCsiNLkn7P4XgI_7lb_quic10conn_actor9run_actor00B7_
FNDA:0,_RNCNCNvNtCsiNLkn7P4XgI_7lb_quic10conn_actor9run_actor0s_0B7_
FNDA:0,_RNCNvNtCsiNLkn7P4XgI_7lb_quic10conn_actor15drain_conn_send0B5_
FNDA:0,_RNCNvNtCsiNLkn7P4XgI_7lb_quic10conn_actor20graceful_h3_shutdown0B5_
FNDA:0,_RNCNvNtCsiNLkn7P4XgI_7lb_quic10conn_actor21drain_streams_to_conn0B5_
FNDA:0,_RNCNvNtCsiNLkn7P4XgI_7lb_quic10conn_actor26record_retained_for_stream0B5_
FNDA:0,_RNCNvNtCsiNLkn7P4XgI_7lb_quic10conn_actor26record_retained_for_streams_0B5_
FNDA:0,_RNCNvNtCsiNLkn7P4XgI_7lb_quic10conn_actor7poll_h30B5_
FNDA:0,_RNCNvNtCsiNLkn7P4XgI_7lb_quic10conn_actor7poll_h3s0_0B5_
FNDA:0,_RNCNvNtCsiNLkn7P4XgI_7lb_quic10conn_actor7poll_h3s1_0B5_
FNDA:0,_RNCNvNtCsiNLkn7P4XgI_7lb_quic10conn_actor7poll_h3s_0B5_
FNDA:0,_RNCNvNtCsiNLkn7P4XgI_7lb_quic10conn_actor9run_actor0B5_
FNDA:0,_RNvMNtCsiNLkn7P4XgI_7lb_quic10conn_actorNtB2_8StreamTx11progressive
FNDA:0,_RNvMNtCsiNLkn7P4XgI_7lb_quic10conn_actorNtB2_8StreamTx3new
FNDA:0,_RNvNtCsiNLkn7P4XgI_7lb_quic10conn_actor13flush_pending
FNDA:0,_RNvNtCsiNLkn7P4XgI_7lb_quic10conn_actor14select_backend
FNDA:0,_RNvNtCsiNLkn7P4XgI_7lb_quic10conn_actor15drain_conn_send
FNDA:0,_RNvNtCsiNLkn7P4XgI_7lb_quic10conn_actor15reset_h3_stream
FNDA:0,_RNvNtCsiNLkn7P4XgI_7lb_quic10conn_actor17drain_body_stream
FNDA:0,_RNvNtCsiNLkn7P4XgI_7lb_quic10conn_actor19decode_into_pending
FNDA:0,_RNvNtCsiNLkn7P4XgI_7lb_quic10conn_actor19drain_resp_channels
FNDA:0,_RNvNtCsiNLkn7P4XgI_7lb_quic10conn_actor20graceful_h3_shutdown
FNDA:0,_RNvNtCsiNLkn7P4XgI_7lb_quic10conn_actor21drain_streams_to_conn
FNDA:0,_RNvNtCsiNLkn7P4XgI_7lb_quic10conn_actor26record_retained_for_stream
FNDA:0,_RNvNtCsiNLkn7P4XgI_7lb_quic10conn_actor31reap_client_cancelled_responses
FNDA:0,_RNvNtCsiNLkn7P4XgI_7lb_quic10conn_actor7poll_h3
FNDA:0,_RNvNtCsiNLkn7P4XgI_7lb_quic10conn_actor9run_actor
FNF:28
FNH:28
DA:186,136
DA:187,136
DA:188,136
DA:189,136
DA:190,136
DA:191,136
DA:192,136
DA:193,0
DA:194,136
DA:195,136
DA:196,136
DA:197,136
DA:198,136
DA:199,136
DA:200,136
DA:201,136
DA:202,136
DA:203,136
DA:204,136
DA:205,136
DA:206,136
DA:207,136
DA:208,136
DA:209,136
DA:210,136
DA:211,136
DA:212,136
DA:213,136
DA:214,136
DA:215,136
DA:216,136
DA:217,136
DA:218,136
DA:219,136
DA:220,136
DA:221,136
DA:222,136
DA:223,136
DA:224,136
DA:225,136
DA:226,136
DA:227,136
DA:232,672053
DA:233,672053
DA:235,672053
DA:236,27
DA:237,672026
DA:238,672026
DA:239,672026
DA:240,672026
DA:241,672026
DA:242,672026
DA:243,672026
DA:244,672026
DA:245,672026
DA:246,672026
DA:247,672026
DA:248,672026
DA:249,672026
DA:250,672026
DA:251,672026
DA:252,672026
DA:253,672026
DA:254,672026
DA:255,672026
DA:256,672026
DA:257,526622
DA:258,526622
DA:259,671586
DA:260,671586
DA:261,671586
DA:266,672026
DA:267,582213
DA:268,582211
DA:273,2
DA:274,2
DA:275,2
DA:276,2
DA:278,2
DA:279,2
DA:280,2
DA:281,0
DA:282,0
DA:283,0
DA:286,0
DA:289,2
DA:291,672026
DA:293,672026
DA:294,109
DA:295,18
DA:297,672026
DA:298,143689
DA:299,143689
DA:300,143689
DA:301,143688
DA:302,1
DA:303,1
DA:307,672026
DA:308,2
DA:309,2
DA:310,2
DA:312,672026
DA:313,528226
DA:314,528226
DA:318,671917
DA:319,671784
DA:320,671784
DA:321,671784
DA:322,671784
DA:323,671784
DA:324,671784
DA:325,671784
DA:326,671784
DA:327,671784
DA:328,671784
DA:329,671784
DA:330,671784
DA:331,671784
DA:332,671784
DA:333,671784
DA:339,671917
DA:340,671917
DA:341,671917
DA:342,671917
DA:343,671917
DA:344,671917
DA:345,671917
DA:346,671917
DA:347,671917
DA:348,671917
DA:349,671917
DA:350,671917
DA:351,671917
DA:352,671917
DA:353,671917
DA:354,671917
DA:355,671917
DA:356,671917
DA:358,45
DA:359,45
DA:374,671917
DA:375,671917
DA:376,671917
DA:377,671917
DA:378,671917
DA:379,671917
DA:380,671917
DA:381,671616
DA:382,3
DA:383,3
DA:386,0
DA:387,0
DA:389,3
DA:391,671613
DA:394,671920
DA:395,3
DA:396,3
DA:397,3
DA:398,3
DA:399,3
DA:400,3
DA:401,671917
DA:421,671917
DA:422,671917
DA:423,671917
DA:424,671917
DA:425,671917
DA:426,1343530
DA:430,671613
DA:431,671613
DA:432,671613
DA:434,671613
DA:435,671613
DA:436,671613
DA:437,671613
DA:438,671613
DA:440,0
DA:442,671613
DA:446,0
DA:447,671613
DA:448,671613
DA:449,671613
DA:450,25612
DA:451,646001
DA:452,646001
DA:453,0
DA:460,646001
DA:461,58008
DA:462,90
DA:463,21
DA:464,214236
DA:465,373646
DA:466,373646
DA:467,373646
DA:468,373646
DA:469,373646
DA:470,373646
DA:484,671917
DA:485,671917
DA:486,671615
DA:487,671613
DA:488,671613
DA:490,671917
DA:491,671613
DA:492,671613
DA:493,671613
DA:494,671613
DA:495,671613
DA:496,671917
DA:497,671917
DA:498,671917
DA:538,2
DA:539,2
DA:540,2
DA:541,2
DA:542,2
DA:543,2
DA:544,2
DA:547,373771
DA:548,373771
DA:549,373771
DA:550,373771
DA:551,373771
DA:552,373771
DA:553,373771
DA:554,373771
DA:560,672053
DA:561,672053
DA:562,672053
DA:563,671615
DA:567,2
DA:568,2
DA:569,2
DA:570,2
DA:571,2
DA:572,0
DA:573,2
DA:575,4
DA:576,4
DA:579,2
DA:580,2
DA:581,2
DA:582,2
DA:583,0
DA:584,0
DA:585,0
DA:588,2
DA:589,2
DA:590,2
DA:591,2
DA:592,0
DA:593,2
DA:594,2
DA:595,2
DA:596,0
DA:597,0
DA:598,0
DA:605,671613
DA:606,671613
DA:607,671613
DA:608,671613
DA:609,671613
DA:610,671613
DA:611,0
DA:612,671613
DA:616,729618
DA:617,83620
DA:618,24719
DA:619,58901
DA:620,58005
DA:621,58005
DA:622,896
DA:623,896
DA:624,896
DA:625,896
DA:626,896
DA:628,0
DA:629,0
DA:630,0
DA:634,671613
DA:638,373667
DA:639,373667
DA:640,0
DA:641,0
DA:644,373667
DA:645,373667
DA:646,297946
DA:649,90
DA:650,90
DA:651,0
DA:652,0
DA:655,90
DA:656,90
DA:657,297856
DA:661,1045812
DA:664,373759
DA:665,373759
DA:666,2
DA:667,373757
DA:669,0
DA:671,672053
DA:672,2
DA:673,671613
DA:674,672053
DA:675,672053
DA:700,110
DA:701,110
DA:702,110
DA:703,110
DA:704,110
DA:705,110
DA:706,110
DA:707,0
DA:708,0
DA:711,110
DA:713,129
DA:714,129
DA:715,18
DA:716,111
DA:717,111
DA:718,1
DA:719,0
DA:721,1
DA:722,110
DA:723,110
DA:724,110
DA:725,110
DA:726,110
DA:727,110
DA:728,110
DA:729,110
DA:730,19
DA:732,19
DA:752,1
DA:753,1
DA:754,1
DA:755,0
DA:757,1
DA:758,1
DA:759,0
DA:761,1
DA:763,855144
DA:764,855144
DA:765,855144
DA:766,855144
DA:767,855144
DA:769,1157214
DA:770,302070
DA:771,302070
DA:772,302070
DA:773,0
DA:774,0
DA:775,302070
DA:777,855144
DA:778,0
DA:779,0
DA:780,0
DA:784,855144
DA:790,671784
DA:791,671784
DA:792,671784
DA:793,671784
DA:794,671784
DA:795,671784
DA:796,671784
DA:797,671784
DA:798,671784
DA:799,671784
DA:800,671784
DA:801,671784
DA:802,671784
DA:803,671784
DA:804,671784
DA:805,671784
DA:806,671784
DA:807,671784
DA:808,671784
DA:809,671784
DA:810,671784
DA:811,671784
DA:812,671784
DA:813,671784
DA:814,671784
DA:815,671784
DA:816,671784
DA:817,671784
DA:818,671784
DA:819,671784
DA:820,671784
DA:821,817188
DA:822,145404
DA:823,145404
DA:825,671784
DA:826,813771
DA:835,141987
DA:836,141764
DA:837,141764
DA:838,223
DA:839,223
DA:840,223
DA:841,223
DA:842,223
DA:843,223
DA:844,223
DA:845,223
DA:846,223
DA:847,223
DA:848,223
DA:849,223
DA:850,223
DA:851,223
DA:852,223
DA:853,1
DA:854,2
DA:855,1
DA:856,222
DA:857,222
DA:859,306
DA:860,213
DA:861,213
DA:862,213
DA:863,128
DA:874,128
DA:875,1
DA:878,0
DA:879,0
DA:881,1
DA:882,1
DA:883,1
DA:884,127
DA:885,127
DA:886,127
DA:887,127
DA:888,127
DA:889,127
DA:890,127
DA:891,127
DA:892,127
DA:893,127
DA:894,127
DA:895,127
DA:896,127
DA:897,127
DA:898,127
DA:899,127
DA:900,127
DA:901,127
DA:902,127
DA:903,127
DA:904,127
DA:905,127
DA:906,2
DA:910,0
DA:911,0
DA:913,2
DA:914,2
DA:915,2
DA:916,2
DA:917,125
DA:918,0
DA:935,125
DA:936,8
DA:937,8
DA:938,8
DA:939,8
DA:940,8
DA:941,8
DA:942,8
DA:943,8
DA:944,8
DA:945,8
DA:946,8
DA:947,8
DA:948,8
DA:949,8
DA:950,8
DA:951,8
DA:952,8
DA:953,8
DA:955,1
DA:958,0
DA:960,7
DA:961,8
DA:962,8
DA:963,5
DA:964,5
DA:965,5
DA:966,5
DA:967,5
DA:968,5
DA:969,5
DA:970,3
DA:971,3
DA:972,3
DA:973,3
DA:974,3
DA:975,3
DA:976,3
DA:977,3
DA:978,3
DA:979,3
DA:980,3
DA:981,3
DA:982,3
DA:983,3
DA:984,3
DA:985,3
DA:988,8
DA:989,117
DA:1010,117
DA:1011,81
DA:1012,81
DA:1013,81
DA:1014,81
DA:1015,81
DA:1016,81
DA:1017,81
DA:1018,81
DA:1019,81
DA:1020,81
DA:1021,81
DA:1022,81
DA:1023,81
DA:1024,81
DA:1025,81
DA:1026,81
DA:1027,81
DA:1028,81
DA:1029,81
DA:1030,81
DA:1032,11
DA:1035,0
DA:1037,70
DA:1038,81
DA:1039,81
DA:1040,14
DA:1041,14
DA:1042,14
DA:1043,14
DA:1044,14
DA:1045,14
DA:1046,67
DA:1047,67
DA:1048,67
DA:1049,67
DA:1050,67
DA:1051,67
DA:1052,67
DA:1053,67
DA:1054,67
DA:1055,67
DA:1056,67
DA:1057,67
DA:1058,67
DA:1059,67
DA:1060,67
DA:1061,67
DA:1062,67
DA:1065,81
DA:1066,36
DA:1067,36
DA:1068,0
DA:1069,0
DA:1090,36
DA:1091,36
DA:1092,36
DA:1093,36
DA:1094,36
DA:1095,36
DA:1096,36
DA:1097,36
DA:1098,36
DA:1099,36
DA:1100,36
DA:1101,36
DA:1102,36
DA:1103,36
DA:1104,36
DA:1105,36
DA:1107,14
DA:1110,0
DA:1112,22
DA:1113,36
DA:1114,36
DA:1115,29
DA:1116,29
DA:1117,29
DA:1118,29
DA:1119,29
DA:1120,29
DA:1121,29
DA:1122,29
DA:1123,7
DA:1124,7
DA:1125,7
DA:1126,7
DA:1127,7
DA:1128,7
DA:1129,7
DA:1130,7
DA:1131,7
DA:1132,7
DA:1133,7
DA:1134,7
DA:1135,7
DA:1136,7
DA:1137,7
DA:1138,7
DA:1141,36
DA:1144,83
DA:1148,1
DA:1149,1
DA:1150,82
DA:1160,1
DA:1161,1
DA:1164,0
DA:1174,1
DA:1175,1
DA:1176,0
DA:1177,0
DA:1180,1
DA:1181,1
DA:1188,1
DA:1189,1
DA:1192,0
DA:1194,1
DA:1195,1
DA:1196,1
DA:1197,1
DA:1198,1
DA:1199,1
DA:1200,0
DA:1201,0
DA:1204,1
DA:1205,1
DA:1207,0
DA:1208,0
DA:1212,34
DA:1219,59
DA:1220,59
DA:1223,0
DA:1224,0
DA:1226,59
DA:1227,59
DA:1229,0
DA:1230,0
DA:1231,0
DA:1232,0
DA:1237,671784
DA:1246,141764
DA:1247,141764
DA:1248,141764
DA:1249,141764
DA:1250,141764
DA:1251,141764
DA:1252,141764
DA:1253,141764
DA:1256,146951
DA:1257,146951
DA:1259,12
DA:1260,146939
DA:1261,146939
DA:1262,146939
DA:1263,146939
DA:1264,146939
DA:1265,138048
DA:1266,8891
DA:1267,8891
DA:1268,5187
DA:1269,5187
DA:1270,5187
DA:1271,5187
DA:1272,5187
DA:1273,5187
DA:1274,5187
DA:1275,5187
DA:1276,5187
DA:1277,5187
DA:1278,0
DA:1279,0
DA:1280,5187
DA:1283,3700
DA:1284,3700
DA:1302,4
DA:1303,4
DA:1306,0
DA:1307,0
DA:1309,4
DA:1310,4
DA:1311,4
DA:1312,4
DA:1313,4
DA:1314,4
DA:1316,0
DA:1317,0
DA:1318,0
DA:1319,0
DA:1320,0
DA:1321,0
DA:1322,0
DA:1323,0
DA:1327,141764
DA:1335,5264
DA:1336,5264
DA:1337,5264
DA:1338,5264
DA:1339,5264
DA:1340,5264
DA:1341,5264
DA:1342,5264
DA:1343,5264
DA:1344,0
DA:1346,5264
DA:1347,5264
DA:1348,0
DA:1349,0
DA:1350,0
DA:1351,0
DA:1352,0
DA:1353,0
DA:1354,0
DA:1355,0
DA:1358,5264
DA:1359,5264
DA:1360,10777
DA:1361,5513
DA:1362,5511
DA:1363,2
DA:1367,0
DA:1368,0
DA:1369,0
DA:1370,0
DA:1371,0
DA:1372,0
DA:1376,5264
DA:1377,12
DA:1378,12
DA:1379,12
DA:1380,12
DA:1381,12
DA:1382,5252
DA:1390,5264
DA:1391,5264
DA:1396,5264
DA:1397,5264
DA:1398,5264
DA:1399,5264
DA:1400,5264
DA:1401,5264
DA:1402,5264
DA:1403,5264
DA:1404,5264
DA:1405,5264
DA:1406,5264
DA:1407,5523
DA:1408,5511
DA:1409,12
DA:1410,5523
DA:1411,5264
DA:1412,5264
DA:1413,5264
DA:1414,5264
DA:1415,5264
DA:1416,5264
DA:1417,5264
DA:1418,5264
DA:1419,5264
DA:1420,5264
DA:1421,5264
DA:1428,296132
DA:1429,296132
DA:1430,296132
DA:1431,296132
DA:1432,296132
DA:1433,296132
DA:1434,0
DA:1435,0
DA:1437,296132
DA:1438,0
DA:1440,296132
DA:1441,301582
DA:1442,281001
DA:1443,5462
DA:1446,5462
DA:1447,5462
DA:1448,5462
DA:1449,5462
DA:1450,12
DA:1451,12
DA:1452,5450
DA:1454,275478
DA:1457,61
DA:1458,61
DA:1462,296132
DA:1463,73
DA:1464,73
DA:1465,296059
DA:1466,296132
DA:1471,36
DA:1472,36
DA:1473,36
BRF:0
BRH:0
LF:820
LH:729
end_of_record
SF:/home/ubuntu/Code/ExpressGateway/crates/lb-quic/src/h3_bridge.rs
FN:2414,_RNCNCNvNtCsFtQQ2UsJ2c_7lb_quic9h3_bridge15h3_to_h1_stream00B7_
FN:2058,_RNCNCNvNtCsFtQQ2UsJ2c_7lb_quic9h3_bridge18h3_to_h1_roundtrip00B7_
FN:1071,_RNCNCNvNtCsFtQQ2UsJ2c_7lb_quic9h3_bridge23read_h1_response_capped00B7_
FN:1094,_RNCNCNvNtCsFtQQ2UsJ2c_7lb_quic9h3_bridge23read_h1_response_capped0s0_0B7_
FN:1091,_RNCNCNvNtCsFtQQ2UsJ2c_7lb_quic9h3_bridge23read_h1_response_capped0s_0B7_
FN:2401,_RNCNvNtCsFtQQ2UsJ2c_7lb_quic9h3_bridge15h3_to_h1_stream0B5_
FN:1047,_RNCNvNtCsFtQQ2UsJ2c_7lb_quic9h3_bridge16read_h1_response0B5_
FN:2046,_RNCNvNtCsFtQQ2UsJ2c_7lb_quic9h3_bridge18h3_to_h1_roundtrip0B5_
FN:2845,_RNCNvNtCsFtQQ2UsJ2c_7lb_quic9h3_bridge19request_h3_upstream0B5_
FN:1064,_RNCNvNtCsFtQQ2UsJ2c_7lb_quic9h3_bridge23read_h1_response_capped0B5_
FN:1619,_RNCNCNCNvNtCsFtQQ2UsJ2c_7lb_quic9h3_bridge18stream_h1_response0s_00B9_
FN:1990,_RNCNCNCNvNtCsFtQQ2UsJ2c_7lb_quic9h3_bridge18stream_h2_response0s1_00B9_
FN:3262,_RNCNCNvMs8_NtCsFtQQ2UsJ2c_7lb_quic9h3_bridgeNtB9_9H3RespOut11on_trailers00Bb_
FN:3267,_RNCNCNvMs8_NtCsFtQQ2UsJ2c_7lb_quic9h3_bridgeNtB9_9H3RespOut11on_trailers0s_0Bb_
FN:3277,_RNCNCNvMs8_NtCsFtQQ2UsJ2c_7lb_quic9h3_bridgeNtB9_9H3RespOut6on_end00Bb_
FN:3281,_RNCNCNvMs8_NtCsFtQQ2UsJ2c_7lb_quic9h3_bridgeNtB9_9H3RespOut6on_end0s_0Bb_
FN:3226,_RNCNCNvMs8_NtCsFtQQ2UsJ2c_7lb_quic9h3_bridgeNtB9_9H3RespOut7on_data00Bb_
FN:3236,_RNCNCNvMs8_NtCsFtQQ2UsJ2c_7lb_quic9h3_bridgeNtB9_9H3RespOut7on_data0s_0Bb_
FN:3184,_RNCNCNvMs8_NtCsFtQQ2UsJ2c_7lb_quic9h3_bridgeNtB9_9H3RespOut7on_head00Bb_
FN:3200,_RNCNCNvMs8_NtCsFtQQ2UsJ2c_7lb_quic9h3_bridgeNtB9_9H3RespOut7on_head0s_0Bb_
FN:2168,_RNCNCNvNtCsFtQQ2UsJ2c_7lb_quic9h3_bridge16write_body_chunk00B7_
FN:2170,_RNCNCNvNtCsFtQQ2UsJ2c_7lb_quic9h3_bridge16write_body_chunk0s0_0B7_
FN:2172,_RNCNCNvNtCsFtQQ2UsJ2c_7lb_quic9h3_bridge16write_body_chunk0s1_0B7_
FN:2169,_RNCNCNvNtCsFtQQ2UsJ2c_7lb_quic9h3_bridge16write_body_chunk0s_0B7_
FN:2251,_RNCNCNvNtCsFtQQ2UsJ2c_7lb_quic9h3_bridge16write_h1_request00B7_
FN:1604,_RNCNCNvNtCsFtQQ2UsJ2c_7lb_quic9h3_bridge18stream_h1_response00B7_
FN:1569,_RNCNCNvNtCsFtQQ2UsJ2c_7lb_quic9h3_bridge18stream_h1_response0s0_0B7_
FN:1569,_RNCNCNvNtCsFtQQ2UsJ2c_7lb_quic9h3_bridge18stream_h1_response0s1_0B7_
FN:1569,_RNCNCNvNtCsFtQQ2UsJ2c_7lb_quic9h3_bridge18stream_h1_response0s2_0B7_
FN:1569,_RNCNCNvNtCsFtQQ2UsJ2c_7lb_quic9h3_bridge18stream_h1_response0s3_0B7_
FN:1569,_RNCNCNvNtCsFtQQ2UsJ2c_7lb_quic9h3_bridge18stream_h1_response0s4_0B7_
FN:1569,_RNCNCNvNtCsFtQQ2UsJ2c_7lb_quic9h3_bridge18stream_h1_response0s5_0B7_
FN:1569,_RNCNCNvNtCsFtQQ2UsJ2c_7lb_quic9h3_bridge18stream_h1_response0s6_0B7_
FN:1569,_RNCNCNvNtCsFtQQ2UsJ2c_7lb_quic9h3_bridge18stream_h1_response0s7_0B7_
FN:1569,_RNCNCNvNtCsFtQQ2UsJ2c_7lb_quic9h3_bridge18stream_h1_response0s8_0B7_
FN:1619,_RNCNCNvNtCsFtQQ2UsJ2c_7lb_quic9h3_bridge18stream_h1_response0s_0B7_
FN:1903,_RNCNCNvNtCsFtQQ2UsJ2c_7lb_quic9h3_bridge18stream_h2_response00B7_
FN:1986,_RNCNCNvNtCsFtQQ2UsJ2c_7lb_quic9h3_bridge18stream_h2_response0s0_0B7_
FN:1987,_RNCNCNvNtCsFtQQ2UsJ2c_7lb_quic9h3_bridge18stream_h2_response0s1_0B7_
FN:1890,_RNCNCNvNtCsFtQQ2UsJ2c_7lb_quic9h3_bridge18stream_h2_response0s2_0B7_
FN:1890,_RNCNCNvNtCsFtQQ2UsJ2c_7lb_quic9h3_bridge18stream_h2_response0s3_0B7_
FN:1890,_RNCNCNvNtCsFtQQ2UsJ2c_7lb_quic9h3_bridge18stream_h2_response0s4_0B7_
FN:1890,_RNCNCNvNtCsFtQQ2UsJ2c_7lb_quic9h3_bridge18stream_h2_response0s5_0B7_
FN:1904,_RNCNCNvNtCsFtQQ2UsJ2c_7lb_quic9h3_bridge18stream_h2_response0s_0B7_
FN:4014,_RNCNCNvNtCsFtQQ2UsJ2c_7lb_quic9h3_bridge29stream_request_to_h3_upstream00B7_
FN:433,_RNCNvMs0_NtCsFtQQ2UsJ2c_7lb_quic9h3_bridgeNtB7_11StreamRxBuf4feed0B9_
FN:552,_RNCNvMs0_NtCsFtQQ2UsJ2c_7lb_quic9h3_bridgeNtB7_11StreamRxBuf9feed_body0B9_
FN:635,_RNCNvMs0_NtCsFtQQ2UsJ2c_7lb_quic9h3_bridgeNtB7_11StreamRxBuf9feed_bodys0_0B9_
FN:625,_RNCNvMs0_NtCsFtQQ2UsJ2c_7lb_quic9h3_bridgeNtB7_11StreamRxBuf9feed_bodys_0B9_
FN:841,_RNCNvMs2_NtCsFtQQ2UsJ2c_7lb_quic9h3_bridgeNtB7_9H3Request12from_headers0B9_
FN:842,_RNCNvMs2_NtCsFtQQ2UsJ2c_7lb_quic9h3_bridgeNtB7_9H3Request12from_headerss_0B9_
FN:1490,_RNCNvMs3_NtCsFtQQ2UsJ2c_7lb_quic9h3_bridgeNtB7_12ChunkDecoder21parse_trailer_section0B9_
FN:1505,_RNCNvMs3_NtCsFtQQ2UsJ2c_7lb_quic9h3_bridgeNtB7_12ChunkDecoder21parse_trailer_sections_0B9_
FN:1423,_RNCNvMs3_NtCsFtQQ2UsJ2c_7lb_quic9h3_bridgeNtB7_12ChunkDecoder4feed0B9_
FN:1439,_RNCNvMs3_NtCsFtQQ2UsJ2c_7lb_quic9h3_bridgeNtB7_12ChunkDecoder4feeds0_0B9_
FN:1445,_RNCNvMs3_NtCsFtQQ2UsJ2c_7lb_quic9h3_bridgeNtB7_12ChunkDecoder4feeds1_0B9_
FN:1437,_RNCNvMs3_NtCsFtQQ2UsJ2c_7lb_quic9h3_bridgeNtB7_12ChunkDecoder4feeds_0B9_
FN:3245,_RNCNvMs8_NtCsFtQQ2UsJ2c_7lb_quic9h3_bridgeNtB7_9H3RespOut11on_trailers0B9_
FN:3102,_RNCNvMs8_NtCsFtQQ2UsJ2c_7lb_quic9h3_bridgeNtB7_9H3RespOut6inline0B9_
FN:3272,_RNCNvMs8_NtCsFtQQ2UsJ2c_7lb_quic9h3_bridgeNtB7_9H3RespOut6on_end0B9_
FN:3209,_RNCNvMs8_NtCsFtQQ2UsJ2c_7lb_quic9h3_bridgeNtB7_9H3RespOut7on_data0B9_
FN:3142,_RNCNvMs8_NtCsFtQQ2UsJ2c_7lb_quic9h3_bridgeNtB7_9H3RespOut7on_head0B9_
FN:3288,_RNCNvMs8_NtCsFtQQ2UsJ2c_7lb_quic9h3_bridgeNtB7_9H3RespOut8on_reset0B9_
FN:2487,_RNCNvNCNvNtCsFtQQ2UsJ2c_7lb_quic9h3_bridge20h3_to_h1_stream_resp06inline0B9_
FN:2744,_RNCNvNCNvNtCsFtQQ2UsJ2c_7lb_quic9h3_bridge20h3_to_h2_stream_resp06inline0B9_
FN:1112,_RNCNvNtCsFtQQ2UsJ2c_7lb_quic9h3_bridge15find_header_sep0B5_
FN:2162,_RNCNvNtCsFtQQ2UsJ2c_7lb_quic9h3_bridge16write_body_chunk0B5_
FN:2237,_RNCNvNtCsFtQQ2UsJ2c_7lb_quic9h3_bridge16write_h1_request0B5_
FN:1120,_RNCNvNtCsFtQQ2UsJ2c_7lb_quic9h3_bridge17parse_status_line0B5_
FN:1564,_RNCNvNtCsFtQQ2UsJ2c_7lb_quic9h3_bridge18stream_h1_response0B5_
FN:1887,_RNCNvNtCsFtQQ2UsJ2c_7lb_quic9h3_bridge18stream_h2_response0B5_
FN:1267,_RNCNvNtCsFtQQ2UsJ2c_7lb_quic9h3_bridge20encode_h3_data_frame0B5_
FN:2483,_RNCNvNtCsFtQQ2UsJ2c_7lb_quic9h3_bridge20h3_to_h1_stream_resp0B5_
FN:2740,_RNCNvNtCsFtQQ2UsJ2c_7lb_quic9h3_bridge20h3_to_h2_stream_resp0B5_
FN:3320,_RNCNvNtCsFtQQ2UsJ2c_7lb_quic9h3_bridge20h3_to_h3_stream_resp0B5_
FN:1176,_RNCNvNtCsFtQQ2UsJ2c_7lb_quic9h3_bridge23encode_h3_headers_frame0B5_
FN:1177,_RNCNvNtCsFtQQ2UsJ2c_7lb_quic9h3_bridge23encode_h3_headers_frames_0B5_
FN:2710,_RNCNvNtCsFtQQ2UsJ2c_7lb_quic9h3_bridge23h2_request_body_from_rxs_0B5_
FN:1289,_RNCNvNtCsFtQQ2UsJ2c_7lb_quic9h3_bridge24encode_h3_trailers_frame0B5_
FN:1290,_RNCNvNtCsFtQQ2UsJ2c_7lb_quic9h3_bridge24encode_h3_trailers_frames_0B5_
FN:1217,_RNCNvNtCsFtQQ2UsJ2c_7lb_quic9h3_bridge28encode_h3_headers_frame_full0B5_
FN:1218,_RNCNvNtCsFtQQ2UsJ2c_7lb_quic9h3_bridge28encode_h3_headers_frame_fulls_0B5_
FN:3456,_RNCNvNtCsFtQQ2UsJ2c_7lb_quic9h3_bridge29stream_request_to_h3_upstream0B5_
FN:688,_RNvMs0_NtCsFtQQ2UsJ2c_7lb_quic9h3_bridgeNtB5_11StreamRxBuf12is_too_large
FN:701,_RNvMs0_NtCsFtQQ2UsJ2c_7lb_quic9h3_bridgeNtB5_11StreamRxBuf14retained_bytes
FN:670,_RNvMs0_NtCsFtQQ2UsJ2c_7lb_quic9h3_bridgeNtB5_11StreamRxBuf22try_parse_frame_header
FN:419,_RNvMs0_NtCsFtQQ2UsJ2c_7lb_quic9h3_bridgeNtB5_11StreamRxBuf4feed
FN:494,_RNvMs0_NtCsFtQQ2UsJ2c_7lb_quic9h3_bridgeNtB5_11StreamRxBuf9feed_body
FN:824,_RNvMs2_NtCsFtQQ2UsJ2c_7lb_quic9h3_bridgeNtB5_9H3Request12from_headers
FN:1371,_RNvMs3_NtCsFtQQ2UsJ2c_7lb_quic9h3_bridgeNtB5_12ChunkDecoder13take_trailers
FN:1481,_RNvMs3_NtCsFtQQ2UsJ2c_7lb_quic9h3_bridgeNtB5_12ChunkDecoder21parse_trailer_section
FN:1357,_RNvMs3_NtCsFtQQ2UsJ2c_7lb_quic9h3_bridgeNtB5_12ChunkDecoder3new
FN:1379,_RNvMs3_NtCsFtQQ2UsJ2c_7lb_quic9h3_bridgeNtB5_12ChunkDecoder4feed
FN:3245,_RNvMs8_NtCsFtQQ2UsJ2c_7lb_quic9h3_bridgeNtB5_9H3RespOut11on_trailers
FN:3102,_RNvMs8_NtCsFtQQ2UsJ2c_7lb_quic9h3_bridgeNtB5_9H3RespOut6inline
FN:3272,_RNvMs8_NtCsFtQQ2UsJ2c_7lb_quic9h3_bridgeNtB5_9H3RespOut6on_end
FN:3209,_RNvMs8_NtCsFtQQ2UsJ2c_7lb_quic9h3_bridgeNtB5_9H3RespOut7on_data
FN:3142,_RNvMs8_NtCsFtQQ2UsJ2c_7lb_quic9h3_bridgeNtB5_9H3RespOut7on_head
FN:3288,_RNvMs8_NtCsFtQQ2UsJ2c_7lb_quic9h3_bridgeNtB5_9H3RespOut8on_reset
FN:2487,_RNvNCNvNtCsFtQQ2UsJ2c_7lb_quic9h3_bridge20h3_to_h1_stream_resp06inline
FN:2744,_RNvNCNvNtCsFtQQ2UsJ2c_7lb_quic9h3_bridge20h3_to_h2_stream_resp06inline
FN:2093,_RNvNtCsFtQQ2UsJ2c_7lb_quic9h3_bridge13build_h1_head
FN:4335,_RNvNtCsFtQQ2UsJ2c_7lb_quic9h3_bridge15check_block_len
FN:1111,_RNvNtCsFtQQ2UsJ2c_7lb_quic9h3_bridge15find_header_sep
FN:2395,_RNvNtCsFtQQ2UsJ2c_7lb_quic9h3_bridge15h3_to_h1_stream
FN:2138,_RNvNtCsFtQQ2UsJ2c_7lb_quic9h3_bridge15record_inflight
FN:728,_RNvNtCsFtQQ2UsJ2c_7lb_quic9h3_bridge15record_retained
FN:1000,_RNvNtCsFtQQ2UsJ2c_7lb_quic9h3_bridge16build_h1_request
FN:1047,_RNvNtCsFtQQ2UsJ2c_7lb_quic9h3_bridge16read_h1_response
FN:2162,_RNvNtCsFtQQ2UsJ2c_7lb_quic9h3_bridge16write_body_chunk
FN:2233,_RNvNtCsFtQQ2UsJ2c_7lb_quic9h3_bridge16write_h1_request
FN:4386,_RNvNtCsFtQQ2UsJ2c_7lb_quic9h3_bridge17classify_recv_err
FN:1115,_RNvNtCsFtQQ2UsJ2c_7lb_quic9h3_bridge17parse_status_line
FN:1138,_RNvNtCsFtQQ2UsJ2c_7lb_quic9h3_bridge18encode_h3_response
FN:2041,_RNvNtCsFtQQ2UsJ2c_7lb_quic9h3_bridge18h3_to_h1_roundtrip
FN:4400,_RNvNtCsFtQQ2UsJ2c_7lb_quic9h3_bridge18parse_frame_header
FN:1560,_RNvNtCsFtQQ2UsJ2c_7lb_quic9h3_bridge18stream_h1_response
FN:1883,_RNvNtCsFtQQ2UsJ2c_7lb_quic9h3_bridge18stream_h2_response
FN:4312,_RNvNtCsFtQQ2UsJ2c_7lb_quic9h3_bridge19j2_req_event_action
FN:2838,_RNvNtCsFtQQ2UsJ2c_7lb_quic9h3_bridge19request_h3_upstream
FN:1263,_RNvNtCsFtQQ2UsJ2c_7lb_quic9h3_bridge20encode_h3_data_frame
FN:2476,_RNvNtCsFtQQ2UsJ2c_7lb_quic9h3_bridge20h3_to_h1_stream_resp
FN:2733,_RNvNtCsFtQQ2UsJ2c_7lb_quic9h3_bridge20h3_to_h2_stream_resp
FN:3312,_RNvNtCsFtQQ2UsJ2c_7lb_quic9h3_bridge20h3_to_h3_stream_resp
FN:765,_RNvNtCsFtQQ2UsJ2c_7lb_quic9h3_bridge20record_resp_retained
FN:1251,_RNvNtCsFtQQ2UsJ2c_7lb_quic9h3_bridge22is_response_hop_by_hop
FN:1165,_RNvNtCsFtQQ2UsJ2c_7lb_quic9h3_bridge23encode_h3_headers_frame
FN:2665,_RNvNtCsFtQQ2UsJ2c_7lb_quic9h3_bridge23h2_request_body_from_rx
FN:1064,_RNvNtCsFtQQ2UsJ2c_7lb_quic9h3_bridge23read_h1_response_capped
FN:1286,_RNvNtCsFtQQ2UsJ2c_7lb_quic9h3_bridge24encode_h3_trailers_frame
FN:1208,_RNvNtCsFtQQ2UsJ2c_7lb_quic9h3_bridge28encode_h3_headers_frame_full
FN:3448,_RNvNtCsFtQQ2UsJ2c_7lb_quic9h3_bridge29stream_request_to_h3_upstream
FN:890,_RNvNtCsFtQQ2UsJ2c_7lb_quic9h3_bridge31validate_request_pseudo_headers
FN:329,_RNvXNtCsFtQQ2UsJ2c_7lb_quic9h3_bridgeNtB2_9BodyParseNtNtCs2va5m0jqTTM_4core7default7Default7default
FN:807,_RNvXs1_NtCsFtQQ2UsJ2c_7lb_quic9h3_bridgeNtB5_9H3RequestNtNtCs2va5m0jqTTM_4core7default7Default7default
FN:2554,_RNvXs4_NtCsFtQQ2UsJ2c_7lb_quic9h3_bridgeNtB5_10H3ReqAbortNtNtCs2va5m0jqTTM_4core3fmt7Display3fmt
FN:2587,_RNvXs6_NtCsFtQQ2UsJ2c_7lb_quic9h3_bridgeNtB5_15H3ReqStreamBodyNtCsl5a7MsEZ2mF_9http_body4Body10poll_frame
FN:2810,_RNvXs7_NtCsFtQQ2UsJ2c_7lb_quic9h3_bridgeNtB5_18H3UpstreamResponseNtNtCs2va5m0jqTTM_4core7default7Default7default
FN:387,_RNvXs_NtCsFtQQ2UsJ2c_7lb_quic9h3_bridgeNtB4_9FeedErrorNtNtCs2va5m0jqTTM_4core3fmt7Display3fmt
FN:2058,_RNCNCNvNtCsFtQQ2UsJ2c_7lb_quic9h3_bridge18h3_to_h1_roundtrip00Cs9CX2GXVQwPX_21h3_h1_binary_body_e2e
FN:1071,_RNCNCNvNtCsFtQQ2UsJ2c_7lb_quic9h3_bridge23read_h1_response_capped00Cs9CX2GXVQwPX_21h3_h1_binary_body_e2e
FN:1094,_RNCNCNvNtCsFtQQ2UsJ2c_7lb_quic9h3_bridge23read_h1_response_capped0s0_0Cs9CX2GXVQwPX_21h3_h1_binary_body_e2e
FN:1091,_RNCNCNvNtCsFtQQ2UsJ2c_7lb_quic9h3_bridge23read_h1_response_capped0s_0Cs9CX2GXVQwPX_21h3_h1_binary_body_e2e
FN:1047,_RNCNvNtCsFtQQ2UsJ2c_7lb_quic9h3_bridge16read_h1_response0Cs9CX2GXVQwPX_21h3_h1_binary_body_e2e
FN:2046,_RNCNvNtCsFtQQ2UsJ2c_7lb_quic9h3_bridge18h3_to_h1_roundtrip0Cs9CX2GXVQwPX_21h3_h1_binary_body_e2e
FN:1064,_RNCNvNtCsFtQQ2UsJ2c_7lb_quic9h3_bridge23read_h1_response_capped0Cs9CX2GXVQwPX_21h3_h1_binary_body_e2e
FN:2414,_RNCNCNvNtCsFtQQ2UsJ2c_7lb_quic9h3_bridge15h3_to_h1_stream00Cs19teGkRmEuA_21h3_h1_stream_body_e2e
FN:1071,_RNCNCNvNtCsFtQQ2UsJ2c_7lb_quic9h3_bridge23read_h1_response_capped00Cs19teGkRmEuA_21h3_h1_stream_body_e2e
FN:1094,_RNCNCNvNtCsFtQQ2UsJ2c_7lb_quic9h3_bridge23read_h1_response_capped0s0_0Cs19teGkRmEuA_21h3_h1_stream_body_e2e
FN:1091,_RNCNCNvNtCsFtQQ2UsJ2c_7lb_quic9h3_bridge23read_h1_response_capped0s_0Cs19teGkRmEuA_21h3_h1_stream_body_e2e
FN:2401,_RNCNvNtCsFtQQ2UsJ2c_7lb_quic9h3_bridge15h3_to_h1_stream0Cs19teGkRmEuA_21h3_h1_stream_body_e2e
FN:1047,_RNCNvNtCsFtQQ2UsJ2c_7lb_quic9h3_bridge16read_h1_response0Cs19teGkRmEuA_21h3_h1_stream_body_e2e
FN:1064,_RNCNvNtCsFtQQ2UsJ2c_7lb_quic9h3_bridge23read_h1_response_capped0Cs19teGkRmEuA_21h3_h1_stream_body_e2e
FN:2414,_RNCNCNvNtCsFtQQ2UsJ2c_7lb_quic9h3_bridge15h3_to_h1_stream00Cs29XIsylJmqt_28h3_h1_stream_body_errors_e2e
FN:1071,_RNCNCNvNtCsFtQQ2UsJ2c_7lb_quic9h3_bridge23read_h1_response_capped00Cs29XIsylJmqt_28h3_h1_stream_body_errors_e2e
FN:1094,_RNCNCNvNtCsFtQQ2UsJ2c_7lb_quic9h3_bridge23read_h1_response_capped0s0_0Cs29XIsylJmqt_28h3_h1_stream_body_errors_e2e
FN:1091,_RNCNCNvNtCsFtQQ2UsJ2c_7lb_quic9h3_bridge23read_h1_response_capped0s_0Cs29XIsylJmqt_28h3_h1_stream_body_errors_e2e
FN:2401,_RNCNvNtCsFtQQ2UsJ2c_7lb_quic9h3_bridge15h3_to_h1_stream0Cs29XIsylJmqt_28h3_h1_stream_body_errors_e2e
FN:1047,_RNCNvNtCsFtQQ2UsJ2c_7lb_quic9h3_bridge16read_h1_response0Cs29XIsylJmqt_28h3_h1_stream_body_errors_e2e
FN:1064,_RNCNvNtCsFtQQ2UsJ2c_7lb_quic9h3_bridge23read_h1_response_capped0Cs29XIsylJmqt_28h3_h1_stream_body_errors_e2e
FN:1619,_RNCNCNCNvNtCsiNLkn7P4XgI_7lb_quic9h3_bridge18stream_h1_response0s_00B9_
FN:1990,_RNCNCNCNvNtCsiNLkn7P4XgI_7lb_quic9h3_bridge18stream_h2_response0s1_00B9_
FN:3262,_RNCNCNvMs8_NtCsiNLkn7P4XgI_7lb_quic9h3_bridgeNtB9_9H3RespOut11on_trailers00Bb_
FN:3267,_RNCNCNvMs8_NtCsiNLkn7P4XgI_7lb_quic9h3_bridgeNtB9_9H3RespOut11on_trailers0s_0Bb_
FN:3277,_RNCNCNvMs8_NtCsiNLkn7P4XgI_7lb_quic9h3_bridgeNtB9_9H3RespOut6on_end00Bb_
FN:3281,_RNCNCNvMs8_NtCsiNLkn7P4XgI_7lb_quic9h3_bridgeNtB9_9H3RespOut6on_end0s_0Bb_
FN:3226,_RNCNCNvMs8_NtCsiNLkn7P4XgI_7lb_quic9h3_bridgeNtB9_9H3RespOut7on_data00Bb_
FN:3236,_RNCNCNvMs8_NtCsiNLkn7P4XgI_7lb_quic9h3_bridgeNtB9_9H3RespOut7on_data0s_0Bb_
FN:3184,_RNCNCNvMs8_NtCsiNLkn7P4XgI_7lb_quic9h3_bridgeNtB9_9H3RespOut7on_head00Bb_
FN:3200,_RNCNCNvMs8_NtCsiNLkn7P4XgI_7lb_quic9h3_bridgeNtB9_9H3RespOut7on_head0s_0Bb_
FN:2168,_RNCNCNvNtCsiNLkn7P4XgI_7lb_quic9h3_bridge16write_body_chunk00B7_
FN:2170,_RNCNCNvNtCsiNLkn7P4XgI_7lb_quic9h3_bridge16write_body_chunk0s0_0B7_
FN:2172,_RNCNCNvNtCsiNLkn7P4XgI_7lb_quic9h3_bridge16write_body_chunk0s1_0B7_
FN:2169,_RNCNCNvNtCsiNLkn7P4XgI_7lb_quic9h3_bridge16write_body_chunk0s_0B7_
FN:2251,_RNCNCNvNtCsiNLkn7P4XgI_7lb_quic9h3_bridge16write_h1_request00B7_
FN:1604,_RNCNCNvNtCsiNLkn7P4XgI_7lb_quic9h3_bridge18stream_h1_response00B7_
FN:1569,_RNCNCNvNtCsiNLkn7P4XgI_7lb_quic9h3_bridge18stream_h1_response0s0_0B7_
FN:1569,_RNCNCNvNtCsiNLkn7P4XgI_7lb_quic9h3_bridge18stream_h1_response0s1_0B7_
FN:1569,_RNCNCNvNtCsiNLkn7P4XgI_7lb_quic9h3_bridge18stream_h1_response0s2_0B7_
FN:1569,_RNCNCNvNtCsiNLkn7P4XgI_7lb_quic9h3_bridge18stream_h1_response0s3_0B7_
FN:1569,_RNCNCNvNtCsiNLkn7P4XgI_7lb_quic9h3_bridge18stream_h1_response0s4_0B7_
FN:1569,_RNCNCNvNtCsiNLkn7P4XgI_7lb_quic9h3_bridge18stream_h1_response0s5_0B7_
FN:1569,_RNCNCNvNtCsiNLkn7P4XgI_7lb_quic9h3_bridge18stream_h1_response0s6_0B7_
FN:1569,_RNCNCNvNtCsiNLkn7P4XgI_7lb_quic9h3_bridge18stream_h1_response0s7_0B7_
FN:1569,_RNCNCNvNtCsiNLkn7P4XgI_7lb_quic9h3_bridge18stream_h1_response0s8_0B7_
FN:1619,_RNCNCNvNtCsiNLkn7P4XgI_7lb_quic9h3_bridge18stream_h1_response0s_0B7_
FN:1903,_RNCNCNvNtCsiNLkn7P4XgI_7lb_quic9h3_bridge18stream_h2_response00B7_
FN:1986,_RNCNCNvNtCsiNLkn7P4XgI_7lb_quic9h3_bridge18stream_h2_response0s0_0B7_
FN:1987,_RNCNCNvNtCsiNLkn7P4XgI_7lb_quic9h3_bridge18stream_h2_response0s1_0B7_
FN:1890,_RNCNCNvNtCsiNLkn7P4XgI_7lb_quic9h3_bridge18stream_h2_response0s2_0B7_
FN:1890,_RNCNCNvNtCsiNLkn7P4XgI_7lb_quic9h3_bridge18stream_h2_response0s3_0B7_
FN:1890,_RNCNCNvNtCsiNLkn7P4XgI_7lb_quic9h3_bridge18stream_h2_response0s4_0B7_
FN:1890,_RNCNCNvNtCsiNLkn7P4XgI_7lb_quic9h3_bridge18stream_h2_response0s5_0B7_
FN:1904,_RNCNCNvNtCsiNLkn7P4XgI_7lb_quic9h3_bridge18stream_h2_response0s_0B7_
FN:1071,_RNCNCNvNtCsiNLkn7P4XgI_7lb_quic9h3_bridge23read_h1_response_capped00B7_
FN:1094,_RNCNCNvNtCsiNLkn7P4XgI_7lb_quic9h3_bridge23read_h1_response_capped0s0_0B7_
FN:1091,_RNCNCNvNtCsiNLkn7P4XgI_7lb_quic9h3_bridge23read_h1_response_capped0s_0B7_
FN:4014,_RNCNCNvNtCsiNLkn7P4XgI_7lb_quic9h3_bridge29stream_request_to_h3_upstream00B7_
FN:433,_RNCNvMs0_NtCsiNLkn7P4XgI_7lb_quic9h3_bridgeNtB7_11StreamRxBuf4feed0B9_
FN:552,_RNCNvMs0_NtCsiNLkn7P4XgI_7lb_quic9h3_bridgeNtB7_11StreamRxBuf9feed_body0B9_
FN:635,_RNCNvMs0_NtCsiNLkn7P4XgI_7lb_quic9h3_bridgeNtB7_11StreamRxBuf9feed_bodys0_0B9_
FN:625,_RNCNvMs0_NtCsiNLkn7P4XgI_7lb_quic9h3_bridgeNtB7_11StreamRxBuf9feed_bodys_0B9_
FN:841,_RNCNvMs2_NtCsiNLkn7P4XgI_7lb_quic9h3_bridgeNtB7_9H3Request12from_headers0B9_
FN:842,_RNCNvMs2_NtCsiNLkn7P4XgI_7lb_quic9h3_bridgeNtB7_9H3Request12from_headerss_0B9_
FN:1490,_RNCNvMs3_NtCsiNLkn7P4XgI_7lb_quic9h3_bridgeNtB7_12ChunkDecoder21parse_trailer_section0B9_
FN:1505,_RNCNvMs3_NtCsiNLkn7P4XgI_7lb_quic9h3_bridgeNtB7_12ChunkDecoder21parse_trailer_sections_0B9_
FN:1423,_RNCNvMs3_NtCsiNLkn7P4XgI_7lb_quic9h3_bridgeNtB7_12ChunkDecoder4feed0B9_
FN:1439,_RNCNvMs3_NtCsiNLkn7P4XgI_7lb_quic9h3_bridgeNtB7_12ChunkDecoder4feeds0_0B9_
FN:1445,_RNCNvMs3_NtCsiNLkn7P4XgI_7lb_quic9h3_bridgeNtB7_12ChunkDecoder4feeds1_0B9_
FN:1437,_RNCNvMs3_NtCsiNLkn7P4XgI_7lb_quic9h3_bridgeNtB7_12ChunkDecoder4feeds_0B9_
FN:3245,_RNCNvMs8_NtCsiNLkn7P4XgI_7lb_quic9h3_bridgeNtB7_9H3RespOut11on_trailers0B9_
FN:3102,_RNCNvMs8_NtCsiNLkn7P4XgI_7lb_quic9h3_bridgeNtB7_9H3RespOut6inline0B9_
FN:3272,_RNCNvMs8_NtCsiNLkn7P4XgI_7lb_quic9h3_bridgeNtB7_9H3RespOut6on_end0B9_
FN:3209,_RNCNvMs8_NtCsiNLkn7P4XgI_7lb_quic9h3_bridgeNtB7_9H3RespOut7on_data0B9_
FN:3142,_RNCNvMs8_NtCsiNLkn7P4XgI_7lb_quic9h3_bridgeNtB7_9H3RespOut7on_head0B9_
FN:3288,_RNCNvMs8_NtCsiNLkn7P4XgI_7lb_quic9h3_bridgeNtB7_9H3RespOut8on_reset0B9_
FN:2487,_RNCNvNCNvNtCsiNLkn7P4XgI_7lb_quic9h3_bridge20h3_to_h1_stream_resp06inline0B9_
FN:2744,_RNCNvNCNvNtCsiNLkn7P4XgI_7lb_quic9h3_bridge20h3_to_h2_stream_resp06inline0B9_
FN:1112,_RNCNvNtCsiNLkn7P4XgI_7lb_quic9h3_bridge15find_header_sep0B5_
FN:2162,_RNCNvNtCsiNLkn7P4XgI_7lb_quic9h3_bridge16write_body_chunk0B5_
FN:2237,_RNCNvNtCsiNLkn7P4XgI_7lb_quic9h3_bridge16write_h1_request0B5_
FN:1120,_RNCNvNtCsiNLkn7P4XgI_7lb_quic9h3_bridge17parse_status_line0B5_
FN:1564,_RNCNvNtCsiNLkn7P4XgI_7lb_quic9h3_bridge18stream_h1_response0B5_
FN:1887,_RNCNvNtCsiNLkn7P4XgI_7lb_quic9h3_bridge18stream_h2_response0B5_
FN:1267,_RNCNvNtCsiNLkn7P4XgI_7lb_quic9h3_bridge20encode_h3_data_frame0B5_
FN:2483,_RNCNvNtCsiNLkn7P4XgI_7lb_quic9h3_bridge20h3_to_h1_stream_resp0B5_
FN:2740,_RNCNvNtCsiNLkn7P4XgI_7lb_quic9h3_bridge20h3_to_h2_stream_resp0B5_
FN:3320,_RNCNvNtCsiNLkn7P4XgI_7lb_quic9h3_bridge20h3_to_h3_stream_resp0B5_
FN:1176,_RNCNvNtCsiNLkn7P4XgI_7lb_quic9h3_bridge23encode_h3_headers_frame0B5_
FN:1177,_RNCNvNtCsiNLkn7P4XgI_7lb_quic9h3_bridge23encode_h3_headers_frames_0B5_
FN:2710,_RNCNvNtCsiNLkn7P4XgI_7lb_quic9h3_bridge23h2_request_body_from_rxs_0B5_
FN:1064,_RNCNvNtCsiNLkn7P4XgI_7lb_quic9h3_bridge23read_h1_response_capped0B5_
FN:1289,_RNCNvNtCsiNLkn7P4XgI_7lb_quic9h3_bridge24encode_h3_trailers_frame0B5_
FN:1290,_RNCNvNtCsiNLkn7P4XgI_7lb_quic9h3_bridge24encode_h3_trailers_frames_0B5_
FN:1217,_RNCNvNtCsiNLkn7P4XgI_7lb_quic9h3_bridge28encode_h3_headers_frame_full0B5_
FN:1218,_RNCNvNtCsiNLkn7P4XgI_7lb_quic9h3_bridge28encode_h3_headers_frame_fulls_0B5_
FN:3456,_RNCNvNtCsiNLkn7P4XgI_7lb_quic9h3_bridge29stream_request_to_h3_upstream0B5_
FN:701,_RNvMs0_NtCsiNLkn7P4XgI_7lb_quic9h3_bridgeNtB5_11StreamRxBuf14retained_bytes
FN:670,_RNvMs0_NtCsiNLkn7P4XgI_7lb_quic9h3_bridgeNtB5_11StreamRxBuf22try_parse_frame_header
FN:419,_RNvMs0_NtCsiNLkn7P4XgI_7lb_quic9h3_bridgeNtB5_11StreamRxBuf4feed
FN:494,_RNvMs0_NtCsiNLkn7P4XgI_7lb_quic9h3_bridgeNtB5_11StreamRxBuf9feed_body
FN:824,_RNvMs2_NtCsiNLkn7P4XgI_7lb_quic9h3_bridgeNtB5_9H3Request12from_headers
FN:1371,_RNvMs3_NtCsiNLkn7P4XgI_7lb_quic9h3_bridgeNtB5_12ChunkDecoder13take_trailers
FN:1481,_RNvMs3_NtCsiNLkn7P4XgI_7lb_quic9h3_bridgeNtB5_12ChunkDecoder21parse_trailer_section
FN:1357,_RNvMs3_NtCsiNLkn7P4XgI_7lb_quic9h3_bridgeNtB5_12ChunkDecoder3new
FN:1379,_RNvMs3_NtCsiNLkn7P4XgI_7lb_quic9h3_bridgeNtB5_12ChunkDecoder4feed
FN:3245,_RNvMs8_NtCsiNLkn7P4XgI_7lb_quic9h3_bridgeNtB5_9H3RespOut11on_trailers
FN:3102,_RNvMs8_NtCsiNLkn7P4XgI_7lb_quic9h3_bridgeNtB5_9H3RespOut6inline
FN:3272,_RNvMs8_NtCsiNLkn7P4XgI_7lb_quic9h3_bridgeNtB5_9H3RespOut6on_end
FN:3209,_RNvMs8_NtCsiNLkn7P4XgI_7lb_quic9h3_bridgeNtB5_9H3RespOut7on_data
FN:3142,_RNvMs8_NtCsiNLkn7P4XgI_7lb_quic9h3_bridgeNtB5_9H3RespOut7on_head
FN:3288,_RNvMs8_NtCsiNLkn7P4XgI_7lb_quic9h3_bridgeNtB5_9H3RespOut8on_reset
FN:2487,_RNvNCNvNtCsiNLkn7P4XgI_7lb_quic9h3_bridge20h3_to_h1_stream_resp06inline
FN:2744,_RNvNCNvNtCsiNLkn7P4XgI_7lb_quic9h3_bridge20h3_to_h2_stream_resp06inline
FN:2093,_RNvNtCsiNLkn7P4XgI_7lb_quic9h3_bridge13build_h1_head
FN:4335,_RNvNtCsiNLkn7P4XgI_7lb_quic9h3_bridge15check_block_len
FN:1111,_RNvNtCsiNLkn7P4XgI_7lb_quic9h3_bridge15find_header_sep
FN:2138,_RNvNtCsiNLkn7P4XgI_7lb_quic9h3_bridge15record_inflight
FN:728,_RNvNtCsiNLkn7P4XgI_7lb_quic9h3_bridge15record_retained
FN:1000,_RNvNtCsiNLkn7P4XgI_7lb_quic9h3_bridge16build_h1_request
FN:2162,_RNvNtCsiNLkn7P4XgI_7lb_quic9h3_bridge16write_body_chunk
FN:2233,_RNvNtCsiNLkn7P4XgI_7lb_quic9h3_bridge16write_h1_request
FN:4386,_RNvNtCsiNLkn7P4XgI_7lb_quic9h3_bridge17classify_recv_err
FN:1115,_RNvNtCsiNLkn7P4XgI_7lb_quic9h3_bridge17parse_status_line
FN:1138,_RNvNtCsiNLkn7P4XgI_7lb_quic9h3_bridge18encode_h3_response
FN:4400,_RNvNtCsiNLkn7P4XgI_7lb_quic9h3_bridge18parse_frame_header
FN:1560,_RNvNtCsiNLkn7P4XgI_7lb_quic9h3_bridge18stream_h1_response
FN:1883,_RNvNtCsiNLkn7P4XgI_7lb_quic9h3_bridge18stream_h2_response
FN:4312,_RNvNtCsiNLkn7P4XgI_7lb_quic9h3_bridge19j2_req_event_action
FN:1263,_RNvNtCsiNLkn7P4XgI_7lb_quic9h3_bridge20encode_h3_data_frame
FN:2476,_RNvNtCsiNLkn7P4XgI_7lb_quic9h3_bridge20h3_to_h1_stream_resp
FN:2733,_RNvNtCsiNLkn7P4XgI_7lb_quic9h3_bridge20h3_to_h2_stream_resp
FN:3312,_RNvNtCsiNLkn7P4XgI_7lb_quic9h3_bridge20h3_to_h3_stream_resp
FN:765,_RNvNtCsiNLkn7P4XgI_7lb_quic9h3_bridge20record_resp_retained
FN:1251,_RNvNtCsiNLkn7P4XgI_7lb_quic9h3_bridge22is_response_hop_by_hop
FN:1165,_RNvNtCsiNLkn7P4XgI_7lb_quic9h3_bridge23encode_h3_headers_frame
FN:2665,_RNvNtCsiNLkn7P4XgI_7lb_quic9h3_bridge23h2_request_body_from_rx
FN:1064,_RNvNtCsiNLkn7P4XgI_7lb_quic9h3_bridge23read_h1_response_capped
FN:1286,_RNvNtCsiNLkn7P4XgI_7lb_quic9h3_bridge24encode_h3_trailers_frame
FN:1208,_RNvNtCsiNLkn7P4XgI_7lb_quic9h3_bridge28encode_h3_headers_frame_full
FN:3448,_RNvNtCsiNLkn7P4XgI_7lb_quic9h3_bridge29stream_request_to_h3_upstream
FN:890,_RNvNtCsiNLkn7P4XgI_7lb_quic9h3_bridge31validate_request_pseudo_headers
FN:329,_RNvXNtCsiNLkn7P4XgI_7lb_quic9h3_bridgeNtB2_9BodyParseNtNtCs2va5m0jqTTM_4core7default7Default7default
FN:2554,_RNvXs4_NtCsiNLkn7P4XgI_7lb_quic9h3_bridgeNtB5_10H3ReqAbortNtNtCs2va5m0jqTTM_4core3fmt7Display3fmt
FN:2587,_RNvXs6_NtCsiNLkn7P4XgI_7lb_quic9h3_bridgeNtB5_15H3ReqStreamBodyNtCsl5a7MsEZ2mF_9http_body4Body10poll_frame
FN:2414,_RNCNCNvNtCsiNLkn7P4XgI_7lb_quic9h3_bridge15h3_to_h1_stream00B7_
FN:2058,_RNCNCNvNtCsiNLkn7P4XgI_7lb_quic9h3_bridge18h3_to_h1_roundtrip00B7_
FN:2401,_RNCNvNtCsiNLkn7P4XgI_7lb_quic9h3_bridge15h3_to_h1_stream0B5_
FN:1047,_RNCNvNtCsiNLkn7P4XgI_7lb_quic9h3_bridge16read_h1_response0B5_
FN:2046,_RNCNvNtCsiNLkn7P4XgI_7lb_quic9h3_bridge18h3_to_h1_roundtrip0B5_
FN:2845,_RNCNvNtCsiNLkn7P4XgI_7lb_quic9h3_bridge19request_h3_upstream0B5_
FN:688,_RNvMs0_NtCsiNLkn7P4XgI_7lb_quic9h3_bridgeNtB5_11StreamRxBuf12is_too_large
FN:2395,_RNvNtCsiNLkn7P4XgI_7lb_quic9h3_bridge15h3_to_h1_stream
FN:1047,_RNvNtCsiNLkn7P4XgI_7lb_quic9h3_bridge16read_h1_response
FN:2041,_RNvNtCsiNLkn7P4XgI_7lb_quic9h3_bridge18h3_to_h1_roundtrip
FN:2838,_RNvNtCsiNLkn7P4XgI_7lb_quic9h3_bridge19request_h3_upstream
FN:807,_RNvXs1_NtCsiNLkn7P4XgI_7lb_quic9h3_bridgeNtB5_9H3RequestNtNtCs2va5m0jqTTM_4core7default7Default7default
FN:2810,_RNvXs7_NtCsiNLkn7P4XgI_7lb_quic9h3_bridgeNtB5_18H3UpstreamResponseNtNtCs2va5m0jqTTM_4core7default7Default7default
FN:387,_RNvXs_NtCsiNLkn7P4XgI_7lb_quic9h3_bridgeNtB4_9FeedErrorNtNtCs2va5m0jqTTM_4core3fmt7Display3fmt
FN:4865,_RNCNCNvNtNtCsiNLkn7P4XgI_7lb_quic9h3_bridge5testss_35feed_body_accepts_valid_h3_trailers00B9_
FN:5146,_RNCNCNvNtNtCsiNLkn7P4XgI_7lb_quic9h3_bridge5testss_49g5_h2_request_body_from_rx_head_construction_arms00B9_
FN:5221,_RNCNCNvNtNtCsiNLkn7P4XgI_7lb_quic9h3_bridge5testss_50g5_h3_to_h2_stream_resp_inline_413_and_502_no_dial00B9_
FN:5261,_RNCNCNvNtNtCsiNLkn7P4XgI_7lb_quic9h3_bridge5testss_50g5_h3_to_h2_stream_resp_inline_413_and_502_no_dial0s_0B9_
FN:4760,_RNCNCNvNtNtCsiNLkn7P4XgI_7lb_quic9h3_bridge5testss_61read_h1_response_capped_rejects_over_cap_and_passes_under_cap00B9_
FN:4786,_RNCNCNvNtNtCsiNLkn7P4XgI_7lb_quic9h3_bridge5testss_61read_h1_response_capped_rejects_over_cap_and_passes_under_cap0s_0B9_
FN:4424,_RNCNvNtNtCsiNLkn7P4XgI_7lb_quic9h3_bridge5tests1h0B7_
FN:4864,_RNCNvNtNtCsiNLkn7P4XgI_7lb_quic9h3_bridge5testss_35feed_body_accepts_valid_h3_trailers0B7_
FN:4655,_RNCNvNtNtCsiNLkn7P4XgI_7lb_quic9h3_bridge5testss_43encode_h3_response_includes_status_and_body0B7_
FN:4659,_RNCNvNtNtCsiNLkn7P4XgI_7lb_quic9h3_bridge5testss_43encode_h3_response_includes_status_and_bodys_0B7_
FN:5277,_RNCNvNtNtCsiNLkn7P4XgI_7lb_quic9h3_bridge5testss_49encode_h3_headers_frame_none_omits_content_length0B7_
FN:5279,_RNCNvNtNtCsiNLkn7P4XgI_7lb_quic9h3_bridge5testss_49encode_h3_headers_frame_none_omits_content_lengths_0B7_
FN:5114,_RNCNvNtNtCsiNLkn7P4XgI_7lb_quic9h3_bridge5testss_49g5_h2_request_body_from_rx_head_construction_arms0B7_
FN:5004,_RNCNvNtNtCsiNLkn7P4XgI_7lb_quic9h3_bridge5testss_49s6_i2_h3_req_stream_body_frame_and_abort_contract0B7_
FN:5179,_RNCNvNtNtCsiNLkn7P4XgI_7lb_quic9h3_bridge5testss_50g5_h3_to_h2_stream_resp_inline_413_and_502_no_dial0B7_
FN:4980,_RNCNvNtNtCsiNLkn7P4XgI_7lb_quic9h3_bridge5testss_50s6_i1_stream_h2_response_reencode_framing_contract0B7_
FN:4938,_RNCNvNtNtCsiNLkn7P4XgI_7lb_quic9h3_bridge5testss_50s6_i1_stream_h2_response_reencode_framing_contracts0_0B7_
FN:4948,_RNCNvNtNtCsiNLkn7P4XgI_7lb_quic9h3_bridge5testss_50s6_i1_stream_h2_response_reencode_framing_contracts1_0B7_
FN:4990,_RNCNvNtNtCsiNLkn7P4XgI_7lb_quic9h3_bridge5testss_50s6_i1_stream_h2_response_reencode_framing_contracts2_0B7_
FN:4992,_RNCNvNtNtCsiNLkn7P4XgI_7lb_quic9h3_bridge5testss_50s6_i1_stream_h2_response_reencode_framing_contracts3_0B7_
FN:4936,_RNCNvNtNtCsiNLkn7P4XgI_7lb_quic9h3_bridge5testss_50s6_i1_stream_h2_response_reencode_framing_contracts_0B7_
FN:5686,_RNCNvNtNtCsiNLkn7P4XgI_7lb_quic9h3_bridge5testss_52s12_decoded_sink_on_head_forwards_full_nonpseudo_set0B7_
FN:5656,_RNCNvNtNtCsiNLkn7P4XgI_7lb_quic9h3_bridge5testss_55s12_decoded_sink_on_trailers_emits_h3respevent_trailers0B7_
FN:4745,_RNCNvNtNtCsiNLkn7P4XgI_7lb_quic9h3_bridge5testss_61read_h1_response_capped_rejects_over_cap_and_passes_under_cap0B7_
FN:4421,_RNvNtNtCsiNLkn7P4XgI_7lb_quic9h3_bridge5tests1h
FN:5497,_RNvNtNtCsiNLkn7P4XgI_7lb_quic9h3_bridge5testss_27s7_j2_request_send_decision
FN:4475,_RNvNtNtCsiNLkn7P4XgI_7lb_quic9h3_bridge5testss_28pseudo_12_duplicate_rejected
FN:4630,_RNvNtNtCsiNLkn7P4XgI_7lb_quic9h3_bridge5testss_28pseudo_connect_request_rules
FN:5428,_RNvNtNtCsiNLkn7P4XgI_7lb_quic9h3_bridge5testss_31s7_j1_recv_half_frame_machinery
FN:5287,_RNvNtNtCsiNLkn7P4XgI_7lb_quic9h3_bridge5testss_34chunk_decoder_decodes_split_chunks
FN:4844,_RNvNtNtCsiNLkn7P4XgI_7lb_quic9h3_bridge5testss_35feed_body_accepts_valid_h3_trailers
FN:5094,_RNvNtNtCsiNLkn7P4XgI_7lb_quic9h3_bridge5testss_36g5_h3reqabort_display_and_error_impl
FN:4494,_RNvNtNtCsiNLkn7P4XgI_7lb_quic9h3_bridge5testss_36pseudo_13_missing_mandatory_rejected
FN:5603,_RNvNtNtCsiNLkn7P4XgI_7lb_quic9h3_bridge5testss_36s7_j5_recv_stream_err_classification
FN:4525,_RNvNtNtCsiNLkn7P4XgI_7lb_quic9h3_bridge5testss_38pseudo_15_after_regular_field_rejected
FN:5349,_RNvNtNtCsiNLkn7P4XgI_7lb_quic9h3_bridge5testss_39chunk_decoder_parses_trailer_section_c4
FN:5333,_RNvNtNtCsiNLkn7P4XgI_7lb_quic9h3_bridge5testss_39chunk_decoder_tolerates_chunk_extension
FN:4505,_RNvNtNtCsiNLkn7P4XgI_7lb_quic9h3_bridge5testss_40pseudo_14_prohibited_or_unknown_rejected
FN:4871,_RNvNtNtCsiNLkn7P4XgI_7lb_quic9h3_bridge5testss_41stream_rx_buf_accumulates_partial_headers
FN:5303,_RNvNtNtCsiNLkn7P4XgI_7lb_quic9h3_bridge5testss_42chunk_decoder_rejects_malformed_framing_c3
FN:4645,_RNvNtNtCsiNLkn7P4XgI_7lb_quic9h3_bridge5testss_43encode_h3_response_includes_status_and_body
FN:4811,_RNvNtNtCsiNLkn7P4XgI_7lb_quic9h3_bridge5testss_46feed_body_rejects_pseudo_header_in_h3_trailers
FN:4429,_RNvNtNtCsiNLkn7P4XgI_7lb_quic9h3_bridge5testss_46pseudo_valid_request_accepted_negative_control
FN:4539,_RNvNtNtCsiNLkn7P4XgI_7lb_quic9h3_bridge5testss_47feed_11_data_before_headers_is_frame_unexpected
FN:5270,_RNvNtNtCsiNLkn7P4XgI_7lb_quic9h3_bridge5testss_49encode_h3_headers_frame_none_omits_content_length
FN:5114,_RNvNtNtCsiNLkn7P4XgI_7lb_quic9h3_bridge5testss_49g5_h2_request_body_from_rx_head_construction_arms
FN:5004,_RNvNtNtCsiNLkn7P4XgI_7lb_quic9h3_bridge5testss_49s6_i2_h3_req_stream_body_frame_and_abort_contract
FN:5179,_RNvNtNtCsiNLkn7P4XgI_7lb_quic9h3_bridge5testss_50g5_h3_to_h2_stream_resp_inline_413_and_502_no_dial
FN:4928,_RNvNtNtCsiNLkn7P4XgI_7lb_quic9h3_bridge5testss_50s6_i1_stream_h2_response_reencode_framing_contract
FN:4453,_RNvNtNtCsiNLkn7P4XgI_7lb_quic9h3_bridge5testss_51pseudo_13_absent_authority_rejected_for_http_scheme
FN:5686,_RNvNtNtCsiNLkn7P4XgI_7lb_quic9h3_bridge5testss_52s12_decoded_sink_on_head_forwards_full_nonpseudo_set
FN:4898,_RNvNtNtCsiNLkn7P4XgI_7lb_quic9h3_bridge5testss_53encode_h3_response_is_byte_identical_to_split_helpers
FN:5656,_RNvNtNtCsiNLkn7P4XgI_7lb_quic9h3_bridge5testss_55s12_decoded_sink_on_trailers_emits_h3respevent_trailers
FN:4554,_RNvNtNtCsiNLkn7P4XgI_7lb_quic9h3_bridge5testss_57feed_21_cancel_push_on_request_stream_is_frame_unexpected
FN:4601,_RNvNtNtCsiNLkn7P4XgI_7lb_quic9h3_bridge5testss_57feed_unknown_grease_frame_is_ignored_then_headers_decodes
FN:4582,_RNvNtNtCsiNLkn7P4XgI_7lb_quic9h3_bridge5testss_58feed_22_invalid_qpack_static_index_is_decompression_failed
FN:4745,_RNvNtNtCsiNLkn7P4XgI_7lb_quic9h3_bridge5testss_61read_h1_response_capped_rejects_over_cap_and_passes_under_cap
FN:4668,_RNvNtNtCsiNLkn7P4XgI_7lb_quic9h3_bridge5testss_63build_h1_request_none_body_is_byte_identical_to_legacy_bodyless
FN:4709,_RNvNtNtCsiNLkn7P4XgI_7lb_quic9h3_bridge5testss_76s2_target_build_h1_request_with_body_sets_content_length_and_appends_payload
FNDA:0,_RNCNCNvNtCsFtQQ2UsJ2c_7lb_quic9h3_bridge15h3_to_h1_stream00B7_
FNDA:0,_RNCNCNvNtCsFtQQ2UsJ2c_7lb_quic9h3_bridge18h3_to_h1_roundtrip00B7_
FNDA:0,_RNCNCNvNtCsFtQQ2UsJ2c_7lb_quic9h3_bridge23read_h1_response_capped00B7_
FNDA:0,_RNCNCNvNtCsFtQQ2UsJ2c_7lb_quic9h3_bridge23read_h1_response_capped0s0_0B7_
FNDA:0,_RNCNCNvNtCsFtQQ2UsJ2c_7lb_quic9h3_bridge23read_h1_response_capped0s_0B7_
FNDA:0,_RNCNvNtCsFtQQ2UsJ2c_7lb_quic9h3_bridge15h3_to_h1_stream0B5_
FNDA:0,_RNCNvNtCsFtQQ2UsJ2c_7lb_quic9h3_bridge16read_h1_response0B5_
FNDA:0,_RNCNvNtCsFtQQ2UsJ2c_7lb_quic9h3_bridge18h3_to_h1_roundtrip0B5_
FNDA:0,_RNCNvNtCsFtQQ2UsJ2c_7lb_quic9h3_bridge19request_h3_upstream0B5_
FNDA:0,_RNCNvNtCsFtQQ2UsJ2c_7lb_quic9h3_bridge23read_h1_response_capped0B5_
FNDA:0,_RNCNCNCNvNtCsFtQQ2UsJ2c_7lb_quic9h3_bridge18stream_h1_response0s_00B9_
FNDA:2,_RNCNCNCNvNtCsFtQQ2UsJ2c_7lb_quic9h3_bridge18stream_h2_response0s1_00B9_
FNDA:0,_RNCNCNvMs8_NtCsFtQQ2UsJ2c_7lb_quic9h3_bridgeNtB9_9H3RespOut11on_trailers00Bb_
FNDA:0,_RNCNCNvMs8_NtCsFtQQ2UsJ2c_7lb_quic9h3_bridgeNtB9_9H3RespOut11on_trailers0s_0Bb_
FNDA:0,_RNCNCNvMs8_NtCsFtQQ2UsJ2c_7lb_quic9h3_bridgeNtB9_9H3RespOut6on_end00Bb_
FNDA:0,_RNCNCNvMs8_NtCsFtQQ2UsJ2c_7lb_quic9h3_bridgeNtB9_9H3RespOut6on_end0s_0Bb_
FNDA:1,_RNCNCNvMs8_NtCsFtQQ2UsJ2c_7lb_quic9h3_bridgeNtB9_9H3RespOut7on_data00Bb_
FNDA:0,_RNCNCNvMs8_NtCsFtQQ2UsJ2c_7lb_quic9h3_bridgeNtB9_9H3RespOut7on_data0s_0Bb_
FNDA:0,_RNCNCNvMs8_NtCsFtQQ2UsJ2c_7lb_quic9h3_bridgeNtB9_9H3RespOut7on_head00Bb_
FNDA:0,_RNCNCNvMs8_NtCsFtQQ2UsJ2c_7lb_quic9h3_bridgeNtB9_9H3RespOut7on_head0s_0Bb_
FNDA:1,_RNCNCNvNtCsFtQQ2UsJ2c_7lb_quic9h3_bridge16write_body_chunk00B7_
FNDA:0,_RNCNCNvNtCsFtQQ2UsJ2c_7lb_quic9h3_bridge16write_body_chunk0s0_0B7_
FNDA:0,_RNCNCNvNtCsFtQQ2UsJ2c_7lb_quic9h3_bridge16write_body_chunk0s1_0B7_
FNDA:0,_RNCNCNvNtCsFtQQ2UsJ2c_7lb_quic9h3_bridge16write_body_chunk0s_0B7_
FNDA:1,_RNCNCNvNtCsFtQQ2UsJ2c_7lb_quic9h3_bridge16write_h1_request00B7_
FNDA:0,_RNCNCNvNtCsFtQQ2UsJ2c_7lb_quic9h3_bridge18stream_h1_response00B7_
FNDA:0,_RNCNCNvNtCsFtQQ2UsJ2c_7lb_quic9h3_bridge18stream_h1_response0s0_0B7_
FNDA:0,_RNCNCNvNtCsFtQQ2UsJ2c_7lb_quic9h3_bridge18stream_h1_response0s1_0B7_
FNDA:2,_RNCNCNvNtCsFtQQ2UsJ2c_7lb_quic9h3_bridge18stream_h1_response0s2_0B7_
FNDA:0,_RNCNCNvNtCsFtQQ2UsJ2c_7lb_quic9h3_bridge18stream_h1_response0s3_0B7_
FNDA:0,_RNCNCNvNtCsFtQQ2UsJ2c_7lb_quic9h3_bridge18stream_h1_response0s4_0B7_
FNDA:0,_RNCNCNvNtCsFtQQ2UsJ2c_7lb_quic9h3_bridge18stream_h1_response0s5_0B7_
FNDA:0,_RNCNCNvNtCsFtQQ2UsJ2c_7lb_quic9h3_bridge18stream_h1_response0s6_0B7_
FNDA:0,_RNCNCNvNtCsFtQQ2UsJ2c_7lb_quic9h3_bridge18stream_h1_response0s7_0B7_
FNDA:0,_RNCNCNvNtCsFtQQ2UsJ2c_7lb_quic9h3_bridge18stream_h1_response0s8_0B7_
FNDA:33,_RNCNCNvNtCsFtQQ2UsJ2c_7lb_quic9h3_bridge18stream_h1_response0s_0B7_
FNDA:7,_RNCNCNvNtCsFtQQ2UsJ2c_7lb_quic9h3_bridge18stream_h2_response00B7_
FNDA:2,_RNCNCNvNtCsFtQQ2UsJ2c_7lb_quic9h3_bridge18stream_h2_response0s0_0B7_
FNDA:2,_RNCNCNvNtCsFtQQ2UsJ2c_7lb_quic9h3_bridge18stream_h2_response0s1_0B7_
FNDA:1,_RNCNCNvNtCsFtQQ2UsJ2c_7lb_quic9h3_bridge18stream_h2_response0s2_0B7_
FNDA:0,_RNCNCNvNtCsFtQQ2UsJ2c_7lb_quic9h3_bridge18stream_h2_response0s3_0B7_
FNDA:0,_RNCNCNvNtCsFtQQ2UsJ2c_7lb_quic9h3_bridge18stream_h2_response0s4_0B7_
FNDA:0,_RNCNCNvNtCsFtQQ2UsJ2c_7lb_quic9h3_bridge18stream_h2_response0s5_0B7_
FNDA:7,_RNCNCNvNtCsFtQQ2UsJ2c_7lb_quic9h3_bridge18stream_h2_response0s_0B7_
FNDA:2,_RNCNCNvNtCsFtQQ2UsJ2c_7lb_quic9h3_bridge29stream_request_to_h3_upstream00B7_
FNDA:1,_RNCNvMs0_NtCsFtQQ2UsJ2c_7lb_quic9h3_bridgeNtB7_11StreamRxBuf4feed0B9_
FNDA:0,_RNCNvMs0_NtCsFtQQ2UsJ2c_7lb_quic9h3_bridgeNtB7_11StreamRxBuf9feed_body0B9_
FNDA:3,_RNCNvMs0_NtCsFtQQ2UsJ2c_7lb_quic9h3_bridgeNtB7_11StreamRxBuf9feed_bodys0_0B9_
FNDA:0,_RNCNvMs0_NtCsFtQQ2UsJ2c_7lb_quic9h3_bridgeNtB7_11StreamRxBuf9feed_bodys_0B9_
FNDA:0,_RNCNvMs2_NtCsFtQQ2UsJ2c_7lb_quic9h3_bridgeNtB7_9H3Request12from_headers0B9_
FNDA:0,_RNCNvMs2_NtCsFtQQ2UsJ2c_7lb_quic9h3_bridgeNtB7_9H3Request12from_headerss_0B9_
FNDA:876,_RNCNvMs3_NtCsFtQQ2UsJ2c_7lb_quic9h3_bridgeNtB7_12ChunkDecoder21parse_trailer_section0B9_
FNDA:0,_RNCNvMs3_NtCsFtQQ2UsJ2c_7lb_quic9h3_bridgeNtB7_12ChunkDecoder21parse_trailer_sections_0B9_
FNDA:101,_RNCNvMs3_NtCsFtQQ2UsJ2c_7lb_quic9h3_bridgeNtB7_12ChunkDecoder4feed0B9_
FNDA:0,_RNCNvMs3_NtCsFtQQ2UsJ2c_7lb_quic9h3_bridgeNtB7_12ChunkDecoder4feeds0_0B9_
FNDA:2,_RNCNvMs3_NtCsFtQQ2UsJ2c_7lb_quic9h3_bridgeNtB7_12ChunkDecoder4feeds1_0B9_
FNDA:70,_RNCNvMs3_NtCsFtQQ2UsJ2c_7lb_quic9h3_bridgeNtB7_12ChunkDecoder4feeds_0B9_
FNDA:1,_RNCNvMs8_NtCsFtQQ2UsJ2c_7lb_quic9h3_bridgeNtB7_9H3RespOut11on_trailers0B9_
FNDA:60,_RNCNvMs8_NtCsFtQQ2UsJ2c_7lb_quic9h3_bridgeNtB7_9H3RespOut6inline0B9_
FNDA:10,_RNCNvMs8_NtCsFtQQ2UsJ2c_7lb_quic9h3_bridgeNtB7_9H3RespOut6on_end0B9_
FNDA:37612,_RNCNvMs8_NtCsFtQQ2UsJ2c_7lb_quic9h3_bridgeNtB7_9H3RespOut7on_data0B9_
FNDA:16,_RNCNvMs8_NtCsFtQQ2UsJ2c_7lb_quic9h3_bridgeNtB7_9H3RespOut7on_head0B9_
FNDA:12,_RNCNvMs8_NtCsFtQQ2UsJ2c_7lb_quic9h3_bridgeNtB7_9H3RespOut8on_reset0B9_
FNDA:2,_RNCNvNCNvNtCsFtQQ2UsJ2c_7lb_quic9h3_bridge20h3_to_h1_stream_resp06inline0B9_
FNDA:1,_RNCNvNCNvNtCsFtQQ2UsJ2c_7lb_quic9h3_bridge20h3_to_h2_stream_resp06inline0B9_
FNDA:1959,_RNCNvNtCsFtQQ2UsJ2c_7lb_quic9h3_bridge15find_header_sep0B5_
FNDA:674,_RNCNvNtCsFtQQ2UsJ2c_7lb_quic9h3_bridge16write_body_chunk0B5_
FNDA:38,_RNCNvNtCsFtQQ2UsJ2c_7lb_quic9h3_bridge16write_h1_request0B5_
FNDA:0,_RNCNvNtCsFtQQ2UsJ2c_7lb_quic9h3_bridge17parse_status_line0B5_
FNDA:34,_RNCNvNtCsFtQQ2UsJ2c_7lb_quic9h3_bridge18stream_h1_response0B5_
FNDA:14,_RNCNvNtCsFtQQ2UsJ2c_7lb_quic9h3_bridge18stream_h2_response0B5_
FNDA:0,_RNCNvNtCsFtQQ2UsJ2c_7lb_quic9h3_bridge20encode_h3_data_frame0B5_
FNDA:36,_RNCNvNtCsFtQQ2UsJ2c_7lb_quic9h3_bridge20h3_to_h1_stream_resp0B5_
FNDA:8,_RNCNvNtCsFtQQ2UsJ2c_7lb_quic9h3_bridge20h3_to_h2_stream_resp0B5_
FNDA:81,_RNCNvNtCsFtQQ2UsJ2c_7lb_quic9h3_bridge20h3_to_h3_stream_resp0B5_
FNDA:0,_RNCNvNtCsFtQQ2UsJ2c_7lb_quic9h3_bridge23encode_h3_headers_frame0B5_
FNDA:0,_RNCNvNtCsFtQQ2UsJ2c_7lb_quic9h3_bridge23encode_h3_headers_frames_0B5_
FNDA:0,_RNCNvNtCsFtQQ2UsJ2c_7lb_quic9h3_bridge23h2_request_body_from_rxs_0B5_
FNDA:0,_RNCNvNtCsFtQQ2UsJ2c_7lb_quic9h3_bridge24encode_h3_trailers_frame0B5_
FNDA:0,_RNCNvNtCsFtQQ2UsJ2c_7lb_quic9h3_bridge24encode_h3_trailers_frames_0B5_
FNDA:0,_RNCNvNtCsFtQQ2UsJ2c_7lb_quic9h3_bridge28encode_h3_headers_frame_full0B5_
FNDA:0,_RNCNvNtCsFtQQ2UsJ2c_7lb_quic9h3_bridge28encode_h3_headers_frame_fulls_0B5_
FNDA:81,_RNCNvNtCsFtQQ2UsJ2c_7lb_quic9h3_bridge29stream_request_to_h3_upstream0B5_
FNDA:1,_RNvMs0_NtCsFtQQ2UsJ2c_7lb_quic9h3_bridgeNtB5_11StreamRxBuf12is_too_large
FNDA:5252,_RNvMs0_NtCsFtQQ2UsJ2c_7lb_quic9h3_bridgeNtB5_11StreamRxBuf14retained_bytes
FNDA:1951,_RNvMs0_NtCsFtQQ2UsJ2c_7lb_quic9h3_bridgeNtB5_11StreamRxBuf22try_parse_frame_header
FNDA:214,_RNvMs0_NtCsFtQQ2UsJ2c_7lb_quic9h3_bridgeNtB5_11StreamRxBuf4feed
FNDA:5266,_RNvMs0_NtCsFtQQ2UsJ2c_7lb_quic9h3_bridgeNtB5_11StreamRxBuf9feed_body
FNDA:127,_RNvMs2_NtCsFtQQ2UsJ2c_7lb_quic9h3_bridgeNtB5_9H3Request12from_headers
FNDA:4,_RNvMs3_NtCsFtQQ2UsJ2c_7lb_quic9h3_bridgeNtB5_12ChunkDecoder13take_trailers
FNDA:65,_RNvMs3_NtCsFtQQ2UsJ2c_7lb_quic9h3_bridgeNtB5_12ChunkDecoder21parse_trailer_section
FNDA:9,_RNvMs3_NtCsFtQQ2UsJ2c_7lb_quic9h3_bridgeNtB5_12ChunkDecoder3new
FNDA:98,_RNvMs3_NtCsFtQQ2UsJ2c_7lb_quic9h3_bridgeNtB5_12ChunkDecoder4feed
FNDA:1,_RNvMs8_NtCsFtQQ2UsJ2c_7lb_quic9h3_bridgeNtB5_9H3RespOut11on_trailers
FNDA:60,_RNvMs8_NtCsFtQQ2UsJ2c_7lb_quic9h3_bridgeNtB5_9H3RespOut6inline
FNDA:10,_RNvMs8_NtCsFtQQ2UsJ2c_7lb_quic9h3_bridgeNtB5_9H3RespOut6on_end
FNDA:37612,_RNvMs8_NtCsFtQQ2UsJ2c_7lb_quic9h3_bridgeNtB5_9H3RespOut7on_data
FNDA:16,_RNvMs8_NtCsFtQQ2UsJ2c_7lb_quic9h3_bridgeNtB5_9H3RespOut7on_head
FNDA:12,_RNvMs8_NtCsFtQQ2UsJ2c_7lb_quic9h3_bridgeNtB5_9H3RespOut8on_reset
FNDA:2,_RNvNCNvNtCsFtQQ2UsJ2c_7lb_quic9h3_bridge20h3_to_h1_stream_resp06inline
FNDA:1,_RNvNCNvNtCsFtQQ2UsJ2c_7lb_quic9h3_bridge20h3_to_h2_stream_resp06inline
FNDA:38,_RNvNtCsFtQQ2UsJ2c_7lb_quic9h3_bridge13build_h1_head
FNDA:21,_RNvNtCsFtQQ2UsJ2c_7lb_quic9h3_bridge15check_block_len
FNDA:69,_RNvNtCsFtQQ2UsJ2c_7lb_quic9h3_bridge15find_header_sep
FNDA:2,_RNvNtCsFtQQ2UsJ2c_7lb_quic9h3_bridge15h3_to_h1_stream
FNDA:703,_RNvNtCsFtQQ2UsJ2c_7lb_quic9h3_bridge15record_inflight
FNDA:5264,_RNvNtCsFtQQ2UsJ2c_7lb_quic9h3_bridge15record_retained
FNDA:1,_RNvNtCsFtQQ2UsJ2c_7lb_quic9h3_bridge16build_h1_request
FNDA:1,_RNvNtCsFtQQ2UsJ2c_7lb_quic9h3_bridge16read_h1_response
FNDA:674,_RNvNtCsFtQQ2UsJ2c_7lb_quic9h3_bridge16write_body_chunk
FNDA:38,_RNvNtCsFtQQ2UsJ2c_7lb_quic9h3_bridge16write_h1_request
FNDA:36343,_RNvNtCsFtQQ2UsJ2c_7lb_quic9h3_bridge17classify_recv_err
FNDA:34,_RNvNtCsFtQQ2UsJ2c_7lb_quic9h3_bridge17parse_status_line
FNDA:68,_RNvNtCsFtQQ2UsJ2c_7lb_quic9h3_bridge18encode_h3_response
FNDA:1,_RNvNtCsFtQQ2UsJ2c_7lb_quic9h3_bridge18h3_to_h1_roundtrip
FNDA:16271,_RNvNtCsFtQQ2UsJ2c_7lb_quic9h3_bridge18parse_frame_header
FNDA:34,_RNvNtCsFtQQ2UsJ2c_7lb_quic9h3_bridge18stream_h1_response
FNDA:14,_RNvNtCsFtQQ2UsJ2c_7lb_quic9h3_bridge18stream_h2_response
FNDA:2524,_RNvNtCsFtQQ2UsJ2c_7lb_quic9h3_bridge19j2_req_event_action
FNDA:0,_RNvNtCsFtQQ2UsJ2c_7lb_quic9h3_bridge19request_h3_upstream
FNDA:60515,_RNvNtCsFtQQ2UsJ2c_7lb_quic9h3_bridge20encode_h3_data_frame
FNDA:36,_RNvNtCsFtQQ2UsJ2c_7lb_quic9h3_bridge20h3_to_h1_stream_resp
FNDA:8,_RNvNtCsFtQQ2UsJ2c_7lb_quic9h3_bridge20h3_to_h2_stream_resp
FNDA:81,_RNvNtCsFtQQ2UsJ2c_7lb_quic9h3_bridge20h3_to_h3_stream_resp
FNDA:671917,_RNvNtCsFtQQ2UsJ2c_7lb_quic9h3_bridge20record_resp_retained
FNDA:51,_RNvNtCsFtQQ2UsJ2c_7lb_quic9h3_bridge22is_response_hop_by_hop
FNDA:68,_RNvNtCsFtQQ2UsJ2c_7lb_quic9h3_bridge23encode_h3_headers_frame
FNDA:8,_RNvNtCsFtQQ2UsJ2c_7lb_quic9h3_bridge23h2_request_body_from_rx
FNDA:1,_RNvNtCsFtQQ2UsJ2c_7lb_quic9h3_bridge23read_h1_response_capped
FNDA:5,_RNvNtCsFtQQ2UsJ2c_7lb_quic9h3_bridge24encode_h3_trailers_frame
FNDA:63,_RNvNtCsFtQQ2UsJ2c_7lb_quic9h3_bridge28encode_h3_headers_frame_full
FNDA:81,_RNvNtCsFtQQ2UsJ2c_7lb_quic9h3_bridge29stream_request_to_h3_upstream
FNDA:128,_RNvNtCsFtQQ2UsJ2c_7lb_quic9h3_bridge31validate_request_pseudo_headers
FNDA:6236,_RNvXNtCsFtQQ2UsJ2c_7lb_quic9h3_bridgeNtB2_9BodyParseNtNtCs2va5m0jqTTM_4core7default7Default7default
FNDA:0,_RNvXs1_NtCsFtQQ2UsJ2c_7lb_quic9h3_bridgeNtB5_9H3RequestNtNtCs2va5m0jqTTM_4core7default7Default7default
FNDA:0,_RNvXs4_NtCsFtQQ2UsJ2c_7lb_quic9h3_bridgeNtB5_10H3ReqAbortNtNtCs2va5m0jqTTM_4core3fmt7Display3fmt
FNDA:2229,_RNvXs6_NtCsFtQQ2UsJ2c_7lb_quic9h3_bridgeNtB5_15H3ReqStreamBodyNtCsl5a7MsEZ2mF_9http_body4Body10poll_frame
FNDA:0,_RNvXs7_NtCsFtQQ2UsJ2c_7lb_quic9h3_bridgeNtB5_18H3UpstreamResponseNtNtCs2va5m0jqTTM_4core7default7Default7default
FNDA:0,_RNvXs_NtCsFtQQ2UsJ2c_7lb_quic9h3_bridgeNtB4_9FeedErrorNtNtCs2va5m0jqTTM_4core3fmt7Display3fmt
FNDA:0,_RNCNCNvNtCsFtQQ2UsJ2c_7lb_quic9h3_bridge18h3_to_h1_roundtrip00Cs9CX2GXVQwPX_21h3_h1_binary_body_e2e
FNDA:0,_RNCNCNvNtCsFtQQ2UsJ2c_7lb_quic9h3_bridge23read_h1_response_capped00Cs9CX2GXVQwPX_21h3_h1_binary_body_e2e
FNDA:0,_RNCNCNvNtCsFtQQ2UsJ2c_7lb_quic9h3_bridge23read_h1_response_capped0s0_0Cs9CX2GXVQwPX_21h3_h1_binary_body_e2e
FNDA:0,_RNCNCNvNtCsFtQQ2UsJ2c_7lb_quic9h3_bridge23read_h1_response_capped0s_0Cs9CX2GXVQwPX_21h3_h1_binary_body_e2e
FNDA:1,_RNCNvNtCsFtQQ2UsJ2c_7lb_quic9h3_bridge16read_h1_response0Cs9CX2GXVQwPX_21h3_h1_binary_body_e2e
FNDA:1,_RNCNvNtCsFtQQ2UsJ2c_7lb_quic9h3_bridge18h3_to_h1_roundtrip0Cs9CX2GXVQwPX_21h3_h1_binary_body_e2e
FNDA:1,_RNCNvNtCsFtQQ2UsJ2c_7lb_quic9h3_bridge23read_h1_response_capped0Cs9CX2GXVQwPX_21h3_h1_binary_body_e2e
FNDA:0,_RNCNCNvNtCsFtQQ2UsJ2c_7lb_quic9h3_bridge15h3_to_h1_stream00Cs19teGkRmEuA_21h3_h1_stream_body_e2e
FNDA:0,_RNCNCNvNtCsFtQQ2UsJ2c_7lb_quic9h3_bridge23read_h1_response_capped00Cs19teGkRmEuA_21h3_h1_stream_body_e2e
FNDA:0,_RNCNCNvNtCsFtQQ2UsJ2c_7lb_quic9h3_bridge23read_h1_response_capped0s0_0Cs19teGkRmEuA_21h3_h1_stream_body_e2e
FNDA:0,_RNCNCNvNtCsFtQQ2UsJ2c_7lb_quic9h3_bridge23read_h1_response_capped0s_0Cs19teGkRmEuA_21h3_h1_stream_body_e2e
FNDA:1,_RNCNvNtCsFtQQ2UsJ2c_7lb_quic9h3_bridge15h3_to_h1_stream0Cs19teGkRmEuA_21h3_h1_stream_body_e2e
FNDA:0,_RNCNvNtCsFtQQ2UsJ2c_7lb_quic9h3_bridge16read_h1_response0Cs19teGkRmEuA_21h3_h1_stream_body_e2e
FNDA:0,_RNCNvNtCsFtQQ2UsJ2c_7lb_quic9h3_bridge23read_h1_response_capped0Cs19teGkRmEuA_21h3_h1_stream_body_e2e
FNDA:0,_RNCNCNvNtCsFtQQ2UsJ2c_7lb_quic9h3_bridge15h3_to_h1_stream00Cs29XIsylJmqt_28h3_h1_stream_body_errors_e2e
FNDA:0,_RNCNCNvNtCsFtQQ2UsJ2c_7lb_quic9h3_bridge23read_h1_response_capped00Cs29XIsylJmqt_28h3_h1_stream_body_errors_e2e
FNDA:0,_RNCNCNvNtCsFtQQ2UsJ2c_7lb_quic9h3_bridge23read_h1_response_capped0s0_0Cs29XIsylJmqt_28h3_h1_stream_body_errors_e2e
FNDA:0,_RNCNCNvNtCsFtQQ2UsJ2c_7lb_quic9h3_bridge23read_h1_response_capped0s_0Cs29XIsylJmqt_28h3_h1_stream_body_errors_e2e
FNDA:1,_RNCNvNtCsFtQQ2UsJ2c_7lb_quic9h3_bridge15h3_to_h1_stream0Cs29XIsylJmqt_28h3_h1_stream_body_errors_e2e
FNDA:0,_RNCNvNtCsFtQQ2UsJ2c_7lb_quic9h3_bridge16read_h1_response0Cs29XIsylJmqt_28h3_h1_stream_body_errors_e2e
FNDA:0,_RNCNvNtCsFtQQ2UsJ2c_7lb_quic9h3_bridge23read_h1_response_capped0Cs29XIsylJmqt_28h3_h1_stream_body_errors_e2e
FNDA:0,_RNCNCNCNvNtCsiNLkn7P4XgI_7lb_quic9h3_bridge18stream_h1_response0s_00B9_
FNDA:0,_RNCNCNCNvNtCsiNLkn7P4XgI_7lb_quic9h3_bridge18stream_h2_response0s1_00B9_
FNDA:0,_RNCNCNvMs8_NtCsiNLkn7P4XgI_7lb_quic9h3_bridgeNtB9_9H3RespOut11on_trailers00Bb_
FNDA:0,_RNCNCNvMs8_NtCsiNLkn7P4XgI_7lb_quic9h3_bridgeNtB9_9H3RespOut11on_trailers0s_0Bb_
FNDA:0,_RNCNCNvMs8_NtCsiNLkn7P4XgI_7lb_quic9h3_bridgeNtB9_9H3RespOut6on_end00Bb_
FNDA:0,_RNCNCNvMs8_NtCsiNLkn7P4XgI_7lb_quic9h3_bridgeNtB9_9H3RespOut6on_end0s_0Bb_
FNDA:0,_RNCNCNvMs8_NtCsiNLkn7P4XgI_7lb_quic9h3_bridgeNtB9_9H3RespOut7on_data00Bb_
FNDA:0,_RNCNCNvMs8_NtCsiNLkn7P4XgI_7lb_quic9h3_bridgeNtB9_9H3RespOut7on_data0s_0Bb_
FNDA:0,_RNCNCNvMs8_NtCsiNLkn7P4XgI_7lb_quic9h3_bridgeNtB9_9H3RespOut7on_head00Bb_
FNDA:0,_RNCNCNvMs8_NtCsiNLkn7P4XgI_7lb_quic9h3_bridgeNtB9_9H3RespOut7on_head0s_0Bb_
FNDA:0,_RNCNCNvNtCsiNLkn7P4XgI_7lb_quic9h3_bridge16write_body_chunk00B7_
FNDA:0,_RNCNCNvNtCsiNLkn7P4XgI_7lb_quic9h3_bridge16write_body_chunk0s0_0B7_
FNDA:0,_RNCNCNvNtCsiNLkn7P4XgI_7lb_quic9h3_bridge16write_body_chunk0s1_0B7_
FNDA:0,_RNCNCNvNtCsiNLkn7P4XgI_7lb_quic9h3_bridge16write_body_chunk0s_0B7_
FNDA:0,_RNCNCNvNtCsiNLkn7P4XgI_7lb_quic9h3_bridge16write_h1_request00B7_
FNDA:0,_RNCNCNvNtCsiNLkn7P4XgI_7lb_quic9h3_bridge18stream_h1_response00B7_
FNDA:0,_RNCNCNvNtCsiNLkn7P4XgI_7lb_quic9h3_bridge18stream_h1_response0s0_0B7_
FNDA:0,_RNCNCNvNtCsiNLkn7P4XgI_7lb_quic9h3_bridge18stream_h1_response0s1_0B7_
FNDA:0,_RNCNCNvNtCsiNLkn7P4XgI_7lb_quic9h3_bridge18stream_h1_response0s2_0B7_
FNDA:0,_RNCNCNvNtCsiNLkn7P4XgI_7lb_quic9h3_bridge18stream_h1_response0s3_0B7_
FNDA:0,_RNCNCNvNtCsiNLkn7P4XgI_7lb_quic9h3_bridge18stream_h1_response0s4_0B7_
FNDA:0,_RNCNCNvNtCsiNLkn7P4XgI_7lb_quic9h3_bridge18stream_h1_response0s5_0B7_
FNDA:0,_RNCNCNvNtCsiNLkn7P4XgI_7lb_quic9h3_bridge18stream_h1_response0s6_0B7_
FNDA:0,_RNCNCNvNtCsiNLkn7P4XgI_7lb_quic9h3_bridge18stream_h1_response0s7_0B7_
FNDA:0,_RNCNCNvNtCsiNLkn7P4XgI_7lb_quic9h3_bridge18stream_h1_response0s8_0B7_
FNDA:0,_RNCNCNvNtCsiNLkn7P4XgI_7lb_quic9h3_bridge18stream_h1_response0s_0B7_
FNDA:0,_RNCNCNvNtCsiNLkn7P4XgI_7lb_quic9h3_bridge18stream_h2_response00B7_
FNDA:0,_RNCNCNvNtCsiNLkn7P4XgI_7lb_quic9h3_bridge18stream_h2_response0s0_0B7_
FNDA:0,_RNCNCNvNtCsiNLkn7P4XgI_7lb_quic9h3_bridge18stream_h2_response0s1_0B7_
FNDA:0,_RNCNCNvNtCsiNLkn7P4XgI_7lb_quic9h3_bridge18stream_h2_response0s2_0B7_
FNDA:0,_RNCNCNvNtCsiNLkn7P4XgI_7lb_quic9h3_bridge18stream_h2_response0s3_0B7_
FNDA:0,_RNCNCNvNtCsiNLkn7P4XgI_7lb_quic9h3_bridge18stream_h2_response0s4_0B7_
FNDA:0,_RNCNCNvNtCsiNLkn7P4XgI_7lb_quic9h3_bridge18stream_h2_response0s5_0B7_
FNDA:0,_RNCNCNvNtCsiNLkn7P4XgI_7lb_quic9h3_bridge18stream_h2_response0s_0B7_
FNDA:0,_RNCNCNvNtCsiNLkn7P4XgI_7lb_quic9h3_bridge23read_h1_response_capped00B7_
FNDA:0,_RNCNCNvNtCsiNLkn7P4XgI_7lb_quic9h3_bridge23read_h1_response_capped0s0_0B7_
FNDA:0,_RNCNCNvNtCsiNLkn7P4XgI_7lb_quic9h3_bridge23read_h1_response_capped0s_0B7_
FNDA:0,_RNCNCNvNtCsiNLkn7P4XgI_7lb_quic9h3_bridge29stream_request_to_h3_upstream00B7_
FNDA:1,_RNCNvMs0_NtCsiNLkn7P4XgI_7lb_quic9h3_bridgeNtB7_11StreamRxBuf4feed0B9_
FNDA:0,_RNCNvMs0_NtCsiNLkn7P4XgI_7lb_quic9h3_bridgeNtB7_11StreamRxBuf9feed_body0B9_
FNDA:3,_RNCNvMs0_NtCsiNLkn7P4XgI_7lb_quic9h3_bridgeNtB7_11StreamRxBuf9feed_bodys0_0B9_
FNDA:0,_RNCNvMs0_NtCsiNLkn7P4XgI_7lb_quic9h3_bridgeNtB7_11StreamRxBuf9feed_bodys_0B9_
FNDA:0,_RNCNvMs2_NtCsiNLkn7P4XgI_7lb_quic9h3_bridgeNtB7_9H3Request12from_headers0B9_
FNDA:0,_RNCNvMs2_NtCsiNLkn7P4XgI_7lb_quic9h3_bridgeNtB7_9H3Request12from_headerss_0B9_
FNDA:96,_RNCNvMs3_NtCsiNLkn7P4XgI_7lb_quic9h3_bridgeNtB7_12ChunkDecoder21parse_trailer_section0B9_
FNDA:0,_RNCNvMs3_NtCsiNLkn7P4XgI_7lb_quic9h3_bridgeNtB7_12ChunkDecoder21parse_trailer_sections_0B9_
FNDA:312,_RNCNvMs3_NtCsiNLkn7P4XgI_7lb_quic9h3_bridgeNtB7_12ChunkDecoder4feed0B9_
FNDA:0,_RNCNvMs3_NtCsiNLkn7P4XgI_7lb_quic9h3_bridgeNtB7_12ChunkDecoder4feeds0_0B9_
FNDA:1,_RNCNvMs3_NtCsiNLkn7P4XgI_7lb_quic9h3_bridgeNtB7_12ChunkDecoder4feeds1_0B9_
FNDA:19,_RNCNvMs3_NtCsiNLkn7P4XgI_7lb_quic9h3_bridgeNtB7_12ChunkDecoder4feeds_0B9_
FNDA:1,_RNCNvMs8_NtCsiNLkn7P4XgI_7lb_quic9h3_bridgeNtB7_9H3RespOut11on_trailers0B9_
FNDA:0,_RNCNvMs8_NtCsiNLkn7P4XgI_7lb_quic9h3_bridgeNtB7_9H3RespOut6inline0B9_
FNDA:0,_RNCNvMs8_NtCsiNLkn7P4XgI_7lb_quic9h3_bridgeNtB7_9H3RespOut6on_end0B9_
FNDA:0,_RNCNvMs8_NtCsiNLkn7P4XgI_7lb_quic9h3_bridgeNtB7_9H3RespOut7on_data0B9_
FNDA:1,_RNCNvMs8_NtCsiNLkn7P4XgI_7lb_quic9h3_bridgeNtB7_9H3RespOut7on_head0B9_
FNDA:0,_RNCNvMs8_NtCsiNLkn7P4XgI_7lb_quic9h3_bridgeNtB7_9H3RespOut8on_reset0B9_
FNDA:0,_RNCNvNCNvNtCsiNLkn7P4XgI_7lb_quic9h3_bridge20h3_to_h1_stream_resp06inline0B9_
FNDA:2,_RNCNvNCNvNtCsiNLkn7P4XgI_7lb_quic9h3_bridge20h3_to_h2_stream_resp06inline0B9_
FNDA:34,_RNCNvNtCsiNLkn7P4XgI_7lb_quic9h3_bridge15find_header_sep0B5_
FNDA:0,_RNCNvNtCsiNLkn7P4XgI_7lb_quic9h3_bridge16write_body_chunk0B5_
FNDA:0,_RNCNvNtCsiNLkn7P4XgI_7lb_quic9h3_bridge16write_h1_request0B5_
FNDA:0,_RNCNvNtCsiNLkn7P4XgI_7lb_quic9h3_bridge17parse_status_line0B5_
FNDA:0,_RNCNvNtCsiNLkn7P4XgI_7lb_quic9h3_bridge18stream_h1_response0B5_
FNDA:0,_RNCNvNtCsiNLkn7P4XgI_7lb_quic9h3_bridge18stream_h2_response0B5_
FNDA:0,_RNCNvNtCsiNLkn7P4XgI_7lb_quic9h3_bridge20encode_h3_data_frame0B5_
FNDA:0,_RNCNvNtCsiNLkn7P4XgI_7lb_quic9h3_bridge20h3_to_h1_stream_resp0B5_
FNDA:2,_RNCNvNtCsiNLkn7P4XgI_7lb_quic9h3_bridge20h3_to_h2_stream_resp0B5_
FNDA:0,_RNCNvNtCsiNLkn7P4XgI_7lb_quic9h3_bridge20h3_to_h3_stream_resp0B5_
FNDA:0,_RNCNvNtCsiNLkn7P4XgI_7lb_quic9h3_bridge23encode_h3_headers_frame0B5_
FNDA:0,_RNCNvNtCsiNLkn7P4XgI_7lb_quic9h3_bridge23encode_h3_headers_frames_0B5_
FNDA:1,_RNCNvNtCsiNLkn7P4XgI_7lb_quic9h3_bridge23h2_request_body_from_rxs_0B5_
FNDA:2,_RNCNvNtCsiNLkn7P4XgI_7lb_quic9h3_bridge23read_h1_response_capped0B5_
FNDA:0,_RNCNvNtCsiNLkn7P4XgI_7lb_quic9h3_bridge24encode_h3_trailers_frame0B5_
FNDA:0,_RNCNvNtCsiNLkn7P4XgI_7lb_quic9h3_bridge24encode_h3_trailers_frames_0B5_
FNDA:0,_RNCNvNtCsiNLkn7P4XgI_7lb_quic9h3_bridge28encode_h3_headers_frame_full0B5_
FNDA:0,_RNCNvNtCsiNLkn7P4XgI_7lb_quic9h3_bridge28encode_h3_headers_frame_fulls_0B5_
FNDA:0,_RNCNvNtCsiNLkn7P4XgI_7lb_quic9h3_bridge29stream_request_to_h3_upstream0B5_
FNDA:0,_RNvMs0_NtCsiNLkn7P4XgI_7lb_quic9h3_bridgeNtB5_11StreamRxBuf14retained_bytes
FNDA:12,_RNvMs0_NtCsiNLkn7P4XgI_7lb_quic9h3_bridgeNtB5_11StreamRxBuf22try_parse_frame_header
FNDA:9,_RNvMs0_NtCsiNLkn7P4XgI_7lb_quic9h3_bridgeNtB5_11StreamRxBuf4feed
FNDA:2,_RNvMs0_NtCsiNLkn7P4XgI_7lb_quic9h3_bridgeNtB5_11StreamRxBuf9feed_body
FNDA:0,_RNvMs2_NtCsiNLkn7P4XgI_7lb_quic9h3_bridgeNtB5_9H3Request12from_headers
FNDA:3,_RNvMs3_NtCsiNLkn7P4XgI_7lb_quic9h3_bridgeNtB5_12ChunkDecoder13take_trailers
FNDA:11,_RNvMs3_NtCsiNLkn7P4XgI_7lb_quic9h3_bridgeNtB5_12ChunkDecoder21parse_trailer_section
FNDA:12,_RNvMs3_NtCsiNLkn7P4XgI_7lb_quic9h3_bridgeNtB5_12ChunkDecoder3new
FNDA:17,_RNvMs3_NtCsiNLkn7P4XgI_7lb_quic9h3_bridgeNtB5_12ChunkDecoder4feed
FNDA:1,_RNvMs8_NtCsiNLkn7P4XgI_7lb_quic9h3_bridgeNtB5_9H3RespOut11on_trailers
FNDA:0,_RNvMs8_NtCsiNLkn7P4XgI_7lb_quic9h3_bridgeNtB5_9H3RespOut6inline
FNDA:0,_RNvMs8_NtCsiNLkn7P4XgI_7lb_quic9h3_bridgeNtB5_9H3RespOut6on_end
FNDA:0,_RNvMs8_NtCsiNLkn7P4XgI_7lb_quic9h3_bridgeNtB5_9H3RespOut7on_data
FNDA:1,_RNvMs8_NtCsiNLkn7P4XgI_7lb_quic9h3_bridgeNtB5_9H3RespOut7on_head
FNDA:0,_RNvMs8_NtCsiNLkn7P4XgI_7lb_quic9h3_bridgeNtB5_9H3RespOut8on_reset
FNDA:0,_RNvNCNvNtCsiNLkn7P4XgI_7lb_quic9h3_bridge20h3_to_h1_stream_resp06inline
FNDA:2,_RNvNCNvNtCsiNLkn7P4XgI_7lb_quic9h3_bridge20h3_to_h2_stream_resp06inline
FNDA:0,_RNvNtCsiNLkn7P4XgI_7lb_quic9h3_bridge13build_h1_head
FNDA:2,_RNvNtCsiNLkn7P4XgI_7lb_quic9h3_bridge15check_block_len
FNDA:1,_RNvNtCsiNLkn7P4XgI_7lb_quic9h3_bridge15find_header_sep
FNDA:0,_RNvNtCsiNLkn7P4XgI_7lb_quic9h3_bridge15record_inflight
FNDA:0,_RNvNtCsiNLkn7P4XgI_7lb_quic9h3_bridge15record_retained
FNDA:2,_RNvNtCsiNLkn7P4XgI_7lb_quic9h3_bridge16build_h1_request
FNDA:0,_RNvNtCsiNLkn7P4XgI_7lb_quic9h3_bridge16write_body_chunk
FNDA:0,_RNvNtCsiNLkn7P4XgI_7lb_quic9h3_bridge16write_h1_request
FNDA:6,_RNvNtCsiNLkn7P4XgI_7lb_quic9h3_bridge17classify_recv_err
FNDA:1,_RNvNtCsiNLkn7P4XgI_7lb_quic9h3_bridge17parse_status_line
FNDA:7,_RNvNtCsiNLkn7P4XgI_7lb_quic9h3_bridge18encode_h3_response
FNDA:4,_RNvNtCsiNLkn7P4XgI_7lb_quic9h3_bridge18parse_frame_header
FNDA:0,_RNvNtCsiNLkn7P4XgI_7lb_quic9h3_bridge18stream_h1_response
FNDA:0,_RNvNtCsiNLkn7P4XgI_7lb_quic9h3_bridge18stream_h2_response
FNDA:9,_RNvNtCsiNLkn7P4XgI_7lb_quic9h3_bridge19j2_req_event_action
FNDA:21,_RNvNtCsiNLkn7P4XgI_7lb_quic9h3_bridge20encode_h3_data_frame
FNDA:0,_RNvNtCsiNLkn7P4XgI_7lb_quic9h3_bridge20h3_to_h1_stream_resp
FNDA:2,_RNvNtCsiNLkn7P4XgI_7lb_quic9h3_bridge20h3_to_h2_stream_resp
FNDA:0,_RNvNtCsiNLkn7P4XgI_7lb_quic9h3_bridge20h3_to_h3_stream_resp
FNDA:0,_RNvNtCsiNLkn7P4XgI_7lb_quic9h3_bridge20record_resp_retained
FNDA:0,_RNvNtCsiNLkn7P4XgI_7lb_quic9h3_bridge22is_response_hop_by_hop
FNDA:15,_RNvNtCsiNLkn7P4XgI_7lb_quic9h3_bridge23encode_h3_headers_frame
FNDA:6,_RNvNtCsiNLkn7P4XgI_7lb_quic9h3_bridge23h2_request_body_from_rx
FNDA:2,_RNvNtCsiNLkn7P4XgI_7lb_quic9h3_bridge23read_h1_response_capped
FNDA:1,_RNvNtCsiNLkn7P4XgI_7lb_quic9h3_bridge24encode_h3_trailers_frame
FNDA:0,_RNvNtCsiNLkn7P4XgI_7lb_quic9h3_bridge28encode_h3_headers_frame_full
FNDA:0,_RNvNtCsiNLkn7P4XgI_7lb_quic9h3_bridge29stream_request_to_h3_upstream
FNDA:15,_RNvNtCsiNLkn7P4XgI_7lb_quic9h3_bridge31validate_request_pseudo_headers
FNDA:21,_RNvXNtCsiNLkn7P4XgI_7lb_quic9h3_bridgeNtB2_9BodyParseNtNtCs2va5m0jqTTM_4core7default7Default7default
FNDA:2,_RNvXs4_NtCsiNLkn7P4XgI_7lb_quic9h3_bridgeNtB5_10H3ReqAbortNtNtCs2va5m0jqTTM_4core3fmt7Display3fmt
FNDA:9,_RNvXs6_NtCsiNLkn7P4XgI_7lb_quic9h3_bridgeNtB5_15H3ReqStreamBodyNtCsl5a7MsEZ2mF_9http_body4Body10poll_frame
FNDA:0,_RNCNCNvNtCsiNLkn7P4XgI_7lb_quic9h3_bridge15h3_to_h1_stream00B7_
FNDA:0,_RNCNCNvNtCsiNLkn7P4XgI_7lb_quic9h3_bridge18h3_to_h1_roundtrip00B7_
FNDA:0,_RNCNvNtCsiNLkn7P4XgI_7lb_quic9h3_bridge15h3_to_h1_stream0B5_
FNDA:0,_RNCNvNtCsiNLkn7P4XgI_7lb_quic9h3_bridge16read_h1_response0B5_
FNDA:0,_RNCNvNtCsiNLkn7P4XgI_7lb_quic9h3_bridge18h3_to_h1_roundtrip0B5_
FNDA:0,_RNCNvNtCsiNLkn7P4XgI_7lb_quic9h3_bridge19request_h3_upstream0B5_
FNDA:0,_RNvMs0_NtCsiNLkn7P4XgI_7lb_quic9h3_bridgeNtB5_11StreamRxBuf12is_too_large
FNDA:0,_RNvNtCsiNLkn7P4XgI_7lb_quic9h3_bridge15h3_to_h1_stream
FNDA:0,_RNvNtCsiNLkn7P4XgI_7lb_quic9h3_bridge16read_h1_response
FNDA:0,_RNvNtCsiNLkn7P4XgI_7lb_quic9h3_bridge18h3_to_h1_roundtrip
FNDA:0,_RNvNtCsiNLkn7P4XgI_7lb_quic9h3_bridge19request_h3_upstream
FNDA:0,_RNvXs1_NtCsiNLkn7P4XgI_7lb_quic9h3_bridgeNtB5_9H3RequestNtNtCs2va5m0jqTTM_4core7default7Default7default
FNDA:0,_RNvXs7_NtCsiNLkn7P4XgI_7lb_quic9h3_bridgeNtB5_18H3UpstreamResponseNtNtCs2va5m0jqTTM_4core7default7Default7default
FNDA:0,_RNvXs_NtCsiNLkn7P4XgI_7lb_quic9h3_bridgeNtB4_9FeedErrorNtNtCs2va5m0jqTTM_4core3fmt7Display3fmt
FNDA:1,_RNCNCNvNtNtCsiNLkn7P4XgI_7lb_quic9h3_bridge5testss_35feed_body_accepts_valid_h3_trailers00B9_
FNDA:1,_RNCNCNvNtNtCsiNLkn7P4XgI_7lb_quic9h3_bridge5testss_49g5_h2_request_body_from_rx_head_construction_arms00B9_
FNDA:1,_RNCNCNvNtNtCsiNLkn7P4XgI_7lb_quic9h3_bridge5testss_50g5_h3_to_h2_stream_resp_inline_413_and_502_no_dial00B9_
FNDA:1,_RNCNCNvNtNtCsiNLkn7P4XgI_7lb_quic9h3_bridge5testss_50g5_h3_to_h2_stream_resp_inline_413_and_502_no_dial0s_0B9_
FNDA:1,_RNCNCNvNtNtCsiNLkn7P4XgI_7lb_quic9h3_bridge5testss_61read_h1_response_capped_rejects_over_cap_and_passes_under_cap00B9_
FNDA:1,_RNCNCNvNtNtCsiNLkn7P4XgI_7lb_quic9h3_bridge5testss_61read_h1_response_capped_rejects_over_cap_and_passes_under_cap0s_0B9_
FNDA:48,_RNCNvNtNtCsiNLkn7P4XgI_7lb_quic9h3_bridge5tests1h0B7_
FNDA:1,_RNCNvNtNtCsiNLkn7P4XgI_7lb_quic9h3_bridge5testss_35feed_body_accepts_valid_h3_trailers0B7_
FNDA:1,_RNCNvNtNtCsiNLkn7P4XgI_7lb_quic9h3_bridge5testss_43encode_h3_response_includes_status_and_body0B7_
FNDA:2,_RNCNvNtNtCsiNLkn7P4XgI_7lb_quic9h3_bridge5testss_43encode_h3_response_includes_status_and_bodys_0B7_
FNDA:1,_RNCNvNtNtCsiNLkn7P4XgI_7lb_quic9h3_bridge5testss_49encode_h3_headers_frame_none_omits_content_length0B7_
FNDA:1,_RNCNvNtNtCsiNLkn7P4XgI_7lb_quic9h3_bridge5testss_49encode_h3_headers_frame_none_omits_content_lengths_0B7_
FNDA:1,_RNCNvNtNtCsiNLkn7P4XgI_7lb_quic9h3_bridge5testss_49g5_h2_request_body_from_rx_head_construction_arms0B7_
FNDA:1,_RNCNvNtNtCsiNLkn7P4XgI_7lb_quic9h3_bridge5testss_49s6_i2_h3_req_stream_body_frame_and_abort_contract0B7_
FNDA:1,_RNCNvNtNtCsiNLkn7P4XgI_7lb_quic9h3_bridge5testss_50g5_h3_to_h2_stream_resp_inline_413_and_502_no_dial0B7_
FNDA:2,_RNCNvNtNtCsiNLkn7P4XgI_7lb_quic9h3_bridge5testss_50s6_i1_stream_h2_response_reencode_framing_contract0B7_
FNDA:2,_RNCNvNtNtCsiNLkn7P4XgI_7lb_quic9h3_bridge5testss_50s6_i1_stream_h2_response_reencode_framing_contracts0_0B7_
FNDA:1,_RNCNvNtNtCsiNLkn7P4XgI_7lb_quic9h3_bridge5testss_50s6_i1_stream_h2_response_reencode_framing_contracts1_0B7_
FNDA:1,_RNCNvNtNtCsiNLkn7P4XgI_7lb_quic9h3_bridge5testss_50s6_i1_stream_h2_response_reencode_framing_contracts2_0B7_
FNDA:1,_RNCNvNtNtCsiNLkn7P4XgI_7lb_quic9h3_bridge5testss_50s6_i1_stream_h2_response_reencode_framing_contracts3_0B7_
FNDA:1,_RNCNvNtNtCsiNLkn7P4XgI_7lb_quic9h3_bridge5testss_50s6_i1_stream_h2_response_reencode_framing_contracts_0B7_
FNDA:1,_RNCNvNtNtCsiNLkn7P4XgI_7lb_quic9h3_bridge5testss_52s12_decoded_sink_on_head_forwards_full_nonpseudo_set0B7_
FNDA:1,_RNCNvNtNtCsiNLkn7P4XgI_7lb_quic9h3_bridge5testss_55s12_decoded_sink_on_trailers_emits_h3respevent_trailers0B7_
FNDA:1,_RNCNvNtNtCsiNLkn7P4XgI_7lb_quic9h3_bridge5testss_61read_h1_response_capped_rejects_over_cap_and_passes_under_cap0B7_
FNDA:15,_RNvNtNtCsiNLkn7P4XgI_7lb_quic9h3_bridge5tests1h
FNDA:1,_RNvNtNtCsiNLkn7P4XgI_7lb_quic9h3_bridge5testss_27s7_j2_request_send_decision
FNDA:1,_RNvNtNtCsiNLkn7P4XgI_7lb_quic9h3_bridge5testss_28pseudo_12_duplicate_rejected
FNDA:1,_RNvNtNtCsiNLkn7P4XgI_7lb_quic9h3_bridge5testss_28pseudo_connect_request_rules
FNDA:1,_RNvNtNtCsiNLkn7P4XgI_7lb_quic9h3_bridge5testss_31s7_j1_recv_half_frame_machinery
FNDA:1,_RNvNtNtCsiNLkn7P4XgI_7lb_quic9h3_bridge5testss_34chunk_decoder_decodes_split_chunks
FNDA:1,_RNvNtNtCsiNLkn7P4XgI_7lb_quic9h3_bridge5testss_35feed_body_accepts_valid_h3_trailers
FNDA:1,_RNvNtNtCsiNLkn7P4XgI_7lb_quic9h3_bridge5testss_36g5_h3reqabort_display_and_error_impl
FNDA:1,_RNvNtNtCsiNLkn7P4XgI_7lb_quic9h3_bridge5testss_36pseudo_13_missing_mandatory_rejected
FNDA:1,_RNvNtNtCsiNLkn7P4XgI_7lb_quic9h3_bridge5testss_36s7_j5_recv_stream_err_classification
FNDA:1,_RNvNtNtCsiNLkn7P4XgI_7lb_quic9h3_bridge5testss_38pseudo_15_after_regular_field_rejected
FNDA:1,_RNvNtNtCsiNLkn7P4XgI_7lb_quic9h3_bridge5testss_39chunk_decoder_parses_trailer_section_c4
FNDA:1,_RNvNtNtCsiNLkn7P4XgI_7lb_quic9h3_bridge5testss_39chunk_decoder_tolerates_chunk_extension
FNDA:1,_RNvNtNtCsiNLkn7P4XgI_7lb_quic9h3_bridge5testss_40pseudo_14_prohibited_or_unknown_rejected
FNDA:1,_RNvNtNtCsiNLkn7P4XgI_7lb_quic9h3_bridge5testss_41stream_rx_buf_accumulates_partial_headers
FNDA:1,_RNvNtNtCsiNLkn7P4XgI_7lb_quic9h3_bridge5testss_42chunk_decoder_rejects_malformed_framing_c3
FNDA:1,_RNvNtNtCsiNLkn7P4XgI_7lb_quic9h3_bridge5testss_43encode_h3_response_includes_status_and_body
FNDA:1,_RNvNtNtCsiNLkn7P4XgI_7lb_quic9h3_bridge5testss_46feed_body_rejects_pseudo_header_in_h3_trailers
FNDA:1,_RNvNtNtCsiNLkn7P4XgI_7lb_quic9h3_bridge5testss_46pseudo_valid_request_accepted_negative_control
FNDA:1,_RNvNtNtCsiNLkn7P4XgI_7lb_quic9h3_bridge5testss_47feed_11_data_before_headers_is_frame_unexpected
FNDA:1,_RNvNtNtCsiNLkn7P4XgI_7lb_quic9h3_bridge5testss_49encode_h3_headers_frame_none_omits_content_length
FNDA:1,_RNvNtNtCsiNLkn7P4XgI_7lb_quic9h3_bridge5testss_49g5_h2_request_body_from_rx_head_construction_arms
FNDA:1,_RNvNtNtCsiNLkn7P4XgI_7lb_quic9h3_bridge5testss_49s6_i2_h3_req_stream_body_frame_and_abort_contract
FNDA:1,_RNvNtNtCsiNLkn7P4XgI_7lb_quic9h3_bridge5testss_50g5_h3_to_h2_stream_resp_inline_413_and_502_no_dial
FNDA:1,_RNvNtNtCsiNLkn7P4XgI_7lb_quic9h3_bridge5testss_50s6_i1_stream_h2_response_reencode_framing_contract
FNDA:1,_RNvNtNtCsiNLkn7P4XgI_7lb_quic9h3_bridge5testss_51pseudo_13_absent_authority_rejected_for_http_scheme
FNDA:1,_RNvNtNtCsiNLkn7P4XgI_7lb_quic9h3_bridge5testss_52s12_decoded_sink_on_head_forwards_full_nonpseudo_set
FNDA:1,_RNvNtNtCsiNLkn7P4XgI_7lb_quic9h3_bridge5testss_53encode_h3_response_is_byte_identical_to_split_helpers
FNDA:1,_RNvNtNtCsiNLkn7P4XgI_7lb_quic9h3_bridge5testss_55s12_decoded_sink_on_trailers_emits_h3respevent_trailers
FNDA:1,_RNvNtNtCsiNLkn7P4XgI_7lb_quic9h3_bridge5testss_57feed_21_cancel_push_on_request_stream_is_frame_unexpected
FNDA:1,_RNvNtNtCsiNLkn7P4XgI_7lb_quic9h3_bridge5testss_57feed_unknown_grease_frame_is_ignored_then_headers_decodes
FNDA:1,_RNvNtNtCsiNLkn7P4XgI_7lb_quic9h3_bridge5testss_58feed_22_invalid_qpack_static_index_is_decompression_failed
FNDA:1,_RNvNtNtCsiNLkn7P4XgI_7lb_quic9h3_bridge5testss_61read_h1_response_capped_rejects_over_cap_and_passes_under_cap
FNDA:1,_RNvNtNtCsiNLkn7P4XgI_7lb_quic9h3_bridge5testss_63build_h1_request_none_body_is_byte_identical_to_legacy_bodyless
FNDA:1,_RNvNtNtCsiNLkn7P4XgI_7lb_quic9h3_bridge5testss_76s2_target_build_h1_request_with_body_sets_content_length_and_appends_payload
FNF:187
FNH:151
DA:329,6257
DA:330,6257
DA:331,6257
DA:387,0
DA:388,0
DA:389,0
DA:390,0
DA:392,0
DA:419,223
DA:420,223
DA:423,83
DA:424,83
DA:425,140
DA:426,140
DA:428,141
DA:429,133
DA:430,133
DA:431,133
DA:432,133
DA:433,133
DA:434,2
DA:435,2
DA:436,2
DA:437,2
DA:438,2
DA:439,133
DA:440,131
DA:446,2
DA:447,2
DA:448,2
DA:461,4
DA:462,4
DA:463,4
DA:466,1
DA:467,1
DA:468,1
DA:469,1
DA:470,0
DA:473,223
DA:494,5268
DA:495,5268
DA:496,5268
DA:497,1
DA:498,1
DA:499,5267
DA:500,5267
DA:501,5267
DA:502,5267
DA:503,5267
DA:504,5267
DA:505,5267
DA:506,5267
DA:507,5267
DA:508,5267
DA:509,77
DA:510,5190
DA:511,5267
DA:512,5267
DA:513,5267
DA:514,11115
DA:515,5850
DA:516,5850
DA:517,332
DA:518,332
DA:519,332
DA:520,332
DA:521,332
DA:522,332
DA:523,332
DA:524,1963
DA:525,332
DA:526,0
DA:528,1631
DA:529,0
DA:531,1631
DA:532,1631
DA:533,1631
DA:534,0
DA:535,0
DA:536,0
DA:537,0
DA:538,1631
DA:542,332
DA:543,332
DA:547,0
DA:548,0
DA:550,332
DA:551,332
DA:552,332
DA:553,332
DA:554,328
DA:555,4
DA:556,4
DA:557,4
DA:558,4
DA:561,0
DA:566,5514
DA:567,5514
DA:569,0
DA:570,0
DA:571,5514
DA:572,5514
DA:573,5514
DA:574,5514
DA:575,5514
DA:576,5514
DA:577,5514
DA:578,5514
DA:579,5514
DA:580,1
DA:581,1
DA:582,1
DA:583,5513
DA:584,5513
DA:585,5513
DA:586,5513
DA:587,5513
DA:588,11026
DA:589,5513
DA:590,5513
DA:591,5513
DA:592,5513
DA:593,5513
DA:594,5513
DA:595,5513
DA:596,5513
DA:597,5513
DA:598,263
DA:600,5250
DA:604,4
DA:605,4
DA:606,4
DA:607,4
DA:608,4
DA:609,4
DA:610,4
DA:611,4
DA:612,4
DA:613,4
DA:614,0
DA:615,0
DA:616,0
DA:617,0
DA:618,4
DA:619,4
DA:620,4
DA:621,4
DA:622,4
DA:623,4
DA:624,4
DA:625,4
DA:635,6
DA:636,1
DA:637,3
DA:638,3
DA:639,3
DA:640,0
DA:641,0
DA:642,0
DA:643,0
DA:644,0
DA:645,0
DA:647,0
DA:648,0
DA:649,0
DA:650,0
DA:651,0
DA:652,0
DA:653,0
DA:654,0
DA:656,0
DA:661,5265
DA:662,5268
DA:670,1963
DA:671,1963
DA:672,1631
DA:673,332
DA:674,0
DA:676,1631
DA:677,1631
DA:678,332
DA:679,1299
DA:680,0
DA:682,332
DA:683,1963
DA:688,1
DA:689,1
DA:690,1
DA:701,5252
DA:702,5252
DA:703,2
DA:704,0
DA:705,5250
DA:707,5252
DA:708,5252
DA:728,5264
DA:730,5264
DA:731,5264
DA:732,51
DA:733,51
DA:734,51
DA:735,51
DA:736,51
DA:737,51
DA:738,51
DA:739,0
DA:742,5264
DA:765,671917
DA:767,671917
DA:768,671917
DA:769,24
DA:770,24
DA:771,24
DA:772,24
DA:773,24
DA:774,24
DA:775,24
DA:776,0
DA:779,671917
DA:807,0
DA:808,0
DA:809,0
DA:810,0
DA:811,0
DA:812,0
DA:813,0
DA:814,0
DA:815,0
DA:824,127
DA:825,127
DA:826,127
DA:827,127
DA:828,127
DA:829,635
DA:830,508
DA:831,508
DA:832,381
DA:833,254
DA:834,127
DA:835,127
DA:836,127
DA:837,0
DA:840,127
DA:841,127
DA:842,127
DA:843,127
DA:844,127
DA:845,127
DA:846,127
DA:847,127
DA:848,127
DA:849,127
DA:850,127
DA:851,127
DA:852,127
DA:890,143
DA:891,143
DA:892,143
DA:893,143
DA:894,143
DA:895,143
DA:896,143
DA:898,695
DA:899,557
DA:902,554
DA:903,1
DA:904,553
DA:905,553
DA:906,553
DA:907,143
DA:908,1
DA:909,142
DA:910,142
DA:912,410
DA:913,138
DA:914,0
DA:915,138
DA:916,138
DA:918,272
DA:919,139
DA:920,1
DA:921,138
DA:922,138
DA:924,133
DA:925,131
DA:926,0
DA:927,131
DA:928,131
DA:934,2
DA:938,3
DA:939,3
DA:940,3
DA:941,3
DA:942,1
DA:943,2
DA:953,138
DA:954,1
DA:955,137
DA:956,3
DA:957,1
DA:958,2
DA:959,1
DA:961,1
DA:965,134
DA:966,1
DA:968,133
DA:969,1
DA:970,132
DA:974,132
DA:975,132
DA:976,132
DA:977,2
DA:978,130
DA:979,130
DA:982,143
DA:1000,3
DA:1001,3
DA:1002,3
DA:1003,3
DA:1004,3
DA:1005,3
DA:1006,3
DA:1007,3
DA:1008,3
DA:1009,3
DA:1010,3
DA:1011,3
DA:1012,3
DA:1013,3
DA:1014,3
DA:1015,3
DA:1016,3
DA:1019,3
DA:1020,3
DA:1021,3
DA:1022,3
DA:1023,3
DA:1024,3
DA:1025,3
DA:1026,3
DA:1027,2
DA:1028,2
DA:1029,2
DA:1030,2
DA:1031,3
DA:1032,3
DA:1047,1
DA:1048,1
DA:1049,1
DA:1050,1
DA:1051,1
DA:1052,1
DA:1053,1
DA:1054,1
DA:1055,1
DA:1056,1
DA:1064,3
DA:1065,3
DA:1066,3
DA:1068,21
DA:1069,21
DA:1070,21
DA:1071,21
DA:1072,21
DA:1073,2
DA:1074,19
DA:1075,19
DA:1076,19
DA:1077,19
DA:1078,19
DA:1079,19
DA:1080,19
DA:1081,1
DA:1082,1
DA:1083,1
DA:1084,1
DA:1085,18
DA:1090,2
DA:1091,2
DA:1092,2
DA:1093,2
DA:1094,2
DA:1095,2
DA:1096,2
DA:1097,2
DA:1098,2
DA:1099,4
DA:1100,2
DA:1101,2
DA:1102,2
DA:1104,2
DA:1105,2
DA:1106,2
DA:1107,2
DA:1108,2
DA:1109,3
DA:1111,70
DA:1112,1993
DA:1113,70
DA:1115,35
DA:1116,35
DA:1117,35
DA:1118,35
DA:1119,35
DA:1120,35
DA:1121,35
DA:1138,75
DA:1139,75
DA:1140,75
DA:1141,75
DA:1142,75
DA:1143,75
DA:1144,75
DA:1145,75
DA:1165,83
DA:1166,83
DA:1167,83
DA:1168,83
DA:1169,83
DA:1170,83
DA:1171,83
DA:1172,81
DA:1173,81
DA:1174,83
DA:1175,83
DA:1176,83
DA:1177,83
DA:1178,83
DA:1208,63
DA:1209,63
DA:1210,63
DA:1211,63
DA:1212,63
DA:1213,63
DA:1214,63
DA:1215,63
DA:1216,63
DA:1217,63
DA:1218,63
DA:1219,63
DA:1251,51
DA:1252,51
DA:1253,51
DA:1263,60536
DA:1264,60536
DA:1265,60536
DA:1266,60536
DA:1267,60536
DA:1268,60536
DA:1286,6
DA:1287,6
DA:1288,6
DA:1289,6
DA:1290,6
DA:1291,6
DA:1357,21
DA:1358,21
DA:1359,21
DA:1360,21
DA:1361,21
DA:1362,21
DA:1363,21
DA:1364,21
DA:1365,21
DA:1366,21
DA:1371,7
DA:1372,7
DA:1373,7
DA:1379,115
DA:1380,115
DA:1382,246
DA:1386,0
DA:1387,246
DA:1388,246
DA:1395,76
DA:1396,170
DA:1397,170
DA:1400,30
DA:1401,0
DA:1403,30
DA:1404,2
DA:1405,28
DA:1406,28
DA:1407,28
DA:1409,88
DA:1410,88
DA:1411,29
DA:1412,59
DA:1413,59
DA:1414,59
DA:1415,0
DA:1417,59
DA:1418,59
DA:1419,59
DA:1423,413
DA:1424,3
DA:1425,0
DA:1426,3
DA:1427,3
DA:1429,49
DA:1430,1
DA:1431,48
DA:1432,48
DA:1433,0
DA:1437,89
DA:1438,48
DA:1439,48
DA:1440,48
DA:1441,48
DA:1442,1
DA:1443,47
DA:1444,44
DA:1445,47
DA:1446,44
DA:1447,44
DA:1456,13
DA:1457,13
DA:1458,31
DA:1459,31
DA:1463,115
DA:1481,76
DA:1484,83
DA:1485,72
DA:1486,1
DA:1487,71
DA:1488,71
DA:1489,11
DA:1490,972
DA:1493,66
DA:1494,0
DA:1495,66
DA:1496,66
DA:1498,16
DA:1500,7
DA:1501,7
DA:1502,7
DA:1503,9
DA:1504,9
DA:1505,9
DA:1509,9
DA:1510,8
DA:1511,8
DA:1512,1
DA:1513,7
DA:1514,7
DA:1515,7
DA:1516,7
DA:1517,7
DA:1518,0
DA:1519,7
DA:1520,7
DA:1521,7
DA:1523,76
DA:1560,34
DA:1561,34
DA:1562,34
DA:1563,34
DA:1564,34
DA:1569,2
DA:1575,34
DA:1576,34
DA:1577,33
DA:1578,68
DA:1579,33
DA:1580,35
DA:1581,35
DA:1582,0
DA:1583,0
DA:1584,35
DA:1585,35
DA:1586,35
DA:1588,0
DA:1589,0
DA:1592,35
DA:1594,1
DA:1595,1
DA:1596,34
DA:1597,34
DA:1601,33
DA:1602,33
DA:1603,33
DA:1604,33
DA:1605,0
DA:1606,0
DA:1607,33
DA:1608,33
DA:1609,33
DA:1610,0
DA:1611,0
DA:1612,0
DA:1615,33
DA:1616,33
DA:1617,33
DA:1618,33
DA:1619,33
DA:1621,33
DA:1622,0
DA:1623,0
DA:1624,0
DA:1627,33
DA:1628,33
DA:1629,33
DA:1630,33
DA:1631,33
DA:1632,33
DA:1633,33
DA:1634,33
DA:1635,33
DA:1636,33
DA:1637,93
DA:1638,60
DA:1639,0
DA:1641,60
DA:1642,60
DA:1643,24
DA:1644,24
DA:1646,0
DA:1647,0
DA:1650,36
DA:1651,9
DA:1652,27
DA:1653,3
DA:1654,24
DA:1658,33
DA:1659,9
DA:1660,0
DA:1661,0
DA:1662,9
DA:1663,9
DA:1664,24
DA:1665,24
DA:1667,0
DA:1675,33
DA:1676,24
DA:1677,24
DA:1678,33
DA:1679,33
DA:1681,0
DA:1682,0
DA:1685,33
DA:1686,33
DA:1687,0
DA:1688,0
DA:1689,33
DA:1690,33
DA:1691,33
DA:1715,33
DA:1716,24
DA:1717,24
DA:1718,24
DA:1719,24
DA:1720,22
DA:1722,0
DA:1723,0
DA:1724,22
DA:1725,22
DA:1726,22
DA:1727,22
DA:1728,2
DA:1729,18075
DA:1730,18059
DA:1731,18059
DA:1732,18059
DA:1733,18057
DA:1735,2
DA:1736,2
DA:1739,18057
DA:1741,2
DA:1742,2
DA:1743,18055
DA:1744,18055
DA:1745,18055
DA:1746,18055
DA:1750,9
DA:1751,9
DA:1752,9
DA:1753,9
DA:1754,9
DA:1755,3
DA:1756,3
DA:1757,6
DA:1758,6
DA:1759,6
DA:1760,6
DA:1761,0
DA:1762,0
DA:1769,95
DA:1770,91
DA:1771,91
DA:1773,0
DA:1774,0
DA:1777,91
DA:1780,2
DA:1781,2
DA:1782,89
DA:1783,89
DA:1784,0
DA:1785,0
DA:1786,89
DA:1787,89
DA:1788,27
DA:1789,27
DA:1790,62
DA:1800,4
DA:1801,4
DA:1802,2
DA:1803,2
DA:1805,0
DA:1806,0
DA:1809,2
DA:1810,2
DA:1811,0
DA:1812,0
DA:1813,2
DA:1814,2
DA:1815,2
DA:1818,0
DA:1819,0
DA:1820,0
DA:1821,0
DA:1823,0
DA:1824,0
DA:1826,0
DA:1827,0
DA:1830,0
DA:1831,0
DA:1832,0
DA:1833,0
DA:1834,0
DA:1840,20
DA:1841,20
DA:1842,34
DA:1883,14
DA:1884,14
DA:1885,14
DA:1886,14
DA:1887,14
DA:1890,1
DA:1894,14
DA:1895,14
DA:1896,14
DA:1897,14
DA:1898,14
DA:1899,14
DA:1900,14
DA:1901,14
DA:1902,14
DA:1903,14
DA:1904,14
DA:1905,14
DA:1906,14
DA:1907,14
DA:1908,14
DA:1909,14
DA:1910,14
DA:1911,14
DA:1912,14
DA:1913,14
DA:1914,14
DA:1915,38
DA:1916,24
DA:1917,24
DA:1918,7
DA:1919,17
DA:1920,17
DA:1921,17
DA:1922,17
DA:1924,14
DA:1925,7
DA:1926,7
DA:1927,14
DA:1928,14
DA:1930,0
DA:1931,0
DA:1934,14
DA:1935,14
DA:1936,1
DA:1937,1
DA:1938,13
DA:1939,13
DA:1964,1120
DA:1965,1113
DA:1966,1112
DA:1970,1
DA:1971,1
DA:1974,1112
DA:1976,1110
DA:1977,1110
DA:1978,1110
DA:1979,0
DA:1980,2
DA:1984,2
DA:1985,2
DA:1986,2
DA:1987,2
DA:1988,2
DA:1989,2
DA:1990,2
DA:1991,2
DA:1992,2
DA:1993,2
DA:1994,2
DA:1995,2
DA:1997,0
DA:1998,0
DA:2001,2
DA:2002,2
DA:2003,1
DA:2004,1
DA:2005,1
DA:2006,1
DA:2007,0
DA:2008,0
DA:2014,7
DA:2015,7
DA:2016,14
DA:2041,1
DA:2042,1
DA:2043,1
DA:2044,1
DA:2045,1
DA:2046,1
DA:2047,1
DA:2048,1
DA:2049,0
DA:2050,0
DA:2051,0
DA:2054,1
DA:2055,1
DA:2056,1
DA:2057,1
DA:2058,1
DA:2059,1
DA:2060,0
DA:2061,0
DA:2062,0
DA:2063,1
DA:2064,1
DA:2065,0
DA:2066,0
DA:2067,0
DA:2068,1
DA:2069,1
DA:2070,1
DA:2071,0
DA:2072,0
DA:2073,0
DA:2074,0
DA:2079,1
DA:2080,1
DA:2081,1
DA:2093,38
DA:2094,38
DA:2095,38
DA:2096,38
DA:2097,38
DA:2098,38
DA:2099,38
DA:2100,38
DA:2101,38
DA:2102,38
DA:2103,38
DA:2104,38
DA:2105,29
DA:2106,1
DA:2107,1
DA:2108,1
DA:2109,1
DA:2110,1
DA:2111,8
DA:2113,38
DA:2114,38
DA:2115,38
DA:2116,38
DA:2138,703
DA:2140,703
DA:2141,703
DA:2142,9
DA:2143,9
DA:2144,9
DA:2145,9
DA:2146,9
DA:2147,9
DA:2148,9
DA:2149,0
DA:2152,703
DA:2162,674
DA:2163,674
DA:2164,0
DA:2165,674
DA:2166,674
DA:2167,673
DA:2168,673
DA:2169,672
DA:2170,672
DA:2172,1
DA:2174,673
DA:2175,674
DA:2233,38
DA:2234,38
DA:2235,38
DA:2236,38
DA:2237,38
DA:2240,38
DA:2241,38
DA:2243,29
DA:2248,0
DA:2250,9
DA:2251,9
DA:2252,1
DA:2253,1
DA:2255,0
DA:2257,9
DA:2258,9
DA:2259,1
DA:2260,8
DA:2264,38
DA:2265,38
DA:2266,38
DA:2267,38
DA:2269,38
DA:2270,0
DA:2271,0
DA:2272,38
DA:2274,38
DA:2275,9
DA:2276,0
DA:2277,0
DA:2278,9
DA:2279,29
DA:2286,38
DA:2287,702
DA:2288,673
DA:2289,665
DA:2290,665
DA:2291,665
DA:2292,1
DA:2293,1
DA:2294,664
DA:2322,5
DA:2323,5
DA:2344,3
DA:2345,0
DA:2346,0
DA:2348,3
DA:2352,34
DA:2356,0
DA:2357,0
DA:2358,34
DA:2359,34
DA:2360,5
DA:2361,0
DA:2362,0
DA:2363,5
DA:2364,29
DA:2366,34
DA:2367,0
DA:2368,0
DA:2369,34
DA:2370,34
DA:2371,38
DA:2395,2
DA:2396,2
DA:2397,2
DA:2398,2
DA:2399,2
DA:2400,2
DA:2401,2
DA:2402,2
DA:2403,2
DA:2404,0
DA:2405,0
DA:2406,0
DA:2411,0
DA:2412,2
DA:2413,2
DA:2414,2
DA:2416,2
DA:2417,0
DA:2418,0
DA:2419,0
DA:2420,0
DA:2421,0
DA:2422,0
DA:2425,2
DA:2426,2
DA:2427,2
DA:2428,2
DA:2429,2
DA:2430,2
DA:2431,2
DA:2432,2
DA:2437,0
DA:2438,0
DA:2443,0
DA:2444,0
DA:2445,2
DA:2476,36
DA:2477,36
DA:2478,36
DA:2479,36
DA:2480,36
DA:2481,36
DA:2482,36
DA:2483,36
DA:2487,2
DA:2488,2
DA:2489,2
DA:2490,2
DA:2492,0
DA:2494,2
DA:2496,36
DA:2497,36
DA:2498,0
DA:2499,0
DA:2500,0
DA:2502,0
DA:2506,34
DA:2507,36
DA:2508,0
DA:2509,0
DA:2510,0
DA:2513,36
DA:2519,34
DA:2521,1
DA:2522,1
DA:2524,1
DA:2525,1
DA:2528,1
DA:2529,1
DA:2530,1
DA:2541,34
DA:2542,34
DA:2543,36
DA:2554,2
DA:2555,2
DA:2556,2
DA:2587,2238
DA:2588,2238
DA:2589,2238
DA:2590,2238
DA:2592,2238
DA:2593,2238
DA:2594,2
DA:2595,2236
DA:2596,2236
DA:2600,6
DA:2601,2230
DA:2602,2230
DA:2603,518
DA:2604,1706
DA:2605,1706
DA:2611,3
DA:2612,3
DA:2622,3
DA:2623,3
DA:2626,2238
DA:2665,14
DA:2666,14
DA:2667,14
DA:2668,14
DA:2669,14
DA:2670,14
DA:2671,14
DA:2672,14
DA:2673,14
DA:2674,14
DA:2675,14
DA:2676,1
DA:2678,13
DA:2680,14
DA:2681,14
DA:2682,16
DA:2683,2
DA:2684,1
DA:2685,1
DA:2686,1
DA:2689,13
DA:2692,9
DA:2693,9
DA:2694,9
DA:2697,2
DA:2703,3
DA:2704,3
DA:2705,3
DA:2706,3
DA:2707,3
DA:2710,12
DA:2711,14
DA:2733,10
DA:2734,10
DA:2735,10
DA:2736,10
DA:2737,10
DA:2738,10
DA:2739,10
DA:2740,10
DA:2744,3
DA:2745,3
DA:2746,3
DA:2747,3
DA:2749,0
DA:2751,3
DA:2755,10
DA:2757,10
DA:2758,8
DA:2760,1
DA:2761,1
DA:2764,1
DA:2765,1
DA:2769,8
DA:2770,7
DA:2771,1
DA:2772,1
DA:2773,1
DA:2774,1
DA:2778,7
DA:2779,10
DA:2810,0
DA:2811,0
DA:2812,0
DA:2813,0
DA:2814,0
DA:2815,0
DA:2816,0
DA:2817,0
DA:2838,0
DA:2839,0
DA:2840,0
DA:2841,0
DA:2842,0
DA:2843,0
DA:2844,0
DA:2845,0
DA:2846,0
DA:2848,0
DA:2849,0
DA:2850,0
DA:2851,0
DA:2852,0
DA:2855,0
DA:2856,0
DA:2857,0
DA:2860,0
DA:2861,0
DA:2862,0
DA:2864,0
DA:2865,0
DA:2867,0
DA:2868,0
DA:2870,0
DA:2871,0
DA:2872,0
DA:2873,0
DA:2874,0
DA:2881,0
DA:2882,0
DA:2884,0
DA:2885,0
DA:2887,0
DA:2888,0
DA:2889,0
DA:2890,0
DA:2891,0
DA:2894,0
DA:2895,0
DA:2896,0
DA:2897,0
DA:2898,0
DA:2899,0
DA:2900,0
DA:2901,0
DA:2902,0
DA:2903,0
DA:2904,0
DA:2905,0
DA:2906,0
DA:2909,0
DA:2910,0
DA:2911,0
DA:2912,0
DA:2913,0
DA:2914,0
DA:2915,0
DA:2916,0
DA:2917,0
DA:2918,0
DA:2920,0
DA:2921,0
DA:2922,0
DA:2923,0
DA:2924,0
DA:2929,0
DA:2930,0
DA:2931,0
DA:2932,0
DA:2933,0
DA:2934,0
DA:2935,0
DA:2936,0
DA:2937,0
DA:2938,0
DA:2939,0
DA:2941,0
DA:2942,0
DA:2943,0
DA:2944,0
DA:2945,0
DA:2946,0
DA:2949,0
DA:2950,0
DA:2951,0
DA:2952,0
DA:2953,0
DA:2954,0
DA:2955,0
DA:2956,0
DA:2957,0
DA:2958,0
DA:2959,0
DA:2964,0
DA:2965,0
DA:2966,0
DA:2967,0
DA:2968,0
DA:2969,0
DA:2970,0
DA:2971,0
DA:2972,0
DA:2973,0
DA:2974,0
DA:2975,0
DA:2976,0
DA:2977,0
DA:2978,0
DA:2979,0
DA:2980,0
DA:2981,0
DA:2982,0
DA:2983,0
DA:2984,0
DA:2985,0
DA:2986,0
DA:2988,0
DA:2990,0
DA:2991,0
DA:2992,0
DA:2993,0
DA:2994,0
DA:2995,0
DA:2996,0
DA:2997,0
DA:2999,0
DA:3000,0
DA:3001,0
DA:3002,0
DA:3003,0
DA:3004,0
DA:3005,0
DA:3006,0
DA:3007,0
DA:3008,0
DA:3009,0
DA:3010,0
DA:3011,0
DA:3012,0
DA:3013,0
DA:3014,0
DA:3015,0
DA:3016,0
DA:3017,0
DA:3018,0
DA:3019,0
DA:3022,0
DA:3023,0
DA:3024,0
DA:3028,0
DA:3029,0
DA:3030,0
DA:3031,0
DA:3032,0
DA:3033,0
DA:3034,0
DA:3035,0
DA:3036,0
DA:3102,60
DA:3103,60
DA:3104,60
DA:3105,60
DA:3106,60
DA:3107,60
DA:3109,0
DA:3112,0
DA:3113,0
DA:3114,0
DA:3115,0
DA:3116,0
DA:3117,0
DA:3118,0
DA:3119,0
DA:3120,0
DA:3121,0
DA:3122,0
DA:3123,0
DA:3124,0
DA:3127,60
DA:3142,17
DA:3143,17
DA:3144,16
DA:3145,16
DA:3146,16
DA:3147,16
DA:3148,16
DA:3149,16
DA:3150,16
DA:3151,16
DA:3152,16
DA:3153,16
DA:3154,16
DA:3155,16
DA:3156,16
DA:3157,16
DA:3158,16
DA:3159,16
DA:3160,16
DA:3161,39
DA:3162,23
DA:3163,16
DA:3164,16
DA:3165,16
DA:3166,7
DA:3167,7
DA:3168,7
DA:3170,16
DA:3171,16
DA:3173,0
DA:3174,0
DA:3177,16
DA:3178,16
DA:3179,0
DA:3180,0
DA:3181,16
DA:3182,16
DA:3183,16
DA:3184,16
DA:3186,1
DA:3187,1
DA:3188,1
DA:3189,5
DA:3190,4
DA:3191,1
DA:3192,1
DA:3193,1
DA:3194,3
DA:3195,3
DA:3196,3
DA:3198,1
DA:3199,1
DA:3200,1
DA:3203,17
DA:3209,37612
DA:3210,37612
DA:3211,37612
DA:3212,37612
DA:3213,37612
DA:3215,0
DA:3216,0
DA:3219,37612
DA:3220,37612
DA:3221,0
DA:3222,0
DA:3223,37612
DA:3224,37612
DA:3225,37612
DA:3226,37612
DA:3228,0
DA:3229,0
DA:3230,0
DA:3231,0
DA:3232,0
DA:3233,0
DA:3234,0
DA:3235,0
DA:3236,0
DA:3239,37612
DA:3245,2
DA:3246,2
DA:3247,1
DA:3248,1
DA:3249,1
DA:3251,0
DA:3252,0
DA:3255,1
DA:3256,1
DA:3257,0
DA:3258,0
DA:3259,1
DA:3260,1
DA:3261,1
DA:3262,1
DA:3264,1
DA:3265,1
DA:3266,1
DA:3267,1
DA:3269,2
DA:3272,10
DA:3273,10
DA:3274,10
DA:3275,10
DA:3276,10
DA:3277,10
DA:3278,0
DA:3279,0
DA:3280,0
DA:3281,0
DA:3283,10
DA:3288,12
DA:3289,12
DA:3290,12
DA:3291,12
DA:3293,0
DA:3294,0
DA:3297,12
DA:3312,81
DA:3313,81
DA:3314,81
DA:3315,81
DA:3316,81
DA:3317,81
DA:3318,81
DA:3319,81
DA:3320,81
DA:3325,81
DA:3326,0
DA:3328,81
DA:3330,81
DA:3331,81
DA:3332,81
DA:3333,81
DA:3334,81
DA:3335,81
DA:3336,81
DA:3337,81
DA:3338,81
DA:3339,81
DA:3340,81
DA:3341,81
DA:3342,81
DA:3448,81
DA:3449,81
DA:3450,81
DA:3451,81
DA:3452,81
DA:3453,81
DA:3454,81
DA:3455,81
DA:3456,81
DA:3457,81
DA:3458,81
DA:3459,81
DA:3460,81
DA:3461,81
DA:3462,81
DA:3463,81
DA:3496,81
DA:3497,81
DA:3498,81
DA:3499,81
DA:3500,81
DA:3501,81
DA:3502,81
DA:3503,81
DA:3504,81
DA:3505,81
DA:3506,0
DA:3507,0
DA:3508,0
DA:3509,0
DA:3510,0
DA:3511,0
DA:3512,0
DA:3513,0
DA:3514,0
DA:3515,0
DA:3516,0
DA:3517,14
DA:3518,14
DA:3519,14
DA:3524,0
DA:3525,0
DA:3527,67
DA:3528,67
DA:3529,67
DA:3530,67
DA:3531,67
DA:3532,67
DA:3533,67
DA:3537,81
DA:3538,21
DA:3539,60
DA:3540,60
DA:3541,60
DA:3542,60
DA:3545,21
DA:3546,0
DA:3547,0
DA:3548,0
DA:3555,21
DA:3556,21
DA:3557,0
DA:3558,0
DA:3559,0
DA:3561,21
DA:3562,0
DA:3563,0
DA:3564,0
DA:3567,21
DA:3568,21
DA:3569,21
DA:3570,21
DA:3571,21
DA:3572,21
DA:3574,0
DA:3575,0
DA:3576,0
DA:3589,21
DA:3590,21
DA:3591,21
DA:3592,42
DA:3593,21
DA:3594,21
DA:3595,21
DA:3596,21
DA:3597,21
DA:3598,21
DA:3599,0
DA:3600,21
DA:3601,21
DA:3603,0
DA:3604,0
DA:3605,0
DA:3606,0
DA:3607,0
DA:3608,0
DA:3620,21
DA:3621,0
DA:3622,0
DA:3626,0
DA:3627,0
DA:3628,0
DA:3629,0
DA:3630,0
DA:3631,0
DA:3632,0
DA:3633,0
DA:3636,0
DA:3637,0
DA:3638,0
DA:3639,0
DA:3640,0
DA:3641,0
DA:3642,0
DA:3643,0
DA:3644,0
DA:3645,0
DA:3647,0
DA:3648,0
DA:3649,0
DA:3650,0
DA:3651,0
DA:3652,0
DA:3656,21
DA:3688,21
DA:3689,21
DA:3690,21
DA:3691,21
DA:3692,21
DA:3693,21
DA:3694,21
DA:3695,21
DA:3696,21
DA:3697,21
DA:3698,21
DA:3699,21
DA:3700,21
DA:3701,21
DA:3702,21
DA:3703,21
DA:3704,21
DA:3705,21
DA:3727,21
DA:3728,8
DA:3729,8
DA:3730,8
DA:3735,0
DA:3736,0
DA:3737,0
DA:3738,0
DA:3739,0
DA:3740,0
DA:3741,0
DA:3742,0
DA:3745,0
DA:3748,13
DA:3751,52774
DA:3759,52771
DA:3760,2729
DA:3761,2722
DA:3762,2722
DA:3763,2722
DA:3764,2722
DA:3765,2722
DA:3766,2722
DA:3767,2722
DA:3768,2722
DA:3769,2722
DA:3770,2722
DA:3771,2722
DA:3772,2722
DA:3773,2722
DA:3774,2722
DA:3775,2722
DA:3776,2524
DA:3777,2524
DA:3778,2524
DA:3779,2524
DA:3781,0
DA:3782,0
DA:3783,0
DA:3784,0
DA:3785,0
DA:3786,0
DA:3790,0
DA:3791,0
DA:3792,0
DA:3793,0
DA:3794,0
DA:3795,0
DA:3796,0
DA:3800,0
DA:3801,7
DA:3803,50042
DA:3806,103192
DA:3807,50421
DA:3808,50421
DA:3809,0
DA:3810,50421
DA:3814,52771
DA:3815,52771
DA:3816,89113
DA:3817,36343
DA:3818,0
DA:3819,36343
DA:3820,36343
DA:3822,73021
DA:3823,36678
DA:3824,36678
DA:3825,36678
DA:3826,14
DA:3827,36664
DA:3832,36678
DA:3833,36678
DA:3834,36678
DA:3836,36343
DA:3839,36328
DA:3850,14
DA:3857,1
DA:3859,0
DA:3861,1
DA:3862,1
DA:3872,52770
DA:3874,91347
DA:3875,10678
DA:3880,10678
DA:3881,16271
DA:3882,1135
DA:3884,0
DA:3885,0
DA:3888,15136
DA:3889,9543
DA:3891,5593
DA:3892,5593
DA:3893,5593
DA:3894,0
DA:3895,0
DA:3896,5593
DA:3900,10678
DA:3901,9543
DA:3902,1135
DA:3903,1135
DA:3904,1135
DA:3906,0
DA:3907,0
DA:3910,1135
DA:3911,1114
DA:3913,19
DA:3914,1
DA:3915,1
DA:3916,18
DA:3917,18
DA:3918,18
DA:3919,18
DA:3920,18
DA:3921,18
DA:3927,2
DA:3928,1
DA:3929,1
DA:3930,1
DA:3931,1
DA:3937,80650
DA:3938,80650
DA:3939,1
DA:3940,1
DA:3941,80649
DA:3942,80649
DA:3943,80649
DA:3944,43223
DA:3945,37426
DA:3946,37426
DA:3947,37426
DA:3948,37426
DA:3949,37426
DA:3950,37426
DA:3951,37426
DA:3952,37426
DA:3953,75037
DA:3954,37612
DA:3955,37612
DA:3956,37612
DA:3957,37612
DA:3958,37612
DA:3959,37612
DA:3960,37612
DA:3961,37612
DA:3962,37611
DA:3963,37611
DA:3964,37611
DA:3965,1
DA:3966,1
DA:3967,1
DA:3970,37611
DA:3972,37425
DA:3973,37425
DA:3974,37425
DA:3975,1110
DA:3976,36315
DA:3979,18
DA:3980,18
DA:3981,18
DA:3982,18
DA:3983,18
DA:3984,18
DA:3985,18
DA:3986,18
DA:3987,18
DA:3988,0
DA:3989,18
DA:3990,18
DA:3991,18
DA:3992,18
DA:3993,18
DA:3994,18
DA:3995,18
DA:3996,18
DA:3997,18
DA:3998,18
DA:3999,18
DA:4001,0
DA:4002,0
DA:4003,0
DA:4006,18
DA:4014,2
DA:4015,1
DA:4016,1
DA:4017,1
DA:4018,1
DA:4019,1
DA:4020,1
DA:4024,1
DA:4025,1
DA:4026,1
DA:4027,1
DA:4028,1
DA:4029,0
DA:4030,0
DA:4031,0
DA:4034,0
DA:4042,16
DA:4043,16
DA:4045,17
DA:4046,0
DA:4048,1
DA:4049,1
DA:4050,1
DA:4051,0
DA:4052,1
DA:4053,1
DA:4054,1
DA:4055,1
DA:4056,1
DA:4057,1
DA:4058,1
DA:4064,52766
DA:4065,36338
DA:4066,36338
DA:4068,52766
DA:4074,11
DA:4075,10
DA:4076,10
DA:4078,11
DA:4079,10
DA:4080,10
DA:4081,1
DA:4082,1
DA:4083,11
DA:4084,52755
DA:4085,52755
DA:4086,52755
DA:4087,52755
DA:4088,52755
DA:4089,52755
DA:4090,52755
DA:4091,52755
DA:4092,52755
DA:4093,52755
DA:4094,52755
DA:4095,52755
DA:4096,52755
DA:4097,52755
DA:4098,52755
DA:4099,52755
DA:4100,52755
DA:4104,52755
DA:4105,50228
DA:4106,50228
DA:4107,50228
DA:4108,50228
DA:4109,50228
DA:4110,50228
DA:4111,0
DA:4112,0
DA:4113,0
DA:4114,0
DA:4118,3
DA:4119,3
DA:4120,3
DA:4128,52755
DA:4129,2524
DA:4130,2517
DA:4131,2517
DA:4132,2517
DA:4133,2517
DA:4134,2517
DA:4135,2517
DA:4136,0
DA:4145,0
DA:4146,0
DA:4148,0
DA:4149,0
DA:4150,0
DA:4151,0
DA:4152,0
DA:4153,0
DA:4154,0
DA:4157,0
DA:4158,0
DA:4159,0
DA:4160,0
DA:4161,0
DA:4162,0
DA:4163,0
DA:4164,0
DA:4165,0
DA:4166,0
DA:4167,0
DA:4168,0
DA:4169,0
DA:4171,0
DA:4172,0
DA:4173,0
DA:4175,0
DA:4177,0
DA:4178,0
DA:4182,0
DA:4183,0
DA:4184,0
DA:4185,0
DA:4186,0
DA:4187,0
DA:4188,0
DA:4189,0
DA:4190,0
DA:4191,0
DA:4205,5
DA:4206,5
DA:4207,5
DA:4208,5
DA:4209,5
DA:4210,5
DA:4211,5
DA:4212,5
DA:4213,5
DA:4214,0
DA:4215,0
DA:4216,0
DA:4217,0
DA:4220,5
DA:4233,2
DA:4234,2
DA:4235,2
DA:4236,2
DA:4237,2
DA:4238,2
DA:4239,2
DA:4244,52753
DA:4250,21
DA:4251,21
DA:4252,21
DA:4255,10
DA:4256,10
DA:4257,11
DA:4258,11
DA:4261,3
DA:4262,3
DA:4263,8
DA:4264,8
DA:4265,8
DA:4266,8
DA:4267,8
DA:4268,8
DA:4269,81
DA:4312,2533
DA:4313,2531
DA:4314,2519
DA:4315,2519
DA:4316,0
DA:4318,8
DA:4319,8
DA:4320,1
DA:4322,7
DA:4325,6
DA:4327,2533
DA:4335,23
DA:4336,23
DA:4337,3
DA:4338,20
DA:4339,20
DA:4340,23
DA:4386,36349
DA:4387,36349
DA:4388,36329
DA:4389,3
DA:4390,17
DA:4392,36349
DA:4400,16275
DA:4401,16275
DA:4402,5792
DA:4403,10483
DA:4404,0
DA:4406,5792
DA:4407,5792
DA:4408,1137
DA:4409,4655
DA:4410,0
DA:4412,1137
DA:4413,16275
DA:4421,15
DA:4422,15
DA:4423,15
DA:4424,48
DA:4425,15
DA:4426,15
DA:4429,1
DA:4430,1
DA:4431,1
DA:4432,1
DA:4433,1
DA:4434,1
DA:4435,1
DA:4436,1
DA:4437,1
DA:4438,1
DA:4439,1
DA:4440,1
DA:4443,1
DA:4444,1
DA:4445,1
DA:4446,1
DA:4447,1
DA:4448,1
DA:4449,1
DA:4450,1
DA:4453,1
DA:4454,1
DA:4455,1
DA:4456,1
DA:4457,1
DA:4458,1
DA:4459,0
DA:4462,1
DA:4463,1
DA:4464,1
DA:4465,1
DA:4466,1
DA:4467,1
DA:4468,1
DA:4469,1
DA:4470,0
DA:4472,1
DA:4475,1
DA:4476,1
DA:4477,1
DA:4478,1
DA:4479,1
DA:4480,1
DA:4481,1
DA:4482,1
DA:4483,1
DA:4484,1
DA:4485,1
DA:4486,1
DA:4487,1
DA:4488,1
DA:4489,1
DA:4490,1
DA:4491,1
DA:4494,1
DA:4495,1
DA:4496,1
DA:4497,1
DA:4498,1
DA:4499,1
DA:4500,1
DA:4501,1
DA:4502,1
DA:4505,1
DA:4506,1
DA:4507,1
DA:4508,1
DA:4509,1
DA:4510,1
DA:4511,1
DA:4512,1
DA:4513,1
DA:4514,1
DA:4515,1
DA:4516,1
DA:4517,1
DA:4518,1
DA:4519,1
DA:4520,1
DA:4521,1
DA:4522,1
DA:4525,1
DA:4526,1
DA:4527,1
DA:4528,1
DA:4529,1
DA:4530,1
DA:4531,1
DA:4532,1
DA:4533,1
DA:4534,1
DA:4539,1
DA:4540,1
DA:4541,1
DA:4542,1
DA:4543,1
DA:4544,1
DA:4545,1
DA:4546,1
DA:4547,1
DA:4548,1
DA:4549,0
DA:4551,1
DA:4554,1
DA:4555,1
DA:4556,1
DA:4557,1
DA:4558,1
DA:4559,1
DA:4560,1
DA:4561,0
DA:4565,3
DA:4566,1
DA:4567,1
DA:4568,1
DA:4569,1
DA:4570,1
DA:4572,3
DA:4573,3
DA:4574,3
DA:4575,3
DA:4576,0
DA:4579,1
DA:4582,1
DA:4583,1
DA:4584,1
DA:4585,1
DA:4586,1
DA:4587,1
DA:4588,1
DA:4589,1
DA:4590,1
DA:4591,1
DA:4592,1
DA:4593,1
DA:4594,1
DA:4595,1
DA:4596,0
DA:4598,1
DA:4601,1
DA:4602,1
DA:4603,1
DA:4604,1
DA:4605,1
DA:4606,1
DA:4607,1
DA:4608,1
DA:4609,1
DA:4610,1
DA:4611,1
DA:4612,1
DA:4613,1
DA:4614,1
DA:4615,1
DA:4616,1
DA:4617,1
DA:4618,1
DA:4619,1
DA:4620,1
DA:4621,1
DA:4622,1
DA:4623,1
DA:4624,1
DA:4625,1
DA:4626,1
DA:4627,1
DA:4630,1
DA:4631,1
DA:4632,1
DA:4633,1
DA:4634,1
DA:4635,1
DA:4636,1
DA:4637,1
DA:4638,1
DA:4639,1
DA:4640,1
DA:4641,1
DA:4642,1
DA:4645,1
DA:4646,1
DA:4647,1
DA:4648,1
DA:4649,1
DA:4650,1
DA:4651,1
DA:4652,0
DA:4654,1
DA:4655,1
DA:4656,1
DA:4657,1
DA:4658,1
DA:4659,2
DA:4660,1
DA:4661,1
DA:4662,1
DA:4663,0
DA:4665,1
DA:4668,1
DA:4669,1
DA:4670,1
DA:4671,1
DA:4672,1
DA:4673,1
DA:4674,1
DA:4675,1
DA:4676,1
DA:4677,1
DA:4678,1
DA:4679,1
DA:4680,1
DA:4681,1
DA:4682,1
DA:4683,1
DA:4684,1
DA:4685,1
DA:4686,1
DA:4709,1
DA:4710,1
DA:4711,1
DA:4712,1
DA:4713,1
DA:4714,1
DA:4715,1
DA:4716,1
DA:4717,1
DA:4718,1
DA:4719,1
DA:4720,1
DA:4721,1
DA:4722,1
DA:4723,1
DA:4724,1
DA:4725,1
DA:4726,1
DA:4727,1
DA:4728,1
DA:4745,1
DA:4746,1
DA:4747,1
DA:4748,1
DA:4749,1
DA:4750,1
DA:4751,1
DA:4752,1
DA:4753,1
DA:4754,1
DA:4755,1
DA:4756,1
DA:4757,1
DA:4758,1
DA:4759,1
DA:4760,1
DA:4761,1
DA:4762,1
DA:4763,1
DA:4764,1
DA:4765,1
DA:4766,1
DA:4767,1
DA:4768,1
DA:4769,1
DA:4770,1
DA:4771,1
DA:4772,1
DA:4773,1
DA:4774,1
DA:4775,1
DA:4776,1
DA:4777,1
DA:4778,1
DA:4779,1
DA:4780,1
DA:4781,1
DA:4782,1
DA:4783,1
DA:4784,1
DA:4785,1
DA:4786,1
DA:4787,1
DA:4788,1
DA:4789,1
DA:4790,1
DA:4791,1
DA:4792,1
DA:4793,1
DA:4794,1
DA:4795,1
DA:4796,1
DA:4797,1
DA:4798,1
DA:4799,1
DA:4800,1
DA:4801,1
DA:4802,1
DA:4803,1
DA:4811,1
DA:4812,1
DA:4813,1
DA:4814,1
DA:4815,1
DA:4816,1
DA:4817,1
DA:4818,1
DA:4819,1
DA:4820,1
DA:4821,1
DA:4822,1
DA:4823,1
DA:4824,1
DA:4825,1
DA:4826,1
DA:4827,1
DA:4828,1
DA:4829,1
DA:4830,1
DA:4831,1
DA:4832,1
DA:4833,1
DA:4834,1
DA:4835,1
DA:4836,0
DA:4838,1
DA:4844,1
DA:4845,1
DA:4846,1
DA:4847,1
DA:4848,1
DA:4849,1
DA:4850,1
DA:4851,1
DA:4852,1
DA:4853,1
DA:4854,1
DA:4855,1
DA:4856,1
DA:4857,1
DA:4858,1
DA:4859,1
DA:4860,1
DA:4861,1
DA:4862,1
DA:4863,1
DA:4864,1
DA:4865,1
DA:4866,0
DA:4868,1
DA:4871,1
DA:4872,1
DA:4873,1
DA:4874,1
DA:4875,1
DA:4876,1
DA:4877,1
DA:4878,1
DA:4879,1
DA:4880,1
DA:4881,1
DA:4882,1
DA:4883,1
DA:4884,1
DA:4885,1
DA:4886,1
DA:4887,1
DA:4889,1
DA:4890,1
DA:4891,1
DA:4898,1
DA:4899,4
DA:4900,1
DA:4901,1
DA:4902,1
DA:4903,1
DA:4905,4
DA:4906,4
DA:4907,4
DA:4908,4
DA:4909,4
DA:4911,1
DA:4928,1
DA:4929,1
DA:4930,1
DA:4931,1
DA:4932,1
DA:4933,0
DA:4935,1
DA:4936,1
DA:4937,1
DA:4938,2
DA:4939,0
DA:4941,1
DA:4942,1
DA:4943,1
DA:4944,0
DA:4946,1
DA:4947,1
DA:4948,1
DA:4949,0
DA:4955,1
DA:4956,1
DA:4957,1
DA:4958,3
DA:4959,3
DA:4960,3
DA:4961,3
DA:4962,3
DA:4963,0
DA:4965,3
DA:4966,3
DA:4968,1
DA:4969,1
DA:4974,1
DA:4975,1
DA:4976,1
DA:4977,1
DA:4978,1
DA:4979,1
DA:4980,2
DA:4981,1
DA:4982,1
DA:4983,1
DA:4984,1
DA:4985,1
DA:4986,1
DA:4987,0
DA:4989,1
DA:4990,1
DA:4991,1
DA:4992,1
DA:4993,0
DA:4995,1
DA:5004,1
DA:5005,1
DA:5006,1
DA:5007,1
DA:5008,1
DA:5009,1
DA:5010,1
DA:5011,1
DA:5012,1
DA:5013,1
DA:5014,1
DA:5015,1
DA:5016,1
DA:5017,1
DA:5018,1
DA:5019,1
DA:5020,1
DA:5021,1
DA:5022,1
DA:5023,1
DA:5024,1
DA:5025,1
DA:5026,1
DA:5027,1
DA:5028,1
DA:5029,1
DA:5030,1
DA:5031,1
DA:5032,1
DA:5033,1
DA:5034,1
DA:5035,1
DA:5036,1
DA:5037,1
DA:5038,1
DA:5039,1
DA:5040,1
DA:5041,1
DA:5042,1
DA:5043,1
DA:5044,1
DA:5045,1
DA:5046,1
DA:5047,1
DA:5048,1
DA:5049,1
DA:5050,1
DA:5051,1
DA:5052,1
DA:5053,1
DA:5054,1
DA:5055,1
DA:5056,1
DA:5057,1
DA:5058,1
DA:5059,1
DA:5060,1
DA:5061,1
DA:5062,1
DA:5063,1
DA:5064,1
DA:5065,1
DA:5066,1
DA:5067,1
DA:5068,1
DA:5069,1
DA:5070,1
DA:5071,1
DA:5072,1
DA:5073,1
DA:5074,1
DA:5075,1
DA:5076,1
DA:5077,1
DA:5078,1
DA:5079,1
DA:5080,1
DA:5081,1
DA:5082,1
DA:5083,1
DA:5084,1
DA:5085,1
DA:5086,1
DA:5087,1
DA:5088,1
DA:5094,1
DA:5095,1
DA:5096,1
DA:5097,1
DA:5098,1
DA:5099,0
DA:5102,1
DA:5103,1
DA:5105,1
DA:5106,1
DA:5107,1
DA:5114,1
DA:5115,1
DA:5116,1
DA:5117,1
DA:5118,1
DA:5119,1
DA:5120,1
DA:5121,1
DA:5122,1
DA:5123,1
DA:5124,1
DA:5125,1
DA:5126,1
DA:5127,1
DA:5128,1
DA:5129,1
DA:5130,1
DA:5131,1
DA:5132,1
DA:5133,1
DA:5134,1
DA:5135,1
DA:5136,1
DA:5137,1
DA:5138,1
DA:5139,1
DA:5140,1
DA:5141,1
DA:5142,1
DA:5143,1
DA:5144,1
DA:5145,1
DA:5146,1
DA:5147,1
DA:5148,1
DA:5149,1
DA:5150,1
DA:5151,1
DA:5152,1
DA:5153,1
DA:5154,1
DA:5155,1
DA:5156,1
DA:5157,1
DA:5158,1
DA:5159,1
DA:5160,1
DA:5161,1
DA:5162,1
DA:5163,1
DA:5164,1
DA:5165,1
DA:5166,1
DA:5167,1
DA:5168,1
DA:5169,1
DA:5170,1
DA:5179,1
DA:5180,1
DA:5181,1
DA:5182,1
DA:5183,1
DA:5184,1
DA:5185,1
DA:5186,1
DA:5187,1
DA:5188,1
DA:5189,1
DA:5190,1
DA:5191,1
DA:5192,1
DA:5193,1
DA:5194,1
DA:5195,1
DA:5196,1
DA:5197,1
DA:5198,1
DA:5199,1
DA:5200,1
DA:5201,1
DA:5202,1
DA:5203,1
DA:5204,1
DA:5205,1
DA:5206,3
DA:5207,2
DA:5208,1
DA:5209,1
DA:5210,1
DA:5211,1
DA:5212,1
DA:5213,1
DA:5214,1
DA:5215,1
DA:5216,1
DA:5217,1
DA:5218,1
DA:5219,1
DA:5220,1
DA:5221,1
DA:5222,1
DA:5223,1
DA:5224,1
DA:5225,1
DA:5226,1
DA:5227,1
DA:5228,1
DA:5229,1
DA:5230,1
DA:5231,1
DA:5232,1
DA:5233,1
DA:5234,1
DA:5235,1
DA:5236,1
DA:5237,1
DA:5238,1
DA:5239,1
DA:5240,1
DA:5241,1
DA:5242,1
DA:5243,1
DA:5244,1
DA:5245,1
DA:5246,1
DA:5247,3
DA:5248,2
DA:5249,1
DA:5250,1
DA:5251,1
DA:5252,1
DA:5253,1
DA:5254,1
DA:5255,1
DA:5256,1
DA:5257,1
DA:5258,1
DA:5259,1
DA:5260,1
DA:5261,1
DA:5262,1
DA:5263,1
DA:5264,1
DA:5265,1
DA:5266,1
DA:5270,1
DA:5271,1
DA:5272,1
DA:5273,1
DA:5274,0
DA:5276,1
DA:5277,1
DA:5278,1
DA:5279,1
DA:5280,0
DA:5282,1
DA:5287,1
DA:5288,1
DA:5289,1
DA:5290,1
DA:5291,1
DA:5292,1
DA:5293,1
DA:5294,1
DA:5295,1
DA:5296,1
DA:5297,1
DA:5303,1
DA:5304,1
DA:5305,1
DA:5306,1
DA:5307,1
DA:5308,1
DA:5309,1
DA:5311,1
DA:5312,1
DA:5313,1
DA:5314,1
DA:5315,1
DA:5317,1
DA:5318,1
DA:5319,1
DA:5321,1
DA:5322,1
DA:5323,1
DA:5324,1
DA:5325,1
DA:5326,1
DA:5327,1
DA:5333,1
DA:5334,1
DA:5335,1
DA:5336,1
DA:5337,1
DA:5338,1
DA:5339,1
DA:5340,1
DA:5349,1
DA:5350,1
DA:5351,1
DA:5352,1
DA:5353,1
DA:5354,1
DA:5355,1
DA:5356,1
DA:5357,1
DA:5358,1
DA:5359,1
DA:5360,1
DA:5361,1
DA:5362,1
DA:5363,1
DA:5364,1
DA:5365,1
DA:5366,1
DA:5370,1
DA:5371,1
DA:5372,1
DA:5373,1
DA:5374,1
DA:5375,1
DA:5376,1
DA:5377,1
DA:5378,1
DA:5379,1
DA:5380,1
DA:5381,1
DA:5382,1
DA:5383,1
DA:5386,1
DA:5387,1
DA:5388,1
DA:5389,1
DA:5390,1
DA:5391,1
DA:5396,1
DA:5397,1
DA:5398,1
DA:5399,1
DA:5400,1
DA:5404,1
DA:5405,1
DA:5406,1
DA:5407,1
DA:5408,1
DA:5412,1
DA:5413,1
DA:5414,1
DA:5415,1
DA:5416,1
DA:5417,1
DA:5418,1
DA:5419,1
DA:5420,1
DA:5428,1
DA:5429,1
DA:5430,1
DA:5431,1
DA:5432,1
DA:5433,1
DA:5434,1
DA:5435,1
DA:5436,1
DA:5437,1
DA:5438,1
DA:5439,1
DA:5440,1
DA:5441,1
DA:5442,1
DA:5443,1
DA:5444,1
DA:5446,1
DA:5447,1
DA:5448,1
DA:5449,1
DA:5450,1
DA:5454,1
DA:5461,1
DA:5462,1
DA:5468,1
DA:5469,3
DA:5470,3
DA:5471,3
DA:5472,3
DA:5473,3
DA:5474,0
DA:5477,1
DA:5484,1
DA:5485,1
DA:5486,1
DA:5487,1
DA:5488,1
DA:5489,1
DA:5497,1
DA:5498,1
DA:5499,1
DA:5500,1
DA:5501,1
DA:5502,1
DA:5503,1
DA:5504,1
DA:5505,1
DA:5506,1
DA:5507,1
DA:5508,1
DA:5509,1
DA:5510,1
DA:5511,1
DA:5513,1
DA:5514,1
DA:5515,1
DA:5516,0
DA:5519,0
DA:5523,1
DA:5524,1
DA:5531,1
DA:5532,1
DA:5533,1
DA:5534,1
DA:5535,1
DA:5536,1
DA:5537,1
DA:5539,0
DA:5544,1
DA:5545,1
DA:5547,0
DA:5553,1
DA:5554,1
DA:5556,0
DA:5566,1
DA:5567,1
DA:5568,1
DA:5569,1
DA:5570,1
DA:5571,1
DA:5572,1
DA:5573,1
DA:5574,0
DA:5576,1
DA:5577,1
DA:5579,0
DA:5581,1
DA:5582,1
DA:5584,0
DA:5586,1
DA:5587,1
DA:5589,0
DA:5591,1
DA:5603,1
DA:5604,1
DA:5605,1
DA:5612,1
DA:5613,1
DA:5615,0
DA:5620,1
DA:5621,1
DA:5623,0
DA:5625,1
DA:5626,1
DA:5628,0
DA:5634,1
DA:5635,1
DA:5636,1
DA:5637,1
DA:5638,1
DA:5639,1
DA:5640,1
DA:5641,1
DA:5642,1
DA:5656,1
DA:5657,1
DA:5658,1
DA:5659,1
DA:5660,1
DA:5661,1
DA:5662,1
DA:5663,1
DA:5664,1
DA:5665,1
DA:5666,1
DA:5667,1
DA:5668,1
DA:5669,1
DA:5670,1
DA:5671,1
DA:5672,1
DA:5673,0
DA:5674,1
DA:5675,1
DA:5676,1
DA:5677,1
DA:5686,1
DA:5687,1
DA:5688,1
DA:5689,1
DA:5690,1
DA:5691,1
DA:5692,1
DA:5693,1
DA:5694,1
DA:5695,1
DA:5696,1
DA:5697,1
DA:5698,1
DA:5699,1
DA:5700,1
DA:5701,1
DA:5702,1
DA:5703,1
DA:5704,1
DA:5705,1
DA:5706,1
DA:5707,1
DA:5708,1
DA:5709,1
DA:5710,1
DA:5711,1
DA:5712,0
DA:5713,0
DA:5714,1
DA:5715,1
DA:5716,1
DA:5717,1
DA:5718,1
BRF:0
BRH:0
LF:3299
LH:2658
end_of_record
SF:/home/ubuntu/Code/ExpressGateway/crates/lb-quic/src/listener.rs
FN:165,_RINvMs_NtCsFtQQ2UsJ2c_7lb_quic8listenerNtB5_18QuicListenerParams15with_h3_backendpEB7_
FN:265,_RNCNCNvMs0_NtCsFtQQ2UsJ2c_7lb_quic8listenerNtB9_12QuicListener5spawn00Bb_
FN:320,_RNCNCNvMs0_NtCsFtQQ2UsJ2c_7lb_quic8listenerNtB9_12QuicListener5spawn0s0_0Bb_
FN:279,_RNCNCNvMs0_NtCsFtQQ2UsJ2c_7lb_quic8listenerNtB9_12QuicListener5spawn0s_0Bb_
FN:229,_RNCNvMs0_NtCsFtQQ2UsJ2c_7lb_quic8listenerNtB7_12QuicListener5spawn0B9_
FN:389,_RNCNvNtCsFtQQ2UsJ2c_7lb_quic8listener29load_or_generate_retry_secret0B5_
FN:338,_RNvMs0_NtCsFtQQ2UsJ2c_7lb_quic8listenerNtB5_12QuicListener10local_addr
FN:350,_RNvMs0_NtCsFtQQ2UsJ2c_7lb_quic8listenerNtB5_12QuicListener12replay_guard
FN:344,_RNvMs0_NtCsFtQQ2UsJ2c_7lb_quic8listenerNtB5_12QuicListener12retry_signer
FN:226,_RNvMs0_NtCsFtQQ2UsJ2c_7lb_quic8listenerNtB5_12QuicListener5spawn
FN:356,_RNvMs0_NtCsFtQQ2UsJ2c_7lb_quic8listenerNtB5_12QuicListener8shutdown
FN:155,_RNvMs_NtCsFtQQ2UsJ2c_7lb_quic8listenerNtB4_18QuicListenerParams13with_backends
FN:179,_RNvMs_NtCsFtQQ2UsJ2c_7lb_quic8listenerNtB4_18QuicListenerParams15with_h2_backend
FN:193,_RNvMs_NtCsFtQQ2UsJ2c_7lb_quic8listenerNtB4_18QuicListenerParams16with_raw_backend
FN:125,_RNvMs_NtCsFtQQ2UsJ2c_7lb_quic8listenerNtB4_18QuicListenerParams3new
FN:398,_RNvNtCsFtQQ2UsJ2c_7lb_quic8listener17write_secret_file
FN:426,_RNvNtCsFtQQ2UsJ2c_7lb_quic8listener19build_server_config
FN:362,_RNvNtCsFtQQ2UsJ2c_7lb_quic8listener29load_or_generate_retry_secret
FN:101,_RNvXNtCsFtQQ2UsJ2c_7lb_quic8listenerNtB2_18QuicListenerParamsNtNtCs2va5m0jqTTM_4core3fmt5Debug3fmt
FN:265,_RNCNCNvMs0_NtCsFtQQ2UsJ2c_7lb_quic8listenerNtB9_12QuicListener5spawn00CsgcQANSKc6CW_16h3_h1_bridge_e2e
FN:320,_RNCNCNvMs0_NtCsFtQQ2UsJ2c_7lb_quic8listenerNtB9_12QuicListener5spawn0s0_0CsgcQANSKc6CW_16h3_h1_bridge_e2e
FN:279,_RNCNCNvMs0_NtCsFtQQ2UsJ2c_7lb_quic8listenerNtB9_12QuicListener5spawn0s_0CsgcQANSKc6CW_16h3_h1_bridge_e2e
FN:229,_RNCNvMs0_NtCsFtQQ2UsJ2c_7lb_quic8listenerNtB7_12QuicListener5spawn0CsgcQANSKc6CW_16h3_h1_bridge_e2e
FN:265,_RNCNCNvMs0_NtCsFtQQ2UsJ2c_7lb_quic8listenerNtB9_12QuicListener5spawn00Cs4rke12yGnwN_21h3_h1_resp_stream_e2e
FN:320,_RNCNCNvMs0_NtCsFtQQ2UsJ2c_7lb_quic8listenerNtB9_12QuicListener5spawn0s0_0Cs4rke12yGnwN_21h3_h1_resp_stream_e2e
FN:279,_RNCNCNvMs0_NtCsFtQQ2UsJ2c_7lb_quic8listenerNtB9_12QuicListener5spawn0s_0Cs4rke12yGnwN_21h3_h1_resp_stream_e2e
FN:229,_RNCNvMs0_NtCsFtQQ2UsJ2c_7lb_quic8listenerNtB7_12QuicListener5spawn0Cs4rke12yGnwN_21h3_h1_resp_stream_e2e
FN:265,_RNCNCNvMs0_NtCsFtQQ2UsJ2c_7lb_quic8listenerNtB9_12QuicListener5spawn00Cs19teGkRmEuA_21h3_h1_stream_body_e2e
FN:320,_RNCNCNvMs0_NtCsFtQQ2UsJ2c_7lb_quic8listenerNtB9_12QuicListener5spawn0s0_0Cs19teGkRmEuA_21h3_h1_stream_body_e2e
FN:279,_RNCNCNvMs0_NtCsFtQQ2UsJ2c_7lb_quic8listenerNtB9_12QuicListener5spawn0s_0Cs19teGkRmEuA_21h3_h1_stream_body_e2e
FN:229,_RNCNvMs0_NtCsFtQQ2UsJ2c_7lb_quic8listenerNtB7_12QuicListener5spawn0Cs19teGkRmEuA_21h3_h1_stream_body_e2e
FN:265,_RNCNCNvMs0_NtCsFtQQ2UsJ2c_7lb_quic8listenerNtB9_12QuicListener5spawn00Cs29XIsylJmqt_28h3_h1_stream_body_errors_e2e
FN:320,_RNCNCNvMs0_NtCsFtQQ2UsJ2c_7lb_quic8listenerNtB9_12QuicListener5spawn0s0_0Cs29XIsylJmqt_28h3_h1_stream_body_errors_e2e
FN:279,_RNCNCNvMs0_NtCsFtQQ2UsJ2c_7lb_quic8listenerNtB9_12QuicListener5spawn0s_0Cs29XIsylJmqt_28h3_h1_stream_body_errors_e2e
FN:229,_RNCNvMs0_NtCsFtQQ2UsJ2c_7lb_quic8listenerNtB7_12QuicListener5spawn0Cs29XIsylJmqt_28h3_h1_stream_body_errors_e2e
FN:265,_RNCNCNvMs0_NtCsFtQQ2UsJ2c_7lb_quic8listenerNtB9_12QuicListener5spawn00Cs8DW3fMZvlEK_23h3_h1_trailers_resp_e2e
FN:320,_RNCNCNvMs0_NtCsFtQQ2UsJ2c_7lb_quic8listenerNtB9_12QuicListener5spawn0s0_0Cs8DW3fMZvlEK_23h3_h1_trailers_resp_e2e
FN:279,_RNCNCNvMs0_NtCsFtQQ2UsJ2c_7lb_quic8listenerNtB9_12QuicListener5spawn0s_0Cs8DW3fMZvlEK_23h3_h1_trailers_resp_e2e
FN:229,_RNCNvMs0_NtCsFtQQ2UsJ2c_7lb_quic8listenerNtB7_12QuicListener5spawn0Cs8DW3fMZvlEK_23h3_h1_trailers_resp_e2e
FN:265,_RNCNCNvMs0_NtCsFtQQ2UsJ2c_7lb_quic8listenerNtB9_12QuicListener5spawn00Csc0ucLUzKP1z_16h3_h2_stream_e2e
FN:320,_RNCNCNvMs0_NtCsFtQQ2UsJ2c_7lb_quic8listenerNtB9_12QuicListener5spawn0s0_0Csc0ucLUzKP1z_16h3_h2_stream_e2e
FN:279,_RNCNCNvMs0_NtCsFtQQ2UsJ2c_7lb_quic8listenerNtB9_12QuicListener5spawn0s_0Csc0ucLUzKP1z_16h3_h2_stream_e2e
FN:229,_RNCNvMs0_NtCsFtQQ2UsJ2c_7lb_quic8listenerNtB7_12QuicListener5spawn0Csc0ucLUzKP1z_16h3_h2_stream_e2e
FN:165,_RINvMs_NtCsFtQQ2UsJ2c_7lb_quic8listenerNtB5_18QuicListenerParams15with_h3_backendReECs29MjELhVkYa_16h3_h3_stream_e2e
FN:265,_RNCNCNvMs0_NtCsFtQQ2UsJ2c_7lb_quic8listenerNtB9_12QuicListener5spawn00Cs29MjELhVkYa_16h3_h3_stream_e2e
FN:320,_RNCNCNvMs0_NtCsFtQQ2UsJ2c_7lb_quic8listenerNtB9_12QuicListener5spawn0s0_0Cs29MjELhVkYa_16h3_h3_stream_e2e
FN:279,_RNCNCNvMs0_NtCsFtQQ2UsJ2c_7lb_quic8listenerNtB9_12QuicListener5spawn0s_0Cs29MjELhVkYa_16h3_h3_stream_e2e
FN:229,_RNCNvMs0_NtCsFtQQ2UsJ2c_7lb_quic8listenerNtB7_12QuicListener5spawn0Cs29MjELhVkYa_16h3_h3_stream_e2e
FN:165,_RINvMs_NtCsiNLkn7P4XgI_7lb_quic8listenerNtB5_18QuicListenerParams15with_h3_backendpEB7_
FN:265,_RNCNCNvMs0_NtCsiNLkn7P4XgI_7lb_quic8listenerNtB9_12QuicListener5spawn00Bb_
FN:320,_RNCNCNvMs0_NtCsiNLkn7P4XgI_7lb_quic8listenerNtB9_12QuicListener5spawn0s0_0Bb_
FN:279,_RNCNCNvMs0_NtCsiNLkn7P4XgI_7lb_quic8listenerNtB9_12QuicListener5spawn0s_0Bb_
FN:229,_RNCNvMs0_NtCsiNLkn7P4XgI_7lb_quic8listenerNtB7_12QuicListener5spawn0B9_
FN:389,_RNCNvNtCsiNLkn7P4XgI_7lb_quic8listener29load_or_generate_retry_secret0B5_
FN:338,_RNvMs0_NtCsiNLkn7P4XgI_7lb_quic8listenerNtB5_12QuicListener10local_addr
FN:350,_RNvMs0_NtCsiNLkn7P4XgI_7lb_quic8listenerNtB5_12QuicListener12replay_guard
FN:344,_RNvMs0_NtCsiNLkn7P4XgI_7lb_quic8listenerNtB5_12QuicListener12retry_signer
FN:226,_RNvMs0_NtCsiNLkn7P4XgI_7lb_quic8listenerNtB5_12QuicListener5spawn
FN:356,_RNvMs0_NtCsiNLkn7P4XgI_7lb_quic8listenerNtB5_12QuicListener8shutdown
FN:155,_RNvMs_NtCsiNLkn7P4XgI_7lb_quic8listenerNtB4_18QuicListenerParams13with_backends
FN:179,_RNvMs_NtCsiNLkn7P4XgI_7lb_quic8listenerNtB4_18QuicListenerParams15with_h2_backend
FN:193,_RNvMs_NtCsiNLkn7P4XgI_7lb_quic8listenerNtB4_18QuicListenerParams16with_raw_backend
FN:125,_RNvMs_NtCsiNLkn7P4XgI_7lb_quic8listenerNtB4_18QuicListenerParams3new
FN:398,_RNvNtCsiNLkn7P4XgI_7lb_quic8listener17write_secret_file
FN:426,_RNvNtCsiNLkn7P4XgI_7lb_quic8listener19build_server_config
FN:362,_RNvNtCsiNLkn7P4XgI_7lb_quic8listener29load_or_generate_retry_secret
FN:101,_RNvXNtCsiNLkn7P4XgI_7lb_quic8listenerNtB2_18QuicListenerParamsNtNtCs2va5m0jqTTM_4core3fmt5Debug3fmt
FN:265,_RNCNCNvMs0_NtCsFtQQ2UsJ2c_7lb_quic8listenerNtB9_12QuicListener5spawn00Cs4UH0JsycgYR_18listener_lifecycle
FN:320,_RNCNCNvMs0_NtCsFtQQ2UsJ2c_7lb_quic8listenerNtB9_12QuicListener5spawn0s0_0Cs4UH0JsycgYR_18listener_lifecycle
FN:279,_RNCNCNvMs0_NtCsFtQQ2UsJ2c_7lb_quic8listenerNtB9_12QuicListener5spawn0s_0Cs4UH0JsycgYR_18listener_lifecycle
FN:229,_RNCNvMs0_NtCsFtQQ2UsJ2c_7lb_quic8listenerNtB7_12QuicListener5spawn0Cs4UH0JsycgYR_18listener_lifecycle
FN:265,_RNCNCNvMs0_NtCsFtQQ2UsJ2c_7lb_quic8listenerNtB9_12QuicListener5spawn00CsjxbL8hdICMn_18router_accept_path
FN:320,_RNCNCNvMs0_NtCsFtQQ2UsJ2c_7lb_quic8listenerNtB9_12QuicListener5spawn0s0_0CsjxbL8hdICMn_18router_accept_path
FN:279,_RNCNCNvMs0_NtCsFtQQ2UsJ2c_7lb_quic8listenerNtB9_12QuicListener5spawn0s_0CsjxbL8hdICMn_18router_accept_path
FN:229,_RNCNvMs0_NtCsFtQQ2UsJ2c_7lb_quic8listenerNtB7_12QuicListener5spawn0CsjxbL8hdICMn_18router_accept_path
FNDA:0,_RINvMs_NtCsFtQQ2UsJ2c_7lb_quic8listenerNtB5_18QuicListenerParams15with_h3_backendpEB7_
FNDA:0,_RNCNCNvMs0_NtCsFtQQ2UsJ2c_7lb_quic8listenerNtB9_12QuicListener5spawn00Bb_
FNDA:0,_RNCNCNvMs0_NtCsFtQQ2UsJ2c_7lb_quic8listenerNtB9_12QuicListener5spawn0s0_0Bb_
FNDA:0,_RNCNCNvMs0_NtCsFtQQ2UsJ2c_7lb_quic8listenerNtB9_12QuicListener5spawn0s_0Bb_
FNDA:0,_RNCNvMs0_NtCsFtQQ2UsJ2c_7lb_quic8listenerNtB7_12QuicListener5spawn0B9_
FNDA:0,_RNCNvNtCsFtQQ2UsJ2c_7lb_quic8listener29load_or_generate_retry_secret0B5_
FNDA:73,_RNvMs0_NtCsFtQQ2UsJ2c_7lb_quic8listenerNtB5_12QuicListener10local_addr
FNDA:1,_RNvMs0_NtCsFtQQ2UsJ2c_7lb_quic8listenerNtB5_12QuicListener12replay_guard
FNDA:2,_RNvMs0_NtCsFtQQ2UsJ2c_7lb_quic8listenerNtB5_12QuicListener12retry_signer
FNDA:76,_RNvMs0_NtCsFtQQ2UsJ2c_7lb_quic8listenerNtB5_12QuicListener5spawn
FNDA:76,_RNvMs0_NtCsFtQQ2UsJ2c_7lb_quic8listenerNtB5_12QuicListener8shutdown
FNDA:34,_RNvMs_NtCsFtQQ2UsJ2c_7lb_quic8listenerNtB4_18QuicListenerParams13with_backends
FNDA:8,_RNvMs_NtCsFtQQ2UsJ2c_7lb_quic8listenerNtB4_18QuicListenerParams15with_h2_backend
FNDA:0,_RNvMs_NtCsFtQQ2UsJ2c_7lb_quic8listenerNtB4_18QuicListenerParams16with_raw_backend
FNDA:76,_RNvMs_NtCsFtQQ2UsJ2c_7lb_quic8listenerNtB4_18QuicListenerParams3new
FNDA:74,_RNvNtCsFtQQ2UsJ2c_7lb_quic8listener17write_secret_file
FNDA:133,_RNvNtCsFtQQ2UsJ2c_7lb_quic8listener19build_server_config
FNDA:76,_RNvNtCsFtQQ2UsJ2c_7lb_quic8listener29load_or_generate_retry_secret
FNDA:0,_RNvXNtCsFtQQ2UsJ2c_7lb_quic8listenerNtB2_18QuicListenerParamsNtNtCs2va5m0jqTTM_4core3fmt5Debug3fmt
FNDA:1,_RNCNCNvMs0_NtCsFtQQ2UsJ2c_7lb_quic8listenerNtB9_12QuicListener5spawn00CsgcQANSKc6CW_16h3_h1_bridge_e2e
FNDA:1,_RNCNCNvMs0_NtCsFtQQ2UsJ2c_7lb_quic8listenerNtB9_12QuicListener5spawn0s0_0CsgcQANSKc6CW_16h3_h1_bridge_e2e
FNDA:0,_RNCNCNvMs0_NtCsFtQQ2UsJ2c_7lb_quic8listenerNtB9_12QuicListener5spawn0s_0CsgcQANSKc6CW_16h3_h1_bridge_e2e
FNDA:1,_RNCNvMs0_NtCsFtQQ2UsJ2c_7lb_quic8listenerNtB7_12QuicListener5spawn0CsgcQANSKc6CW_16h3_h1_bridge_e2e
FNDA:24,_RNCNCNvMs0_NtCsFtQQ2UsJ2c_7lb_quic8listenerNtB9_12QuicListener5spawn00Cs4rke12yGnwN_21h3_h1_resp_stream_e2e
FNDA:24,_RNCNCNvMs0_NtCsFtQQ2UsJ2c_7lb_quic8listenerNtB9_12QuicListener5spawn0s0_0Cs4rke12yGnwN_21h3_h1_resp_stream_e2e
FNDA:0,_RNCNCNvMs0_NtCsFtQQ2UsJ2c_7lb_quic8listenerNtB9_12QuicListener5spawn0s_0Cs4rke12yGnwN_21h3_h1_resp_stream_e2e
FNDA:24,_RNCNvMs0_NtCsFtQQ2UsJ2c_7lb_quic8listenerNtB7_12QuicListener5spawn0Cs4rke12yGnwN_21h3_h1_resp_stream_e2e
FNDA:5,_RNCNCNvMs0_NtCsFtQQ2UsJ2c_7lb_quic8listenerNtB9_12QuicListener5spawn00Cs19teGkRmEuA_21h3_h1_stream_body_e2e
FNDA:5,_RNCNCNvMs0_NtCsFtQQ2UsJ2c_7lb_quic8listenerNtB9_12QuicListener5spawn0s0_0Cs19teGkRmEuA_21h3_h1_stream_body_e2e
FNDA:0,_RNCNCNvMs0_NtCsFtQQ2UsJ2c_7lb_quic8listenerNtB9_12QuicListener5spawn0s_0Cs19teGkRmEuA_21h3_h1_stream_body_e2e
FNDA:5,_RNCNvMs0_NtCsFtQQ2UsJ2c_7lb_quic8listenerNtB7_12QuicListener5spawn0Cs19teGkRmEuA_21h3_h1_stream_body_e2e
FNDA:3,_RNCNCNvMs0_NtCsFtQQ2UsJ2c_7lb_quic8listenerNtB9_12QuicListener5spawn00Cs29XIsylJmqt_28h3_h1_stream_body_errors_e2e
FNDA:2,_RNCNCNvMs0_NtCsFtQQ2UsJ2c_7lb_quic8listenerNtB9_12QuicListener5spawn0s0_0Cs29XIsylJmqt_28h3_h1_stream_body_errors_e2e
FNDA:0,_RNCNCNvMs0_NtCsFtQQ2UsJ2c_7lb_quic8listenerNtB9_12QuicListener5spawn0s_0Cs29XIsylJmqt_28h3_h1_stream_body_errors_e2e
FNDA:2,_RNCNvMs0_NtCsFtQQ2UsJ2c_7lb_quic8listenerNtB7_12QuicListener5spawn0Cs29XIsylJmqt_28h3_h1_stream_body_errors_e2e
FNDA:2,_RNCNCNvMs0_NtCsFtQQ2UsJ2c_7lb_quic8listenerNtB9_12QuicListener5spawn00Cs8DW3fMZvlEK_23h3_h1_trailers_resp_e2e
FNDA:2,_RNCNCNvMs0_NtCsFtQQ2UsJ2c_7lb_quic8listenerNtB9_12QuicListener5spawn0s0_0Cs8DW3fMZvlEK_23h3_h1_trailers_resp_e2e
FNDA:0,_RNCNCNvMs0_NtCsFtQQ2UsJ2c_7lb_quic8listenerNtB9_12QuicListener5spawn0s_0Cs8DW3fMZvlEK_23h3_h1_trailers_resp_e2e
FNDA:2,_RNCNvMs0_NtCsFtQQ2UsJ2c_7lb_quic8listenerNtB7_12QuicListener5spawn0Cs8DW3fMZvlEK_23h3_h1_trailers_resp_e2e
FNDA:8,_RNCNCNvMs0_NtCsFtQQ2UsJ2c_7lb_quic8listenerNtB9_12QuicListener5spawn00Csc0ucLUzKP1z_16h3_h2_stream_e2e
FNDA:8,_RNCNCNvMs0_NtCsFtQQ2UsJ2c_7lb_quic8listenerNtB9_12QuicListener5spawn0s0_0Csc0ucLUzKP1z_16h3_h2_stream_e2e
FNDA:8,_RNCNCNvMs0_NtCsFtQQ2UsJ2c_7lb_quic8listenerNtB9_12QuicListener5spawn0s_0Csc0ucLUzKP1z_16h3_h2_stream_e2e
FNDA:8,_RNCNvMs0_NtCsFtQQ2UsJ2c_7lb_quic8listenerNtB7_12QuicListener5spawn0Csc0ucLUzKP1z_16h3_h2_stream_e2e
FNDA:24,_RINvMs_NtCsFtQQ2UsJ2c_7lb_quic8listenerNtB5_18QuicListenerParams15with_h3_backendReECs29MjELhVkYa_16h3_h3_stream_e2e
FNDA:84,_RNCNCNvMs0_NtCsFtQQ2UsJ2c_7lb_quic8listenerNtB9_12QuicListener5spawn00Cs29MjELhVkYa_16h3_h3_stream_e2e
FNDA:24,_RNCNCNvMs0_NtCsFtQQ2UsJ2c_7lb_quic8listenerNtB9_12QuicListener5spawn0s0_0Cs29MjELhVkYa_16h3_h3_stream_e2e
FNDA:24,_RNCNCNvMs0_NtCsFtQQ2UsJ2c_7lb_quic8listenerNtB9_12QuicListener5spawn0s_0Cs29MjELhVkYa_16h3_h3_stream_e2e
FNDA:24,_RNCNvMs0_NtCsFtQQ2UsJ2c_7lb_quic8listenerNtB7_12QuicListener5spawn0Cs29MjELhVkYa_16h3_h3_stream_e2e
FNDA:0,_RINvMs_NtCsiNLkn7P4XgI_7lb_quic8listenerNtB5_18QuicListenerParams15with_h3_backendpEB7_
FNDA:0,_RNCNCNvMs0_NtCsiNLkn7P4XgI_7lb_quic8listenerNtB9_12QuicListener5spawn00Bb_
FNDA:0,_RNCNCNvMs0_NtCsiNLkn7P4XgI_7lb_quic8listenerNtB9_12QuicListener5spawn0s0_0Bb_
FNDA:0,_RNCNCNvMs0_NtCsiNLkn7P4XgI_7lb_quic8listenerNtB9_12QuicListener5spawn0s_0Bb_
FNDA:0,_RNCNvMs0_NtCsiNLkn7P4XgI_7lb_quic8listenerNtB7_12QuicListener5spawn0B9_
FNDA:0,_RNCNvNtCsiNLkn7P4XgI_7lb_quic8listener29load_or_generate_retry_secret0B5_
FNDA:0,_RNvMs0_NtCsiNLkn7P4XgI_7lb_quic8listenerNtB5_12QuicListener10local_addr
FNDA:0,_RNvMs0_NtCsiNLkn7P4XgI_7lb_quic8listenerNtB5_12QuicListener12replay_guard
FNDA:0,_RNvMs0_NtCsiNLkn7P4XgI_7lb_quic8listenerNtB5_12QuicListener12retry_signer
FNDA:0,_RNvMs0_NtCsiNLkn7P4XgI_7lb_quic8listenerNtB5_12QuicListener5spawn
FNDA:0,_RNvMs0_NtCsiNLkn7P4XgI_7lb_quic8listenerNtB5_12QuicListener8shutdown
FNDA:0,_RNvMs_NtCsiNLkn7P4XgI_7lb_quic8listenerNtB4_18QuicListenerParams13with_backends
FNDA:0,_RNvMs_NtCsiNLkn7P4XgI_7lb_quic8listenerNtB4_18QuicListenerParams15with_h2_backend
FNDA:0,_RNvMs_NtCsiNLkn7P4XgI_7lb_quic8listenerNtB4_18QuicListenerParams16with_raw_backend
FNDA:0,_RNvMs_NtCsiNLkn7P4XgI_7lb_quic8listenerNtB4_18QuicListenerParams3new
FNDA:0,_RNvNtCsiNLkn7P4XgI_7lb_quic8listener17write_secret_file
FNDA:0,_RNvNtCsiNLkn7P4XgI_7lb_quic8listener19build_server_config
FNDA:0,_RNvNtCsiNLkn7P4XgI_7lb_quic8listener29load_or_generate_retry_secret
FNDA:0,_RNvXNtCsiNLkn7P4XgI_7lb_quic8listenerNtB2_18QuicListenerParamsNtNtCs2va5m0jqTTM_4core3fmt5Debug3fmt
FNDA:3,_RNCNCNvMs0_NtCsFtQQ2UsJ2c_7lb_quic8listenerNtB9_12QuicListener5spawn00Cs4UH0JsycgYR_18listener_lifecycle
FNDA:7,_RNCNCNvMs0_NtCsFtQQ2UsJ2c_7lb_quic8listenerNtB9_12QuicListener5spawn0s0_0Cs4UH0JsycgYR_18listener_lifecycle
FNDA:7,_RNCNCNvMs0_NtCsFtQQ2UsJ2c_7lb_quic8listenerNtB9_12QuicListener5spawn0s_0Cs4UH0JsycgYR_18listener_lifecycle
FNDA:7,_RNCNvMs0_NtCsFtQQ2UsJ2c_7lb_quic8listenerNtB7_12QuicListener5spawn0Cs4UH0JsycgYR_18listener_lifecycle
FNDA:3,_RNCNCNvMs0_NtCsFtQQ2UsJ2c_7lb_quic8listenerNtB9_12QuicListener5spawn00CsjxbL8hdICMn_18router_accept_path
FNDA:3,_RNCNCNvMs0_NtCsFtQQ2UsJ2c_7lb_quic8listenerNtB9_12QuicListener5spawn0s0_0CsjxbL8hdICMn_18router_accept_path
FNDA:3,_RNCNCNvMs0_NtCsFtQQ2UsJ2c_7lb_quic8listenerNtB9_12QuicListener5spawn0s_0CsjxbL8hdICMn_18router_accept_path
FNDA:3,_RNCNvMs0_NtCsFtQQ2UsJ2c_7lb_quic8listenerNtB7_12QuicListener5spawn0CsjxbL8hdICMn_18router_accept_path
FNF:19
FNH:16
DA:101,0
DA:102,0
DA:103,0
DA:104,0
DA:105,0
DA:106,0
DA:107,0
DA:108,0
DA:109,0
DA:110,0
DA:111,0
DA:112,0
DA:113,0
DA:114,0
DA:115,0
DA:116,0
DA:117,0
DA:118,0
DA:125,76
DA:126,76
DA:127,76
DA:128,76
DA:129,76
DA:130,76
DA:131,76
DA:132,76
DA:133,76
DA:134,76
DA:135,76
DA:136,76
DA:137,76
DA:138,76
DA:139,76
DA:140,76
DA:141,76
DA:142,76
DA:143,76
DA:144,76
DA:145,76
DA:146,76
DA:147,76
DA:148,76
DA:149,76
DA:150,76
DA:155,34
DA:156,34
DA:157,34
DA:158,34
DA:159,34
DA:165,24
DA:166,24
DA:167,24
DA:168,24
DA:169,24
DA:170,24
DA:171,24
DA:172,24
DA:173,24
DA:179,8
DA:180,8
DA:181,8
DA:182,8
DA:193,0
DA:194,0
DA:195,0
DA:196,0
DA:197,0
DA:198,0
DA:199,0
DA:200,0
DA:201,0
DA:202,0
DA:203,0
DA:226,76
DA:227,76
DA:228,76
DA:229,76
DA:230,76
DA:231,76
DA:232,76
DA:234,76
DA:235,76
DA:236,76
DA:237,76
DA:238,76
DA:239,76
DA:242,0
DA:243,0
DA:244,0
DA:245,0
DA:253,76
DA:254,76
DA:255,76
DA:256,76
DA:257,76
DA:258,76
DA:259,76
DA:260,76
DA:261,76
DA:262,76
DA:263,76
DA:264,76
DA:265,133
DA:266,133
DA:267,133
DA:268,133
DA:269,133
DA:270,133
DA:271,133
DA:272,133
DA:273,133
DA:274,133
DA:275,76
DA:276,76
DA:277,76
DA:278,76
DA:279,76
DA:280,42
DA:281,42
DA:282,42
DA:283,42
DA:284,42
DA:285,42
DA:286,42
DA:287,42
DA:288,42
DA:289,42
DA:290,42
DA:291,42
DA:292,42
DA:293,76
DA:294,76
DA:295,76
DA:296,76
DA:297,76
DA:298,76
DA:299,76
DA:300,76
DA:301,76
DA:302,76
DA:303,76
DA:304,76
DA:305,76
DA:306,76
DA:307,76
DA:308,76
DA:309,76
DA:310,76
DA:311,76
DA:312,76
DA:313,76
DA:314,76
DA:315,76
DA:316,76
DA:317,76
DA:318,76
DA:319,76
DA:320,76
DA:321,76
DA:322,0
DA:323,76
DA:324,76
DA:325,76
DA:326,76
DA:327,76
DA:328,76
DA:329,76
DA:330,76
DA:331,76
DA:332,76
DA:333,76
DA:334,76
DA:338,73
DA:339,73
DA:340,73
DA:344,2
DA:345,2
DA:346,2
DA:350,1
DA:351,1
DA:352,1
DA:356,76
DA:357,76
DA:358,76
DA:359,76
DA:362,76
DA:363,76
DA:364,2
DA:365,2
DA:366,0
DA:367,0
DA:368,0
DA:369,0
DA:370,0
DA:371,0
DA:372,2
DA:373,2
DA:374,2
DA:375,2
DA:376,2
DA:377,2
DA:378,2
DA:379,2
DA:381,74
DA:382,74
DA:383,74
DA:384,74
DA:385,0
DA:386,0
DA:387,74
DA:388,74
DA:389,74
DA:390,74
DA:391,74
DA:393,0
DA:395,76
DA:398,74
DA:401,74
DA:402,74
DA:403,74
DA:404,74
DA:405,74
DA:406,74
DA:407,74
DA:408,74
DA:409,74
DA:426,133
DA:427,133
DA:428,133
DA:429,133
DA:430,133
DA:431,133
DA:432,133
DA:433,133
DA:434,133
DA:435,133
DA:436,133
DA:437,133
DA:438,133
DA:439,133
DA:440,133
DA:441,133
DA:442,133
DA:443,133
DA:444,133
DA:445,133
DA:446,133
DA:447,133
DA:448,133
DA:449,0
DA:450,133
DA:451,133
DA:452,133
DA:453,133
DA:454,133
DA:455,133
DA:456,133
BRF:0
BRH:0
LF:265
LH:220
end_of_record
SF:/home/ubuntu/Code/ExpressGateway/crates/lb-quic/src/passthrough.rs
FN:608,_RNCNCNvNtCsFtQQ2UsJ2c_7lb_quic11passthrough13reclaim_flows00B7_
FN:609,_RNCNCNvNtCsFtQQ2UsJ2c_7lb_quic11passthrough13reclaim_flows0s_0B7_
FN:522,_RNCNvNtCsFtQQ2UsJ2c_7lb_quic11passthrough11audit_allow0B5_
FN:605,_RNCNvNtCsFtQQ2UsJ2c_7lb_quic11passthrough13reclaim_flows0B5_
FN:621,_RNCNvNtCsFtQQ2UsJ2c_7lb_quic11passthrough13reclaim_flowss_0B5_
FN:646,_RNCNvNtCsFtQQ2UsJ2c_7lb_quic11passthrough16sweep_idle_flows0B5_
FN:411,_RNCNvNtCsFtQQ2UsJ2c_7lb_quic11passthrough18build_retry_packet0B5_
FN:420,_RNCNvNtCsFtQQ2UsJ2c_7lb_quic11passthrough18build_retry_packets_0B5_
FN:1285,_RNCNvNtCsFtQQ2UsJ2c_7lb_quic11passthrough29load_or_generate_retry_secret0B5_
FN:152,_RNvMNtCsFtQQ2UsJ2c_7lb_quic11passthroughNtB2_17PassthroughParams3new
FN:256,_RNvMs0_NtCsFtQQ2UsJ2c_7lb_quic11passthroughNtB5_9FlowEntry5touch
FN:268,_RNvMs0_NtCsFtQQ2UsJ2c_7lb_quic11passthroughNtB5_9FlowEntry8get_peer
FN:263,_RNvMs0_NtCsFtQQ2UsJ2c_7lb_quic11passthroughNtB5_9FlowEntry8set_peer
FN:1230,_RNvMs1_NtCsFtQQ2UsJ2c_7lb_quic11passthroughNtB5_19PassthroughListener10local_addr
FN:1126,_RNvMs1_NtCsFtQQ2UsJ2c_7lb_quic11passthroughNtB5_19PassthroughListener5spawn
FN:1246,_RNvMs1_NtCsFtQQ2UsJ2c_7lb_quic11passthroughNtB5_19PassthroughListener8shutdown
FN:1239,_RNvMs1_NtCsFtQQ2UsJ2c_7lb_quic11passthroughNtB5_19PassthroughListener9flows_len
FN:1098,_RNvNtCsFtQQ2UsJ2c_7lb_quic11passthrough10elapsed_ms
FN:519,_RNvNtCsFtQQ2UsJ2c_7lb_quic11passthrough11audit_allow
FN:556,_RNvNtCsFtQQ2UsJ2c_7lb_quic11passthrough12evict_oldest
FN:533,_RNvNtCsFtQQ2UsJ2c_7lb_quic11passthrough12pick_backend
FN:944,_RNvNtCsFtQQ2UsJ2c_7lb_quic11passthrough12reverse_pump
FN:1006,_RNvNtCsFtQQ2UsJ2c_7lb_quic11passthrough13forward_short
FN:593,_RNvNtCsFtQQ2UsJ2c_7lb_quic11passthrough13reclaim_flows
FN:689,_RNvNtCsFtQQ2UsJ2c_7lb_quic11passthrough14handle_inbound
FN:741,_RNvNtCsFtQQ2UsJ2c_7lb_quic11passthrough14handle_initial
FN:1085,_RNvNtCsFtQQ2UsJ2c_7lb_quic11passthrough14sample_lb_scid
FN:545,_RNvNtCsFtQQ2UsJ2c_7lb_quic11passthrough15set_flows_gauge
FN:662,_RNvNtCsFtQQ2UsJ2c_7lb_quic11passthrough16run_idle_sweeper
FN:640,_RNvNtCsFtQQ2UsJ2c_7lb_quic11passthrough16sweep_idle_flows
FN:1052,_RNvNtCsFtQQ2UsJ2c_7lb_quic11passthrough17forward_short_via
FN:1294,_RNvNtCsFtQQ2UsJ2c_7lb_quic11passthrough17write_secret_file
FN:369,_RNvNtCsFtQQ2UsJ2c_7lb_quic11passthrough18build_retry_packet
FN:320,_RNvNtCsFtQQ2UsJ2c_7lb_quic11passthrough20hash_dcid_for_maglev
FN:995,_RNvNtCsFtQQ2UsJ2c_7lb_quic11passthrough21forward_long_existing
FN:736,_RNvNtCsFtQQ2UsJ2c_7lb_quic11passthrough22default_short_dcid_len
FN:460,_RNvNtCsFtQQ2UsJ2c_7lb_quic11passthrough24__test_build_retry_packet
FN:1258,_RNvNtCsFtQQ2UsJ2c_7lb_quic11passthrough29load_or_generate_retry_secret
FN:248,_RNvXs_NtCsFtQQ2UsJ2c_7lb_quic11passthroughNtB4_9FlowEntryNtNtNtCs2va5m0jqTTM_4core3ops4drop4Drop4drop
FN:1206,_RNCNCNCNCNvMs1_NtCsFtQQ2UsJ2c_7lb_quic11passthroughNtBd_19PassthroughListener5spawn0s1_000Bf_
FN:1202,_RNCNCNCNvMs1_NtCsFtQQ2UsJ2c_7lb_quic11passthroughNtBb_19PassthroughListener5spawn0s1_00Bd_
FN:1139,_RNCNCNvMs1_NtCsFtQQ2UsJ2c_7lb_quic11passthroughNtB9_19PassthroughListener5spawn00Bb_
FN:1159,_RNCNCNvMs1_NtCsFtQQ2UsJ2c_7lb_quic11passthroughNtB9_19PassthroughListener5spawn0s0_0Bb_
FN:1200,_RNCNCNvMs1_NtCsFtQQ2UsJ2c_7lb_quic11passthroughNtB9_19PassthroughListener5spawn0s1_0Bb_
FN:1149,_RNCNCNvMs1_NtCsFtQQ2UsJ2c_7lb_quic11passthroughNtB9_19PassthroughListener5spawn0s_0Bb_
FN:980,_RNCNCNvNtCsFtQQ2UsJ2c_7lb_quic11passthrough12reverse_pump00B7_
FN:1024,_RNCNCNvNtCsFtQQ2UsJ2c_7lb_quic11passthrough13forward_short00B7_
FN:1025,_RNCNCNvNtCsFtQQ2UsJ2c_7lb_quic11passthrough13forward_short0s_0B7_
FN:916,_RNCNCNvNtCsFtQQ2UsJ2c_7lb_quic11passthrough14handle_initial00B7_
FN:940,_RNCNCNvNtCsFtQQ2UsJ2c_7lb_quic11passthrough14handle_initial0s_0B7_
FN:1129,_RNCNvMs1_NtCsFtQQ2UsJ2c_7lb_quic11passthroughNtB7_19PassthroughListener5spawn0B9_
FN:944,_RNCNvNtCsFtQQ2UsJ2c_7lb_quic11passthrough12reverse_pump0B5_
FN:1006,_RNCNvNtCsFtQQ2UsJ2c_7lb_quic11passthrough13forward_short0B5_
FN:689,_RNCNvNtCsFtQQ2UsJ2c_7lb_quic11passthrough14handle_inbound0B5_
FN:749,_RNCNvNtCsFtQQ2UsJ2c_7lb_quic11passthrough14handle_initial0B5_
FN:667,_RNCNvNtCsFtQQ2UsJ2c_7lb_quic11passthrough16run_idle_sweeper0B5_
FN:995,_RNCNvNtCsFtQQ2UsJ2c_7lb_quic11passthrough21forward_long_existing0B5_
FN:284,_RNvNtCsFtQQ2UsJ2c_7lb_quic11passthrough23__flow_entry_field_audit
FN:1441,_RINvNtNtCsiNLkn7P4XgI_7lb_quic11passthrough5tests8test_ctxNCNCNvB2_s_29pick_backend_is_deterministic00EB6_
FN:1441,_RINvNtNtCsiNLkn7P4XgI_7lb_quic11passthrough5tests8test_ctxNCNCNvB2_s_31min_client_dcid_len_floor_table00EB6_
FN:1441,_RINvNtNtCsiNLkn7P4XgI_7lb_quic11passthrough5tests8test_ctxNCNCNvB2_s_31token_verify_reject_then_accept00EB6_
FN:1441,_RINvNtNtCsiNLkn7P4XgI_7lb_quic11passthrough5tests8test_ctxNCNCNvB2_s_31token_verify_reject_then_accept0s_0EB6_
FN:1441,_RINvNtNtCsiNLkn7P4XgI_7lb_quic11passthrough5tests8test_ctxNCNCNvB2_s_37forward_short_via_strict_source_table00EB6_
FN:1441,_RINvNtNtCsiNLkn7P4XgI_7lb_quic11passthrough5tests8test_ctxNCNCNvB2_s_37mint_retry_false_forwards_and_inserts00EB6_
FN:1441,_RINvNtNtCsiNLkn7P4XgI_7lb_quic11passthrough5tests8test_ctxNCNCNvB2_s_40evict_oldest_at_cap_and_negative_control00EB6_
FN:1441,_RINvNtNtCsiNLkn7P4XgI_7lb_quic11passthrough5tests8test_ctxNCNCNvB2_s_40evict_oldest_at_cap_and_negative_control0s_0EB6_
FN:1441,_RINvNtNtCsiNLkn7P4XgI_7lb_quic11passthrough5tests8test_ctxNCNCNvB2_s_40forward_short_multi_length_fallback_hits00EB6_
FN:1441,_RINvNtNtCsiNLkn7P4XgI_7lb_quic11passthrough5tests8test_ctxNCNCNvB2_s_41mint_retry_true_mints_and_does_not_insert00EB6_
FN:1441,_RINvNtNtCsiNLkn7P4XgI_7lb_quic11passthrough5tests8test_ctxNCNCNvB2_s_45idle_sweep_reclaims_idle_flows_and_frees_them00EB6_
FN:1441,_RINvNtNtCsiNLkn7P4XgI_7lb_quic11passthrough5tests8test_ctxNCNCNvB2_s_58idle_sweeper_task_reaps_periodically_and_stops_on_shutdown00EB6_
FN:1443,_RNCINvNtNtCsiNLkn7P4XgI_7lb_quic11passthrough5tests8test_ctxNCNCNvB4_s_29pick_backend_is_deterministic00E0B8_
FN:1443,_RNCINvNtNtCsiNLkn7P4XgI_7lb_quic11passthrough5tests8test_ctxNCNCNvB4_s_31min_client_dcid_len_floor_table00E0B8_
FN:1443,_RNCINvNtNtCsiNLkn7P4XgI_7lb_quic11passthrough5tests8test_ctxNCNCNvB4_s_31token_verify_reject_then_accept00E0B8_
FN:1443,_RNCINvNtNtCsiNLkn7P4XgI_7lb_quic11passthrough5tests8test_ctxNCNCNvB4_s_31token_verify_reject_then_accept0s_0E0B8_
FN:1443,_RNCINvNtNtCsiNLkn7P4XgI_7lb_quic11passthrough5tests8test_ctxNCNCNvB4_s_37forward_short_via_strict_source_table00E0B8_
FN:1443,_RNCINvNtNtCsiNLkn7P4XgI_7lb_quic11passthrough5tests8test_ctxNCNCNvB4_s_37mint_retry_false_forwards_and_inserts00E0B8_
FN:1443,_RNCINvNtNtCsiNLkn7P4XgI_7lb_quic11passthrough5tests8test_ctxNCNCNvB4_s_40evict_oldest_at_cap_and_negative_control00E0B8_
FN:1443,_RNCINvNtNtCsiNLkn7P4XgI_7lb_quic11passthrough5tests8test_ctxNCNCNvB4_s_40evict_oldest_at_cap_and_negative_control0s_0E0B8_
FN:1443,_RNCINvNtNtCsiNLkn7P4XgI_7lb_quic11passthrough5tests8test_ctxNCNCNvB4_s_40forward_short_multi_length_fallback_hits00E0B8_
FN:1443,_RNCINvNtNtCsiNLkn7P4XgI_7lb_quic11passthrough5tests8test_ctxNCNCNvB4_s_41mint_retry_true_mints_and_does_not_insert00E0B8_
FN:1443,_RNCINvNtNtCsiNLkn7P4XgI_7lb_quic11passthrough5tests8test_ctxNCNCNvB4_s_45idle_sweep_reclaims_idle_flows_and_frees_them00E0B8_
FN:1443,_RNCINvNtNtCsiNLkn7P4XgI_7lb_quic11passthrough5tests8test_ctxNCNCNvB4_s_58idle_sweeper_task_reaps_periodically_and_stops_on_shutdown00E0B8_
FN:1464,_RNCNCINvNtNtCsiNLkn7P4XgI_7lb_quic11passthrough5tests8test_ctxNCNCNvB6_s_29pick_backend_is_deterministic00E00Ba_
FN:1464,_RNCNCINvNtNtCsiNLkn7P4XgI_7lb_quic11passthrough5tests8test_ctxNCNCNvB6_s_31min_client_dcid_len_floor_table00E00Ba_
FN:1464,_RNCNCINvNtNtCsiNLkn7P4XgI_7lb_quic11passthrough5tests8test_ctxNCNCNvB6_s_31token_verify_reject_then_accept00E00Ba_
FN:1464,_RNCNCINvNtNtCsiNLkn7P4XgI_7lb_quic11passthrough5tests8test_ctxNCNCNvB6_s_31token_verify_reject_then_accept0s_0E00Ba_
FN:1464,_RNCNCINvNtNtCsiNLkn7P4XgI_7lb_quic11passthrough5tests8test_ctxNCNCNvB6_s_37forward_short_via_strict_source_table00E00Ba_
FN:1464,_RNCNCINvNtNtCsiNLkn7P4XgI_7lb_quic11passthrough5tests8test_ctxNCNCNvB6_s_37mint_retry_false_forwards_and_inserts00E00Ba_
FN:1464,_RNCNCINvNtNtCsiNLkn7P4XgI_7lb_quic11passthrough5tests8test_ctxNCNCNvB6_s_40evict_oldest_at_cap_and_negative_control00E00Ba_
FN:1464,_RNCNCINvNtNtCsiNLkn7P4XgI_7lb_quic11passthrough5tests8test_ctxNCNCNvB6_s_40evict_oldest_at_cap_and_negative_control0s_0E00Ba_
FN:1464,_RNCNCINvNtNtCsiNLkn7P4XgI_7lb_quic11passthrough5tests8test_ctxNCNCNvB6_s_40forward_short_multi_length_fallback_hits00E00Ba_
FN:1464,_RNCNCINvNtNtCsiNLkn7P4XgI_7lb_quic11passthrough5tests8test_ctxNCNCNvB6_s_41mint_retry_true_mints_and_does_not_insert00E00Ba_
FN:1464,_RNCNCINvNtNtCsiNLkn7P4XgI_7lb_quic11passthrough5tests8test_ctxNCNCNvB6_s_45idle_sweep_reclaims_idle_flows_and_frees_them00E00Ba_
FN:1464,_RNCNCINvNtNtCsiNLkn7P4XgI_7lb_quic11passthrough5tests8test_ctxNCNCNvB6_s_58idle_sweeper_task_reaps_periodically_and_stops_on_shutdown00E00Ba_
FN:980,_RNCNCNvNtCsiNLkn7P4XgI_7lb_quic11passthrough12reverse_pump00B7_
FN:1024,_RNCNCNvNtCsiNLkn7P4XgI_7lb_quic11passthrough13forward_short00B7_
FN:1025,_RNCNCNvNtCsiNLkn7P4XgI_7lb_quic11passthrough13forward_short0s_0B7_
FN:608,_RNCNCNvNtCsiNLkn7P4XgI_7lb_quic11passthrough13reclaim_flows00B7_
FN:609,_RNCNCNvNtCsiNLkn7P4XgI_7lb_quic11passthrough13reclaim_flows0s_0B7_
FN:916,_RNCNCNvNtCsiNLkn7P4XgI_7lb_quic11passthrough14handle_initial00B7_
FN:940,_RNCNCNvNtCsiNLkn7P4XgI_7lb_quic11passthrough14handle_initial0s_0B7_
FN:1962,_RNCNCNvNtNtCsiNLkn7P4XgI_7lb_quic11passthrough5testss_29pick_backend_is_deterministic00B9_
FN:1513,_RNCNCNvNtNtCsiNLkn7P4XgI_7lb_quic11passthrough5testss_31min_client_dcid_len_floor_table00B9_
FN:1608,_RNCNCNvNtNtCsiNLkn7P4XgI_7lb_quic11passthrough5testss_31token_verify_reject_then_accept00B9_
FN:1624,_RNCNCNvNtNtCsiNLkn7P4XgI_7lb_quic11passthrough5testss_31token_verify_reject_then_accept0s_0B9_
FN:1862,_RNCNCNvNtNtCsiNLkn7P4XgI_7lb_quic11passthrough5testss_37forward_short_via_strict_source_table00B9_
FN:1580,_RNCNCNvNtNtCsiNLkn7P4XgI_7lb_quic11passthrough5testss_37mint_retry_false_forwards_and_inserts00B9_
FN:1658,_RNCNCNvNtNtCsiNLkn7P4XgI_7lb_quic11passthrough5testss_40evict_oldest_at_cap_and_negative_control00B9_
FN:1688,_RNCNCNvNtNtCsiNLkn7P4XgI_7lb_quic11passthrough5testss_40evict_oldest_at_cap_and_negative_control0s_0B9_
FN:1895,_RNCNCNvNtNtCsiNLkn7P4XgI_7lb_quic11passthrough5testss_40forward_short_multi_length_fallback_hits00B9_
FN:1548,_RNCNCNvNtNtCsiNLkn7P4XgI_7lb_quic11passthrough5testss_41mint_retry_true_mints_and_does_not_insert00B9_
FN:1716,_RNCNCNvNtNtCsiNLkn7P4XgI_7lb_quic11passthrough5testss_45idle_sweep_reclaims_idle_flows_and_frees_them00B9_
FN:1776,_RNCNCNvNtNtCsiNLkn7P4XgI_7lb_quic11passthrough5testss_45idle_sweep_reclaims_idle_flows_and_frees_them0s0_0B9_
FN:1740,_RNCNCNvNtNtCsiNLkn7P4XgI_7lb_quic11passthrough5testss_45idle_sweep_reclaims_idle_flows_and_frees_them0s_0B9_
FN:1795,_RNCNCNvNtNtCsiNLkn7P4XgI_7lb_quic11passthrough5testss_58idle_sweeper_task_reaps_periodically_and_stops_on_shutdown00B9_
FN:522,_RNCNvNtCsiNLkn7P4XgI_7lb_quic11passthrough11audit_allow0B5_
FN:944,_RNCNvNtCsiNLkn7P4XgI_7lb_quic11passthrough12reverse_pump0B5_
FN:1006,_RNCNvNtCsiNLkn7P4XgI_7lb_quic11passthrough13forward_short0B5_
FN:605,_RNCNvNtCsiNLkn7P4XgI_7lb_quic11passthrough13reclaim_flows0B5_
FN:621,_RNCNvNtCsiNLkn7P4XgI_7lb_quic11passthrough13reclaim_flowss_0B5_
FN:749,_RNCNvNtCsiNLkn7P4XgI_7lb_quic11passthrough14handle_initial0B5_
FN:667,_RNCNvNtCsiNLkn7P4XgI_7lb_quic11passthrough16run_idle_sweeper0B5_
FN:646,_RNCNvNtCsiNLkn7P4XgI_7lb_quic11passthrough16sweep_idle_flows0B5_
FN:411,_RNCNvNtCsiNLkn7P4XgI_7lb_quic11passthrough18build_retry_packet0B5_
FN:420,_RNCNvNtCsiNLkn7P4XgI_7lb_quic11passthrough18build_retry_packets_0B5_
FN:1285,_RNCNvNtCsiNLkn7P4XgI_7lb_quic11passthrough29load_or_generate_retry_secret0B5_
FN:1328,_RNCNvNtNtCsiNLkn7P4XgI_7lb_quic11passthrough5testss_25flow_entry_audit_compiles0B7_
FN:1961,_RNCNvNtNtCsiNLkn7P4XgI_7lb_quic11passthrough5testss_29pick_backend_is_deterministic0B7_
FN:1508,_RNCNvNtNtCsiNLkn7P4XgI_7lb_quic11passthrough5testss_31min_client_dcid_len_floor_table0B7_
FN:1606,_RNCNvNtNtCsiNLkn7P4XgI_7lb_quic11passthrough5testss_31token_verify_reject_then_accept0B7_
FN:1853,_RNCNvNtNtCsiNLkn7P4XgI_7lb_quic11passthrough5testss_37forward_short_via_strict_source_table0B7_
FN:1579,_RNCNvNtNtCsiNLkn7P4XgI_7lb_quic11passthrough5testss_37mint_retry_false_forwards_and_inserts0B7_
FN:1654,_RNCNvNtNtCsiNLkn7P4XgI_7lb_quic11passthrough5testss_40evict_oldest_at_cap_and_negative_control0B7_
FN:1891,_RNCNvNtNtCsiNLkn7P4XgI_7lb_quic11passthrough5testss_40forward_short_multi_length_fallback_hits0B7_
FN:1542,_RNCNvNtNtCsiNLkn7P4XgI_7lb_quic11passthrough5testss_41mint_retry_true_mints_and_does_not_insert0B7_
FN:1715,_RNCNvNtNtCsiNLkn7P4XgI_7lb_quic11passthrough5testss_45idle_sweep_reclaims_idle_flows_and_frees_them0B7_
FN:1794,_RNCNvNtNtCsiNLkn7P4XgI_7lb_quic11passthrough5testss_58idle_sweeper_task_reaps_periodically_and_stops_on_shutdown0B7_
FN:152,_RNvMNtCsiNLkn7P4XgI_7lb_quic11passthroughNtB2_17PassthroughParams3new
FN:256,_RNvMs0_NtCsiNLkn7P4XgI_7lb_quic11passthroughNtB5_9FlowEntry5touch
FN:268,_RNvMs0_NtCsiNLkn7P4XgI_7lb_quic11passthroughNtB5_9FlowEntry8get_peer
FN:263,_RNvMs0_NtCsiNLkn7P4XgI_7lb_quic11passthroughNtB5_9FlowEntry8set_peer
FN:1098,_RNvNtCsiNLkn7P4XgI_7lb_quic11passthrough10elapsed_ms
FN:519,_RNvNtCsiNLkn7P4XgI_7lb_quic11passthrough11audit_allow
FN:556,_RNvNtCsiNLkn7P4XgI_7lb_quic11passthrough12evict_oldest
FN:533,_RNvNtCsiNLkn7P4XgI_7lb_quic11passthrough12pick_backend
FN:944,_RNvNtCsiNLkn7P4XgI_7lb_quic11passthrough12reverse_pump
FN:1006,_RNvNtCsiNLkn7P4XgI_7lb_quic11passthrough13forward_short
FN:593,_RNvNtCsiNLkn7P4XgI_7lb_quic11passthrough13reclaim_flows
FN:741,_RNvNtCsiNLkn7P4XgI_7lb_quic11passthrough14handle_initial
FN:1085,_RNvNtCsiNLkn7P4XgI_7lb_quic11passthrough14sample_lb_scid
FN:545,_RNvNtCsiNLkn7P4XgI_7lb_quic11passthrough15set_flows_gauge
FN:662,_RNvNtCsiNLkn7P4XgI_7lb_quic11passthrough16run_idle_sweeper
FN:640,_RNvNtCsiNLkn7P4XgI_7lb_quic11passthrough16sweep_idle_flows
FN:1052,_RNvNtCsiNLkn7P4XgI_7lb_quic11passthrough17forward_short_via
FN:1294,_RNvNtCsiNLkn7P4XgI_7lb_quic11passthrough17write_secret_file
FN:369,_RNvNtCsiNLkn7P4XgI_7lb_quic11passthrough18build_retry_packet
FN:320,_RNvNtCsiNLkn7P4XgI_7lb_quic11passthrough20hash_dcid_for_maglev
FN:284,_RNvNtCsiNLkn7P4XgI_7lb_quic11passthrough23__flow_entry_field_audit
FN:1258,_RNvNtCsiNLkn7P4XgI_7lb_quic11passthrough29load_or_generate_retry_secret
FN:1489,_RNvNtNtCsiNLkn7P4XgI_7lb_quic11passthrough5tests2rt
FN:1433,_RNvNtNtCsiNLkn7P4XgI_7lb_quic11passthrough5tests8loopback
FN:1361,_RNvNtNtCsiNLkn7P4XgI_7lb_quic11passthrough5testss_24retry_packet_byte_layout
FN:1319,_RNvNtNtCsiNLkn7P4XgI_7lb_quic11passthrough5testss_25flow_entry_audit_compiles
FN:1929,_RNvNtNtCsiNLkn7P4XgI_7lb_quic11passthrough5testss_25retry_secret_loader_edges
FN:1981,_RNvNtNtCsiNLkn7P4XgI_7lb_quic11passthrough5testss_26audit_allow_one_per_window
FN:1391,_RNvNtNtCsiNLkn7P4XgI_7lb_quic11passthrough5testss_26retry_packet_deterministic
FN:1960,_RNvNtNtCsiNLkn7P4XgI_7lb_quic11passthrough5testss_29pick_backend_is_deterministic
FN:1499,_RNvNtNtCsiNLkn7P4XgI_7lb_quic11passthrough5testss_31min_client_dcid_len_floor_table
FN:1605,_RNvNtNtCsiNLkn7P4XgI_7lb_quic11passthrough5testss_31token_verify_reject_then_accept
FN:1852,_RNvNtNtCsiNLkn7P4XgI_7lb_quic11passthrough5testss_37forward_short_via_strict_source_table
FN:1578,_RNvNtNtCsiNLkn7P4XgI_7lb_quic11passthrough5testss_37mint_retry_false_forwards_and_inserts
FN:1653,_RNvNtNtCsiNLkn7P4XgI_7lb_quic11passthrough5testss_40evict_oldest_at_cap_and_negative_control
FN:1890,_RNvNtNtCsiNLkn7P4XgI_7lb_quic11passthrough5testss_40forward_short_multi_length_fallback_hits
FN:1541,_RNvNtNtCsiNLkn7P4XgI_7lb_quic11passthrough5testss_41mint_retry_true_mints_and_does_not_insert
FN:1714,_RNvNtNtCsiNLkn7P4XgI_7lb_quic11passthrough5testss_45idle_sweep_reclaims_idle_flows_and_frees_them
FN:1405,_RNvNtNtCsiNLkn7P4XgI_7lb_quic11passthrough5testss_47passthrough_params_defaults_match_owner_rulings
FN:1793,_RNvNtNtCsiNLkn7P4XgI_7lb_quic11passthrough5testss_58idle_sweeper_task_reaps_periodically_and_stops_on_shutdown
FN:248,_RNvXs_NtCsiNLkn7P4XgI_7lb_quic11passthroughNtB4_9FlowEntryNtNtNtCs2va5m0jqTTM_4core3ops4drop4Drop4drop
FN:1206,_RNCNCNCNCNvMs1_NtCsiNLkn7P4XgI_7lb_quic11passthroughNtBd_19PassthroughListener5spawn0s1_000Bf_
FN:1202,_RNCNCNCNvMs1_NtCsiNLkn7P4XgI_7lb_quic11passthroughNtBb_19PassthroughListener5spawn0s1_00Bd_
FN:1139,_RNCNCNvMs1_NtCsiNLkn7P4XgI_7lb_quic11passthroughNtB9_19PassthroughListener5spawn00Bb_
FN:1159,_RNCNCNvMs1_NtCsiNLkn7P4XgI_7lb_quic11passthroughNtB9_19PassthroughListener5spawn0s0_0Bb_
FN:1200,_RNCNCNvMs1_NtCsiNLkn7P4XgI_7lb_quic11passthroughNtB9_19PassthroughListener5spawn0s1_0Bb_
FN:1149,_RNCNCNvMs1_NtCsiNLkn7P4XgI_7lb_quic11passthroughNtB9_19PassthroughListener5spawn0s_0Bb_
FN:1129,_RNCNvMs1_NtCsiNLkn7P4XgI_7lb_quic11passthroughNtB7_19PassthroughListener5spawn0B9_
FN:689,_RNCNvNtCsiNLkn7P4XgI_7lb_quic11passthrough14handle_inbound0B5_
FN:995,_RNCNvNtCsiNLkn7P4XgI_7lb_quic11passthrough21forward_long_existing0B5_
FN:1230,_RNvMs1_NtCsiNLkn7P4XgI_7lb_quic11passthroughNtB5_19PassthroughListener10local_addr
FN:1126,_RNvMs1_NtCsiNLkn7P4XgI_7lb_quic11passthroughNtB5_19PassthroughListener5spawn
FN:1246,_RNvMs1_NtCsiNLkn7P4XgI_7lb_quic11passthroughNtB5_19PassthroughListener8shutdown
FN:1239,_RNvMs1_NtCsiNLkn7P4XgI_7lb_quic11passthroughNtB5_19PassthroughListener9flows_len
FN:689,_RNvNtCsiNLkn7P4XgI_7lb_quic11passthrough14handle_inbound
FN:995,_RNvNtCsiNLkn7P4XgI_7lb_quic11passthrough21forward_long_existing
FN:736,_RNvNtCsiNLkn7P4XgI_7lb_quic11passthrough22default_short_dcid_len
FN:460,_RNvNtCsiNLkn7P4XgI_7lb_quic11passthrough24__test_build_retry_packet
FNDA:0,_RNCNCNvNtCsFtQQ2UsJ2c_7lb_quic11passthrough13reclaim_flows00B7_
FNDA:0,_RNCNCNvNtCsFtQQ2UsJ2c_7lb_quic11passthrough13reclaim_flows0s_0B7_
FNDA:0,_RNCNvNtCsFtQQ2UsJ2c_7lb_quic11passthrough11audit_allow0B5_
FNDA:0,_RNCNvNtCsFtQQ2UsJ2c_7lb_quic11passthrough13reclaim_flows0B5_
FNDA:0,_RNCNvNtCsFtQQ2UsJ2c_7lb_quic11passthrough13reclaim_flowss_0B5_
FNDA:0,_RNCNvNtCsFtQQ2UsJ2c_7lb_quic11passthrough16sweep_idle_flows0B5_
FNDA:0,_RNCNvNtCsFtQQ2UsJ2c_7lb_quic11passthrough18build_retry_packet0B5_
FNDA:0,_RNCNvNtCsFtQQ2UsJ2c_7lb_quic11passthrough18build_retry_packets_0B5_
FNDA:0,_RNCNvNtCsFtQQ2UsJ2c_7lb_quic11passthrough29load_or_generate_retry_secret0B5_
FNDA:0,_RNvMNtCsFtQQ2UsJ2c_7lb_quic11passthroughNtB2_17PassthroughParams3new
FNDA:0,_RNvMs0_NtCsFtQQ2UsJ2c_7lb_quic11passthroughNtB5_9FlowEntry5touch
FNDA:0,_RNvMs0_NtCsFtQQ2UsJ2c_7lb_quic11passthroughNtB5_9FlowEntry8get_peer
FNDA:0,_RNvMs0_NtCsFtQQ2UsJ2c_7lb_quic11passthroughNtB5_9FlowEntry8set_peer
FNDA:0,_RNvMs1_NtCsFtQQ2UsJ2c_7lb_quic11passthroughNtB5_19PassthroughListener10local_addr
FNDA:0,_RNvMs1_NtCsFtQQ2UsJ2c_7lb_quic11passthroughNtB5_19PassthroughListener5spawn
FNDA:0,_RNvMs1_NtCsFtQQ2UsJ2c_7lb_quic11passthroughNtB5_19PassthroughListener8shutdown
FNDA:0,_RNvMs1_NtCsFtQQ2UsJ2c_7lb_quic11passthroughNtB5_19PassthroughListener9flows_len
FNDA:0,_RNvNtCsFtQQ2UsJ2c_7lb_quic11passthrough10elapsed_ms
FNDA:0,_RNvNtCsFtQQ2UsJ2c_7lb_quic11passthrough11audit_allow
FNDA:0,_RNvNtCsFtQQ2UsJ2c_7lb_quic11passthrough12evict_oldest
FNDA:0,_RNvNtCsFtQQ2UsJ2c_7lb_quic11passthrough12pick_backend
FNDA:0,_RNvNtCsFtQQ2UsJ2c_7lb_quic11passthrough12reverse_pump
FNDA:0,_RNvNtCsFtQQ2UsJ2c_7lb_quic11passthrough13forward_short
FNDA:0,_RNvNtCsFtQQ2UsJ2c_7lb_quic11passthrough13reclaim_flows
FNDA:0,_RNvNtCsFtQQ2UsJ2c_7lb_quic11passthrough14handle_inbound
FNDA:0,_RNvNtCsFtQQ2UsJ2c_7lb_quic11passthrough14handle_initial
FNDA:0,_RNvNtCsFtQQ2UsJ2c_7lb_quic11passthrough14sample_lb_scid
FNDA:0,_RNvNtCsFtQQ2UsJ2c_7lb_quic11passthrough15set_flows_gauge
FNDA:0,_RNvNtCsFtQQ2UsJ2c_7lb_quic11passthrough16run_idle_sweeper
FNDA:0,_RNvNtCsFtQQ2UsJ2c_7lb_quic11passthrough16sweep_idle_flows
FNDA:0,_RNvNtCsFtQQ2UsJ2c_7lb_quic11passthrough17forward_short_via
FNDA:0,_RNvNtCsFtQQ2UsJ2c_7lb_quic11passthrough17write_secret_file
FNDA:1001,_RNvNtCsFtQQ2UsJ2c_7lb_quic11passthrough18build_retry_packet
FNDA:0,_RNvNtCsFtQQ2UsJ2c_7lb_quic11passthrough20hash_dcid_for_maglev
FNDA:0,_RNvNtCsFtQQ2UsJ2c_7lb_quic11passthrough21forward_long_existing
FNDA:0,_RNvNtCsFtQQ2UsJ2c_7lb_quic11passthrough22default_short_dcid_len
FNDA:1001,_RNvNtCsFtQQ2UsJ2c_7lb_quic11passthrough24__test_build_retry_packet
FNDA:0,_RNvNtCsFtQQ2UsJ2c_7lb_quic11passthrough29load_or_generate_retry_secret
FNDA:0,_RNvXs_NtCsFtQQ2UsJ2c_7lb_quic11passthroughNtB4_9FlowEntryNtNtNtCs2va5m0jqTTM_4core3ops4drop4Drop4drop
FNDA:0,_RNCNCNCNCNvMs1_NtCsFtQQ2UsJ2c_7lb_quic11passthroughNtBd_19PassthroughListener5spawn0s1_000Bf_
FNDA:0,_RNCNCNCNvMs1_NtCsFtQQ2UsJ2c_7lb_quic11passthroughNtBb_19PassthroughListener5spawn0s1_00Bd_
FNDA:0,_RNCNCNvMs1_NtCsFtQQ2UsJ2c_7lb_quic11passthroughNtB9_19PassthroughListener5spawn00Bb_
FNDA:0,_RNCNCNvMs1_NtCsFtQQ2UsJ2c_7lb_quic11passthroughNtB9_19PassthroughListener5spawn0s0_0Bb_
FNDA:0,_RNCNCNvMs1_NtCsFtQQ2UsJ2c_7lb_quic11passthroughNtB9_19PassthroughListener5spawn0s1_0Bb_
FNDA:0,_RNCNCNvMs1_NtCsFtQQ2UsJ2c_7lb_quic11passthroughNtB9_19PassthroughListener5spawn0s_0Bb_
FNDA:0,_RNCNCNvNtCsFtQQ2UsJ2c_7lb_quic11passthrough12reverse_pump00B7_
FNDA:0,_RNCNCNvNtCsFtQQ2UsJ2c_7lb_quic11passthrough13forward_short00B7_
FNDA:0,_RNCNCNvNtCsFtQQ2UsJ2c_7lb_quic11passthrough13forward_short0s_0B7_
FNDA:0,_RNCNCNvNtCsFtQQ2UsJ2c_7lb_quic11passthrough14handle_initial00B7_
FNDA:0,_RNCNCNvNtCsFtQQ2UsJ2c_7lb_quic11passthrough14handle_initial0s_0B7_
FNDA:0,_RNCNvMs1_NtCsFtQQ2UsJ2c_7lb_quic11passthroughNtB7_19PassthroughListener5spawn0B9_
FNDA:0,_RNCNvNtCsFtQQ2UsJ2c_7lb_quic11passthrough12reverse_pump0B5_
FNDA:0,_RNCNvNtCsFtQQ2UsJ2c_7lb_quic11passthrough13forward_short0B5_
FNDA:0,_RNCNvNtCsFtQQ2UsJ2c_7lb_quic11passthrough14handle_inbound0B5_
FNDA:0,_RNCNvNtCsFtQQ2UsJ2c_7lb_quic11passthrough14handle_initial0B5_
FNDA:0,_RNCNvNtCsFtQQ2UsJ2c_7lb_quic11passthrough16run_idle_sweeper0B5_
FNDA:0,_RNCNvNtCsFtQQ2UsJ2c_7lb_quic11passthrough21forward_long_existing0B5_
FNDA:0,_RNvNtCsFtQQ2UsJ2c_7lb_quic11passthrough23__flow_entry_field_audit
FNDA:1,_RINvNtNtCsiNLkn7P4XgI_7lb_quic11passthrough5tests8test_ctxNCNCNvB2_s_29pick_backend_is_deterministic00EB6_
FNDA:5,_RINvNtNtCsiNLkn7P4XgI_7lb_quic11passthrough5tests8test_ctxNCNCNvB2_s_31min_client_dcid_len_floor_table00EB6_
FNDA:1,_RINvNtNtCsiNLkn7P4XgI_7lb_quic11passthrough5tests8test_ctxNCNCNvB2_s_31token_verify_reject_then_accept00EB6_
FNDA:1,_RINvNtNtCsiNLkn7P4XgI_7lb_quic11passthrough5tests8test_ctxNCNCNvB2_s_31token_verify_reject_then_accept0s_0EB6_
FNDA:4,_RINvNtNtCsiNLkn7P4XgI_7lb_quic11passthrough5tests8test_ctxNCNCNvB2_s_37forward_short_via_strict_source_table00EB6_
FNDA:1,_RINvNtNtCsiNLkn7P4XgI_7lb_quic11passthrough5tests8test_ctxNCNCNvB2_s_37mint_retry_false_forwards_and_inserts00EB6_
FNDA:1,_RINvNtNtCsiNLkn7P4XgI_7lb_quic11passthrough5tests8test_ctxNCNCNvB2_s_40evict_oldest_at_cap_and_negative_control00EB6_
FNDA:1,_RINvNtNtCsiNLkn7P4XgI_7lb_quic11passthrough5tests8test_ctxNCNCNvB2_s_40evict_oldest_at_cap_and_negative_control0s_0EB6_
FNDA:1,_RINvNtNtCsiNLkn7P4XgI_7lb_quic11passthrough5tests8test_ctxNCNCNvB2_s_40forward_short_multi_length_fallback_hits00EB6_
FNDA:1,_RINvNtNtCsiNLkn7P4XgI_7lb_quic11passthrough5tests8test_ctxNCNCNvB2_s_41mint_retry_true_mints_and_does_not_insert00EB6_
FNDA:1,_RINvNtNtCsiNLkn7P4XgI_7lb_quic11passthrough5tests8test_ctxNCNCNvB2_s_45idle_sweep_reclaims_idle_flows_and_frees_them00EB6_
FNDA:1,_RINvNtNtCsiNLkn7P4XgI_7lb_quic11passthrough5tests8test_ctxNCNCNvB2_s_58idle_sweeper_task_reaps_periodically_and_stops_on_shutdown00EB6_
FNDA:1,_RNCINvNtNtCsiNLkn7P4XgI_7lb_quic11passthrough5tests8test_ctxNCNCNvB4_s_29pick_backend_is_deterministic00E0B8_
FNDA:5,_RNCINvNtNtCsiNLkn7P4XgI_7lb_quic11passthrough5tests8test_ctxNCNCNvB4_s_31min_client_dcid_len_floor_table00E0B8_
FNDA:1,_RNCINvNtNtCsiNLkn7P4XgI_7lb_quic11passthrough5tests8test_ctxNCNCNvB4_s_31token_verify_reject_then_accept00E0B8_
FNDA:1,_RNCINvNtNtCsiNLkn7P4XgI_7lb_quic11passthrough5tests8test_ctxNCNCNvB4_s_31token_verify_reject_then_accept0s_0E0B8_
FNDA:4,_RNCINvNtNtCsiNLkn7P4XgI_7lb_quic11passthrough5tests8test_ctxNCNCNvB4_s_37forward_short_via_strict_source_table00E0B8_
FNDA:1,_RNCINvNtNtCsiNLkn7P4XgI_7lb_quic11passthrough5tests8test_ctxNCNCNvB4_s_37mint_retry_false_forwards_and_inserts00E0B8_
FNDA:1,_RNCINvNtNtCsiNLkn7P4XgI_7lb_quic11passthrough5tests8test_ctxNCNCNvB4_s_40evict_oldest_at_cap_and_negative_control00E0B8_
FNDA:1,_RNCINvNtNtCsiNLkn7P4XgI_7lb_quic11passthrough5tests8test_ctxNCNCNvB4_s_40evict_oldest_at_cap_and_negative_control0s_0E0B8_
FNDA:1,_RNCINvNtNtCsiNLkn7P4XgI_7lb_quic11passthrough5tests8test_ctxNCNCNvB4_s_40forward_short_multi_length_fallback_hits00E0B8_
FNDA:1,_RNCINvNtNtCsiNLkn7P4XgI_7lb_quic11passthrough5tests8test_ctxNCNCNvB4_s_41mint_retry_true_mints_and_does_not_insert00E0B8_
FNDA:1,_RNCINvNtNtCsiNLkn7P4XgI_7lb_quic11passthrough5tests8test_ctxNCNCNvB4_s_45idle_sweep_reclaims_idle_flows_and_frees_them00E0B8_
FNDA:1,_RNCINvNtNtCsiNLkn7P4XgI_7lb_quic11passthrough5tests8test_ctxNCNCNvB4_s_58idle_sweeper_task_reaps_periodically_and_stops_on_shutdown00E0B8_
FNDA:1,_RNCNCINvNtNtCsiNLkn7P4XgI_7lb_quic11passthrough5tests8test_ctxNCNCNvB6_s_29pick_backend_is_deterministic00E00Ba_
FNDA:5,_RNCNCINvNtNtCsiNLkn7P4XgI_7lb_quic11passthrough5tests8test_ctxNCNCNvB6_s_31min_client_dcid_len_floor_table00E00Ba_
FNDA:1,_RNCNCINvNtNtCsiNLkn7P4XgI_7lb_quic11passthrough5tests8test_ctxNCNCNvB6_s_31token_verify_reject_then_accept00E00Ba_
FNDA:1,_RNCNCINvNtNtCsiNLkn7P4XgI_7lb_quic11passthrough5tests8test_ctxNCNCNvB6_s_31token_verify_reject_then_accept0s_0E00Ba_
FNDA:4,_RNCNCINvNtNtCsiNLkn7P4XgI_7lb_quic11passthrough5tests8test_ctxNCNCNvB6_s_37forward_short_via_strict_source_table00E00Ba_
FNDA:1,_RNCNCINvNtNtCsiNLkn7P4XgI_7lb_quic11passthrough5tests8test_ctxNCNCNvB6_s_37mint_retry_false_forwards_and_inserts00E00Ba_
FNDA:1,_RNCNCINvNtNtCsiNLkn7P4XgI_7lb_quic11passthrough5tests8test_ctxNCNCNvB6_s_40evict_oldest_at_cap_and_negative_control00E00Ba_
FNDA:1,_RNCNCINvNtNtCsiNLkn7P4XgI_7lb_quic11passthrough5tests8test_ctxNCNCNvB6_s_40evict_oldest_at_cap_and_negative_control0s_0E00Ba_
FNDA:1,_RNCNCINvNtNtCsiNLkn7P4XgI_7lb_quic11passthrough5tests8test_ctxNCNCNvB6_s_40forward_short_multi_length_fallback_hits00E00Ba_
FNDA:1,_RNCNCINvNtNtCsiNLkn7P4XgI_7lb_quic11passthrough5tests8test_ctxNCNCNvB6_s_41mint_retry_true_mints_and_does_not_insert00E00Ba_
FNDA:1,_RNCNCINvNtNtCsiNLkn7P4XgI_7lb_quic11passthrough5tests8test_ctxNCNCNvB6_s_45idle_sweep_reclaims_idle_flows_and_frees_them00E00Ba_
FNDA:1,_RNCNCINvNtNtCsiNLkn7P4XgI_7lb_quic11passthrough5tests8test_ctxNCNCNvB6_s_58idle_sweeper_task_reaps_periodically_and_stops_on_shutdown00E00Ba_
FNDA:0,_RNCNCNvNtCsiNLkn7P4XgI_7lb_quic11passthrough12reverse_pump00B7_
FNDA:1,_RNCNCNvNtCsiNLkn7P4XgI_7lb_quic11passthrough13forward_short00B7_
FNDA:1,_RNCNCNvNtCsiNLkn7P4XgI_7lb_quic11passthrough13forward_short0s_0B7_
FNDA:14,_RNCNCNvNtCsiNLkn7P4XgI_7lb_quic11passthrough13reclaim_flows00B7_
FNDA:7,_RNCNCNvNtCsiNLkn7P4XgI_7lb_quic11passthrough13reclaim_flows0s_0B7_
FNDA:6,_RNCNCNvNtCsiNLkn7P4XgI_7lb_quic11passthrough14handle_initial00B7_
FNDA:6,_RNCNCNvNtCsiNLkn7P4XgI_7lb_quic11passthrough14handle_initial0s_0B7_
FNDA:1,_RNCNCNvNtNtCsiNLkn7P4XgI_7lb_quic11passthrough5testss_29pick_backend_is_deterministic00B9_
FNDA:5,_RNCNCNvNtNtCsiNLkn7P4XgI_7lb_quic11passthrough5testss_31min_client_dcid_len_floor_table00B9_
FNDA:1,_RNCNCNvNtNtCsiNLkn7P4XgI_7lb_quic11passthrough5testss_31token_verify_reject_then_accept00B9_
FNDA:1,_RNCNCNvNtNtCsiNLkn7P4XgI_7lb_quic11passthrough5testss_31token_verify_reject_then_accept0s_0B9_
FNDA:4,_RNCNCNvNtNtCsiNLkn7P4XgI_7lb_quic11passthrough5testss_37forward_short_via_strict_source_table00B9_
FNDA:1,_RNCNCNvNtNtCsiNLkn7P4XgI_7lb_quic11passthrough5testss_37mint_retry_false_forwards_and_inserts00B9_
FNDA:1,_RNCNCNvNtNtCsiNLkn7P4XgI_7lb_quic11passthrough5testss_40evict_oldest_at_cap_and_negative_control00B9_
FNDA:1,_RNCNCNvNtNtCsiNLkn7P4XgI_7lb_quic11passthrough5testss_40evict_oldest_at_cap_and_negative_control0s_0B9_
FNDA:1,_RNCNCNvNtNtCsiNLkn7P4XgI_7lb_quic11passthrough5testss_40forward_short_multi_length_fallback_hits00B9_
FNDA:1,_RNCNCNvNtNtCsiNLkn7P4XgI_7lb_quic11passthrough5testss_41mint_retry_true_mints_and_does_not_insert00B9_
FNDA:1,_RNCNCNvNtNtCsiNLkn7P4XgI_7lb_quic11passthrough5testss_45idle_sweep_reclaims_idle_flows_and_frees_them00B9_
FNDA:3,_RNCNCNvNtNtCsiNLkn7P4XgI_7lb_quic11passthrough5testss_45idle_sweep_reclaims_idle_flows_and_frees_them0s0_0B9_
FNDA:3,_RNCNCNvNtNtCsiNLkn7P4XgI_7lb_quic11passthrough5testss_45idle_sweep_reclaims_idle_flows_and_frees_them0s_0B9_
FNDA:1,_RNCNCNvNtNtCsiNLkn7P4XgI_7lb_quic11passthrough5testss_58idle_sweeper_task_reaps_periodically_and_stops_on_shutdown00B9_
FNDA:7,_RNCNvNtCsiNLkn7P4XgI_7lb_quic11passthrough11audit_allow0B5_
FNDA:6,_RNCNvNtCsiNLkn7P4XgI_7lb_quic11passthrough12reverse_pump0B5_
FNDA:1,_RNCNvNtCsiNLkn7P4XgI_7lb_quic11passthrough13forward_short0B5_
FNDA:8,_RNCNvNtCsiNLkn7P4XgI_7lb_quic11passthrough13reclaim_flows0B5_
FNDA:7,_RNCNvNtCsiNLkn7P4XgI_7lb_quic11passthrough13reclaim_flowss_0B5_
FNDA:21,_RNCNvNtCsiNLkn7P4XgI_7lb_quic11passthrough14handle_initial0B5_
FNDA:1,_RNCNvNtCsiNLkn7P4XgI_7lb_quic11passthrough16run_idle_sweeper0B5_
FNDA:6,_RNCNvNtCsiNLkn7P4XgI_7lb_quic11passthrough16sweep_idle_flows0B5_
FNDA:0,_RNCNvNtCsiNLkn7P4XgI_7lb_quic11passthrough18build_retry_packet0B5_
FNDA:0,_RNCNvNtCsiNLkn7P4XgI_7lb_quic11passthrough18build_retry_packets_0B5_
FNDA:0,_RNCNvNtCsiNLkn7P4XgI_7lb_quic11passthrough29load_or_generate_retry_secret0B5_
FNDA:1,_RNCNvNtNtCsiNLkn7P4XgI_7lb_quic11passthrough5testss_25flow_entry_audit_compiles0B7_
FNDA:1,_RNCNvNtNtCsiNLkn7P4XgI_7lb_quic11passthrough5testss_29pick_backend_is_deterministic0B7_
FNDA:1,_RNCNvNtNtCsiNLkn7P4XgI_7lb_quic11passthrough5testss_31min_client_dcid_len_floor_table0B7_
FNDA:1,_RNCNvNtNtCsiNLkn7P4XgI_7lb_quic11passthrough5testss_31token_verify_reject_then_accept0B7_
FNDA:1,_RNCNvNtNtCsiNLkn7P4XgI_7lb_quic11passthrough5testss_37forward_short_via_strict_source_table0B7_
FNDA:1,_RNCNvNtNtCsiNLkn7P4XgI_7lb_quic11passthrough5testss_37mint_retry_false_forwards_and_inserts0B7_
FNDA:1,_RNCNvNtNtCsiNLkn7P4XgI_7lb_quic11passthrough5testss_40evict_oldest_at_cap_and_negative_control0B7_
FNDA:1,_RNCNvNtNtCsiNLkn7P4XgI_7lb_quic11passthrough5testss_40forward_short_multi_length_fallback_hits0B7_
FNDA:1,_RNCNvNtNtCsiNLkn7P4XgI_7lb_quic11passthrough5testss_41mint_retry_true_mints_and_does_not_insert0B7_
FNDA:1,_RNCNvNtNtCsiNLkn7P4XgI_7lb_quic11passthrough5testss_45idle_sweep_reclaims_idle_flows_and_frees_them0B7_
FNDA:1,_RNCNvNtNtCsiNLkn7P4XgI_7lb_quic11passthrough5testss_58idle_sweeper_task_reaps_periodically_and_stops_on_shutdown0B7_
FNDA:20,_RNvMNtCsiNLkn7P4XgI_7lb_quic11passthroughNtB2_17PassthroughParams3new
FNDA:2,_RNvMs0_NtCsiNLkn7P4XgI_7lb_quic11passthroughNtB5_9FlowEntry5touch
FNDA:3,_RNvMs0_NtCsiNLkn7P4XgI_7lb_quic11passthroughNtB5_9FlowEntry8get_peer
FNDA:2,_RNvMs0_NtCsiNLkn7P4XgI_7lb_quic11passthroughNtB5_9FlowEntry8set_peer
FNDA:21,_RNvNtCsiNLkn7P4XgI_7lb_quic11passthrough10elapsed_ms
FNDA:7,_RNvNtCsiNLkn7P4XgI_7lb_quic11passthrough11audit_allow
FNDA:1,_RNvNtCsiNLkn7P4XgI_7lb_quic11passthrough12evict_oldest
FNDA:18,_RNvNtCsiNLkn7P4XgI_7lb_quic11passthrough12pick_backend
FNDA:6,_RNvNtCsiNLkn7P4XgI_7lb_quic11passthrough12reverse_pump
FNDA:1,_RNvNtCsiNLkn7P4XgI_7lb_quic11passthrough13forward_short
FNDA:4,_RNvNtCsiNLkn7P4XgI_7lb_quic11passthrough13reclaim_flows
FNDA:21,_RNvNtCsiNLkn7P4XgI_7lb_quic11passthrough14handle_initial
FNDA:1,_RNvNtCsiNLkn7P4XgI_7lb_quic11passthrough14sample_lb_scid
FNDA:19,_RNvNtCsiNLkn7P4XgI_7lb_quic11passthrough15set_flows_gauge
FNDA:1,_RNvNtCsiNLkn7P4XgI_7lb_quic11passthrough16run_idle_sweeper
FNDA:3,_RNvNtCsiNLkn7P4XgI_7lb_quic11passthrough16sweep_idle_flows
FNDA:5,_RNvNtCsiNLkn7P4XgI_7lb_quic11passthrough17forward_short_via
FNDA:1,_RNvNtCsiNLkn7P4XgI_7lb_quic11passthrough17write_secret_file
FNDA:4,_RNvNtCsiNLkn7P4XgI_7lb_quic11passthrough18build_retry_packet
FNDA:21,_RNvNtCsiNLkn7P4XgI_7lb_quic11passthrough20hash_dcid_for_maglev
FNDA:1,_RNvNtCsiNLkn7P4XgI_7lb_quic11passthrough23__flow_entry_field_audit
FNDA:3,_RNvNtCsiNLkn7P4XgI_7lb_quic11passthrough29load_or_generate_retry_secret
FNDA:10,_RNvNtNtCsiNLkn7P4XgI_7lb_quic11passthrough5tests2rt
FNDA:91,_RNvNtNtCsiNLkn7P4XgI_7lb_quic11passthrough5tests8loopback
FNDA:1,_RNvNtNtCsiNLkn7P4XgI_7lb_quic11passthrough5testss_24retry_packet_byte_layout
FNDA:1,_RNvNtNtCsiNLkn7P4XgI_7lb_quic11passthrough5testss_25flow_entry_audit_compiles
FNDA:1,_RNvNtNtCsiNLkn7P4XgI_7lb_quic11passthrough5testss_25retry_secret_loader_edges
FNDA:1,_RNvNtNtCsiNLkn7P4XgI_7lb_quic11passthrough5testss_26audit_allow_one_per_window
FNDA:1,_RNvNtNtCsiNLkn7P4XgI_7lb_quic11passthrough5testss_26retry_packet_deterministic
FNDA:1,_RNvNtNtCsiNLkn7P4XgI_7lb_quic11passthrough5testss_29pick_backend_is_deterministic
FNDA:1,_RNvNtNtCsiNLkn7P4XgI_7lb_quic11passthrough5testss_31min_client_dcid_len_floor_table
FNDA:1,_RNvNtNtCsiNLkn7P4XgI_7lb_quic11passthrough5testss_31token_verify_reject_then_accept
FNDA:1,_RNvNtNtCsiNLkn7P4XgI_7lb_quic11passthrough5testss_37forward_short_via_strict_source_table
FNDA:1,_RNvNtNtCsiNLkn7P4XgI_7lb_quic11passthrough5testss_37mint_retry_false_forwards_and_inserts
FNDA:1,_RNvNtNtCsiNLkn7P4XgI_7lb_quic11passthrough5testss_40evict_oldest_at_cap_and_negative_control
FNDA:1,_RNvNtNtCsiNLkn7P4XgI_7lb_quic11passthrough5testss_40forward_short_multi_length_fallback_hits
FNDA:1,_RNvNtNtCsiNLkn7P4XgI_7lb_quic11passthrough5testss_41mint_retry_true_mints_and_does_not_insert
FNDA:1,_RNvNtNtCsiNLkn7P4XgI_7lb_quic11passthrough5testss_45idle_sweep_reclaims_idle_flows_and_frees_them
FNDA:1,_RNvNtNtCsiNLkn7P4XgI_7lb_quic11passthrough5testss_47passthrough_params_defaults_match_owner_rulings
FNDA:1,_RNvNtNtCsiNLkn7P4XgI_7lb_quic11passthrough5testss_58idle_sweeper_task_reaps_periodically_and_stops_on_shutdown
FNDA:22,_RNvXs_NtCsiNLkn7P4XgI_7lb_quic11passthroughNtB4_9FlowEntryNtNtNtCs2va5m0jqTTM_4core3ops4drop4Drop4drop
FNDA:0,_RNCNCNCNCNvMs1_NtCsiNLkn7P4XgI_7lb_quic11passthroughNtBd_19PassthroughListener5spawn0s1_000Bf_
FNDA:0,_RNCNCNCNvMs1_NtCsiNLkn7P4XgI_7lb_quic11passthroughNtBb_19PassthroughListener5spawn0s1_00Bd_
FNDA:0,_RNCNCNvMs1_NtCsiNLkn7P4XgI_7lb_quic11passthroughNtB9_19PassthroughListener5spawn00Bb_
FNDA:0,_RNCNCNvMs1_NtCsiNLkn7P4XgI_7lb_quic11passthroughNtB9_19PassthroughListener5spawn0s0_0Bb_
FNDA:0,_RNCNCNvMs1_NtCsiNLkn7P4XgI_7lb_quic11passthroughNtB9_19PassthroughListener5spawn0s1_0Bb_
FNDA:0,_RNCNCNvMs1_NtCsiNLkn7P4XgI_7lb_quic11passthroughNtB9_19PassthroughListener5spawn0s_0Bb_
FNDA:0,_RNCNvMs1_NtCsiNLkn7P4XgI_7lb_quic11passthroughNtB7_19PassthroughListener5spawn0B9_
FNDA:0,_RNCNvNtCsiNLkn7P4XgI_7lb_quic11passthrough14handle_inbound0B5_
FNDA:0,_RNCNvNtCsiNLkn7P4XgI_7lb_quic11passthrough21forward_long_existing0B5_
FNDA:0,_RNvMs1_NtCsiNLkn7P4XgI_7lb_quic11passthroughNtB5_19PassthroughListener10local_addr
FNDA:0,_RNvMs1_NtCsiNLkn7P4XgI_7lb_quic11passthroughNtB5_19PassthroughListener5spawn
FNDA:0,_RNvMs1_NtCsiNLkn7P4XgI_7lb_quic11passthroughNtB5_19PassthroughListener8shutdown
FNDA:0,_RNvMs1_NtCsiNLkn7P4XgI_7lb_quic11passthroughNtB5_19PassthroughListener9flows_len
FNDA:0,_RNvNtCsiNLkn7P4XgI_7lb_quic11passthrough14handle_inbound
FNDA:0,_RNvNtCsiNLkn7P4XgI_7lb_quic11passthrough21forward_long_existing
FNDA:0,_RNvNtCsiNLkn7P4XgI_7lb_quic11passthrough22default_short_dcid_len
FNDA:0,_RNvNtCsiNLkn7P4XgI_7lb_quic11passthrough24__test_build_retry_packet
FNF:104
FNH:84
DA:152,20
DA:153,20
DA:154,20
DA:155,20
DA:156,20
DA:157,20
DA:158,20
DA:159,20
DA:160,20
DA:161,20
DA:162,20
DA:163,20
DA:164,20
DA:165,20
DA:166,20
DA:167,20
DA:168,20
DA:169,20
DA:170,20
DA:171,20
DA:248,22
DA:249,22
DA:250,22
DA:256,2
DA:257,2
DA:258,2
DA:259,2
DA:260,2
DA:263,2
DA:264,2
DA:265,2
DA:268,3
DA:269,3
DA:270,3
DA:284,1
DA:285,1
DA:286,1
DA:287,1
DA:288,1
DA:289,1
DA:290,1
DA:291,1
DA:292,1
DA:293,1
DA:294,1
DA:295,1
DA:296,1
DA:297,1
DA:298,1
DA:299,1
DA:300,1
DA:301,1
DA:302,1
DA:303,1
DA:304,1
DA:305,1
DA:306,1
DA:307,1
DA:308,1
DA:309,1
DA:320,21
DA:321,21
DA:322,21
DA:323,21
DA:324,21
DA:325,178
DA:326,157
DA:327,157
DA:328,157
DA:329,157
DA:330,21
DA:331,21
DA:332,21
DA:333,21
DA:334,21
DA:335,21
DA:336,21
DA:369,1005
DA:370,1005
DA:371,1005
DA:372,1005
DA:373,1005
DA:374,1005
DA:375,1005
DA:376,1005
DA:377,1005
DA:378,0
DA:379,1005
DA:380,1005
DA:381,0
DA:382,0
DA:383,0
DA:384,0
DA:385,1005
DA:386,1005
DA:387,1005
DA:388,1005
DA:389,1005
DA:390,1005
DA:391,1005
DA:392,1005
DA:393,1005
DA:394,1005
DA:395,1005
DA:396,1005
DA:397,1005
DA:398,1005
DA:399,1005
DA:400,1005
DA:401,1005
DA:402,1005
DA:403,1005
DA:404,1005
DA:405,1005
DA:406,1005
DA:407,1005
DA:410,1005
DA:411,1005
DA:412,1005
DA:413,1005
DA:414,1005
DA:415,1005
DA:416,1005
DA:417,1005
DA:418,1005
DA:419,1005
DA:420,1005
DA:421,1005
DA:422,1005
DA:423,0
DA:424,0
DA:425,0
DA:426,0
DA:427,0
DA:428,1005
DA:429,1005
DA:430,1005
DA:431,1005
DA:432,1005
DA:433,1005
DA:434,1005
DA:435,1005
DA:436,1005
DA:437,1005
DA:438,1005
DA:439,1005
DA:440,1005
DA:441,1005
DA:442,1005
DA:460,1001
DA:461,1001
DA:462,1001
DA:463,1001
DA:464,1001
DA:465,1001
DA:466,1001
DA:467,1001
DA:468,1001
DA:469,1001
DA:519,7
DA:520,7
DA:521,7
DA:522,7
DA:523,7
DA:524,4
DA:526,3
DA:528,7
DA:529,7
DA:530,7
DA:533,18
DA:534,18
DA:535,18
DA:536,18
DA:537,18
DA:545,19
DA:546,19
DA:547,19
DA:548,19
DA:549,19
DA:550,19
DA:556,1
DA:557,1
DA:558,1
DA:559,2
DA:560,2
DA:561,2
DA:562,1
DA:563,1
DA:564,1
DA:566,1
DA:567,1
DA:568,0
DA:570,1
DA:593,4
DA:594,4
DA:595,1
DA:596,3
DA:598,10
DA:599,7
DA:600,7
DA:601,3
DA:602,3
DA:603,3
DA:604,3
DA:605,8
DA:606,8
DA:607,8
DA:608,14
DA:609,8
DA:610,8
DA:611,3
DA:612,3
DA:613,10
DA:614,7
DA:615,7
DA:616,7
DA:617,7
DA:618,7
DA:619,0
DA:621,7
DA:622,3
DA:623,3
DA:624,3
DA:625,3
DA:626,3
DA:628,3
DA:629,0
DA:630,3
DA:631,4
DA:640,3
DA:641,3
DA:642,3
DA:643,9
DA:644,9
DA:645,9
DA:646,6
DA:647,6
DA:648,6
DA:649,6
DA:651,3
DA:652,3
DA:653,3
DA:654,3
DA:662,1
DA:663,1
DA:664,1
DA:665,1
DA:666,1
DA:667,1
DA:668,1
DA:669,1
DA:671,2
DA:673,2
DA:674,2
DA:675,1
DA:676,1
DA:677,1
DA:680,0
DA:682,0
DA:686,1
DA:689,0
DA:690,0
DA:691,0
DA:692,0
DA:693,0
DA:694,0
DA:695,0
DA:696,0
DA:697,0
DA:701,0
DA:703,0
DA:704,0
DA:705,0
DA:706,0
DA:707,0
DA:708,0
DA:709,0
DA:711,0
DA:718,0
DA:723,0
DA:726,0
DA:727,0
DA:728,0
DA:729,0
DA:732,0
DA:736,0
DA:737,0
DA:738,0
DA:741,21
DA:742,21
DA:743,21
DA:744,21
DA:745,21
DA:746,21
DA:747,21
DA:748,21
DA:749,21
DA:750,21
DA:751,21
DA:752,21
DA:753,3
DA:755,0
DA:756,0
DA:757,0
DA:759,3
DA:760,18
DA:763,18
DA:764,0
DA:765,0
DA:766,0
DA:767,0
DA:768,0
DA:769,0
DA:770,18
DA:771,18
DA:772,18
DA:773,18
DA:774,18
DA:775,18
DA:776,18
DA:777,18
DA:778,18
DA:779,18
DA:780,18
DA:781,18
DA:782,18
DA:783,18
DA:784,18
DA:785,18
DA:786,18
DA:787,18
DA:788,18
DA:789,18
DA:790,18
DA:792,1
DA:793,1
DA:794,1
DA:795,1
DA:796,0
DA:797,0
DA:798,1
DA:799,1
DA:800,0
DA:801,1
DA:802,1
DA:803,1
DA:804,1
DA:805,1
DA:806,17
DA:807,17
DA:808,17
DA:809,17
DA:810,17
DA:811,17
DA:812,2
DA:813,1
DA:814,1
DA:815,1
DA:816,1
DA:817,1
DA:818,1
DA:819,15
DA:824,16
DA:825,16
DA:827,1
DA:828,1
DA:829,1
DA:830,1
DA:831,1
DA:832,1
DA:833,1
DA:836,0
DA:837,0
DA:838,0
DA:840,0
DA:841,2
DA:842,1
DA:843,0
DA:844,1
DA:846,15
DA:849,16
DA:850,0
DA:851,0
DA:855,16
DA:856,16
DA:857,0
DA:859,16
DA:860,16
DA:861,0
DA:862,0
DA:863,0
DA:864,0
DA:865,0
DA:866,0
DA:869,16
DA:870,0
DA:871,0
DA:872,0
DA:873,0
DA:874,0
DA:875,16
DA:876,16
DA:877,16
DA:878,16
DA:879,16
DA:880,16
DA:881,16
DA:882,16
DA:883,16
DA:884,16
DA:885,16
DA:886,16
DA:887,16
DA:888,16
DA:889,16
DA:890,16
DA:891,16
DA:892,16
DA:893,16
DA:894,16
DA:895,16
DA:896,16
DA:897,16
DA:898,16
DA:899,16
DA:900,16
DA:901,16
DA:902,16
DA:903,16
DA:904,16
DA:905,16
DA:906,16
DA:907,16
DA:908,16
DA:909,16
DA:910,16
DA:911,16
DA:912,16
DA:913,16
DA:914,16
DA:915,16
DA:916,16
DA:917,6
DA:919,12
DA:921,12
DA:922,12
DA:923,6
DA:924,0
DA:927,6
DA:928,0
DA:929,0
DA:930,0
DA:931,0
DA:932,0
DA:933,6
DA:935,16
DA:936,16
DA:937,16
DA:938,16
DA:939,16
DA:940,16
DA:941,21
DA:944,6
DA:945,6
DA:952,6
DA:954,6
DA:955,6
DA:956,0
DA:957,6
DA:958,6
DA:959,6
DA:960,6
DA:961,6
DA:962,6
DA:966,0
DA:973,0
DA:974,0
DA:975,0
DA:976,0
DA:977,0
DA:978,0
DA:979,0
DA:980,0
DA:981,0
DA:982,0
DA:983,0
DA:985,0
DA:986,0
DA:987,0
DA:990,0
DA:992,6
DA:995,0
DA:996,0
DA:997,0
DA:998,0
DA:999,0
DA:1000,0
DA:1001,0
DA:1002,0
DA:1006,1
DA:1008,1
DA:1009,0
DA:1010,0
DA:1011,0
DA:1012,0
DA:1013,0
DA:1014,0
DA:1015,0
DA:1016,0
DA:1017,0
DA:1018,1
DA:1019,1
DA:1020,1
DA:1021,1
DA:1022,1
DA:1023,1
DA:1024,1
DA:1025,1
DA:1026,1
DA:1027,1
DA:1028,1
DA:1029,1
DA:1030,1
DA:1031,1
DA:1032,0
DA:1034,1
DA:1035,1
DA:1036,1
DA:1037,1
DA:1038,0
DA:1039,1
DA:1040,1
DA:1041,1
DA:1042,1
DA:1043,1
DA:1044,0
DA:1048,1
DA:1052,5
DA:1053,5
DA:1054,3
DA:1055,2
DA:1056,2
DA:1057,2
DA:1059,1
DA:1062,0
DA:1067,1
DA:1068,1
DA:1069,1
DA:1070,1
DA:1071,1
DA:1072,1
DA:1073,1
DA:1077,0
DA:1079,0
DA:1080,1
DA:1081,1
DA:1082,1
DA:1083,5
DA:1085,1
DA:1086,1
DA:1087,1
DA:1088,0
DA:1089,0
DA:1090,0
DA:1091,0
DA:1092,0
DA:1093,0
DA:1094,1
DA:1095,1
DA:1096,1
DA:1098,21
DA:1099,21
DA:1100,21
DA:1126,0
DA:1127,0
DA:1128,0
DA:1129,0
DA:1130,0
DA:1131,0
DA:1132,0
DA:1133,0
DA:1134,0
DA:1135,0
DA:1137,0
DA:1138,0
DA:1139,0
DA:1140,0
DA:1141,0
DA:1142,0
DA:1143,0
DA:1144,0
DA:1145,0
DA:1146,0
DA:1147,0
DA:1148,0
DA:1149,0
DA:1150,0
DA:1151,0
DA:1152,0
DA:1153,0
DA:1154,0
DA:1155,0
DA:1156,0
DA:1157,0
DA:1158,0
DA:1159,0
DA:1161,0
DA:1162,0
DA:1163,0
DA:1164,0
DA:1165,0
DA:1166,0
DA:1167,0
DA:1168,0
DA:1169,0
DA:1170,0
DA:1171,0
DA:1172,0
DA:1173,0
DA:1176,0
DA:1177,0
DA:1185,0
DA:1186,0
DA:1187,0
DA:1188,0
DA:1189,0
DA:1190,0
DA:1191,0
DA:1192,0
DA:1193,0
DA:1194,0
DA:1195,0
DA:1196,0
DA:1198,0
DA:1199,0
DA:1200,0
DA:1201,0
DA:1202,0
DA:1203,0
DA:1204,0
DA:1205,0
DA:1206,0
DA:1207,0
DA:1208,0
DA:1209,0
DA:1210,0
DA:1211,0
DA:1212,0
DA:1214,0
DA:1215,0
DA:1216,0
DA:1217,0
DA:1218,0
DA:1219,0
DA:1220,0
DA:1221,0
DA:1222,0
DA:1223,0
DA:1224,0
DA:1225,0
DA:1226,0
DA:1230,0
DA:1231,0
DA:1232,0
DA:1239,0
DA:1240,0
DA:1241,0
DA:1246,0
DA:1247,0
DA:1248,0
DA:1249,0
DA:1258,3
DA:1259,3
DA:1260,2
DA:1261,2
DA:1262,1
DA:1263,1
DA:1264,1
DA:1265,1
DA:1266,1
DA:1267,1
DA:1268,1
DA:1269,1
DA:1270,1
DA:1271,1
DA:1272,1
DA:1273,1
DA:1274,1
DA:1275,1
DA:1277,1
DA:1278,1
DA:1279,1
DA:1280,1
DA:1281,0
DA:1282,0
DA:1283,1
DA:1284,1
DA:1285,1
DA:1286,1
DA:1287,1
DA:1289,0
DA:1291,3
DA:1294,1
DA:1297,1
DA:1298,1
DA:1299,1
DA:1300,1
DA:1301,1
DA:1302,1
DA:1303,1
DA:1304,1
DA:1305,1
DA:1319,1
DA:1320,1
DA:1321,1
DA:1322,1
DA:1323,1
DA:1324,1
DA:1325,1
DA:1326,1
DA:1327,1
DA:1328,1
DA:1329,1
DA:1330,1
DA:1331,1
DA:1332,1
DA:1333,1
DA:1334,1
DA:1335,1
DA:1336,1
DA:1337,1
DA:1338,1
DA:1339,1
DA:1340,1
DA:1341,1
DA:1342,1
DA:1343,1
DA:1344,1
DA:1345,1
DA:1346,1
DA:1347,1
DA:1348,1
DA:1349,1
DA:1350,1
DA:1351,1
DA:1352,1
DA:1353,1
DA:1354,1
DA:1355,1
DA:1356,1
DA:1357,1
DA:1358,1
DA:1361,1
DA:1362,1
DA:1363,1
DA:1364,1
DA:1365,1
DA:1366,1
DA:1367,1
DA:1368,1
DA:1369,1
DA:1370,1
DA:1371,1
DA:1372,1
DA:1373,1
DA:1374,1
DA:1375,1
DA:1376,1
DA:1377,1
DA:1378,1
DA:1379,1
DA:1380,1
DA:1381,1
DA:1382,1
DA:1383,1
DA:1384,1
DA:1386,1
DA:1387,1
DA:1388,1
DA:1391,1
DA:1392,1
DA:1393,1
DA:1394,1
DA:1395,1
DA:1396,1
DA:1397,1
DA:1398,1
DA:1399,1
DA:1400,1
DA:1401,1
DA:1402,1
DA:1405,1
DA:1406,1
DA:1407,1
DA:1408,1
DA:1409,1
DA:1410,1
DA:1411,1
DA:1412,1
DA:1413,1
DA:1414,1
DA:1415,1
DA:1416,1
DA:1433,91
DA:1434,91
DA:1435,91
DA:1441,19
DA:1442,19
DA:1443,19
DA:1446,19
DA:1447,19
DA:1449,19
DA:1450,19
DA:1451,19
DA:1452,19
DA:1453,19
DA:1454,19
DA:1455,19
DA:1456,19
DA:1457,19
DA:1458,19
DA:1459,19
DA:1460,19
DA:1461,19
DA:1462,19
DA:1463,19
DA:1464,19
DA:1465,19
DA:1466,19
DA:1467,19
DA:1468,19
DA:1469,19
DA:1470,19
DA:1471,19
DA:1472,19
DA:1473,19
DA:1474,19
DA:1475,19
DA:1476,19
DA:1477,19
DA:1478,19
DA:1479,19
DA:1480,19
DA:1481,19
DA:1482,19
DA:1483,19
DA:1484,19
DA:1485,19
DA:1486,19
DA:1487,19
DA:1489,10
DA:1490,10
DA:1491,10
DA:1492,10
DA:1493,10
DA:1494,10
DA:1499,1
DA:1500,1
DA:1501,1
DA:1502,1
DA:1503,1
DA:1504,1
DA:1505,1
DA:1506,1
DA:1507,1
DA:1508,1
DA:1509,6
DA:1513,5
DA:1514,5
DA:1515,5
DA:1516,5
DA:1517,5
DA:1518,5
DA:1519,5
DA:1520,5
DA:1521,5
DA:1522,5
DA:1523,5
DA:1524,5
DA:1525,5
DA:1526,5
DA:1527,5
DA:1528,5
DA:1529,5
DA:1530,5
DA:1532,0
DA:1535,1
DA:1536,1
DA:1541,1
DA:1542,1
DA:1545,1
DA:1546,1
DA:1548,1
DA:1549,1
DA:1550,1
DA:1551,1
DA:1552,1
DA:1553,1
DA:1554,1
DA:1555,1
DA:1556,1
DA:1557,1
DA:1558,1
DA:1559,1
DA:1562,1
DA:1563,1
DA:1565,1
DA:1566,1
DA:1567,1
DA:1568,1
DA:1569,1
DA:1570,1
DA:1571,1
DA:1572,1
DA:1573,1
DA:1578,1
DA:1579,1
DA:1580,1
DA:1581,1
DA:1582,1
DA:1583,1
DA:1584,1
DA:1585,1
DA:1586,1
DA:1587,1
DA:1588,1
DA:1589,1
DA:1590,1
DA:1591,1
DA:1592,1
DA:1593,1
DA:1594,1
DA:1596,0
DA:1598,1
DA:1599,1
DA:1600,1
DA:1605,1
DA:1606,1
DA:1608,1
DA:1609,1
DA:1610,1
DA:1611,1
DA:1612,1
DA:1613,1
DA:1614,1
DA:1615,1
DA:1616,1
DA:1617,1
DA:1618,1
DA:1619,1
DA:1620,1
DA:1621,1
DA:1624,1
DA:1625,1
DA:1626,1
DA:1627,1
DA:1628,1
DA:1629,1
DA:1630,1
DA:1631,1
DA:1632,1
DA:1633,1
DA:1634,1
DA:1635,1
DA:1636,1
DA:1637,1
DA:1638,1
DA:1639,1
DA:1640,0
DA:1642,1
DA:1643,1
DA:1645,0
DA:1647,1
DA:1648,1
DA:1653,1
DA:1654,1
DA:1658,1
DA:1659,1
DA:1660,1
DA:1661,1
DA:1662,1
DA:1663,4
DA:1664,3
DA:1665,3
DA:1666,3
DA:1667,3
DA:1668,3
DA:1669,3
DA:1670,3
DA:1671,3
DA:1672,3
DA:1673,3
DA:1674,3
DA:1676,1
DA:1677,1
DA:1678,1
DA:1679,0
DA:1681,1
DA:1682,1
DA:1683,1
DA:1684,0
DA:1688,1
DA:1689,1
DA:1690,1
DA:1691,1
DA:1692,1
DA:1693,4
DA:1694,3
DA:1695,3
DA:1696,3
DA:1697,3
DA:1698,3
DA:1699,3
DA:1700,3
DA:1701,3
DA:1702,3
DA:1703,3
DA:1704,3
DA:1706,1
DA:1707,1
DA:1708,1
DA:1709,1
DA:1714,1
DA:1715,1
DA:1716,1
DA:1719,4
DA:1720,3
DA:1721,3
DA:1722,3
DA:1723,3
DA:1724,3
DA:1725,3
DA:1726,3
DA:1727,3
DA:1728,3
DA:1729,3
DA:1730,3
DA:1732,1
DA:1737,1
DA:1738,1
DA:1739,1
DA:1740,3
DA:1741,1
DA:1742,1
DA:1743,1
DA:1744,1
DA:1745,1
DA:1746,1
DA:1748,0
DA:1750,1
DA:1751,1
DA:1756,3
DA:1757,3
DA:1758,3
DA:1759,1
DA:1760,1
DA:1761,1
DA:1762,1
DA:1763,1
DA:1764,1
DA:1766,0
DA:1768,1
DA:1774,1
DA:1776,3
DA:1777,1
DA:1778,1
DA:1779,0
DA:1780,0
DA:1781,0
DA:1782,0
DA:1783,0
DA:1785,0
DA:1787,1
DA:1788,1
DA:1793,1
DA:1794,1
DA:1795,1
DA:1796,4
DA:1797,3
DA:1798,3
DA:1799,3
DA:1800,3
DA:1801,3
DA:1802,3
DA:1803,3
DA:1804,3
DA:1805,3
DA:1806,3
DA:1807,3
DA:1809,1
DA:1811,3
DA:1812,3
DA:1813,3
DA:1814,1
DA:1817,1
DA:1818,1
DA:1819,1
DA:1820,1
DA:1821,1
DA:1822,1
DA:1823,1
DA:1824,1
DA:1825,1
DA:1826,1
DA:1827,2
DA:1828,1
DA:1829,1
DA:1830,0
DA:1832,1
DA:1834,1
DA:1835,1
DA:1836,0
DA:1841,1
DA:1842,1
DA:1843,1
DA:1844,1
DA:1845,1
DA:1846,1
DA:1847,1
DA:1852,1
DA:1853,1
DA:1854,1
DA:1855,1
DA:1856,1
DA:1857,1
DA:1858,1
DA:1859,1
DA:1860,1
DA:1861,5
DA:1862,4
DA:1863,4
DA:1864,4
DA:1865,2
DA:1867,2
DA:1869,4
DA:1870,4
DA:1871,4
DA:1872,4
DA:1873,4
DA:1874,4
DA:1875,4
DA:1876,4
DA:1877,4
DA:1878,4
DA:1879,4
DA:1880,4
DA:1881,4
DA:1883,0
DA:1886,1
DA:1887,1
DA:1890,1
DA:1891,1
DA:1895,1
DA:1896,1
DA:1897,1
DA:1898,1
DA:1899,1
DA:1900,1
DA:1901,1
DA:1902,1
DA:1903,1
DA:1904,1
DA:1905,1
DA:1906,1
DA:1907,1
DA:1908,1
DA:1909,1
DA:1910,1
DA:1911,1
DA:1912,1
DA:1913,1
DA:1914,1
DA:1915,1
DA:1916,1
DA:1917,1
DA:1919,1
DA:1920,1
DA:1921,0
DA:1923,1
DA:1924,1
DA:1929,1
DA:1930,1
DA:1931,1
DA:1932,1
DA:1933,1
DA:1934,1
DA:1935,1
DA:1936,1
DA:1937,1
DA:1938,1
DA:1939,1
DA:1940,1
DA:1941,1
DA:1944,1
DA:1945,1
DA:1946,1
DA:1947,1
DA:1948,1
DA:1949,1
DA:1950,1
DA:1951,0
DA:1954,1
DA:1955,1
DA:1960,1
DA:1961,1
DA:1962,1
DA:1963,1
DA:1964,1
DA:1965,1
DA:1966,1
DA:1967,1
DA:1968,1
DA:1969,1
DA:1970,1
DA:1971,1
DA:1972,1
DA:1973,1
DA:1974,0
DA:1976,1
DA:1981,1
DA:1982,1
DA:1983,1
DA:1984,1
DA:1985,1
DA:1987,1
DA:1988,1
DA:1989,1
DA:1990,0
DA:1993,1
DA:1995,1
DA:1996,1
DA:1997,0
DA:1999,1
BRF:0
BRH:0
LF:1309
LH:1043
end_of_record
SF:/home/ubuntu/Code/ExpressGateway/crates/lb-quic/src/public_header.rs
FN:276,_RNCNvNtCsFtQQ2UsJ2c_7lb_quic13public_header10parse_long0B5_
FN:184,_RNvNtCsFtQQ2UsJ2c_7lb_quic13public_header10parse_long
FN:338,_RNvNtCsFtQQ2UsJ2c_7lb_quic13public_header11parse_short
FN:135,_RNvNtCsFtQQ2UsJ2c_7lb_quic13public_header13decode_varint
FN:166,_RNvNtCsFtQQ2UsJ2c_7lb_quic13public_header19parse_public_header
FN:276,_RNCNvNtCsiNLkn7P4XgI_7lb_quic13public_header10parse_long0B5_
FN:184,_RNvNtCsiNLkn7P4XgI_7lb_quic13public_header10parse_long
FN:338,_RNvNtCsiNLkn7P4XgI_7lb_quic13public_header11parse_short
FN:135,_RNvNtCsiNLkn7P4XgI_7lb_quic13public_header13decode_varint
FN:166,_RNvNtCsiNLkn7P4XgI_7lb_quic13public_header19parse_public_header
FN:396,_RNvNtNtCsiNLkn7P4XgI_7lb_quic13public_header5tests18rfc9001_a2_initial
FN:443,_RNvNtNtCsiNLkn7P4XgI_7lb_quic13public_header5tests21handcrafted_handshake
FN:650,_RNvNtNtCsiNLkn7P4XgI_7lb_quic13public_header5testss_15varint_one_byte
FN:658,_RNvNtNtCsiNLkn7P4XgI_7lb_quic13public_header5testss_15varint_two_byte
FN:457,_RNvNtNtCsiNLkn7P4XgI_7lb_quic13public_header5testss_16handshake_parses
FN:666,_RNvNtNtCsiNLkn7P4XgI_7lb_quic13public_header5testss_16varint_four_byte
FN:672,_RNvNtNtCsiNLkn7P4XgI_7lb_quic13public_header5testss_17varint_eight_byte
FN:678,_RNvNtNtCsiNLkn7P4XgI_7lb_quic13public_header5testss_17varint_incomplete
FN:566,_RNvNtNtCsiNLkn7P4XgI_7lb_quic13public_header5testss_21short_header_positive
FN:509,_RNvNtNtCsiNLkn7P4XgI_7lb_quic13public_header5testss_22dcid_too_long_rejected
FN:521,_RNvNtNtCsiNLkn7P4XgI_7lb_quic13public_header5testss_22scid_too_long_rejected
FN:481,_RNvNtNtCsiNLkn7P4XgI_7lb_quic13public_header5testss_25empty_buffer_is_too_short
FN:411,_RNvNtNtCsiNLkn7P4XgI_7lb_quic13public_header5testss_25rfc9001_a2_initial_parses
FN:626,_RNvNtNtCsiNLkn7P4XgI_7lb_quic13public_header5testss_26retry_classified_no_length
FN:489,_RNvNtNtCsiNLkn7P4XgI_7lb_quic13public_header5testss_29fixed_bit_clear_long_rejected
FN:499,_RNvNtNtCsiNLkn7P4XgI_7lb_quic13public_header5testss_30fixed_bit_clear_short_rejected
FN:580,_RNvNtNtCsiNLkn7P4XgI_7lb_quic13public_header5testss_30short_header_zero_len_rejected
FN:589,_RNvNtNtCsiNLkn7P4XgI_7lb_quic13public_header5testss_31short_header_too_short_for_dcid
FN:545,_RNvNtNtCsiNLkn7P4XgI_7lb_quic13public_header5testss_32initial_declared_length_overruns
FN:534,_RNvNtNtCsiNLkn7P4XgI_7lb_quic13public_header5testss_37initial_truncated_in_token_len_varint
FN:600,_RNvNtNtCsiNLkn7P4XgI_7lb_quic13public_header5testss_39version_negotiation_overrides_type_bits
FNDA:0,_RNCNvNtCsFtQQ2UsJ2c_7lb_quic13public_header10parse_long0B5_
FNDA:2248,_RNvNtCsFtQQ2UsJ2c_7lb_quic13public_header10parse_long
FNDA:266,_RNvNtCsFtQQ2UsJ2c_7lb_quic13public_header11parse_short
FNDA:4000,_RNvNtCsFtQQ2UsJ2c_7lb_quic13public_header13decode_varint
FNDA:3000,_RNvNtCsFtQQ2UsJ2c_7lb_quic13public_header19parse_public_header
FNDA:0,_RNCNvNtCsiNLkn7P4XgI_7lb_quic13public_header10parse_long0B5_
FNDA:8,_RNvNtCsiNLkn7P4XgI_7lb_quic13public_header10parse_long
FNDA:3,_RNvNtCsiNLkn7P4XgI_7lb_quic13public_header11parse_short
FNDA:13,_RNvNtCsiNLkn7P4XgI_7lb_quic13public_header13decode_varint
FNDA:14,_RNvNtCsiNLkn7P4XgI_7lb_quic13public_header19parse_public_header
FNDA:1,_RNvNtNtCsiNLkn7P4XgI_7lb_quic13public_header5tests18rfc9001_a2_initial
FNDA:1,_RNvNtNtCsiNLkn7P4XgI_7lb_quic13public_header5tests21handcrafted_handshake
FNDA:1,_RNvNtNtCsiNLkn7P4XgI_7lb_quic13public_header5testss_15varint_one_byte
FNDA:1,_RNvNtNtCsiNLkn7P4XgI_7lb_quic13public_header5testss_15varint_two_byte
FNDA:1,_RNvNtNtCsiNLkn7P4XgI_7lb_quic13public_header5testss_16handshake_parses
FNDA:1,_RNvNtNtCsiNLkn7P4XgI_7lb_quic13public_header5testss_16varint_four_byte
FNDA:1,_RNvNtNtCsiNLkn7P4XgI_7lb_quic13public_header5testss_17varint_eight_byte
FNDA:1,_RNvNtNtCsiNLkn7P4XgI_7lb_quic13public_header5testss_17varint_incomplete
FNDA:1,_RNvNtNtCsiNLkn7P4XgI_7lb_quic13public_header5testss_21short_header_positive
FNDA:1,_RNvNtNtCsiNLkn7P4XgI_7lb_quic13public_header5testss_22dcid_too_long_rejected
FNDA:1,_RNvNtNtCsiNLkn7P4XgI_7lb_quic13public_header5testss_22scid_too_long_rejected
FNDA:1,_RNvNtNtCsiNLkn7P4XgI_7lb_quic13public_header5testss_25empty_buffer_is_too_short
FNDA:1,_RNvNtNtCsiNLkn7P4XgI_7lb_quic13public_header5testss_25rfc9001_a2_initial_parses
FNDA:1,_RNvNtNtCsiNLkn7P4XgI_7lb_quic13public_header5testss_26retry_classified_no_length
FNDA:1,_RNvNtNtCsiNLkn7P4XgI_7lb_quic13public_header5testss_29fixed_bit_clear_long_rejected
FNDA:1,_RNvNtNtCsiNLkn7P4XgI_7lb_quic13public_header5testss_30fixed_bit_clear_short_rejected
FNDA:1,_RNvNtNtCsiNLkn7P4XgI_7lb_quic13public_header5testss_30short_header_zero_len_rejected
FNDA:1,_RNvNtNtCsiNLkn7P4XgI_7lb_quic13public_header5testss_31short_header_too_short_for_dcid
FNDA:1,_RNvNtNtCsiNLkn7P4XgI_7lb_quic13public_header5testss_32initial_declared_length_overruns
FNDA:1,_RNvNtNtCsiNLkn7P4XgI_7lb_quic13public_header5testss_37initial_truncated_in_token_len_varint
FNDA:1,_RNvNtNtCsiNLkn7P4XgI_7lb_quic13public_header5testss_39version_negotiation_overrides_type_bits
FNF:26
FNH:25
DA:135,4013
DA:136,4013
DA:137,4013
DA:138,4013
DA:139,4012
DA:140,4012
DA:141,1
DA:142,1
DA:143,1
DA:144,1
DA:145,4011
DA:146,4011
DA:147,4011
DA:148,2015
DA:149,2015
DA:150,2015
DA:151,2015
DA:152,2015
DA:154,4011
DA:155,4013
DA:166,3014
DA:167,3014
DA:168,3014
DA:169,3014
DA:170,3014
DA:171,3014
DA:172,3014
DA:174,3009
DA:175,484
DA:176,2525
DA:177,2525
DA:178,269
DA:180,2256
DA:182,3014
DA:184,2256
DA:186,2256
DA:187,2256
DA:188,2256
DA:189,2256
DA:190,2245
DA:191,2245
DA:192,2245
DA:193,2245
DA:194,2245
DA:195,2245
DA:196,2245
DA:197,2245
DA:198,2245
DA:199,2245
DA:200,2245
DA:201,2245
DA:202,2245
DA:203,2245
DA:204,2245
DA:205,2245
DA:206,2245
DA:207,2245
DA:208,2245
DA:209,2245
DA:211,2245
DA:212,2245
DA:213,2245
DA:214,2245
DA:215,2245
DA:216,216
DA:217,2029
DA:218,2029
DA:219,2029
DA:220,2029
DA:221,2029
DA:222,2029
DA:223,2029
DA:224,2029
DA:225,2029
DA:226,2029
DA:227,2029
DA:228,2029
DA:230,2028
DA:231,2028
DA:232,2028
DA:233,2028
DA:234,2028
DA:235,2028
DA:236,22
DA:237,2006
DA:238,2006
DA:239,2006
DA:240,2006
DA:241,2006
DA:242,2006
DA:243,2006
DA:244,2006
DA:245,2006
DA:246,2006
DA:247,2006
DA:248,2006
DA:251,2006
DA:252,1
DA:253,1
DA:254,1
DA:255,1
DA:256,1
DA:257,1
DA:258,1
DA:259,1
DA:260,2005
DA:262,2005
DA:263,2003
DA:264,0
DA:265,1
DA:266,1
DA:269,2005
DA:270,2005
DA:271,2005
DA:272,2005
DA:273,2005
DA:275,2003
DA:276,2002
DA:277,0
DA:278,0
DA:279,2002
DA:280,2002
DA:281,2002
DA:282,2002
DA:283,2002
DA:284,2002
DA:285,2002
DA:286,2002
DA:287,2002
DA:288,2002
DA:289,2002
DA:290,2002
DA:291,2002
DA:292,2002
DA:293,2002
DA:294,2002
DA:295,2002
DA:296,2002
DA:297,2002
DA:298,2002
DA:299,1
DA:300,1
DA:301,1
DA:302,1
DA:303,2001
DA:304,2001
DA:307,1
DA:308,1
DA:309,1
DA:310,1
DA:311,0
DA:312,0
DA:313,0
DA:314,0
DA:315,1
DA:316,1
DA:325,1
DA:328,2003
DA:329,2003
DA:330,2003
DA:331,2003
DA:332,2003
DA:333,2003
DA:334,2003
DA:335,2003
DA:336,2256
DA:338,269
DA:339,269
DA:345,29
DA:346,29
DA:347,240
DA:348,240
DA:349,240
DA:350,240
DA:351,240
DA:352,240
DA:353,240
DA:354,240
DA:355,240
DA:356,240
DA:357,240
DA:358,224
DA:359,269
DA:396,1
DA:397,1
DA:398,1
DA:399,1
DA:400,1
DA:401,1
DA:402,1
DA:403,1
DA:404,1
DA:405,1
DA:406,1
DA:407,1
DA:408,1
DA:411,1
DA:412,1
DA:413,1
DA:414,1
DA:416,1
DA:417,1
DA:418,1
DA:419,1
DA:420,1
DA:421,1
DA:422,1
DA:423,1
DA:424,1
DA:425,1
DA:426,1
DA:427,1
DA:428,1
DA:429,1
DA:431,0
DA:433,1
DA:443,1
DA:444,1
DA:445,1
DA:446,1
DA:447,1
DA:448,1
DA:449,1
DA:450,1
DA:451,1
DA:452,1
DA:453,1
DA:454,1
DA:457,1
DA:458,1
DA:459,1
DA:460,1
DA:462,1
DA:463,1
DA:464,1
DA:465,1
DA:466,1
DA:467,1
DA:468,1
DA:469,1
DA:470,1
DA:471,1
DA:472,1
DA:473,1
DA:474,1
DA:476,0
DA:478,1
DA:481,1
DA:482,1
DA:483,1
DA:484,0
DA:486,1
DA:489,1
DA:490,1
DA:491,1
DA:492,1
DA:493,1
DA:494,0
DA:496,1
DA:499,1
DA:500,1
DA:501,1
DA:502,1
DA:503,1
DA:504,0
DA:506,1
DA:509,1
DA:510,1
DA:511,1
DA:512,1
DA:513,1
DA:514,1
DA:515,1
DA:516,0
DA:518,1
DA:521,1
DA:522,1
DA:523,1
DA:524,1
DA:525,1
DA:526,1
DA:527,1
DA:528,1
DA:529,0
DA:531,1
DA:534,1
DA:535,1
DA:536,1
DA:537,1
DA:538,1
DA:539,1
DA:540,0
DA:542,1
DA:545,1
DA:546,1
DA:547,1
DA:548,1
DA:549,1
DA:550,1
DA:551,1
DA:552,1
DA:553,1
DA:554,1
DA:555,1
DA:556,1
DA:560,1
DA:561,0
DA:563,1
DA:566,1
DA:567,1
DA:568,1
DA:569,1
DA:570,1
DA:571,1
DA:572,1
DA:573,1
DA:575,0
DA:577,1
DA:580,1
DA:581,1
DA:582,1
DA:583,1
DA:584,0
DA:586,1
DA:589,1
DA:590,1
DA:591,1
DA:592,1
DA:593,1
DA:594,1
DA:595,0
DA:597,1
DA:600,1
DA:601,1
DA:602,1
DA:603,1
DA:604,1
DA:605,1
DA:606,1
DA:607,1
DA:608,1
DA:610,1
DA:611,1
DA:612,1
DA:613,1
DA:614,1
DA:615,1
DA:616,1
DA:617,1
DA:618,1
DA:619,1
DA:621,0
DA:623,1
DA:626,1
DA:627,1
DA:628,1
DA:629,1
DA:630,1
DA:631,1
DA:632,1
DA:633,1
DA:634,1
DA:635,1
DA:637,1
DA:638,1
DA:639,1
DA:640,1
DA:641,1
DA:643,0
DA:645,1
DA:650,1
DA:651,1
DA:652,1
DA:653,1
DA:654,1
DA:655,1
DA:658,1
DA:659,1
DA:660,1
DA:661,1
DA:662,1
DA:663,1
DA:666,1
DA:667,1
DA:668,1
DA:669,1
DA:672,1
DA:673,1
DA:674,1
DA:675,1
DA:678,1
DA:679,1
DA:680,1
DA:681,0
DA:683,1
BRF:0
BRH:0
LF:397
LH:373
end_of_record
SF:/home/ubuntu/Code/ExpressGateway/crates/lb-quic/src/raw_proxy.rs
FN:358,_RNCNvMs_NtCsFtQQ2UsJ2c_7lb_quic9raw_proxyNtB6_15ActiveConnGuard3new0B8_
FN:878,_RNCNvNtCsFtQQ2UsJ2c_7lb_quic9raw_proxy13relay_streams0B5_
FN:476,_RNCNvNtCsFtQQ2UsJ2c_7lb_quic9raw_proxy13run_dual_pump0B5_
FN:1480,_RNCNvNtCsFtQQ2UsJ2c_7lb_quic9raw_proxy14graceful_close0B5_
FN:197,_RNCNvNtCsFtQQ2UsJ2c_7lb_quic9raw_proxy19run_raw_proxy_actor0B5_
FN:229,_RNCNvNtCsFtQQ2UsJ2c_7lb_quic9raw_proxy25run_raw_proxy_actor_inner0B5_
FN:386,_RNCNvNtCsFtQQ2UsJ2c_7lb_quic9raw_proxy27drive_client_to_established0B5_
FN:729,_RNvMs1_NtCsFtQQ2UsJ2c_7lb_quic9raw_proxyNtB5_9RelayHalf16propagate_cancel
FN:797,_RNvMs2_NtCsFtQQ2UsJ2c_7lb_quic9raw_proxyNtB5_14RawStreamState11is_complete
FN:1043,_RNvMs3_NtCsFtQQ2UsJ2c_7lb_quic9raw_proxyNtB5_17BoundedDgramQueue3len
FN:1001,_RNvMs3_NtCsFtQQ2UsJ2c_7lb_quic9raw_proxyNtB5_17BoundedDgramQueue3new
FN:1016,_RNvMs3_NtCsFtQQ2UsJ2c_7lb_quic9raw_proxyNtB5_17BoundedDgramQueue4push
FN:1033,_RNvMs3_NtCsFtQQ2UsJ2c_7lb_quic9raw_proxyNtB5_17BoundedDgramQueue5front
FN:1055,_RNvMs3_NtCsFtQQ2UsJ2c_7lb_quic9raw_proxyNtB5_17BoundedDgramQueue7dropped
FN:1048,_RNvMs3_NtCsFtQQ2UsJ2c_7lb_quic9raw_proxyNtB5_17BoundedDgramQueue8is_empty
FN:1038,_RNvMs3_NtCsFtQQ2UsJ2c_7lb_quic9raw_proxyNtB5_17BoundedDgramQueue9pop_front
FN:1219,_RNvMs4_NtCsFtQQ2UsJ2c_7lb_quic9raw_proxyNtB5_9Direction6as_str
FN:357,_RNvMs_NtCsFtQQ2UsJ2c_7lb_quic9raw_proxyNtB4_15ActiveConnGuard3new
FN:823,_RNvNtCsFtQQ2UsJ2c_7lb_quic9raw_proxy13relay_streams
FN:459,_RNvNtCsFtQQ2UsJ2c_7lb_quic9raw_proxy13run_dual_pump
FN:1480,_RNvNtCsFtQQ2UsJ2c_7lb_quic9raw_proxy14graceful_close
FN:1111,_RNvNtCsFtQQ2UsJ2c_7lb_quic9raw_proxy14pump_dgram_dir
FN:890,_RNvNtCsFtQQ2UsJ2c_7lb_quic9raw_proxy15admit_or_refuse
FN:1069,_RNvNtCsFtQQ2UsJ2c_7lb_quic9raw_proxy15relay_datagrams
FN:197,_RNvNtCsFtQQ2UsJ2c_7lb_quic9raw_proxy19run_raw_proxy_actor
FN:229,_RNvNtCsFtQQ2UsJ2c_7lb_quic9raw_proxy25run_raw_proxy_actor_inner
FN:380,_RNvNtCsFtQQ2UsJ2c_7lb_quic9raw_proxy27drive_client_to_established
FN:221,_RNvNtCsFtQQ2UsJ2c_7lb_quic9raw_proxy28run_raw_proxy_actor_for_test
FN:1275,_RNvNtCsFtQQ2UsJ2c_7lb_quic9raw_proxy8pump_dir
FN:148,_RNvXNtCsFtQQ2UsJ2c_7lb_quic9raw_proxyNtB2_10RawBackendNtNtCs2va5m0jqTTM_4core3fmt5Debug3fmt
FN:367,_RNvXs0_NtCsFtQQ2UsJ2c_7lb_quic9raw_proxyNtB5_15ActiveConnGuardNtNtNtCs2va5m0jqTTM_4core3ops4drop4Drop4drop
FN:221,_RNCNvNtCsFtQQ2UsJ2c_7lb_quic9raw_proxy28run_raw_proxy_actor_for_test0B5_
FN:221,_RNCNvNtCsiNLkn7P4XgI_7lb_quic9raw_proxy28run_raw_proxy_actor_for_test0B5_
FN:221,_RNvNtCsiNLkn7P4XgI_7lb_quic9raw_proxy28run_raw_proxy_actor_for_test
FN:148,_RNvXNtCsiNLkn7P4XgI_7lb_quic9raw_proxyNtB2_10RawBackendNtNtCs2va5m0jqTTM_4core3fmt5Debug3fmt
FN:1798,_RNCNvNtNtCsiNLkn7P4XgI_7lb_quic9raw_proxy5tests32src_server_with_fin_only_stream00B7_
FN:2009,_RNCNvNtNtCsiNLkn7P4XgI_7lb_quic9raw_proxy5tests35src_server_with_payload_fin_stream00B7_
FN:1550,_RNCNvNtNtCsiNLkn7P4XgI_7lb_quic9raw_proxy5tests9gen_certs0B7_
FN:2231,_RNCNvNtNtCsiNLkn7P4XgI_7lb_quic9raw_proxy5testss_32dgram_queue_preserves_fifo_order0B7_
FN:2268,_RNCNvNtNtCsiNLkn7P4XgI_7lb_quic9raw_proxy5testss_40dgram_queue_drop_newest_negative_control0B7_
FN:2048,_RNCNvNtNtCsiNLkn7P4XgI_7lb_quic9raw_proxy5testss_46post_fin_short_write_reread_does_not_drop_tail0B7_
FN:2320,_RNCNvNtNtCsiNLkn7P4XgI_7lb_quic9raw_proxy5testss_53dgram_queue_preserves_binary_and_zero_length_verbatim0B7_
FN:2638,_RNvNtNtCsiNLkn7P4XgI_7lb_quic9raw_proxy5tests10dgram_pair
FN:1579,_RNvNtNtCsiNLkn7P4XgI_7lb_quic9raw_proxy5tests11random_scid
FN:1612,_RNvNtNtCsiNLkn7P4XgI_7lb_quic9raw_proxy5tests13client_config
FN:1590,_RNvNtNtCsiNLkn7P4XgI_7lb_quic9raw_proxy5tests13server_config
FN:1634,_RNvNtNtCsiNLkn7P4XgI_7lb_quic9raw_proxy5tests14handshake_pair
FN:1727,_RNvNtNtCsiNLkn7P4XgI_7lb_quic9raw_proxy5tests16established_pair
FN:2408,_RNvNtNtCsiNLkn7P4XgI_7lb_quic9raw_proxy5tests22over_cap_client_config
FN:2388,_RNvNtNtCsiNLkn7P4XgI_7lb_quic9raw_proxy5tests22over_cap_server_config
FN:2433,_RNvNtNtCsiNLkn7P4XgI_7lb_quic9raw_proxy5tests30server_with_n_readable_streams
FN:1767,_RNvNtNtCsiNLkn7P4XgI_7lb_quic9raw_proxy5tests32src_server_with_fin_only_stream0
FN:1930,_RNvNtNtCsiNLkn7P4XgI_7lb_quic9raw_proxy5tests33established_pair_small_dst_window
FN:1902,_RNvNtNtCsiNLkn7P4XgI_7lb_quic9raw_proxy5tests33server_config_small_stream_window
FN:1972,_RNvNtNtCsiNLkn7P4XgI_7lb_quic9raw_proxy5tests35src_server_with_payload_fin_stream0
FN:1720,_RNvNtNtCsiNLkn7P4XgI_7lb_quic9raw_proxy5tests5addrs
FN:1547,_RNvNtNtCsiNLkn7P4XgI_7lb_quic9raw_proxy5tests9gen_certs
FN:1685,_RNvNtNtCsiNLkn7P4XgI_7lb_quic9raw_proxy5tests9pump_once
FN:2229,_RNvNtNtCsiNLkn7P4XgI_7lb_quic9raw_proxy5testss_32dgram_queue_preserves_fifo_order
FN:1812,_RNvNtNtCsiNLkn7P4XgI_7lb_quic9raw_proxy5testss_39fin_only_stream_limit_does_not_drop_fin
FN:2261,_RNvNtNtCsiNLkn7P4XgI_7lb_quic9raw_proxy5testss_40dgram_queue_drop_newest_negative_control
FN:2353,_RNvNtNtCsiNLkn7P4XgI_7lb_quic9raw_proxy5testss_46dgram_queue_cap_constant_is_documented_default
FN:2039,_RNvNtNtCsiNLkn7P4XgI_7lb_quic9raw_proxy5testss_46post_fin_short_write_reread_does_not_drop_tail
FN:1857,_RNvNtNtCsiNLkn7P4XgI_7lb_quic9raw_proxy5testss_47fin_only_delivered_when_stream_credit_available
FN:2558,_RNvNtNtCsiNLkn7P4XgI_7lb_quic9raw_proxy5testss_48admit_or_refuse_keeps_tracked_refuses_new_at_cap
FN:2607,_RNvNtNtCsiNLkn7P4XgI_7lb_quic9raw_proxy5testss_48max_relay_streams_constant_is_documented_default
FN:2688,_RNvNtNtCsiNLkn7P4XgI_7lb_quic9raw_proxy5testss_48pump_dgram_dir_invalid_state_drains_and_disables
FN:2736,_RNvNtNtCsiNLkn7P4XgI_7lb_quic9raw_proxy5testss_51pump_dgram_dir_buffer_too_short_drops_one_continues
FN:2501,_RNvNtNtCsiNLkn7P4XgI_7lb_quic9raw_proxy5testss_52relay_table_clamped_to_max_relay_streams_under_flood
FN:2313,_RNvNtNtCsiNLkn7P4XgI_7lb_quic9raw_proxy5testss_53dgram_queue_preserves_binary_and_zero_length_verbatim
FN:1542,_RNvXNtNtCsiNLkn7P4XgI_7lb_quic9raw_proxy5testsNtB2_9TestCertsNtNtNtCs2va5m0jqTTM_4core3ops4drop4Drop4drop
FN:358,_RNCNvMs_NtCsiNLkn7P4XgI_7lb_quic9raw_proxyNtB6_15ActiveConnGuard3new0B8_
FN:878,_RNCNvNtCsiNLkn7P4XgI_7lb_quic9raw_proxy13relay_streams0B5_
FN:476,_RNCNvNtCsiNLkn7P4XgI_7lb_quic9raw_proxy13run_dual_pump0B5_
FN:1480,_RNCNvNtCsiNLkn7P4XgI_7lb_quic9raw_proxy14graceful_close0B5_
FN:197,_RNCNvNtCsiNLkn7P4XgI_7lb_quic9raw_proxy19run_raw_proxy_actor0B5_
FN:229,_RNCNvNtCsiNLkn7P4XgI_7lb_quic9raw_proxy25run_raw_proxy_actor_inner0B5_
FN:386,_RNCNvNtCsiNLkn7P4XgI_7lb_quic9raw_proxy27drive_client_to_established0B5_
FN:729,_RNvMs1_NtCsiNLkn7P4XgI_7lb_quic9raw_proxyNtB5_9RelayHalf16propagate_cancel
FN:797,_RNvMs2_NtCsiNLkn7P4XgI_7lb_quic9raw_proxyNtB5_14RawStreamState11is_complete
FN:1043,_RNvMs3_NtCsiNLkn7P4XgI_7lb_quic9raw_proxyNtB5_17BoundedDgramQueue3len
FN:1001,_RNvMs3_NtCsiNLkn7P4XgI_7lb_quic9raw_proxyNtB5_17BoundedDgramQueue3new
FN:1016,_RNvMs3_NtCsiNLkn7P4XgI_7lb_quic9raw_proxyNtB5_17BoundedDgramQueue4push
FN:1033,_RNvMs3_NtCsiNLkn7P4XgI_7lb_quic9raw_proxyNtB5_17BoundedDgramQueue5front
FN:1055,_RNvMs3_NtCsiNLkn7P4XgI_7lb_quic9raw_proxyNtB5_17BoundedDgramQueue7dropped
FN:1048,_RNvMs3_NtCsiNLkn7P4XgI_7lb_quic9raw_proxyNtB5_17BoundedDgramQueue8is_empty
FN:1038,_RNvMs3_NtCsiNLkn7P4XgI_7lb_quic9raw_proxyNtB5_17BoundedDgramQueue9pop_front
FN:1219,_RNvMs4_NtCsiNLkn7P4XgI_7lb_quic9raw_proxyNtB5_9Direction6as_str
FN:357,_RNvMs_NtCsiNLkn7P4XgI_7lb_quic9raw_proxyNtB4_15ActiveConnGuard3new
FN:823,_RNvNtCsiNLkn7P4XgI_7lb_quic9raw_proxy13relay_streams
FN:459,_RNvNtCsiNLkn7P4XgI_7lb_quic9raw_proxy13run_dual_pump
FN:1480,_RNvNtCsiNLkn7P4XgI_7lb_quic9raw_proxy14graceful_close
FN:1111,_RNvNtCsiNLkn7P4XgI_7lb_quic9raw_proxy14pump_dgram_dir
FN:890,_RNvNtCsiNLkn7P4XgI_7lb_quic9raw_proxy15admit_or_refuse
FN:1069,_RNvNtCsiNLkn7P4XgI_7lb_quic9raw_proxy15relay_datagrams
FN:197,_RNvNtCsiNLkn7P4XgI_7lb_quic9raw_proxy19run_raw_proxy_actor
FN:229,_RNvNtCsiNLkn7P4XgI_7lb_quic9raw_proxy25run_raw_proxy_actor_inner
FN:380,_RNvNtCsiNLkn7P4XgI_7lb_quic9raw_proxy27drive_client_to_established
FN:1275,_RNvNtCsiNLkn7P4XgI_7lb_quic9raw_proxy8pump_dir
FN:367,_RNvXs0_NtCsiNLkn7P4XgI_7lb_quic9raw_proxyNtB5_15ActiveConnGuardNtNtNtCs2va5m0jqTTM_4core3ops4drop4Drop4drop
FN:221,_RNCNvNtCsFtQQ2UsJ2c_7lb_quic9raw_proxy28run_raw_proxy_actor_for_test0Cs61jC8GWqg32_22s16_b1_two_connections
FN:221,_RNCNvNtCsFtQQ2UsJ2c_7lb_quic9raw_proxy28run_raw_proxy_actor_for_test0CsgXAhEGvYvo9_19s16_b2_backpressure
FN:221,_RNCNvNtCsFtQQ2UsJ2c_7lb_quic9raw_proxy28run_raw_proxy_actor_for_test0Csfq423e0pRhc_18s16_b2_multistream
FN:221,_RNCNvNtCsFtQQ2UsJ2c_7lb_quic9raw_proxy28run_raw_proxy_actor_for_test0CsNR5aDZ9uc8_20s16_b2_reset_not_fin
FN:221,_RNCNvNtCsFtQQ2UsJ2c_7lb_quic9raw_proxy28run_raw_proxy_actor_for_test0Csbq62kL21E90_25s16_b2_stream_relay_smoke
FN:221,_RNCNvNtCsFtQQ2UsJ2c_7lb_quic9raw_proxy28run_raw_proxy_actor_for_test0Cs33odxjkFt5k_30s16_b3_reset_propagation_smoke
FN:221,_RNCNvNtCsFtQQ2UsJ2c_7lb_quic9raw_proxy28run_raw_proxy_actor_for_test0Csh7L8uiD84aw_31s16_b3_reset_propagation_verify
FN:221,_RNCNvNtCsFtQQ2UsJ2c_7lb_quic9raw_proxy28run_raw_proxy_actor_for_test0CseAxdOZpizRn_27s19_b4_datagram_relay_smoke
FN:221,_RNCNvNtCsFtQQ2UsJ2c_7lb_quic9raw_proxy28run_raw_proxy_actor_for_test0Cs5RdxBO3GYU9_22s19_b4_datagram_verify
FN:221,_RNCNvNtCsFtQQ2UsJ2c_7lb_quic9raw_proxy28run_raw_proxy_actor_for_test0Csg6UW6aacuo2_19s19_b5_stream_flood
FN:221,_RNCNvNtCsFtQQ2UsJ2c_7lb_quic9raw_proxy28run_raw_proxy_actor_for_test0CshVct4aTSqII_13s19_b5_verify
FN:221,_RNCNvNtCsFtQQ2UsJ2c_7lb_quic9raw_proxy28run_raw_proxy_actor_for_test0Csa40nHgj9iN1_25s19_b6_metrics_nonvacuous
FN:221,_RNCNvNtCsFtQQ2UsJ2c_7lb_quic9raw_proxy28run_raw_proxy_actor_for_test0CseESjNOePAF4_22s19_b6_two_connections
FNDA:3,_RNCNvMs_NtCsFtQQ2UsJ2c_7lb_quic9raw_proxyNtB6_15ActiveConnGuard3new0B8_
FNDA:75597,_RNCNvNtCsFtQQ2UsJ2c_7lb_quic9raw_proxy13relay_streams0B5_
FNDA:23,_RNCNvNtCsFtQQ2UsJ2c_7lb_quic9raw_proxy13run_dual_pump0B5_
FNDA:46,_RNCNvNtCsFtQQ2UsJ2c_7lb_quic9raw_proxy14graceful_close0B5_
FNDA:0,_RNCNvNtCsFtQQ2UsJ2c_7lb_quic9raw_proxy19run_raw_proxy_actor0B5_
FNDA:23,_RNCNvNtCsFtQQ2UsJ2c_7lb_quic9raw_proxy25run_raw_proxy_actor_inner0B5_
FNDA:23,_RNCNvNtCsFtQQ2UsJ2c_7lb_quic9raw_proxy27drive_client_to_established0B5_
FNDA:5,_RNvMs1_NtCsFtQQ2UsJ2c_7lb_quic9raw_proxyNtB5_9RelayHalf16propagate_cancel
FNDA:75597,_RNvMs2_NtCsFtQQ2UsJ2c_7lb_quic9raw_proxyNtB5_14RawStreamState11is_complete
FNDA:0,_RNvMs3_NtCsFtQQ2UsJ2c_7lb_quic9raw_proxyNtB5_17BoundedDgramQueue3len
FNDA:46,_RNvMs3_NtCsFtQQ2UsJ2c_7lb_quic9raw_proxyNtB5_17BoundedDgramQueue3new
FNDA:34883,_RNvMs3_NtCsFtQQ2UsJ2c_7lb_quic9raw_proxyNtB5_17BoundedDgramQueue4push
FNDA:188744,_RNvMs3_NtCsFtQQ2UsJ2c_7lb_quic9raw_proxyNtB5_17BoundedDgramQueue5front
FNDA:10852,_RNvMs3_NtCsFtQQ2UsJ2c_7lb_quic9raw_proxyNtB5_17BoundedDgramQueue7dropped
FNDA:38406,_RNvMs3_NtCsFtQQ2UsJ2c_7lb_quic9raw_proxyNtB5_17BoundedDgramQueue8is_empty
FNDA:5942,_RNvMs3_NtCsFtQQ2UsJ2c_7lb_quic9raw_proxyNtB5_17BoundedDgramQueue9pop_front
FNDA:0,_RNvMs4_NtCsFtQQ2UsJ2c_7lb_quic9raw_proxyNtB5_9Direction6as_str
FNDA:23,_RNvMs_NtCsFtQQ2UsJ2c_7lb_quic9raw_proxyNtB4_15ActiveConnGuard3new
FNDA:91401,_RNvNtCsFtQQ2UsJ2c_7lb_quic9raw_proxy13relay_streams
FNDA:23,_RNvNtCsFtQQ2UsJ2c_7lb_quic9raw_proxy13run_dual_pump
FNDA:46,_RNvNtCsFtQQ2UsJ2c_7lb_quic9raw_proxy14graceful_close
FNDA:182802,_RNvNtCsFtQQ2UsJ2c_7lb_quic9raw_proxy14pump_dgram_dir
FNDA:46201,_RNvNtCsFtQQ2UsJ2c_7lb_quic9raw_proxy15admit_or_refuse
FNDA:91401,_RNvNtCsFtQQ2UsJ2c_7lb_quic9raw_proxy15relay_datagrams
FNDA:0,_RNvNtCsFtQQ2UsJ2c_7lb_quic9raw_proxy19run_raw_proxy_actor
FNDA:23,_RNvNtCsFtQQ2UsJ2c_7lb_quic9raw_proxy25run_raw_proxy_actor_inner
FNDA:23,_RNvNtCsFtQQ2UsJ2c_7lb_quic9raw_proxy27drive_client_to_established
FNDA:23,_RNvNtCsFtQQ2UsJ2c_7lb_quic9raw_proxy28run_raw_proxy_actor_for_test
FNDA:151194,_RNvNtCsFtQQ2UsJ2c_7lb_quic9raw_proxy8pump_dir
FNDA:1,_RNvXNtCsFtQQ2UsJ2c_7lb_quic9raw_proxyNtB2_10RawBackendNtNtCs2va5m0jqTTM_4core3fmt5Debug3fmt
FNDA:23,_RNvXs0_NtCsFtQQ2UsJ2c_7lb_quic9raw_proxyNtB5_15ActiveConnGuardNtNtNtCs2va5m0jqTTM_4core3ops4drop4Drop4drop
FNDA:0,_RNCNvNtCsFtQQ2UsJ2c_7lb_quic9raw_proxy28run_raw_proxy_actor_for_test0B5_
FNDA:0,_RNCNvNtCsiNLkn7P4XgI_7lb_quic9raw_proxy28run_raw_proxy_actor_for_test0B5_
FNDA:0,_RNvNtCsiNLkn7P4XgI_7lb_quic9raw_proxy28run_raw_proxy_actor_for_test
FNDA:0,_RNvXNtCsiNLkn7P4XgI_7lb_quic9raw_proxyNtB2_10RawBackendNtNtCs2va5m0jqTTM_4core3fmt5Debug3fmt
FNDA:2,_RNCNvNtNtCsiNLkn7P4XgI_7lb_quic9raw_proxy5tests32src_server_with_fin_only_stream00B7_
FNDA:1,_RNCNvNtNtCsiNLkn7P4XgI_7lb_quic9raw_proxy5tests35src_server_with_payload_fin_stream00B7_
FNDA:6,_RNCNvNtNtCsiNLkn7P4XgI_7lb_quic9raw_proxy5tests9gen_certs0B7_
FNDA:5,_RNCNvNtNtCsiNLkn7P4XgI_7lb_quic9raw_proxy5testss_32dgram_queue_preserves_fifo_order0B7_
FNDA:41,_RNCNvNtNtCsiNLkn7P4XgI_7lb_quic9raw_proxy5testss_40dgram_queue_drop_newest_negative_control0B7_
FNDA:10240,_RNCNvNtNtCsiNLkn7P4XgI_7lb_quic9raw_proxy5testss_46post_fin_short_write_reread_does_not_drop_tail0B7_
FNDA:50000,_RNCNvNtNtCsiNLkn7P4XgI_7lb_quic9raw_proxy5testss_53dgram_queue_preserves_binary_and_zero_length_verbatim0B7_
FNDA:2,_RNvNtNtCsiNLkn7P4XgI_7lb_quic9raw_proxy5tests10dgram_pair
FNDA:20,_RNvNtNtCsiNLkn7P4XgI_7lb_quic9raw_proxy5tests11random_scid
FNDA:9,_RNvNtNtCsiNLkn7P4XgI_7lb_quic9raw_proxy5tests13client_config
FNDA:8,_RNvNtNtCsiNLkn7P4XgI_7lb_quic9raw_proxy5tests13server_config
FNDA:10,_RNvNtNtCsiNLkn7P4XgI_7lb_quic9raw_proxy5tests14handshake_pair
FNDA:3,_RNvNtNtCsiNLkn7P4XgI_7lb_quic9raw_proxy5tests16established_pair
FNDA:1,_RNvNtNtCsiNLkn7P4XgI_7lb_quic9raw_proxy5tests22over_cap_client_config
FNDA:1,_RNvNtNtCsiNLkn7P4XgI_7lb_quic9raw_proxy5tests22over_cap_server_config
FNDA:1,_RNvNtNtCsiNLkn7P4XgI_7lb_quic9raw_proxy5tests30server_with_n_readable_streams
FNDA:2,_RNvNtNtCsiNLkn7P4XgI_7lb_quic9raw_proxy5tests32src_server_with_fin_only_stream0
FNDA:1,_RNvNtNtCsiNLkn7P4XgI_7lb_quic9raw_proxy5tests33established_pair_small_dst_window
FNDA:1,_RNvNtNtCsiNLkn7P4XgI_7lb_quic9raw_proxy5tests33server_config_small_stream_window
FNDA:1,_RNvNtNtCsiNLkn7P4XgI_7lb_quic9raw_proxy5tests35src_server_with_payload_fin_stream0
FNDA:4,_RNvNtNtCsiNLkn7P4XgI_7lb_quic9raw_proxy5tests5addrs
FNDA:6,_RNvNtNtCsiNLkn7P4XgI_7lb_quic9raw_proxy5tests9gen_certs
FNDA:30,_RNvNtNtCsiNLkn7P4XgI_7lb_quic9raw_proxy5tests9pump_once
FNDA:1,_RNvNtNtCsiNLkn7P4XgI_7lb_quic9raw_proxy5testss_32dgram_queue_preserves_fifo_order
FNDA:1,_RNvNtNtCsiNLkn7P4XgI_7lb_quic9raw_proxy5testss_39fin_only_stream_limit_does_not_drop_fin
FNDA:1,_RNvNtNtCsiNLkn7P4XgI_7lb_quic9raw_proxy5testss_40dgram_queue_drop_newest_negative_control
FNDA:1,_RNvNtNtCsiNLkn7P4XgI_7lb_quic9raw_proxy5testss_46dgram_queue_cap_constant_is_documented_default
FNDA:1,_RNvNtNtCsiNLkn7P4XgI_7lb_quic9raw_proxy5testss_46post_fin_short_write_reread_does_not_drop_tail
FNDA:1,_RNvNtNtCsiNLkn7P4XgI_7lb_quic9raw_proxy5testss_47fin_only_delivered_when_stream_credit_available
FNDA:1,_RNvNtNtCsiNLkn7P4XgI_7lb_quic9raw_proxy5testss_48admit_or_refuse_keeps_tracked_refuses_new_at_cap
FNDA:1,_RNvNtNtCsiNLkn7P4XgI_7lb_quic9raw_proxy5testss_48max_relay_streams_constant_is_documented_default
FNDA:1,_RNvNtNtCsiNLkn7P4XgI_7lb_quic9raw_proxy5testss_48pump_dgram_dir_invalid_state_drains_and_disables
FNDA:1,_RNvNtNtCsiNLkn7P4XgI_7lb_quic9raw_proxy5testss_51pump_dgram_dir_buffer_too_short_drops_one_continues
FNDA:1,_RNvNtNtCsiNLkn7P4XgI_7lb_quic9raw_proxy5testss_52relay_table_clamped_to_max_relay_streams_under_flood
FNDA:1,_RNvNtNtCsiNLkn7P4XgI_7lb_quic9raw_proxy5testss_53dgram_queue_preserves_binary_and_zero_length_verbatim
FNDA:6,_RNvXNtNtCsiNLkn7P4XgI_7lb_quic9raw_proxy5testsNtB2_9TestCertsNtNtNtCs2va5m0jqTTM_4core3ops4drop4Drop4drop
FNDA:0,_RNCNvMs_NtCsiNLkn7P4XgI_7lb_quic9raw_proxyNtB6_15ActiveConnGuard3new0B8_
FNDA:1024,_RNCNvNtCsiNLkn7P4XgI_7lb_quic9raw_proxy13relay_streams0B5_
FNDA:0,_RNCNvNtCsiNLkn7P4XgI_7lb_quic9raw_proxy13run_dual_pump0B5_
FNDA:0,_RNCNvNtCsiNLkn7P4XgI_7lb_quic9raw_proxy14graceful_close0B5_
FNDA:0,_RNCNvNtCsiNLkn7P4XgI_7lb_quic9raw_proxy19run_raw_proxy_actor0B5_
FNDA:0,_RNCNvNtCsiNLkn7P4XgI_7lb_quic9raw_proxy25run_raw_proxy_actor_inner0B5_
FNDA:0,_RNCNvNtCsiNLkn7P4XgI_7lb_quic9raw_proxy27drive_client_to_established0B5_
FNDA:0,_RNvMs1_NtCsiNLkn7P4XgI_7lb_quic9raw_proxyNtB5_9RelayHalf16propagate_cancel
FNDA:1024,_RNvMs2_NtCsiNLkn7P4XgI_7lb_quic9raw_proxyNtB5_14RawStreamState11is_complete
FNDA:7,_RNvMs3_NtCsiNLkn7P4XgI_7lb_quic9raw_proxyNtB5_17BoundedDgramQueue3len
FNDA:6,_RNvMs3_NtCsiNLkn7P4XgI_7lb_quic9raw_proxyNtB5_17BoundedDgramQueue3new
FNDA:1064,_RNvMs3_NtCsiNLkn7P4XgI_7lb_quic9raw_proxyNtB5_17BoundedDgramQueue4push
FNDA:9,_RNvMs3_NtCsiNLkn7P4XgI_7lb_quic9raw_proxyNtB5_17BoundedDgramQueue5front
FNDA:7,_RNvMs3_NtCsiNLkn7P4XgI_7lb_quic9raw_proxyNtB5_17BoundedDgramQueue7dropped
FNDA:3,_RNvMs3_NtCsiNLkn7P4XgI_7lb_quic9raw_proxyNtB5_17BoundedDgramQueue8is_empty
FNDA:32,_RNvMs3_NtCsiNLkn7P4XgI_7lb_quic9raw_proxyNtB5_17BoundedDgramQueue9pop_front
FNDA:0,_RNvMs4_NtCsiNLkn7P4XgI_7lb_quic9raw_proxyNtB5_9Direction6as_str
FNDA:0,_RNvMs_NtCsiNLkn7P4XgI_7lb_quic9raw_proxyNtB4_15ActiveConnGuard3new
FNDA:4,_RNvNtCsiNLkn7P4XgI_7lb_quic9raw_proxy13relay_streams
FNDA:0,_RNvNtCsiNLkn7P4XgI_7lb_quic9raw_proxy13run_dual_pump
FNDA:0,_RNvNtCsiNLkn7P4XgI_7lb_quic9raw_proxy14graceful_close
FNDA:2,_RNvNtCsiNLkn7P4XgI_7lb_quic9raw_proxy14pump_dgram_dir
FNDA:770,_RNvNtCsiNLkn7P4XgI_7lb_quic9raw_proxy15admit_or_refuse
FNDA:0,_RNvNtCsiNLkn7P4XgI_7lb_quic9raw_proxy15relay_datagrams
FNDA:0,_RNvNtCsiNLkn7P4XgI_7lb_quic9raw_proxy19run_raw_proxy_actor
FNDA:0,_RNvNtCsiNLkn7P4XgI_7lb_quic9raw_proxy25run_raw_proxy_actor_inner
FNDA:0,_RNvNtCsiNLkn7P4XgI_7lb_quic9raw_proxy27drive_client_to_established
FNDA:2055,_RNvNtCsiNLkn7P4XgI_7lb_quic9raw_proxy8pump_dir
FNDA:0,_RNvXs0_NtCsiNLkn7P4XgI_7lb_quic9raw_proxyNtB5_15ActiveConnGuardNtNtNtCs2va5m0jqTTM_4core3ops4drop4Drop4drop
FNDA:1,_RNCNvNtCsFtQQ2UsJ2c_7lb_quic9raw_proxy28run_raw_proxy_actor_for_test0Cs61jC8GWqg32_22s16_b1_two_connections
FNDA:1,_RNCNvNtCsFtQQ2UsJ2c_7lb_quic9raw_proxy28run_raw_proxy_actor_for_test0CsgXAhEGvYvo9_19s16_b2_backpressure
FNDA:1,_RNCNvNtCsFtQQ2UsJ2c_7lb_quic9raw_proxy28run_raw_proxy_actor_for_test0Csfq423e0pRhc_18s16_b2_multistream
FNDA:1,_RNCNvNtCsFtQQ2UsJ2c_7lb_quic9raw_proxy28run_raw_proxy_actor_for_test0CsNR5aDZ9uc8_20s16_b2_reset_not_fin
FNDA:4,_RNCNvNtCsFtQQ2UsJ2c_7lb_quic9raw_proxy28run_raw_proxy_actor_for_test0Csbq62kL21E90_25s16_b2_stream_relay_smoke
FNDA:1,_RNCNvNtCsFtQQ2UsJ2c_7lb_quic9raw_proxy28run_raw_proxy_actor_for_test0Cs33odxjkFt5k_30s16_b3_reset_propagation_smoke
FNDA:4,_RNCNvNtCsFtQQ2UsJ2c_7lb_quic9raw_proxy28run_raw_proxy_actor_for_test0Csh7L8uiD84aw_31s16_b3_reset_propagation_verify
FNDA:1,_RNCNvNtCsFtQQ2UsJ2c_7lb_quic9raw_proxy28run_raw_proxy_actor_for_test0CseAxdOZpizRn_27s19_b4_datagram_relay_smoke
FNDA:3,_RNCNvNtCsFtQQ2UsJ2c_7lb_quic9raw_proxy28run_raw_proxy_actor_for_test0Cs5RdxBO3GYU9_22s19_b4_datagram_verify
FNDA:1,_RNCNvNtCsFtQQ2UsJ2c_7lb_quic9raw_proxy28run_raw_proxy_actor_for_test0Csg6UW6aacuo2_19s19_b5_stream_flood
FNDA:1,_RNCNvNtCsFtQQ2UsJ2c_7lb_quic9raw_proxy28run_raw_proxy_actor_for_test0CshVct4aTSqII_13s19_b5_verify
FNDA:3,_RNCNvNtCsFtQQ2UsJ2c_7lb_quic9raw_proxy28run_raw_proxy_actor_for_test0Csa40nHgj9iN1_25s19_b6_metrics_nonvacuous
FNDA:1,_RNCNvNtCsFtQQ2UsJ2c_7lb_quic9raw_proxy28run_raw_proxy_actor_for_test0CseESjNOePAF4_22s19_b6_two_connections
FNF:68
FNH:65
DA:148,1
DA:149,1
DA:150,1
DA:151,1
DA:152,1
DA:153,1
DA:154,1
DA:155,1
DA:197,0
DA:198,0
DA:199,0
DA:200,0
DA:201,0
DA:204,0
DA:207,0
DA:221,23
DA:222,23
DA:223,23
DA:229,23
DA:233,23
DA:234,0
DA:235,0
DA:236,0
DA:239,23
DA:246,23
DA:247,23
DA:248,23
DA:249,23
DA:250,23
DA:251,23
DA:252,23
DA:253,23
DA:254,23
DA:257,0
DA:258,0
DA:259,0
DA:260,0
DA:261,23
DA:262,23
DA:263,23
DA:264,23
DA:265,23
DA:266,23
DA:267,23
DA:268,23
DA:269,0
DA:270,0
DA:271,0
DA:272,0
DA:280,23
DA:281,0
DA:283,23
DA:285,23
DA:286,23
DA:287,23
DA:288,23
DA:289,23
DA:290,23
DA:291,23
DA:295,0
DA:298,23
DA:299,23
DA:300,23
DA:301,23
DA:302,23
DA:303,23
DA:304,23
DA:305,23
DA:306,23
DA:307,23
DA:308,23
DA:309,23
DA:310,23
DA:311,23
DA:312,23
DA:313,23
DA:314,23
DA:315,3
DA:316,20
DA:317,23
DA:318,23
DA:319,23
DA:320,23
DA:321,23
DA:322,23
DA:323,23
DA:324,23
DA:325,23
DA:326,23
DA:327,23
DA:328,23
DA:329,23
DA:330,23
DA:331,23
DA:332,23
DA:333,23
DA:334,23
DA:335,23
DA:340,23
DA:341,23
DA:343,23
DA:344,23
DA:357,23
DA:358,23
DA:359,23
DA:360,3
DA:361,20
DA:362,23
DA:363,23
DA:367,23
DA:368,23
DA:369,3
DA:370,20
DA:371,23
DA:380,23
DA:381,23
DA:382,23
DA:383,23
DA:384,23
DA:385,23
DA:386,23
DA:387,23
DA:389,23
DA:390,23
DA:391,23
DA:392,0
DA:393,0
DA:394,0
DA:395,0
DA:396,0
DA:397,0
DA:398,0
DA:399,0
DA:400,0
DA:401,0
DA:402,0
DA:403,0
DA:404,0
DA:406,0
DA:407,0
DA:409,0
DA:410,0
DA:411,0
DA:412,0
DA:413,0
DA:414,0
DA:417,0
DA:418,0
DA:419,0
DA:422,23
DA:459,23
DA:460,23
DA:461,23
DA:462,23
DA:463,23
DA:464,23
DA:465,23
DA:466,23
DA:467,23
DA:468,23
DA:469,23
DA:470,23
DA:471,23
DA:472,23
DA:473,23
DA:474,23
DA:475,23
DA:476,23
DA:477,23
DA:478,23
DA:479,23
DA:480,23
DA:481,23
DA:482,23
DA:483,23
DA:484,23
DA:485,23
DA:486,23
DA:487,23
DA:488,23
DA:489,23
DA:490,23
DA:491,23
DA:492,23
DA:493,23
DA:494,23
DA:495,23
DA:496,23
DA:497,23
DA:498,23
DA:499,23
DA:500,23
DA:505,91424
DA:506,91424
DA:508,91424
DA:509,1
DA:510,91423
DA:511,91423
DA:512,91423
DA:513,91423
DA:514,91423
DA:515,91423
DA:516,91423
DA:517,91423
DA:518,91423
DA:519,91423
DA:520,91423
DA:521,91423
DA:522,91423
DA:523,91423
DA:524,86332
DA:525,86332
DA:526,86332
DA:528,91423
DA:530,91423
DA:531,22
DA:533,91423
DA:534,41732
DA:535,41732
DA:536,41732
DA:537,41732
DA:538,0
DA:541,91423
DA:542,43044
DA:543,43044
DA:544,43044
DA:545,43044
DA:546,43044
DA:547,43044
DA:548,0
DA:549,0
DA:553,0
DA:554,0
DA:558,91423
DA:559,6625
DA:560,6625
DA:561,91423
DA:562,0
DA:563,0
DA:572,91401
DA:573,91401
DA:574,91401
DA:575,91401
DA:576,91401
DA:577,91401
DA:578,91401
DA:579,91401
DA:580,91401
DA:581,91401
DA:582,91401
DA:583,91401
DA:584,91401
DA:585,91401
DA:586,91401
DA:587,91401
DA:588,91401
DA:597,91401
DA:599,5426
DA:600,5426
DA:601,5426
DA:602,5426
DA:603,5426
DA:604,5426
DA:605,162
DA:606,162
DA:607,5264
DA:608,85975
DA:610,23
DA:729,5
DA:730,5
DA:731,5
DA:732,5
DA:733,5
DA:734,5
DA:735,5
DA:736,5
DA:737,5
DA:738,5
DA:739,5
DA:740,5
DA:741,5
DA:742,0
DA:743,0
DA:744,0
DA:745,5
DA:746,5
DA:749,5
DA:750,0
DA:751,0
DA:752,0
DA:753,0
DA:754,0
DA:755,0
DA:756,0
DA:762,5
DA:763,5
DA:764,5
DA:765,5
DA:797,76621
DA:798,76621
DA:799,76621
DA:823,91405
DA:824,91405
DA:825,91405
DA:826,91405
DA:827,91405
DA:828,91405
DA:843,91405
DA:844,41304
DA:845,41304
DA:846,91405
DA:847,5409
DA:848,5409
DA:850,91405
DA:851,168026
DA:852,76621
DA:853,0
DA:856,76621
DA:857,76621
DA:858,76621
DA:859,76621
DA:860,76621
DA:861,76621
DA:862,76621
DA:863,76621
DA:864,76621
DA:865,76621
DA:866,76621
DA:867,76621
DA:868,76621
DA:869,76621
DA:870,76621
DA:878,91405
DA:879,91405
DA:890,46971
DA:891,46971
DA:894,45168
DA:895,1803
DA:896,1803
DA:897,1546
DA:898,1546
DA:904,257
DA:906,0
DA:907,0
DA:908,0
DA:909,0
DA:912,46971
DA:1001,52
DA:1002,52
DA:1003,52
DA:1004,52
DA:1005,52
DA:1006,52
DA:1007,52
DA:1016,35947
DA:1017,35947
DA:1021,26903
DA:1022,26903
DA:1024,9044
DA:1025,9044
DA:1027,35947
DA:1033,188753
DA:1034,188753
DA:1035,188753
DA:1038,5974
DA:1039,5974
DA:1040,5974
DA:1043,7
DA:1044,7
DA:1045,7
DA:1048,38409
DA:1049,38409
DA:1050,38409
DA:1055,10859
DA:1056,10859
DA:1057,10859
DA:1069,91401
DA:1070,91401
DA:1071,91401
DA:1072,91401
DA:1073,91401
DA:1074,91401
DA:1075,91401
DA:1076,91401
DA:1077,91401
DA:1078,91401
DA:1079,91401
DA:1111,182804
DA:1112,182804
DA:1113,182804
DA:1114,182804
DA:1115,182804
DA:1116,182804
DA:1117,182804
DA:1118,182804
DA:1119,182804
DA:1121,217687
DA:1122,34883
DA:1123,34883
DA:1124,34883
DA:1125,34883
DA:1126,34883
DA:1127,34883
DA:1128,26893
DA:1129,0
DA:1130,0
DA:1131,0
DA:1133,7990
DA:1135,182804
DA:1138,0
DA:1139,0
DA:1140,0
DA:1141,0
DA:1142,0
DA:1144,0
DA:1146,0
DA:1147,0
DA:1148,0
DA:1149,0
DA:1151,0
DA:1157,188748
DA:1158,34169
DA:1159,5943
DA:1160,5943
DA:1161,5943
DA:1162,5943
DA:1165,28224
DA:1170,1
DA:1171,1
DA:1172,1
DA:1173,0
DA:1174,0
DA:1175,0
DA:1183,1
DA:1184,4
DA:1185,1
DA:1186,1
DA:1187,0
DA:1188,0
DA:1189,0
DA:1190,0
DA:1192,1
DA:1194,0
DA:1195,0
DA:1196,0
DA:1197,0
DA:1198,0
DA:1199,0
DA:1200,0
DA:1201,0
DA:1202,0
DA:1204,0
DA:1208,182804
DA:1219,0
DA:1220,0
DA:1221,0
DA:1222,0
DA:1224,0
DA:1275,153249
DA:1276,153249
DA:1277,153249
DA:1278,153249
DA:1279,153249
DA:1280,153249
DA:1281,153249
DA:1282,153249
DA:1283,25215
DA:1284,128034
DA:1296,136202
DA:1297,92270
DA:1298,92270
DA:1299,92270
DA:1300,92270
DA:1301,92270
DA:1302,10478
DA:1303,10478
DA:1304,10478
DA:1305,2310
DA:1306,8168
DA:1307,10478
DA:1310,2310
DA:1311,8168
DA:1313,81534
DA:1321,4
DA:1322,4
DA:1325,0
DA:1326,0
DA:1327,0
DA:1329,4
DA:1330,4
DA:1341,254
DA:1342,254
DA:1343,0
DA:1344,0
DA:1345,0
DA:1347,254
DA:1348,254
DA:1349,254
DA:1355,127776
DA:1356,134200
DA:1357,51856
DA:1358,51856
DA:1359,41015
DA:1360,9832
DA:1361,9832
DA:1362,9832
DA:1364,3408
DA:1365,6424
DA:1371,1008
DA:1373,0
DA:1374,0
DA:1376,1008
DA:1385,1
DA:1386,1
DA:1389,0
DA:1390,0
DA:1391,0
DA:1393,1
DA:1394,1
DA:1402,0
DA:1403,0
DA:1404,0
DA:1405,0
DA:1406,0
DA:1408,0
DA:1409,0
DA:1410,0
DA:1416,127775
DA:1417,9832
DA:1418,117943
DA:1421,127775
DA:1422,2058
DA:1423,2057
DA:1424,2057
DA:1425,2057
DA:1426,2057
DA:1437,1
DA:1439,0
DA:1440,0
DA:1448,0
DA:1449,0
DA:1452,0
DA:1453,0
DA:1455,0
DA:1457,0
DA:1458,0
DA:1459,0
DA:1460,0
DA:1462,0
DA:1465,125717
DA:1466,153249
DA:1480,46
DA:1481,46
DA:1482,46
DA:1483,0
DA:1485,46
DA:1487,91
DA:1488,91
DA:1489,46
DA:1490,45
DA:1491,45
DA:1492,0
DA:1493,0
DA:1494,45
DA:1495,45
DA:1496,45
DA:1497,45
DA:1498,45
DA:1499,45
DA:1501,46
DA:1542,6
DA:1543,6
DA:1544,6
DA:1547,6
DA:1548,6
DA:1549,6
DA:1550,6
DA:1551,6
DA:1552,6
DA:1553,6
DA:1554,6
DA:1555,6
DA:1556,6
DA:1557,6
DA:1558,6
DA:1559,6
DA:1560,6
DA:1561,6
DA:1562,6
DA:1563,6
DA:1564,6
DA:1565,6
DA:1566,6
DA:1567,6
DA:1568,6
DA:1569,6
DA:1570,6
DA:1571,6
DA:1572,6
DA:1573,6
DA:1574,6
DA:1575,6
DA:1576,6
DA:1577,6
DA:1579,20
DA:1581,20
DA:1582,20
DA:1583,20
DA:1584,20
DA:1590,8
DA:1591,8
DA:1592,8
DA:1593,8
DA:1594,8
DA:1595,8
DA:1596,8
DA:1597,8
DA:1598,8
DA:1599,8
DA:1600,8
DA:1601,8
DA:1602,8
DA:1603,8
DA:1604,8
DA:1605,8
DA:1606,8
DA:1607,8
DA:1608,8
DA:1612,9
DA:1613,9
DA:1614,9
DA:1615,9
DA:1616,9
DA:1617,9
DA:1618,9
DA:1619,9
DA:1620,9
DA:1621,9
DA:1622,9
DA:1623,9
DA:1624,9
DA:1625,9
DA:1626,9
DA:1627,9
DA:1628,9
DA:1629,9
DA:1634,10
DA:1635,10
DA:1636,10
DA:1637,10
DA:1638,10
DA:1639,10
DA:1640,10
DA:1641,30
DA:1642,30
DA:1643,10
DA:1644,20
DA:1647,40
DA:1648,20
DA:1649,20
DA:1650,20
DA:1651,20
DA:1652,20
DA:1653,20
DA:1654,20
DA:1655,20
DA:1656,20
DA:1657,0
DA:1662,40
DA:1663,20
DA:1664,20
DA:1665,20
DA:1666,20
DA:1667,20
DA:1668,20
DA:1669,20
DA:1670,20
DA:1671,20
DA:1672,0
DA:1676,0
DA:1677,0
DA:1678,0
DA:1680,10
DA:1685,30
DA:1686,30
DA:1687,30
DA:1688,30
DA:1689,30
DA:1690,30
DA:1691,30
DA:1693,373
DA:1694,343
DA:1695,343
DA:1696,343
DA:1697,343
DA:1698,343
DA:1699,343
DA:1700,343
DA:1701,30
DA:1702,0
DA:1706,42
DA:1707,12
DA:1708,12
DA:1709,12
DA:1710,12
DA:1711,12
DA:1712,12
DA:1713,12
DA:1714,30
DA:1715,0
DA:1718,30
DA:1720,4
DA:1721,4
DA:1722,4
DA:1723,4
DA:1724,4
DA:1725,4
DA:1727,3
DA:1728,3
DA:1729,3
DA:1730,3
DA:1731,3
DA:1732,3
DA:1733,3
DA:1734,3
DA:1735,3
DA:1736,3
DA:1737,3
DA:1738,3
DA:1739,3
DA:1740,3
DA:1741,3
DA:1742,3
DA:1743,3
DA:1744,3
DA:1745,3
DA:1746,3
DA:1747,3
DA:1748,3
DA:1749,3
DA:1750,3
DA:1751,3
DA:1752,3
DA:1753,3
DA:1754,3
DA:1755,3
DA:1756,3
DA:1757,3
DA:1758,3
DA:1759,3
DA:1767,2
DA:1768,2
DA:1769,2
DA:1770,2
DA:1771,2
DA:1772,2
DA:1773,2
DA:1774,2
DA:1775,2
DA:1776,2
DA:1777,2
DA:1778,2
DA:1779,2
DA:1780,2
DA:1781,2
DA:1782,2
DA:1783,2
DA:1784,2
DA:1785,2
DA:1786,2
DA:1787,2
DA:1788,2
DA:1789,2
DA:1790,2
DA:1791,2
DA:1792,2
DA:1793,2
DA:1794,2
DA:1795,2
DA:1796,2
DA:1797,2
DA:1798,2
DA:1799,0
DA:1801,2
DA:1802,2
DA:1812,1
DA:1813,1
DA:1814,1
DA:1815,1
DA:1816,1
DA:1817,1
DA:1818,1
DA:1819,1
DA:1820,1
DA:1822,0
DA:1825,1
DA:1826,1
DA:1827,1
DA:1828,1
DA:1829,1
DA:1830,1
DA:1831,1
DA:1832,1
DA:1833,1
DA:1834,1
DA:1835,1
DA:1836,1
DA:1837,0
DA:1840,1
DA:1841,1
DA:1842,0
DA:1843,0
DA:1845,1
DA:1846,1
DA:1847,0
DA:1849,1
DA:1857,1
DA:1858,1
DA:1859,1
DA:1860,1
DA:1861,1
DA:1862,1
DA:1863,1
DA:1864,0
DA:1867,1
DA:1868,1
DA:1869,1
DA:1870,1
DA:1871,1
DA:1872,1
DA:1873,1
DA:1874,1
DA:1875,1
DA:1876,1
DA:1877,1
DA:1878,0
DA:1884,1
DA:1885,1
DA:1886,1
DA:1887,0
DA:1889,1
DA:1902,1
DA:1903,1
DA:1904,1
DA:1905,1
DA:1906,1
DA:1907,1
DA:1908,1
DA:1909,1
DA:1910,1
DA:1911,1
DA:1912,1
DA:1913,1
DA:1914,1
DA:1915,1
DA:1916,1
DA:1917,1
DA:1918,1
DA:1919,1
DA:1920,1
DA:1921,1
DA:1922,1
DA:1923,1
DA:1924,1
DA:1925,1
DA:1930,1
DA:1931,1
DA:1932,1
DA:1933,1
DA:1934,1
DA:1935,1
DA:1936,1
DA:1937,1
DA:1938,1
DA:1939,1
DA:1940,1
DA:1941,1
DA:1942,1
DA:1943,1
DA:1944,1
DA:1945,1
DA:1946,1
DA:1947,1
DA:1948,1
DA:1949,1
DA:1950,1
DA:1951,1
DA:1952,1
DA:1953,1
DA:1954,1
DA:1955,1
DA:1956,1
DA:1957,1
DA:1958,1
DA:1959,1
DA:1960,1
DA:1961,1
DA:1962,1
DA:1972,1
DA:1973,1
DA:1974,1
DA:1975,1
DA:1976,1
DA:1977,1
DA:1978,1
DA:1979,1
DA:1980,1
DA:1981,1
DA:1982,1
DA:1983,1
DA:1984,1
DA:1985,1
DA:1986,1
DA:1987,1
DA:1988,1
DA:1989,1
DA:1990,1
DA:1991,1
DA:1992,1
DA:1993,1
DA:1994,1
DA:1995,1
DA:1996,1
DA:1997,1
DA:1998,1
DA:1999,1
DA:2000,1
DA:2001,1
DA:2002,1
DA:2003,1
DA:2004,1
DA:2005,0
DA:2007,1
DA:2008,1
DA:2009,1
DA:2010,0
DA:2012,1
DA:2013,1
DA:2039,1
DA:2040,1
DA:2041,1
DA:2042,1
DA:2043,1
DA:2044,1
DA:2045,1
DA:2046,1
DA:2047,1
DA:2048,10240
DA:2049,1
DA:2050,1
DA:2051,1
DA:2052,1
DA:2053,1
DA:2054,1
DA:2055,1
DA:2056,1
DA:2057,1
DA:2058,1
DA:2059,1
DA:2060,1
DA:2061,1
DA:2062,1
DA:2063,1
DA:2064,1
DA:2065,1
DA:2066,1
DA:2067,1
DA:2068,1
DA:2069,1
DA:2070,1
DA:2071,1
DA:2072,1
DA:2073,1
DA:2074,1
DA:2075,1
DA:2076,1
DA:2077,0
DA:2079,1
DA:2080,1
DA:2081,0
DA:2082,0
DA:2084,1
DA:2085,1
DA:2086,0
DA:2088,1
DA:2089,1
DA:2090,0
DA:2100,1
DA:2101,1
DA:2102,9
DA:2103,8
DA:2104,8
DA:2107,1
DA:2108,2
DA:2110,9
DA:2111,8
DA:2112,8
DA:2115,1
DA:2116,1
DA:2117,0
DA:2118,0
DA:2125,1
DA:2126,1
DA:2127,1
DA:2128,1
DA:2129,1
DA:2130,1
DA:2131,1
DA:2132,1
DA:2133,1
DA:2134,0
DA:2135,0
DA:2144,1
DA:2145,1
DA:2146,1
DA:2147,3
DA:2149,3
DA:2152,6
DA:2153,3
DA:2154,3
DA:2155,3
DA:2156,3
DA:2157,3
DA:2158,0
DA:2162,3
DA:2163,3
DA:2164,3
DA:2165,3
DA:2166,3
DA:2167,3
DA:2168,3
DA:2169,3
DA:2170,3
DA:2171,3
DA:2173,1
DA:2174,1
DA:2175,2
DA:2178,1
DA:2180,1
DA:2181,0
DA:2182,0
DA:2183,0
DA:2184,0
DA:2185,1
DA:2186,0
DA:2191,1
DA:2192,1
DA:2193,0
DA:2194,0
DA:2196,1
DA:2197,1
DA:2198,0
DA:2202,1
DA:2203,1
DA:2204,1
DA:2205,0
DA:2206,0
DA:2207,0
DA:2208,0
DA:2210,1
DA:2212,0
DA:2214,1
DA:2215,1
DA:2216,0
DA:2217,0
DA:2219,1
DA:2229,1
DA:2230,1
DA:2231,5
DA:2232,6
DA:2233,5
DA:2234,5
DA:2236,0
DA:2239,1
DA:2240,1
DA:2243,6
DA:2244,5
DA:2245,5
DA:2246,5
DA:2247,0
DA:2249,5
DA:2251,1
DA:2252,1
DA:2253,1
DA:2261,1
DA:2264,1
DA:2265,1
DA:2266,1
DA:2267,1
DA:2268,41
DA:2270,25
DA:2271,25
DA:2272,25
DA:2273,16
DA:2276,0
DA:2279,9
DA:2282,0
DA:2288,1
DA:2290,1
DA:2291,1
DA:2293,0
DA:2298,17
DA:2299,16
DA:2300,16
DA:2301,16
DA:2302,0
DA:2305,1
DA:2306,1
DA:2313,1
DA:2314,1
DA:2315,1
DA:2316,1
DA:2317,1
DA:2318,1
DA:2319,1
DA:2320,50000
DA:2321,1
DA:2323,4
DA:2324,4
DA:2327,1
DA:2328,1
DA:2329,1
DA:2330,0
DA:2332,1
DA:2333,1
DA:2334,1
DA:2335,0
DA:2337,1
DA:2338,1
DA:2339,1
DA:2340,0
DA:2342,1
DA:2343,1
DA:2344,1
DA:2345,0
DA:2347,1
DA:2348,1
DA:2353,1
DA:2354,1
DA:2356,0
DA:2360,1
DA:2361,1025
DA:2362,1024
DA:2364,1
DA:2365,1
DA:2366,1
DA:2368,0
DA:2370,1
DA:2371,1
DA:2388,1
DA:2389,1
DA:2390,1
DA:2391,1
DA:2392,1
DA:2393,1
DA:2394,1
DA:2395,1
DA:2396,1
DA:2397,1
DA:2398,1
DA:2399,1
DA:2400,1
DA:2401,1
DA:2402,1
DA:2403,1
DA:2404,1
DA:2405,1
DA:2406,1
DA:2408,1
DA:2409,1
DA:2410,1
DA:2411,1
DA:2412,1
DA:2413,1
DA:2414,1
DA:2415,1
DA:2416,1
DA:2417,1
DA:2418,1
DA:2419,1
DA:2420,1
DA:2421,1
DA:2422,1
DA:2423,1
DA:2424,1
DA:2425,1
DA:2433,1
DA:2434,1
DA:2435,1
DA:2436,1
DA:2437,1
DA:2438,1
DA:2439,1
DA:2440,0
DA:2442,1
DA:2443,1
DA:2444,1
DA:2445,1
DA:2446,1
DA:2447,1
DA:2448,1
DA:2449,1
DA:2450,1
DA:2451,1
DA:2452,1
DA:2453,1
DA:2454,1
DA:2455,1
DA:2456,1
DA:2457,1
DA:2458,1
DA:2459,1
DA:2460,1
DA:2461,1
DA:2462,1
DA:2463,1
DA:2464,1
DA:2467,320
DA:2468,320
DA:2469,320
DA:2470,320
DA:2473,2
DA:2474,2
DA:2475,2
DA:2476,2
DA:2477,1
DA:2478,1
DA:2480,1
DA:2481,1
DA:2482,1
DA:2483,0
DA:2485,1
DA:2486,1
DA:2501,1
DA:2502,1
DA:2503,1
DA:2504,1
DA:2505,1
DA:2506,1
DA:2507,1
DA:2508,1
DA:2509,1
DA:2510,1
DA:2511,1
DA:2512,1
DA:2513,1
DA:2514,1
DA:2515,1
DA:2516,1
DA:2517,1
DA:2518,1
DA:2519,1
DA:2520,0
DA:2521,0
DA:2524,1
DA:2527,5
DA:2531,4
DA:2532,4
DA:2533,4
DA:2534,0
DA:2535,0
DA:2536,0
DA:2544,1
DA:2545,1
DA:2547,0
DA:2548,0
DA:2550,1
DA:2558,1
DA:2559,1
DA:2563,256
DA:2564,256
DA:2565,256
DA:2566,1
DA:2567,1
DA:2569,0
DA:2574,1
DA:2575,1
DA:2576,1
DA:2577,1
DA:2578,1
DA:2580,0
DA:2582,1
DA:2583,1
DA:2584,0
DA:2590,1
DA:2591,1
DA:2592,1
DA:2593,1
DA:2594,1
DA:2595,0
DA:2597,1
DA:2598,1
DA:2600,0
DA:2602,1
DA:2607,1
DA:2608,1
DA:2610,0
DA:2613,1
DA:2614,1
DA:2615,1
DA:2616,1
DA:2617,0
DA:2618,0
DA:2620,1
DA:2638,2
DA:2639,2
DA:2640,2
DA:2641,2
DA:2642,2
DA:2643,2
DA:2644,2
DA:2645,2
DA:2646,2
DA:2647,2
DA:2648,2
DA:2649,2
DA:2650,2
DA:2651,2
DA:2652,2
DA:2653,2
DA:2654,1
DA:2655,1
DA:2656,2
DA:2657,2
DA:2658,2
DA:2659,2
DA:2660,2
DA:2661,2
DA:2662,2
DA:2663,2
DA:2664,2
DA:2665,2
DA:2666,2
DA:2667,2
DA:2668,2
DA:2669,2
DA:2670,2
DA:2671,2
DA:2672,2
DA:2673,2
DA:2674,2
DA:2675,2
DA:2676,2
DA:2677,2
DA:2678,2
DA:2679,2
DA:2680,2
DA:2688,1
DA:2689,1
DA:2690,1
DA:2691,1
DA:2692,1
DA:2693,1
DA:2694,1
DA:2695,1
DA:2696,1
DA:2697,1
DA:2698,1
DA:2699,1
DA:2700,1
DA:2701,0
DA:2706,1
DA:2707,4
DA:2708,3
DA:2710,1
DA:2711,1
DA:2712,1
DA:2713,1
DA:2714,1
DA:2715,1
DA:2716,1
DA:2717,1
DA:2718,1
DA:2720,0
DA:2722,1
DA:2723,1
DA:2724,1
DA:2725,0
DA:2727,1
DA:2736,1
DA:2737,1
DA:2738,1
DA:2739,1
DA:2740,1
DA:2741,1
DA:2742,1
DA:2743,1
DA:2744,1
DA:2745,1
DA:2750,1
DA:2751,1
DA:2752,1
DA:2753,1
DA:2754,1
DA:2755,1
DA:2756,1
DA:2757,1
DA:2758,1
DA:2759,1
DA:2760,1
DA:2761,1
DA:2762,1
DA:2763,1
DA:2764,1
DA:2765,1
DA:2766,1
DA:2768,0
DA:2770,1
DA:2771,1
DA:2772,1
DA:2773,0
DA:2778,1
DA:2780,2
DA:2781,1
DA:2782,1
DA:2783,1
DA:2784,1
DA:2785,1
DA:2786,1
DA:2787,1
DA:2788,1
DA:2789,0
DA:2792,1
DA:2793,1
DA:2794,1
DA:2795,1
DA:2796,1
DA:2797,1
DA:2798,1
DA:2799,0
DA:2801,1
BRF:0
BRH:0
LF:1446
LH:1219
end_of_record
SF:/home/ubuntu/Code/ExpressGateway/crates/lb-quic/src/router.rs
FN:209,_RNCNCNvNtCsFtQQ2UsJ2c_7lb_quic6router15dispatch_packet00B7_
FN:285,_RNCNvNtCsFtQQ2UsJ2c_7lb_quic6router10send_retry0B5_
FN:141,_RNCNvNtCsFtQQ2UsJ2c_7lb_quic6router11router_main0B5_
FN:430,_RNCNvNtCsFtQQ2UsJ2c_7lb_quic6router14sample_conn_id0B5_
FN:186,_RNCNvNtCsFtQQ2UsJ2c_7lb_quic6router15dispatch_packet0B5_
FN:350,_RNCNvNtCsFtQQ2UsJ2c_7lb_quic6router20spawn_new_connection0B5_
FN:414,_RNCNvNtCsFtQQ2UsJ2c_7lb_quic6router20spawn_new_connections0_0B5_
FN:361,_RNCNvNtCsFtQQ2UsJ2c_7lb_quic6router20spawn_new_connections_0B5_
FN:133,_RNCNvNtCsFtQQ2UsJ2c_7lb_quic6router5spawn0B5_
FN:125,_RNvMNtCsFtQQ2UsJ2c_7lb_quic6routerNtB2_12RouterHandle4join
FN:280,_RNvNtCsFtQQ2UsJ2c_7lb_quic6router10send_retry
FN:141,_RNvNtCsFtQQ2UsJ2c_7lb_quic6router11router_main
FN:424,_RNvNtCsFtQQ2UsJ2c_7lb_quic6router14sample_conn_id
FN:180,_RNvNtCsFtQQ2UsJ2c_7lb_quic6router15dispatch_packet
FN:249,_RNvNtCsFtQQ2UsJ2c_7lb_quic6router16build_replay_key
FN:258,_RNvNtCsFtQQ2UsJ2c_7lb_quic6router16forward_to_actor
FN:316,_RNvNtCsFtQQ2UsJ2c_7lb_quic6router20spawn_new_connection
FN:132,_RNvNtCsFtQQ2UsJ2c_7lb_quic6router5spawn
FN:125,_RNCNvMNtCsFtQQ2UsJ2c_7lb_quic6routerNtB4_12RouterHandle4join0B6_
FN:125,_RNCNvMNtCsFtQQ2UsJ2c_7lb_quic6routerNtB4_12RouterHandle4join0CsgcQANSKc6CW_16h3_h1_bridge_e2e
FN:125,_RNCNvMNtCsFtQQ2UsJ2c_7lb_quic6routerNtB4_12RouterHandle4join0Cs4rke12yGnwN_21h3_h1_resp_stream_e2e
FN:125,_RNCNvMNtCsFtQQ2UsJ2c_7lb_quic6routerNtB4_12RouterHandle4join0Cs19teGkRmEuA_21h3_h1_stream_body_e2e
FN:125,_RNCNvMNtCsFtQQ2UsJ2c_7lb_quic6routerNtB4_12RouterHandle4join0Cs29XIsylJmqt_28h3_h1_stream_body_errors_e2e
FN:125,_RNCNvMNtCsFtQQ2UsJ2c_7lb_quic6routerNtB4_12RouterHandle4join0Cs8DW3fMZvlEK_23h3_h1_trailers_resp_e2e
FN:125,_RNCNvMNtCsFtQQ2UsJ2c_7lb_quic6routerNtB4_12RouterHandle4join0Csc0ucLUzKP1z_16h3_h2_stream_e2e
FN:125,_RNCNvMNtCsFtQQ2UsJ2c_7lb_quic6routerNtB4_12RouterHandle4join0Cs29MjELhVkYa_16h3_h3_stream_e2e
FN:209,_RNCNCNvNtCsiNLkn7P4XgI_7lb_quic6router15dispatch_packet00B7_
FN:125,_RNCNvMNtCsiNLkn7P4XgI_7lb_quic6routerNtB4_12RouterHandle4join0B6_
FN:285,_RNCNvNtCsiNLkn7P4XgI_7lb_quic6router10send_retry0B5_
FN:141,_RNCNvNtCsiNLkn7P4XgI_7lb_quic6router11router_main0B5_
FN:186,_RNCNvNtCsiNLkn7P4XgI_7lb_quic6router15dispatch_packet0B5_
FN:133,_RNCNvNtCsiNLkn7P4XgI_7lb_quic6router5spawn0B5_
FN:125,_RNvMNtCsiNLkn7P4XgI_7lb_quic6routerNtB2_12RouterHandle4join
FN:280,_RNvNtCsiNLkn7P4XgI_7lb_quic6router10send_retry
FN:141,_RNvNtCsiNLkn7P4XgI_7lb_quic6router11router_main
FN:180,_RNvNtCsiNLkn7P4XgI_7lb_quic6router15dispatch_packet
FN:249,_RNvNtCsiNLkn7P4XgI_7lb_quic6router16build_replay_key
FN:258,_RNvNtCsiNLkn7P4XgI_7lb_quic6router16forward_to_actor
FN:132,_RNvNtCsiNLkn7P4XgI_7lb_quic6router5spawn
FN:620,_RNCNCNvNtNtCsiNLkn7P4XgI_7lb_quic6router5tests27flood_server_config_factory00B9_
FN:622,_RNCNCNvNtNtCsiNLkn7P4XgI_7lb_quic6router5tests27flood_server_config_factory0s_0B9_
FN:489,_RNCNCNvNtNtCsiNLkn7P4XgI_7lb_quic6router5testss_37router_drops_initial_when_cap_reached00B9_
FN:616,_RNCNvNtNtCsiNLkn7P4XgI_7lb_quic6router5tests27flood_server_config_factory0B7_
FN:644,_RNCNvNtNtCsiNLkn7P4XgI_7lb_quic6router5tests9write_tmp0B7_
FN:472,_RNCNvNtNtCsiNLkn7P4XgI_7lb_quic6router5testss_37router_drops_initial_when_cap_reached0B7_
FN:694,_RNCNvNtNtCsiNLkn7P4XgI_7lb_quic6router5testss_46router_drops_flood_of_distinct_initials_at_cap0B7_
FN:659,_RNvNtNtCsiNLkn7P4XgI_7lb_quic6router5tests21mint_distinct_initial
FN:603,_RNvNtNtCsiNLkn7P4XgI_7lb_quic6router5tests27flood_server_config_factory
FN:638,_RNvNtNtCsiNLkn7P4XgI_7lb_quic6router5tests9write_tmp
FN:472,_RNvNtNtCsiNLkn7P4XgI_7lb_quic6router5testss_37router_drops_initial_when_cap_reached
FN:694,_RNvNtNtCsiNLkn7P4XgI_7lb_quic6router5testss_46router_drops_flood_of_distinct_initials_at_cap
FN:430,_RNCNvNtCsiNLkn7P4XgI_7lb_quic6router14sample_conn_id0B5_
FN:350,_RNCNvNtCsiNLkn7P4XgI_7lb_quic6router20spawn_new_connection0B5_
FN:414,_RNCNvNtCsiNLkn7P4XgI_7lb_quic6router20spawn_new_connections0_0B5_
FN:361,_RNCNvNtCsiNLkn7P4XgI_7lb_quic6router20spawn_new_connections_0B5_
FN:424,_RNvNtCsiNLkn7P4XgI_7lb_quic6router14sample_conn_id
FN:316,_RNvNtCsiNLkn7P4XgI_7lb_quic6router20spawn_new_connection
FN:125,_RNCNvMNtCsFtQQ2UsJ2c_7lb_quic6routerNtB4_12RouterHandle4join0Cs4UH0JsycgYR_18listener_lifecycle
FN:125,_RNCNvMNtCsFtQQ2UsJ2c_7lb_quic6routerNtB4_12RouterHandle4join0CsjxbL8hdICMn_18router_accept_path
FNDA:266,_RNCNCNvNtCsFtQQ2UsJ2c_7lb_quic6router15dispatch_packet00B7_
FNDA:133,_RNCNvNtCsFtQQ2UsJ2c_7lb_quic6router10send_retry0B5_
FNDA:76,_RNCNvNtCsFtQQ2UsJ2c_7lb_quic6router11router_main0B5_
FNDA:0,_RNCNvNtCsFtQQ2UsJ2c_7lb_quic6router14sample_conn_id0B5_
FNDA:195168,_RNCNvNtCsFtQQ2UsJ2c_7lb_quic6router15dispatch_packet0B5_
FNDA:0,_RNCNvNtCsFtQQ2UsJ2c_7lb_quic6router20spawn_new_connection0B5_
FNDA:133,_RNCNvNtCsFtQQ2UsJ2c_7lb_quic6router20spawn_new_connections0_0B5_
FNDA:0,_RNCNvNtCsFtQQ2UsJ2c_7lb_quic6router20spawn_new_connections_0B5_
FNDA:76,_RNCNvNtCsFtQQ2UsJ2c_7lb_quic6router5spawn0B5_
FNDA:76,_RNvMNtCsFtQQ2UsJ2c_7lb_quic6routerNtB2_12RouterHandle4join
FNDA:133,_RNvNtCsFtQQ2UsJ2c_7lb_quic6router10send_retry
FNDA:76,_RNvNtCsFtQQ2UsJ2c_7lb_quic6router11router_main
FNDA:266,_RNvNtCsFtQQ2UsJ2c_7lb_quic6router14sample_conn_id
FNDA:195168,_RNvNtCsFtQQ2UsJ2c_7lb_quic6router15dispatch_packet
FNDA:133,_RNvNtCsFtQQ2UsJ2c_7lb_quic6router16build_replay_key
FNDA:194902,_RNvNtCsFtQQ2UsJ2c_7lb_quic6router16forward_to_actor
FNDA:133,_RNvNtCsFtQQ2UsJ2c_7lb_quic6router20spawn_new_connection
FNDA:76,_RNvNtCsFtQQ2UsJ2c_7lb_quic6router5spawn
FNDA:0,_RNCNvMNtCsFtQQ2UsJ2c_7lb_quic6routerNtB4_12RouterHandle4join0B6_
FNDA:1,_RNCNvMNtCsFtQQ2UsJ2c_7lb_quic6routerNtB4_12RouterHandle4join0CsgcQANSKc6CW_16h3_h1_bridge_e2e
FNDA:24,_RNCNvMNtCsFtQQ2UsJ2c_7lb_quic6routerNtB4_12RouterHandle4join0Cs4rke12yGnwN_21h3_h1_resp_stream_e2e
FNDA:5,_RNCNvMNtCsFtQQ2UsJ2c_7lb_quic6routerNtB4_12RouterHandle4join0Cs19teGkRmEuA_21h3_h1_stream_body_e2e
FNDA:2,_RNCNvMNtCsFtQQ2UsJ2c_7lb_quic6routerNtB4_12RouterHandle4join0Cs29XIsylJmqt_28h3_h1_stream_body_errors_e2e
FNDA:2,_RNCNvMNtCsFtQQ2UsJ2c_7lb_quic6routerNtB4_12RouterHandle4join0Cs8DW3fMZvlEK_23h3_h1_trailers_resp_e2e
FNDA:8,_RNCNvMNtCsFtQQ2UsJ2c_7lb_quic6routerNtB4_12RouterHandle4join0Csc0ucLUzKP1z_16h3_h2_stream_e2e
FNDA:24,_RNCNvMNtCsFtQQ2UsJ2c_7lb_quic6routerNtB4_12RouterHandle4join0Cs29MjELhVkYa_16h3_h3_stream_e2e
FNDA:0,_RNCNCNvNtCsiNLkn7P4XgI_7lb_quic6router15dispatch_packet00B7_
FNDA:0,_RNCNvMNtCsiNLkn7P4XgI_7lb_quic6routerNtB4_12RouterHandle4join0B6_
FNDA:0,_RNCNvNtCsiNLkn7P4XgI_7lb_quic6router10send_retry0B5_
FNDA:0,_RNCNvNtCsiNLkn7P4XgI_7lb_quic6router11router_main0B5_
FNDA:0,_RNCNvNtCsiNLkn7P4XgI_7lb_quic6router15dispatch_packet0B5_
FNDA:0,_RNCNvNtCsiNLkn7P4XgI_7lb_quic6router5spawn0B5_
FNDA:0,_RNvMNtCsiNLkn7P4XgI_7lb_quic6routerNtB2_12RouterHandle4join
FNDA:0,_RNvNtCsiNLkn7P4XgI_7lb_quic6router10send_retry
FNDA:0,_RNvNtCsiNLkn7P4XgI_7lb_quic6router11router_main
FNDA:0,_RNvNtCsiNLkn7P4XgI_7lb_quic6router15dispatch_packet
FNDA:0,_RNvNtCsiNLkn7P4XgI_7lb_quic6router16build_replay_key
FNDA:0,_RNvNtCsiNLkn7P4XgI_7lb_quic6router16forward_to_actor
FNDA:0,_RNvNtCsiNLkn7P4XgI_7lb_quic6router5spawn
FNDA:0,_RNCNCNvNtNtCsiNLkn7P4XgI_7lb_quic6router5tests27flood_server_config_factory00B9_
FNDA:0,_RNCNCNvNtNtCsiNLkn7P4XgI_7lb_quic6router5tests27flood_server_config_factory0s_0B9_
FNDA:0,_RNCNCNvNtNtCsiNLkn7P4XgI_7lb_quic6router5testss_37router_drops_initial_when_cap_reached00B9_
FNDA:4,_RNCNvNtNtCsiNLkn7P4XgI_7lb_quic6router5tests27flood_server_config_factory0B7_
FNDA:8,_RNCNvNtNtCsiNLkn7P4XgI_7lb_quic6router5tests9write_tmp0B7_
FNDA:1,_RNCNvNtNtCsiNLkn7P4XgI_7lb_quic6router5testss_37router_drops_initial_when_cap_reached0B7_
FNDA:1,_RNCNvNtNtCsiNLkn7P4XgI_7lb_quic6router5testss_46router_drops_flood_of_distinct_initials_at_cap0B7_
FNDA:40,_RNvNtNtCsiNLkn7P4XgI_7lb_quic6router5tests21mint_distinct_initial
FNDA:1,_RNvNtNtCsiNLkn7P4XgI_7lb_quic6router5tests27flood_server_config_factory
FNDA:8,_RNvNtNtCsiNLkn7P4XgI_7lb_quic6router5tests9write_tmp
FNDA:1,_RNvNtNtCsiNLkn7P4XgI_7lb_quic6router5testss_37router_drops_initial_when_cap_reached
FNDA:1,_RNvNtNtCsiNLkn7P4XgI_7lb_quic6router5testss_46router_drops_flood_of_distinct_initials_at_cap
FNDA:0,_RNCNvNtCsiNLkn7P4XgI_7lb_quic6router14sample_conn_id0B5_
FNDA:0,_RNCNvNtCsiNLkn7P4XgI_7lb_quic6router20spawn_new_connection0B5_
FNDA:0,_RNCNvNtCsiNLkn7P4XgI_7lb_quic6router20spawn_new_connections0_0B5_
FNDA:0,_RNCNvNtCsiNLkn7P4XgI_7lb_quic6router20spawn_new_connections_0B5_
FNDA:45,_RNvNtCsiNLkn7P4XgI_7lb_quic6router14sample_conn_id
FNDA:41,_RNvNtCsiNLkn7P4XgI_7lb_quic6router20spawn_new_connection
FNDA:7,_RNCNvMNtCsFtQQ2UsJ2c_7lb_quic6routerNtB4_12RouterHandle4join0Cs4UH0JsycgYR_18listener_lifecycle
FNDA:3,_RNCNvMNtCsFtQQ2UsJ2c_7lb_quic6routerNtB4_12RouterHandle4join0CsjxbL8hdICMn_18router_accept_path
FNF:31
FNH:25
DA:125,76
DA:126,76
DA:127,76
DA:132,76
DA:133,76
DA:134,76
DA:135,0
DA:136,76
DA:137,76
DA:138,76
DA:139,76
DA:141,76
DA:142,76
DA:144,76
DA:145,76
DA:146,76
DA:147,76
DA:150,195244
DA:152,195244
DA:153,76
DA:154,76
DA:156,195244
DA:157,195168
DA:158,195168
DA:159,0
DA:160,0
DA:161,0
DA:164,195168
DA:165,195168
DA:166,195168
DA:167,195168
DA:168,195168
DA:169,195168
DA:170,195168
DA:171,195168
DA:173,0
DA:174,195168
DA:178,76
DA:180,195168
DA:181,195168
DA:182,195168
DA:183,195168
DA:184,195168
DA:185,195168
DA:186,195168
DA:190,195168
DA:191,195168
DA:192,0
DA:194,195168
DA:197,195168
DA:198,194902
DA:199,194902
DA:200,266
DA:201,266
DA:202,266
DA:203,266
DA:204,266
DA:205,266
DA:206,0
DA:207,266
DA:208,266
DA:209,266
DA:210,266
DA:211,133
DA:212,133
DA:213,133
DA:215,133
DA:216,133
DA:217,0
DA:218,0
DA:219,0
DA:226,133
DA:227,133
DA:228,133
DA:229,0
DA:230,0
DA:231,133
DA:232,133
DA:233,133
DA:234,133
DA:235,133
DA:236,133
DA:237,133
DA:238,133
DA:239,133
DA:240,133
DA:241,195168
DA:249,133
DA:250,133
DA:251,133
DA:252,133
DA:253,133
DA:254,133
DA:255,133
DA:258,194902
DA:259,194902
DA:260,194902
DA:261,194902
DA:262,194902
DA:263,194902
DA:264,194902
DA:265,194902
DA:266,194902
DA:267,194902
DA:268,143550
DA:270,51352
DA:272,0
DA:273,0
DA:274,0
DA:276,194902
DA:280,133
DA:281,133
DA:282,133
DA:283,133
DA:284,133
DA:285,133
DA:286,133
DA:287,133
DA:288,133
DA:289,133
DA:290,133
DA:291,133
DA:292,133
DA:293,133
DA:294,133
DA:295,133
DA:296,133
DA:297,133
DA:298,133
DA:299,133
DA:300,133
DA:301,133
DA:302,133
DA:303,133
DA:304,133
DA:305,133
DA:306,133
DA:307,0
DA:309,133
DA:310,133
DA:311,0
DA:312,133
DA:313,133
DA:314,133
DA:316,174
DA:317,174
DA:318,174
DA:319,174
DA:320,174
DA:321,174
DA:322,174
DA:323,174
DA:324,174
DA:325,174
DA:326,174
DA:327,174
DA:328,174
DA:329,174
DA:330,174
DA:331,37
DA:332,0
DA:333,0
DA:334,0
DA:335,0
DA:336,0
DA:338,37
DA:339,137
DA:340,137
DA:341,137
DA:342,137
DA:343,137
DA:344,137
DA:345,137
DA:346,137
DA:347,137
DA:348,137
DA:350,137
DA:351,137
DA:352,137
DA:353,137
DA:354,137
DA:355,137
DA:356,137
DA:357,137
DA:358,137
DA:359,137
DA:360,137
DA:361,137
DA:363,137
DA:364,137
DA:365,137
DA:366,137
DA:367,137
DA:368,137
DA:369,137
DA:370,137
DA:371,137
DA:372,137
DA:373,137
DA:374,137
DA:375,137
DA:376,137
DA:377,137
DA:378,137
DA:379,137
DA:380,137
DA:381,137
DA:382,137
DA:383,137
DA:384,137
DA:385,137
DA:386,137
DA:387,137
DA:388,137
DA:389,137
DA:390,137
DA:391,137
DA:392,137
DA:393,137
DA:394,137
DA:395,137
DA:396,137
DA:397,137
DA:398,137
DA:399,137
DA:400,137
DA:401,137
DA:402,137
DA:403,137
DA:404,137
DA:405,137
DA:406,137
DA:407,137
DA:408,137
DA:409,137
DA:410,137
DA:411,137
DA:412,137
DA:413,137
DA:414,137
DA:415,133
DA:416,133
DA:417,133
DA:418,133
DA:420,137
DA:421,137
DA:422,174
DA:424,311
DA:426,311
DA:427,311
DA:428,0
DA:429,0
DA:430,0
DA:431,0
DA:432,0
DA:433,0
DA:434,0
DA:435,0
DA:436,0
DA:437,0
DA:438,0
DA:439,0
DA:440,0
DA:442,311
DA:443,311
DA:444,311
DA:472,1
DA:473,1
DA:474,1
DA:475,1
DA:476,1
DA:477,1
DA:478,1
DA:479,1
DA:480,1
DA:481,1
DA:482,1
DA:483,1
DA:484,1
DA:485,1
DA:486,1
DA:487,1
DA:488,1
DA:489,1
DA:490,1
DA:491,1
DA:492,1
DA:493,1
DA:494,1
DA:495,1
DA:496,1
DA:497,1
DA:498,1
DA:499,1
DA:500,1
DA:501,1
DA:502,1
DA:503,1
DA:504,1
DA:505,1
DA:506,1
DA:507,1
DA:508,1
DA:509,1
DA:510,1
DA:511,1
DA:512,1
DA:513,1
DA:514,5
DA:515,4
DA:516,4
DA:517,4
DA:518,4
DA:519,4
DA:520,4
DA:521,4
DA:522,4
DA:523,4
DA:524,1
DA:525,1
DA:526,1
DA:527,1
DA:528,1
DA:529,1
DA:530,1
DA:531,1
DA:532,1
DA:533,1
DA:534,1
DA:535,1
DA:536,1
DA:537,1
DA:538,1
DA:539,1
DA:540,1
DA:541,1
DA:542,1
DA:543,1
DA:544,1
DA:545,1
DA:546,1
DA:547,1
DA:548,1
DA:549,1
DA:550,1
DA:551,1
DA:552,1
DA:553,1
DA:554,1
DA:555,1
DA:556,1
DA:557,1
DA:558,1
DA:559,1
DA:560,1
DA:561,1
DA:562,1
DA:563,1
DA:564,1
DA:565,1
DA:566,1
DA:567,1
DA:568,1
DA:569,1
DA:570,1
DA:571,1
DA:572,1
DA:573,1
DA:574,1
DA:575,1
DA:576,1
DA:577,1
DA:578,1
DA:579,1
DA:580,1
DA:581,1
DA:582,1
DA:583,1
DA:584,1
DA:585,1
DA:586,1
DA:587,1
DA:588,1
DA:603,1
DA:604,1
DA:605,1
DA:606,1
DA:607,1
DA:608,1
DA:609,1
DA:610,1
DA:611,1
DA:612,1
DA:613,1
DA:614,1
DA:615,1
DA:616,4
DA:617,4
DA:618,4
DA:619,4
DA:620,4
DA:621,4
DA:622,4
DA:625,4
DA:626,4
DA:627,4
DA:628,4
DA:629,4
DA:630,4
DA:631,4
DA:632,4
DA:633,4
DA:634,1
DA:638,8
DA:641,8
DA:642,8
DA:643,8
DA:644,8
DA:645,8
DA:646,8
DA:647,8
DA:648,8
DA:649,8
DA:650,8
DA:651,8
DA:652,8
DA:659,40
DA:660,40
DA:661,40
DA:662,40
DA:663,40
DA:664,40
DA:665,40
DA:666,40
DA:667,40
DA:668,40
DA:669,40
DA:670,40
DA:671,40
DA:672,40
DA:673,40
DA:674,40
DA:675,40
DA:676,40
DA:677,40
DA:678,40
DA:679,40
DA:680,40
DA:681,40
DA:694,1
DA:695,1
DA:696,1
DA:697,1
DA:698,1
DA:699,1
DA:700,1
DA:701,1
DA:702,1
DA:703,1
DA:704,1
DA:705,1
DA:706,1
DA:707,1
DA:708,1
DA:709,1
DA:710,1
DA:711,1
DA:712,1
DA:713,1
DA:714,1
DA:715,1
DA:716,1
DA:717,1
DA:718,1
DA:719,1
DA:720,1
DA:721,1
DA:722,1
DA:723,1
DA:724,1
DA:725,1
DA:726,1
DA:727,1
DA:728,1
DA:729,1
DA:730,1
DA:731,1
DA:732,1
DA:733,41
DA:734,40
DA:735,40
DA:736,40
DA:737,40
DA:738,40
DA:739,40
DA:740,40
DA:741,40
DA:742,40
DA:743,40
DA:744,40
DA:745,40
DA:746,40
DA:747,40
DA:748,40
DA:749,40
DA:750,40
DA:751,1
DA:752,4
DA:753,4
DA:754,4
DA:755,4
DA:756,4
DA:757,1
DA:758,1
DA:759,1
DA:760,36
DA:761,36
DA:762,36
DA:763,1
DA:764,1
DA:765,1
DA:766,1
DA:767,36
DA:768,36
DA:769,1
DA:770,1
DA:771,1
DA:772,1
DA:773,1
DA:774,1
DA:775,40
DA:776,40
DA:777,1
DA:778,0
DA:779,1
DA:780,1
DA:781,1
DA:782,1
DA:783,1
DA:784,1
DA:785,1
DA:786,1
DA:787,1
DA:788,1
DA:789,1
DA:790,1
DA:791,1
DA:792,1
DA:793,1
DA:794,1
DA:795,1
DA:796,1
DA:797,1
DA:798,1
DA:799,1
DA:800,1
DA:801,1
BRF:0
BRH:0
LF:759
LH:706
end_of_record
SF:/home/ubuntu/Code/ExpressGateway/crates/lb-quic/src/terminate_loopback.rs
FN:346,_RNCNvNtCsFtQQ2UsJ2c_7lb_quic18terminate_loopback11random_scid0B5_
FN:312,_RNCNvNtCsFtQQ2UsJ2c_7lb_quic18terminate_loopback12build_config0B5_
FN:326,_RNCNvNtCsFtQQ2UsJ2c_7lb_quic18terminate_loopback12build_configs0_0B5_
FN:315,_RNCNvNtCsFtQQ2UsJ2c_7lb_quic18terminate_loopback12build_configs_0B5_
FN:228,_RNvMs_NtCsFtQQ2UsJ2c_7lb_quic18terminate_loopbackNtB4_12QuicEndpoint10local_addr
FN:265,_RNvMs_NtCsFtQQ2UsJ2c_7lb_quic18terminate_loopbackNtB4_12QuicEndpoint12retry_signer
FN:272,_RNvMs_NtCsFtQQ2UsJ2c_7lb_quic18terminate_loopbackNtB4_12QuicEndpoint13replay_filter
FN:243,_RNvMs_NtCsFtQQ2UsJ2c_7lb_quic18terminate_loopbackNtB4_12QuicEndpoint17with_retry_signer
FN:213,_RNvMs_NtCsFtQQ2UsJ2c_7lb_quic18terminate_loopbackNtB4_12QuicEndpoint18client_on_loopback
FN:187,_RNvMs_NtCsFtQQ2UsJ2c_7lb_quic18terminate_loopbackNtB4_12QuicEndpoint18server_on_loopback
FN:257,_RNvMs_NtCsFtQQ2UsJ2c_7lb_quic18terminate_loopbackNtB4_12QuicEndpoint18with_replay_filter
FN:342,_RNvNtCsFtQQ2UsJ2c_7lb_quic18terminate_loopback11random_scid
FN:291,_RNvNtCsFtQQ2UsJ2c_7lb_quic18terminate_loopback12build_config
FN:129,_RNvNtCsFtQQ2UsJ2c_7lb_quic18terminate_loopback14forward_stream
FN:509,_RNvNtCsFtQQ2UsJ2c_7lb_quic18terminate_loopback14graceful_close
FN:116,_RNvNtCsFtQQ2UsJ2c_7lb_quic18terminate_loopback16forward_datagram
FN:665,_RNvNtCsFtQQ2UsJ2c_7lb_quic18terminate_loopback16roundtrip_stream
FN:467,_RNvNtCsFtQQ2UsJ2c_7lb_quic18terminate_loopback17server_accept_one
FN:593,_RNvNtCsFtQQ2UsJ2c_7lb_quic18terminate_loopback18roundtrip_datagram
FN:547,_RNvNtCsFtQQ2UsJ2c_7lb_quic18terminate_loopback18server_stream_task
FN:520,_RNvNtCsFtQQ2UsJ2c_7lb_quic18terminate_loopback20server_datagram_task
FN:384,_RNvNtCsFtQQ2UsJ2c_7lb_quic18terminate_loopback21flush_out_best_effort
FN:41,_RNvNtCsFtQQ2UsJ2c_7lb_quic18terminate_loopback6prefix
FN:362,_RNvNtCsFtQQ2UsJ2c_7lb_quic18terminate_loopback9flush_out
FN:166,_RNvXNtCsFtQQ2UsJ2c_7lb_quic18terminate_loopbackNtB2_12QuicEndpointNtNtCs2va5m0jqTTM_4core3fmt5Debug3fmt
FN:407,_RINvNtCsFtQQ2UsJ2c_7lb_quic18terminate_loopback5driveppEB4_
FN:415,_RNCINvNtCsFtQQ2UsJ2c_7lb_quic18terminate_loopback5driveppE0B6_
FN:443,_RNCNCINvNtCsFtQQ2UsJ2c_7lb_quic18terminate_loopback5driveppE00B8_
FN:704,_RNCNCNvNtCsFtQQ2UsJ2c_7lb_quic18terminate_loopback16roundtrip_stream00B7_
FN:719,_RNCNCNvNtCsFtQQ2UsJ2c_7lb_quic18terminate_loopback16roundtrip_stream0s_0B7_
FN:479,_RNCNCNvNtCsFtQQ2UsJ2c_7lb_quic18terminate_loopback17server_accept_one00B7_
FN:628,_RNCNCNvNtCsFtQQ2UsJ2c_7lb_quic18terminate_loopback18roundtrip_datagram00B7_
FN:643,_RNCNCNvNtCsFtQQ2UsJ2c_7lb_quic18terminate_loopback18roundtrip_datagram0s_0B7_
FN:553,_RNCNCNvNtCsFtQQ2UsJ2c_7lb_quic18terminate_loopback18server_stream_task00B7_
FN:526,_RNCNCNvNtCsFtQQ2UsJ2c_7lb_quic18terminate_loopback20server_datagram_task00B7_
FN:213,_RNCNvMs_NtCsFtQQ2UsJ2c_7lb_quic18terminate_loopbackNtB6_12QuicEndpoint18client_on_loopback0B8_
FN:190,_RNCNvMs_NtCsFtQQ2UsJ2c_7lb_quic18terminate_loopbackNtB6_12QuicEndpoint18server_on_loopback0B8_
FN:509,_RNCNvNtCsFtQQ2UsJ2c_7lb_quic18terminate_loopback14graceful_close0B5_
FN:669,_RNCNvNtCsFtQQ2UsJ2c_7lb_quic18terminate_loopback16roundtrip_stream0B5_
FN:471,_RNCNvNtCsFtQQ2UsJ2c_7lb_quic18terminate_loopback17server_accept_one0B5_
FN:597,_RNCNvNtCsFtQQ2UsJ2c_7lb_quic18terminate_loopback18roundtrip_datagram0B5_
FN:551,_RNCNvNtCsFtQQ2UsJ2c_7lb_quic18terminate_loopback18server_stream_task0B5_
FN:524,_RNCNvNtCsFtQQ2UsJ2c_7lb_quic18terminate_loopback20server_datagram_task0B5_
FN:388,_RNCNvNtCsFtQQ2UsJ2c_7lb_quic18terminate_loopback21flush_out_best_effort0B5_
FN:366,_RNCNvNtCsFtQQ2UsJ2c_7lb_quic18terminate_loopback9flush_out0B5_
FN:129,_RNvNtCsiNLkn7P4XgI_7lb_quic18terminate_loopback14forward_stream
FN:116,_RNvNtCsiNLkn7P4XgI_7lb_quic18terminate_loopback16forward_datagram
FN:407,_RINvNtCsiNLkn7P4XgI_7lb_quic18terminate_loopback5driveppEB4_
FN:415,_RNCINvNtCsiNLkn7P4XgI_7lb_quic18terminate_loopback5driveppE0B6_
FN:443,_RNCNCINvNtCsiNLkn7P4XgI_7lb_quic18terminate_loopback5driveppE00B8_
FN:704,_RNCNCNvNtCsiNLkn7P4XgI_7lb_quic18terminate_loopback16roundtrip_stream00B7_
FN:719,_RNCNCNvNtCsiNLkn7P4XgI_7lb_quic18terminate_loopback16roundtrip_stream0s_0B7_
FN:479,_RNCNCNvNtCsiNLkn7P4XgI_7lb_quic18terminate_loopback17server_accept_one00B7_
FN:628,_RNCNCNvNtCsiNLkn7P4XgI_7lb_quic18terminate_loopback18roundtrip_datagram00B7_
FN:643,_RNCNCNvNtCsiNLkn7P4XgI_7lb_quic18terminate_loopback18roundtrip_datagram0s_0B7_
FN:553,_RNCNCNvNtCsiNLkn7P4XgI_7lb_quic18terminate_loopback18server_stream_task00B7_
FN:526,_RNCNCNvNtCsiNLkn7P4XgI_7lb_quic18terminate_loopback20server_datagram_task00B7_
FN:213,_RNCNvMs_NtCsiNLkn7P4XgI_7lb_quic18terminate_loopbackNtB6_12QuicEndpoint18client_on_loopback0B8_
FN:190,_RNCNvMs_NtCsiNLkn7P4XgI_7lb_quic18terminate_loopbackNtB6_12QuicEndpoint18server_on_loopback0B8_
FN:346,_RNCNvNtCsiNLkn7P4XgI_7lb_quic18terminate_loopback11random_scid0B5_
FN:312,_RNCNvNtCsiNLkn7P4XgI_7lb_quic18terminate_loopback12build_config0B5_
FN:326,_RNCNvNtCsiNLkn7P4XgI_7lb_quic18terminate_loopback12build_configs0_0B5_
FN:315,_RNCNvNtCsiNLkn7P4XgI_7lb_quic18terminate_loopback12build_configs_0B5_
FN:509,_RNCNvNtCsiNLkn7P4XgI_7lb_quic18terminate_loopback14graceful_close0B5_
FN:669,_RNCNvNtCsiNLkn7P4XgI_7lb_quic18terminate_loopback16roundtrip_stream0B5_
FN:471,_RNCNvNtCsiNLkn7P4XgI_7lb_quic18terminate_loopback17server_accept_one0B5_
FN:597,_RNCNvNtCsiNLkn7P4XgI_7lb_quic18terminate_loopback18roundtrip_datagram0B5_
FN:551,_RNCNvNtCsiNLkn7P4XgI_7lb_quic18terminate_loopback18server_stream_task0B5_
FN:524,_RNCNvNtCsiNLkn7P4XgI_7lb_quic18terminate_loopback20server_datagram_task0B5_
FN:388,_RNCNvNtCsiNLkn7P4XgI_7lb_quic18terminate_loopback21flush_out_best_effort0B5_
FN:366,_RNCNvNtCsiNLkn7P4XgI_7lb_quic18terminate_loopback9flush_out0B5_
FN:228,_RNvMs_NtCsiNLkn7P4XgI_7lb_quic18terminate_loopbackNtB4_12QuicEndpoint10local_addr
FN:265,_RNvMs_NtCsiNLkn7P4XgI_7lb_quic18terminate_loopbackNtB4_12QuicEndpoint12retry_signer
FN:272,_RNvMs_NtCsiNLkn7P4XgI_7lb_quic18terminate_loopbackNtB4_12QuicEndpoint13replay_filter
FN:243,_RNvMs_NtCsiNLkn7P4XgI_7lb_quic18terminate_loopbackNtB4_12QuicEndpoint17with_retry_signer
FN:213,_RNvMs_NtCsiNLkn7P4XgI_7lb_quic18terminate_loopbackNtB4_12QuicEndpoint18client_on_loopback
FN:187,_RNvMs_NtCsiNLkn7P4XgI_7lb_quic18terminate_loopbackNtB4_12QuicEndpoint18server_on_loopback
FN:257,_RNvMs_NtCsiNLkn7P4XgI_7lb_quic18terminate_loopbackNtB4_12QuicEndpoint18with_replay_filter
FN:342,_RNvNtCsiNLkn7P4XgI_7lb_quic18terminate_loopback11random_scid
FN:291,_RNvNtCsiNLkn7P4XgI_7lb_quic18terminate_loopback12build_config
FN:509,_RNvNtCsiNLkn7P4XgI_7lb_quic18terminate_loopback14graceful_close
FN:665,_RNvNtCsiNLkn7P4XgI_7lb_quic18terminate_loopback16roundtrip_stream
FN:467,_RNvNtCsiNLkn7P4XgI_7lb_quic18terminate_loopback17server_accept_one
FN:593,_RNvNtCsiNLkn7P4XgI_7lb_quic18terminate_loopback18roundtrip_datagram
FN:547,_RNvNtCsiNLkn7P4XgI_7lb_quic18terminate_loopback18server_stream_task
FN:520,_RNvNtCsiNLkn7P4XgI_7lb_quic18terminate_loopback20server_datagram_task
FN:384,_RNvNtCsiNLkn7P4XgI_7lb_quic18terminate_loopback21flush_out_best_effort
FN:41,_RNvNtCsiNLkn7P4XgI_7lb_quic18terminate_loopback6prefix
FN:362,_RNvNtCsiNLkn7P4XgI_7lb_quic18terminate_loopback9flush_out
FN:166,_RNvXNtCsiNLkn7P4XgI_7lb_quic18terminate_loopbackNtB2_12QuicEndpointNtNtCs2va5m0jqTTM_4core3fmt5Debug3fmt
FN:754,_RNvNtNtCsiNLkn7P4XgI_7lb_quic18terminate_loopback5testss_17stream_forward_ok
FN:734,_RNvNtNtCsiNLkn7P4XgI_7lb_quic18terminate_loopback5testss_19datagram_forward_ok
FN:766,_RNvNtNtCsiNLkn7P4XgI_7lb_quic18terminate_loopback5testss_21stream_empty_rejected
FN:745,_RNvNtNtCsiNLkn7P4XgI_7lb_quic18terminate_loopback5testss_23datagram_empty_rejected
FNDA:0,_RNCNvNtCsFtQQ2UsJ2c_7lb_quic18terminate_loopback11random_scid0B5_
FNDA:0,_RNCNvNtCsFtQQ2UsJ2c_7lb_quic18terminate_loopback12build_config0B5_
FNDA:0,_RNCNvNtCsFtQQ2UsJ2c_7lb_quic18terminate_loopback12build_configs0_0B5_
FNDA:0,_RNCNvNtCsFtQQ2UsJ2c_7lb_quic18terminate_loopback12build_configs_0B5_
FNDA:0,_RNvMs_NtCsFtQQ2UsJ2c_7lb_quic18terminate_loopbackNtB4_12QuicEndpoint10local_addr
FNDA:0,_RNvMs_NtCsFtQQ2UsJ2c_7lb_quic18terminate_loopbackNtB4_12QuicEndpoint12retry_signer
FNDA:0,_RNvMs_NtCsFtQQ2UsJ2c_7lb_quic18terminate_loopbackNtB4_12QuicEndpoint13replay_filter
FNDA:0,_RNvMs_NtCsFtQQ2UsJ2c_7lb_quic18terminate_loopbackNtB4_12QuicEndpoint17with_retry_signer
FNDA:0,_RNvMs_NtCsFtQQ2UsJ2c_7lb_quic18terminate_loopbackNtB4_12QuicEndpoint18client_on_loopback
FNDA:0,_RNvMs_NtCsFtQQ2UsJ2c_7lb_quic18terminate_loopbackNtB4_12QuicEndpoint18server_on_loopback
FNDA:0,_RNvMs_NtCsFtQQ2UsJ2c_7lb_quic18terminate_loopbackNtB4_12QuicEndpoint18with_replay_filter
FNDA:0,_RNvNtCsFtQQ2UsJ2c_7lb_quic18terminate_loopback11random_scid
FNDA:0,_RNvNtCsFtQQ2UsJ2c_7lb_quic18terminate_loopback12build_config
FNDA:0,_RNvNtCsFtQQ2UsJ2c_7lb_quic18terminate_loopback14forward_stream
FNDA:0,_RNvNtCsFtQQ2UsJ2c_7lb_quic18terminate_loopback14graceful_close
FNDA:0,_RNvNtCsFtQQ2UsJ2c_7lb_quic18terminate_loopback16forward_datagram
FNDA:0,_RNvNtCsFtQQ2UsJ2c_7lb_quic18terminate_loopback16roundtrip_stream
FNDA:0,_RNvNtCsFtQQ2UsJ2c_7lb_quic18terminate_loopback17server_accept_one
FNDA:0,_RNvNtCsFtQQ2UsJ2c_7lb_quic18terminate_loopback18roundtrip_datagram
FNDA:0,_RNvNtCsFtQQ2UsJ2c_7lb_quic18terminate_loopback18server_stream_task
FNDA:0,_RNvNtCsFtQQ2UsJ2c_7lb_quic18terminate_loopback20server_datagram_task
FNDA:0,_RNvNtCsFtQQ2UsJ2c_7lb_quic18terminate_loopback21flush_out_best_effort
FNDA:0,_RNvNtCsFtQQ2UsJ2c_7lb_quic18terminate_loopback6prefix
FNDA:0,_RNvNtCsFtQQ2UsJ2c_7lb_quic18terminate_loopback9flush_out
FNDA:0,_RNvXNtCsFtQQ2UsJ2c_7lb_quic18terminate_loopbackNtB2_12QuicEndpointNtNtCs2va5m0jqTTM_4core3fmt5Debug3fmt
FNDA:0,_RINvNtCsFtQQ2UsJ2c_7lb_quic18terminate_loopback5driveppEB4_
FNDA:0,_RNCINvNtCsFtQQ2UsJ2c_7lb_quic18terminate_loopback5driveppE0B6_
FNDA:0,_RNCNCINvNtCsFtQQ2UsJ2c_7lb_quic18terminate_loopback5driveppE00B8_
FNDA:0,_RNCNCNvNtCsFtQQ2UsJ2c_7lb_quic18terminate_loopback16roundtrip_stream00B7_
FNDA:0,_RNCNCNvNtCsFtQQ2UsJ2c_7lb_quic18terminate_loopback16roundtrip_stream0s_0B7_
FNDA:0,_RNCNCNvNtCsFtQQ2UsJ2c_7lb_quic18terminate_loopback17server_accept_one00B7_
FNDA:0,_RNCNCNvNtCsFtQQ2UsJ2c_7lb_quic18terminate_loopback18roundtrip_datagram00B7_
FNDA:0,_RNCNCNvNtCsFtQQ2UsJ2c_7lb_quic18terminate_loopback18roundtrip_datagram0s_0B7_
FNDA:0,_RNCNCNvNtCsFtQQ2UsJ2c_7lb_quic18terminate_loopback18server_stream_task00B7_
FNDA:0,_RNCNCNvNtCsFtQQ2UsJ2c_7lb_quic18terminate_loopback20server_datagram_task00B7_
FNDA:0,_RNCNvMs_NtCsFtQQ2UsJ2c_7lb_quic18terminate_loopbackNtB6_12QuicEndpoint18client_on_loopback0B8_
FNDA:0,_RNCNvMs_NtCsFtQQ2UsJ2c_7lb_quic18terminate_loopbackNtB6_12QuicEndpoint18server_on_loopback0B8_
FNDA:0,_RNCNvNtCsFtQQ2UsJ2c_7lb_quic18terminate_loopback14graceful_close0B5_
FNDA:0,_RNCNvNtCsFtQQ2UsJ2c_7lb_quic18terminate_loopback16roundtrip_stream0B5_
FNDA:0,_RNCNvNtCsFtQQ2UsJ2c_7lb_quic18terminate_loopback17server_accept_one0B5_
FNDA:0,_RNCNvNtCsFtQQ2UsJ2c_7lb_quic18terminate_loopback18roundtrip_datagram0B5_
FNDA:0,_RNCNvNtCsFtQQ2UsJ2c_7lb_quic18terminate_loopback18server_stream_task0B5_
FNDA:0,_RNCNvNtCsFtQQ2UsJ2c_7lb_quic18terminate_loopback20server_datagram_task0B5_
FNDA:0,_RNCNvNtCsFtQQ2UsJ2c_7lb_quic18terminate_loopback21flush_out_best_effort0B5_
FNDA:0,_RNCNvNtCsFtQQ2UsJ2c_7lb_quic18terminate_loopback9flush_out0B5_
FNDA:2,_RNvNtCsiNLkn7P4XgI_7lb_quic18terminate_loopback14forward_stream
FNDA:2,_RNvNtCsiNLkn7P4XgI_7lb_quic18terminate_loopback16forward_datagram
FNDA:0,_RINvNtCsiNLkn7P4XgI_7lb_quic18terminate_loopback5driveppEB4_
FNDA:0,_RNCINvNtCsiNLkn7P4XgI_7lb_quic18terminate_loopback5driveppE0B6_
FNDA:0,_RNCNCINvNtCsiNLkn7P4XgI_7lb_quic18terminate_loopback5driveppE00B8_
FNDA:0,_RNCNCNvNtCsiNLkn7P4XgI_7lb_quic18terminate_loopback16roundtrip_stream00B7_
FNDA:0,_RNCNCNvNtCsiNLkn7P4XgI_7lb_quic18terminate_loopback16roundtrip_stream0s_0B7_
FNDA:0,_RNCNCNvNtCsiNLkn7P4XgI_7lb_quic18terminate_loopback17server_accept_one00B7_
FNDA:0,_RNCNCNvNtCsiNLkn7P4XgI_7lb_quic18terminate_loopback18roundtrip_datagram00B7_
FNDA:0,_RNCNCNvNtCsiNLkn7P4XgI_7lb_quic18terminate_loopback18roundtrip_datagram0s_0B7_
FNDA:0,_RNCNCNvNtCsiNLkn7P4XgI_7lb_quic18terminate_loopback18server_stream_task00B7_
FNDA:0,_RNCNCNvNtCsiNLkn7P4XgI_7lb_quic18terminate_loopback20server_datagram_task00B7_
FNDA:0,_RNCNvMs_NtCsiNLkn7P4XgI_7lb_quic18terminate_loopbackNtB6_12QuicEndpoint18client_on_loopback0B8_
FNDA:0,_RNCNvMs_NtCsiNLkn7P4XgI_7lb_quic18terminate_loopbackNtB6_12QuicEndpoint18server_on_loopback0B8_
FNDA:0,_RNCNvNtCsiNLkn7P4XgI_7lb_quic18terminate_loopback11random_scid0B5_
FNDA:0,_RNCNvNtCsiNLkn7P4XgI_7lb_quic18terminate_loopback12build_config0B5_
FNDA:0,_RNCNvNtCsiNLkn7P4XgI_7lb_quic18terminate_loopback12build_configs0_0B5_
FNDA:0,_RNCNvNtCsiNLkn7P4XgI_7lb_quic18terminate_loopback12build_configs_0B5_
FNDA:0,_RNCNvNtCsiNLkn7P4XgI_7lb_quic18terminate_loopback14graceful_close0B5_
FNDA:0,_RNCNvNtCsiNLkn7P4XgI_7lb_quic18terminate_loopback16roundtrip_stream0B5_
FNDA:0,_RNCNvNtCsiNLkn7P4XgI_7lb_quic18terminate_loopback17server_accept_one0B5_
FNDA:0,_RNCNvNtCsiNLkn7P4XgI_7lb_quic18terminate_loopback18roundtrip_datagram0B5_
FNDA:0,_RNCNvNtCsiNLkn7P4XgI_7lb_quic18terminate_loopback18server_stream_task0B5_
FNDA:0,_RNCNvNtCsiNLkn7P4XgI_7lb_quic18terminate_loopback20server_datagram_task0B5_
FNDA:0,_RNCNvNtCsiNLkn7P4XgI_7lb_quic18terminate_loopback21flush_out_best_effort0B5_
FNDA:0,_RNCNvNtCsiNLkn7P4XgI_7lb_quic18terminate_loopback9flush_out0B5_
FNDA:0,_RNvMs_NtCsiNLkn7P4XgI_7lb_quic18terminate_loopbackNtB4_12QuicEndpoint10local_addr
FNDA:0,_RNvMs_NtCsiNLkn7P4XgI_7lb_quic18terminate_loopbackNtB4_12QuicEndpoint12retry_signer
FNDA:0,_RNvMs_NtCsiNLkn7P4XgI_7lb_quic18terminate_loopbackNtB4_12QuicEndpoint13replay_filter
FNDA:0,_RNvMs_NtCsiNLkn7P4XgI_7lb_quic18terminate_loopbackNtB4_12QuicEndpoint17with_retry_signer
FNDA:0,_RNvMs_NtCsiNLkn7P4XgI_7lb_quic18terminate_loopbackNtB4_12QuicEndpoint18client_on_loopback
FNDA:0,_RNvMs_NtCsiNLkn7P4XgI_7lb_quic18terminate_loopbackNtB4_12QuicEndpoint18server_on_loopback
FNDA:0,_RNvMs_NtCsiNLkn7P4XgI_7lb_quic18terminate_loopbackNtB4_12QuicEndpoint18with_replay_filter
FNDA:0,_RNvNtCsiNLkn7P4XgI_7lb_quic18terminate_loopback11random_scid
FNDA:0,_RNvNtCsiNLkn7P4XgI_7lb_quic18terminate_loopback12build_config
FNDA:0,_RNvNtCsiNLkn7P4XgI_7lb_quic18terminate_loopback14graceful_close
FNDA:0,_RNvNtCsiNLkn7P4XgI_7lb_quic18terminate_loopback16roundtrip_stream
FNDA:0,_RNvNtCsiNLkn7P4XgI_7lb_quic18terminate_loopback17server_accept_one
FNDA:0,_RNvNtCsiNLkn7P4XgI_7lb_quic18terminate_loopback18roundtrip_datagram
FNDA:0,_RNvNtCsiNLkn7P4XgI_7lb_quic18terminate_loopback18server_stream_task
FNDA:0,_RNvNtCsiNLkn7P4XgI_7lb_quic18terminate_loopback20server_datagram_task
FNDA:0,_RNvNtCsiNLkn7P4XgI_7lb_quic18terminate_loopback21flush_out_best_effort
FNDA:0,_RNvNtCsiNLkn7P4XgI_7lb_quic18terminate_loopback6prefix
FNDA:0,_RNvNtCsiNLkn7P4XgI_7lb_quic18terminate_loopback9flush_out
FNDA:0,_RNvXNtCsiNLkn7P4XgI_7lb_quic18terminate_loopbackNtB2_12QuicEndpointNtNtCs2va5m0jqTTM_4core3fmt5Debug3fmt
FNDA:1,_RNvNtNtCsiNLkn7P4XgI_7lb_quic18terminate_loopback5testss_17stream_forward_ok
FNDA:1,_RNvNtNtCsiNLkn7P4XgI_7lb_quic18terminate_loopback5testss_19datagram_forward_ok
FNDA:1,_RNvNtNtCsiNLkn7P4XgI_7lb_quic18terminate_loopback5testss_21stream_empty_rejected
FNDA:1,_RNvNtNtCsiNLkn7P4XgI_7lb_quic18terminate_loopback5testss_23datagram_empty_rejected
FNF:49
FNH:6
DA:41,0
DA:42,0
DA:43,0
DA:116,2
DA:117,2
DA:118,1
DA:119,1
DA:120,1
DA:121,2
DA:129,2
DA:130,2
DA:131,1
DA:132,1
DA:133,1
DA:134,2
DA:166,0
DA:167,0
DA:168,0
DA:169,0
DA:171,0
DA:172,0
DA:173,0
DA:174,0
DA:175,0
DA:187,0
DA:188,0
DA:189,0
DA:190,0
DA:191,0
DA:192,0
DA:193,0
DA:194,0
DA:195,0
DA:196,0
DA:197,0
DA:198,0
DA:199,0
DA:200,0
DA:201,0
DA:202,0
DA:203,0
DA:204,0
DA:213,0
DA:214,0
DA:215,0
DA:216,0
DA:217,0
DA:218,0
DA:219,0
DA:220,0
DA:221,0
DA:222,0
DA:223,0
DA:224,0
DA:228,0
DA:229,0
DA:230,0
DA:243,0
DA:244,0
DA:245,0
DA:246,0
DA:257,0
DA:258,0
DA:259,0
DA:260,0
DA:265,0
DA:266,0
DA:267,0
DA:272,0
DA:273,0
DA:274,0
DA:291,0
DA:292,0
DA:293,0
DA:294,0
DA:295,0
DA:296,0
DA:297,0
DA:298,0
DA:299,0
DA:300,0
DA:301,0
DA:302,0
DA:303,0
DA:304,0
DA:305,0
DA:307,0
DA:308,0
DA:310,0
DA:311,0
DA:312,0
DA:313,0
DA:314,0
DA:315,0
DA:316,0
DA:317,0
DA:323,0
DA:324,0
DA:325,0
DA:326,0
DA:327,0
DA:333,0
DA:336,0
DA:337,0
DA:342,0
DA:343,0
DA:344,0
DA:345,0
DA:346,0
DA:347,0
DA:348,0
DA:349,0
DA:350,0
DA:351,0
DA:352,0
DA:353,0
DA:354,0
DA:355,0
DA:356,0
DA:357,0
DA:358,0
DA:359,0
DA:362,0
DA:363,0
DA:364,0
DA:365,0
DA:366,0
DA:368,0
DA:369,0
DA:370,0
DA:372,0
DA:373,0
DA:374,0
DA:376,0
DA:377,0
DA:380,0
DA:384,0
DA:385,0
DA:386,0
DA:387,0
DA:388,0
DA:390,0
DA:391,0
DA:392,0
DA:393,0
DA:394,0
DA:395,0
DA:396,0
DA:398,0
DA:399,0
DA:400,0
DA:401,0
DA:407,0
DA:408,0
DA:409,0
DA:410,0
DA:411,0
DA:412,0
DA:413,0
DA:414,0
DA:415,0
DA:416,0
DA:417,0
DA:418,0
DA:421,0
DA:422,0
DA:423,0
DA:424,0
DA:427,0
DA:428,0
DA:429,0
DA:430,0
DA:431,0
DA:432,0
DA:433,0
DA:434,0
DA:435,0
DA:438,0
DA:439,0
DA:440,0
DA:441,0
DA:442,0
DA:443,0
DA:444,0
DA:445,0
DA:446,0
DA:447,0
DA:448,0
DA:449,0
DA:450,0
DA:451,0
DA:452,0
DA:453,0
DA:456,0
DA:457,0
DA:458,0
DA:462,0
DA:467,0
DA:468,0
DA:469,0
DA:470,0
DA:471,0
DA:472,0
DA:473,0
DA:474,0
DA:475,0
DA:476,0
DA:477,0
DA:478,0
DA:479,0
DA:481,0
DA:482,0
DA:483,0
DA:484,0
DA:485,0
DA:486,0
DA:487,0
DA:488,0
DA:489,0
DA:490,0
DA:491,0
DA:495,0
DA:496,0
DA:497,0
DA:499,0
DA:500,0
DA:504,0
DA:505,0
DA:509,0
DA:511,0
DA:512,0
DA:513,0
DA:514,0
DA:515,0
DA:516,0
DA:520,0
DA:521,0
DA:522,0
DA:523,0
DA:524,0
DA:525,0
DA:526,0
DA:527,0
DA:528,0
DA:529,0
DA:530,0
DA:531,0
DA:532,0
DA:533,0
DA:534,0
DA:536,0
DA:537,0
DA:539,0
DA:540,0
DA:541,0
DA:542,0
DA:543,0
DA:547,0
DA:548,0
DA:549,0
DA:550,0
DA:551,0
DA:552,0
DA:553,0
DA:554,0
DA:555,0
DA:556,0
DA:557,0
DA:558,0
DA:560,0
DA:561,0
DA:563,0
DA:564,0
DA:565,0
DA:566,0
DA:567,0
DA:568,0
DA:569,0
DA:571,0
DA:572,0
DA:575,0
DA:576,0
DA:577,0
DA:578,0
DA:579,0
DA:593,0
DA:594,0
DA:595,0
DA:596,0
DA:597,0
DA:598,0
DA:599,0
DA:600,0
DA:602,0
DA:603,0
DA:605,0
DA:606,0
DA:607,0
DA:608,0
DA:609,0
DA:610,0
DA:611,0
DA:612,0
DA:613,0
DA:614,0
DA:615,0
DA:616,0
DA:617,0
DA:618,0
DA:619,0
DA:620,0
DA:621,0
DA:622,0
DA:623,0
DA:624,0
DA:625,0
DA:626,0
DA:627,0
DA:628,0
DA:629,0
DA:630,0
DA:631,0
DA:632,0
DA:633,0
DA:634,0
DA:635,0
DA:636,0
DA:637,0
DA:638,0
DA:639,0
DA:641,0
DA:642,0
DA:643,0
DA:644,0
DA:646,0
DA:647,0
DA:648,0
DA:649,0
DA:650,0
DA:665,0
DA:666,0
DA:667,0
DA:668,0
DA:669,0
DA:670,0
DA:671,0
DA:672,0
DA:674,0
DA:675,0
DA:677,0
DA:678,0
DA:679,0
DA:680,0
DA:681,0
DA:682,0
DA:683,0
DA:684,0
DA:685,0
DA:686,0
DA:687,0
DA:688,0
DA:689,0
DA:690,0
DA:691,0
DA:692,0
DA:693,0
DA:694,0
DA:695,0
DA:696,0
DA:697,0
DA:698,0
DA:699,0
DA:700,0
DA:701,0
DA:702,0
DA:703,0
DA:704,0
DA:705,0
DA:706,0
DA:707,0
DA:708,0
DA:709,0
DA:710,0
DA:711,0
DA:712,0
DA:713,0
DA:714,0
DA:715,0
DA:717,0
DA:718,0
DA:719,0
DA:720,0
DA:722,0
DA:723,0
DA:724,0
DA:725,0
DA:726,0
DA:727,0
DA:734,1
DA:735,1
DA:736,1
DA:737,1
DA:738,1
DA:739,1
DA:740,1
DA:741,1
DA:742,1
DA:745,1
DA:746,1
DA:747,1
DA:748,1
DA:749,1
DA:750,1
DA:751,1
DA:754,1
DA:755,1
DA:756,1
DA:757,1
DA:758,1
DA:759,1
DA:760,1
DA:761,1
DA:762,1
DA:763,1
DA:766,1
DA:767,1
DA:768,1
DA:769,1
DA:770,1
DA:771,1
DA:772,1
DA:773,1
BRF:0
BRH:0
LF:459
LH:46
end_of_record
SF:/home/ubuntu/Code/ExpressGateway/crates/lb-quic/src/udp_dataplane.rs
FN:266,_RNCNvXs_NtCsFtQQ2UsJ2c_7lb_quic13udp_dataplaneNtB6_8TokioUdpNtB6_12UdpDataplane7send_to0B8_
FN:234,_RNCNvXs_NtCsFtQQ2UsJ2c_7lb_quic13udp_dataplaneNtB6_8TokioUdpNtB6_12UdpDataplane9recv_loop0B8_
FN:198,_RNvMNtCsFtQQ2UsJ2c_7lb_quic13udp_dataplaneNtB2_8TokioUdp3new
FN:211,_RNvMNtCsFtQQ2UsJ2c_7lb_quic13udp_dataplaneNtB2_8TokioUdp4bind
FN:219,_RNvMNtCsFtQQ2UsJ2c_7lb_quic13udp_dataplaneNtB2_8TokioUdp6socket
FN:161,_RNvNtCsFtQQ2UsJ2c_7lb_quic13udp_dataplane16select_dataplane
FN:225,_RNvXs_NtCsFtQQ2UsJ2c_7lb_quic13udp_dataplaneNtB4_8TokioUdpNtB4_12UdpDataplane10local_addr
FN:261,_RNvXs_NtCsFtQQ2UsJ2c_7lb_quic13udp_dataplaneNtB4_8TokioUdpNtB4_12UdpDataplane7send_to
FN:229,_RNvXs_NtCsFtQQ2UsJ2c_7lb_quic13udp_dataplaneNtB4_8TokioUdpNtB4_12UdpDataplane9recv_loop
FN:274,_RNvXs_NtCsFtQQ2UsJ2c_7lb_quic13udp_dataplaneNtB4_8TokioUdpNtB4_12UdpDataplane9tier_name
FN:211,_RNCNvMNtCsFtQQ2UsJ2c_7lb_quic13udp_dataplaneNtB4_8TokioUdp4bind0B6_
FN:164,_RNCNvNtCsFtQQ2UsJ2c_7lb_quic13udp_dataplane16select_dataplane0B5_
FN:129,_RNvYpNtNtCsFtQQ2UsJ2c_7lb_quic13udp_dataplane12UdpDataplane11dcid_map_fdB7_
FN:211,_RNCNvMNtCsiNLkn7P4XgI_7lb_quic13udp_dataplaneNtB4_8TokioUdp4bind0B6_
FN:164,_RNCNvNtCsiNLkn7P4XgI_7lb_quic13udp_dataplane16select_dataplane0B5_
FN:266,_RNCNvXs_NtCsiNLkn7P4XgI_7lb_quic13udp_dataplaneNtB6_8TokioUdpNtB6_12UdpDataplane7send_to0B8_
FN:234,_RNCNvXs_NtCsiNLkn7P4XgI_7lb_quic13udp_dataplaneNtB6_8TokioUdpNtB6_12UdpDataplane9recv_loop0B8_
FN:198,_RNvMNtCsiNLkn7P4XgI_7lb_quic13udp_dataplaneNtB2_8TokioUdp3new
FN:211,_RNvMNtCsiNLkn7P4XgI_7lb_quic13udp_dataplaneNtB2_8TokioUdp4bind
FN:161,_RNvNtCsiNLkn7P4XgI_7lb_quic13udp_dataplane16select_dataplane
FN:225,_RNvXs_NtCsiNLkn7P4XgI_7lb_quic13udp_dataplaneNtB4_8TokioUdpNtB4_12UdpDataplane10local_addr
FN:261,_RNvXs_NtCsiNLkn7P4XgI_7lb_quic13udp_dataplaneNtB4_8TokioUdpNtB4_12UdpDataplane7send_to
FN:229,_RNvXs_NtCsiNLkn7P4XgI_7lb_quic13udp_dataplaneNtB4_8TokioUdpNtB4_12UdpDataplane9recv_loop
FN:274,_RNvXs_NtCsiNLkn7P4XgI_7lb_quic13udp_dataplaneNtB4_8TokioUdpNtB4_12UdpDataplane9tier_name
FN:129,_RNvYNtNtCsiNLkn7P4XgI_7lb_quic13udp_dataplane8TokioUdpNtB4_12UdpDataplane11dcid_map_fdB6_
FN:351,_RNCNCNCNvNtNtCsiNLkn7P4XgI_7lb_quic13udp_dataplane5testss_29tokio_udp_roundtrip_via_trait000Bb_
FN:347,_RNCNCNvNtNtCsiNLkn7P4XgI_7lb_quic13udp_dataplane5testss_29tokio_udp_roundtrip_via_trait00B9_
FN:360,_RNCNCNvNtNtCsiNLkn7P4XgI_7lb_quic13udp_dataplane5testss_29tokio_udp_roundtrip_via_trait0s_0B9_
FN:285,_RNCNvNtNtCsiNLkn7P4XgI_7lb_quic13udp_dataplane5testss_27tokio_udp_select_auto_binds0B7_
FN:322,_RNCNvNtNtCsiNLkn7P4XgI_7lb_quic13udp_dataplane5testss_29tokio_udp_roundtrip_via_trait0B7_
FN:306,_RNCNvNtNtCsiNLkn7P4XgI_7lb_quic13udp_dataplane5testss_29xdp_returns_unavailable_in_v10B7_
FN:296,_RNCNvNtNtCsiNLkn7P4XgI_7lb_quic13udp_dataplane5testss_33iouring_returns_unavailable_in_v10B7_
FN:285,_RNvNtNtCsiNLkn7P4XgI_7lb_quic13udp_dataplane5testss_27tokio_udp_select_auto_binds
FN:322,_RNvNtNtCsiNLkn7P4XgI_7lb_quic13udp_dataplane5testss_29tokio_udp_roundtrip_via_trait
FN:306,_RNvNtNtCsiNLkn7P4XgI_7lb_quic13udp_dataplane5testss_29xdp_returns_unavailable_in_v1
FN:296,_RNvNtNtCsiNLkn7P4XgI_7lb_quic13udp_dataplane5testss_33iouring_returns_unavailable_in_v1
FN:219,_RNvMNtCsiNLkn7P4XgI_7lb_quic13udp_dataplaneNtB2_8TokioUdp6socket
FNDA:0,_RNCNvXs_NtCsFtQQ2UsJ2c_7lb_quic13udp_dataplaneNtB6_8TokioUdpNtB6_12UdpDataplane7send_to0B8_
FNDA:0,_RNCNvXs_NtCsFtQQ2UsJ2c_7lb_quic13udp_dataplaneNtB6_8TokioUdpNtB6_12UdpDataplane9recv_loop0B8_
FNDA:0,_RNvMNtCsFtQQ2UsJ2c_7lb_quic13udp_dataplaneNtB2_8TokioUdp3new
FNDA:0,_RNvMNtCsFtQQ2UsJ2c_7lb_quic13udp_dataplaneNtB2_8TokioUdp4bind
FNDA:0,_RNvMNtCsFtQQ2UsJ2c_7lb_quic13udp_dataplaneNtB2_8TokioUdp6socket
FNDA:0,_RNvNtCsFtQQ2UsJ2c_7lb_quic13udp_dataplane16select_dataplane
FNDA:0,_RNvXs_NtCsFtQQ2UsJ2c_7lb_quic13udp_dataplaneNtB4_8TokioUdpNtB4_12UdpDataplane10local_addr
FNDA:0,_RNvXs_NtCsFtQQ2UsJ2c_7lb_quic13udp_dataplaneNtB4_8TokioUdpNtB4_12UdpDataplane7send_to
FNDA:0,_RNvXs_NtCsFtQQ2UsJ2c_7lb_quic13udp_dataplaneNtB4_8TokioUdpNtB4_12UdpDataplane9recv_loop
FNDA:0,_RNvXs_NtCsFtQQ2UsJ2c_7lb_quic13udp_dataplaneNtB4_8TokioUdpNtB4_12UdpDataplane9tier_name
FNDA:0,_RNCNvMNtCsFtQQ2UsJ2c_7lb_quic13udp_dataplaneNtB4_8TokioUdp4bind0B6_
FNDA:0,_RNCNvNtCsFtQQ2UsJ2c_7lb_quic13udp_dataplane16select_dataplane0B5_
FNDA:0,_RNvYpNtNtCsFtQQ2UsJ2c_7lb_quic13udp_dataplane12UdpDataplane11dcid_map_fdB7_
FNDA:2,_RNCNvMNtCsiNLkn7P4XgI_7lb_quic13udp_dataplaneNtB4_8TokioUdp4bind0B6_
FNDA:22,_RNCNvNtCsiNLkn7P4XgI_7lb_quic13udp_dataplane16select_dataplane0B5_
FNDA:2,_RNCNvXs_NtCsiNLkn7P4XgI_7lb_quic13udp_dataplaneNtB6_8TokioUdpNtB6_12UdpDataplane7send_to0B8_
FNDA:1,_RNCNvXs_NtCsiNLkn7P4XgI_7lb_quic13udp_dataplaneNtB6_8TokioUdpNtB6_12UdpDataplane9recv_loop0B8_
FNDA:22,_RNvMNtCsiNLkn7P4XgI_7lb_quic13udp_dataplaneNtB2_8TokioUdp3new
FNDA:2,_RNvMNtCsiNLkn7P4XgI_7lb_quic13udp_dataplaneNtB2_8TokioUdp4bind
FNDA:22,_RNvNtCsiNLkn7P4XgI_7lb_quic13udp_dataplane16select_dataplane
FNDA:3,_RNvXs_NtCsiNLkn7P4XgI_7lb_quic13udp_dataplaneNtB4_8TokioUdpNtB4_12UdpDataplane10local_addr
FNDA:2,_RNvXs_NtCsiNLkn7P4XgI_7lb_quic13udp_dataplaneNtB4_8TokioUdpNtB4_12UdpDataplane7send_to
FNDA:1,_RNvXs_NtCsiNLkn7P4XgI_7lb_quic13udp_dataplaneNtB4_8TokioUdpNtB4_12UdpDataplane9recv_loop
FNDA:1,_RNvXs_NtCsiNLkn7P4XgI_7lb_quic13udp_dataplaneNtB4_8TokioUdpNtB4_12UdpDataplane9tier_name
FNDA:1,_RNvYNtNtCsiNLkn7P4XgI_7lb_quic13udp_dataplane8TokioUdpNtB4_12UdpDataplane11dcid_map_fdB6_
FNDA:1,_RNCNCNCNvNtNtCsiNLkn7P4XgI_7lb_quic13udp_dataplane5testss_29tokio_udp_roundtrip_via_trait000Bb_
FNDA:1,_RNCNCNvNtNtCsiNLkn7P4XgI_7lb_quic13udp_dataplane5testss_29tokio_udp_roundtrip_via_trait00B9_
FNDA:1,_RNCNCNvNtNtCsiNLkn7P4XgI_7lb_quic13udp_dataplane5testss_29tokio_udp_roundtrip_via_trait0s_0B9_
FNDA:1,_RNCNvNtNtCsiNLkn7P4XgI_7lb_quic13udp_dataplane5testss_27tokio_udp_select_auto_binds0B7_
FNDA:1,_RNCNvNtNtCsiNLkn7P4XgI_7lb_quic13udp_dataplane5testss_29tokio_udp_roundtrip_via_trait0B7_
FNDA:1,_RNCNvNtNtCsiNLkn7P4XgI_7lb_quic13udp_dataplane5testss_29xdp_returns_unavailable_in_v10B7_
FNDA:1,_RNCNvNtNtCsiNLkn7P4XgI_7lb_quic13udp_dataplane5testss_33iouring_returns_unavailable_in_v10B7_
FNDA:1,_RNvNtNtCsiNLkn7P4XgI_7lb_quic13udp_dataplane5testss_27tokio_udp_select_auto_binds
FNDA:1,_RNvNtNtCsiNLkn7P4XgI_7lb_quic13udp_dataplane5testss_29tokio_udp_roundtrip_via_trait
FNDA:1,_RNvNtNtCsiNLkn7P4XgI_7lb_quic13udp_dataplane5testss_29xdp_returns_unavailable_in_v1
FNDA:1,_RNvNtNtCsiNLkn7P4XgI_7lb_quic13udp_dataplane5testss_33iouring_returns_unavailable_in_v1
FNDA:0,_RNvMNtCsiNLkn7P4XgI_7lb_quic13udp_dataplaneNtB2_8TokioUdp6socket
FNF:24
FNH:23
DA:129,1
DA:130,1
DA:131,1
DA:161,22
DA:162,22
DA:163,22
DA:164,22
DA:165,22
DA:167,20
DA:168,20
DA:169,20
DA:171,1
DA:172,1
DA:173,1
DA:174,1
DA:175,1
DA:176,1
DA:178,22
DA:198,22
DA:199,22
DA:200,22
DA:201,22
DA:202,22
DA:203,22
DA:204,22
DA:211,2
DA:212,2
DA:213,2
DA:214,2
DA:219,0
DA:220,0
DA:221,0
DA:225,3
DA:226,3
DA:227,3
DA:229,1
DA:230,1
DA:231,1
DA:232,1
DA:233,1
DA:234,1
DA:235,1
DA:236,1
DA:238,2
DA:240,2
DA:241,2
DA:242,1
DA:243,1
DA:244,1
DA:245,1
DA:246,1
DA:248,0
DA:249,0
DA:250,0
DA:251,0
DA:252,0
DA:258,1
DA:259,1
DA:261,2
DA:262,2
DA:263,2
DA:264,2
DA:265,2
DA:266,2
DA:267,2
DA:268,2
DA:269,2
DA:270,2
DA:271,2
DA:272,2
DA:274,1
DA:275,1
DA:276,1
DA:285,1
DA:286,1
DA:287,1
DA:288,1
DA:289,1
DA:290,1
DA:291,1
DA:292,1
DA:293,1
DA:296,1
DA:297,1
DA:298,1
DA:299,1
DA:300,1
DA:301,1
DA:302,1
DA:303,1
DA:306,1
DA:307,1
DA:308,1
DA:309,1
DA:310,1
DA:311,1
DA:312,1
DA:313,1
DA:314,1
DA:315,1
DA:316,1
DA:317,1
DA:318,1
DA:319,1
DA:322,1
DA:323,1
DA:324,1
DA:325,1
DA:326,1
DA:327,1
DA:328,1
DA:329,1
DA:330,1
DA:331,1
DA:332,1
DA:333,1
DA:334,1
DA:335,1
DA:336,1
DA:337,1
DA:338,1
DA:339,1
DA:340,1
DA:341,1
DA:342,1
DA:343,1
DA:344,1
DA:345,1
DA:346,1
DA:347,1
DA:348,1
DA:349,1
DA:350,1
DA:351,1
DA:352,1
DA:353,1
DA:354,1
DA:355,1
DA:356,1
DA:357,1
DA:358,1
DA:359,1
DA:360,1
DA:361,1
DA:362,1
DA:363,1
DA:364,1
DA:365,1
DA:366,1
DA:367,1
DA:368,1
DA:369,1
DA:370,1
DA:371,1
DA:372,1
DA:373,1
DA:374,1
DA:375,1
DA:376,1
DA:377,1
BRF:0
BRH:0
LF:247
LH:237
end_of_record