SF:/home/ubuntu/Code/ExpressGateway/.claude/worktrees/s15-builder/crates/lb-balancer/src/ewma.rs
FN:36,_RNCNvXs_NtCs4af85mSS6xr_11lb_balancer4ewmaNtB6_4EwmaNtB8_12LoadBalancer4pick0B8_
FN:19,_RNvMNtCs4af85mSS6xr_11lb_balancer4ewmaNtB2_4Ewma3new
FN:25,_RNvXs_NtCs4af85mSS6xr_11lb_balancer4ewmaNtB4_4EwmaNtB6_12LoadBalancer4pick
FN:36,_RNCNvXs_NtCsfmKboyMxW1X_11lb_balancer4ewmaNtB6_4EwmaNtB8_12LoadBalancer4pick0B8_
FN:19,_RNvMNtCsfmKboyMxW1X_11lb_balancer4ewmaNtB2_4Ewma3new
FN:25,_RNvXs_NtCsfmKboyMxW1X_11lb_balancer4ewmaNtB4_4EwmaNtB6_12LoadBalancer4pick
FN:74,_RNvNtNtCsfmKboyMxW1X_11lb_balancer4ewma5testss_17test_prefers_fast
FN:117,_RNvNtNtCsfmKboyMxW1X_11lb_balancer4ewma5testss_22test_accounts_for_load
FN:84,_RNvNtNtCsfmKboyMxW1X_11lb_balancer4ewma5testss_34test_cold_start_no_thundering_herd
FNDA:0,_RNCNvXs_NtCs4af85mSS6xr_11lb_balancer4ewmaNtB6_4EwmaNtB8_12LoadBalancer4pick0B8_
FNDA:0,_RNvMNtCs4af85mSS6xr_11lb_balancer4ewmaNtB2_4Ewma3new
FNDA:0,_RNvXs_NtCs4af85mSS6xr_11lb_balancer4ewmaNtB4_4EwmaNtB6_12LoadBalancer4pick
FNDA:0,_RNCNvXs_NtCsfmKboyMxW1X_11lb_balancer4ewmaNtB6_4EwmaNtB8_12LoadBalancer4pick0B8_
FNDA:0,_RNvMNtCsfmKboyMxW1X_11lb_balancer4ewmaNtB2_4Ewma3new
FNDA:0,_RNvXs_NtCsfmKboyMxW1X_11lb_balancer4ewmaNtB4_4EwmaNtB6_12LoadBalancer4pick
FNDA:0,_RNvNtNtCsfmKboyMxW1X_11lb_balancer4ewma5testss_17test_prefers_fast
FNDA:0,_RNvNtNtCsfmKboyMxW1X_11lb_balancer4ewma5testss_22test_accounts_for_load
FNDA:0,_RNvNtNtCsfmKboyMxW1X_11lb_balancer4ewma5testss_34test_cold_start_no_thundering_herd
FNF:6
FNH:0
DA:19,0
DA:20,0
DA:21,0
DA:25,0
DA:26,0
DA:27,0
DA:28,0
DA:29,0
DA:30,0
DA:31,0
DA:32,0
DA:33,0
DA:34,0
DA:35,0
DA:36,0
DA:37,0
DA:38,0
DA:39,0
DA:40,0
DA:42,0
DA:45,0
DA:46,0
DA:48,0
DA:50,0
DA:52,0
DA:54,0
DA:56,0
DA:57,0
DA:58,0
DA:59,0
DA:60,0
DA:61,0
DA:62,0
DA:65,0
DA:66,0
DA:74,0
DA:75,0
DA:76,0
DA:77,0
DA:78,0
DA:79,0
DA:80,0
DA:81,0
DA:84,0
DA:85,0
DA:86,0
DA:87,0
DA:88,0
DA:89,0
DA:90,0
DA:91,0
DA:92,0
DA:93,0
DA:94,0
DA:95,0
DA:96,0
DA:97,0
DA:98,0
DA:99,0
DA:100,0
DA:103,0
DA:104,0
DA:105,0
DA:106,0
DA:107,0
DA:108,0
DA:110,0
DA:111,0
DA:112,0
DA:114,0
DA:117,0
DA:118,0
DA:119,0
DA:120,0
DA:121,0
DA:122,0
DA:123,0
DA:124,0
DA:125,0
DA:126,0
DA:127,0
DA:128,0
BRF:0
BRH:0
LF:83
LH:0
end_of_record
SF:/home/ubuntu/Code/ExpressGateway/.claude/worktrees/s15-builder/crates/lb-balancer/src/least_connections.rs
FN:13,_RNvMNtCs4af85mSS6xr_11lb_balancer17least_connectionsNtB2_16LeastConnections3new
FN:19,_RNvXs_NtCs4af85mSS6xr_11lb_balancer17least_connectionsNtB4_16LeastConnectionsNtB6_12LoadBalancer4pick
FN:13,_RNvMNtCsfmKboyMxW1X_11lb_balancer17least_connectionsNtB2_16LeastConnections3new
FN:19,_RNvXs_NtCsfmKboyMxW1X_11lb_balancer17least_connectionsNtB4_16LeastConnectionsNtB6_12LoadBalancer4pick
FN:43,_RNvNtNtCsfmKboyMxW1X_11lb_balancer17least_connections5testss_18test_picks_minimum
FN:57,_RNvNtNtCsfmKboyMxW1X_11lb_balancer17least_connections5testss_24test_tie_breaks_by_index
FNDA:0,_RNvMNtCs4af85mSS6xr_11lb_balancer17least_connectionsNtB2_16LeastConnections3new
FNDA:0,_RNvXs_NtCs4af85mSS6xr_11lb_balancer17least_connectionsNtB4_16LeastConnectionsNtB6_12LoadBalancer4pick
FNDA:0,_RNvMNtCsfmKboyMxW1X_11lb_balancer17least_connectionsNtB2_16LeastConnections3new
FNDA:0,_RNvXs_NtCsfmKboyMxW1X_11lb_balancer17least_connectionsNtB4_16LeastConnectionsNtB6_12LoadBalancer4pick
FNDA:0,_RNvNtNtCsfmKboyMxW1X_11lb_balancer17least_connections5testss_18test_picks_minimum
FNDA:0,_RNvNtNtCsfmKboyMxW1X_11lb_balancer17least_connections5testss_24test_tie_breaks_by_index
FNF:4
FNH:0
DA:13,0
DA:14,0
DA:15,0
DA:19,0
DA:20,0
DA:21,0
DA:22,0
DA:23,0
DA:24,0
DA:25,0
DA:27,0
DA:28,0
DA:29,0
DA:30,0
DA:31,0
DA:34,0
DA:35,0
DA:43,0
DA:44,0
DA:45,0
DA:46,0
DA:47,0
DA:48,0
DA:49,0
DA:50,0
DA:51,0
DA:52,0
DA:53,0
DA:54,0
DA:57,0
DA:58,0
DA:59,0
DA:60,0
DA:61,0
DA:62,0
DA:63,0
DA:64,0
DA:65,0
DA:66,0
BRF:0
BRH:0
LF:39
LH:0
end_of_record
SF:/home/ubuntu/Code/ExpressGateway/.claude/worktrees/s15-builder/crates/lb-balancer/src/least_request.rs
FN:13,_RNvMNtCs4af85mSS6xr_11lb_balancer13least_requestNtB2_12LeastRequest3new
FN:19,_RNvXs_NtCs4af85mSS6xr_11lb_balancer13least_requestNtB4_12LeastRequestNtB6_12LoadBalancer4pick
FN:13,_RNvMNtCsfmKboyMxW1X_11lb_balancer13least_requestNtB2_12LeastRequest3new
FN:19,_RNvXs_NtCsfmKboyMxW1X_11lb_balancer13least_requestNtB4_12LeastRequestNtB6_12LoadBalancer4pick
FN:43,_RNvNtNtCsfmKboyMxW1X_11lb_balancer13least_request5testss_18test_picks_minimum
FNDA:0,_RNvMNtCs4af85mSS6xr_11lb_balancer13least_requestNtB2_12LeastRequest3new
FNDA:0,_RNvXs_NtCs4af85mSS6xr_11lb_balancer13least_requestNtB4_12LeastRequestNtB6_12LoadBalancer4pick
FNDA:0,_RNvMNtCsfmKboyMxW1X_11lb_balancer13least_requestNtB2_12LeastRequest3new
FNDA:0,_RNvXs_NtCsfmKboyMxW1X_11lb_balancer13least_requestNtB4_12LeastRequestNtB6_12LoadBalancer4pick
FNDA:0,_RNvNtNtCsfmKboyMxW1X_11lb_balancer13least_request5testss_18test_picks_minimum
FNF:3
FNH:0
DA:13,0
DA:14,0
DA:15,0
DA:19,0
DA:20,0
DA:21,0
DA:22,0
DA:23,0
DA:24,0
DA:25,0
DA:27,0
DA:28,0
DA:29,0
DA:30,0
DA:31,0
DA:34,0
DA:35,0
DA:43,0
DA:44,0
DA:45,0
DA:46,0
DA:47,0
DA:48,0
DA:49,0
DA:50,0
DA:51,0
DA:52,0
DA:53,0
DA:54,0
BRF:0
BRH:0
LF:29
LH:0
end_of_record
SF:/home/ubuntu/Code/ExpressGateway/.claude/worktrees/s15-builder/crates/lb-balancer/src/lib.rs
FN:106,_RINvMCs4af85mSS6xr_11lb_balancerNtB3_7Backend10with_stateReECsewiD5A7UbvU_21balancer_counter_sync
FN:89,_RINvMCs4af85mSS6xr_11lb_balancerNtB3_7Backend3newReECsewiD5A7UbvU_21balancer_counter_sync
FN:161,_RNvCs4af85mSS6xr_11lb_balancer21backend_identity_hash
FN:126,_RNvMCs4af85mSS6xr_11lb_balancerNtB2_7Backend15sync_from_state
FN:106,_RINvMCs4af85mSS6xr_11lb_balancerNtB3_7Backend10with_statepEB3_
FN:89,_RINvMCs4af85mSS6xr_11lb_balancerNtB3_7Backend3newpEB3_
FN:106,_RINvMCs4af85mSS6xr_11lb_balancerNtB3_7Backend10with_stateReECsi3VObE5sAU0_21balancer_counter_sync
FN:89,_RINvMCs4af85mSS6xr_11lb_balancerNtB3_7Backend3newReECsWQQfFBA19i_13balancer_ewma
FN:89,_RINvMCs4af85mSS6xr_11lb_balancerNtB3_7Backend3newReECsfElpSLsYIUa_26balancer_least_connections
FN:89,_RINvMCs4af85mSS6xr_11lb_balancerNtB3_7Backend3newReECslvJKpQjBbdt_22balancer_least_request
FN:89,_RINvMCs4af85mSS6xr_11lb_balancerNtB3_7Backend3newNtNtCs8GO9KFlE3Dq_5alloc6string6StringECs1LmvhLVRUq7_15balancer_maglev
FN:89,_RINvMCs4af85mSS6xr_11lb_balancerNtB3_7Backend3newNtNtCs8GO9KFlE3Dq_5alloc6string6StringECsgdXPYylA3r_12balancer_p2c
FN:89,_RINvMCs4af85mSS6xr_11lb_balancerNtB3_7Backend3newReECsgdXPYylA3r_12balancer_p2c
FN:89,_RINvMCs4af85mSS6xr_11lb_balancerNtB3_7Backend3newNtNtCs8GO9KFlE3Dq_5alloc6string6StringECs60J0ZISpOdM_15balancer_random
FN:89,_RINvMCs4af85mSS6xr_11lb_balancerNtB3_7Backend3newNtNtCs8GO9KFlE3Dq_5alloc6string6StringECsdqJa2mpJNnf_18balancer_ring_hash
FN:89,_RINvMCs4af85mSS6xr_11lb_balancerNtB3_7Backend3newNtNtCs8GO9KFlE3Dq_5alloc6string6StringECshJ0OmaOiwSl_20balancer_round_robin
FN:89,_RINvMCs4af85mSS6xr_11lb_balancerNtB3_7Backend3newReECshJ0OmaOiwSl_20balancer_round_robin
FN:89,_RINvMCs4af85mSS6xr_11lb_balancerNtB3_7Backend3newNtNtCs8GO9KFlE3Dq_5alloc6string6StringECsjksbyznIlvu_25balancer_session_affinity
FN:89,_RINvMCs4af85mSS6xr_11lb_balancerNtB3_7Backend3newReECsd3hn2XTVfi1_24balancer_weighted_random
FN:89,_RINvMCs4af85mSS6xr_11lb_balancerNtB3_7Backend3newReECs80PfnYooUKa_29balancer_weighted_round_robin
FN:89,_RINvMCs4af85mSS6xr_11lb_balancerNtB3_7Backend3newNtNtCs8GO9KFlE3Dq_5alloc6string6StringECs4A7o14EwR5Q_14expressgateway
FN:89,_RINvMCsfmKboyMxW1X_11lb_balancerNtB3_7Backend3newNtNtCs8GO9KFlE3Dq_5alloc6string6StringEB3_
FN:89,_RINvMCsfmKboyMxW1X_11lb_balancerNtB3_7Backend3newReEB3_
FN:161,_RNvCsfmKboyMxW1X_11lb_balancer21backend_identity_hash
FN:106,_RINvMCsfmKboyMxW1X_11lb_balancerNtB3_7Backend10with_statepEB3_
FN:126,_RNvMCsfmKboyMxW1X_11lb_balancerNtB2_7Backend15sync_from_state
FNDA:0,_RINvMCs4af85mSS6xr_11lb_balancerNtB3_7Backend10with_stateReECsewiD5A7UbvU_21balancer_counter_sync
FNDA:0,_RINvMCs4af85mSS6xr_11lb_balancerNtB3_7Backend3newReECsewiD5A7UbvU_21balancer_counter_sync
FNDA:31,_RNvCs4af85mSS6xr_11lb_balancer21backend_identity_hash
FNDA:0,_RNvMCs4af85mSS6xr_11lb_balancerNtB2_7Backend15sync_from_state
FNDA:0,_RINvMCs4af85mSS6xr_11lb_balancerNtB3_7Backend10with_statepEB3_
FNDA:0,_RINvMCs4af85mSS6xr_11lb_balancerNtB3_7Backend3newpEB3_
FNDA:0,_RINvMCs4af85mSS6xr_11lb_balancerNtB3_7Backend10with_stateReECsi3VObE5sAU0_21balancer_counter_sync
FNDA:0,_RINvMCs4af85mSS6xr_11lb_balancerNtB3_7Backend3newReECsWQQfFBA19i_13balancer_ewma
FNDA:0,_RINvMCs4af85mSS6xr_11lb_balancerNtB3_7Backend3newReECsfElpSLsYIUa_26balancer_least_connections
FNDA:0,_RINvMCs4af85mSS6xr_11lb_balancerNtB3_7Backend3newReECslvJKpQjBbdt_22balancer_least_request
FNDA:0,_RINvMCs4af85mSS6xr_11lb_balancerNtB3_7Backend3newNtNtCs8GO9KFlE3Dq_5alloc6string6StringECs1LmvhLVRUq7_15balancer_maglev
FNDA:0,_RINvMCs4af85mSS6xr_11lb_balancerNtB3_7Backend3newNtNtCs8GO9KFlE3Dq_5alloc6string6StringECsgdXPYylA3r_12balancer_p2c
FNDA:0,_RINvMCs4af85mSS6xr_11lb_balancerNtB3_7Backend3newReECsgdXPYylA3r_12balancer_p2c
FNDA:0,_RINvMCs4af85mSS6xr_11lb_balancerNtB3_7Backend3newNtNtCs8GO9KFlE3Dq_5alloc6string6StringECs60J0ZISpOdM_15balancer_random
FNDA:0,_RINvMCs4af85mSS6xr_11lb_balancerNtB3_7Backend3newNtNtCs8GO9KFlE3Dq_5alloc6string6StringECsdqJa2mpJNnf_18balancer_ring_hash
FNDA:0,_RINvMCs4af85mSS6xr_11lb_balancerNtB3_7Backend3newNtNtCs8GO9KFlE3Dq_5alloc6string6StringECshJ0OmaOiwSl_20balancer_round_robin
FNDA:0,_RINvMCs4af85mSS6xr_11lb_balancerNtB3_7Backend3newReECshJ0OmaOiwSl_20balancer_round_robin
FNDA:0,_RINvMCs4af85mSS6xr_11lb_balancerNtB3_7Backend3newNtNtCs8GO9KFlE3Dq_5alloc6string6StringECsjksbyznIlvu_25balancer_session_affinity
FNDA:0,_RINvMCs4af85mSS6xr_11lb_balancerNtB3_7Backend3newReECsd3hn2XTVfi1_24balancer_weighted_random
FNDA:0,_RINvMCs4af85mSS6xr_11lb_balancerNtB3_7Backend3newReECs80PfnYooUKa_29balancer_weighted_round_robin
FNDA:0,_RINvMCs4af85mSS6xr_11lb_balancerNtB3_7Backend3newNtNtCs8GO9KFlE3Dq_5alloc6string6StringECs4A7o14EwR5Q_14expressgateway
FNDA:0,_RINvMCsfmKboyMxW1X_11lb_balancerNtB3_7Backend3newNtNtCs8GO9KFlE3Dq_5alloc6string6StringEB3_
FNDA:0,_RINvMCsfmKboyMxW1X_11lb_balancerNtB3_7Backend3newReEB3_
FNDA:0,_RNvCsfmKboyMxW1X_11lb_balancer21backend_identity_hash
FNDA:0,_RINvMCsfmKboyMxW1X_11lb_balancerNtB3_7Backend10with_statepEB3_
FNDA:0,_RNvMCsfmKboyMxW1X_11lb_balancerNtB2_7Backend15sync_from_state
FNF:4
FNH:1
DA:89,0
DA:90,0
DA:91,0
DA:92,0
DA:93,0
DA:94,0
DA:95,0
DA:96,0
DA:97,0
DA:98,0
DA:106,0
DA:107,0
DA:108,0
DA:109,0
DA:110,0
DA:111,0
DA:112,0
DA:113,0
DA:114,0
DA:115,0
DA:116,0
DA:117,0
DA:118,0
DA:126,0
DA:127,0
DA:128,0
DA:130,0
DA:131,0
DA:132,0
DA:133,0
DA:134,0
DA:135,0
DA:136,0
DA:137,0
DA:138,0
DA:139,0
DA:140,0
DA:161,31
DA:162,31
DA:163,31
DA:164,31
DA:165,31
DA:166,31
DA:167,775
DA:168,775
DA:169,775
DA:170,775
DA:171,775
DA:173,31
DA:174,31
DA:175,31
DA:176,31
DA:177,31
DA:178,31
DA:179,31
DA:181,31
DA:182,31
BRF:0
BRH:0
LF:57
LH:20
end_of_record
SF:/home/ubuntu/Code/ExpressGateway/.claude/worktrees/s15-builder/crates/lb-balancer/src/maglev.rs
FN:86,_RNCNvMNtCs4af85mSS6xr_11lb_balancer6maglevNtB4_6Maglev8populate0B6_
FN:148,_RNCNvXs_NtCs4af85mSS6xr_11lb_balancer6maglevNtB6_6MaglevNtB8_17KeyedLoadBalancer13pick_with_key0B8_
FN:51,_RNvMNtCs4af85mSS6xr_11lb_balancer6maglevNtB2_6Maglev11permutation
FN:36,_RNvMNtCs4af85mSS6xr_11lb_balancer6maglevNtB2_6Maglev3new
FN:64,_RNvMNtCs4af85mSS6xr_11lb_balancer6maglevNtB2_6Maglev8hash_str
FN:81,_RNvMNtCs4af85mSS6xr_11lb_balancer6maglevNtB2_6Maglev8populate
FN:132,_RNvXs_NtCs4af85mSS6xr_11lb_balancer6maglevNtB4_6MaglevNtB6_17KeyedLoadBalancer13pick_with_key
FN:86,_RNCNvMNtCsfmKboyMxW1X_11lb_balancer6maglevNtB4_6Maglev8populate0B6_
FN:166,_RNCNvNtNtCsfmKboyMxW1X_11lb_balancer6maglev5tests13make_backends0B7_
FN:224,_RNCNvNtNtCsfmKboyMxW1X_11lb_balancer6maglev5testss_23test_minimal_disruption0B7_
FN:148,_RNCNvXs_NtCsfmKboyMxW1X_11lb_balancer6maglevNtB6_6MaglevNtB8_17KeyedLoadBalancer13pick_with_key0B8_
FN:51,_RNvMNtCsfmKboyMxW1X_11lb_balancer6maglevNtB2_6Maglev11permutation
FN:36,_RNvMNtCsfmKboyMxW1X_11lb_balancer6maglevNtB2_6Maglev3new
FN:64,_RNvMNtCsfmKboyMxW1X_11lb_balancer6maglevNtB2_6Maglev8hash_str
FN:81,_RNvMNtCsfmKboyMxW1X_11lb_balancer6maglevNtB2_6Maglev8populate
FN:164,_RNvNtNtCsfmKboyMxW1X_11lb_balancer6maglev5tests13make_backends
FN:171,_RNvNtNtCsfmKboyMxW1X_11lb_balancer6maglev5testss_23test_consistent_mapping
FN:206,_RNvNtNtCsfmKboyMxW1X_11lb_balancer6maglev5testss_23test_minimal_disruption
FN:183,_RNvNtNtCsfmKboyMxW1X_11lb_balancer6maglev5testss_27test_detects_stale_identity
FN:132,_RNvXs_NtCsfmKboyMxW1X_11lb_balancer6maglevNtB4_6MaglevNtB6_17KeyedLoadBalancer13pick_with_key
FNDA:18,_RNCNvMNtCs4af85mSS6xr_11lb_balancer6maglevNtB4_6Maglev8populate0B6_
FNDA:0,_RNCNvXs_NtCs4af85mSS6xr_11lb_balancer6maglevNtB6_6MaglevNtB8_17KeyedLoadBalancer13pick_with_key0B8_
FNDA:18,_RNvMNtCs4af85mSS6xr_11lb_balancer6maglevNtB2_6Maglev11permutation
FNDA:18,_RNvMNtCs4af85mSS6xr_11lb_balancer6maglevNtB2_6Maglev3new
FNDA:36,_RNvMNtCs4af85mSS6xr_11lb_balancer6maglevNtB2_6Maglev8hash_str
FNDA:18,_RNvMNtCs4af85mSS6xr_11lb_balancer6maglevNtB2_6Maglev8populate
FNDA:13,_RNvXs_NtCs4af85mSS6xr_11lb_balancer6maglevNtB4_6MaglevNtB6_17KeyedLoadBalancer13pick_with_key
FNDA:0,_RNCNvMNtCsfmKboyMxW1X_11lb_balancer6maglevNtB4_6Maglev8populate0B6_
FNDA:0,_RNCNvNtNtCsfmKboyMxW1X_11lb_balancer6maglev5tests13make_backends0B7_
FNDA:0,_RNCNvNtNtCsfmKboyMxW1X_11lb_balancer6maglev5testss_23test_minimal_disruption0B7_
FNDA:0,_RNCNvXs_NtCsfmKboyMxW1X_11lb_balancer6maglevNtB6_6MaglevNtB8_17KeyedLoadBalancer13pick_with_key0B8_
FNDA:0,_RNvMNtCsfmKboyMxW1X_11lb_balancer6maglevNtB2_6Maglev11permutation
FNDA:0,_RNvMNtCsfmKboyMxW1X_11lb_balancer6maglevNtB2_6Maglev3new
FNDA:0,_RNvMNtCsfmKboyMxW1X_11lb_balancer6maglevNtB2_6Maglev8hash_str
FNDA:0,_RNvMNtCsfmKboyMxW1X_11lb_balancer6maglevNtB2_6Maglev8populate
FNDA:0,_RNvNtNtCsfmKboyMxW1X_11lb_balancer6maglev5tests13make_backends
FNDA:0,_RNvNtNtCsfmKboyMxW1X_11lb_balancer6maglev5testss_23test_consistent_mapping
FNDA:0,_RNvNtNtCsfmKboyMxW1X_11lb_balancer6maglev5testss_23test_minimal_disruption
FNDA:0,_RNvNtNtCsfmKboyMxW1X_11lb_balancer6maglev5testss_27test_detects_stale_identity
FNDA:0,_RNvXs_NtCsfmKboyMxW1X_11lb_balancer6maglevNtB4_6MaglevNtB6_17KeyedLoadBalancer13pick_with_key
FNF:13
FNH:6
DA:36,18
DA:37,18
DA:38,0
DA:39,18
DA:40,18
DA:41,18
DA:42,18
DA:43,18
DA:44,18
DA:45,18
DA:46,18
DA:47,18
DA:51,18
DA:52,18
DA:53,18
DA:54,18
DA:55,18
DA:56,18
DA:57,18
DA:58,18
DA:59,18
DA:60,18
DA:61,18
DA:64,36
DA:65,36
DA:66,900
DA:67,900
DA:68,900
DA:69,900
DA:70,900
DA:72,36
DA:73,36
DA:74,36
DA:75,36
DA:76,36
DA:77,36
DA:78,36
DA:81,18
DA:82,18
DA:83,18
DA:84,18
DA:85,18
DA:86,18
DA:87,18
DA:88,18
DA:89,18
DA:90,18
DA:91,18
DA:93,1179684
DA:94,1179666
DA:95,1179666
DA:96,1179666
DA:97,0
DA:101,1179666
DA:102,1179666
DA:103,0
DA:105,1179666
DA:106,1179666
DA:107,0
DA:108,0
DA:109,0
DA:112,1179666
DA:113,1179666
DA:114,1179666
DA:115,1179666
DA:116,1179666
DA:117,1179666
DA:118,1179666
DA:119,1179666
DA:120,1179666
DA:121,18
DA:122,1179648
DA:126,18
DA:127,18
DA:132,13
DA:133,13
DA:134,0
DA:135,13
DA:136,13
DA:137,13
DA:140,0
DA:141,13
DA:142,13
DA:143,13
DA:144,13
DA:145,13
DA:146,13
DA:147,13
DA:148,13
DA:150,13
DA:151,0
DA:152,0
DA:153,0
DA:154,13
DA:155,13
DA:156,13
DA:157,13
DA:164,0
DA:165,0
DA:166,0
DA:167,0
DA:168,0
DA:171,0
DA:172,0
DA:173,0
DA:175,0
DA:176,0
DA:177,0
DA:178,0
DA:180,0
DA:183,0
DA:184,0
DA:185,0
DA:186,0
DA:187,0
DA:188,0
DA:189,0
DA:190,0
DA:191,0
DA:192,0
DA:193,0
DA:194,0
DA:195,0
DA:196,0
DA:197,0
DA:198,0
DA:199,0
DA:200,0
DA:201,0
DA:203,0
DA:206,0
DA:207,0
DA:208,0
DA:209,0
DA:210,0
DA:211,0
DA:212,0
DA:213,0
DA:214,0
DA:215,0
DA:216,0
DA:217,0
DA:218,0
DA:219,0
DA:220,0
DA:223,0
DA:224,0
DA:225,0
DA:226,0
DA:227,0
DA:229,0
DA:231,0
DA:232,0
BRF:0
BRH:0
LF:157
LH:87
end_of_record
SF:/home/ubuntu/Code/ExpressGateway/.claude/worktrees/s15-builder/crates/lb-balancer/src/p2c.rs
FN:19,_RNvMNtCs4af85mSS6xr_11lb_balancer3p2cINtB2_17PowerOfTwoChoicesNtNtNtCsimGHFe6hZgR_4rand4rngs6thread9ThreadRngE3newB4_
FN:61,_RNvNtCs4af85mSS6xr_11lb_balancer3p2c15with_thread_rng
FN:25,_RNvXININtCs4af85mSS6xr_11lb_balancer3p2cs_0pEINtB5_17PowerOfTwoChoicespENtB7_12LoadBalancer4pickB7_
FN:19,_RNvMNtCs4af85mSS6xr_11lb_balancer3p2cINtB2_17PowerOfTwoChoicesNtNtNtCsimGHFe6hZgR_4rand4rngs3std6StdRngE3newCsgdXPYylA3r_12balancer_p2c
FN:25,_RNvXs_NtCs4af85mSS6xr_11lb_balancer3p2cINtB4_17PowerOfTwoChoicesNtNtNtCsimGHFe6hZgR_4rand4rngs3std6StdRngENtB6_12LoadBalancer4pickCsgdXPYylA3r_12balancer_p2c
FN:75,_RNCNvNtNtCsfmKboyMxW1X_11lb_balancer3p2c5testss_26test_avoids_heavily_loaded0B7_
FN:19,_RNvMNtCsfmKboyMxW1X_11lb_balancer3p2cINtB2_17PowerOfTwoChoicesNtNtNtCsimGHFe6hZgR_4rand4rngs3std6StdRngE3newB4_
FN:72,_RNvNtNtCsfmKboyMxW1X_11lb_balancer3p2c5testss_26test_avoids_heavily_loaded
FN:25,_RNvXs_NtCsfmKboyMxW1X_11lb_balancer3p2cINtB4_17PowerOfTwoChoicesNtNtNtCsimGHFe6hZgR_4rand4rngs3std6StdRngENtB6_12LoadBalancer4pickB6_
FN:61,_RNvNtCsfmKboyMxW1X_11lb_balancer3p2c15with_thread_rng
FNDA:0,_RNvMNtCs4af85mSS6xr_11lb_balancer3p2cINtB2_17PowerOfTwoChoicesNtNtNtCsimGHFe6hZgR_4rand4rngs6thread9ThreadRngE3newB4_
FNDA:0,_RNvNtCs4af85mSS6xr_11lb_balancer3p2c15with_thread_rng
FNDA:0,_RNvXININtCs4af85mSS6xr_11lb_balancer3p2cs_0pEINtB5_17PowerOfTwoChoicespENtB7_12LoadBalancer4pickB7_
FNDA:0,_RNvMNtCs4af85mSS6xr_11lb_balancer3p2cINtB2_17PowerOfTwoChoicesNtNtNtCsimGHFe6hZgR_4rand4rngs3std6StdRngE3newCsgdXPYylA3r_12balancer_p2c
FNDA:0,_RNvXs_NtCs4af85mSS6xr_11lb_balancer3p2cINtB4_17PowerOfTwoChoicesNtNtNtCsimGHFe6hZgR_4rand4rngs3std6StdRngENtB6_12LoadBalancer4pickCsgdXPYylA3r_12balancer_p2c
FNDA:0,_RNCNvNtNtCsfmKboyMxW1X_11lb_balancer3p2c5testss_26test_avoids_heavily_loaded0B7_
FNDA:0,_RNvMNtCsfmKboyMxW1X_11lb_balancer3p2cINtB2_17PowerOfTwoChoicesNtNtNtCsimGHFe6hZgR_4rand4rngs3std6StdRngE3newB4_
FNDA:0,_RNvNtNtCsfmKboyMxW1X_11lb_balancer3p2c5testss_26test_avoids_heavily_loaded
FNDA:0,_RNvXs_NtCsfmKboyMxW1X_11lb_balancer3p2cINtB4_17PowerOfTwoChoicesNtNtNtCsimGHFe6hZgR_4rand4rngs3std6StdRngENtB6_12LoadBalancer4pickB6_
FNDA:0,_RNvNtCsfmKboyMxW1X_11lb_balancer3p2c15with_thread_rng
FNF:5
FNH:0
DA:19,0
DA:20,0
DA:21,0
DA:25,0
DA:26,0
DA:27,0
DA:28,0
DA:29,0
DA:30,0
DA:31,0
DA:32,0
DA:33,0
DA:34,0
DA:35,0
DA:36,0
DA:37,0
DA:38,0
DA:40,0
DA:41,0
DA:42,0
DA:43,0
DA:44,0
DA:45,0
DA:46,0
DA:48,0
DA:52,0
DA:53,0
DA:54,0
DA:56,0
DA:61,0
DA:62,0
DA:63,0
DA:72,0
DA:73,0
DA:74,0
DA:75,0
DA:76,0
DA:77,0
DA:78,0
DA:79,0
DA:80,0
DA:81,0
DA:82,0
DA:83,0
DA:84,0
DA:85,0
DA:86,0
DA:89,0
DA:90,0
DA:91,0
DA:92,0
DA:94,0
BRF:0
BRH:0
LF:53
LH:0
end_of_record
SF:/home/ubuntu/Code/ExpressGateway/.claude/worktrees/s15-builder/crates/lb-balancer/src/random.rs
FN:15,_RNvMNtCs4af85mSS6xr_11lb_balancer6randomINtB2_6RandomNtNtNtCsimGHFe6hZgR_4rand4rngs6thread9ThreadRngE3newB4_
FN:32,_RNvNtCs4af85mSS6xr_11lb_balancer6random15with_thread_rng
FN:21,_RNvXININtCs4af85mSS6xr_11lb_balancer6randoms_0pEINtB5_6RandompENtB7_12LoadBalancer4pickB7_
FN:15,_RNvMNtCs4af85mSS6xr_11lb_balancer6randomINtB2_6RandomNtNtNtCsimGHFe6hZgR_4rand4rngs3std6StdRngE3newCs60J0ZISpOdM_15balancer_random
FN:21,_RNvXs_NtCs4af85mSS6xr_11lb_balancer6randomINtB4_6RandomNtNtNtCsimGHFe6hZgR_4rand4rngs3std6StdRngENtB6_12LoadBalancer4pickCs60J0ZISpOdM_15balancer_random
FN:15,_RNvMNtCsfmKboyMxW1X_11lb_balancer6randomINtB2_6RandomNtNtNtCsimGHFe6hZgR_4rand4rngs3std6StdRngE3newB4_
FN:21,_RNvXs_NtCsfmKboyMxW1X_11lb_balancer6randomINtB4_6RandomNtNtNtCsimGHFe6hZgR_4rand4rngs3std6StdRngENtB6_12LoadBalancer4pickB6_
FN:46,_RNCNvNtNtCsfmKboyMxW1X_11lb_balancer6random5testss_25test_uniform_distribution0B7_
FN:43,_RNvNtNtCsfmKboyMxW1X_11lb_balancer6random5testss_25test_uniform_distribution
FN:32,_RNvNtCsfmKboyMxW1X_11lb_balancer6random15with_thread_rng
FNDA:0,_RNvMNtCs4af85mSS6xr_11lb_balancer6randomINtB2_6RandomNtNtNtCsimGHFe6hZgR_4rand4rngs6thread9ThreadRngE3newB4_
FNDA:0,_RNvNtCs4af85mSS6xr_11lb_balancer6random15with_thread_rng
FNDA:0,_RNvXININtCs4af85mSS6xr_11lb_balancer6randoms_0pEINtB5_6RandompENtB7_12LoadBalancer4pickB7_
FNDA:0,_RNvMNtCs4af85mSS6xr_11lb_balancer6randomINtB2_6RandomNtNtNtCsimGHFe6hZgR_4rand4rngs3std6StdRngE3newCs60J0ZISpOdM_15balancer_random
FNDA:0,_RNvXs_NtCs4af85mSS6xr_11lb_balancer6randomINtB4_6RandomNtNtNtCsimGHFe6hZgR_4rand4rngs3std6StdRngENtB6_12LoadBalancer4pickCs60J0ZISpOdM_15balancer_random
FNDA:0,_RNvMNtCsfmKboyMxW1X_11lb_balancer6randomINtB2_6RandomNtNtNtCsimGHFe6hZgR_4rand4rngs3std6StdRngE3newB4_
FNDA:0,_RNvXs_NtCsfmKboyMxW1X_11lb_balancer6randomINtB4_6RandomNtNtNtCsimGHFe6hZgR_4rand4rngs3std6StdRngENtB6_12LoadBalancer4pickB6_
FNDA:0,_RNCNvNtNtCsfmKboyMxW1X_11lb_balancer6random5testss_25test_uniform_distribution0B7_
FNDA:0,_RNvNtNtCsfmKboyMxW1X_11lb_balancer6random5testss_25test_uniform_distribution
FNDA:0,_RNvNtCsfmKboyMxW1X_11lb_balancer6random15with_thread_rng
FNF:5
FNH:0
DA:15,0
DA:16,0
DA:17,0
DA:21,0
DA:22,0
DA:23,0
DA:24,0
DA:25,0
DA:26,0
DA:27,0
DA:32,0
DA:33,0
DA:34,0
DA:43,0
DA:44,0
DA:45,0
DA:46,0
DA:47,0
DA:48,0
DA:49,0
DA:50,0
DA:51,0
DA:52,0
DA:54,0
DA:55,0
DA:56,0
DA:57,0
DA:60,0
BRF:0
BRH:0
LF:29
LH:0
end_of_record
SF:/home/ubuntu/Code/ExpressGateway/.claude/worktrees/s15-builder/crates/lb-balancer/src/ring_hash.rs
FN:50,_RNCNvMNtCs4af85mSS6xr_11lb_balancer9ring_hashNtB4_8RingHash3new0B6_
FN:107,_RNCNvXs_NtCs4af85mSS6xr_11lb_balancer9ring_hashNtB6_8RingHashNtB8_17KeyedLoadBalancer13pick_with_key0B8_
FN:121,_RNCNvXs_NtCs4af85mSS6xr_11lb_balancer9ring_hashNtB6_8RingHashNtB8_17KeyedLoadBalancer13pick_with_keys_0B8_
FN:60,_RNvMNtCs4af85mSS6xr_11lb_balancer9ring_hashNtB2_8RingHash10hash_vnode
FN:33,_RNvMNtCs4af85mSS6xr_11lb_balancer9ring_hashNtB2_8RingHash3new
FN:79,_RNvMNtCs4af85mSS6xr_11lb_balancer9ring_hashNtB2_8RingHash8hash_key
FN:91,_RNvXs_NtCs4af85mSS6xr_11lb_balancer9ring_hashNtB4_8RingHashNtB6_17KeyedLoadBalancer13pick_with_key
FN:50,_RNCNvMNtCsfmKboyMxW1X_11lb_balancer9ring_hashNtB4_8RingHash3new0B6_
FN:107,_RNCNvXs_NtCsfmKboyMxW1X_11lb_balancer9ring_hashNtB6_8RingHashNtB8_17KeyedLoadBalancer13pick_with_key0B8_
FN:121,_RNCNvXs_NtCsfmKboyMxW1X_11lb_balancer9ring_hashNtB6_8RingHashNtB8_17KeyedLoadBalancer13pick_with_keys_0B8_
FN:60,_RNvMNtCsfmKboyMxW1X_11lb_balancer9ring_hashNtB2_8RingHash10hash_vnode
FN:33,_RNvMNtCsfmKboyMxW1X_11lb_balancer9ring_hashNtB2_8RingHash3new
FN:79,_RNvMNtCsfmKboyMxW1X_11lb_balancer9ring_hashNtB2_8RingHash8hash_key
FN:91,_RNvXs_NtCsfmKboyMxW1X_11lb_balancer9ring_hashNtB4_8RingHashNtB6_17KeyedLoadBalancer13pick_with_key
FN:139,_RNCNvNtNtCsfmKboyMxW1X_11lb_balancer9ring_hash5tests13make_backends0B7_
FN:198,_RNCNvNtNtCsfmKboyMxW1X_11lb_balancer9ring_hash5testss_34test_minimal_disruption_on_removal0B7_
FN:137,_RNvNtNtCsfmKboyMxW1X_11lb_balancer9ring_hash5tests13make_backends
FN:144,_RNvNtNtCsfmKboyMxW1X_11lb_balancer9ring_hash5testss_15test_consistent
FN:156,_RNvNtNtCsfmKboyMxW1X_11lb_balancer9ring_hash5testss_27test_detects_stale_identity
FN:179,_RNvNtNtCsfmKboyMxW1X_11lb_balancer9ring_hash5testss_34test_minimal_disruption_on_removal
FNDA:0,_RNCNvMNtCs4af85mSS6xr_11lb_balancer9ring_hashNtB4_8RingHash3new0B6_
FNDA:0,_RNCNvXs_NtCs4af85mSS6xr_11lb_balancer9ring_hashNtB6_8RingHashNtB8_17KeyedLoadBalancer13pick_with_key0B8_
FNDA:0,_RNCNvXs_NtCs4af85mSS6xr_11lb_balancer9ring_hashNtB6_8RingHashNtB8_17KeyedLoadBalancer13pick_with_keys_0B8_
FNDA:0,_RNvMNtCs4af85mSS6xr_11lb_balancer9ring_hashNtB2_8RingHash10hash_vnode
FNDA:0,_RNvMNtCs4af85mSS6xr_11lb_balancer9ring_hashNtB2_8RingHash3new
FNDA:0,_RNvMNtCs4af85mSS6xr_11lb_balancer9ring_hashNtB2_8RingHash8hash_key
FNDA:0,_RNvXs_NtCs4af85mSS6xr_11lb_balancer9ring_hashNtB4_8RingHashNtB6_17KeyedLoadBalancer13pick_with_key
FNDA:0,_RNCNvMNtCsfmKboyMxW1X_11lb_balancer9ring_hashNtB4_8RingHash3new0B6_
FNDA:0,_RNCNvXs_NtCsfmKboyMxW1X_11lb_balancer9ring_hashNtB6_8RingHashNtB8_17KeyedLoadBalancer13pick_with_key0B8_
FNDA:0,_RNCNvXs_NtCsfmKboyMxW1X_11lb_balancer9ring_hashNtB6_8RingHashNtB8_17KeyedLoadBalancer13pick_with_keys_0B8_
FNDA:0,_RNvMNtCsfmKboyMxW1X_11lb_balancer9ring_hashNtB2_8RingHash10hash_vnode
FNDA:0,_RNvMNtCsfmKboyMxW1X_11lb_balancer9ring_hashNtB2_8RingHash3new
FNDA:0,_RNvMNtCsfmKboyMxW1X_11lb_balancer9ring_hashNtB2_8RingHash8hash_key
FNDA:0,_RNvXs_NtCsfmKboyMxW1X_11lb_balancer9ring_hashNtB4_8RingHashNtB6_17KeyedLoadBalancer13pick_with_key
FNDA:0,_RNCNvNtNtCsfmKboyMxW1X_11lb_balancer9ring_hash5tests13make_backends0B7_
FNDA:0,_RNCNvNtNtCsfmKboyMxW1X_11lb_balancer9ring_hash5testss_34test_minimal_disruption_on_removal0B7_
FNDA:0,_RNvNtNtCsfmKboyMxW1X_11lb_balancer9ring_hash5tests13make_backends
FNDA:0,_RNvNtNtCsfmKboyMxW1X_11lb_balancer9ring_hash5testss_15test_consistent
FNDA:0,_RNvNtNtCsfmKboyMxW1X_11lb_balancer9ring_hash5testss_27test_detects_stale_identity
FNDA:0,_RNvNtNtCsfmKboyMxW1X_11lb_balancer9ring_hash5testss_34test_minimal_disruption_on_removal
FNF:13
FNH:0
DA:33,0
DA:34,0
DA:35,0
DA:36,0
DA:37,0
DA:38,0
DA:40,0
DA:41,0
DA:42,0
DA:43,0
DA:44,0
DA:45,0
DA:46,0
DA:47,0
DA:50,0
DA:51,0
DA:52,0
DA:53,0
DA:54,0
DA:55,0
DA:56,0
DA:57,0
DA:60,0
DA:61,0
DA:62,0
DA:63,0
DA:64,0
DA:65,0
DA:67,0
DA:68,0
DA:69,0
DA:70,0
DA:71,0
DA:72,0
DA:73,0
DA:74,0
DA:75,0
DA:76,0
DA:79,0
DA:80,0
DA:81,0
DA:82,0
DA:83,0
DA:84,0
DA:85,0
DA:86,0
DA:87,0
DA:91,0
DA:92,0
DA:93,0
DA:94,0
DA:95,0
DA:96,0
DA:98,0
DA:99,0
DA:100,0
DA:101,0
DA:102,0
DA:103,0
DA:104,0
DA:107,0
DA:108,0
DA:109,0
DA:110,0
DA:111,0
DA:113,0
DA:118,0
DA:119,0
DA:120,0
DA:121,0
DA:123,0
DA:124,0
DA:125,0
DA:126,0
DA:127,0
DA:128,0
DA:129,0
DA:130,0
DA:137,0
DA:138,0
DA:139,0
DA:140,0
DA:141,0
DA:144,0
DA:145,0
DA:146,0
DA:148,0
DA:149,0
DA:150,0
DA:151,0
DA:153,0
DA:156,0
DA:157,0
DA:158,0
DA:159,0
DA:160,0
DA:161,0
DA:162,0
DA:163,0
DA:164,0
DA:165,0
DA:166,0
DA:167,0
DA:168,0
DA:169,0
DA:170,0
DA:171,0
DA:172,0
DA:173,0
DA:174,0
DA:176,0
DA:179,0
DA:180,0
DA:181,0
DA:182,0
DA:183,0
DA:184,0
DA:185,0
DA:186,0
DA:187,0
DA:188,0
DA:189,0
DA:190,0
DA:191,0
DA:192,0
DA:193,0
DA:197,0
DA:198,0
DA:199,0
DA:200,0
DA:201,0
DA:203,0
DA:205,0
DA:206,0
BRF:0
BRH:0
LF:139
LH:0
end_of_record
SF:/home/ubuntu/Code/ExpressGateway/.claude/worktrees/s15-builder/crates/lb-balancer/src/round_robin.rs
FN:14,_RNvMNtCs4af85mSS6xr_11lb_balancer11round_robinNtB2_10RoundRobin3new
FN:20,_RNvXs_NtCs4af85mSS6xr_11lb_balancer11round_robinNtB4_10RoundRobinNtB6_12LoadBalancer4pick
FN:14,_RNvMNtCsfmKboyMxW1X_11lb_balancer11round_robinNtB2_10RoundRobin3new
FN:20,_RNvXs_NtCsfmKboyMxW1X_11lb_balancer11round_robinNtB4_10RoundRobinNtB6_12LoadBalancer4pick
FN:37,_RNCNvNtNtCsfmKboyMxW1X_11lb_balancer11round_robin5testss_23test_cycles_through_all0B7_
FN:45,_RNvNtNtCsfmKboyMxW1X_11lb_balancer11round_robin5testss_19test_empty_backends
FN:35,_RNvNtNtCsfmKboyMxW1X_11lb_balancer11round_robin5testss_23test_cycles_through_all
FNDA:0,_RNvMNtCs4af85mSS6xr_11lb_balancer11round_robinNtB2_10RoundRobin3new
FNDA:0,_RNvXs_NtCs4af85mSS6xr_11lb_balancer11round_robinNtB4_10RoundRobinNtB6_12LoadBalancer4pick
FNDA:0,_RNvMNtCsfmKboyMxW1X_11lb_balancer11round_robinNtB2_10RoundRobin3new
FNDA:0,_RNvXs_NtCsfmKboyMxW1X_11lb_balancer11round_robinNtB4_10RoundRobinNtB6_12LoadBalancer4pick
FNDA:0,_RNCNvNtNtCsfmKboyMxW1X_11lb_balancer11round_robin5testss_23test_cycles_through_all0B7_
FNDA:0,_RNvNtNtCsfmKboyMxW1X_11lb_balancer11round_robin5testss_19test_empty_backends
FNDA:0,_RNvNtNtCsfmKboyMxW1X_11lb_balancer11round_robin5testss_23test_cycles_through_all
FNF:5
FNH:0
DA:14,0
DA:15,0
DA:16,0
DA:20,0
DA:21,0
DA:22,0
DA:23,0
DA:24,0
DA:25,0
DA:26,0
DA:27,0
DA:35,0
DA:36,0
DA:37,0
DA:38,0
DA:39,0
DA:40,0
DA:42,0
DA:45,0
DA:46,0
DA:47,0
DA:48,0
DA:49,0
BRF:0
BRH:0
LF:24
LH:0
end_of_record
SF:/home/ubuntu/Code/ExpressGateway/.claude/worktrees/s15-builder/crates/lb-balancer/src/session_affinity.rs
FN:24,_RNvMNtCs4af85mSS6xr_11lb_balancer16session_affinityNtB2_15SessionAffinity3mix
FN:19,_RNvMNtCs4af85mSS6xr_11lb_balancer16session_affinityNtB2_15SessionAffinity3new
FN:37,_RNvXs_NtCs4af85mSS6xr_11lb_balancer16session_affinityNtB4_15SessionAffinityNtB6_17KeyedLoadBalancer13pick_with_key
FN:24,_RNvMNtCsfmKboyMxW1X_11lb_balancer16session_affinityNtB2_15SessionAffinity3mix
FN:19,_RNvMNtCsfmKboyMxW1X_11lb_balancer16session_affinityNtB2_15SessionAffinity3new
FN:37,_RNvXs_NtCsfmKboyMxW1X_11lb_balancer16session_affinityNtB4_15SessionAffinityNtB6_17KeyedLoadBalancer13pick_with_key
FN:55,_RNCNvNtNtCsfmKboyMxW1X_11lb_balancer16session_affinity5testss_11test_sticky0B7_
FN:69,_RNCNvNtNtCsfmKboyMxW1X_11lb_balancer16session_affinity5testss_26test_different_keys_spread0B7_
FN:53,_RNvNtNtCsfmKboyMxW1X_11lb_balancer16session_affinity5testss_11test_sticky
FN:67,_RNvNtNtCsfmKboyMxW1X_11lb_balancer16session_affinity5testss_26test_different_keys_spread
FNDA:0,_RNvMNtCs4af85mSS6xr_11lb_balancer16session_affinityNtB2_15SessionAffinity3mix
FNDA:0,_RNvMNtCs4af85mSS6xr_11lb_balancer16session_affinityNtB2_15SessionAffinity3new
FNDA:0,_RNvXs_NtCs4af85mSS6xr_11lb_balancer16session_affinityNtB4_15SessionAffinityNtB6_17KeyedLoadBalancer13pick_with_key
FNDA:0,_RNvMNtCsfmKboyMxW1X_11lb_balancer16session_affinityNtB2_15SessionAffinity3mix
FNDA:0,_RNvMNtCsfmKboyMxW1X_11lb_balancer16session_affinityNtB2_15SessionAffinity3new
FNDA:0,_RNvXs_NtCsfmKboyMxW1X_11lb_balancer16session_affinityNtB4_15SessionAffinityNtB6_17KeyedLoadBalancer13pick_with_key
FNDA:0,_RNCNvNtNtCsfmKboyMxW1X_11lb_balancer16session_affinity5testss_11test_sticky0B7_
FNDA:0,_RNCNvNtNtCsfmKboyMxW1X_11lb_balancer16session_affinity5testss_26test_different_keys_spread0B7_
FNDA:0,_RNvNtNtCsfmKboyMxW1X_11lb_balancer16session_affinity5testss_11test_sticky
FNDA:0,_RNvNtNtCsfmKboyMxW1X_11lb_balancer16session_affinity5testss_26test_different_keys_spread
FNF:7
FNH:0
DA:19,0
DA:20,0
DA:21,0
DA:24,0
DA:25,0
DA:26,0
DA:27,0
DA:28,0
DA:29,0
DA:30,0
DA:31,0
DA:32,0
DA:37,0
DA:38,0
DA:39,0
DA:40,0
DA:41,0
DA:42,0
DA:43,0
DA:44,0
DA:45,0
DA:53,0
DA:54,0
DA:55,0
DA:57,0
DA:58,0
DA:59,0
DA:60,0
DA:61,0
DA:64,0
DA:67,0
DA:68,0
DA:69,0
DA:70,0
DA:71,0
DA:72,0
DA:73,0
DA:74,0
DA:75,0
DA:76,0
DA:78,0
DA:79,0
DA:80,0
DA:81,0
DA:84,0
BRF:0
BRH:0
LF:47
LH:0
end_of_record
SF:/home/ubuntu/Code/ExpressGateway/.claude/worktrees/s15-builder/crates/lb-balancer/src/weighted_random.rs
FN:16,_RNvMNtCs4af85mSS6xr_11lb_balancer15weighted_randomINtB2_14WeightedRandomNtNtNtCsimGHFe6hZgR_4rand4rngs6thread9ThreadRngE3newB4_
FN:49,_RNvNtCs4af85mSS6xr_11lb_balancer15weighted_random15with_thread_rng
FN:27,_RNCNvXININtCs4af85mSS6xr_11lb_balancer15weighted_randoms_0pEINtB7_14WeightedRandompENtB9_12LoadBalancer4pick0B9_
FN:22,_RNvXININtCs4af85mSS6xr_11lb_balancer15weighted_randoms_0pEINtB5_14WeightedRandompENtB7_12LoadBalancer4pickB7_
FN:27,_RNCNvXs_NtCs4af85mSS6xr_11lb_balancer15weighted_randomINtB6_14WeightedRandomNtNtNtCsimGHFe6hZgR_4rand4rngs3std6StdRngENtB8_12LoadBalancer4pick0Csd3hn2XTVfi1_24balancer_weighted_random
FN:16,_RNvMNtCs4af85mSS6xr_11lb_balancer15weighted_randomINtB2_14WeightedRandomNtNtNtCsimGHFe6hZgR_4rand4rngs3std6StdRngE3newCsd3hn2XTVfi1_24balancer_weighted_random
FN:22,_RNvXs_NtCs4af85mSS6xr_11lb_balancer15weighted_randomINtB4_14WeightedRandomNtNtNtCsimGHFe6hZgR_4rand4rngs3std6StdRngENtB6_12LoadBalancer4pickCsd3hn2XTVfi1_24balancer_weighted_random
FN:27,_RNCNvXs_NtCsfmKboyMxW1X_11lb_balancer15weighted_randomINtB6_14WeightedRandomNtNtNtCsimGHFe6hZgR_4rand4rngs3std6StdRngENtB8_12LoadBalancer4pick0B8_
FN:16,_RNvMNtCsfmKboyMxW1X_11lb_balancer15weighted_randomINtB2_14WeightedRandomNtNtNtCsimGHFe6hZgR_4rand4rngs3std6StdRngE3newB4_
FN:60,_RNvNtNtCsfmKboyMxW1X_11lb_balancer15weighted_random5testss_26test_weighted_distribution
FN:22,_RNvXs_NtCsfmKboyMxW1X_11lb_balancer15weighted_randomINtB4_14WeightedRandomNtNtNtCsimGHFe6hZgR_4rand4rngs3std6StdRngENtB6_12LoadBalancer4pickB6_
FN:49,_RNvNtCsfmKboyMxW1X_11lb_balancer15weighted_random15with_thread_rng
FNDA:0,_RNvMNtCs4af85mSS6xr_11lb_balancer15weighted_randomINtB2_14WeightedRandomNtNtNtCsimGHFe6hZgR_4rand4rngs6thread9ThreadRngE3newB4_
FNDA:0,_RNvNtCs4af85mSS6xr_11lb_balancer15weighted_random15with_thread_rng
FNDA:0,_RNCNvXININtCs4af85mSS6xr_11lb_balancer15weighted_randoms_0pEINtB7_14WeightedRandompENtB9_12LoadBalancer4pick0B9_
FNDA:0,_RNvXININtCs4af85mSS6xr_11lb_balancer15weighted_randoms_0pEINtB5_14WeightedRandompENtB7_12LoadBalancer4pickB7_
FNDA:0,_RNCNvXs_NtCs4af85mSS6xr_11lb_balancer15weighted_randomINtB6_14WeightedRandomNtNtNtCsimGHFe6hZgR_4rand4rngs3std6StdRngENtB8_12LoadBalancer4pick0Csd3hn2XTVfi1_24balancer_weighted_random
FNDA:0,_RNvMNtCs4af85mSS6xr_11lb_balancer15weighted_randomINtB2_14WeightedRandomNtNtNtCsimGHFe6hZgR_4rand4rngs3std6StdRngE3newCsd3hn2XTVfi1_24balancer_weighted_random
FNDA:0,_RNvXs_NtCs4af85mSS6xr_11lb_balancer15weighted_randomINtB4_14WeightedRandomNtNtNtCsimGHFe6hZgR_4rand4rngs3std6StdRngENtB6_12LoadBalancer4pickCsd3hn2XTVfi1_24balancer_weighted_random
FNDA:0,_RNCNvXs_NtCsfmKboyMxW1X_11lb_balancer15weighted_randomINtB6_14WeightedRandomNtNtNtCsimGHFe6hZgR_4rand4rngs3std6StdRngENtB8_12LoadBalancer4pick0B8_
FNDA:0,_RNvMNtCsfmKboyMxW1X_11lb_balancer15weighted_randomINtB2_14WeightedRandomNtNtNtCsimGHFe6hZgR_4rand4rngs3std6StdRngE3newB4_
FNDA:0,_RNvNtNtCsfmKboyMxW1X_11lb_balancer15weighted_random5testss_26test_weighted_distribution
FNDA:0,_RNvXs_NtCsfmKboyMxW1X_11lb_balancer15weighted_randomINtB4_14WeightedRandomNtNtNtCsimGHFe6hZgR_4rand4rngs3std6StdRngENtB6_12LoadBalancer4pickB6_
FNDA:0,_RNvNtCsfmKboyMxW1X_11lb_balancer15weighted_random15with_thread_rng
FNF:5
FNH:0
DA:16,0
DA:17,0
DA:18,0
DA:22,0
DA:23,0
DA:24,0
DA:25,0
DA:26,0
DA:27,0
DA:28,0
DA:29,0
DA:30,0
DA:31,0
DA:32,0
DA:33,0
DA:34,0
DA:35,0
DA:36,0
DA:37,0
DA:38,0
DA:43,0
DA:44,0
DA:49,0
DA:50,0
DA:51,0
DA:60,0
DA:61,0
DA:62,0
DA:63,0
DA:64,0
DA:65,0
DA:66,0
DA:67,0
DA:68,0
DA:69,0
DA:70,0
DA:71,0
DA:72,0
DA:73,0
DA:76,0
DA:77,0
DA:78,0
DA:79,0
BRF:0
BRH:0
LF:44
LH:0
end_of_record
SF:/home/ubuntu/Code/ExpressGateway/.claude/worktrees/s15-builder/crates/lb-balancer/src/weighted_round_robin.rs
FN:39,_RNCNvMNtCs4af85mSS6xr_11lb_balancer20weighted_round_robinNtB4_18WeightedRoundRobin12sync_weights0B6_
FN:43,_RNCNvMNtCs4af85mSS6xr_11lb_balancer20weighted_round_robinNtB4_18WeightedRoundRobin12sync_weightss_0B6_
FN:62,_RNCNvXs0_NtCs4af85mSS6xr_11lb_balancer20weighted_round_robinNtB7_18WeightedRoundRobinNtB9_12LoadBalancer4pick0B9_
FN:33,_RNvMNtCs4af85mSS6xr_11lb_balancer20weighted_round_robinNtB2_18WeightedRoundRobin12sync_weights
FN:24,_RNvMNtCs4af85mSS6xr_11lb_balancer20weighted_round_robinNtB2_18WeightedRoundRobin3new
FN:55,_RNvXs0_NtCs4af85mSS6xr_11lb_balancer20weighted_round_robinNtB5_18WeightedRoundRobinNtB7_12LoadBalancer4pick
FN:49,_RNvXs_NtCs4af85mSS6xr_11lb_balancer20weighted_round_robinNtB4_18WeightedRoundRobinNtNtCs2va5m0jqTTM_4core7default7Default7default
FN:39,_RNCNvMNtCsfmKboyMxW1X_11lb_balancer20weighted_round_robinNtB4_18WeightedRoundRobin12sync_weights0B6_
FN:43,_RNCNvMNtCsfmKboyMxW1X_11lb_balancer20weighted_round_robinNtB4_18WeightedRoundRobin12sync_weightss_0B6_
FN:62,_RNCNvXs0_NtCsfmKboyMxW1X_11lb_balancer20weighted_round_robinNtB7_18WeightedRoundRobinNtB9_12LoadBalancer4pick0B9_
FN:33,_RNvMNtCsfmKboyMxW1X_11lb_balancer20weighted_round_robinNtB2_18WeightedRoundRobin12sync_weights
FN:24,_RNvMNtCsfmKboyMxW1X_11lb_balancer20weighted_round_robinNtB2_18WeightedRoundRobin3new
FN:55,_RNvXs0_NtCsfmKboyMxW1X_11lb_balancer20weighted_round_robinNtB5_18WeightedRoundRobinNtB7_12LoadBalancer4pick
FN:116,_RNvNtNtCsfmKboyMxW1X_11lb_balancer20weighted_round_robin5testss_20test_all_zero_weight
FN:96,_RNvNtNtCsfmKboyMxW1X_11lb_balancer20weighted_round_robin5testss_24test_weight_proportional
FN:124,_RNvNtNtCsfmKboyMxW1X_11lb_balancer20weighted_round_robin5testss_33test_backend_removal_resets_state
FN:49,_RNvXs_NtCsfmKboyMxW1X_11lb_balancer20weighted_round_robinNtB4_18WeightedRoundRobinNtNtCs2va5m0jqTTM_4core7default7Default7default
FNDA:0,_RNCNvMNtCs4af85mSS6xr_11lb_balancer20weighted_round_robinNtB4_18WeightedRoundRobin12sync_weights0B6_
FNDA:0,_RNCNvMNtCs4af85mSS6xr_11lb_balancer20weighted_round_robinNtB4_18WeightedRoundRobin12sync_weightss_0B6_
FNDA:0,_RNCNvXs0_NtCs4af85mSS6xr_11lb_balancer20weighted_round_robinNtB7_18WeightedRoundRobinNtB9_12LoadBalancer4pick0B9_
FNDA:0,_RNvMNtCs4af85mSS6xr_11lb_balancer20weighted_round_robinNtB2_18WeightedRoundRobin12sync_weights
FNDA:0,_RNvMNtCs4af85mSS6xr_11lb_balancer20weighted_round_robinNtB2_18WeightedRoundRobin3new
FNDA:0,_RNvXs0_NtCs4af85mSS6xr_11lb_balancer20weighted_round_robinNtB5_18WeightedRoundRobinNtB7_12LoadBalancer4pick
FNDA:0,_RNvXs_NtCs4af85mSS6xr_11lb_balancer20weighted_round_robinNtB4_18WeightedRoundRobinNtNtCs2va5m0jqTTM_4core7default7Default7default
FNDA:0,_RNCNvMNtCsfmKboyMxW1X_11lb_balancer20weighted_round_robinNtB4_18WeightedRoundRobin12sync_weights0B6_
FNDA:0,_RNCNvMNtCsfmKboyMxW1X_11lb_balancer20weighted_round_robinNtB4_18WeightedRoundRobin12sync_weightss_0B6_
FNDA:0,_RNCNvXs0_NtCsfmKboyMxW1X_11lb_balancer20weighted_round_robinNtB7_18WeightedRoundRobinNtB9_12LoadBalancer4pick0B9_
FNDA:0,_RNvMNtCsfmKboyMxW1X_11lb_balancer20weighted_round_robinNtB2_18WeightedRoundRobin12sync_weights
FNDA:0,_RNvMNtCsfmKboyMxW1X_11lb_balancer20weighted_round_robinNtB2_18WeightedRoundRobin3new
FNDA:0,_RNvXs0_NtCsfmKboyMxW1X_11lb_balancer20weighted_round_robinNtB5_18WeightedRoundRobinNtB7_12LoadBalancer4pick
FNDA:0,_RNvNtNtCsfmKboyMxW1X_11lb_balancer20weighted_round_robin5testss_20test_all_zero_weight
FNDA:0,_RNvNtNtCsfmKboyMxW1X_11lb_balancer20weighted_round_robin5testss_24test_weight_proportional
FNDA:0,_RNvNtNtCsfmKboyMxW1X_11lb_balancer20weighted_round_robin5testss_33test_backend_removal_resets_state
FNDA:0,_RNvXs_NtCsfmKboyMxW1X_11lb_balancer20weighted_round_robinNtB4_18WeightedRoundRobinNtNtCs2va5m0jqTTM_4core7default7Default7default
FNF:10
FNH:0
DA:24,0
DA:25,0
DA:26,0
DA:27,0
DA:28,0
DA:29,0
DA:33,0
DA:34,0
DA:35,0
DA:36,0
DA:37,0
DA:38,0
DA:39,0
DA:41,0
DA:42,0
DA:43,0
DA:44,0
DA:45,0
DA:49,0
DA:50,0
DA:51,0
DA:55,0
DA:56,0
DA:57,0
DA:58,0
DA:59,0
DA:60,0
DA:61,0
DA:62,0
DA:63,0
DA:64,0
DA:65,0
DA:66,0
DA:67,0
DA:68,0
DA:69,0
DA:71,0
DA:72,0
DA:73,0
DA:74,0
DA:75,0
DA:76,0
DA:77,0
DA:78,0
DA:79,0
DA:83,0
DA:84,0
DA:85,0
DA:87,0
DA:88,0
DA:96,0
DA:97,0
DA:98,0
DA:99,0
DA:100,0
DA:101,0
DA:102,0
DA:103,0
DA:104,0
DA:105,0
DA:106,0
DA:107,0
DA:108,0
DA:110,0
DA:111,0
DA:112,0
DA:113,0
DA:116,0
DA:117,0
DA:118,0
DA:119,0
DA:120,0
DA:124,0
DA:125,0
DA:126,0
DA:127,0
DA:128,0
DA:129,0
DA:130,0
DA:131,0
DA:132,0
DA:133,0
DA:134,0
DA:135,0
DA:139,0
DA:140,0
DA:141,0
DA:142,0
DA:143,0
DA:144,0
DA:145,0
DA:146,0
DA:150,0
DA:151,0
DA:153,0
DA:155,0
DA:156,0
DA:158,0
DA:160,0
BRF:0
BRH:0
LF:102
LH:0
end_of_record
SF:/home/ubuntu/Code/ExpressGateway/.claude/worktrees/s15-builder/crates/lb-config/src/lib.rs
FN:364,_RNCNCNvMs_CsiX4zPZxtVqS_9lb_configNtB8_14ListenerConfig25effective_drain_jitter_ms00B8_
FN:350,_RNCNCNvMs_CsiX4zPZxtVqS_9lb_configNtB8_14ListenerConfig26effective_drain_timeout_ms00B8_
FN:1170,_RNCNvCsiX4zPZxtVqS_9lb_config16validate_runtime0B3_
FN:1517,_RNCNvCsiX4zPZxtVqS_9lb_config21validate_tls_listener0B3_
FN:1155,_RNCNvCsiX4zPZxtVqS_9lb_config22validate_observability0B3_
FN:1562,_RNCNvCsiX4zPZxtVqS_9lb_config22validate_quic_listener0B3_
FN:362,_RNCNvMs_CsiX4zPZxtVqS_9lb_configNtB6_14ListenerConfig25effective_drain_jitter_ms0B6_
FN:349,_RNCNvMs_CsiX4zPZxtVqS_9lb_configNtB6_14ListenerConfig26effective_drain_timeout_ms0B6_
FN:1095,_RNvCsiX4zPZxtVqS_9lb_config12parse_config
FN:1086,_RNvCsiX4zPZxtVqS_9lb_config14default_weight
FN:1105,_RNvCsiX4zPZxtVqS_9lb_config15validate_config
FN:1164,_RNvCsiX4zPZxtVqS_9lb_config16validate_runtime
FN:1291,_RNvCsiX4zPZxtVqS_9lb_config17validate_listener
FN:522,_RNvCsiX4zPZxtVqS_9lb_config18default_per_ip_cap
FN:731,_RNvCsiX4zPZxtVqS_9lb_config18default_ws_enabled
FN:1373,_RNvCsiX4zPZxtVqS_9lb_config19validate_grpc_block
FN:663,_RNvCsiX4zPZxtVqS_9lb_config20default_grpc_enabled
FN:1607,_RNvCsiX4zPZxtVqS_9lb_config20validate_passthrough
FN:1461,_RNvCsiX4zPZxtVqS_9lb_config21validate_backend_list
FN:1545,_RNvCsiX4zPZxtVqS_9lb_config21validate_h1s_listener
FN:1516,_RNvCsiX4zPZxtVqS_9lb_config21validate_tls_listener
FN:888,_RNvCsiX4zPZxtVqS_9lb_config22default_ticket_overlap
FN:1435,_RNvCsiX4zPZxtVqS_9lb_config22validate_http_timeouts
FN:1147,_RNvCsiX4zPZxtVqS_9lb_config22validate_observability
FN:1561,_RNvCsiX4zPZxtVqS_9lb_config22validate_quic_listener
FN:808,_RNvCsiX4zPZxtVqS_9lb_config23default_alt_svc_max_age
FN:849,_RNvCsiX4zPZxtVqS_9lb_config23default_body_timeout_ms
FN:857,_RNvCsiX4zPZxtVqS_9lb_config23default_head_timeout_ms
FN:884,_RNvCsiX4zPZxtVqS_9lb_config23default_ticket_interval
FN:735,_RNvCsiX4zPZxtVqS_9lb_config23default_ws_idle_timeout
FN:1485,_RNvCsiX4zPZxtVqS_9lb_config23validate_backend_h3_tls
FN:1082,_RNvCsiX4zPZxtVqS_9lb_config24default_backend_protocol
FN:470,_RNvCsiX4zPZxtVqS_9lb_config24default_drain_timeout_ms
FN:853,_RNvCsiX4zPZxtVqS_9lb_config24default_total_timeout_ms
FN:1078,_RNvCsiX4zPZxtVqS_9lb_config24default_verify_peer_true
FN:1394,_RNvCsiX4zPZxtVqS_9lb_config24validate_websocket_block
FN:667,_RNvCsiX4zPZxtVqS_9lb_config25default_grpc_max_deadline
FN:845,_RNvCsiX4zPZxtVqS_9lb_config25default_header_timeout_ms
FN:514,_RNvCsiX4zPZxtVqS_9lb_config26default_connect_timeout_ms
FN:490,_RNvCsiX4zPZxtVqS_9lb_config27default_readiness_settle_ms
FN:739,_RNvCsiX4zPZxtVqS_9lb_config27default_ws_max_message_size
FN:499,_RNvCsiX4zPZxtVqS_9lb_config28default_handshake_timeout_ms
FN:920,_RNvCsiX4zPZxtVqS_9lb_config28default_quic_idle_timeout_ms
FN:924,_RNvCsiX4zPZxtVqS_9lb_config29default_quic_recv_udp_payload
FN:323,_RNvCsiX4zPZxtVqS_9lb_config30default_max_keepalive_requests
FN:1031,_RNvCsiX4zPZxtVqS_9lb_config30default_passthrough_mint_retry
FN:671,_RNvCsiX4zPZxtVqS_9lb_config31default_grpc_health_synthesized
FN:506,_RNvCsiX4zPZxtVqS_9lb_config32default_max_inflight_connections
FN:442,_RNvCsiX4zPZxtVqS_9lb_config34default_watchdog_sweep_interval_ms
FN:430,_RNvCsiX4zPZxtVqS_9lb_config35default_watchdog_header_deadline_ms
FN:1010,_RNvCsiX4zPZxtVqS_9lb_config36default_passthrough_per_flow_backlog
FN:743,_RNvCsiX4zPZxtVqS_9lb_config37default_ws_ping_rate_limit_per_window
FN:751,_RNvCsiX4zPZxtVqS_9lb_config37default_ws_read_frame_timeout_seconds
FN:436,_RNvCsiX4zPZxtVqS_9lb_config38default_watchdog_body_progress_min_bps
FN:1023,_RNvCsiX4zPZxtVqS_9lb_config39default_passthrough_max_dcid_len_routed
FN:1003,_RNvCsiX4zPZxtVqS_9lb_config39default_passthrough_min_client_dcid_len
FN:997,_RNvCsiX4zPZxtVqS_9lb_config40default_passthrough_max_quic_connections
FN:317,_RNvCsiX4zPZxtVqS_9lb_config40default_xdp_new_flow_cap_per_sec_per_cpu
FN:747,_RNvCsiX4zPZxtVqS_9lb_config41default_ws_ping_rate_limit_window_seconds
FN:1017,_RNvCsiX4zPZxtVqS_9lb_config46default_passthrough_audit_throttle_window_secs
FN:333,_RNvMCsiX4zPZxtVqS_9lb_configNtB2_13RuntimeConfig25effective_drain_jitter_ms
FN:361,_RNvMs_CsiX4zPZxtVqS_9lb_configNtB4_14ListenerConfig25effective_drain_jitter_ms
FN:348,_RNvMs_CsiX4zPZxtVqS_9lb_configNtB4_14ListenerConfig26effective_drain_timeout_ms
FN:419,_RNvXs0_CsiX4zPZxtVqS_9lb_configNtB5_21RuntimeWatchdogConfigNtNtCs2va5m0jqTTM_4core7default7Default7default
FN:654,_RNvXs1_CsiX4zPZxtVqS_9lb_configNtB5_18GrpcListenerConfigNtNtCs2va5m0jqTTM_4core7default7Default7default
FN:719,_RNvXs2_CsiX4zPZxtVqS_9lb_configNtB5_15WebsocketConfigNtNtCs2va5m0jqTTM_4core7default7Default7default
FN:835,_RNvXs3_CsiX4zPZxtVqS_9lb_configNtB5_18HttpTimeoutsConfigNtNtCs2va5m0jqTTM_4core7default7Default7default
FN:364,_RNCNCNvMs_Cs3cntr94AB6F_9lb_configNtB8_14ListenerConfig25effective_drain_jitter_ms00B8_
FN:350,_RNCNCNvMs_Cs3cntr94AB6F_9lb_configNtB8_14ListenerConfig26effective_drain_timeout_ms00B8_
FN:1170,_RNCNvCs3cntr94AB6F_9lb_config16validate_runtime0B3_
FN:1517,_RNCNvCs3cntr94AB6F_9lb_config21validate_tls_listener0B3_
FN:1155,_RNCNvCs3cntr94AB6F_9lb_config22validate_observability0B3_
FN:1562,_RNCNvCs3cntr94AB6F_9lb_config22validate_quic_listener0B3_
FN:362,_RNCNvMs_Cs3cntr94AB6F_9lb_configNtB6_14ListenerConfig25effective_drain_jitter_ms0B6_
FN:349,_RNCNvMs_Cs3cntr94AB6F_9lb_configNtB6_14ListenerConfig26effective_drain_timeout_ms0B6_
FN:1095,_RNvCs3cntr94AB6F_9lb_config12parse_config
FN:1086,_RNvCs3cntr94AB6F_9lb_config14default_weight
FN:1105,_RNvCs3cntr94AB6F_9lb_config15validate_config
FN:1164,_RNvCs3cntr94AB6F_9lb_config16validate_runtime
FN:1291,_RNvCs3cntr94AB6F_9lb_config17validate_listener
FN:522,_RNvCs3cntr94AB6F_9lb_config18default_per_ip_cap
FN:731,_RNvCs3cntr94AB6F_9lb_config18default_ws_enabled
FN:1373,_RNvCs3cntr94AB6F_9lb_config19validate_grpc_block
FN:663,_RNvCs3cntr94AB6F_9lb_config20default_grpc_enabled
FN:1607,_RNvCs3cntr94AB6F_9lb_config20validate_passthrough
FN:1461,_RNvCs3cntr94AB6F_9lb_config21validate_backend_list
FN:1545,_RNvCs3cntr94AB6F_9lb_config21validate_h1s_listener
FN:1516,_RNvCs3cntr94AB6F_9lb_config21validate_tls_listener
FN:888,_RNvCs3cntr94AB6F_9lb_config22default_ticket_overlap
FN:1435,_RNvCs3cntr94AB6F_9lb_config22validate_http_timeouts
FN:1147,_RNvCs3cntr94AB6F_9lb_config22validate_observability
FN:1561,_RNvCs3cntr94AB6F_9lb_config22validate_quic_listener
FN:808,_RNvCs3cntr94AB6F_9lb_config23default_alt_svc_max_age
FN:849,_RNvCs3cntr94AB6F_9lb_config23default_body_timeout_ms
FN:857,_RNvCs3cntr94AB6F_9lb_config23default_head_timeout_ms
FN:884,_RNvCs3cntr94AB6F_9lb_config23default_ticket_interval
FN:735,_RNvCs3cntr94AB6F_9lb_config23default_ws_idle_timeout
FN:1485,_RNvCs3cntr94AB6F_9lb_config23validate_backend_h3_tls
FN:1082,_RNvCs3cntr94AB6F_9lb_config24default_backend_protocol
FN:470,_RNvCs3cntr94AB6F_9lb_config24default_drain_timeout_ms
FN:853,_RNvCs3cntr94AB6F_9lb_config24default_total_timeout_ms
FN:1078,_RNvCs3cntr94AB6F_9lb_config24default_verify_peer_true
FN:1394,_RNvCs3cntr94AB6F_9lb_config24validate_websocket_block
FN:667,_RNvCs3cntr94AB6F_9lb_config25default_grpc_max_deadline
FN:845,_RNvCs3cntr94AB6F_9lb_config25default_header_timeout_ms
FN:514,_RNvCs3cntr94AB6F_9lb_config26default_connect_timeout_ms
FN:490,_RNvCs3cntr94AB6F_9lb_config27default_readiness_settle_ms
FN:739,_RNvCs3cntr94AB6F_9lb_config27default_ws_max_message_size
FN:499,_RNvCs3cntr94AB6F_9lb_config28default_handshake_timeout_ms
FN:920,_RNvCs3cntr94AB6F_9lb_config28default_quic_idle_timeout_ms
FN:924,_RNvCs3cntr94AB6F_9lb_config29default_quic_recv_udp_payload
FN:323,_RNvCs3cntr94AB6F_9lb_config30default_max_keepalive_requests
FN:1031,_RNvCs3cntr94AB6F_9lb_config30default_passthrough_mint_retry
FN:671,_RNvCs3cntr94AB6F_9lb_config31default_grpc_health_synthesized
FN:506,_RNvCs3cntr94AB6F_9lb_config32default_max_inflight_connections
FN:442,_RNvCs3cntr94AB6F_9lb_config34default_watchdog_sweep_interval_ms
FN:430,_RNvCs3cntr94AB6F_9lb_config35default_watchdog_header_deadline_ms
FN:1010,_RNvCs3cntr94AB6F_9lb_config36default_passthrough_per_flow_backlog
FN:743,_RNvCs3cntr94AB6F_9lb_config37default_ws_ping_rate_limit_per_window
FN:751,_RNvCs3cntr94AB6F_9lb_config37default_ws_read_frame_timeout_seconds
FN:436,_RNvCs3cntr94AB6F_9lb_config38default_watchdog_body_progress_min_bps
FN:1023,_RNvCs3cntr94AB6F_9lb_config39default_passthrough_max_dcid_len_routed
FN:1003,_RNvCs3cntr94AB6F_9lb_config39default_passthrough_min_client_dcid_len
FN:997,_RNvCs3cntr94AB6F_9lb_config40default_passthrough_max_quic_connections
FN:317,_RNvCs3cntr94AB6F_9lb_config40default_xdp_new_flow_cap_per_sec_per_cpu
FN:747,_RNvCs3cntr94AB6F_9lb_config41default_ws_ping_rate_limit_window_seconds
FN:1017,_RNvCs3cntr94AB6F_9lb_config46default_passthrough_audit_throttle_window_secs
FN:333,_RNvMCs3cntr94AB6F_9lb_configNtB2_13RuntimeConfig25effective_drain_jitter_ms
FN:361,_RNvMs_Cs3cntr94AB6F_9lb_configNtB4_14ListenerConfig25effective_drain_jitter_ms
FN:348,_RNvMs_Cs3cntr94AB6F_9lb_configNtB4_14ListenerConfig26effective_drain_timeout_ms
FN:654,_RNvXs1_Cs3cntr94AB6F_9lb_configNtB5_18GrpcListenerConfigNtNtCs2va5m0jqTTM_4core7default7Default7default
FN:719,_RNvXs2_Cs3cntr94AB6F_9lb_configNtB5_15WebsocketConfigNtNtCs2va5m0jqTTM_4core7default7Default7default
FN:835,_RNvXs3_Cs3cntr94AB6F_9lb_configNtB5_18HttpTimeoutsConfigNtNtCs2va5m0jqTTM_4core7default7Default7default
FN:2463,_RNvNtCs3cntr94AB6F_9lb_config5tests12base_runtime
FN:2483,_RNvNtCs3cntr94AB6F_9lb_config5tests12min_listener
FN:2634,_RNvNtCs3cntr94AB6F_9lb_config5tests6pt_min
FN:1720,_RNvNtCs3cntr94AB6F_9lb_config5testss_11validate_ok
FN:1662,_RNvNtCs3cntr94AB6F_9lb_config5testss_16parse_valid_toml
FN:1675,_RNvNtCs3cntr94AB6F_9lb_config5testss_18parse_invalid_toml
FN:1797,_RNvNtCs3cntr94AB6F_9lb_config5testss_18parse_tls_listener
FN:1934,_RNvNtCs3cntr94AB6F_9lb_config5testss_19parse_quic_listener
FN:1694,_RNvNtCs3cntr94AB6F_9lb_config5testss_22validate_empty_address
FN:1681,_RNvNtCs3cntr94AB6F_9lb_config5testss_24validate_empty_listeners
FN:2225,_RNvNtCs3cntr94AB6F_9lb_config5testss_25parse_runtime_xdp_enabled
FN:1779,_RNvNtCs3cntr94AB6F_9lb_config5testss_26parse_config_with_backends
FN:2410,_RNvNtCs3cntr94AB6F_9lb_config5testss_28parse_h1s_listener_with_grpc
FN:1746,_RNvNtCs3cntr94AB6F_9lb_config5testss_30validate_empty_backend_address
FN:2146,_RNvNtCs3cntr94AB6F_9lb_config5testss_30validate_h1s_with_tls_block_ok
FN:2362,_RNvNtCs3cntr94AB6F_9lb_config5testss_32parse_h1_listener_with_websocket
FN:2343,_RNvNtCs3cntr94AB6F_9lb_config5testss_32parse_observability_metrics_bind
FN:2650,_RNvNtCs3cntr94AB6F_9lb_config5testss_32passthrough_only_config_is_valid
FN:1985,_RNvNtCs3cntr94AB6F_9lb_config5testss_32validate_quic_small_mtu_rejected
FN:2709,_RNvNtCs3cntr94AB6F_9lb_config5testss_34parse_passthrough_block_round_trip
FN:1846,_RNvNtCs3cntr94AB6F_9lb_config5testss_34validate_unknown_protocol_rejected
FN:2667,_RNvNtCs3cntr94AB6F_9lb_config5testss_35passthrough_empty_backends_rejected
FN:2113,_RNvNtCs3cntr94AB6F_9lb_config5testss_35validate_h1_with_tls_block_rejected
FN:1820,_RNvNtCs3cntr94AB6F_9lb_config5testss_35validate_tls_without_block_rejected
FN:2187,_RNvNtCs3cntr94AB6F_9lb_config5testss_35validate_zero_http_timeout_rejected
FN:1959,_RNvNtCs3cntr94AB6F_9lb_config5testss_36validate_quic_without_block_rejected
FN:1903,_RNvNtCs3cntr94AB6F_9lb_config5testss_37validate_tls_empty_cert_path_rejected
FN:2079,_RNvNtCs3cntr94AB6F_9lb_config5testss_39validate_h1s_without_tls_block_rejected
FN:2700,_RNvNtCs3cntr94AB6F_9lb_config5testss_40passthrough_defaults_match_owner_rulings
FN:2605,_RNvNtCs3cntr94AB6F_9lb_config5testss_40validate_observability_bad_bind_rejected
FN:2525,_RNvNtCs3cntr94AB6F_9lb_config5testss_41ops02_jitter_default_is_quarter_of_budget
FN:2542,_RNvNtCs3cntr94AB6F_9lb_config5testss_41ops10_per_listener_timeout_range_rejected
FN:2017,_RNvNtCs3cntr94AB6F_9lb_config5testss_42validate_backend_unknown_protocol_rejected
FN:2436,_RNvNtCs3cntr94AB6F_9lb_config5testss_42validate_grpc_on_non_h1s_listener_rejected
FN:2050,_RNvNtCs3cntr94AB6F_9lb_config5testss_43parse_h1_listener_with_alt_svc_and_timeouts
FN:2508,_RNvNtCs3cntr94AB6F_9lb_config5testss_44ops10_override_takes_precedence_over_runtime
FN:2579,_RNvNtCs3cntr94AB6F_9lb_config5testss_46ops02_gateway_jitter_exceeding_budget_rejected
FN:2331,_RNvNtCs3cntr94AB6F_9lb_config5testss_46runtime_absent_keeps_parse_backward_compatible
FN:2246,_RNvNtCs3cntr94AB6F_9lb_config5testss_46runtime_xdp_enabled_without_interface_rejected
FN:2289,_RNvNtCs3cntr94AB6F_9lb_config5testss_47runtime_xdp_disabled_does_not_require_interface
FN:2682,_RNvNtCs3cntr94AB6F_9lb_config5testss_48passthrough_min_client_dcid_below_floor_rejected
FN:1872,_RNvNtCs3cntr94AB6F_9lb_config5testss_48validate_tls_block_without_tls_protocol_rejected
FN:2384,_RNvNtCs3cntr94AB6F_9lb_config5testss_48validate_websocket_on_non_http_listener_rejected
FN:2597,_RNvNtCs3cntr94AB6F_9lb_config5testss_49ops11_readiness_settle_default_is_kubelet_aligned
FN:2557,_RNvNtCs3cntr94AB6F_9lb_config5testss_57ops02_listener_jitter_exceeding_inherited_budget_rejected
FN:419,_RNvXs0_Cs3cntr94AB6F_9lb_configNtB5_21RuntimeWatchdogConfigNtNtCs2va5m0jqTTM_4core7default7Default7default
FNDA:0,_RNCNCNvMs_CsiX4zPZxtVqS_9lb_configNtB8_14ListenerConfig25effective_drain_jitter_ms00B8_
FNDA:0,_RNCNCNvMs_CsiX4zPZxtVqS_9lb_configNtB8_14ListenerConfig26effective_drain_timeout_ms00B8_
FNDA:0,_RNCNvCsiX4zPZxtVqS_9lb_config16validate_runtime0B3_
FNDA:0,_RNCNvCsiX4zPZxtVqS_9lb_config21validate_tls_listener0B3_
FNDA:0,_RNCNvCsiX4zPZxtVqS_9lb_config22validate_observability0B3_
FNDA:0,_RNCNvCsiX4zPZxtVqS_9lb_config22validate_quic_listener0B3_
FNDA:0,_RNCNvMs_CsiX4zPZxtVqS_9lb_configNtB6_14ListenerConfig25effective_drain_jitter_ms0B6_
FNDA:0,_RNCNvMs_CsiX4zPZxtVqS_9lb_configNtB6_14ListenerConfig26effective_drain_timeout_ms0B6_
FNDA:0,_RNvCsiX4zPZxtVqS_9lb_config12parse_config
FNDA:0,_RNvCsiX4zPZxtVqS_9lb_config14default_weight
FNDA:0,_RNvCsiX4zPZxtVqS_9lb_config15validate_config
FNDA:0,_RNvCsiX4zPZxtVqS_9lb_config16validate_runtime
FNDA:0,_RNvCsiX4zPZxtVqS_9lb_config17validate_listener
FNDA:0,_RNvCsiX4zPZxtVqS_9lb_config18default_per_ip_cap
FNDA:0,_RNvCsiX4zPZxtVqS_9lb_config18default_ws_enabled
FNDA:0,_RNvCsiX4zPZxtVqS_9lb_config19validate_grpc_block
FNDA:0,_RNvCsiX4zPZxtVqS_9lb_config20default_grpc_enabled
FNDA:0,_RNvCsiX4zPZxtVqS_9lb_config20validate_passthrough
FNDA:0,_RNvCsiX4zPZxtVqS_9lb_config21validate_backend_list
FNDA:0,_RNvCsiX4zPZxtVqS_9lb_config21validate_h1s_listener
FNDA:0,_RNvCsiX4zPZxtVqS_9lb_config21validate_tls_listener
FNDA:0,_RNvCsiX4zPZxtVqS_9lb_config22default_ticket_overlap
FNDA:0,_RNvCsiX4zPZxtVqS_9lb_config22validate_http_timeouts
FNDA:0,_RNvCsiX4zPZxtVqS_9lb_config22validate_observability
FNDA:0,_RNvCsiX4zPZxtVqS_9lb_config22validate_quic_listener
FNDA:0,_RNvCsiX4zPZxtVqS_9lb_config23default_alt_svc_max_age
FNDA:0,_RNvCsiX4zPZxtVqS_9lb_config23default_body_timeout_ms
FNDA:0,_RNvCsiX4zPZxtVqS_9lb_config23default_head_timeout_ms
FNDA:0,_RNvCsiX4zPZxtVqS_9lb_config23default_ticket_interval
FNDA:0,_RNvCsiX4zPZxtVqS_9lb_config23default_ws_idle_timeout
FNDA:0,_RNvCsiX4zPZxtVqS_9lb_config23validate_backend_h3_tls
FNDA:0,_RNvCsiX4zPZxtVqS_9lb_config24default_backend_protocol
FNDA:0,_RNvCsiX4zPZxtVqS_9lb_config24default_drain_timeout_ms
FNDA:0,_RNvCsiX4zPZxtVqS_9lb_config24default_total_timeout_ms
FNDA:0,_RNvCsiX4zPZxtVqS_9lb_config24default_verify_peer_true
FNDA:0,_RNvCsiX4zPZxtVqS_9lb_config24validate_websocket_block
FNDA:0,_RNvCsiX4zPZxtVqS_9lb_config25default_grpc_max_deadline
FNDA:0,_RNvCsiX4zPZxtVqS_9lb_config25default_header_timeout_ms
FNDA:0,_RNvCsiX4zPZxtVqS_9lb_config26default_connect_timeout_ms
FNDA:0,_RNvCsiX4zPZxtVqS_9lb_config27default_readiness_settle_ms
FNDA:0,_RNvCsiX4zPZxtVqS_9lb_config27default_ws_max_message_size
FNDA:0,_RNvCsiX4zPZxtVqS_9lb_config28default_handshake_timeout_ms
FNDA:0,_RNvCsiX4zPZxtVqS_9lb_config28default_quic_idle_timeout_ms
FNDA:0,_RNvCsiX4zPZxtVqS_9lb_config29default_quic_recv_udp_payload
FNDA:0,_RNvCsiX4zPZxtVqS_9lb_config30default_max_keepalive_requests
FNDA:0,_RNvCsiX4zPZxtVqS_9lb_config30default_passthrough_mint_retry
FNDA:0,_RNvCsiX4zPZxtVqS_9lb_config31default_grpc_health_synthesized
FNDA:0,_RNvCsiX4zPZxtVqS_9lb_config32default_max_inflight_connections
FNDA:0,_RNvCsiX4zPZxtVqS_9lb_config34default_watchdog_sweep_interval_ms
FNDA:0,_RNvCsiX4zPZxtVqS_9lb_config35default_watchdog_header_deadline_ms
FNDA:0,_RNvCsiX4zPZxtVqS_9lb_config36default_passthrough_per_flow_backlog
FNDA:0,_RNvCsiX4zPZxtVqS_9lb_config37default_ws_ping_rate_limit_per_window
FNDA:0,_RNvCsiX4zPZxtVqS_9lb_config37default_ws_read_frame_timeout_seconds
FNDA:0,_RNvCsiX4zPZxtVqS_9lb_config38default_watchdog_body_progress_min_bps
FNDA:0,_RNvCsiX4zPZxtVqS_9lb_config39default_passthrough_max_dcid_len_routed
FNDA:0,_RNvCsiX4zPZxtVqS_9lb_config39default_passthrough_min_client_dcid_len
FNDA:0,_RNvCsiX4zPZxtVqS_9lb_config40default_passthrough_max_quic_connections
FNDA:0,_RNvCsiX4zPZxtVqS_9lb_config40default_xdp_new_flow_cap_per_sec_per_cpu
FNDA:0,_RNvCsiX4zPZxtVqS_9lb_config41default_ws_ping_rate_limit_window_seconds
FNDA:0,_RNvCsiX4zPZxtVqS_9lb_config46default_passthrough_audit_throttle_window_secs
FNDA:0,_RNvMCsiX4zPZxtVqS_9lb_configNtB2_13RuntimeConfig25effective_drain_jitter_ms
FNDA:0,_RNvMs_CsiX4zPZxtVqS_9lb_configNtB4_14ListenerConfig25effective_drain_jitter_ms
FNDA:0,_RNvMs_CsiX4zPZxtVqS_9lb_configNtB4_14ListenerConfig26effective_drain_timeout_ms
FNDA:0,_RNvXs0_CsiX4zPZxtVqS_9lb_configNtB5_21RuntimeWatchdogConfigNtNtCs2va5m0jqTTM_4core7default7Default7default
FNDA:0,_RNvXs1_CsiX4zPZxtVqS_9lb_configNtB5_18GrpcListenerConfigNtNtCs2va5m0jqTTM_4core7default7Default7default
FNDA:0,_RNvXs2_CsiX4zPZxtVqS_9lb_configNtB5_15WebsocketConfigNtNtCs2va5m0jqTTM_4core7default7Default7default
FNDA:0,_RNvXs3_CsiX4zPZxtVqS_9lb_configNtB5_18HttpTimeoutsConfigNtNtCs2va5m0jqTTM_4core7default7Default7default
FNDA:1,_RNCNCNvMs_Cs3cntr94AB6F_9lb_configNtB8_14ListenerConfig25effective_drain_jitter_ms00B8_
FNDA:0,_RNCNCNvMs_Cs3cntr94AB6F_9lb_configNtB8_14ListenerConfig26effective_drain_timeout_ms00B8_
FNDA:0,_RNCNvCs3cntr94AB6F_9lb_config16validate_runtime0B3_
FNDA:0,_RNCNvCs3cntr94AB6F_9lb_config21validate_tls_listener0B3_
FNDA:0,_RNCNvCs3cntr94AB6F_9lb_config22validate_observability0B3_
FNDA:0,_RNCNvCs3cntr94AB6F_9lb_config22validate_quic_listener0B3_
FNDA:1,_RNCNvMs_Cs3cntr94AB6F_9lb_configNtB6_14ListenerConfig25effective_drain_jitter_ms0B6_
FNDA:1,_RNCNvMs_Cs3cntr94AB6F_9lb_configNtB6_14ListenerConfig26effective_drain_timeout_ms0B6_
FNDA:1,_RNvCs3cntr94AB6F_9lb_config12parse_config
FNDA:0,_RNvCs3cntr94AB6F_9lb_config14default_weight
FNDA:4,_RNvCs3cntr94AB6F_9lb_config15validate_config
FNDA:0,_RNvCs3cntr94AB6F_9lb_config16validate_runtime
FNDA:1,_RNvCs3cntr94AB6F_9lb_config17validate_listener
FNDA:0,_RNvCs3cntr94AB6F_9lb_config18default_per_ip_cap
FNDA:0,_RNvCs3cntr94AB6F_9lb_config18default_ws_enabled
FNDA:1,_RNvCs3cntr94AB6F_9lb_config19validate_grpc_block
FNDA:0,_RNvCs3cntr94AB6F_9lb_config20default_grpc_enabled
FNDA:4,_RNvCs3cntr94AB6F_9lb_config20validate_passthrough
FNDA:1,_RNvCs3cntr94AB6F_9lb_config21validate_backend_list
FNDA:0,_RNvCs3cntr94AB6F_9lb_config21validate_h1s_listener
FNDA:0,_RNvCs3cntr94AB6F_9lb_config21validate_tls_listener
FNDA:0,_RNvCs3cntr94AB6F_9lb_config22default_ticket_overlap
FNDA:1,_RNvCs3cntr94AB6F_9lb_config22validate_http_timeouts
FNDA:0,_RNvCs3cntr94AB6F_9lb_config22validate_observability
FNDA:0,_RNvCs3cntr94AB6F_9lb_config22validate_quic_listener
FNDA:0,_RNvCs3cntr94AB6F_9lb_config23default_alt_svc_max_age
FNDA:0,_RNvCs3cntr94AB6F_9lb_config23default_body_timeout_ms
FNDA:0,_RNvCs3cntr94AB6F_9lb_config23default_head_timeout_ms
FNDA:0,_RNvCs3cntr94AB6F_9lb_config23default_ticket_interval
FNDA:0,_RNvCs3cntr94AB6F_9lb_config23default_ws_idle_timeout
FNDA:0,_RNvCs3cntr94AB6F_9lb_config23validate_backend_h3_tls
FNDA:0,_RNvCs3cntr94AB6F_9lb_config24default_backend_protocol
FNDA:2,_RNvCs3cntr94AB6F_9lb_config24default_drain_timeout_ms
FNDA:0,_RNvCs3cntr94AB6F_9lb_config24default_total_timeout_ms
FNDA:0,_RNvCs3cntr94AB6F_9lb_config24default_verify_peer_true
FNDA:1,_RNvCs3cntr94AB6F_9lb_config24validate_websocket_block
FNDA:0,_RNvCs3cntr94AB6F_9lb_config25default_grpc_max_deadline
FNDA:0,_RNvCs3cntr94AB6F_9lb_config25default_header_timeout_ms
FNDA:0,_RNvCs3cntr94AB6F_9lb_config26default_connect_timeout_ms
FNDA:0,_RNvCs3cntr94AB6F_9lb_config27default_readiness_settle_ms
FNDA:0,_RNvCs3cntr94AB6F_9lb_config27default_ws_max_message_size
FNDA:0,_RNvCs3cntr94AB6F_9lb_config28default_handshake_timeout_ms
FNDA:0,_RNvCs3cntr94AB6F_9lb_config28default_quic_idle_timeout_ms
FNDA:0,_RNvCs3cntr94AB6F_9lb_config29default_quic_recv_udp_payload
FNDA:0,_RNvCs3cntr94AB6F_9lb_config30default_max_keepalive_requests
FNDA:4,_RNvCs3cntr94AB6F_9lb_config30default_passthrough_mint_retry
FNDA:0,_RNvCs3cntr94AB6F_9lb_config31default_grpc_health_synthesized
FNDA:0,_RNvCs3cntr94AB6F_9lb_config32default_max_inflight_connections
FNDA:0,_RNvCs3cntr94AB6F_9lb_config34default_watchdog_sweep_interval_ms
FNDA:0,_RNvCs3cntr94AB6F_9lb_config35default_watchdog_header_deadline_ms
FNDA:5,_RNvCs3cntr94AB6F_9lb_config36default_passthrough_per_flow_backlog
FNDA:0,_RNvCs3cntr94AB6F_9lb_config37default_ws_ping_rate_limit_per_window
FNDA:0,_RNvCs3cntr94AB6F_9lb_config37default_ws_read_frame_timeout_seconds
FNDA:0,_RNvCs3cntr94AB6F_9lb_config38default_watchdog_body_progress_min_bps
FNDA:5,_RNvCs3cntr94AB6F_9lb_config39default_passthrough_max_dcid_len_routed
FNDA:5,_RNvCs3cntr94AB6F_9lb_config39default_passthrough_min_client_dcid_len
FNDA:5,_RNvCs3cntr94AB6F_9lb_config40default_passthrough_max_quic_connections
FNDA:0,_RNvCs3cntr94AB6F_9lb_config40default_xdp_new_flow_cap_per_sec_per_cpu
FNDA:0,_RNvCs3cntr94AB6F_9lb_config41default_ws_ping_rate_limit_window_seconds
FNDA:5,_RNvCs3cntr94AB6F_9lb_config46default_passthrough_audit_throttle_window_secs
FNDA:0,_RNvMCs3cntr94AB6F_9lb_configNtB2_13RuntimeConfig25effective_drain_jitter_ms
FNDA:1,_RNvMs_Cs3cntr94AB6F_9lb_configNtB4_14ListenerConfig25effective_drain_jitter_ms
FNDA:1,_RNvMs_Cs3cntr94AB6F_9lb_configNtB4_14ListenerConfig26effective_drain_timeout_ms
FNDA:0,_RNvXs1_Cs3cntr94AB6F_9lb_configNtB5_18GrpcListenerConfigNtNtCs2va5m0jqTTM_4core7default7Default7default
FNDA:0,_RNvXs2_Cs3cntr94AB6F_9lb_configNtB5_15WebsocketConfigNtNtCs2va5m0jqTTM_4core7default7Default7default
FNDA:0,_RNvXs3_Cs3cntr94AB6F_9lb_configNtB5_18HttpTimeoutsConfigNtNtCs2va5m0jqTTM_4core7default7Default7default
FNDA:0,_RNvNtCs3cntr94AB6F_9lb_config5tests12base_runtime
FNDA:0,_RNvNtCs3cntr94AB6F_9lb_config5tests12min_listener
FNDA:3,_RNvNtCs3cntr94AB6F_9lb_config5tests6pt_min
FNDA:0,_RNvNtCs3cntr94AB6F_9lb_config5testss_11validate_ok
FNDA:0,_RNvNtCs3cntr94AB6F_9lb_config5testss_16parse_valid_toml
FNDA:0,_RNvNtCs3cntr94AB6F_9lb_config5testss_18parse_invalid_toml
FNDA:0,_RNvNtCs3cntr94AB6F_9lb_config5testss_18parse_tls_listener
FNDA:0,_RNvNtCs3cntr94AB6F_9lb_config5testss_19parse_quic_listener
FNDA:0,_RNvNtCs3cntr94AB6F_9lb_config5testss_22validate_empty_address
FNDA:0,_RNvNtCs3cntr94AB6F_9lb_config5testss_24validate_empty_listeners
FNDA:0,_RNvNtCs3cntr94AB6F_9lb_config5testss_25parse_runtime_xdp_enabled
FNDA:0,_RNvNtCs3cntr94AB6F_9lb_config5testss_26parse_config_with_backends
FNDA:0,_RNvNtCs3cntr94AB6F_9lb_config5testss_28parse_h1s_listener_with_grpc
FNDA:0,_RNvNtCs3cntr94AB6F_9lb_config5testss_30validate_empty_backend_address
FNDA:0,_RNvNtCs3cntr94AB6F_9lb_config5testss_30validate_h1s_with_tls_block_ok
FNDA:0,_RNvNtCs3cntr94AB6F_9lb_config5testss_32parse_h1_listener_with_websocket
FNDA:0,_RNvNtCs3cntr94AB6F_9lb_config5testss_32parse_observability_metrics_bind
FNDA:1,_RNvNtCs3cntr94AB6F_9lb_config5testss_32passthrough_only_config_is_valid
FNDA:0,_RNvNtCs3cntr94AB6F_9lb_config5testss_32validate_quic_small_mtu_rejected
FNDA:1,_RNvNtCs3cntr94AB6F_9lb_config5testss_34parse_passthrough_block_round_trip
FNDA:0,_RNvNtCs3cntr94AB6F_9lb_config5testss_34validate_unknown_protocol_rejected
FNDA:1,_RNvNtCs3cntr94AB6F_9lb_config5testss_35passthrough_empty_backends_rejected
FNDA:0,_RNvNtCs3cntr94AB6F_9lb_config5testss_35validate_h1_with_tls_block_rejected
FNDA:0,_RNvNtCs3cntr94AB6F_9lb_config5testss_35validate_tls_without_block_rejected
FNDA:0,_RNvNtCs3cntr94AB6F_9lb_config5testss_35validate_zero_http_timeout_rejected
FNDA:0,_RNvNtCs3cntr94AB6F_9lb_config5testss_36validate_quic_without_block_rejected
FNDA:0,_RNvNtCs3cntr94AB6F_9lb_config5testss_37validate_tls_empty_cert_path_rejected
FNDA:0,_RNvNtCs3cntr94AB6F_9lb_config5testss_39validate_h1s_without_tls_block_rejected
FNDA:1,_RNvNtCs3cntr94AB6F_9lb_config5testss_40passthrough_defaults_match_owner_rulings
FNDA:0,_RNvNtCs3cntr94AB6F_9lb_config5testss_40validate_observability_bad_bind_rejected
FNDA:0,_RNvNtCs3cntr94AB6F_9lb_config5testss_41ops02_jitter_default_is_quarter_of_budget
FNDA:0,_RNvNtCs3cntr94AB6F_9lb_config5testss_41ops10_per_listener_timeout_range_rejected
FNDA:0,_RNvNtCs3cntr94AB6F_9lb_config5testss_42validate_backend_unknown_protocol_rejected
FNDA:0,_RNvNtCs3cntr94AB6F_9lb_config5testss_42validate_grpc_on_non_h1s_listener_rejected
FNDA:0,_RNvNtCs3cntr94AB6F_9lb_config5testss_43parse_h1_listener_with_alt_svc_and_timeouts
FNDA:0,_RNvNtCs3cntr94AB6F_9lb_config5testss_44ops10_override_takes_precedence_over_runtime
FNDA:0,_RNvNtCs3cntr94AB6F_9lb_config5testss_46ops02_gateway_jitter_exceeding_budget_rejected
FNDA:0,_RNvNtCs3cntr94AB6F_9lb_config5testss_46runtime_absent_keeps_parse_backward_compatible
FNDA:0,_RNvNtCs3cntr94AB6F_9lb_config5testss_46runtime_xdp_enabled_without_interface_rejected
FNDA:0,_RNvNtCs3cntr94AB6F_9lb_config5testss_47runtime_xdp_disabled_does_not_require_interface
FNDA:1,_RNvNtCs3cntr94AB6F_9lb_config5testss_48passthrough_min_client_dcid_below_floor_rejected
FNDA:0,_RNvNtCs3cntr94AB6F_9lb_config5testss_48validate_tls_block_without_tls_protocol_rejected
FNDA:0,_RNvNtCs3cntr94AB6F_9lb_config5testss_48validate_websocket_on_non_http_listener_rejected
FNDA:0,_RNvNtCs3cntr94AB6F_9lb_config5testss_49ops11_readiness_settle_default_is_kubelet_aligned
FNDA:0,_RNvNtCs3cntr94AB6F_9lb_config5testss_57ops02_listener_jitter_exceeding_inherited_budget_rejected
FNDA:0,_RNvXs0_Cs3cntr94AB6F_9lb_configNtB5_21RuntimeWatchdogConfigNtNtCs2va5m0jqTTM_4core7default7Default7default
FNF:112
FNH:26
DA:317,0
DA:318,0
DA:319,0
DA:323,0
DA:324,0
DA:325,0
DA:333,0
DA:334,0
DA:335,0
DA:336,0
DA:338,0
DA:348,1
DA:349,1
DA:350,1
DA:351,1
DA:352,1
DA:361,1
DA:362,1
DA:363,1
DA:364,1
DA:365,1
DA:366,1
DA:367,1
DA:368,1
DA:419,0
DA:420,0
DA:421,0
DA:422,0
DA:423,0
DA:424,0
DA:425,0
DA:430,0
DA:431,0
DA:432,0
DA:436,0
DA:437,0
DA:438,0
DA:442,0
DA:443,0
DA:444,0
DA:470,2
DA:471,2
DA:472,2
DA:490,0
DA:491,0
DA:492,0
DA:499,0
DA:500,0
DA:501,0
DA:506,0
DA:507,0
DA:508,0
DA:514,0
DA:515,0
DA:516,0
DA:522,0
DA:523,0
DA:524,0
DA:654,0
DA:655,0
DA:656,0
DA:657,0
DA:658,0
DA:659,0
DA:660,0
DA:663,0
DA:664,0
DA:665,0
DA:667,0
DA:668,0
DA:669,0
DA:671,0
DA:672,0
DA:673,0
DA:719,0
DA:720,0
DA:721,0
DA:722,0
DA:723,0
DA:724,0
DA:725,0
DA:726,0
DA:727,0
DA:728,0
DA:731,0
DA:732,0
DA:733,0
DA:735,0
DA:736,0
DA:737,0
DA:739,0
DA:740,0
DA:741,0
DA:743,0
DA:744,0
DA:745,0
DA:747,0
DA:748,0
DA:749,0
DA:751,0
DA:752,0
DA:753,0
DA:808,0
DA:809,0
DA:810,0
DA:835,0
DA:836,0
DA:837,0
DA:838,0
DA:839,0
DA:840,0
DA:841,0
DA:842,0
DA:845,0
DA:846,0
DA:847,0
DA:849,0
DA:850,0
DA:851,0
DA:853,0
DA:854,0
DA:855,0
DA:857,0
DA:858,0
DA:859,0
DA:884,0
DA:885,0
DA:886,0
DA:888,0
DA:889,0
DA:890,0
DA:920,0
DA:921,0
DA:922,0
DA:924,0
DA:925,0
DA:926,0
DA:997,5
DA:998,5
DA:999,5
DA:1003,5
DA:1004,5
DA:1005,5
DA:1010,5
DA:1011,5
DA:1012,5
DA:1017,5
DA:1018,5
DA:1019,5
DA:1023,5
DA:1024,5
DA:1025,5
DA:1031,4
DA:1032,4
DA:1033,4
DA:1078,0
DA:1079,0
DA:1080,0
DA:1082,0
DA:1083,0
DA:1084,0
DA:1086,0
DA:1087,0
DA:1088,0
DA:1095,1
DA:1096,1
DA:1097,1
DA:1098,1
DA:1105,4
DA:1106,4
DA:1107,4
DA:1108,4
DA:1109,4
DA:1110,4
DA:1111,0
DA:1112,0
DA:1113,0
DA:1114,4
DA:1115,4
DA:1116,4
DA:1117,0
DA:1118,2
DA:1119,1
DA:1121,2
DA:1122,0
DA:1123,2
DA:1130,2
DA:1131,1
DA:1132,1
DA:1133,1
DA:1134,0
DA:1135,0
DA:1136,0
DA:1137,0
DA:1138,0
DA:1139,1
DA:1141,2
DA:1142,0
DA:1143,2
DA:1144,2
DA:1145,4
DA:1147,0
DA:1148,0
DA:1149,0
DA:1150,0
DA:1151,0
DA:1152,0
DA:1153,0
DA:1154,0
DA:1155,0
DA:1156,0
DA:1157,0
DA:1158,0
DA:1159,0
DA:1160,0
DA:1161,0
DA:1162,0
DA:1164,0
DA:1165,0
DA:1166,0
DA:1167,0
DA:1168,0
DA:1169,0
DA:1170,0
DA:1171,0
DA:1172,0
DA:1173,0
DA:1174,0
DA:1175,0
DA:1176,0
DA:1184,0
DA:1185,0
DA:1186,0
DA:1187,0
DA:1188,0
DA:1189,0
DA:1194,0
DA:1195,0
DA:1196,0
DA:1197,0
DA:1198,0
DA:1199,0
DA:1200,0
DA:1201,0
DA:1202,0
DA:1206,0
DA:1207,0
DA:1208,0
DA:1209,0
DA:1210,0
DA:1211,0
DA:1212,0
DA:1213,0
DA:1214,0
DA:1215,0
DA:1216,0
DA:1217,0
DA:1218,0
DA:1219,0
DA:1220,0
DA:1221,0
DA:1222,0
DA:1223,0
DA:1224,0
DA:1225,0
DA:1226,0
DA:1227,0
DA:1228,0
DA:1229,0
DA:1230,0
DA:1231,0
DA:1232,0
DA:1233,0
DA:1234,0
DA:1235,0
DA:1236,0
DA:1237,0
DA:1238,0
DA:1239,0
DA:1240,0
DA:1241,0
DA:1242,0
DA:1243,0
DA:1244,0
DA:1245,0
DA:1246,0
DA:1247,0
DA:1253,0
DA:1254,0
DA:1255,0
DA:1256,0
DA:1257,0
DA:1258,0
DA:1259,0
DA:1260,0
DA:1261,0
DA:1262,0
DA:1263,0
DA:1264,0
DA:1265,0
DA:1266,0
DA:1267,0
DA:1268,0
DA:1269,0
DA:1270,0
DA:1271,0
DA:1272,0
DA:1281,0
DA:1282,0
DA:1283,0
DA:1284,0
DA:1285,0
DA:1286,0
DA:1287,0
DA:1288,0
DA:1289,0
DA:1291,1
DA:1292,1
DA:1293,0
DA:1294,0
DA:1295,0
DA:1296,1
DA:1297,1
DA:1298,1
DA:1299,0
DA:1300,0
DA:1301,0
DA:1302,1
DA:1303,1
DA:1304,1
DA:1305,1
DA:1306,1
DA:1307,1
DA:1309,0
DA:1310,0
DA:1311,0
DA:1312,0
DA:1313,0
DA:1314,0
DA:1315,0
DA:1316,0
DA:1317,0
DA:1318,0
DA:1319,0
DA:1321,1
DA:1322,1
DA:1323,0
DA:1324,0
DA:1325,0
DA:1326,0
DA:1327,1
DA:1328,1
DA:1329,0
DA:1330,0
DA:1331,0
DA:1332,0
DA:1333,1
DA:1335,0
DA:1336,0
DA:1337,0
DA:1338,0
DA:1339,0
DA:1342,1
DA:1343,1
DA:1344,1
DA:1345,1
DA:1348,1
DA:1349,0
DA:1350,0
DA:1351,0
DA:1352,0
DA:1353,0
DA:1354,1
DA:1361,1
DA:1362,0
DA:1363,0
DA:1364,0
DA:1365,0
DA:1366,0
DA:1367,0
DA:1368,0
DA:1369,1
DA:1370,1
DA:1371,1
DA:1373,1
DA:1374,1
DA:1375,1
DA:1376,1
DA:1377,1
DA:1378,1
DA:1379,0
DA:1380,0
DA:1381,0
DA:1382,0
DA:1383,1
DA:1384,1
DA:1385,0
DA:1386,0
DA:1387,0
DA:1388,0
DA:1389,0
DA:1390,1
DA:1391,1
DA:1392,1
DA:1394,1
DA:1395,1
DA:1396,1
DA:1397,1
DA:1398,1
DA:1399,1
DA:1400,0
DA:1401,0
DA:1402,0
DA:1403,0
DA:1404,1
DA:1405,1
DA:1406,0
DA:1407,0
DA:1408,0
DA:1409,0
DA:1410,0
DA:1411,0
DA:1412,0
DA:1413,0
DA:1414,0
DA:1415,0
DA:1416,0
DA:1417,0
DA:1418,0
DA:1419,0
DA:1420,0
DA:1421,0
DA:1422,0
DA:1423,0
DA:1424,0
DA:1425,0
DA:1426,0
DA:1427,0
DA:1428,0
DA:1429,0
DA:1430,0
DA:1431,1
DA:1432,1
DA:1433,1
DA:1435,1
DA:1436,1
DA:1437,0
DA:1438,0
DA:1439,0
DA:1440,0
DA:1441,0
DA:1442,0
DA:1443,0
DA:1444,0
DA:1445,0
DA:1446,0
DA:1447,0
DA:1448,0
DA:1449,0
DA:1450,0
DA:1451,0
DA:1452,0
DA:1453,0
DA:1454,0
DA:1455,0
DA:1456,0
DA:1457,1
DA:1458,1
DA:1459,1
DA:1461,1
DA:1462,1
DA:1463,0
DA:1464,0
DA:1465,0
DA:1466,0
DA:1467,0
DA:1468,0
DA:1469,0
DA:1470,0
DA:1471,0
DA:1472,0
DA:1473,0
DA:1474,0
DA:1477,0
DA:1479,1
DA:1480,1
DA:1485,0
DA:1486,0
DA:1487,0
DA:1488,0
DA:1489,0
DA:1491,0
DA:1492,0
DA:1493,0
DA:1494,0
DA:1495,0
DA:1496,0
DA:1497,0
DA:1498,0
DA:1499,0
DA:1500,0
DA:1501,0
DA:1502,0
DA:1503,0
DA:1504,0
DA:1505,0
DA:1506,0
DA:1507,0
DA:1508,0
DA:1509,0
DA:1510,0
DA:1511,0
DA:1512,0
DA:1513,0
DA:1514,0
DA:1516,0
DA:1517,0
DA:1518,0
DA:1519,0
DA:1520,0
DA:1521,0
DA:1522,0
DA:1523,0
DA:1524,0
DA:1525,0
DA:1526,0
DA:1527,0
DA:1528,0
DA:1529,0
DA:1530,0
DA:1531,0
DA:1532,0
DA:1533,0
DA:1534,0
DA:1535,0
DA:1536,0
DA:1537,0
DA:1538,0
DA:1539,0
DA:1540,0
DA:1541,0
DA:1542,0
DA:1543,0
DA:1545,0
DA:1546,0
DA:1547,0
DA:1548,0
DA:1549,0
DA:1550,0
DA:1551,0
DA:1552,0
DA:1553,0
DA:1554,0
DA:1555,0
DA:1556,0
DA:1557,0
DA:1558,0
DA:1559,0
DA:1561,0
DA:1562,0
DA:1563,0
DA:1564,0
DA:1565,0
DA:1566,0
DA:1567,0
DA:1568,0
DA:1569,0
DA:1570,0
DA:1571,0
DA:1572,0
DA:1573,0
DA:1574,0
DA:1575,0
DA:1576,0
DA:1577,0
DA:1578,0
DA:1579,0
DA:1580,0
DA:1581,0
DA:1582,0
DA:1583,0
DA:1584,0
DA:1585,0
DA:1586,0
DA:1587,0
DA:1588,0
DA:1589,0
DA:1590,0
DA:1591,0
DA:1592,0
DA:1593,0
DA:1594,0
DA:1595,0
DA:1596,0
DA:1597,0
DA:1598,0
DA:1607,4
DA:1608,4
DA:1609,1
DA:1610,1
DA:1611,1
DA:1612,3
DA:1613,3
DA:1614,3
DA:1615,3
DA:1616,3
DA:1617,3
DA:1618,0
DA:1619,0
DA:1620,0
DA:1621,0
DA:1622,3
DA:1623,3
DA:1624,3
DA:1625,3
DA:1626,3
DA:1627,1
DA:1628,1
DA:1629,1
DA:1630,1
DA:1631,2
DA:1632,2
DA:1633,0
DA:1634,0
DA:1635,0
DA:1636,0
DA:1637,2
DA:1638,2
DA:1639,0
DA:1640,0
DA:1641,0
DA:1642,2
DA:1643,2
DA:1644,0
DA:1645,0
DA:1646,0
DA:1647,0
DA:1648,2
DA:1649,2
DA:1650,0
DA:1651,0
DA:1652,0
DA:1653,2
DA:1654,2
DA:1655,4
DA:1662,0
DA:1663,0
DA:1664,0
DA:1665,0
DA:1666,0
DA:1667,0
DA:1668,0
DA:1669,0
DA:1670,0
DA:1671,0
DA:1672,0
DA:1675,0
DA:1676,0
DA:1677,0
DA:1678,0
DA:1681,0
DA:1682,0
DA:1683,0
DA:1684,0
DA:1685,0
DA:1686,0
DA:1687,0
DA:1688,0
DA:1689,0
DA:1690,0
DA:1691,0
DA:1694,0
DA:1695,0
DA:1696,0
DA:1697,0
DA:1698,0
DA:1699,0
DA:1700,0
DA:1701,0
DA:1702,0
DA:1703,0
DA:1704,0
DA:1705,0
DA:1706,0
DA:1707,0
DA:1708,0
DA:1709,0
DA:1710,0
DA:1711,0
DA:1712,0
DA:1713,0
DA:1714,0
DA:1715,0
DA:1716,0
DA:1717,0
DA:1720,0
DA:1721,0
DA:1722,0
DA:1723,0
DA:1724,0
DA:1725,0
DA:1726,0
DA:1727,0
DA:1728,0
DA:1729,0
DA:1730,0
DA:1731,0
DA:1732,0
DA:1733,0
DA:1734,0
DA:1735,0
DA:1736,0
DA:1737,0
DA:1738,0
DA:1739,0
DA:1740,0
DA:1741,0
DA:1742,0
DA:1743,0
DA:1746,0
DA:1747,0
DA:1748,0
DA:1749,0
DA:1750,0
DA:1751,0
DA:1752,0
DA:1753,0
DA:1754,0
DA:1755,0
DA:1756,0
DA:1757,0
DA:1758,0
DA:1759,0
DA:1760,0
DA:1761,0
DA:1762,0
DA:1763,0
DA:1764,0
DA:1765,0
DA:1766,0
DA:1767,0
DA:1768,0
DA:1769,0
DA:1770,0
DA:1771,0
DA:1772,0
DA:1773,0
DA:1774,0
DA:1775,0
DA:1776,0
DA:1779,0
DA:1780,0
DA:1781,0
DA:1782,0
DA:1783,0
DA:1784,0
DA:1785,0
DA:1786,0
DA:1787,0
DA:1788,0
DA:1789,0
DA:1790,0
DA:1791,0
DA:1792,0
DA:1793,0
DA:1794,0
DA:1797,0
DA:1798,0
DA:1799,0
DA:1800,0
DA:1801,0
DA:1802,0
DA:1803,0
DA:1804,0
DA:1805,0
DA:1806,0
DA:1807,0
DA:1808,0
DA:1809,0
DA:1810,0
DA:1811,0
DA:1812,0
DA:1813,0
DA:1814,0
DA:1815,0
DA:1816,0
DA:1817,0
DA:1820,0
DA:1821,0
DA:1822,0
DA:1823,0
DA:1824,0
DA:1825,0
DA:1826,0
DA:1827,0
DA:1828,0
DA:1829,0
DA:1830,0
DA:1831,0
DA:1832,0
DA:1833,0
DA:1834,0
DA:1835,0
DA:1836,0
DA:1837,0
DA:1838,0
DA:1839,0
DA:1840,0
DA:1841,0
DA:1842,0
DA:1843,0
DA:1846,0
DA:1847,0
DA:1848,0
DA:1849,0
DA:1850,0
DA:1851,0
DA:1852,0
DA:1853,0
DA:1854,0
DA:1855,0
DA:1856,0
DA:1857,0
DA:1858,0
DA:1859,0
DA:1860,0
DA:1861,0
DA:1862,0
DA:1863,0
DA:1864,0
DA:1865,0
DA:1866,0
DA:1867,0
DA:1868,0
DA:1869,0
DA:1872,0
DA:1873,0
DA:1874,0
DA:1875,0
DA:1876,0
DA:1877,0
DA:1878,0
DA:1879,0
DA:1880,0
DA:1881,0
DA:1882,0
DA:1883,0
DA:1884,0
DA:1885,0
DA:1886,0
DA:1887,0
DA:1888,0
DA:1889,0
DA:1890,0
DA:1891,0
DA:1892,0
DA:1893,0
DA:1894,0
DA:1895,0
DA:1896,0
DA:1897,0
DA:1898,0
DA:1899,0
DA:1900,0
DA:1903,0
DA:1904,0
DA:1905,0
DA:1906,0
DA:1907,0
DA:1908,0
DA:1909,0
DA:1910,0
DA:1911,0
DA:1912,0
DA:1913,0
DA:1914,0
DA:1915,0
DA:1916,0
DA:1917,0
DA:1918,0
DA:1919,0
DA:1920,0
DA:1921,0
DA:1922,0
DA:1923,0
DA:1924,0
DA:1925,0
DA:1926,0
DA:1927,0
DA:1928,0
DA:1929,0
DA:1930,0
DA:1931,0
DA:1934,0
DA:1935,0
DA:1936,0
DA:1937,0
DA:1938,0
DA:1939,0
DA:1940,0
DA:1941,0
DA:1942,0
DA:1943,0
DA:1944,0
DA:1945,0
DA:1946,0
DA:1947,0
DA:1948,0
DA:1949,0
DA:1950,0
DA:1951,0
DA:1952,0
DA:1953,0
DA:1954,0
DA:1955,0
DA:1956,0
DA:1959,0
DA:1960,0
DA:1961,0
DA:1962,0
DA:1963,0
DA:1964,0
DA:1965,0
DA:1966,0
DA:1967,0
DA:1968,0
DA:1969,0
DA:1970,0
DA:1971,0
DA:1972,0
DA:1973,0
DA:1974,0
DA:1975,0
DA:1976,0
DA:1977,0
DA:1978,0
DA:1979,0
DA:1980,0
DA:1981,0
DA:1982,0
DA:1985,0
DA:1986,0
DA:1987,0
DA:1988,0
DA:1989,0
DA:1990,0
DA:1991,0
DA:1992,0
DA:1993,0
DA:1994,0
DA:1995,0
DA:1996,0
DA:1997,0
DA:1998,0
DA:1999,0
DA:2000,0
DA:2001,0
DA:2002,0
DA:2003,0
DA:2004,0
DA:2005,0
DA:2006,0
DA:2007,0
DA:2008,0
DA:2009,0
DA:2010,0
DA:2011,0
DA:2012,0
DA:2013,0
DA:2014,0
DA:2017,0
DA:2018,0
DA:2019,0
DA:2020,0
DA:2021,0
DA:2022,0
DA:2023,0
DA:2024,0
DA:2025,0
DA:2026,0
DA:2027,0
DA:2028,0
DA:2029,0
DA:2030,0
DA:2031,0
DA:2032,0
DA:2033,0
DA:2034,0
DA:2035,0
DA:2036,0
DA:2037,0
DA:2038,0
DA:2039,0
DA:2040,0
DA:2041,0
DA:2042,0
DA:2043,0
DA:2044,0
DA:2045,0
DA:2046,0
DA:2047,0
DA:2050,0
DA:2051,0
DA:2052,0
DA:2053,0
DA:2054,0
DA:2055,0
DA:2056,0
DA:2057,0
DA:2058,0
DA:2059,0
DA:2060,0
DA:2061,0
DA:2062,0
DA:2063,0
DA:2064,0
DA:2065,0
DA:2066,0
DA:2067,0
DA:2068,0
DA:2069,0
DA:2070,0
DA:2071,0
DA:2072,0
DA:2073,0
DA:2074,0
DA:2075,0
DA:2076,0
DA:2079,0
DA:2080,0
DA:2081,0
DA:2082,0
DA:2083,0
DA:2084,0
DA:2085,0
DA:2086,0
DA:2087,0
DA:2088,0
DA:2089,0
DA:2090,0
DA:2091,0
DA:2092,0
DA:2093,0
DA:2094,0
DA:2095,0
DA:2096,0
DA:2097,0
DA:2098,0
DA:2099,0
DA:2100,0
DA:2101,0
DA:2102,0
DA:2103,0
DA:2104,0
DA:2105,0
DA:2106,0
DA:2107,0
DA:2108,0
DA:2109,0
DA:2110,0
DA:2113,0
DA:2114,0
DA:2115,0
DA:2116,0
DA:2117,0
DA:2118,0
DA:2119,0
DA:2120,0
DA:2121,0
DA:2122,0
DA:2123,0
DA:2124,0
DA:2125,0
DA:2126,0
DA:2127,0
DA:2128,0
DA:2129,0
DA:2130,0
DA:2131,0
DA:2132,0
DA:2133,0
DA:2134,0
DA:2135,0
DA:2136,0
DA:2137,0
DA:2138,0
DA:2139,0
DA:2140,0
DA:2141,0
DA:2142,0
DA:2143,0
DA:2146,0
DA:2147,0
DA:2148,0
DA:2149,0
DA:2150,0
DA:2151,0
DA:2152,0
DA:2153,0
DA:2154,0
DA:2155,0
DA:2156,0
DA:2157,0
DA:2158,0
DA:2159,0
DA:2160,0
DA:2161,0
DA:2162,0
DA:2163,0
DA:2164,0
DA:2165,0
DA:2166,0
DA:2167,0
DA:2168,0
DA:2169,0
DA:2170,0
DA:2171,0
DA:2172,0
DA:2173,0
DA:2174,0
DA:2175,0
DA:2176,0
DA:2177,0
DA:2178,0
DA:2179,0
DA:2180,0
DA:2181,0
DA:2182,0
DA:2183,0
DA:2184,0
DA:2187,0
DA:2188,0
DA:2189,0
DA:2190,0
DA:2191,0
DA:2192,0
DA:2193,0
DA:2194,0
DA:2195,0
DA:2196,0
DA:2197,0
DA:2198,0
DA:2199,0
DA:2200,0
DA:2201,0
DA:2202,0
DA:2203,0
DA:2204,0
DA:2205,0
DA:2206,0
DA:2207,0
DA:2208,0
DA:2209,0
DA:2210,0
DA:2211,0
DA:2212,0
DA:2213,0
DA:2214,0
DA:2215,0
DA:2216,0
DA:2217,0
DA:2218,0
DA:2219,0
DA:2220,0
DA:2221,0
DA:2222,0
DA:2225,0
DA:2226,0
DA:2227,0
DA:2228,0
DA:2229,0
DA:2230,0
DA:2231,0
DA:2232,0
DA:2233,0
DA:2234,0
DA:2235,0
DA:2236,0
DA:2237,0
DA:2238,0
DA:2239,0
DA:2240,0
DA:2241,0
DA:2242,0
DA:2243,0
DA:2246,0
DA:2247,0
DA:2248,0
DA:2249,0
DA:2250,0
DA:2251,0
DA:2252,0
DA:2253,0
DA:2254,0
DA:2255,0
DA:2256,0
DA:2257,0
DA:2258,0
DA:2259,0
DA:2260,0
DA:2261,0
DA:2262,0
DA:2263,0
DA:2264,0
DA:2265,0
DA:2266,0
DA:2267,0
DA:2268,0
DA:2269,0
DA:2270,0
DA:2271,0
DA:2272,0
DA:2273,0
DA:2274,0
DA:2275,0
DA:2276,0
DA:2277,0
DA:2278,0
DA:2279,0
DA:2280,0
DA:2281,0
DA:2282,0
DA:2283,0
DA:2284,0
DA:2285,0
DA:2286,0
DA:2289,0
DA:2290,0
DA:2291,0
DA:2292,0
DA:2293,0
DA:2294,0
DA:2295,0
DA:2296,0
DA:2297,0
DA:2298,0
DA:2299,0
DA:2300,0
DA:2301,0
DA:2302,0
DA:2303,0
DA:2304,0
DA:2305,0
DA:2306,0
DA:2307,0
DA:2308,0
DA:2309,0
DA:2310,0
DA:2311,0
DA:2312,0
DA:2313,0
DA:2314,0
DA:2315,0
DA:2316,0
DA:2317,0
DA:2318,0
DA:2319,0
DA:2320,0
DA:2321,0
DA:2322,0
DA:2323,0
DA:2324,0
DA:2325,0
DA:2326,0
DA:2327,0
DA:2328,0
DA:2331,0
DA:2332,0
DA:2333,0
DA:2334,0
DA:2335,0
DA:2336,0
DA:2337,0
DA:2338,0
DA:2339,0
DA:2340,0
DA:2343,0
DA:2344,0
DA:2345,0
DA:2346,0
DA:2347,0
DA:2348,0
DA:2349,0
DA:2350,0
DA:2351,0
DA:2352,0
DA:2353,0
DA:2354,0
DA:2355,0
DA:2356,0
DA:2357,0
DA:2358,0
DA:2359,0
DA:2362,0
DA:2363,0
DA:2364,0
DA:2365,0
DA:2366,0
DA:2367,0
DA:2368,0
DA:2369,0
DA:2370,0
DA:2371,0
DA:2372,0
DA:2373,0
DA:2374,0
DA:2375,0
DA:2376,0
DA:2377,0
DA:2378,0
DA:2379,0
DA:2380,0
DA:2381,0
DA:2384,0
DA:2385,0
DA:2386,0
DA:2387,0
DA:2388,0
DA:2389,0
DA:2390,0
DA:2391,0
DA:2392,0
DA:2393,0
DA:2394,0
DA:2395,0
DA:2396,0
DA:2397,0
DA:2398,0
DA:2399,0
DA:2400,0
DA:2401,0
DA:2402,0
DA:2403,0
DA:2404,0
DA:2405,0
DA:2406,0
DA:2407,0
DA:2410,0
DA:2411,0
DA:2412,0
DA:2413,0
DA:2414,0
DA:2415,0
DA:2416,0
DA:2417,0
DA:2418,0
DA:2419,0
DA:2420,0
DA:2421,0
DA:2422,0
DA:2423,0
DA:2424,0
DA:2425,0
DA:2426,0
DA:2427,0
DA:2428,0
DA:2429,0
DA:2430,0
DA:2431,0
DA:2432,0
DA:2433,0
DA:2436,0
DA:2437,0
DA:2438,0
DA:2439,0
DA:2440,0
DA:2441,0
DA:2442,0
DA:2443,0
DA:2444,0
DA:2445,0
DA:2446,0
DA:2447,0
DA:2448,0
DA:2449,0
DA:2450,0
DA:2451,0
DA:2452,0
DA:2453,0
DA:2454,0
DA:2455,0
DA:2456,0
DA:2457,0
DA:2458,0
DA:2459,0
DA:2463,0
DA:2464,0
DA:2465,0
DA:2466,0
DA:2467,0
DA:2468,0
DA:2469,0
DA:2470,0
DA:2471,0
DA:2472,0
DA:2473,0
DA:2474,0
DA:2475,0
DA:2476,0
DA:2477,0
DA:2478,0
DA:2479,0
DA:2480,0
DA:2481,0
DA:2483,0
DA:2484,0
DA:2485,0
DA:2486,0
DA:2487,0
DA:2488,0
DA:2489,0
DA:2490,0
DA:2491,0
DA:2492,0
DA:2493,0
DA:2494,0
DA:2495,0
DA:2496,0
DA:2497,0
DA:2498,0
DA:2499,0
DA:2500,0
DA:2501,0
DA:2502,0
DA:2503,0
DA:2504,0
DA:2505,0
DA:2508,0
DA:2509,0
DA:2510,0
DA:2511,0
DA:2512,0
DA:2513,0
DA:2514,0
DA:2515,0
DA:2516,0
DA:2518,0
DA:2519,0
DA:2521,0
DA:2522,0
DA:2525,0
DA:2526,0
DA:2527,0
DA:2528,0
DA:2529,0
DA:2530,0
DA:2531,0
DA:2532,0
DA:2533,0
DA:2534,0
DA:2536,0
DA:2537,0
DA:2538,0
DA:2539,0
DA:2542,0
DA:2543,0
DA:2544,0
DA:2545,0
DA:2546,0
DA:2547,0
DA:2548,0
DA:2549,0
DA:2550,0
DA:2551,0
DA:2552,0
DA:2553,0
DA:2554,0
DA:2557,0
DA:2558,0
DA:2559,0
DA:2560,0
DA:2561,0
DA:2562,0
DA:2563,0
DA:2564,0
DA:2565,0
DA:2566,0
DA:2567,0
DA:2568,0
DA:2569,0
DA:2570,0
DA:2571,0
DA:2572,0
DA:2573,0
DA:2574,0
DA:2575,0
DA:2576,0
DA:2579,0
DA:2580,0
DA:2581,0
DA:2582,0
DA:2583,0
DA:2584,0
DA:2585,0
DA:2586,0
DA:2587,0
DA:2588,0
DA:2589,0
DA:2590,0
DA:2591,0
DA:2592,0
DA:2593,0
DA:2594,0
DA:2597,0
DA:2598,0
DA:2599,0
DA:2600,0
DA:2601,0
DA:2602,0
DA:2605,0
DA:2606,0
DA:2607,0
DA:2608,0
DA:2609,0
DA:2610,0
DA:2611,0
DA:2612,0
DA:2613,0
DA:2614,0
DA:2615,0
DA:2616,0
DA:2617,0
DA:2618,0
DA:2619,0
DA:2620,0
DA:2621,0
DA:2622,0
DA:2623,0
DA:2624,0
DA:2625,0
DA:2626,0
DA:2627,0
DA:2628,0
DA:2629,0
DA:2630,0
DA:2631,0
DA:2634,3
DA:2635,3
DA:2636,3
DA:2637,3
DA:2638,3
DA:2639,3
DA:2640,3
DA:2641,3
DA:2642,3
DA:2643,3
DA:2644,3
DA:2645,3
DA:2646,3
DA:2647,3
DA:2650,1
DA:2651,1
DA:2652,1
DA:2653,1
DA:2654,1
DA:2655,1
DA:2656,1
DA:2657,1
DA:2658,1
DA:2659,1
DA:2660,1
DA:2661,1
DA:2662,1
DA:2663,1
DA:2664,1
DA:2667,1
DA:2668,1
DA:2669,1
DA:2670,1
DA:2671,1
DA:2672,1
DA:2673,1
DA:2674,1
DA:2675,1
DA:2676,1
DA:2677,1
DA:2678,1
DA:2679,1
DA:2682,1
DA:2683,1
DA:2684,1
DA:2685,1
DA:2686,1
DA:2687,1
DA:2688,1
DA:2689,1
DA:2690,1
DA:2691,1
DA:2692,1
DA:2693,1
DA:2694,1
DA:2695,1
DA:2696,1
DA:2697,1
DA:2700,1
DA:2701,1
DA:2702,1
DA:2703,1
DA:2704,1
DA:2705,1
DA:2706,1
DA:2709,1
DA:2710,1
DA:2711,1
DA:2712,1
DA:2713,1
DA:2714,1
DA:2715,1
DA:2716,1
DA:2717,1
DA:2718,1
DA:2719,1
DA:2720,1
DA:2721,1
DA:2722,1
DA:2723,1
DA:2724,1
DA:2726,1
DA:2727,1
DA:2728,1
DA:2729,1
BRF:0
BRH:0
LF:1634
LH:238
end_of_record
SF:/home/ubuntu/Code/ExpressGateway/.claude/worktrees/s15-builder/crates/lb-controlplane/src/lib.rs
FN:123,_RNCNvMs0_Csj6wxYkIORKR_15lb_controlplaneNtB7_15InMemoryBackend3set0B7_
FN:235,_RNCNvMs2_Csj6wxYkIORKR_15lb_controlplaneNtB7_13ConfigManager8validate0B7_
FN:135,_RNCNvXs1_Csj6wxYkIORKR_15lb_controlplaneNtB7_15InMemoryBackendNtB7_13ConfigBackend4load0B7_
FN:143,_RNCNvXs1_Csj6wxYkIORKR_15lb_controlplaneNtB7_15InMemoryBackendNtB7_13ConfigBackend5store0B7_
FN:86,_RNCNvXs_Csj6wxYkIORKR_15lb_controlplaneNtB6_11FileBackendNtB6_13ConfigBackend5store0B6_
FN:91,_RNCNvXs_Csj6wxYkIORKR_15lb_controlplaneNtB6_11FileBackendNtB6_13ConfigBackend5stores0_0B6_
FN:91,_RNCNvXs_Csj6wxYkIORKR_15lb_controlplaneNtB6_11FileBackendNtB6_13ConfigBackend5stores1_0B6_
FN:90,_RNCNvXs_Csj6wxYkIORKR_15lb_controlplaneNtB6_11FileBackendNtB6_13ConfigBackend5stores_0B6_
FN:72,_RNvMCsj6wxYkIORKR_15lb_controlplaneNtB2_11FileBackend3new
FN:108,_RNvMs0_Csj6wxYkIORKR_15lb_controlplaneNtB5_15InMemoryBackend3new
FN:119,_RNvMs0_Csj6wxYkIORKR_15lb_controlplaneNtB5_15InMemoryBackend3set
FN:203,_RNvMs2_Csj6wxYkIORKR_15lb_controlplaneNtB5_13ConfigManager14current_config
FN:215,_RNvMs2_Csj6wxYkIORKR_15lb_controlplaneNtB5_13ConfigManager15previous_config
FN:262,_RNvMs2_Csj6wxYkIORKR_15lb_controlplaneNtB5_13ConfigManager20rollback_to_previous
FN:169,_RNvMs2_Csj6wxYkIORKR_15lb_controlplaneNtB5_13ConfigManager3new
FN:189,_RNvMs2_Csj6wxYkIORKR_15lb_controlplaneNtB5_13ConfigManager6reload
FN:209,_RNvMs2_Csj6wxYkIORKR_15lb_controlplaneNtB5_13ConfigManager7version
FN:244,_RNvMs2_Csj6wxYkIORKR_15lb_controlplaneNtB5_13ConfigManager8rollback
FN:227,_RNvMs2_Csj6wxYkIORKR_15lb_controlplaneNtB5_13ConfigManager8validate
FN:316,_RNvMs3_Csj6wxYkIORKR_15lb_controlplaneNtB5_8HaPoller10poll_count
FN:285,_RNvMs3_Csj6wxYkIORKR_15lb_controlplaneNtB5_8HaPoller3new
FN:301,_RNvMs3_Csj6wxYkIORKR_15lb_controlplaneNtB5_8HaPoller4poll
FN:131,_RNvXs1_Csj6wxYkIORKR_15lb_controlplaneNtB5_15InMemoryBackendNtB5_13ConfigBackend4load
FN:139,_RNvXs1_Csj6wxYkIORKR_15lb_controlplaneNtB5_15InMemoryBackendNtB5_13ConfigBackend5store
FN:78,_RNvXs_Csj6wxYkIORKR_15lb_controlplaneNtB4_11FileBackendNtB4_13ConfigBackend4load
FN:82,_RNvXs_Csj6wxYkIORKR_15lb_controlplaneNtB4_11FileBackendNtB4_13ConfigBackend5store
FN:395,_RNvNtCsjngRnwoz35b_15lb_controlplane5testss_21validate_non_empty_ok
FN:405,_RNvNtCsjngRnwoz35b_15lb_controlplane5testss_22validate_valid_toml_ok
FN:389,_RNvNtCsjngRnwoz35b_15lb_controlplane5testss_23validate_empty_is_error
FN:415,_RNvNtCsjngRnwoz35b_15lb_controlplane5testss_25file_backend_atomic_write
FN:335,_RNvNtCsjngRnwoz35b_15lb_controlplane5testss_27config_manager_initial_load
FN:326,_RNvNtCsjngRnwoz35b_15lb_controlplane5testss_28in_memory_backend_load_store
FN:400,_RNvNtCsjngRnwoz35b_15lb_controlplane5testss_30validate_invalid_toml_is_error
FN:344,_RNvNtCsjngRnwoz35b_15lb_controlplane5testss_31config_manager_reload_no_change
FN:461,_RNvNtCsjngRnwoz35b_15lb_controlplane5testss_32ha_poller_no_change_returns_none
FN:452,_RNvNtCsjngRnwoz35b_15lb_controlplane5testss_33ha_poller_first_poll_returns_some
FN:365,_RNvNtCsjngRnwoz35b_15lb_controlplane5testss_35config_manager_rollback_to_previous
FN:352,_RNvNtCsjngRnwoz35b_15lb_controlplane5testss_36config_manager_reload_saves_previous
FN:380,_RNvNtCsjngRnwoz35b_15lb_controlplane5testss_40config_manager_rollback_to_previous_none
FN:445,_RNvNtCsjngRnwoz35b_15lb_controlplane5testss_43config_manager_rejects_empty_initial_config
FN:435,_RNvNtCsjngRnwoz35b_15lb_controlplane5testss_45config_manager_rejects_invalid_initial_config
FN:235,_RNCNvMs2_CsjngRnwoz35b_15lb_controlplaneNtB7_13ConfigManager8validate0B7_
FN:135,_RNCNvXs1_CsjngRnwoz35b_15lb_controlplaneNtB7_15InMemoryBackendNtB7_13ConfigBackend4load0B7_
FN:143,_RNCNvXs1_CsjngRnwoz35b_15lb_controlplaneNtB7_15InMemoryBackendNtB7_13ConfigBackend5store0B7_
FN:86,_RNCNvXs_CsjngRnwoz35b_15lb_controlplaneNtB6_11FileBackendNtB6_13ConfigBackend5store0B6_
FN:91,_RNCNvXs_CsjngRnwoz35b_15lb_controlplaneNtB6_11FileBackendNtB6_13ConfigBackend5stores0_0B6_
FN:91,_RNCNvXs_CsjngRnwoz35b_15lb_controlplaneNtB6_11FileBackendNtB6_13ConfigBackend5stores1_0B6_
FN:90,_RNCNvXs_CsjngRnwoz35b_15lb_controlplaneNtB6_11FileBackendNtB6_13ConfigBackend5stores_0B6_
FN:72,_RNvMCsjngRnwoz35b_15lb_controlplaneNtB2_11FileBackend3new
FN:108,_RNvMs0_CsjngRnwoz35b_15lb_controlplaneNtB5_15InMemoryBackend3new
FN:203,_RNvMs2_CsjngRnwoz35b_15lb_controlplaneNtB5_13ConfigManager14current_config
FN:215,_RNvMs2_CsjngRnwoz35b_15lb_controlplaneNtB5_13ConfigManager15previous_config
FN:262,_RNvMs2_CsjngRnwoz35b_15lb_controlplaneNtB5_13ConfigManager20rollback_to_previous
FN:169,_RNvMs2_CsjngRnwoz35b_15lb_controlplaneNtB5_13ConfigManager3new
FN:189,_RNvMs2_CsjngRnwoz35b_15lb_controlplaneNtB5_13ConfigManager6reload
FN:209,_RNvMs2_CsjngRnwoz35b_15lb_controlplaneNtB5_13ConfigManager7version
FN:227,_RNvMs2_CsjngRnwoz35b_15lb_controlplaneNtB5_13ConfigManager8validate
FN:316,_RNvMs3_CsjngRnwoz35b_15lb_controlplaneNtB5_8HaPoller10poll_count
FN:285,_RNvMs3_CsjngRnwoz35b_15lb_controlplaneNtB5_8HaPoller3new
FN:301,_RNvMs3_CsjngRnwoz35b_15lb_controlplaneNtB5_8HaPoller4poll
FN:131,_RNvXs1_CsjngRnwoz35b_15lb_controlplaneNtB5_15InMemoryBackendNtB5_13ConfigBackend4load
FN:139,_RNvXs1_CsjngRnwoz35b_15lb_controlplaneNtB5_15InMemoryBackendNtB5_13ConfigBackend5store
FN:78,_RNvXs_CsjngRnwoz35b_15lb_controlplaneNtB4_11FileBackendNtB4_13ConfigBackend4load
FN:82,_RNvXs_CsjngRnwoz35b_15lb_controlplaneNtB4_11FileBackendNtB4_13ConfigBackend5store
FN:123,_RNCNvMs0_CsjngRnwoz35b_15lb_controlplaneNtB7_15InMemoryBackend3set0B7_
FN:119,_RNvMs0_CsjngRnwoz35b_15lb_controlplaneNtB5_15InMemoryBackend3set
FN:244,_RNvMs2_CsjngRnwoz35b_15lb_controlplaneNtB5_13ConfigManager8rollback
FNDA:0,_RNCNvMs0_Csj6wxYkIORKR_15lb_controlplaneNtB7_15InMemoryBackend3set0B7_
FNDA:0,_RNCNvMs2_Csj6wxYkIORKR_15lb_controlplaneNtB7_13ConfigManager8validate0B7_
FNDA:0,_RNCNvXs1_Csj6wxYkIORKR_15lb_controlplaneNtB7_15InMemoryBackendNtB7_13ConfigBackend4load0B7_
FNDA:0,_RNCNvXs1_Csj6wxYkIORKR_15lb_controlplaneNtB7_15InMemoryBackendNtB7_13ConfigBackend5store0B7_
FNDA:0,_RNCNvXs_Csj6wxYkIORKR_15lb_controlplaneNtB6_11FileBackendNtB6_13ConfigBackend5store0B6_
FNDA:0,_RNCNvXs_Csj6wxYkIORKR_15lb_controlplaneNtB6_11FileBackendNtB6_13ConfigBackend5stores0_0B6_
FNDA:0,_RNCNvXs_Csj6wxYkIORKR_15lb_controlplaneNtB6_11FileBackendNtB6_13ConfigBackend5stores1_0B6_
FNDA:0,_RNCNvXs_Csj6wxYkIORKR_15lb_controlplaneNtB6_11FileBackendNtB6_13ConfigBackend5stores_0B6_
FNDA:0,_RNvMCsj6wxYkIORKR_15lb_controlplaneNtB2_11FileBackend3new
FNDA:0,_RNvMs0_Csj6wxYkIORKR_15lb_controlplaneNtB5_15InMemoryBackend3new
FNDA:0,_RNvMs0_Csj6wxYkIORKR_15lb_controlplaneNtB5_15InMemoryBackend3set
FNDA:0,_RNvMs2_Csj6wxYkIORKR_15lb_controlplaneNtB5_13ConfigManager14current_config
FNDA:0,_RNvMs2_Csj6wxYkIORKR_15lb_controlplaneNtB5_13ConfigManager15previous_config
FNDA:0,_RNvMs2_Csj6wxYkIORKR_15lb_controlplaneNtB5_13ConfigManager20rollback_to_previous
FNDA:0,_RNvMs2_Csj6wxYkIORKR_15lb_controlplaneNtB5_13ConfigManager3new
FNDA:0,_RNvMs2_Csj6wxYkIORKR_15lb_controlplaneNtB5_13ConfigManager6reload
FNDA:0,_RNvMs2_Csj6wxYkIORKR_15lb_controlplaneNtB5_13ConfigManager7version
FNDA:0,_RNvMs2_Csj6wxYkIORKR_15lb_controlplaneNtB5_13ConfigManager8rollback
FNDA:0,_RNvMs2_Csj6wxYkIORKR_15lb_controlplaneNtB5_13ConfigManager8validate
FNDA:0,_RNvMs3_Csj6wxYkIORKR_15lb_controlplaneNtB5_8HaPoller10poll_count
FNDA:0,_RNvMs3_Csj6wxYkIORKR_15lb_controlplaneNtB5_8HaPoller3new
FNDA:0,_RNvMs3_Csj6wxYkIORKR_15lb_controlplaneNtB5_8HaPoller4poll
FNDA:0,_RNvXs1_Csj6wxYkIORKR_15lb_controlplaneNtB5_15InMemoryBackendNtB5_13ConfigBackend4load
FNDA:0,_RNvXs1_Csj6wxYkIORKR_15lb_controlplaneNtB5_15InMemoryBackendNtB5_13ConfigBackend5store
FNDA:0,_RNvXs_Csj6wxYkIORKR_15lb_controlplaneNtB4_11FileBackendNtB4_13ConfigBackend4load
FNDA:0,_RNvXs_Csj6wxYkIORKR_15lb_controlplaneNtB4_11FileBackendNtB4_13ConfigBackend5store
FNDA:0,_RNvNtCsjngRnwoz35b_15lb_controlplane5testss_21validate_non_empty_ok
FNDA:0,_RNvNtCsjngRnwoz35b_15lb_controlplane5testss_22validate_valid_toml_ok
FNDA:0,_RNvNtCsjngRnwoz35b_15lb_controlplane5testss_23validate_empty_is_error
FNDA:0,_RNvNtCsjngRnwoz35b_15lb_controlplane5testss_25file_backend_atomic_write
FNDA:0,_RNvNtCsjngRnwoz35b_15lb_controlplane5testss_27config_manager_initial_load
FNDA:0,_RNvNtCsjngRnwoz35b_15lb_controlplane5testss_28in_memory_backend_load_store
FNDA:0,_RNvNtCsjngRnwoz35b_15lb_controlplane5testss_30validate_invalid_toml_is_error
FNDA:0,_RNvNtCsjngRnwoz35b_15lb_controlplane5testss_31config_manager_reload_no_change
FNDA:0,_RNvNtCsjngRnwoz35b_15lb_controlplane5testss_32ha_poller_no_change_returns_none
FNDA:0,_RNvNtCsjngRnwoz35b_15lb_controlplane5testss_33ha_poller_first_poll_returns_some
FNDA:0,_RNvNtCsjngRnwoz35b_15lb_controlplane5testss_35config_manager_rollback_to_previous
FNDA:0,_RNvNtCsjngRnwoz35b_15lb_controlplane5testss_36config_manager_reload_saves_previous
FNDA:0,_RNvNtCsjngRnwoz35b_15lb_controlplane5testss_40config_manager_rollback_to_previous_none
FNDA:0,_RNvNtCsjngRnwoz35b_15lb_controlplane5testss_43config_manager_rejects_empty_initial_config
FNDA:0,_RNvNtCsjngRnwoz35b_15lb_controlplane5testss_45config_manager_rejects_invalid_initial_config
FNDA:0,_RNCNvMs2_CsjngRnwoz35b_15lb_controlplaneNtB7_13ConfigManager8validate0B7_
FNDA:0,_RNCNvXs1_CsjngRnwoz35b_15lb_controlplaneNtB7_15InMemoryBackendNtB7_13ConfigBackend4load0B7_
FNDA:0,_RNCNvXs1_CsjngRnwoz35b_15lb_controlplaneNtB7_15InMemoryBackendNtB7_13ConfigBackend5store0B7_
FNDA:0,_RNCNvXs_CsjngRnwoz35b_15lb_controlplaneNtB6_11FileBackendNtB6_13ConfigBackend5store0B6_
FNDA:0,_RNCNvXs_CsjngRnwoz35b_15lb_controlplaneNtB6_11FileBackendNtB6_13ConfigBackend5stores0_0B6_
FNDA:0,_RNCNvXs_CsjngRnwoz35b_15lb_controlplaneNtB6_11FileBackendNtB6_13ConfigBackend5stores1_0B6_
FNDA:0,_RNCNvXs_CsjngRnwoz35b_15lb_controlplaneNtB6_11FileBackendNtB6_13ConfigBackend5stores_0B6_
FNDA:0,_RNvMCsjngRnwoz35b_15lb_controlplaneNtB2_11FileBackend3new
FNDA:0,_RNvMs0_CsjngRnwoz35b_15lb_controlplaneNtB5_15InMemoryBackend3new
FNDA:0,_RNvMs2_CsjngRnwoz35b_15lb_controlplaneNtB5_13ConfigManager14current_config
FNDA:0,_RNvMs2_CsjngRnwoz35b_15lb_controlplaneNtB5_13ConfigManager15previous_config
FNDA:0,_RNvMs2_CsjngRnwoz35b_15lb_controlplaneNtB5_13ConfigManager20rollback_to_previous
FNDA:0,_RNvMs2_CsjngRnwoz35b_15lb_controlplaneNtB5_13ConfigManager3new
FNDA:0,_RNvMs2_CsjngRnwoz35b_15lb_controlplaneNtB5_13ConfigManager6reload
FNDA:0,_RNvMs2_CsjngRnwoz35b_15lb_controlplaneNtB5_13ConfigManager7version
FNDA:0,_RNvMs2_CsjngRnwoz35b_15lb_controlplaneNtB5_13ConfigManager8validate
FNDA:0,_RNvMs3_CsjngRnwoz35b_15lb_controlplaneNtB5_8HaPoller10poll_count
FNDA:0,_RNvMs3_CsjngRnwoz35b_15lb_controlplaneNtB5_8HaPoller3new
FNDA:0,_RNvMs3_CsjngRnwoz35b_15lb_controlplaneNtB5_8HaPoller4poll
FNDA:0,_RNvXs1_CsjngRnwoz35b_15lb_controlplaneNtB5_15InMemoryBackendNtB5_13ConfigBackend4load
FNDA:0,_RNvXs1_CsjngRnwoz35b_15lb_controlplaneNtB5_15InMemoryBackendNtB5_13ConfigBackend5store
FNDA:0,_RNvXs_CsjngRnwoz35b_15lb_controlplaneNtB4_11FileBackendNtB4_13ConfigBackend4load
FNDA:0,_RNvXs_CsjngRnwoz35b_15lb_controlplaneNtB4_11FileBackendNtB4_13ConfigBackend5store
FNDA:0,_RNCNvMs0_CsjngRnwoz35b_15lb_controlplaneNtB7_15InMemoryBackend3set0B7_
FNDA:0,_RNvMs0_CsjngRnwoz35b_15lb_controlplaneNtB5_15InMemoryBackend3set
FNDA:0,_RNvMs2_CsjngRnwoz35b_15lb_controlplaneNtB5_13ConfigManager8rollback
FNF:41
FNH:0
DA:72,0
DA:73,0
DA:74,0
DA:78,0
DA:79,0
DA:80,0
DA:82,0
DA:83,0
DA:84,0
DA:85,0
DA:86,0
DA:87,0
DA:88,0
DA:89,0
DA:90,0
DA:91,0
DA:92,0
DA:93,0
DA:94,0
DA:95,0
DA:96,0
DA:108,0
DA:109,0
DA:110,0
DA:111,0
DA:112,0
DA:119,0
DA:120,0
DA:121,0
DA:122,0
DA:123,0
DA:124,0
DA:125,0
DA:126,0
DA:127,0
DA:131,0
DA:132,0
DA:133,0
DA:134,0
DA:135,0
DA:136,0
DA:137,0
DA:139,0
DA:140,0
DA:141,0
DA:142,0
DA:143,0
DA:144,0
DA:145,0
DA:146,0
DA:147,0
DA:169,0
DA:170,0
DA:171,0
DA:172,0
DA:173,0
DA:174,0
DA:175,0
DA:176,0
DA:177,0
DA:178,0
DA:189,0
DA:190,0
DA:191,0
DA:192,0
DA:193,0
DA:194,0
DA:195,0
DA:196,0
DA:197,0
DA:198,0
DA:199,0
DA:203,0
DA:204,0
DA:205,0
DA:209,0
DA:210,0
DA:211,0
DA:215,0
DA:216,0
DA:217,0
DA:227,0
DA:228,0
DA:229,0
DA:230,0
DA:231,0
DA:232,0
DA:233,0
DA:234,0
DA:235,0
DA:236,0
DA:237,0
DA:244,0
DA:245,0
DA:246,0
DA:247,0
DA:248,0
DA:249,0
DA:250,0
DA:251,0
DA:262,0
DA:263,0
DA:264,0
DA:266,0
DA:267,0
DA:268,0
DA:269,0
DA:270,0
DA:271,0
DA:285,0
DA:286,0
DA:287,0
DA:288,0
DA:289,0
DA:290,0
DA:291,0
DA:301,0
DA:302,0
DA:303,0
DA:305,0
DA:306,0
DA:308,0
DA:309,0
DA:312,0
DA:316,0
DA:317,0
DA:318,0
DA:326,0
DA:327,0
DA:328,0
DA:330,0
DA:331,0
DA:332,0
DA:335,0
DA:336,0
DA:337,0
DA:338,0
DA:339,0
DA:340,0
DA:341,0
DA:344,0
DA:345,0
DA:346,0
DA:347,0
DA:348,0
DA:349,0
DA:352,0
DA:353,0
DA:354,0
DA:355,0
DA:356,0
DA:357,0
DA:358,0
DA:359,0
DA:360,0
DA:361,0
DA:362,0
DA:365,0
DA:366,0
DA:367,0
DA:368,0
DA:369,0
DA:370,0
DA:371,0
DA:374,0
DA:375,0
DA:376,0
DA:377,0
DA:380,0
DA:381,0
DA:382,0
DA:383,0
DA:384,0
DA:385,0
DA:386,0
DA:389,0
DA:390,0
DA:391,0
DA:392,0
DA:395,0
DA:396,0
DA:397,0
DA:400,0
DA:401,0
DA:402,0
DA:405,0
DA:406,0
DA:407,0
DA:408,0
DA:409,0
DA:410,0
DA:411,0
DA:412,0
DA:415,0
DA:416,0
DA:417,0
DA:418,0
DA:419,0
DA:420,0
DA:421,0
DA:422,0
DA:423,0
DA:424,0
DA:427,0
DA:428,0
DA:431,0
DA:432,0
DA:435,0
DA:436,0
DA:437,0
DA:438,0
DA:439,0
DA:440,0
DA:442,0
DA:445,0
DA:446,0
DA:447,0
DA:448,0
DA:449,0
DA:452,0
DA:453,0
DA:454,0
DA:455,0
DA:456,0
DA:457,0
DA:458,0
DA:461,0
DA:462,0
DA:463,0
DA:464,0
DA:465,0
DA:466,0
DA:467,0
DA:468,0
BRF:0
BRH:0
LF:242
LH:0
end_of_record
SF:/home/ubuntu/Code/ExpressGateway/.claude/worktrees/s15-builder/crates/lb-core/src/authority.rs
FN:102,_RNCNvNtCs9s2aCs0zKke_7lb_core9authority11port_suffix0B5_
FN:72,_RNCNvNtCs9s2aCs0zKke_7lb_core9authority8validate0B5_
FN:85,_RNCNvNtCs9s2aCs0zKke_7lb_core9authority8validates0_0B5_
FN:73,_RNCNvNtCs9s2aCs0zKke_7lb_core9authority8validates_0B5_
FN:94,_RNvNtCs9s2aCs0zKke_7lb_core9authority11port_suffix
FN:57,_RNvNtCs9s2aCs0zKke_7lb_core9authority8validate
FN:102,_RNCNvNtCsbKiU9ba2TmL_7lb_core9authority11port_suffix0B5_
FN:72,_RNCNvNtCsbKiU9ba2TmL_7lb_core9authority8validate0B5_
FN:85,_RNCNvNtCsbKiU9ba2TmL_7lb_core9authority8validates0_0B5_
FN:73,_RNCNvNtCsbKiU9ba2TmL_7lb_core9authority8validates_0B5_
FN:94,_RNvNtCsbKiU9ba2TmL_7lb_core9authority11port_suffix
FN:57,_RNvNtCsbKiU9ba2TmL_7lb_core9authority8validate
FN:116,_RNvNtNtCsbKiU9ba2TmL_7lb_core9authority5testss_14comma_rejected
FN:133,_RNvNtNtCsbKiU9ba2TmL_7lb_core9authority5testss_14empty_rejected
FN:145,_RNvNtNtCsbKiU9ba2TmL_7lb_core9authority5testss_16port_digits_only
FN:154,_RNvNtNtCsbKiU9ba2TmL_7lb_core9authority5testss_19happy_path_examples
FN:121,_RNvNtNtCsbKiU9ba2TmL_7lb_core9authority5testss_19whitespace_rejected
FN:127,_RNvNtNtCsbKiU9ba2TmL_7lb_core9authority5testss_21control_char_rejected
FN:138,_RNvNtNtCsbKiU9ba2TmL_7lb_core9authority5testss_26ipv6_brackets_must_balance
FN:164,_RNvNtNtCsbKiU9ba2TmL_7lb_core9authority5testss_31empty_port_after_colon_rejected
FN:169,_RNvNtNtCsbKiU9ba2TmL_7lb_core9authority5testss_40raw_ipv6_without_brackets_accepted_today
FNDA:0,_RNCNvNtCs9s2aCs0zKke_7lb_core9authority11port_suffix0B5_
FNDA:0,_RNCNvNtCs9s2aCs0zKke_7lb_core9authority8validate0B5_
FNDA:0,_RNCNvNtCs9s2aCs0zKke_7lb_core9authority8validates0_0B5_
FNDA:0,_RNCNvNtCs9s2aCs0zKke_7lb_core9authority8validates_0B5_
FNDA:0,_RNvNtCs9s2aCs0zKke_7lb_core9authority11port_suffix
FNDA:0,_RNvNtCs9s2aCs0zKke_7lb_core9authority8validate
FNDA:0,_RNCNvNtCsbKiU9ba2TmL_7lb_core9authority11port_suffix0B5_
FNDA:0,_RNCNvNtCsbKiU9ba2TmL_7lb_core9authority8validate0B5_
FNDA:0,_RNCNvNtCsbKiU9ba2TmL_7lb_core9authority8validates0_0B5_
FNDA:0,_RNCNvNtCsbKiU9ba2TmL_7lb_core9authority8validates_0B5_
FNDA:0,_RNvNtCsbKiU9ba2TmL_7lb_core9authority11port_suffix
FNDA:0,_RNvNtCsbKiU9ba2TmL_7lb_core9authority8validate
FNDA:0,_RNvNtNtCsbKiU9ba2TmL_7lb_core9authority5testss_14comma_rejected
FNDA:0,_RNvNtNtCsbKiU9ba2TmL_7lb_core9authority5testss_14empty_rejected
FNDA:0,_RNvNtNtCsbKiU9ba2TmL_7lb_core9authority5testss_16port_digits_only
FNDA:0,_RNvNtNtCsbKiU9ba2TmL_7lb_core9authority5testss_19happy_path_examples
FNDA:0,_RNvNtNtCsbKiU9ba2TmL_7lb_core9authority5testss_19whitespace_rejected
FNDA:0,_RNvNtNtCsbKiU9ba2TmL_7lb_core9authority5testss_21control_char_rejected
FNDA:0,_RNvNtNtCsbKiU9ba2TmL_7lb_core9authority5testss_26ipv6_brackets_must_balance
FNDA:0,_RNvNtNtCsbKiU9ba2TmL_7lb_core9authority5testss_31empty_port_after_colon_rejected
FNDA:0,_RNvNtNtCsbKiU9ba2TmL_7lb_core9authority5testss_40raw_ipv6_without_brackets_accepted_today
FNF:15
FNH:0
DA:57,0
DA:58,0
DA:59,0
DA:60,0
DA:61,0
DA:62,0
DA:63,0
DA:64,0
DA:65,0
DA:66,0
DA:72,0
DA:73,0
DA:74,0
DA:75,0
DA:76,0
DA:81,0
DA:82,0
DA:83,0
DA:84,0
DA:85,0
DA:86,0
DA:87,0
DA:88,0
DA:89,0
DA:90,0
DA:94,0
DA:96,0
DA:97,0
DA:98,0
DA:99,0
DA:100,0
DA:101,0
DA:102,0
DA:103,0
DA:104,0
DA:105,0
DA:106,0
DA:107,0
DA:108,0
DA:116,0
DA:117,0
DA:118,0
DA:121,0
DA:122,0
DA:123,0
DA:124,0
DA:127,0
DA:128,0
DA:129,0
DA:130,0
DA:133,0
DA:134,0
DA:135,0
DA:138,0
DA:139,0
DA:140,0
DA:141,0
DA:142,0
DA:145,0
DA:146,0
DA:147,0
DA:148,0
DA:149,0
DA:150,0
DA:151,0
DA:154,0
DA:155,0
DA:156,0
DA:157,0
DA:158,0
DA:159,0
DA:160,0
DA:161,0
DA:164,0
DA:165,0
DA:166,0
DA:169,0
DA:170,0
DA:171,0
DA:172,0
DA:173,0
DA:174,0
DA:175,0
DA:176,0
DA:177,0
BRF:0
BRH:0
LF:89
LH:0
end_of_record
SF:/home/ubuntu/Code/ExpressGateway/.claude/worktrees/s15-builder/crates/lb-core/src/backend.rs
FN:29,_RNvMNtCs9s2aCs0zKke_7lb_core7backendNtB2_7Backend2id
FN:19,_RNvMNtCs9s2aCs0zKke_7lb_core7backendNtB2_7Backend3new
FN:41,_RNvMNtCs9s2aCs0zKke_7lb_core7backendNtB2_7Backend6weight
FN:35,_RNvMNtCs9s2aCs0zKke_7lb_core7backendNtB2_7Backend7address
FN:157,_RNvMs_NtCs9s2aCs0zKke_7lb_core7backendNtB4_12BackendState10latency_ns
FN:139,_RNvMs_NtCs9s2aCs0zKke_7lb_core7backendNtB4_12BackendState12dec_requests
FN:134,_RNvMs_NtCs9s2aCs0zKke_7lb_core7backendNtB4_12BackendState12inc_requests
FN:162,_RNvMs_NtCs9s2aCs0zKke_7lb_core7backendNtB4_12BackendState14set_latency_ns
FN:129,_RNvMs_NtCs9s2aCs0zKke_7lb_core7backendNtB4_12BackendState15active_requests
FN:110,_RNvMs_NtCs9s2aCs0zKke_7lb_core7backendNtB4_12BackendState15dec_connections
FN:102,_RNvMs_NtCs9s2aCs0zKke_7lb_core7backendNtB4_12BackendState15inc_connections
FN:81,_RNvMs_NtCs9s2aCs0zKke_7lb_core7backendNtB4_12BackendState18active_connections
FN:71,_RNvMs_NtCs9s2aCs0zKke_7lb_core7backendNtB4_12BackendState3new
FN:168,_RNvXs0_NtCs9s2aCs0zKke_7lb_core7backendNtB5_12BackendStateNtNtCs2va5m0jqTTM_4core7default7Default7default
FN:174,_RNvXs1_NtCs9s2aCs0zKke_7lb_core7backendNtB5_12BackendStateNtNtCs2va5m0jqTTM_4core5clone5Clone5clone
FN:29,_RNvMNtCsbKiU9ba2TmL_7lb_core7backendNtB2_7Backend2id
FN:19,_RNvMNtCsbKiU9ba2TmL_7lb_core7backendNtB2_7Backend3new
FN:41,_RNvMNtCsbKiU9ba2TmL_7lb_core7backendNtB2_7Backend6weight
FN:35,_RNvMNtCsbKiU9ba2TmL_7lb_core7backendNtB2_7Backend7address
FN:157,_RNvMs_NtCsbKiU9ba2TmL_7lb_core7backendNtB4_12BackendState10latency_ns
FN:139,_RNvMs_NtCsbKiU9ba2TmL_7lb_core7backendNtB4_12BackendState12dec_requests
FN:134,_RNvMs_NtCsbKiU9ba2TmL_7lb_core7backendNtB4_12BackendState12inc_requests
FN:162,_RNvMs_NtCsbKiU9ba2TmL_7lb_core7backendNtB4_12BackendState14set_latency_ns
FN:129,_RNvMs_NtCsbKiU9ba2TmL_7lb_core7backendNtB4_12BackendState15active_requests
FN:110,_RNvMs_NtCsbKiU9ba2TmL_7lb_core7backendNtB4_12BackendState15dec_connections
FN:102,_RNvMs_NtCsbKiU9ba2TmL_7lb_core7backendNtB4_12BackendState15inc_connections
FN:81,_RNvMs_NtCsbKiU9ba2TmL_7lb_core7backendNtB4_12BackendState18active_connections
FN:71,_RNvMs_NtCsbKiU9ba2TmL_7lb_core7backendNtB4_12BackendState3new
FN:168,_RNvXs0_NtCsbKiU9ba2TmL_7lb_core7backendNtB5_12BackendStateNtNtCs2va5m0jqTTM_4core7default7Default7default
FN:174,_RNvXs1_NtCsbKiU9ba2TmL_7lb_core7backendNtB5_12BackendStateNtNtCs2va5m0jqTTM_4core5clone5Clone5clone
FNDA:0,_RNvMNtCs9s2aCs0zKke_7lb_core7backendNtB2_7Backend2id
FNDA:0,_RNvMNtCs9s2aCs0zKke_7lb_core7backendNtB2_7Backend3new
FNDA:0,_RNvMNtCs9s2aCs0zKke_7lb_core7backendNtB2_7Backend6weight
FNDA:0,_RNvMNtCs9s2aCs0zKke_7lb_core7backendNtB2_7Backend7address
FNDA:0,_RNvMs_NtCs9s2aCs0zKke_7lb_core7backendNtB4_12BackendState10latency_ns
FNDA:0,_RNvMs_NtCs9s2aCs0zKke_7lb_core7backendNtB4_12BackendState12dec_requests
FNDA:0,_RNvMs_NtCs9s2aCs0zKke_7lb_core7backendNtB4_12BackendState12inc_requests
FNDA:0,_RNvMs_NtCs9s2aCs0zKke_7lb_core7backendNtB4_12BackendState14set_latency_ns
FNDA:0,_RNvMs_NtCs9s2aCs0zKke_7lb_core7backendNtB4_12BackendState15active_requests
FNDA:0,_RNvMs_NtCs9s2aCs0zKke_7lb_core7backendNtB4_12BackendState15dec_connections
FNDA:0,_RNvMs_NtCs9s2aCs0zKke_7lb_core7backendNtB4_12BackendState15inc_connections
FNDA:0,_RNvMs_NtCs9s2aCs0zKke_7lb_core7backendNtB4_12BackendState18active_connections
FNDA:0,_RNvMs_NtCs9s2aCs0zKke_7lb_core7backendNtB4_12BackendState3new
FNDA:0,_RNvXs0_NtCs9s2aCs0zKke_7lb_core7backendNtB5_12BackendStateNtNtCs2va5m0jqTTM_4core7default7Default7default
FNDA:0,_RNvXs1_NtCs9s2aCs0zKke_7lb_core7backendNtB5_12BackendStateNtNtCs2va5m0jqTTM_4core5clone5Clone5clone
FNDA:0,_RNvMNtCsbKiU9ba2TmL_7lb_core7backendNtB2_7Backend2id
FNDA:0,_RNvMNtCsbKiU9ba2TmL_7lb_core7backendNtB2_7Backend3new
FNDA:0,_RNvMNtCsbKiU9ba2TmL_7lb_core7backendNtB2_7Backend6weight
FNDA:0,_RNvMNtCsbKiU9ba2TmL_7lb_core7backendNtB2_7Backend7address
FNDA:0,_RNvMs_NtCsbKiU9ba2TmL_7lb_core7backendNtB4_12BackendState10latency_ns
FNDA:0,_RNvMs_NtCsbKiU9ba2TmL_7lb_core7backendNtB4_12BackendState12dec_requests
FNDA:0,_RNvMs_NtCsbKiU9ba2TmL_7lb_core7backendNtB4_12BackendState12inc_requests
FNDA:0,_RNvMs_NtCsbKiU9ba2TmL_7lb_core7backendNtB4_12BackendState14set_latency_ns
FNDA:0,_RNvMs_NtCsbKiU9ba2TmL_7lb_core7backendNtB4_12BackendState15active_requests
FNDA:0,_RNvMs_NtCsbKiU9ba2TmL_7lb_core7backendNtB4_12BackendState15dec_connections
FNDA:0,_RNvMs_NtCsbKiU9ba2TmL_7lb_core7backendNtB4_12BackendState15inc_connections
FNDA:0,_RNvMs_NtCsbKiU9ba2TmL_7lb_core7backendNtB4_12BackendState18active_connections
FNDA:0,_RNvMs_NtCsbKiU9ba2TmL_7lb_core7backendNtB4_12BackendState3new
FNDA:0,_RNvXs0_NtCsbKiU9ba2TmL_7lb_core7backendNtB5_12BackendStateNtNtCs2va5m0jqTTM_4core7default7Default7default
FNDA:0,_RNvXs1_NtCsbKiU9ba2TmL_7lb_core7backendNtB5_12BackendStateNtNtCs2va5m0jqTTM_4core5clone5Clone5clone
FNF:15
FNH:0
DA:19,0
DA:20,0
DA:21,0
DA:22,0
DA:23,0
DA:24,0
DA:25,0
DA:29,0
DA:30,0
DA:31,0
DA:35,0
DA:36,0
DA:37,0
DA:41,0
DA:42,0
DA:43,0
DA:71,0
DA:72,0
DA:73,0
DA:74,0
DA:75,0
DA:76,0
DA:77,0
DA:81,0
DA:82,0
DA:83,0
DA:102,0
DA:103,0
DA:104,0
DA:105,0
DA:106,0
DA:107,0
DA:110,0
DA:111,0
DA:112,0
DA:114,0
DA:115,0
DA:116,0
DA:117,0
DA:118,0
DA:119,0
DA:120,0
DA:121,0
DA:122,0
DA:125,0
DA:129,0
DA:130,0
DA:131,0
DA:134,0
DA:135,0
DA:136,0
DA:139,0
DA:140,0
DA:142,0
DA:143,0
DA:144,0
DA:145,0
DA:146,0
DA:147,0
DA:148,0
DA:149,0
DA:150,0
DA:153,0
DA:157,0
DA:158,0
DA:159,0
DA:162,0
DA:163,0
DA:164,0
DA:168,0
DA:169,0
DA:170,0
DA:174,0
DA:175,0
DA:176,0
DA:177,0
DA:178,0
DA:179,0
DA:180,0
BRF:0
BRH:0
LF:79
LH:0
end_of_record
SF:/home/ubuntu/Code/ExpressGateway/.claude/worktrees/s15-builder/crates/lb-core/src/cluster.rs
FN:40,_RNvMNtCs9s2aCs0zKke_7lb_core7clusterNtB2_7Cluster12backends_mut
FN:19,_RNvMNtCs9s2aCs0zKke_7lb_core7clusterNtB2_7Cluster3new
FN:29,_RNvMNtCs9s2aCs0zKke_7lb_core7clusterNtB2_7Cluster4name
FN:46,_RNvMNtCs9s2aCs0zKke_7lb_core7clusterNtB2_7Cluster6policy
FN:35,_RNvMNtCs9s2aCs0zKke_7lb_core7clusterNtB2_7Cluster8backends
FN:19,_RNvMNtCsbKiU9ba2TmL_7lb_core7clusterNtB2_7Cluster3new
FN:29,_RNvMNtCsbKiU9ba2TmL_7lb_core7clusterNtB2_7Cluster4name
FN:46,_RNvMNtCsbKiU9ba2TmL_7lb_core7clusterNtB2_7Cluster6policy
FN:35,_RNvMNtCsbKiU9ba2TmL_7lb_core7clusterNtB2_7Cluster8backends
FN:40,_RNvMNtCsbKiU9ba2TmL_7lb_core7clusterNtB2_7Cluster12backends_mut
FNDA:0,_RNvMNtCs9s2aCs0zKke_7lb_core7clusterNtB2_7Cluster12backends_mut
FNDA:0,_RNvMNtCs9s2aCs0zKke_7lb_core7clusterNtB2_7Cluster3new
FNDA:0,_RNvMNtCs9s2aCs0zKke_7lb_core7clusterNtB2_7Cluster4name
FNDA:0,_RNvMNtCs9s2aCs0zKke_7lb_core7clusterNtB2_7Cluster6policy
FNDA:0,_RNvMNtCs9s2aCs0zKke_7lb_core7clusterNtB2_7Cluster8backends
FNDA:0,_RNvMNtCsbKiU9ba2TmL_7lb_core7clusterNtB2_7Cluster3new
FNDA:0,_RNvMNtCsbKiU9ba2TmL_7lb_core7clusterNtB2_7Cluster4name
FNDA:0,_RNvMNtCsbKiU9ba2TmL_7lb_core7clusterNtB2_7Cluster6policy
FNDA:0,_RNvMNtCsbKiU9ba2TmL_7lb_core7clusterNtB2_7Cluster8backends
FNDA:0,_RNvMNtCsbKiU9ba2TmL_7lb_core7clusterNtB2_7Cluster12backends_mut
FNF:5
FNH:0
DA:19,0
DA:20,0
DA:21,0
DA:22,0
DA:23,0
DA:24,0
DA:25,0
DA:29,0
DA:30,0
DA:31,0
DA:35,0
DA:36,0
DA:37,0
DA:40,0
DA:41,0
DA:42,0
DA:46,0
DA:47,0
DA:48,0
BRF:0
BRH:0
LF:19
LH:0
end_of_record
SF:/home/ubuntu/Code/ExpressGateway/.claude/worktrees/s15-builder/crates/lb-core/src/lib.rs
FN:39,_RNvNtCsbKiU9ba2TmL_7lb_core5testss_21test_backend_creation
FN:102,_RNvNtCsbKiU9ba2TmL_7lb_core5testss_21test_cluster_creation
FN:134,_RNvNtCsbKiU9ba2TmL_7lb_core5testss_23test_core_error_display
FN:84,_RNvNtCsbKiU9ba2TmL_7lb_core5testss_23test_lb_policy_variants
FN:76,_RNvNtCsbKiU9ba2TmL_7lb_core5testss_26test_backend_state_latency
FN:48,_RNvNtCsbKiU9ba2TmL_7lb_core5testss_27test_backend_health_default
FN:64,_RNvNtCsbKiU9ba2TmL_7lb_core5testss_27test_backend_state_requests
FN:112,_RNvNtCsbKiU9ba2TmL_7lb_core5testss_28test_backend_serde_roundtrip
FN:123,_RNvNtCsbKiU9ba2TmL_7lb_core5testss_28test_cluster_serde_roundtrip
FN:53,_RNvNtCsbKiU9ba2TmL_7lb_core5testss_30test_backend_state_connections
FNDA:0,_RNvNtCsbKiU9ba2TmL_7lb_core5testss_21test_backend_creation
FNDA:0,_RNvNtCsbKiU9ba2TmL_7lb_core5testss_21test_cluster_creation
FNDA:0,_RNvNtCsbKiU9ba2TmL_7lb_core5testss_23test_core_error_display
FNDA:0,_RNvNtCsbKiU9ba2TmL_7lb_core5testss_23test_lb_policy_variants
FNDA:0,_RNvNtCsbKiU9ba2TmL_7lb_core5testss_26test_backend_state_latency
FNDA:0,_RNvNtCsbKiU9ba2TmL_7lb_core5testss_27test_backend_health_default
FNDA:0,_RNvNtCsbKiU9ba2TmL_7lb_core5testss_27test_backend_state_requests
FNDA:0,_RNvNtCsbKiU9ba2TmL_7lb_core5testss_28test_backend_serde_roundtrip
FNDA:0,_RNvNtCsbKiU9ba2TmL_7lb_core5testss_28test_cluster_serde_roundtrip
FNDA:0,_RNvNtCsbKiU9ba2TmL_7lb_core5testss_30test_backend_state_connections
FNF:10
FNH:0
DA:39,0
DA:40,0
DA:41,0
DA:42,0
DA:43,0
DA:44,0
DA:45,0
DA:48,0
DA:49,0
DA:50,0
DA:53,0
DA:54,0
DA:55,0
DA:56,0
DA:57,0
DA:58,0
DA:59,0
DA:60,0
DA:61,0
DA:64,0
DA:65,0
DA:66,0
DA:67,0
DA:68,0
DA:69,0
DA:70,0
DA:71,0
DA:72,0
DA:73,0
DA:76,0
DA:77,0
DA:78,0
DA:79,0
DA:80,0
DA:81,0
DA:84,0
DA:85,0
DA:86,0
DA:87,0
DA:88,0
DA:89,0
DA:90,0
DA:91,0
DA:92,0
DA:93,0
DA:94,0
DA:95,0
DA:96,0
DA:97,0
DA:98,0
DA:99,0
DA:102,0
DA:103,0
DA:104,0
DA:105,0
DA:106,0
DA:107,0
DA:108,0
DA:109,0
DA:112,0
DA:113,0
DA:114,0
DA:115,0
DA:116,0
DA:117,0
DA:118,0
DA:119,0
DA:120,0
DA:123,0
DA:124,0
DA:125,0
DA:126,0
DA:127,0
DA:128,0
DA:129,0
DA:130,0
DA:131,0
DA:134,0
DA:135,0
DA:136,0
DA:137,0
DA:138,0
DA:139,0
DA:140,0
DA:141,0
BRF:0
BRH:0
LF:85
LH:0
end_of_record
SF:/home/ubuntu/Code/ExpressGateway/.claude/worktrees/s15-builder/crates/lb-core/src/shutdown.rs
FN:722,_RNCNvNtCs9s2aCs0zKke_7lb_core8shutdown13jitter_millis0B5_
FN:127,_RNvMNtCs9s2aCs0zKke_7lb_core8shutdownNtB2_8Shutdown14listener_token
FN:99,_RNvMNtCs9s2aCs0zKke_7lb_core8shutdownNtB2_8Shutdown3new
FN:144,_RNvMNtCs9s2aCs0zKke_7lb_core8shutdownNtB2_8Shutdown5child
FN:162,_RNvMNtCs9s2aCs0zKke_7lb_core8shutdownNtB2_8Shutdown5drain
FN:114,_RNvMNtCs9s2aCs0zKke_7lb_core8shutdownNtB2_8Shutdown5token
FN:135,_RNvMNtCs9s2aCs0zKke_7lb_core8shutdownNtB2_8Shutdown7tracker
FN:192,_RNvMNtCs9s2aCs0zKke_7lb_core8shutdownNtB2_8Shutdown9run_drain
FN:466,_RNvMs0_NtCs9s2aCs0zKke_7lb_core8shutdownNtB5_15ListenerOutcome8as_label
FN:500,_RNvMs1_NtCs9s2aCs0zKke_7lb_core8shutdownNtB5_16XdpDetachOutcome8as_label
FN:533,_RNvMs2_NtCs9s2aCs0zKke_7lb_core8shutdownNtB5_10DrainPhase8as_label
FN:577,_RNvMs3_NtCs9s2aCs0zKke_7lb_core8shutdownNtB5_11PhaseTiming12with_outcome
FN:559,_RNvMs3_NtCs9s2aCs0zKke_7lb_core8shutdownNtB5_11PhaseTiming4zero
FN:568,_RNvMs3_NtCs9s2aCs0zKke_7lb_core8shutdownNtB5_11PhaseTiming5clean
FN:711,_RNvNtCs9s2aCs0zKke_7lb_core8shutdown13jitter_millis
FN:676,_RNvXs4_NtCs9s2aCs0zKke_7lb_core8shutdownNtB5_9DrainSpecNtNtCs2va5m0jqTTM_4core7default7Default7default
FN:691,_RNvXs5_NtCs9s2aCs0zKke_7lb_core8shutdownNtB5_9DrainSpecNtNtCs2va5m0jqTTM_4core3fmt5Debug3fmt
FN:426,_RNvXs_NtCs9s2aCs0zKke_7lb_core8shutdownNtB4_8ShutdownNtNtCs2va5m0jqTTM_4core7default7Default7default
FN:162,_RNCNvMNtCs9s2aCs0zKke_7lb_core8shutdownNtB4_8Shutdown5drain0B6_
FN:192,_RNCNvMNtCs9s2aCs0zKke_7lb_core8shutdownNtB4_8Shutdown9run_drain0B6_
FN:192,_RNCNvMNtCs9s2aCs0zKke_7lb_core8shutdownNtB4_8Shutdown9run_drain0Cs4A7o14EwR5Q_14expressgateway
FN:162,_RNCNvMNtCsbKiU9ba2TmL_7lb_core8shutdownNtB4_8Shutdown5drain0B6_
FN:192,_RNCNvMNtCsbKiU9ba2TmL_7lb_core8shutdownNtB4_8Shutdown9run_drain0B6_
FN:722,_RNCNvNtCsbKiU9ba2TmL_7lb_core8shutdown13jitter_millis0B5_
FN:127,_RNvMNtCsbKiU9ba2TmL_7lb_core8shutdownNtB2_8Shutdown14listener_token
FN:99,_RNvMNtCsbKiU9ba2TmL_7lb_core8shutdownNtB2_8Shutdown3new
FN:144,_RNvMNtCsbKiU9ba2TmL_7lb_core8shutdownNtB2_8Shutdown5child
FN:162,_RNvMNtCsbKiU9ba2TmL_7lb_core8shutdownNtB2_8Shutdown5drain
FN:114,_RNvMNtCsbKiU9ba2TmL_7lb_core8shutdownNtB2_8Shutdown5token
FN:135,_RNvMNtCsbKiU9ba2TmL_7lb_core8shutdownNtB2_8Shutdown7tracker
FN:192,_RNvMNtCsbKiU9ba2TmL_7lb_core8shutdownNtB2_8Shutdown9run_drain
FN:466,_RNvMs0_NtCsbKiU9ba2TmL_7lb_core8shutdownNtB5_15ListenerOutcome8as_label
FN:500,_RNvMs1_NtCsbKiU9ba2TmL_7lb_core8shutdownNtB5_16XdpDetachOutcome8as_label
FN:533,_RNvMs2_NtCsbKiU9ba2TmL_7lb_core8shutdownNtB5_10DrainPhase8as_label
FN:577,_RNvMs3_NtCsbKiU9ba2TmL_7lb_core8shutdownNtB5_11PhaseTiming12with_outcome
FN:559,_RNvMs3_NtCsbKiU9ba2TmL_7lb_core8shutdownNtB5_11PhaseTiming4zero
FN:568,_RNvMs3_NtCsbKiU9ba2TmL_7lb_core8shutdownNtB5_11PhaseTiming5clean
FN:711,_RNvNtCsbKiU9ba2TmL_7lb_core8shutdown13jitter_millis
FN:676,_RNvXs4_NtCsbKiU9ba2TmL_7lb_core8shutdownNtB5_9DrainSpecNtNtCs2va5m0jqTTM_4core7default7Default7default
FN:691,_RNvXs5_NtCsbKiU9ba2TmL_7lb_core8shutdownNtB5_9DrainSpecNtNtCs2va5m0jqTTM_4core3fmt5Debug3fmt
FN:426,_RNvXs_NtCsbKiU9ba2TmL_7lb_core8shutdownNtB4_8ShutdownNtNtCs2va5m0jqTTM_4core7default7Default7default
FN:162,_RNCNvMNtCs9s2aCs0zKke_7lb_core8shutdownNtB4_8Shutdown5drain0CsabAW2LQ9ufu_20per_connection_drain
FN:192,_RNCNvMNtCs9s2aCs0zKke_7lb_core8shutdownNtB4_8Shutdown9run_drain0CsabAW2LQ9ufu_20per_connection_drain
FN:192,_RNCNvMNtCs9s2aCs0zKke_7lb_core8shutdownNtB4_8Shutdown9run_drain0CsizLnrIzv7hU_19round8_drain_15case
FN:192,_RNCNvMNtCs9s2aCs0zKke_7lb_core8shutdownNtB4_8Shutdown9run_drain0Cs6rTFBO53gLV_24round8_drain_coordinator
FN:162,_RNCNvMNtCs9s2aCs0zKke_7lb_core8shutdownNtB4_8Shutdown5drain0CshypC5vXOtRp_8shutdown
FN:192,_RNCNvMNtCs9s2aCs0zKke_7lb_core8shutdownNtB4_8Shutdown9run_drain0CshypC5vXOtRp_8shutdown
FNDA:0,_RNCNvNtCs9s2aCs0zKke_7lb_core8shutdown13jitter_millis0B5_
FNDA:0,_RNvMNtCs9s2aCs0zKke_7lb_core8shutdownNtB2_8Shutdown14listener_token
FNDA:0,_RNvMNtCs9s2aCs0zKke_7lb_core8shutdownNtB2_8Shutdown3new
FNDA:0,_RNvMNtCs9s2aCs0zKke_7lb_core8shutdownNtB2_8Shutdown5child
FNDA:0,_RNvMNtCs9s2aCs0zKke_7lb_core8shutdownNtB2_8Shutdown5drain
FNDA:0,_RNvMNtCs9s2aCs0zKke_7lb_core8shutdownNtB2_8Shutdown5token
FNDA:0,_RNvMNtCs9s2aCs0zKke_7lb_core8shutdownNtB2_8Shutdown7tracker
FNDA:0,_RNvMNtCs9s2aCs0zKke_7lb_core8shutdownNtB2_8Shutdown9run_drain
FNDA:0,_RNvMs0_NtCs9s2aCs0zKke_7lb_core8shutdownNtB5_15ListenerOutcome8as_label
FNDA:0,_RNvMs1_NtCs9s2aCs0zKke_7lb_core8shutdownNtB5_16XdpDetachOutcome8as_label
FNDA:0,_RNvMs2_NtCs9s2aCs0zKke_7lb_core8shutdownNtB5_10DrainPhase8as_label
FNDA:0,_RNvMs3_NtCs9s2aCs0zKke_7lb_core8shutdownNtB5_11PhaseTiming12with_outcome
FNDA:0,_RNvMs3_NtCs9s2aCs0zKke_7lb_core8shutdownNtB5_11PhaseTiming4zero
FNDA:0,_RNvMs3_NtCs9s2aCs0zKke_7lb_core8shutdownNtB5_11PhaseTiming5clean
FNDA:0,_RNvNtCs9s2aCs0zKke_7lb_core8shutdown13jitter_millis
FNDA:0,_RNvXs4_NtCs9s2aCs0zKke_7lb_core8shutdownNtB5_9DrainSpecNtNtCs2va5m0jqTTM_4core7default7Default7default
FNDA:0,_RNvXs5_NtCs9s2aCs0zKke_7lb_core8shutdownNtB5_9DrainSpecNtNtCs2va5m0jqTTM_4core3fmt5Debug3fmt
FNDA:0,_RNvXs_NtCs9s2aCs0zKke_7lb_core8shutdownNtB4_8ShutdownNtNtCs2va5m0jqTTM_4core7default7Default7default
FNDA:0,_RNCNvMNtCs9s2aCs0zKke_7lb_core8shutdownNtB4_8Shutdown5drain0B6_
FNDA:0,_RNCNvMNtCs9s2aCs0zKke_7lb_core8shutdownNtB4_8Shutdown9run_drain0B6_
FNDA:0,_RNCNvMNtCs9s2aCs0zKke_7lb_core8shutdownNtB4_8Shutdown9run_drain0Cs4A7o14EwR5Q_14expressgateway
FNDA:0,_RNCNvMNtCsbKiU9ba2TmL_7lb_core8shutdownNtB4_8Shutdown5drain0B6_
FNDA:0,_RNCNvMNtCsbKiU9ba2TmL_7lb_core8shutdownNtB4_8Shutdown9run_drain0B6_
FNDA:0,_RNCNvNtCsbKiU9ba2TmL_7lb_core8shutdown13jitter_millis0B5_
FNDA:0,_RNvMNtCsbKiU9ba2TmL_7lb_core8shutdownNtB2_8Shutdown14listener_token
FNDA:0,_RNvMNtCsbKiU9ba2TmL_7lb_core8shutdownNtB2_8Shutdown3new
FNDA:0,_RNvMNtCsbKiU9ba2TmL_7lb_core8shutdownNtB2_8Shutdown5child
FNDA:0,_RNvMNtCsbKiU9ba2TmL_7lb_core8shutdownNtB2_8Shutdown5drain
FNDA:0,_RNvMNtCsbKiU9ba2TmL_7lb_core8shutdownNtB2_8Shutdown5token
FNDA:0,_RNvMNtCsbKiU9ba2TmL_7lb_core8shutdownNtB2_8Shutdown7tracker
FNDA:0,_RNvMNtCsbKiU9ba2TmL_7lb_core8shutdownNtB2_8Shutdown9run_drain
FNDA:0,_RNvMs0_NtCsbKiU9ba2TmL_7lb_core8shutdownNtB5_15ListenerOutcome8as_label
FNDA:0,_RNvMs1_NtCsbKiU9ba2TmL_7lb_core8shutdownNtB5_16XdpDetachOutcome8as_label
FNDA:0,_RNvMs2_NtCsbKiU9ba2TmL_7lb_core8shutdownNtB5_10DrainPhase8as_label
FNDA:0,_RNvMs3_NtCsbKiU9ba2TmL_7lb_core8shutdownNtB5_11PhaseTiming12with_outcome
FNDA:0,_RNvMs3_NtCsbKiU9ba2TmL_7lb_core8shutdownNtB5_11PhaseTiming4zero
FNDA:0,_RNvMs3_NtCsbKiU9ba2TmL_7lb_core8shutdownNtB5_11PhaseTiming5clean
FNDA:0,_RNvNtCsbKiU9ba2TmL_7lb_core8shutdown13jitter_millis
FNDA:0,_RNvXs4_NtCsbKiU9ba2TmL_7lb_core8shutdownNtB5_9DrainSpecNtNtCs2va5m0jqTTM_4core7default7Default7default
FNDA:0,_RNvXs5_NtCsbKiU9ba2TmL_7lb_core8shutdownNtB5_9DrainSpecNtNtCs2va5m0jqTTM_4core3fmt5Debug3fmt
FNDA:0,_RNvXs_NtCsbKiU9ba2TmL_7lb_core8shutdownNtB4_8ShutdownNtNtCs2va5m0jqTTM_4core7default7Default7default
FNDA:0,_RNCNvMNtCs9s2aCs0zKke_7lb_core8shutdownNtB4_8Shutdown5drain0CsabAW2LQ9ufu_20per_connection_drain
FNDA:0,_RNCNvMNtCs9s2aCs0zKke_7lb_core8shutdownNtB4_8Shutdown9run_drain0CsabAW2LQ9ufu_20per_connection_drain
FNDA:0,_RNCNvMNtCs9s2aCs0zKke_7lb_core8shutdownNtB4_8Shutdown9run_drain0CsizLnrIzv7hU_19round8_drain_15case
FNDA:0,_RNCNvMNtCs9s2aCs0zKke_7lb_core8shutdownNtB4_8Shutdown9run_drain0Cs6rTFBO53gLV_24round8_drain_coordinator
FNDA:0,_RNCNvMNtCs9s2aCs0zKke_7lb_core8shutdownNtB4_8Shutdown5drain0CshypC5vXOtRp_8shutdown
FNDA:0,_RNCNvMNtCs9s2aCs0zKke_7lb_core8shutdownNtB4_8Shutdown9run_drain0CshypC5vXOtRp_8shutdown
FNF:20
FNH:0
DA:99,0
DA:100,0
DA:101,0
DA:102,0
DA:103,0
DA:104,0
DA:105,0
DA:106,0
DA:107,0
DA:108,0
DA:114,0
DA:115,0
DA:116,0
DA:127,0
DA:128,0
DA:129,0
DA:135,0
DA:136,0
DA:137,0
DA:144,0
DA:145,0
DA:146,0
DA:147,0
DA:148,0
DA:149,0
DA:150,0
DA:151,0
DA:162,0
DA:163,0
DA:164,0
DA:165,0
DA:166,0
DA:167,0
DA:168,0
DA:169,0
DA:170,0
DA:171,0
DA:172,0
DA:173,0
DA:174,0
DA:175,0
DA:176,0
DA:177,0
DA:178,0
DA:180,0
DA:192,0
DA:193,0
DA:194,0
DA:195,0
DA:196,0
DA:197,0
DA:198,0
DA:199,0
DA:200,0
DA:201,0
DA:202,0
DA:205,0
DA:206,0
DA:213,0
DA:214,0
DA:215,0
DA:216,0
DA:217,0
DA:218,0
DA:219,0
DA:220,0
DA:221,0
DA:222,0
DA:223,0
DA:224,0
DA:225,0
DA:226,0
DA:227,0
DA:228,0
DA:229,0
DA:230,0
DA:231,0
DA:232,0
DA:233,0
DA:234,0
DA:235,0
DA:236,0
DA:237,0
DA:238,0
DA:239,0
DA:240,0
DA:241,0
DA:242,0
DA:243,0
DA:244,0
DA:245,0
DA:246,0
DA:247,0
DA:248,0
DA:249,0
DA:250,0
DA:251,0
DA:252,0
DA:253,0
DA:254,0
DA:255,0
DA:256,0
DA:257,0
DA:258,0
DA:259,0
DA:260,0
DA:261,0
DA:262,0
DA:263,0
DA:264,0
DA:265,0
DA:266,0
DA:267,0
DA:268,0
DA:269,0
DA:270,0
DA:271,0
DA:272,0
DA:273,0
DA:274,0
DA:275,0
DA:280,0
DA:281,0
DA:282,0
DA:283,0
DA:284,0
DA:285,0
DA:286,0
DA:287,0
DA:295,0
DA:296,0
DA:297,0
DA:298,0
DA:299,0
DA:300,0
DA:301,0
DA:302,0
DA:303,0
DA:304,0
DA:305,0
DA:307,0
DA:309,0
DA:310,0
DA:311,0
DA:312,0
DA:313,0
DA:314,0
DA:315,0
DA:316,0
DA:317,0
DA:318,0
DA:319,0
DA:325,0
DA:326,0
DA:327,0
DA:328,0
DA:329,0
DA:330,0
DA:332,0
DA:333,0
DA:334,0
DA:335,0
DA:336,0
DA:337,0
DA:338,0
DA:342,0
DA:343,0
DA:345,0
DA:348,0
DA:349,0
DA:350,0
DA:351,0
DA:352,0
DA:353,0
DA:354,0
DA:355,0
DA:356,0
DA:357,0
DA:358,0
DA:359,0
DA:360,0
DA:368,0
DA:369,0
DA:370,0
DA:372,0
DA:373,0
DA:374,0
DA:377,0
DA:379,0
DA:380,0
DA:382,0
DA:385,0
DA:386,0
DA:387,0
DA:388,0
DA:389,0
DA:390,0
DA:391,0
DA:392,0
DA:393,0
DA:394,0
DA:395,0
DA:399,0
DA:400,0
DA:401,0
DA:402,0
DA:403,0
DA:407,0
DA:409,0
DA:412,0
DA:413,0
DA:414,0
DA:418,0
DA:419,0
DA:420,0
DA:421,0
DA:422,0
DA:426,0
DA:427,0
DA:428,0
DA:466,0
DA:467,0
DA:468,0
DA:469,0
DA:471,0
DA:500,0
DA:501,0
DA:502,0
DA:503,0
DA:504,0
DA:505,0
DA:507,0
DA:533,0
DA:534,0
DA:535,0
DA:536,0
DA:537,0
DA:538,0
DA:539,0
DA:540,0
DA:542,0
DA:559,0
DA:560,0
DA:561,0
DA:562,0
DA:563,0
DA:564,0
DA:565,0
DA:568,0
DA:569,0
DA:570,0
DA:571,0
DA:572,0
DA:573,0
DA:574,0
DA:577,0
DA:578,0
DA:579,0
DA:580,0
DA:581,0
DA:582,0
DA:583,0
DA:676,0
DA:677,0
DA:678,0
DA:679,0
DA:680,0
DA:681,0
DA:682,0
DA:683,0
DA:684,0
DA:685,0
DA:686,0
DA:687,0
DA:691,0
DA:692,0
DA:693,0
DA:694,0
DA:695,0
DA:696,0
DA:697,0
DA:698,0
DA:699,0
DA:700,0
DA:701,0
DA:702,0
DA:711,0
DA:714,0
DA:715,0
DA:716,0
DA:717,0
DA:718,0
DA:719,0
DA:720,0
DA:721,0
DA:722,0
DA:723,0
DA:724,0
DA:725,0
DA:726,0
BRF:0
BRH:0
LF:303
LH:0
end_of_record
SF:/home/ubuntu/Code/ExpressGateway/.claude/worktrees/s15-builder/crates/lb-cp-client/src/lib.rs
FN:51,_RINvMCsdWXRZZpKP0I_12lb_cp_clientNtB3_8CpClient12set_endpointReEB3_
FN:58,_RNvMCsdWXRZZpKP0I_12lb_cp_clientNtB2_8CpClient12has_endpoint
FN:64,_RNvMCsdWXRZZpKP0I_12lb_cp_clientNtB2_8CpClient12is_connected
FN:43,_RNvMCsdWXRZZpKP0I_12lb_cp_clientNtB2_8CpClient3new
FN:73,_RNvMCsdWXRZZpKP0I_12lb_cp_clientNtB2_8CpClient7connect
FN:115,_RNvNtCsdWXRZZpKP0I_12lb_cp_client5testss_14default_is_new
FN:93,_RNvNtCsdWXRZZpKP0I_12lb_cp_client5testss_23new_client_disconnected
FN:106,_RNvNtCsdWXRZZpKP0I_12lb_cp_client5testss_24connect_with_endpoint_ok
FN:100,_RNvNtCsdWXRZZpKP0I_12lb_cp_client5testss_31connect_without_endpoint_errors
FN:83,_RNvXs_CsdWXRZZpKP0I_12lb_cp_clientNtB4_8CpClientNtNtCs2va5m0jqTTM_4core7default7Default7default
FNDA:0,_RINvMCsdWXRZZpKP0I_12lb_cp_clientNtB3_8CpClient12set_endpointReEB3_
FNDA:0,_RNvMCsdWXRZZpKP0I_12lb_cp_clientNtB2_8CpClient12has_endpoint
FNDA:0,_RNvMCsdWXRZZpKP0I_12lb_cp_clientNtB2_8CpClient12is_connected
FNDA:0,_RNvMCsdWXRZZpKP0I_12lb_cp_clientNtB2_8CpClient3new
FNDA:0,_RNvMCsdWXRZZpKP0I_12lb_cp_clientNtB2_8CpClient7connect
FNDA:0,_RNvNtCsdWXRZZpKP0I_12lb_cp_client5testss_14default_is_new
FNDA:0,_RNvNtCsdWXRZZpKP0I_12lb_cp_client5testss_23new_client_disconnected
FNDA:0,_RNvNtCsdWXRZZpKP0I_12lb_cp_client5testss_24connect_with_endpoint_ok
FNDA:0,_RNvNtCsdWXRZZpKP0I_12lb_cp_client5testss_31connect_without_endpoint_errors
FNDA:0,_RNvXs_CsdWXRZZpKP0I_12lb_cp_clientNtB4_8CpClientNtNtCs2va5m0jqTTM_4core7default7Default7default
FNF:10
FNH:0
DA:43,0
DA:44,0
DA:45,0
DA:46,0
DA:47,0
DA:48,0
DA:51,0
DA:52,0
DA:53,0
DA:54,0
DA:58,0
DA:59,0
DA:60,0
DA:64,0
DA:65,0
DA:66,0
DA:73,0
DA:74,0
DA:75,0
DA:76,0
DA:77,0
DA:78,0
DA:79,0
DA:83,0
DA:84,0
DA:85,0
DA:93,0
DA:94,0
DA:95,0
DA:96,0
DA:97,0
DA:100,0
DA:101,0
DA:102,0
DA:103,0
DA:106,0
DA:107,0
DA:108,0
DA:109,0
DA:110,0
DA:111,0
DA:112,0
DA:115,0
DA:116,0
DA:117,0
DA:118,0
BRF:0
BRH:0
LF:46
LH:0
end_of_record
SF:/home/ubuntu/Code/ExpressGateway/.claude/worktrees/s15-builder/crates/lb-grpc/src/deadline.rs
FN:43,_RNCNvMNtCs4Qkhd1oY68c_7lb_grpc8deadlineNtB4_12GrpcDeadline13parse_timeout0B6_
FN:29,_RNvMNtCs4Qkhd1oY68c_7lb_grpc8deadlineNtB2_12GrpcDeadline13parse_timeout
FN:66,_RNvMNtCs4Qkhd1oY68c_7lb_grpc8deadlineNtB2_12GrpcDeadline14format_timeout
FN:88,_RNvMNtCs4Qkhd1oY68c_7lb_grpc8deadlineNtB2_12GrpcDeadline9remaining
FN:43,_RNCNvMNtCsilQopnj0ZUS_7lb_grpc8deadlineNtB4_12GrpcDeadline13parse_timeout0B6_
FN:29,_RNvMNtCsilQopnj0ZUS_7lb_grpc8deadlineNtB2_12GrpcDeadline13parse_timeout
FN:66,_RNvMNtCsilQopnj0ZUS_7lb_grpc8deadlineNtB2_12GrpcDeadline14format_timeout
FN:88,_RNvMNtCsilQopnj0ZUS_7lb_grpc8deadlineNtB2_12GrpcDeadline9remaining
FNDA:0,_RNCNvMNtCs4Qkhd1oY68c_7lb_grpc8deadlineNtB4_12GrpcDeadline13parse_timeout0B6_
FNDA:0,_RNvMNtCs4Qkhd1oY68c_7lb_grpc8deadlineNtB2_12GrpcDeadline13parse_timeout
FNDA:0,_RNvMNtCs4Qkhd1oY68c_7lb_grpc8deadlineNtB2_12GrpcDeadline14format_timeout
FNDA:0,_RNvMNtCs4Qkhd1oY68c_7lb_grpc8deadlineNtB2_12GrpcDeadline9remaining
FNDA:0,_RNCNvMNtCsilQopnj0ZUS_7lb_grpc8deadlineNtB4_12GrpcDeadline13parse_timeout0B6_
FNDA:0,_RNvMNtCsilQopnj0ZUS_7lb_grpc8deadlineNtB2_12GrpcDeadline13parse_timeout
FNDA:0,_RNvMNtCsilQopnj0ZUS_7lb_grpc8deadlineNtB2_12GrpcDeadline14format_timeout
FNDA:0,_RNvMNtCsilQopnj0ZUS_7lb_grpc8deadlineNtB2_12GrpcDeadline9remaining
FNF:4
FNH:0
DA:29,0
DA:30,0
DA:31,0
DA:32,0
DA:33,0
DA:34,0
DA:35,0
DA:36,0
DA:37,0
DA:38,0
DA:39,0
DA:41,0
DA:42,0
DA:43,0
DA:48,0
DA:49,0
DA:50,0
DA:51,0
DA:52,0
DA:53,0
DA:54,0
DA:55,0
DA:58,0
DA:59,0
DA:66,0
DA:67,0
DA:68,0
DA:69,0
DA:70,0
DA:71,0
DA:72,0
DA:73,0
DA:74,0
DA:75,0
DA:76,0
DA:77,0
DA:78,0
DA:79,0
DA:80,0
DA:81,0
DA:82,0
DA:88,0
DA:89,0
DA:90,0
DA:91,0
DA:92,0
DA:93,0
BRF:0
BRH:0
LF:48
LH:0
end_of_record
SF:/home/ubuntu/Code/ExpressGateway/.claude/worktrees/s15-builder/crates/lb-grpc/src/frame.rs
FN:100,_RNCNvNtCs4Qkhd1oY68c_7lb_grpc5frame17encode_grpc_frame0B5_
FN:44,_RNvNtCs4Qkhd1oY68c_7lb_grpc5frame17decode_grpc_frame
FN:99,_RNvNtCs4Qkhd1oY68c_7lb_grpc5frame17encode_grpc_frame
FN:100,_RNCNvNtCsilQopnj0ZUS_7lb_grpc5frame17encode_grpc_frame0B5_
FN:44,_RNvNtCsilQopnj0ZUS_7lb_grpc5frame17decode_grpc_frame
FN:99,_RNvNtCsilQopnj0ZUS_7lb_grpc5frame17encode_grpc_frame
FNDA:0,_RNCNvNtCs4Qkhd1oY68c_7lb_grpc5frame17encode_grpc_frame0B5_
FNDA:0,_RNvNtCs4Qkhd1oY68c_7lb_grpc5frame17decode_grpc_frame
FNDA:0,_RNvNtCs4Qkhd1oY68c_7lb_grpc5frame17encode_grpc_frame
FNDA:0,_RNCNvNtCsilQopnj0ZUS_7lb_grpc5frame17encode_grpc_frame0B5_
FNDA:0,_RNvNtCsilQopnj0ZUS_7lb_grpc5frame17decode_grpc_frame
FNDA:0,_RNvNtCsilQopnj0ZUS_7lb_grpc5frame17encode_grpc_frame
FNF:3
FNH:0
DA:44,0
DA:45,0
DA:46,0
DA:47,0
DA:48,0
DA:49,0
DA:50,0
DA:53,0
DA:54,0
DA:55,0
DA:56,0
DA:57,0
DA:58,0
DA:59,0
DA:60,0
DA:65,0
DA:66,0
DA:67,0
DA:68,0
DA:69,0
DA:71,0
DA:72,0
DA:73,0
DA:74,0
DA:75,0
DA:76,0
DA:77,0
DA:78,0
DA:79,0
DA:80,0
DA:81,0
DA:82,0
DA:83,0
DA:84,0
DA:86,0
DA:87,0
DA:88,0
DA:91,0
DA:92,0
DA:99,0
DA:100,0
DA:101,0
DA:102,0
DA:104,0
DA:105,0
DA:106,0
DA:107,0
DA:108,0
DA:109,0
DA:110,0
BRF:0
BRH:0
LF:52
LH:0
end_of_record
SF:/home/ubuntu/Code/ExpressGateway/.claude/worktrees/s15-builder/crates/lb-grpc/src/lib.rs
FN:94,_RNCNvNtCsilQopnj0ZUS_7lb_grpc5testss_18multi_frame_decode0B5_
FN:135,_RNvNtCsilQopnj0ZUS_7lb_grpc5testss_14status_to_http
FN:62,_RNvNtCsilQopnj0ZUS_7lb_grpc5testss_16frame_empty_data
FN:144,_RNvNtCsilQopnj0ZUS_7lb_grpc5testss_16status_from_http
FN:184,_RNvNtCsilQopnj0ZUS_7lb_grpc5testss_18deadline_remaining
FN:92,_RNvNtCsilQopnj0ZUS_7lb_grpc5testss_18multi_frame_decode
FN:164,_RNvNtCsilQopnj0ZUS_7lb_grpc5testss_20deadline_parse_hours
FN:179,_RNvNtCsilQopnj0ZUS_7lb_grpc5testss_20deadline_parse_nanos
FN:174,_RNvNtCsilQopnj0ZUS_7lb_grpc5testss_21deadline_parse_micros
FN:159,_RNvNtCsilQopnj0ZUS_7lb_grpc5testss_21deadline_parse_millis
FN:82,_RNvNtCsilQopnj0ZUS_7lb_grpc5testss_21frame_incomplete_body
FN:169,_RNvNtCsilQopnj0ZUS_7lb_grpc5testss_22deadline_parse_minutes
FN:154,_RNvNtCsilQopnj0ZUS_7lb_grpc5testss_22deadline_parse_seconds
FN:222,_RNvNtCsilQopnj0ZUS_7lb_grpc5testss_22grpc_message_too_large
FN:116,_RNvNtCsilQopnj0ZUS_7lb_grpc5testss_22status_from_code_valid
FN:198,_RNvNtCsilQopnj0ZUS_7lb_grpc5testss_23deadline_invalid_format
FN:75,_RNvNtCsilQopnj0ZUS_7lb_grpc5testss_23frame_incomplete_header
FN:129,_RNvNtCsilQopnj0ZUS_7lb_grpc5testss_24status_from_code_invalid
FN:191,_RNvNtCsilQopnj0ZUS_7lb_grpc5testss_25deadline_format_roundtrip
FN:50,_RNvNtCsilQopnj0ZUS_7lb_grpc5testss_26frame_roundtrip_compressed
FN:37,_RNvNtCsilQopnj0ZUS_7lb_grpc5testss_28frame_roundtrip_uncompressed
FN:206,_RNvNtCsilQopnj0ZUS_7lb_grpc5testss_33deadline_submillisecond_rounds_up
FNDA:0,_RNCNvNtCsilQopnj0ZUS_7lb_grpc5testss_18multi_frame_decode0B5_
FNDA:0,_RNvNtCsilQopnj0ZUS_7lb_grpc5testss_14status_to_http
FNDA:0,_RNvNtCsilQopnj0ZUS_7lb_grpc5testss_16frame_empty_data
FNDA:0,_RNvNtCsilQopnj0ZUS_7lb_grpc5testss_16status_from_http
FNDA:0,_RNvNtCsilQopnj0ZUS_7lb_grpc5testss_18deadline_remaining
FNDA:0,_RNvNtCsilQopnj0ZUS_7lb_grpc5testss_18multi_frame_decode
FNDA:0,_RNvNtCsilQopnj0ZUS_7lb_grpc5testss_20deadline_parse_hours
FNDA:0,_RNvNtCsilQopnj0ZUS_7lb_grpc5testss_20deadline_parse_nanos
FNDA:0,_RNvNtCsilQopnj0ZUS_7lb_grpc5testss_21deadline_parse_micros
FNDA:0,_RNvNtCsilQopnj0ZUS_7lb_grpc5testss_21deadline_parse_millis
FNDA:0,_RNvNtCsilQopnj0ZUS_7lb_grpc5testss_21frame_incomplete_body
FNDA:0,_RNvNtCsilQopnj0ZUS_7lb_grpc5testss_22deadline_parse_minutes
FNDA:0,_RNvNtCsilQopnj0ZUS_7lb_grpc5testss_22deadline_parse_seconds
FNDA:0,_RNvNtCsilQopnj0ZUS_7lb_grpc5testss_22grpc_message_too_large
FNDA:0,_RNvNtCsilQopnj0ZUS_7lb_grpc5testss_22status_from_code_valid
FNDA:0,_RNvNtCsilQopnj0ZUS_7lb_grpc5testss_23deadline_invalid_format
FNDA:0,_RNvNtCsilQopnj0ZUS_7lb_grpc5testss_23frame_incomplete_header
FNDA:0,_RNvNtCsilQopnj0ZUS_7lb_grpc5testss_24status_from_code_invalid
FNDA:0,_RNvNtCsilQopnj0ZUS_7lb_grpc5testss_25deadline_format_roundtrip
FNDA:0,_RNvNtCsilQopnj0ZUS_7lb_grpc5testss_26frame_roundtrip_compressed
FNDA:0,_RNvNtCsilQopnj0ZUS_7lb_grpc5testss_28frame_roundtrip_uncompressed
FNDA:0,_RNvNtCsilQopnj0ZUS_7lb_grpc5testss_33deadline_submillisecond_rounds_up
FNF:22
FNH:0
DA:37,0
DA:38,0
DA:39,0
DA:40,0
DA:41,0
DA:42,0
DA:43,0
DA:44,0
DA:45,0
DA:46,0
DA:47,0
DA:50,0
DA:51,0
DA:52,0
DA:53,0
DA:54,0
DA:55,0
DA:56,0
DA:57,0
DA:58,0
DA:59,0
DA:62,0
DA:63,0
DA:64,0
DA:65,0
DA:66,0
DA:67,0
DA:68,0
DA:69,0
DA:70,0
DA:71,0
DA:72,0
DA:75,0
DA:76,0
DA:77,0
DA:78,0
DA:79,0
DA:82,0
DA:83,0
DA:84,0
DA:85,0
DA:86,0
DA:87,0
DA:88,0
DA:89,0
DA:92,0
DA:93,0
DA:94,0
DA:95,0
DA:96,0
DA:97,0
DA:98,0
DA:99,0
DA:100,0
DA:101,0
DA:102,0
DA:103,0
DA:105,0
DA:106,0
DA:107,0
DA:108,0
DA:109,0
DA:110,0
DA:112,0
DA:113,0
DA:116,0
DA:117,0
DA:118,0
DA:119,0
DA:120,0
DA:121,0
DA:122,0
DA:123,0
DA:124,0
DA:125,0
DA:126,0
DA:129,0
DA:130,0
DA:131,0
DA:132,0
DA:135,0
DA:136,0
DA:137,0
DA:138,0
DA:139,0
DA:140,0
DA:141,0
DA:144,0
DA:145,0
DA:146,0
DA:147,0
DA:148,0
DA:149,0
DA:150,0
DA:151,0
DA:154,0
DA:155,0
DA:156,0
DA:159,0
DA:160,0
DA:161,0
DA:164,0
DA:165,0
DA:166,0
DA:169,0
DA:170,0
DA:171,0
DA:174,0
DA:175,0
DA:176,0
DA:179,0
DA:180,0
DA:181,0
DA:184,0
DA:185,0
DA:186,0
DA:187,0
DA:188,0
DA:191,0
DA:192,0
DA:193,0
DA:194,0
DA:195,0
DA:198,0
DA:199,0
DA:200,0
DA:201,0
DA:202,0
DA:203,0
DA:206,0
DA:207,0
DA:208,0
DA:210,0
DA:212,0
DA:214,0
DA:216,0
DA:218,0
DA:219,0
DA:222,0
DA:223,0
DA:224,0
DA:225,0
DA:226,0
DA:227,0
DA:228,0
DA:229,0
DA:230,0
DA:231,0
DA:232,0
DA:233,0
DA:234,0
DA:236,0
BRF:0
BRH:0
LF:154
LH:0
end_of_record
SF:/home/ubuntu/Code/ExpressGateway/.claude/worktrees/s15-builder/crates/lb-grpc/src/status.rs
FN:81,_RNvMNtCs4Qkhd1oY68c_7lb_grpc6statusNtB2_10GrpcStatus14to_http_status
FN:102,_RNvMNtCs4Qkhd1oY68c_7lb_grpc6statusNtB2_10GrpcStatus16from_http_status
FN:54,_RNvMNtCs4Qkhd1oY68c_7lb_grpc6statusNtB2_10GrpcStatus9from_code
FN:81,_RNvMNtCsilQopnj0ZUS_7lb_grpc6statusNtB2_10GrpcStatus14to_http_status
FN:102,_RNvMNtCsilQopnj0ZUS_7lb_grpc6statusNtB2_10GrpcStatus16from_http_status
FN:54,_RNvMNtCsilQopnj0ZUS_7lb_grpc6statusNtB2_10GrpcStatus9from_code
FNDA:0,_RNvMNtCs4Qkhd1oY68c_7lb_grpc6statusNtB2_10GrpcStatus14to_http_status
FNDA:0,_RNvMNtCs4Qkhd1oY68c_7lb_grpc6statusNtB2_10GrpcStatus16from_http_status
FNDA:0,_RNvMNtCs4Qkhd1oY68c_7lb_grpc6statusNtB2_10GrpcStatus9from_code
FNDA:0,_RNvMNtCsilQopnj0ZUS_7lb_grpc6statusNtB2_10GrpcStatus14to_http_status
FNDA:0,_RNvMNtCsilQopnj0ZUS_7lb_grpc6statusNtB2_10GrpcStatus16from_http_status
FNDA:0,_RNvMNtCsilQopnj0ZUS_7lb_grpc6statusNtB2_10GrpcStatus9from_code
FNF:3
FNH:0
DA:54,0
DA:55,0
DA:56,0
DA:57,0
DA:58,0
DA:59,0
DA:60,0
DA:61,0
DA:62,0
DA:63,0
DA:64,0
DA:65,0
DA:66,0
DA:67,0
DA:68,0
DA:69,0
DA:70,0
DA:71,0
DA:72,0
DA:73,0
DA:75,0
DA:81,0
DA:82,0
DA:83,0
DA:84,0
DA:85,0
DA:86,0
DA:87,0
DA:88,0
DA:89,0
DA:90,0
DA:91,0
DA:92,0
DA:93,0
DA:94,0
DA:96,0
DA:102,0
DA:103,0
DA:104,0
DA:105,0
DA:106,0
DA:107,0
DA:108,0
DA:109,0
DA:110,0
DA:111,0
DA:112,0
DA:114,0
BRF:0
BRH:0
LF:48
LH:0
end_of_record
SF:/home/ubuntu/Code/ExpressGateway/.claude/worktrees/s15-builder/crates/lb-h1/src/chunked.rs
FN:148,_RNCNvMNtCscVXbP74A3j3_5lb_h17chunkedNtB4_14ChunkedDecoder13try_read_size0B6_
FN:154,_RNCNvMNtCscVXbP74A3j3_5lb_h17chunkedNtB4_14ChunkedDecoder13try_read_sizes_0B6_
FN:201,_RNCNvMNtCscVXbP74A3j3_5lb_h17chunkedNtB4_14ChunkedDecoder17try_read_trailers0B6_
FN:339,_RNCNvNtCscVXbP74A3j3_5lb_h17chunked12find_crlf_in0B5_
FN:345,_RNCNvNtCscVXbP74A3j3_5lb_h17chunked19find_double_crlf_in0B5_
FN:134,_RNvMNtCscVXbP74A3j3_5lb_h17chunkedNtB2_14ChunkedDecoder13try_read_size
FN:170,_RNvMNtCscVXbP74A3j3_5lb_h17chunkedNtB2_14ChunkedDecoder17try_read_trailers
FN:39,_RNvMNtCscVXbP74A3j3_5lb_h17chunkedNtB2_14ChunkedDecoder3new
FN:56,_RNvMNtCscVXbP74A3j3_5lb_h17chunkedNtB2_14ChunkedDecoder4feed
FN:75,_RNvMNtCscVXbP74A3j3_5lb_h17chunkedNtB2_14ChunkedDecoder7is_done
FN:80,_RNvMNtCscVXbP74A3j3_5lb_h17chunkedNtB2_14ChunkedDecoder7process
FN:69,_RNvMNtCscVXbP74A3j3_5lb_h17chunkedNtB2_14ChunkedDecoder8trailers
FN:63,_RNvMNtCscVXbP74A3j3_5lb_h17chunkedNtB2_14ChunkedDecoder9take_body
FN:249,_RNvMs0_NtCscVXbP74A3j3_5lb_h17chunkedNtB5_14ChunkedEncoder3new
FN:258,_RNvMs0_NtCscVXbP74A3j3_5lb_h17chunkedNtB5_14ChunkedEncoder6encode
FN:278,_RNvMs0_NtCscVXbP74A3j3_5lb_h17chunkedNtB5_14ChunkedEncoder6finish
FN:336,_RNvNtCscVXbP74A3j3_5lb_h17chunked12find_crlf_in
FN:343,_RNvNtCscVXbP74A3j3_5lb_h17chunked19find_double_crlf_in
FN:314,_RNvNtCscVXbP74A3j3_5lb_h17chunked20parse_chunk_size_hex
FN:298,_RNvXs1_NtCscVXbP74A3j3_5lb_h17chunkedNtB5_14ChunkedEncoderNtNtCs2va5m0jqTTM_4core7default7Default7default
FN:235,_RNvXs_NtCscVXbP74A3j3_5lb_h17chunkedNtB4_14ChunkedDecoderNtNtCs2va5m0jqTTM_4core7default7Default7default
FN:148,_RNCNvMNtCs2arqbYRJY6C_5lb_h17chunkedNtB4_14ChunkedDecoder13try_read_size0B6_
FN:154,_RNCNvMNtCs2arqbYRJY6C_5lb_h17chunkedNtB4_14ChunkedDecoder13try_read_sizes_0B6_
FN:201,_RNCNvMNtCs2arqbYRJY6C_5lb_h17chunkedNtB4_14ChunkedDecoder17try_read_trailers0B6_
FN:339,_RNCNvNtCs2arqbYRJY6C_5lb_h17chunked12find_crlf_in0B5_
FN:345,_RNCNvNtCs2arqbYRJY6C_5lb_h17chunked19find_double_crlf_in0B5_
FN:134,_RNvMNtCs2arqbYRJY6C_5lb_h17chunkedNtB2_14ChunkedDecoder13try_read_size
FN:170,_RNvMNtCs2arqbYRJY6C_5lb_h17chunkedNtB2_14ChunkedDecoder17try_read_trailers
FN:39,_RNvMNtCs2arqbYRJY6C_5lb_h17chunkedNtB2_14ChunkedDecoder3new
FN:56,_RNvMNtCs2arqbYRJY6C_5lb_h17chunkedNtB2_14ChunkedDecoder4feed
FN:80,_RNvMNtCs2arqbYRJY6C_5lb_h17chunkedNtB2_14ChunkedDecoder7process
FN:69,_RNvMNtCs2arqbYRJY6C_5lb_h17chunkedNtB2_14ChunkedDecoder8trailers
FN:63,_RNvMNtCs2arqbYRJY6C_5lb_h17chunkedNtB2_14ChunkedDecoder9take_body
FN:249,_RNvMs0_NtCs2arqbYRJY6C_5lb_h17chunkedNtB5_14ChunkedEncoder3new
FN:258,_RNvMs0_NtCs2arqbYRJY6C_5lb_h17chunkedNtB5_14ChunkedEncoder6encode
FN:278,_RNvMs0_NtCs2arqbYRJY6C_5lb_h17chunkedNtB5_14ChunkedEncoder6finish
FN:336,_RNvNtCs2arqbYRJY6C_5lb_h17chunked12find_crlf_in
FN:343,_RNvNtCs2arqbYRJY6C_5lb_h17chunked19find_double_crlf_in
FN:314,_RNvNtCs2arqbYRJY6C_5lb_h17chunked20parse_chunk_size_hex
FN:407,_RNCNvNtNtCs2arqbYRJY6C_5lb_h17chunked5testss_16incremental_feed0B7_
FN:370,_RNCNvNtNtCs2arqbYRJY6C_5lb_h17chunked5testss_23encode_decode_roundtrip0B7_
FN:397,_RNvNtNtCs2arqbYRJY6C_5lb_h17chunked5testss_16incremental_feed
FN:358,_RNvNtNtCs2arqbYRJY6C_5lb_h17chunked5testss_23encode_decode_roundtrip
FN:375,_RNvNtNtCs2arqbYRJY6C_5lb_h17chunked5testss_27encode_decode_with_trailers
FN:75,_RNvMNtCs2arqbYRJY6C_5lb_h17chunkedNtB2_14ChunkedDecoder7is_done
FN:298,_RNvXs1_NtCs2arqbYRJY6C_5lb_h17chunkedNtB5_14ChunkedEncoderNtNtCs2va5m0jqTTM_4core7default7Default7default
FN:235,_RNvXs_NtCs2arqbYRJY6C_5lb_h17chunkedNtB4_14ChunkedDecoderNtNtCs2va5m0jqTTM_4core7default7Default7default
FNDA:0,_RNCNvMNtCscVXbP74A3j3_5lb_h17chunkedNtB4_14ChunkedDecoder13try_read_size0B6_
FNDA:0,_RNCNvMNtCscVXbP74A3j3_5lb_h17chunkedNtB4_14ChunkedDecoder13try_read_sizes_0B6_
FNDA:0,_RNCNvMNtCscVXbP74A3j3_5lb_h17chunkedNtB4_14ChunkedDecoder17try_read_trailers0B6_
FNDA:0,_RNCNvNtCscVXbP74A3j3_5lb_h17chunked12find_crlf_in0B5_
FNDA:0,_RNCNvNtCscVXbP74A3j3_5lb_h17chunked19find_double_crlf_in0B5_
FNDA:0,_RNvMNtCscVXbP74A3j3_5lb_h17chunkedNtB2_14ChunkedDecoder13try_read_size
FNDA:0,_RNvMNtCscVXbP74A3j3_5lb_h17chunkedNtB2_14ChunkedDecoder17try_read_trailers
FNDA:0,_RNvMNtCscVXbP74A3j3_5lb_h17chunkedNtB2_14ChunkedDecoder3new
FNDA:0,_RNvMNtCscVXbP74A3j3_5lb_h17chunkedNtB2_14ChunkedDecoder4feed
FNDA:0,_RNvMNtCscVXbP74A3j3_5lb_h17chunkedNtB2_14ChunkedDecoder7is_done
FNDA:0,_RNvMNtCscVXbP74A3j3_5lb_h17chunkedNtB2_14ChunkedDecoder7process
FNDA:0,_RNvMNtCscVXbP74A3j3_5lb_h17chunkedNtB2_14ChunkedDecoder8trailers
FNDA:0,_RNvMNtCscVXbP74A3j3_5lb_h17chunkedNtB2_14ChunkedDecoder9take_body
FNDA:0,_RNvMs0_NtCscVXbP74A3j3_5lb_h17chunkedNtB5_14ChunkedEncoder3new
FNDA:0,_RNvMs0_NtCscVXbP74A3j3_5lb_h17chunkedNtB5_14ChunkedEncoder6encode
FNDA:0,_RNvMs0_NtCscVXbP74A3j3_5lb_h17chunkedNtB5_14ChunkedEncoder6finish
FNDA:0,_RNvNtCscVXbP74A3j3_5lb_h17chunked12find_crlf_in
FNDA:0,_RNvNtCscVXbP74A3j3_5lb_h17chunked19find_double_crlf_in
FNDA:0,_RNvNtCscVXbP74A3j3_5lb_h17chunked20parse_chunk_size_hex
FNDA:0,_RNvXs1_NtCscVXbP74A3j3_5lb_h17chunkedNtB5_14ChunkedEncoderNtNtCs2va5m0jqTTM_4core7default7Default7default
FNDA:0,_RNvXs_NtCscVXbP74A3j3_5lb_h17chunkedNtB4_14ChunkedDecoderNtNtCs2va5m0jqTTM_4core7default7Default7default
FNDA:0,_RNCNvMNtCs2arqbYRJY6C_5lb_h17chunkedNtB4_14ChunkedDecoder13try_read_size0B6_
FNDA:0,_RNCNvMNtCs2arqbYRJY6C_5lb_h17chunkedNtB4_14ChunkedDecoder13try_read_sizes_0B6_
FNDA:0,_RNCNvMNtCs2arqbYRJY6C_5lb_h17chunkedNtB4_14ChunkedDecoder17try_read_trailers0B6_
FNDA:0,_RNCNvNtCs2arqbYRJY6C_5lb_h17chunked12find_crlf_in0B5_
FNDA:0,_RNCNvNtCs2arqbYRJY6C_5lb_h17chunked19find_double_crlf_in0B5_
FNDA:0,_RNvMNtCs2arqbYRJY6C_5lb_h17chunkedNtB2_14ChunkedDecoder13try_read_size
FNDA:0,_RNvMNtCs2arqbYRJY6C_5lb_h17chunkedNtB2_14ChunkedDecoder17try_read_trailers
FNDA:0,_RNvMNtCs2arqbYRJY6C_5lb_h17chunkedNtB2_14ChunkedDecoder3new
FNDA:0,_RNvMNtCs2arqbYRJY6C_5lb_h17chunkedNtB2_14ChunkedDecoder4feed
FNDA:0,_RNvMNtCs2arqbYRJY6C_5lb_h17chunkedNtB2_14ChunkedDecoder7process
FNDA:0,_RNvMNtCs2arqbYRJY6C_5lb_h17chunkedNtB2_14ChunkedDecoder8trailers
FNDA:0,_RNvMNtCs2arqbYRJY6C_5lb_h17chunkedNtB2_14ChunkedDecoder9take_body
FNDA:0,_RNvMs0_NtCs2arqbYRJY6C_5lb_h17chunkedNtB5_14ChunkedEncoder3new
FNDA:0,_RNvMs0_NtCs2arqbYRJY6C_5lb_h17chunkedNtB5_14ChunkedEncoder6encode
FNDA:0,_RNvMs0_NtCs2arqbYRJY6C_5lb_h17chunkedNtB5_14ChunkedEncoder6finish
FNDA:0,_RNvNtCs2arqbYRJY6C_5lb_h17chunked12find_crlf_in
FNDA:0,_RNvNtCs2arqbYRJY6C_5lb_h17chunked19find_double_crlf_in
FNDA:0,_RNvNtCs2arqbYRJY6C_5lb_h17chunked20parse_chunk_size_hex
FNDA:0,_RNCNvNtNtCs2arqbYRJY6C_5lb_h17chunked5testss_16incremental_feed0B7_
FNDA:0,_RNCNvNtNtCs2arqbYRJY6C_5lb_h17chunked5testss_23encode_decode_roundtrip0B7_
FNDA:0,_RNvNtNtCs2arqbYRJY6C_5lb_h17chunked5testss_16incremental_feed
FNDA:0,_RNvNtNtCs2arqbYRJY6C_5lb_h17chunked5testss_23encode_decode_roundtrip
FNDA:0,_RNvNtNtCs2arqbYRJY6C_5lb_h17chunked5testss_27encode_decode_with_trailers
FNDA:0,_RNvMNtCs2arqbYRJY6C_5lb_h17chunkedNtB2_14ChunkedDecoder7is_done
FNDA:0,_RNvXs1_NtCs2arqbYRJY6C_5lb_h17chunkedNtB5_14ChunkedEncoderNtNtCs2va5m0jqTTM_4core7default7Default7default
FNDA:0,_RNvXs_NtCs2arqbYRJY6C_5lb_h17chunkedNtB4_14ChunkedDecoderNtNtCs2va5m0jqTTM_4core7default7Default7default
FNF:26
FNH:0
DA:39,0
DA:40,0
DA:41,0
DA:42,0
DA:43,0
DA:44,0
DA:45,0
DA:46,0
DA:56,0
DA:57,0
DA:58,0
DA:59,0
DA:63,0
DA:64,0
DA:65,0
DA:69,0
DA:70,0
DA:71,0
DA:75,0
DA:76,0
DA:77,0
DA:80,0
DA:82,0
DA:84,0
DA:85,0
DA:86,0
DA:88,0
DA:89,0
DA:90,0
DA:91,0
DA:92,0
DA:93,0
DA:94,0
DA:95,0
DA:96,0
DA:97,0
DA:98,0
DA:99,0
DA:100,0
DA:101,0
DA:102,0
DA:105,0
DA:106,0
DA:107,0
DA:108,0
DA:109,0
DA:111,0
DA:112,0
DA:113,0
DA:114,0
DA:117,0
DA:119,0
DA:122,0
DA:134,0
DA:135,0
DA:136,0
DA:139,0
DA:140,0
DA:141,0
DA:142,0
DA:148,0
DA:150,0
DA:153,0
DA:154,0
DA:157,0
DA:158,0
DA:159,0
DA:160,0
DA:161,0
DA:162,0
DA:163,0
DA:164,0
DA:165,0
DA:166,0
DA:167,0
DA:170,0
DA:171,0
DA:172,0
DA:173,0
DA:174,0
DA:175,0
DA:176,0
DA:177,0
DA:178,0
DA:179,0
DA:182,0
DA:183,0
DA:187,0
DA:188,0
DA:189,0
DA:190,0
DA:192,0
DA:193,0
DA:194,0
DA:195,0
DA:196,0
DA:197,0
DA:198,0
DA:199,0
DA:200,0
DA:201,0
DA:203,0
DA:208,0
DA:209,0
DA:210,0
DA:212,0
DA:213,0
DA:214,0
DA:215,0
DA:216,0
DA:217,0
DA:218,0
DA:219,0
DA:220,0
DA:222,0
DA:224,0
DA:228,0
DA:229,0
DA:230,0
DA:231,0
DA:235,0
DA:236,0
DA:237,0
DA:249,0
DA:250,0
DA:251,0
DA:258,0
DA:259,0
DA:260,0
DA:261,0
DA:262,0
DA:263,0
DA:264,0
DA:265,0
DA:266,0
DA:267,0
DA:268,0
DA:269,0
DA:270,0
DA:271,0
DA:278,0
DA:279,0
DA:280,0
DA:281,0
DA:282,0
DA:283,0
DA:284,0
DA:285,0
DA:287,0
DA:288,0
DA:289,0
DA:290,0
DA:291,0
DA:292,0
DA:293,0
DA:294,0
DA:298,0
DA:299,0
DA:300,0
DA:314,0
DA:315,0
DA:316,0
DA:317,0
DA:318,0
DA:319,0
DA:320,0
DA:321,0
DA:322,0
DA:323,0
DA:324,0
DA:325,0
DA:326,0
DA:327,0
DA:329,0
DA:330,0
DA:332,0
DA:333,0
DA:336,0
DA:337,0
DA:338,0
DA:339,0
DA:340,0
DA:343,0
DA:344,0
DA:345,0
DA:346,0
DA:347,0
DA:348,0
DA:349,0
DA:350,0
DA:351,0
DA:358,0
DA:359,0
DA:360,0
DA:361,0
DA:362,0
DA:363,0
DA:364,0
DA:365,0
DA:366,0
DA:367,0
DA:369,0
DA:370,0
DA:371,0
DA:372,0
DA:375,0
DA:376,0
DA:377,0
DA:378,0
DA:379,0
DA:380,0
DA:381,0
DA:382,0
DA:383,0
DA:384,0
DA:386,0
DA:387,0
DA:388,0
DA:390,0
DA:391,0
DA:392,0
DA:393,0
DA:394,0
DA:397,0
DA:398,0
DA:399,0
DA:400,0
DA:401,0
DA:402,0
DA:404,0
DA:405,0
DA:406,0
DA:407,0
DA:408,0
DA:409,0
BRF:0
BRH:0
LF:243
LH:0
end_of_record
SF:/home/ubuntu/Code/ExpressGateway/.claude/worktrees/s15-builder/crates/lb-h1/src/parse.rs
FN:56,_RNCNvNtCscVXbP74A3j3_5lb_h15parse16find_double_crlf0B5_
FN:103,_RNCNvNtCscVXbP74A3j3_5lb_h15parse17parse_status_line0B5_
FN:110,_RNCNvNtCscVXbP74A3j3_5lb_h15parse17parse_status_lines0_0B5_
FN:111,_RNCNvNtCscVXbP74A3j3_5lb_h15parse17parse_status_lines1_0B5_
FN:109,_RNCNvNtCscVXbP74A3j3_5lb_h15parse17parse_status_lines_0B5_
FN:76,_RNCNvNtCscVXbP74A3j3_5lb_h15parse18parse_request_line0B5_
FN:86,_RNCNvNtCscVXbP74A3j3_5lb_h15parse18parse_request_lines0_0B5_
FN:85,_RNCNvNtCscVXbP74A3j3_5lb_h15parse18parse_request_lines_0B5_
FN:179,_RNCNvNtCscVXbP74A3j3_5lb_h15parse24parse_headers_with_limit0B5_
FN:187,_RNCNvNtCscVXbP74A3j3_5lb_h15parse24parse_headers_with_limits0_0B5_
FN:198,_RNCNvNtCscVXbP74A3j3_5lb_h15parse24parse_headers_with_limits1_0B5_
FN:210,_RNCNvNtCscVXbP74A3j3_5lb_h15parse24parse_headers_with_limits2_0B5_
FN:183,_RNCNvNtCscVXbP74A3j3_5lb_h15parse24parse_headers_with_limits_0B5_
FN:50,_RNCNvNtCscVXbP74A3j3_5lb_h15parse9find_crlf0B5_
FN:128,_RNvNtCscVXbP74A3j3_5lb_h15parse13parse_headers
FN:247,_RNvNtCscVXbP74A3j3_5lb_h15parse13parse_version
FN:230,_RNvNtCscVXbP74A3j3_5lb_h15parse14parse_trailers
FN:54,_RNvNtCscVXbP74A3j3_5lb_h15parse16find_double_crlf
FN:100,_RNvNtCscVXbP74A3j3_5lb_h15parse17parse_status_line
FN:73,_RNvNtCscVXbP74A3j3_5lb_h15parse18parse_request_line
FN:17,_RNvNtCscVXbP74A3j3_5lb_h15parse22___is_tchar_for_trailer
FN:148,_RNvNtCscVXbP74A3j3_5lb_h15parse24parse_headers_with_limit
FN:239,_RNvNtCscVXbP74A3j3_5lb_h15parse25parse_trailers_with_limit
FN:23,_RNvNtCscVXbP74A3j3_5lb_h15parse8is_tchar
FN:47,_RNvNtCscVXbP74A3j3_5lb_h15parse9find_crlf
FN:56,_RNCNvNtCs2arqbYRJY6C_5lb_h15parse16find_double_crlf0B5_
FN:103,_RNCNvNtCs2arqbYRJY6C_5lb_h15parse17parse_status_line0B5_
FN:110,_RNCNvNtCs2arqbYRJY6C_5lb_h15parse17parse_status_lines0_0B5_
FN:111,_RNCNvNtCs2arqbYRJY6C_5lb_h15parse17parse_status_lines1_0B5_
FN:109,_RNCNvNtCs2arqbYRJY6C_5lb_h15parse17parse_status_lines_0B5_
FN:76,_RNCNvNtCs2arqbYRJY6C_5lb_h15parse18parse_request_line0B5_
FN:86,_RNCNvNtCs2arqbYRJY6C_5lb_h15parse18parse_request_lines0_0B5_
FN:85,_RNCNvNtCs2arqbYRJY6C_5lb_h15parse18parse_request_lines_0B5_
FN:179,_RNCNvNtCs2arqbYRJY6C_5lb_h15parse24parse_headers_with_limit0B5_
FN:187,_RNCNvNtCs2arqbYRJY6C_5lb_h15parse24parse_headers_with_limits0_0B5_
FN:198,_RNCNvNtCs2arqbYRJY6C_5lb_h15parse24parse_headers_with_limits1_0B5_
FN:210,_RNCNvNtCs2arqbYRJY6C_5lb_h15parse24parse_headers_with_limits2_0B5_
FN:183,_RNCNvNtCs2arqbYRJY6C_5lb_h15parse24parse_headers_with_limits_0B5_
FN:50,_RNCNvNtCs2arqbYRJY6C_5lb_h15parse9find_crlf0B5_
FN:128,_RNvNtCs2arqbYRJY6C_5lb_h15parse13parse_headers
FN:247,_RNvNtCs2arqbYRJY6C_5lb_h15parse13parse_version
FN:54,_RNvNtCs2arqbYRJY6C_5lb_h15parse16find_double_crlf
FN:100,_RNvNtCs2arqbYRJY6C_5lb_h15parse17parse_status_line
FN:73,_RNvNtCs2arqbYRJY6C_5lb_h15parse18parse_request_line
FN:17,_RNvNtCs2arqbYRJY6C_5lb_h15parse22___is_tchar_for_trailer
FN:148,_RNvNtCs2arqbYRJY6C_5lb_h15parse24parse_headers_with_limit
FN:23,_RNvNtCs2arqbYRJY6C_5lb_h15parse8is_tchar
FN:47,_RNvNtCs2arqbYRJY6C_5lb_h15parse9find_crlf
FN:301,_RNvNtNtCs2arqbYRJY6C_5lb_h15parse5testss_13headers_basic
FN:284,_RNvNtNtCs2arqbYRJY6C_5lb_h15parse5testss_15status_line_200
FN:293,_RNvNtNtCs2arqbYRJY6C_5lb_h15parse5testss_15status_line_404
FN:260,_RNvNtNtCs2arqbYRJY6C_5lb_h15parse5testss_16request_line_get
FN:314,_RNvNtNtCs2arqbYRJY6C_5lb_h15parse5testss_18headers_incomplete
FN:278,_RNvNtNtCs2arqbYRJY6C_5lb_h15parse5testss_23request_line_incomplete
FN:270,_RNvNtNtCs2arqbYRJY6C_5lb_h15parse5testss_24request_line_post_http10
FN:341,_RNvNtNtCs2arqbYRJY6C_5lb_h15parse5testss_26header_over_limit_rejected
FN:372,_RNvNtNtCs2arqbYRJY6C_5lb_h15parse5testss_32default_constant_matches_wrapper
FN:320,_RNvNtNtCs2arqbYRJY6C_5lb_h15parse5testss_32header_exactly_at_limit_accepted
FN:363,_RNvNtNtCs2arqbYRJY6C_5lb_h15parse5testss_39header_unterminated_over_limit_rejected
FN:230,_RNvNtCs2arqbYRJY6C_5lb_h15parse14parse_trailers
FN:239,_RNvNtCs2arqbYRJY6C_5lb_h15parse25parse_trailers_with_limit
FNDA:0,_RNCNvNtCscVXbP74A3j3_5lb_h15parse16find_double_crlf0B5_
FNDA:0,_RNCNvNtCscVXbP74A3j3_5lb_h15parse17parse_status_line0B5_
FNDA:0,_RNCNvNtCscVXbP74A3j3_5lb_h15parse17parse_status_lines0_0B5_
FNDA:0,_RNCNvNtCscVXbP74A3j3_5lb_h15parse17parse_status_lines1_0B5_
FNDA:0,_RNCNvNtCscVXbP74A3j3_5lb_h15parse17parse_status_lines_0B5_
FNDA:0,_RNCNvNtCscVXbP74A3j3_5lb_h15parse18parse_request_line0B5_
FNDA:0,_RNCNvNtCscVXbP74A3j3_5lb_h15parse18parse_request_lines0_0B5_
FNDA:0,_RNCNvNtCscVXbP74A3j3_5lb_h15parse18parse_request_lines_0B5_
FNDA:0,_RNCNvNtCscVXbP74A3j3_5lb_h15parse24parse_headers_with_limit0B5_
FNDA:0,_RNCNvNtCscVXbP74A3j3_5lb_h15parse24parse_headers_with_limits0_0B5_
FNDA:0,_RNCNvNtCscVXbP74A3j3_5lb_h15parse24parse_headers_with_limits1_0B5_
FNDA:0,_RNCNvNtCscVXbP74A3j3_5lb_h15parse24parse_headers_with_limits2_0B5_
FNDA:0,_RNCNvNtCscVXbP74A3j3_5lb_h15parse24parse_headers_with_limits_0B5_
FNDA:0,_RNCNvNtCscVXbP74A3j3_5lb_h15parse9find_crlf0B5_
FNDA:0,_RNvNtCscVXbP74A3j3_5lb_h15parse13parse_headers
FNDA:0,_RNvNtCscVXbP74A3j3_5lb_h15parse13parse_version
FNDA:0,_RNvNtCscVXbP74A3j3_5lb_h15parse14parse_trailers
FNDA:0,_RNvNtCscVXbP74A3j3_5lb_h15parse16find_double_crlf
FNDA:0,_RNvNtCscVXbP74A3j3_5lb_h15parse17parse_status_line
FNDA:0,_RNvNtCscVXbP74A3j3_5lb_h15parse18parse_request_line
FNDA:0,_RNvNtCscVXbP74A3j3_5lb_h15parse22___is_tchar_for_trailer
FNDA:0,_RNvNtCscVXbP74A3j3_5lb_h15parse24parse_headers_with_limit
FNDA:0,_RNvNtCscVXbP74A3j3_5lb_h15parse25parse_trailers_with_limit
FNDA:0,_RNvNtCscVXbP74A3j3_5lb_h15parse8is_tchar
FNDA:0,_RNvNtCscVXbP74A3j3_5lb_h15parse9find_crlf
FNDA:0,_RNCNvNtCs2arqbYRJY6C_5lb_h15parse16find_double_crlf0B5_
FNDA:0,_RNCNvNtCs2arqbYRJY6C_5lb_h15parse17parse_status_line0B5_
FNDA:0,_RNCNvNtCs2arqbYRJY6C_5lb_h15parse17parse_status_lines0_0B5_
FNDA:0,_RNCNvNtCs2arqbYRJY6C_5lb_h15parse17parse_status_lines1_0B5_
FNDA:0,_RNCNvNtCs2arqbYRJY6C_5lb_h15parse17parse_status_lines_0B5_
FNDA:0,_RNCNvNtCs2arqbYRJY6C_5lb_h15parse18parse_request_line0B5_
FNDA:0,_RNCNvNtCs2arqbYRJY6C_5lb_h15parse18parse_request_lines0_0B5_
FNDA:0,_RNCNvNtCs2arqbYRJY6C_5lb_h15parse18parse_request_lines_0B5_
FNDA:0,_RNCNvNtCs2arqbYRJY6C_5lb_h15parse24parse_headers_with_limit0B5_
FNDA:0,_RNCNvNtCs2arqbYRJY6C_5lb_h15parse24parse_headers_with_limits0_0B5_
FNDA:0,_RNCNvNtCs2arqbYRJY6C_5lb_h15parse24parse_headers_with_limits1_0B5_
FNDA:0,_RNCNvNtCs2arqbYRJY6C_5lb_h15parse24parse_headers_with_limits2_0B5_
FNDA:0,_RNCNvNtCs2arqbYRJY6C_5lb_h15parse24parse_headers_with_limits_0B5_
FNDA:0,_RNCNvNtCs2arqbYRJY6C_5lb_h15parse9find_crlf0B5_
FNDA:0,_RNvNtCs2arqbYRJY6C_5lb_h15parse13parse_headers
FNDA:0,_RNvNtCs2arqbYRJY6C_5lb_h15parse13parse_version
FNDA:0,_RNvNtCs2arqbYRJY6C_5lb_h15parse16find_double_crlf
FNDA:0,_RNvNtCs2arqbYRJY6C_5lb_h15parse17parse_status_line
FNDA:0,_RNvNtCs2arqbYRJY6C_5lb_h15parse18parse_request_line
FNDA:0,_RNvNtCs2arqbYRJY6C_5lb_h15parse22___is_tchar_for_trailer
FNDA:0,_RNvNtCs2arqbYRJY6C_5lb_h15parse24parse_headers_with_limit
FNDA:0,_RNvNtCs2arqbYRJY6C_5lb_h15parse8is_tchar
FNDA:0,_RNvNtCs2arqbYRJY6C_5lb_h15parse9find_crlf
FNDA:0,_RNvNtNtCs2arqbYRJY6C_5lb_h15parse5testss_13headers_basic
FNDA:0,_RNvNtNtCs2arqbYRJY6C_5lb_h15parse5testss_15status_line_200
FNDA:0,_RNvNtNtCs2arqbYRJY6C_5lb_h15parse5testss_15status_line_404
FNDA:0,_RNvNtNtCs2arqbYRJY6C_5lb_h15parse5testss_16request_line_get
FNDA:0,_RNvNtNtCs2arqbYRJY6C_5lb_h15parse5testss_18headers_incomplete
FNDA:0,_RNvNtNtCs2arqbYRJY6C_5lb_h15parse5testss_23request_line_incomplete
FNDA:0,_RNvNtNtCs2arqbYRJY6C_5lb_h15parse5testss_24request_line_post_http10
FNDA:0,_RNvNtNtCs2arqbYRJY6C_5lb_h15parse5testss_26header_over_limit_rejected
FNDA:0,_RNvNtNtCs2arqbYRJY6C_5lb_h15parse5testss_32default_constant_matches_wrapper
FNDA:0,_RNvNtNtCs2arqbYRJY6C_5lb_h15parse5testss_32header_exactly_at_limit_accepted
FNDA:0,_RNvNtNtCs2arqbYRJY6C_5lb_h15parse5testss_39header_unterminated_over_limit_rejected
FNDA:0,_RNvNtCs2arqbYRJY6C_5lb_h15parse14parse_trailers
FNDA:0,_RNvNtCs2arqbYRJY6C_5lb_h15parse25parse_trailers_with_limit
FNF:36
FNH:0
DA:17,0
DA:18,0
DA:19,0
DA:23,0
DA:24,0
DA:25,0
DA:40,0
DA:41,0
DA:42,0
DA:44,0
DA:47,0
DA:48,0
DA:49,0
DA:50,0
DA:51,0
DA:54,0
DA:55,0
DA:56,0
DA:57,0
DA:58,0
DA:59,0
DA:60,0
DA:61,0
DA:62,0
DA:73,0
DA:74,0
DA:75,0
DA:76,0
DA:78,0
DA:79,0
DA:80,0
DA:81,0
DA:83,0
DA:84,0
DA:85,0
DA:86,0
DA:87,0
DA:89,0
DA:90,0
DA:100,0
DA:101,0
DA:102,0
DA:103,0
DA:105,0
DA:106,0
DA:107,0
DA:109,0
DA:110,0
DA:111,0
DA:113,0
DA:114,0
DA:128,0
DA:129,0
DA:130,0
DA:148,0
DA:149,0
DA:150,0
DA:151,0
DA:152,0
DA:153,0
DA:154,0
DA:155,0
DA:156,0
DA:157,0
DA:158,0
DA:159,0
DA:162,0
DA:163,0
DA:164,0
DA:165,0
DA:166,0
DA:167,0
DA:168,0
DA:171,0
DA:173,0
DA:174,0
DA:176,0
DA:177,0
DA:178,0
DA:179,0
DA:181,0
DA:182,0
DA:183,0
DA:185,0
DA:186,0
DA:187,0
DA:196,0
DA:197,0
DA:198,0
DA:199,0
DA:200,0
DA:201,0
DA:202,0
DA:203,0
DA:204,0
DA:205,0
DA:206,0
DA:207,0
DA:208,0
DA:209,0
DA:210,0
DA:211,0
DA:212,0
DA:213,0
DA:214,0
DA:215,0
DA:218,0
DA:219,0
DA:230,0
DA:231,0
DA:232,0
DA:239,0
DA:240,0
DA:241,0
DA:242,0
DA:243,0
DA:244,0
DA:247,0
DA:248,0
DA:249,0
DA:250,0
DA:251,0
DA:253,0
DA:260,0
DA:261,0
DA:262,0
DA:263,0
DA:264,0
DA:265,0
DA:266,0
DA:267,0
DA:270,0
DA:271,0
DA:272,0
DA:273,0
DA:274,0
DA:275,0
DA:278,0
DA:279,0
DA:280,0
DA:281,0
DA:284,0
DA:285,0
DA:286,0
DA:287,0
DA:288,0
DA:289,0
DA:290,0
DA:293,0
DA:294,0
DA:295,0
DA:296,0
DA:297,0
DA:298,0
DA:301,0
DA:302,0
DA:303,0
DA:304,0
DA:305,0
DA:306,0
DA:307,0
DA:308,0
DA:309,0
DA:310,0
DA:311,0
DA:314,0
DA:315,0
DA:316,0
DA:317,0
DA:320,0
DA:321,0
DA:322,0
DA:323,0
DA:324,0
DA:325,0
DA:326,0
DA:327,0
DA:328,0
DA:329,0
DA:330,0
DA:331,0
DA:333,0
DA:334,0
DA:335,0
DA:336,0
DA:337,0
DA:338,0
DA:341,0
DA:342,0
DA:343,0
DA:344,0
DA:345,0
DA:346,0
DA:347,0
DA:349,0
DA:350,0
DA:351,0
DA:352,0
DA:358,0
DA:360,0
DA:363,0
DA:364,0
DA:365,0
DA:366,0
DA:367,0
DA:368,0
DA:369,0
DA:372,0
DA:373,0
DA:376,0
DA:377,0
DA:378,0
DA:379,0
DA:380,0
BRF:0
BRH:0
LF:229
LH:0
end_of_record
SF:/home/ubuntu/Code/ExpressGateway/.claude/worktrees/s15-builder/crates/lb-h2/src/frame.rs
FN:140,_RNCNvNtCslmkjG9qptyz_5lb_h25frame13strip_padding0B5_
FN:153,_RNCNvNtCslmkjG9qptyz_5lb_h25frame13strip_paddings_0B5_
FN:253,_RNCNvNtCslmkjG9qptyz_5lb_h25frame16decode_frame_low0B5_
FN:166,_RNvNtCslmkjG9qptyz_5lb_h25frame11read_u16_be
FN:157,_RNvNtCslmkjG9qptyz_5lb_h25frame11read_u32_be
FN:419,_RNvNtCslmkjG9qptyz_5lb_h25frame12decode_frame
FN:452,_RNvNtCslmkjG9qptyz_5lb_h25frame12encode_frame
FN:600,_RNvNtCslmkjG9qptyz_5lb_h25frame12write_header
FN:136,_RNvNtCslmkjG9qptyz_5lb_h25frame13strip_padding
FN:207,_RNvNtCslmkjG9qptyz_5lb_h25frame16decode_frame_low
FN:301,_RNvNtCslmkjG9qptyz_5lb_h25frame17decode_frame_high
FN:468,_RNvNtCslmkjG9qptyz_5lb_h25frame18encode_frame_lower
FN:531,_RNvNtCslmkjG9qptyz_5lb_h25frame18encode_frame_upper
FN:181,_RNvNtCslmkjG9qptyz_5lb_h25frame18parse_frame_header
FN:140,_RNCNvNtCs3fzGSoeFDl5_5lb_h25frame13strip_padding0B5_
FN:153,_RNCNvNtCs3fzGSoeFDl5_5lb_h25frame13strip_paddings_0B5_
FN:253,_RNCNvNtCs3fzGSoeFDl5_5lb_h25frame16decode_frame_low0B5_
FN:166,_RNvNtCs3fzGSoeFDl5_5lb_h25frame11read_u16_be
FN:157,_RNvNtCs3fzGSoeFDl5_5lb_h25frame11read_u32_be
FN:419,_RNvNtCs3fzGSoeFDl5_5lb_h25frame12decode_frame
FN:452,_RNvNtCs3fzGSoeFDl5_5lb_h25frame12encode_frame
FN:600,_RNvNtCs3fzGSoeFDl5_5lb_h25frame12write_header
FN:136,_RNvNtCs3fzGSoeFDl5_5lb_h25frame13strip_padding
FN:207,_RNvNtCs3fzGSoeFDl5_5lb_h25frame16decode_frame_low
FN:301,_RNvNtCs3fzGSoeFDl5_5lb_h25frame17decode_frame_high
FN:468,_RNvNtCs3fzGSoeFDl5_5lb_h25frame18encode_frame_lower
FN:531,_RNvNtCs3fzGSoeFDl5_5lb_h25frame18encode_frame_upper
FN:181,_RNvNtCs3fzGSoeFDl5_5lb_h25frame18parse_frame_header
FN:652,_RNvNtNtCs3fzGSoeFDl5_5lb_h25frame5testss_14ping_roundtrip
FN:663,_RNvNtNtCs3fzGSoeFDl5_5lb_h25frame5testss_16goaway_roundtrip
FN:628,_RNvNtNtCs3fzGSoeFDl5_5lb_h25frame5testss_20data_frame_roundtrip
FN:641,_RNvNtNtCs3fzGSoeFDl5_5lb_h25frame5testss_22settings_ack_roundtrip
FN:743,_RNvNtNtCs3fzGSoeFDl5_5lb_h25frame5testss_23unknown_frame_roundtrip
FN:684,_RNvNtNtCs3fzGSoeFDl5_5lb_h25frame5testss_24frame_too_large_rejected
FN:675,_RNvNtNtCs3fzGSoeFDl5_5lb_h25frame5testss_24incomplete_returns_error
FN:709,_RNvNtNtCs3fzGSoeFDl5_5lb_h25frame5testss_26unknown_frame_type_ignored
FNDA:0,_RNCNvNtCslmkjG9qptyz_5lb_h25frame13strip_padding0B5_
FNDA:0,_RNCNvNtCslmkjG9qptyz_5lb_h25frame13strip_paddings_0B5_
FNDA:0,_RNCNvNtCslmkjG9qptyz_5lb_h25frame16decode_frame_low0B5_
FNDA:0,_RNvNtCslmkjG9qptyz_5lb_h25frame11read_u16_be
FNDA:0,_RNvNtCslmkjG9qptyz_5lb_h25frame11read_u32_be
FNDA:0,_RNvNtCslmkjG9qptyz_5lb_h25frame12decode_frame
FNDA:0,_RNvNtCslmkjG9qptyz_5lb_h25frame12encode_frame
FNDA:0,_RNvNtCslmkjG9qptyz_5lb_h25frame12write_header
FNDA:0,_RNvNtCslmkjG9qptyz_5lb_h25frame13strip_padding
FNDA:0,_RNvNtCslmkjG9qptyz_5lb_h25frame16decode_frame_low
FNDA:0,_RNvNtCslmkjG9qptyz_5lb_h25frame17decode_frame_high
FNDA:0,_RNvNtCslmkjG9qptyz_5lb_h25frame18encode_frame_lower
FNDA:0,_RNvNtCslmkjG9qptyz_5lb_h25frame18encode_frame_upper
FNDA:0,_RNvNtCslmkjG9qptyz_5lb_h25frame18parse_frame_header
FNDA:0,_RNCNvNtCs3fzGSoeFDl5_5lb_h25frame13strip_padding0B5_
FNDA:0,_RNCNvNtCs3fzGSoeFDl5_5lb_h25frame13strip_paddings_0B5_
FNDA:0,_RNCNvNtCs3fzGSoeFDl5_5lb_h25frame16decode_frame_low0B5_
FNDA:0,_RNvNtCs3fzGSoeFDl5_5lb_h25frame11read_u16_be
FNDA:0,_RNvNtCs3fzGSoeFDl5_5lb_h25frame11read_u32_be
FNDA:0,_RNvNtCs3fzGSoeFDl5_5lb_h25frame12decode_frame
FNDA:0,_RNvNtCs3fzGSoeFDl5_5lb_h25frame12encode_frame
FNDA:0,_RNvNtCs3fzGSoeFDl5_5lb_h25frame12write_header
FNDA:0,_RNvNtCs3fzGSoeFDl5_5lb_h25frame13strip_padding
FNDA:0,_RNvNtCs3fzGSoeFDl5_5lb_h25frame16decode_frame_low
FNDA:0,_RNvNtCs3fzGSoeFDl5_5lb_h25frame17decode_frame_high
FNDA:0,_RNvNtCs3fzGSoeFDl5_5lb_h25frame18encode_frame_lower
FNDA:0,_RNvNtCs3fzGSoeFDl5_5lb_h25frame18encode_frame_upper
FNDA:0,_RNvNtCs3fzGSoeFDl5_5lb_h25frame18parse_frame_header
FNDA:0,_RNvNtNtCs3fzGSoeFDl5_5lb_h25frame5testss_14ping_roundtrip
FNDA:0,_RNvNtNtCs3fzGSoeFDl5_5lb_h25frame5testss_16goaway_roundtrip
FNDA:0,_RNvNtNtCs3fzGSoeFDl5_5lb_h25frame5testss_20data_frame_roundtrip
FNDA:0,_RNvNtNtCs3fzGSoeFDl5_5lb_h25frame5testss_22settings_ack_roundtrip
FNDA:0,_RNvNtNtCs3fzGSoeFDl5_5lb_h25frame5testss_23unknown_frame_roundtrip
FNDA:0,_RNvNtNtCs3fzGSoeFDl5_5lb_h25frame5testss_24frame_too_large_rejected
FNDA:0,_RNvNtNtCs3fzGSoeFDl5_5lb_h25frame5testss_24incomplete_returns_error
FNDA:0,_RNvNtNtCs3fzGSoeFDl5_5lb_h25frame5testss_26unknown_frame_type_ignored
FNF:22
FNH:0
DA:136,0
DA:137,0
DA:138,0
DA:139,0
DA:140,0
DA:143,0
DA:144,0
DA:145,0
DA:146,0
DA:147,0
DA:148,0
DA:149,0
DA:150,0
DA:151,0
DA:152,0
DA:153,0
DA:154,0
DA:157,0
DA:158,0
DA:159,0
DA:160,0
DA:161,0
DA:162,0
DA:163,0
DA:166,0
DA:167,0
DA:168,0
DA:169,0
DA:170,0
DA:181,0
DA:182,0
DA:183,0
DA:184,0
DA:186,0
DA:187,0
DA:188,0
DA:190,0
DA:191,0
DA:192,0
DA:194,0
DA:195,0
DA:196,0
DA:197,0
DA:198,0
DA:199,0
DA:200,0
DA:201,0
DA:202,0
DA:203,0
DA:204,0
DA:207,0
DA:208,0
DA:209,0
DA:210,0
DA:211,0
DA:212,0
DA:213,0
DA:220,0
DA:221,0
DA:223,0
DA:225,0
DA:226,0
DA:227,0
DA:228,0
DA:229,0
DA:240,0
DA:241,0
DA:243,0
DA:245,0
DA:246,0
DA:247,0
DA:248,0
DA:249,0
DA:250,0
DA:251,0
DA:252,0
DA:253,0
DA:255,0
DA:257,0
DA:258,0
DA:259,0
DA:260,0
DA:261,0
DA:262,0
DA:265,0
DA:266,0
DA:267,0
DA:268,0
DA:269,0
DA:270,0
DA:271,0
DA:272,0
DA:273,0
DA:274,0
DA:275,0
DA:276,0
DA:277,0
DA:278,0
DA:279,0
DA:282,0
DA:283,0
DA:284,0
DA:285,0
DA:286,0
DA:287,0
DA:288,0
DA:289,0
DA:290,0
DA:291,0
DA:293,0
DA:294,0
DA:295,0
DA:297,0
DA:301,0
DA:302,0
DA:303,0
DA:304,0
DA:305,0
DA:306,0
DA:307,0
DA:309,0
DA:310,0
DA:311,0
DA:312,0
DA:313,0
DA:314,0
DA:315,0
DA:316,0
DA:317,0
DA:318,0
DA:319,0
DA:320,0
DA:321,0
DA:322,0
DA:323,0
DA:324,0
DA:325,0
DA:326,0
DA:328,0
DA:331,0
DA:332,0
DA:333,0
DA:334,0
DA:335,0
DA:336,0
DA:337,0
DA:338,0
DA:339,0
DA:340,0
DA:341,0
DA:344,0
DA:345,0
DA:346,0
DA:347,0
DA:348,0
DA:349,0
DA:350,0
DA:351,0
DA:352,0
DA:354,0
DA:355,0
DA:356,0
DA:357,0
DA:360,0
DA:361,0
DA:362,0
DA:363,0
DA:364,0
DA:365,0
DA:366,0
DA:367,0
DA:368,0
DA:369,0
DA:370,0
DA:371,0
DA:372,0
DA:373,0
DA:376,0
DA:377,0
DA:378,0
DA:379,0
DA:380,0
DA:381,0
DA:382,0
DA:383,0
DA:384,0
DA:385,0
DA:386,0
DA:388,0
DA:389,0
DA:390,0
DA:391,0
DA:392,0
DA:394,0
DA:395,0
DA:396,0
DA:397,0
DA:398,0
DA:399,0
DA:401,0
DA:419,0
DA:420,0
DA:422,0
DA:423,0
DA:424,0
DA:425,0
DA:426,0
DA:427,0
DA:428,0
DA:429,0
DA:430,0
DA:431,0
DA:432,0
DA:433,0
DA:435,0
DA:437,0
DA:439,0
DA:441,0
DA:444,0
DA:445,0
DA:452,0
DA:453,0
DA:454,0
DA:455,0
DA:460,0
DA:461,0
DA:464,0
DA:465,0
DA:468,0
DA:469,0
DA:471,0
DA:472,0
DA:473,0
DA:475,0
DA:476,0
DA:477,0
DA:480,0
DA:481,0
DA:482,0
DA:483,0
DA:484,0
DA:485,0
DA:486,0
DA:487,0
DA:488,0
DA:489,0
DA:490,0
DA:491,0
DA:492,0
DA:493,0
DA:496,0
DA:497,0
DA:498,0
DA:499,0
DA:500,0
DA:501,0
DA:502,0
DA:503,0
DA:505,0
DA:507,0
DA:508,0
DA:511,0
DA:512,0
DA:513,0
DA:514,0
DA:515,0
DA:517,0
DA:518,0
DA:519,0
DA:520,0
DA:521,0
DA:522,0
DA:523,0
DA:525,0
DA:527,0
DA:528,0
DA:531,0
DA:532,0
DA:534,0
DA:535,0
DA:536,0
DA:537,0
DA:538,0
DA:539,0
DA:540,0
DA:541,0
DA:542,0
DA:543,0
DA:544,0
DA:545,0
DA:546,0
DA:548,0
DA:549,0
DA:550,0
DA:551,0
DA:554,0
DA:555,0
DA:556,0
DA:557,0
DA:558,0
DA:559,0
DA:560,0
DA:561,0
DA:564,0
DA:565,0
DA:566,0
DA:567,0
DA:568,0
DA:571,0
DA:572,0
DA:573,0
DA:575,0
DA:576,0
DA:577,0
DA:578,0
DA:579,0
DA:580,0
DA:581,0
DA:582,0
DA:583,0
DA:586,0
DA:587,0
DA:588,0
DA:589,0
DA:590,0
DA:591,0
DA:592,0
DA:594,0
DA:596,0
DA:597,0
DA:600,0
DA:601,0
DA:602,0
DA:603,0
DA:604,0
DA:605,0
DA:606,0
DA:607,0
DA:608,0
DA:609,0
DA:610,0
DA:611,0
DA:612,0
DA:613,0
DA:614,0
DA:615,0
DA:616,0
DA:617,0
DA:618,0
DA:619,0
DA:620,0
DA:621,0
DA:628,0
DA:629,0
DA:630,0
DA:631,0
DA:632,0
DA:633,0
DA:634,0
DA:635,0
DA:636,0
DA:637,0
DA:638,0
DA:641,0
DA:642,0
DA:643,0
DA:644,0
DA:645,0
DA:646,0
DA:647,0
DA:648,0
DA:649,0
DA:652,0
DA:653,0
DA:654,0
DA:655,0
DA:656,0
DA:657,0
DA:658,0
DA:659,0
DA:660,0
DA:663,0
DA:664,0
DA:665,0
DA:666,0
DA:667,0
DA:668,0
DA:669,0
DA:670,0
DA:671,0
DA:672,0
DA:675,0
DA:676,0
DA:677,0
DA:678,0
DA:681,0
DA:684,0
DA:685,0
DA:686,0
DA:687,0
DA:688,0
DA:689,0
DA:690,0
DA:691,0
DA:692,0
DA:693,0
DA:694,0
DA:695,0
DA:696,0
DA:704,0
DA:705,0
DA:706,0
DA:709,0
DA:710,0
DA:711,0
DA:712,0
DA:713,0
DA:714,0
DA:715,0
DA:716,0
DA:717,0
DA:718,0
DA:719,0
DA:720,0
DA:721,0
DA:722,0
DA:723,0
DA:724,0
DA:725,0
DA:726,0
DA:727,0
DA:728,0
DA:729,0
DA:730,0
DA:731,0
DA:732,0
DA:733,0
DA:734,0
DA:735,0
DA:736,0
DA:737,0
DA:738,0
DA:739,0
DA:740,0
DA:743,0
DA:744,0
DA:745,0
DA:746,0
DA:747,0
DA:748,0
DA:749,0
DA:750,0
DA:751,0
DA:752,0
DA:753,0
DA:754,0
BRF:0
BRH:0
LF:459
LH:0
end_of_record
SF:/home/ubuntu/Code/ExpressGateway/.claude/worktrees/s15-builder/crates/lb-h2/src/hpack.rs
FN:192,_RNCNvMNtCslmkjG9qptyz_5lb_h25hpackNtB4_12DynamicTable3get0B6_
FN:324,_RNCNvNtCslmkjG9qptyz_5lb_h25hpack13decode_string0B5_
FN:257,_RNCNvNtCslmkjG9qptyz_5lb_h25hpack14find_in_tables0B5_
FN:214,_RNCNvNtCslmkjG9qptyz_5lb_h25hpack9table_get0B5_
FN:220,_RNCNvNtCslmkjG9qptyz_5lb_h25hpack9table_gets_0B5_
FN:166,_RNvMNtCslmkjG9qptyz_5lb_h25hpackNtB2_12DynamicTable10entry_size
FN:199,_RNvMNtCslmkjG9qptyz_5lb_h25hpackNtB2_12DynamicTable12set_max_size
FN:189,_RNvMNtCslmkjG9qptyz_5lb_h25hpackNtB2_12DynamicTable3get
FN:195,_RNvMNtCslmkjG9qptyz_5lb_h25hpackNtB2_12DynamicTable3len
FN:157,_RNvMNtCslmkjG9qptyz_5lb_h25hpackNtB2_12DynamicTable3new
FN:179,_RNvMNtCslmkjG9qptyz_5lb_h25hpackNtB2_12DynamicTable5evict
FN:170,_RNvMNtCslmkjG9qptyz_5lb_h25hpackNtB2_12DynamicTable6insert
FN:484,_RNvMs0_NtCslmkjG9qptyz_5lb_h25hpackNtB5_12HpackDecoder18set_max_table_size
FN:398,_RNvMs0_NtCslmkjG9qptyz_5lb_h25hpackNtB5_12HpackDecoder3new
FN:409,_RNvMs0_NtCslmkjG9qptyz_5lb_h25hpackNtB5_12HpackDecoder6decode
FN:382,_RNvMs_NtCslmkjG9qptyz_5lb_h25hpackNtB4_12HpackEncoder18set_max_table_size
FN:339,_RNvMs_NtCslmkjG9qptyz_5lb_h25hpackNtB4_12HpackEncoder3new
FN:353,_RNvMs_NtCslmkjG9qptyz_5lb_h25hpackNtB4_12HpackEncoder6encode
FN:317,_RNvNtCslmkjG9qptyz_5lb_h25hpack13decode_string
FN:311,_RNvNtCslmkjG9qptyz_5lb_h25hpack13encode_string
FN:284,_RNvNtCslmkjG9qptyz_5lb_h25hpack14decode_integer
FN:263,_RNvNtCslmkjG9qptyz_5lb_h25hpack14encode_integer
FN:226,_RNvNtCslmkjG9qptyz_5lb_h25hpack14find_in_tables
FN:206,_RNvNtCslmkjG9qptyz_5lb_h25hpack9table_get
FN:192,_RNCNvMNtCs3fzGSoeFDl5_5lb_h25hpackNtB4_12DynamicTable3get0B6_
FN:324,_RNCNvNtCs3fzGSoeFDl5_5lb_h25hpack13decode_string0B5_
FN:257,_RNCNvNtCs3fzGSoeFDl5_5lb_h25hpack14find_in_tables0B5_
FN:214,_RNCNvNtCs3fzGSoeFDl5_5lb_h25hpack9table_get0B5_
FN:220,_RNCNvNtCs3fzGSoeFDl5_5lb_h25hpack9table_gets_0B5_
FN:166,_RNvMNtCs3fzGSoeFDl5_5lb_h25hpackNtB2_12DynamicTable10entry_size
FN:199,_RNvMNtCs3fzGSoeFDl5_5lb_h25hpackNtB2_12DynamicTable12set_max_size
FN:189,_RNvMNtCs3fzGSoeFDl5_5lb_h25hpackNtB2_12DynamicTable3get
FN:195,_RNvMNtCs3fzGSoeFDl5_5lb_h25hpackNtB2_12DynamicTable3len
FN:157,_RNvMNtCs3fzGSoeFDl5_5lb_h25hpackNtB2_12DynamicTable3new
FN:179,_RNvMNtCs3fzGSoeFDl5_5lb_h25hpackNtB2_12DynamicTable5evict
FN:170,_RNvMNtCs3fzGSoeFDl5_5lb_h25hpackNtB2_12DynamicTable6insert
FN:398,_RNvMs0_NtCs3fzGSoeFDl5_5lb_h25hpackNtB5_12HpackDecoder3new
FN:409,_RNvMs0_NtCs3fzGSoeFDl5_5lb_h25hpackNtB5_12HpackDecoder6decode
FN:339,_RNvMs_NtCs3fzGSoeFDl5_5lb_h25hpackNtB4_12HpackEncoder3new
FN:353,_RNvMs_NtCs3fzGSoeFDl5_5lb_h25hpackNtB4_12HpackEncoder6encode
FN:317,_RNvNtCs3fzGSoeFDl5_5lb_h25hpack13decode_string
FN:311,_RNvNtCs3fzGSoeFDl5_5lb_h25hpack13encode_string
FN:284,_RNvNtCs3fzGSoeFDl5_5lb_h25hpack14decode_integer
FN:263,_RNvNtCs3fzGSoeFDl5_5lb_h25hpack14encode_integer
FN:226,_RNvNtCs3fzGSoeFDl5_5lb_h25hpack14find_in_tables
FN:206,_RNvNtCs3fzGSoeFDl5_5lb_h25hpack9table_get
FN:507,_RNvNtNtCs3fzGSoeFDl5_5lb_h25hpack5testss_16string_roundtrip
FN:494,_RNvNtNtCs3fzGSoeFDl5_5lb_h25hpack5testss_17integer_roundtrip
FN:559,_RNvNtNtCs3fzGSoeFDl5_5lb_h25hpack5testss_20hpack_static_indexed
FN:537,_RNvNtNtCs3fzGSoeFDl5_5lb_h25hpack5testss_28hpack_dynamic_table_eviction
FN:520,_RNvNtNtCs3fzGSoeFDl5_5lb_h25hpack5testss_29hpack_encode_decode_roundtrip
FN:484,_RNvMs0_NtCs3fzGSoeFDl5_5lb_h25hpackNtB5_12HpackDecoder18set_max_table_size
FN:382,_RNvMs_NtCs3fzGSoeFDl5_5lb_h25hpackNtB4_12HpackEncoder18set_max_table_size
FNDA:0,_RNCNvMNtCslmkjG9qptyz_5lb_h25hpackNtB4_12DynamicTable3get0B6_
FNDA:0,_RNCNvNtCslmkjG9qptyz_5lb_h25hpack13decode_string0B5_
FNDA:0,_RNCNvNtCslmkjG9qptyz_5lb_h25hpack14find_in_tables0B5_
FNDA:0,_RNCNvNtCslmkjG9qptyz_5lb_h25hpack9table_get0B5_
FNDA:0,_RNCNvNtCslmkjG9qptyz_5lb_h25hpack9table_gets_0B5_
FNDA:0,_RNvMNtCslmkjG9qptyz_5lb_h25hpackNtB2_12DynamicTable10entry_size
FNDA:0,_RNvMNtCslmkjG9qptyz_5lb_h25hpackNtB2_12DynamicTable12set_max_size
FNDA:0,_RNvMNtCslmkjG9qptyz_5lb_h25hpackNtB2_12DynamicTable3get
FNDA:0,_RNvMNtCslmkjG9qptyz_5lb_h25hpackNtB2_12DynamicTable3len
FNDA:0,_RNvMNtCslmkjG9qptyz_5lb_h25hpackNtB2_12DynamicTable3new
FNDA:0,_RNvMNtCslmkjG9qptyz_5lb_h25hpackNtB2_12DynamicTable5evict
FNDA:0,_RNvMNtCslmkjG9qptyz_5lb_h25hpackNtB2_12DynamicTable6insert
FNDA:0,_RNvMs0_NtCslmkjG9qptyz_5lb_h25hpackNtB5_12HpackDecoder18set_max_table_size
FNDA:0,_RNvMs0_NtCslmkjG9qptyz_5lb_h25hpackNtB5_12HpackDecoder3new
FNDA:0,_RNvMs0_NtCslmkjG9qptyz_5lb_h25hpackNtB5_12HpackDecoder6decode
FNDA:0,_RNvMs_NtCslmkjG9qptyz_5lb_h25hpackNtB4_12HpackEncoder18set_max_table_size
FNDA:0,_RNvMs_NtCslmkjG9qptyz_5lb_h25hpackNtB4_12HpackEncoder3new
FNDA:0,_RNvMs_NtCslmkjG9qptyz_5lb_h25hpackNtB4_12HpackEncoder6encode
FNDA:0,_RNvNtCslmkjG9qptyz_5lb_h25hpack13decode_string
FNDA:0,_RNvNtCslmkjG9qptyz_5lb_h25hpack13encode_string
FNDA:0,_RNvNtCslmkjG9qptyz_5lb_h25hpack14decode_integer
FNDA:0,_RNvNtCslmkjG9qptyz_5lb_h25hpack14encode_integer
FNDA:0,_RNvNtCslmkjG9qptyz_5lb_h25hpack14find_in_tables
FNDA:0,_RNvNtCslmkjG9qptyz_5lb_h25hpack9table_get
FNDA:0,_RNCNvMNtCs3fzGSoeFDl5_5lb_h25hpackNtB4_12DynamicTable3get0B6_
FNDA:0,_RNCNvNtCs3fzGSoeFDl5_5lb_h25hpack13decode_string0B5_
FNDA:0,_RNCNvNtCs3fzGSoeFDl5_5lb_h25hpack14find_in_tables0B5_
FNDA:0,_RNCNvNtCs3fzGSoeFDl5_5lb_h25hpack9table_get0B5_
FNDA:0,_RNCNvNtCs3fzGSoeFDl5_5lb_h25hpack9table_gets_0B5_
FNDA:0,_RNvMNtCs3fzGSoeFDl5_5lb_h25hpackNtB2_12DynamicTable10entry_size
FNDA:0,_RNvMNtCs3fzGSoeFDl5_5lb_h25hpackNtB2_12DynamicTable12set_max_size
FNDA:0,_RNvMNtCs3fzGSoeFDl5_5lb_h25hpackNtB2_12DynamicTable3get
FNDA:0,_RNvMNtCs3fzGSoeFDl5_5lb_h25hpackNtB2_12DynamicTable3len
FNDA:0,_RNvMNtCs3fzGSoeFDl5_5lb_h25hpackNtB2_12DynamicTable3new
FNDA:0,_RNvMNtCs3fzGSoeFDl5_5lb_h25hpackNtB2_12DynamicTable5evict
FNDA:0,_RNvMNtCs3fzGSoeFDl5_5lb_h25hpackNtB2_12DynamicTable6insert
FNDA:0,_RNvMs0_NtCs3fzGSoeFDl5_5lb_h25hpackNtB5_12HpackDecoder3new
FNDA:0,_RNvMs0_NtCs3fzGSoeFDl5_5lb_h25hpackNtB5_12HpackDecoder6decode
FNDA:0,_RNvMs_NtCs3fzGSoeFDl5_5lb_h25hpackNtB4_12HpackEncoder3new
FNDA:0,_RNvMs_NtCs3fzGSoeFDl5_5lb_h25hpackNtB4_12HpackEncoder6encode
FNDA:0,_RNvNtCs3fzGSoeFDl5_5lb_h25hpack13decode_string
FNDA:0,_RNvNtCs3fzGSoeFDl5_5lb_h25hpack13encode_string
FNDA:0,_RNvNtCs3fzGSoeFDl5_5lb_h25hpack14decode_integer
FNDA:0,_RNvNtCs3fzGSoeFDl5_5lb_h25hpack14encode_integer
FNDA:0,_RNvNtCs3fzGSoeFDl5_5lb_h25hpack14find_in_tables
FNDA:0,_RNvNtCs3fzGSoeFDl5_5lb_h25hpack9table_get
FNDA:0,_RNvNtNtCs3fzGSoeFDl5_5lb_h25hpack5testss_16string_roundtrip
FNDA:0,_RNvNtNtCs3fzGSoeFDl5_5lb_h25hpack5testss_17integer_roundtrip
FNDA:0,_RNvNtNtCs3fzGSoeFDl5_5lb_h25hpack5testss_20hpack_static_indexed
FNDA:0,_RNvNtNtCs3fzGSoeFDl5_5lb_h25hpack5testss_28hpack_dynamic_table_eviction
FNDA:0,_RNvNtNtCs3fzGSoeFDl5_5lb_h25hpack5testss_29hpack_encode_decode_roundtrip
FNDA:0,_RNvMs0_NtCs3fzGSoeFDl5_5lb_h25hpackNtB5_12HpackDecoder18set_max_table_size
FNDA:0,_RNvMs_NtCs3fzGSoeFDl5_5lb_h25hpackNtB4_12HpackEncoder18set_max_table_size
FNF:29
FNH:0
DA:157,0
DA:158,0
DA:159,0
DA:160,0
DA:161,0
DA:162,0
DA:163,0
DA:166,0
DA:167,0
DA:168,0
DA:170,0
DA:171,0
DA:172,0
DA:173,0
DA:174,0
DA:175,0
DA:176,0
DA:177,0
DA:179,0
DA:180,0
DA:181,0
DA:182,0
DA:183,0
DA:184,0
DA:187,0
DA:189,0
DA:190,0
DA:191,0
DA:192,0
DA:193,0
DA:195,0
DA:196,0
DA:197,0
DA:199,0
DA:200,0
DA:201,0
DA:202,0
DA:206,0
DA:207,0
DA:208,0
DA:209,0
DA:210,0
DA:211,0
DA:212,0
DA:213,0
DA:214,0
DA:215,0
DA:217,0
DA:218,0
DA:219,0
DA:220,0
DA:222,0
DA:226,0
DA:227,0
DA:228,0
DA:229,0
DA:230,0
DA:231,0
DA:232,0
DA:233,0
DA:234,0
DA:235,0
DA:236,0
DA:237,0
DA:238,0
DA:239,0
DA:240,0
DA:243,0
DA:244,0
DA:245,0
DA:246,0
DA:247,0
DA:248,0
DA:249,0
DA:250,0
DA:251,0
DA:252,0
DA:253,0
DA:254,0
DA:257,0
DA:258,0
DA:263,0
DA:264,0
DA:265,0
DA:266,0
DA:267,0
DA:268,0
DA:270,0
DA:271,0
DA:272,0
DA:273,0
DA:274,0
DA:275,0
DA:276,0
DA:278,0
DA:280,0
DA:284,0
DA:285,0
DA:286,0
DA:287,0
DA:288,0
DA:289,0
DA:290,0
DA:291,0
DA:292,0
DA:293,0
DA:294,0
DA:296,0
DA:297,0
DA:298,0
DA:299,0
DA:300,0
DA:301,0
DA:302,0
DA:303,0
DA:304,0
DA:305,0
DA:307,0
DA:308,0
DA:311,0
DA:312,0
DA:313,0
DA:314,0
DA:317,0
DA:318,0
DA:319,0
DA:320,0
DA:321,0
DA:323,0
DA:324,0
DA:325,0
DA:326,0
DA:339,0
DA:340,0
DA:341,0
DA:342,0
DA:343,0
DA:353,0
DA:354,0
DA:356,0
DA:357,0
DA:358,0
DA:359,0
DA:360,0
DA:361,0
DA:362,0
DA:363,0
DA:364,0
DA:365,0
DA:366,0
DA:367,0
DA:368,0
DA:369,0
DA:370,0
DA:371,0
DA:372,0
DA:373,0
DA:374,0
DA:378,0
DA:379,0
DA:382,0
DA:383,0
DA:384,0
DA:398,0
DA:399,0
DA:400,0
DA:401,0
DA:402,0
DA:409,0
DA:410,0
DA:411,0
DA:413,0
DA:414,0
DA:416,0
DA:418,0
DA:419,0
DA:420,0
DA:421,0
DA:422,0
DA:423,0
DA:425,0
DA:426,0
DA:427,0
DA:429,0
DA:430,0
DA:431,0
DA:432,0
DA:433,0
DA:434,0
DA:436,0
DA:437,0
DA:438,0
DA:439,0
DA:440,0
DA:443,0
DA:444,0
DA:445,0
DA:448,0
DA:449,0
DA:450,0
DA:452,0
DA:453,0
DA:454,0
DA:455,0
DA:456,0
DA:457,0
DA:459,0
DA:460,0
DA:461,0
DA:462,0
DA:463,0
DA:466,0
DA:467,0
DA:469,0
DA:470,0
DA:471,0
DA:472,0
DA:474,0
DA:475,0
DA:476,0
DA:480,0
DA:481,0
DA:484,0
DA:485,0
DA:486,0
DA:494,0
DA:495,0
DA:496,0
DA:497,0
DA:498,0
DA:499,0
DA:500,0
DA:501,0
DA:504,0
DA:507,0
DA:508,0
DA:509,0
DA:510,0
DA:511,0
DA:512,0
DA:513,0
DA:514,0
DA:516,0
DA:520,0
DA:521,0
DA:522,0
DA:523,0
DA:524,0
DA:525,0
DA:526,0
DA:527,0
DA:528,0
DA:529,0
DA:530,0
DA:531,0
DA:532,0
DA:533,0
DA:534,0
DA:537,0
DA:538,0
DA:539,0
DA:540,0
DA:541,0
DA:542,0
DA:543,0
DA:544,0
DA:545,0
DA:546,0
DA:547,0
DA:549,0
DA:550,0
DA:551,0
DA:553,0
DA:554,0
DA:555,0
DA:556,0
DA:559,0
DA:560,0
DA:561,0
DA:562,0
DA:563,0
DA:564,0
DA:565,0
DA:566,0
DA:567,0
DA:568,0
DA:569,0
DA:570,0
DA:572,0
DA:573,0
DA:574,0
DA:575,0
BRF:0
BRH:0
LF:297
LH:0
end_of_record
SF:/home/ubuntu/Code/ExpressGateway/.claude/worktrees/s15-builder/crates/lb-h2/src/security.rs
FN:415,_RNCNvMs3_NtCslmkjG9qptyz_5lb_h28securityNtB7_23ZeroWindowStallDetector13check_stalled0B9_
FN:46,_RNvMNtCslmkjG9qptyz_5lb_h28securityNtB2_18RapidResetDetector3new
FN:111,_RNvMNtCslmkjG9qptyz_5lb_h28securityNtB2_18RapidResetDetector5reset
FN:62,_RNvMNtCslmkjG9qptyz_5lb_h28securityNtB2_18RapidResetDetector6record
FN:178,_RNvMs0_NtCslmkjG9qptyz_5lb_h28securityNtB5_17HpackBombDetector3new
FN:191,_RNvMs0_NtCslmkjG9qptyz_5lb_h28securityNtB5_17HpackBombDetector5check
FN:276,_RNvMs1_NtCslmkjG9qptyz_5lb_h28securityNtB5_21SettingsFloodDetector11on_settings
FN:263,_RNvMs1_NtCslmkjG9qptyz_5lb_h28securityNtB5_21SettingsFloodDetector13with_defaults
FN:252,_RNvMs1_NtCslmkjG9qptyz_5lb_h28securityNtB5_21SettingsFloodDetector3new
FN:297,_RNvMs1_NtCslmkjG9qptyz_5lb_h28securityNtB5_21SettingsFloodDetector5reset
FN:330,_RNvMs2_NtCslmkjG9qptyz_5lb_h28securityNtB5_17PingFloodDetector13with_defaults
FN:319,_RNvMs2_NtCslmkjG9qptyz_5lb_h28securityNtB5_17PingFloodDetector3new
FN:361,_RNvMs2_NtCslmkjG9qptyz_5lb_h28securityNtB5_17PingFloodDetector5reset
FN:340,_RNvMs2_NtCslmkjG9qptyz_5lb_h28securityNtB5_17PingFloodDetector7on_ping
FN:412,_RNvMs3_NtCslmkjG9qptyz_5lb_h28securityNtB5_23ZeroWindowStallDetector13check_stalled
FN:419,_RNvMs3_NtCslmkjG9qptyz_5lb_h28securityNtB5_23ZeroWindowStallDetector13remove_stream
FN:393,_RNvMs3_NtCslmkjG9qptyz_5lb_h28securityNtB5_23ZeroWindowStallDetector13with_defaults
FN:402,_RNvMs3_NtCslmkjG9qptyz_5lb_h28securityNtB5_23ZeroWindowStallDetector16on_window_update
FN:384,_RNvMs3_NtCslmkjG9qptyz_5lb_h28securityNtB5_23ZeroWindowStallDetector3new
FN:424,_RNvMs3_NtCslmkjG9qptyz_5lb_h28securityNtB5_23ZeroWindowStallDetector5reset
FN:130,_RNvMs_NtCslmkjG9qptyz_5lb_h28securityNtB4_25ContinuationFloodDetector3new
FN:159,_RNvMs_NtCslmkjG9qptyz_5lb_h28securityNtB4_25ContinuationFloodDetector5reset
FN:144,_RNvMs_NtCslmkjG9qptyz_5lb_h28securityNtB4_25ContinuationFloodDetector6record
FN:569,_RNvNtNtCs3fzGSoeFDl5_5lb_h28security5testss_13hpack_bomb_ok
FN:636,_RNvNtNtCs3fzGSoeFDl5_5lb_h28security5testss_19ping_burst_rejected
FN:551,_RNvNtNtCs3fzGSoeFDl5_5lb_h28security5testss_21continuation_flood_ok
FN:596,_RNvNtNtCs3fzGSoeFDl5_5lb_h28security5testss_23settings_burst_rejected
FN:581,_RNvNtNtCs3fzGSoeFDl5_5lb_h28security5testss_24hpack_bomb_size_exceeded
FN:627,_RNvNtNtCs3fzGSoeFDl5_5lb_h28security5testss_24ping_under_limit_allowed
FN:575,_RNvNtNtCs3fzGSoeFDl5_5lb_h28security5testss_25hpack_bomb_ratio_exceeded
FN:458,_RNvNtNtCs3fzGSoeFDl5_5lb_h28security5testss_25rapid_reset_window_expiry
FN:447,_RNvNtNtCs3fzGSoeFDl5_5lb_h28security5testss_26rapid_reset_over_threshold
FN:560,_RNvNtNtCs3fzGSoeFDl5_5lb_h28security5testss_27continuation_flood_exceeded
FN:434,_RNvNtNtCs3fzGSoeFDl5_5lb_h28security5testss_27rapid_reset_under_threshold
FN:609,_RNvNtNtCs3fzGSoeFDl5_5lb_h28security5testss_28settings_resets_after_window
FN:587,_RNvNtNtCs3fzGSoeFDl5_5lb_h28security5testss_28settings_under_limit_allowed
FN:506,_RNvNtNtCs3fzGSoeFDl5_5lb_h28security5testss_33rapid_reset_sliding_window_decays
FN:658,_RNvNtNtCs3fzGSoeFDl5_5lb_h28security5testss_35zero_window_stall_reset_on_progress
FN:468,_RNvNtNtCs3fzGSoeFDl5_5lb_h28security5testss_36rapid_reset_boundary_attack_detected
FN:647,_RNvNtNtCs3fzGSoeFDl5_5lb_h28security5testss_37zero_window_stall_fires_after_timeout
FN:415,_RNCNvMs3_NtCs3fzGSoeFDl5_5lb_h28securityNtB7_23ZeroWindowStallDetector13check_stalled0B9_
FN:46,_RNvMNtCs3fzGSoeFDl5_5lb_h28securityNtB2_18RapidResetDetector3new
FN:62,_RNvMNtCs3fzGSoeFDl5_5lb_h28securityNtB2_18RapidResetDetector6record
FN:178,_RNvMs0_NtCs3fzGSoeFDl5_5lb_h28securityNtB5_17HpackBombDetector3new
FN:191,_RNvMs0_NtCs3fzGSoeFDl5_5lb_h28securityNtB5_17HpackBombDetector5check
FN:276,_RNvMs1_NtCs3fzGSoeFDl5_5lb_h28securityNtB5_21SettingsFloodDetector11on_settings
FN:252,_RNvMs1_NtCs3fzGSoeFDl5_5lb_h28securityNtB5_21SettingsFloodDetector3new
FN:319,_RNvMs2_NtCs3fzGSoeFDl5_5lb_h28securityNtB5_17PingFloodDetector3new
FN:340,_RNvMs2_NtCs3fzGSoeFDl5_5lb_h28securityNtB5_17PingFloodDetector7on_ping
FN:412,_RNvMs3_NtCs3fzGSoeFDl5_5lb_h28securityNtB5_23ZeroWindowStallDetector13check_stalled
FN:419,_RNvMs3_NtCs3fzGSoeFDl5_5lb_h28securityNtB5_23ZeroWindowStallDetector13remove_stream
FN:402,_RNvMs3_NtCs3fzGSoeFDl5_5lb_h28securityNtB5_23ZeroWindowStallDetector16on_window_update
FN:384,_RNvMs3_NtCs3fzGSoeFDl5_5lb_h28securityNtB5_23ZeroWindowStallDetector3new
FN:130,_RNvMs_NtCs3fzGSoeFDl5_5lb_h28securityNtB4_25ContinuationFloodDetector3new
FN:144,_RNvMs_NtCs3fzGSoeFDl5_5lb_h28securityNtB4_25ContinuationFloodDetector6record
FN:111,_RNvMNtCs3fzGSoeFDl5_5lb_h28securityNtB2_18RapidResetDetector5reset
FN:263,_RNvMs1_NtCs3fzGSoeFDl5_5lb_h28securityNtB5_21SettingsFloodDetector13with_defaults
FN:297,_RNvMs1_NtCs3fzGSoeFDl5_5lb_h28securityNtB5_21SettingsFloodDetector5reset
FN:330,_RNvMs2_NtCs3fzGSoeFDl5_5lb_h28securityNtB5_17PingFloodDetector13with_defaults
FN:361,_RNvMs2_NtCs3fzGSoeFDl5_5lb_h28securityNtB5_17PingFloodDetector5reset
FN:393,_RNvMs3_NtCs3fzGSoeFDl5_5lb_h28securityNtB5_23ZeroWindowStallDetector13with_defaults
FN:424,_RNvMs3_NtCs3fzGSoeFDl5_5lb_h28securityNtB5_23ZeroWindowStallDetector5reset
FN:159,_RNvMs_NtCs3fzGSoeFDl5_5lb_h28securityNtB4_25ContinuationFloodDetector5reset
FNDA:0,_RNCNvMs3_NtCslmkjG9qptyz_5lb_h28securityNtB7_23ZeroWindowStallDetector13check_stalled0B9_
FNDA:0,_RNvMNtCslmkjG9qptyz_5lb_h28securityNtB2_18RapidResetDetector3new
FNDA:0,_RNvMNtCslmkjG9qptyz_5lb_h28securityNtB2_18RapidResetDetector5reset
FNDA:0,_RNvMNtCslmkjG9qptyz_5lb_h28securityNtB2_18RapidResetDetector6record
FNDA:0,_RNvMs0_NtCslmkjG9qptyz_5lb_h28securityNtB5_17HpackBombDetector3new
FNDA:0,_RNvMs0_NtCslmkjG9qptyz_5lb_h28securityNtB5_17HpackBombDetector5check
FNDA:0,_RNvMs1_NtCslmkjG9qptyz_5lb_h28securityNtB5_21SettingsFloodDetector11on_settings
FNDA:0,_RNvMs1_NtCslmkjG9qptyz_5lb_h28securityNtB5_21SettingsFloodDetector13with_defaults
FNDA:0,_RNvMs1_NtCslmkjG9qptyz_5lb_h28securityNtB5_21SettingsFloodDetector3new
FNDA:0,_RNvMs1_NtCslmkjG9qptyz_5lb_h28securityNtB5_21SettingsFloodDetector5reset
FNDA:0,_RNvMs2_NtCslmkjG9qptyz_5lb_h28securityNtB5_17PingFloodDetector13with_defaults
FNDA:0,_RNvMs2_NtCslmkjG9qptyz_5lb_h28securityNtB5_17PingFloodDetector3new
FNDA:0,_RNvMs2_NtCslmkjG9qptyz_5lb_h28securityNtB5_17PingFloodDetector5reset
FNDA:0,_RNvMs2_NtCslmkjG9qptyz_5lb_h28securityNtB5_17PingFloodDetector7on_ping
FNDA:0,_RNvMs3_NtCslmkjG9qptyz_5lb_h28securityNtB5_23ZeroWindowStallDetector13check_stalled
FNDA:0,_RNvMs3_NtCslmkjG9qptyz_5lb_h28securityNtB5_23ZeroWindowStallDetector13remove_stream
FNDA:0,_RNvMs3_NtCslmkjG9qptyz_5lb_h28securityNtB5_23ZeroWindowStallDetector13with_defaults
FNDA:0,_RNvMs3_NtCslmkjG9qptyz_5lb_h28securityNtB5_23ZeroWindowStallDetector16on_window_update
FNDA:0,_RNvMs3_NtCslmkjG9qptyz_5lb_h28securityNtB5_23ZeroWindowStallDetector3new
FNDA:0,_RNvMs3_NtCslmkjG9qptyz_5lb_h28securityNtB5_23ZeroWindowStallDetector5reset
FNDA:0,_RNvMs_NtCslmkjG9qptyz_5lb_h28securityNtB4_25ContinuationFloodDetector3new
FNDA:0,_RNvMs_NtCslmkjG9qptyz_5lb_h28securityNtB4_25ContinuationFloodDetector5reset
FNDA:0,_RNvMs_NtCslmkjG9qptyz_5lb_h28securityNtB4_25ContinuationFloodDetector6record
FNDA:0,_RNvNtNtCs3fzGSoeFDl5_5lb_h28security5testss_13hpack_bomb_ok
FNDA:0,_RNvNtNtCs3fzGSoeFDl5_5lb_h28security5testss_19ping_burst_rejected
FNDA:0,_RNvNtNtCs3fzGSoeFDl5_5lb_h28security5testss_21continuation_flood_ok
FNDA:0,_RNvNtNtCs3fzGSoeFDl5_5lb_h28security5testss_23settings_burst_rejected
FNDA:0,_RNvNtNtCs3fzGSoeFDl5_5lb_h28security5testss_24hpack_bomb_size_exceeded
FNDA:0,_RNvNtNtCs3fzGSoeFDl5_5lb_h28security5testss_24ping_under_limit_allowed
FNDA:0,_RNvNtNtCs3fzGSoeFDl5_5lb_h28security5testss_25hpack_bomb_ratio_exceeded
FNDA:0,_RNvNtNtCs3fzGSoeFDl5_5lb_h28security5testss_25rapid_reset_window_expiry
FNDA:0,_RNvNtNtCs3fzGSoeFDl5_5lb_h28security5testss_26rapid_reset_over_threshold
FNDA:0,_RNvNtNtCs3fzGSoeFDl5_5lb_h28security5testss_27continuation_flood_exceeded
FNDA:0,_RNvNtNtCs3fzGSoeFDl5_5lb_h28security5testss_27rapid_reset_under_threshold
FNDA:0,_RNvNtNtCs3fzGSoeFDl5_5lb_h28security5testss_28settings_resets_after_window
FNDA:0,_RNvNtNtCs3fzGSoeFDl5_5lb_h28security5testss_28settings_under_limit_allowed
FNDA:0,_RNvNtNtCs3fzGSoeFDl5_5lb_h28security5testss_33rapid_reset_sliding_window_decays
FNDA:0,_RNvNtNtCs3fzGSoeFDl5_5lb_h28security5testss_35zero_window_stall_reset_on_progress
FNDA:0,_RNvNtNtCs3fzGSoeFDl5_5lb_h28security5testss_36rapid_reset_boundary_attack_detected
FNDA:0,_RNvNtNtCs3fzGSoeFDl5_5lb_h28security5testss_37zero_window_stall_fires_after_timeout
FNDA:0,_RNCNvMs3_NtCs3fzGSoeFDl5_5lb_h28securityNtB7_23ZeroWindowStallDetector13check_stalled0B9_
FNDA:0,_RNvMNtCs3fzGSoeFDl5_5lb_h28securityNtB2_18RapidResetDetector3new
FNDA:0,_RNvMNtCs3fzGSoeFDl5_5lb_h28securityNtB2_18RapidResetDetector6record
FNDA:0,_RNvMs0_NtCs3fzGSoeFDl5_5lb_h28securityNtB5_17HpackBombDetector3new
FNDA:0,_RNvMs0_NtCs3fzGSoeFDl5_5lb_h28securityNtB5_17HpackBombDetector5check
FNDA:0,_RNvMs1_NtCs3fzGSoeFDl5_5lb_h28securityNtB5_21SettingsFloodDetector11on_settings
FNDA:0,_RNvMs1_NtCs3fzGSoeFDl5_5lb_h28securityNtB5_21SettingsFloodDetector3new
FNDA:0,_RNvMs2_NtCs3fzGSoeFDl5_5lb_h28securityNtB5_17PingFloodDetector3new
FNDA:0,_RNvMs2_NtCs3fzGSoeFDl5_5lb_h28securityNtB5_17PingFloodDetector7on_ping
FNDA:0,_RNvMs3_NtCs3fzGSoeFDl5_5lb_h28securityNtB5_23ZeroWindowStallDetector13check_stalled
FNDA:0,_RNvMs3_NtCs3fzGSoeFDl5_5lb_h28securityNtB5_23ZeroWindowStallDetector13remove_stream
FNDA:0,_RNvMs3_NtCs3fzGSoeFDl5_5lb_h28securityNtB5_23ZeroWindowStallDetector16on_window_update
FNDA:0,_RNvMs3_NtCs3fzGSoeFDl5_5lb_h28securityNtB5_23ZeroWindowStallDetector3new
FNDA:0,_RNvMs_NtCs3fzGSoeFDl5_5lb_h28securityNtB4_25ContinuationFloodDetector3new
FNDA:0,_RNvMs_NtCs3fzGSoeFDl5_5lb_h28securityNtB4_25ContinuationFloodDetector6record
FNDA:0,_RNvMNtCs3fzGSoeFDl5_5lb_h28securityNtB2_18RapidResetDetector5reset
FNDA:0,_RNvMs1_NtCs3fzGSoeFDl5_5lb_h28securityNtB5_21SettingsFloodDetector13with_defaults
FNDA:0,_RNvMs1_NtCs3fzGSoeFDl5_5lb_h28securityNtB5_21SettingsFloodDetector5reset
FNDA:0,_RNvMs2_NtCs3fzGSoeFDl5_5lb_h28securityNtB5_17PingFloodDetector13with_defaults
FNDA:0,_RNvMs2_NtCs3fzGSoeFDl5_5lb_h28securityNtB5_17PingFloodDetector5reset
FNDA:0,_RNvMs3_NtCs3fzGSoeFDl5_5lb_h28securityNtB5_23ZeroWindowStallDetector13with_defaults
FNDA:0,_RNvMs3_NtCs3fzGSoeFDl5_5lb_h28securityNtB5_23ZeroWindowStallDetector5reset
FNDA:0,_RNvMs_NtCs3fzGSoeFDl5_5lb_h28securityNtB4_25ContinuationFloodDetector5reset
FNF:40
FNH:0
DA:46,0
DA:47,0
DA:48,0
DA:49,0
DA:50,0
DA:51,0
DA:52,0
DA:53,0
DA:54,0
DA:62,0
DA:63,0
DA:64,0
DA:65,0
DA:69,0
DA:70,0
DA:71,0
DA:72,0
DA:73,0
DA:74,0
DA:75,0
DA:76,0
DA:77,0
DA:78,0
DA:89,0
DA:90,0
DA:91,0
DA:92,0
DA:93,0
DA:94,0
DA:95,0
DA:96,0
DA:97,0
DA:98,0
DA:99,0
DA:100,0
DA:101,0
DA:102,0
DA:103,0
DA:104,0
DA:106,0
DA:108,0
DA:111,0
DA:112,0
DA:113,0
DA:114,0
DA:115,0
DA:130,0
DA:131,0
DA:132,0
DA:133,0
DA:134,0
DA:135,0
DA:144,0
DA:145,0
DA:146,0
DA:147,0
DA:148,0
DA:149,0
DA:150,0
DA:151,0
DA:152,0
DA:154,0
DA:156,0
DA:159,0
DA:160,0
DA:161,0
DA:178,0
DA:179,0
DA:180,0
DA:181,0
DA:182,0
DA:183,0
DA:191,0
DA:192,0
DA:193,0
DA:194,0
DA:195,0
DA:197,0
DA:198,0
DA:199,0
DA:200,0
DA:201,0
DA:202,0
DA:204,0
DA:205,0
DA:206,0
DA:207,0
DA:208,0
DA:209,0
DA:210,0
DA:211,0
DA:212,0
DA:214,0
DA:215,0
DA:252,0
DA:253,0
DA:254,0
DA:255,0
DA:256,0
DA:257,0
DA:258,0
DA:259,0
DA:263,0
DA:264,0
DA:265,0
DA:266,0
DA:267,0
DA:268,0
DA:276,0
DA:277,0
DA:278,0
DA:279,0
DA:281,0
DA:282,0
DA:283,0
DA:284,0
DA:285,0
DA:286,0
DA:287,0
DA:288,0
DA:289,0
DA:290,0
DA:292,0
DA:294,0
DA:297,0
DA:298,0
DA:299,0
DA:300,0
DA:319,0
DA:320,0
DA:321,0
DA:322,0
DA:323,0
DA:324,0
DA:325,0
DA:326,0
DA:330,0
DA:331,0
DA:332,0
DA:340,0
DA:341,0
DA:342,0
DA:343,0
DA:345,0
DA:346,0
DA:347,0
DA:348,0
DA:349,0
DA:350,0
DA:351,0
DA:352,0
DA:353,0
DA:354,0
DA:356,0
DA:358,0
DA:361,0
DA:362,0
DA:363,0
DA:364,0
DA:384,0
DA:385,0
DA:386,0
DA:387,0
DA:388,0
DA:389,0
DA:393,0
DA:394,0
DA:395,0
DA:402,0
DA:403,0
DA:404,0
DA:405,0
DA:406,0
DA:407,0
DA:412,0
DA:413,0
DA:414,0
DA:415,0
DA:416,0
DA:419,0
DA:420,0
DA:421,0
DA:424,0
DA:425,0
DA:426,0
DA:434,0
DA:435,0
DA:441,0
DA:442,0
DA:444,0
DA:447,0
DA:448,0
DA:450,0
DA:451,0
DA:454,0
DA:455,0
DA:458,0
DA:459,0
DA:460,0
DA:461,0
DA:464,0
DA:465,0
DA:468,0
DA:469,0
DA:470,0
DA:471,0
DA:472,0
DA:473,0
DA:474,0
DA:475,0
DA:476,0
DA:477,0
DA:478,0
DA:483,0
DA:484,0
DA:485,0
DA:486,0
DA:487,0
DA:498,0
DA:499,0
DA:500,0
DA:501,0
DA:503,0
DA:506,0
DA:507,0
DA:508,0
DA:509,0
DA:510,0
DA:511,0
DA:512,0
DA:515,0
DA:516,0
DA:517,0
DA:521,0
DA:526,0
DA:537,0
DA:538,0
DA:540,0
DA:541,0
DA:542,0
DA:548,0
DA:551,0
DA:552,0
DA:553,0
DA:554,0
DA:556,0
DA:557,0
DA:560,0
DA:561,0
DA:562,0
DA:563,0
DA:565,0
DA:566,0
DA:569,0
DA:570,0
DA:571,0
DA:572,0
DA:575,0
DA:576,0
DA:577,0
DA:578,0
DA:581,0
DA:582,0
DA:583,0
DA:584,0
DA:587,0
DA:588,0
DA:589,0
DA:590,0
DA:591,0
DA:593,0
DA:596,0
DA:597,0
DA:598,0
DA:599,0
DA:600,0
DA:602,0
DA:603,0
DA:604,0
DA:605,0
DA:606,0
DA:609,0
DA:610,0
DA:611,0
DA:612,0
DA:613,0
DA:616,0
DA:618,0
DA:619,0
DA:620,0
DA:621,0
DA:622,0
DA:624,0
DA:627,0
DA:628,0
DA:629,0
DA:630,0
DA:631,0
DA:633,0
DA:636,0
DA:637,0
DA:638,0
DA:639,0
DA:640,0
DA:642,0
DA:643,0
DA:644,0
DA:647,0
DA:648,0
DA:649,0
DA:650,0
DA:651,0
DA:652,0
DA:653,0
DA:654,0
DA:655,0
DA:658,0
DA:659,0
DA:660,0
DA:661,0
DA:662,0
DA:663,0
DA:664,0
DA:665,0
DA:667,0
DA:669,0
DA:670,0
DA:671,0
BRF:0
BRH:0
LF:329
LH:0
end_of_record
SF:/home/ubuntu/Code/ExpressGateway/.claude/worktrees/s15-builder/crates/lb-h3/src/frame.rs
FN:98,_RNCNvNtCs9vbOsrtJ9jD_5lb_h35frame12decode_frame0B5_
FN:84,_RNvNtCs9vbOsrtJ9jD_5lb_h35frame12decode_frame
FN:159,_RNvNtCs9vbOsrtJ9jD_5lb_h35frame12encode_frame
FN:98,_RNCNvNtCs29y4OA8UEZi_5lb_h35frame12decode_frame0B5_
FN:84,_RNvNtCs29y4OA8UEZi_5lb_h35frame12decode_frame
FN:159,_RNvNtCs29y4OA8UEZi_5lb_h35frame12encode_frame
FN:275,_RNvNtNtCs29y4OA8UEZi_5lb_h35frame5testss_16incomplete_input
FN:233,_RNvNtNtCs29y4OA8UEZi_5lb_h35frame5testss_20data_frame_roundtrip
FN:266,_RNvNtNtCs29y4OA8UEZi_5lb_h35frame5testss_22goaway_frame_roundtrip
FN:244,_RNvNtNtCs29y4OA8UEZi_5lb_h35frame5testss_23headers_frame_roundtrip
FN:287,_RNvNtNtCs29y4OA8UEZi_5lb_h35frame5testss_24frame_too_large_rejected
FN:255,_RNvNtNtCs29y4OA8UEZi_5lb_h35frame5testss_24settings_frame_roundtrip
FN:310,_RNvNtNtCs29y4OA8UEZi_5lb_h35frame5testss_26unknown_frame_type_ignored
FNDA:0,_RNCNvNtCs9vbOsrtJ9jD_5lb_h35frame12decode_frame0B5_
FNDA:0,_RNvNtCs9vbOsrtJ9jD_5lb_h35frame12decode_frame
FNDA:0,_RNvNtCs9vbOsrtJ9jD_5lb_h35frame12encode_frame
FNDA:0,_RNCNvNtCs29y4OA8UEZi_5lb_h35frame12decode_frame0B5_
FNDA:0,_RNvNtCs29y4OA8UEZi_5lb_h35frame12decode_frame
FNDA:0,_RNvNtCs29y4OA8UEZi_5lb_h35frame12encode_frame
FNDA:0,_RNvNtNtCs29y4OA8UEZi_5lb_h35frame5testss_16incomplete_input
FNDA:0,_RNvNtNtCs29y4OA8UEZi_5lb_h35frame5testss_20data_frame_roundtrip
FNDA:0,_RNvNtNtCs29y4OA8UEZi_5lb_h35frame5testss_22goaway_frame_roundtrip
FNDA:0,_RNvNtNtCs29y4OA8UEZi_5lb_h35frame5testss_23headers_frame_roundtrip
FNDA:0,_RNvNtNtCs29y4OA8UEZi_5lb_h35frame5testss_24frame_too_large_rejected
FNDA:0,_RNvNtNtCs29y4OA8UEZi_5lb_h35frame5testss_24settings_frame_roundtrip
FNDA:0,_RNvNtNtCs29y4OA8UEZi_5lb_h35frame5testss_26unknown_frame_type_ignored
FNF:10
FNH:0
DA:84,0
DA:85,0
DA:86,0
DA:87,0
DA:89,0
DA:90,0
DA:91,0
DA:92,0
DA:93,0
DA:94,0
DA:95,0
DA:96,0
DA:97,0
DA:98,0
DA:99,0
DA:101,0
DA:103,0
DA:104,0
DA:105,0
DA:106,0
DA:107,0
DA:108,0
DA:109,0
DA:111,0
DA:112,0
DA:115,0
DA:116,0
DA:117,0
DA:118,0
DA:119,0
DA:120,0
DA:121,0
DA:122,0
DA:123,0
DA:125,0
DA:128,0
DA:129,0
DA:130,0
DA:131,0
DA:132,0
DA:133,0
DA:136,0
DA:137,0
DA:140,0
DA:141,0
DA:144,0
DA:145,0
DA:146,0
DA:147,0
DA:150,0
DA:151,0
DA:159,0
DA:160,0
DA:161,0
DA:162,0
DA:163,0
DA:164,0
DA:165,0
DA:166,0
DA:168,0
DA:169,0
DA:170,0
DA:171,0
DA:173,0
DA:174,0
DA:175,0
DA:176,0
DA:177,0
DA:178,0
DA:180,0
DA:181,0
DA:182,0
DA:183,0
DA:184,0
DA:186,0
DA:187,0
DA:188,0
DA:191,0
DA:192,0
DA:193,0
DA:194,0
DA:195,0
DA:196,0
DA:197,0
DA:198,0
DA:199,0
DA:201,0
DA:202,0
DA:203,0
DA:204,0
DA:205,0
DA:206,0
DA:208,0
DA:209,0
DA:210,0
DA:211,0
DA:212,0
DA:213,0
DA:216,0
DA:217,0
DA:218,0
DA:219,0
DA:220,0
DA:221,0
DA:225,0
DA:226,0
DA:233,0
DA:234,0
DA:235,0
DA:236,0
DA:237,0
DA:238,0
DA:239,0
DA:240,0
DA:241,0
DA:244,0
DA:245,0
DA:246,0
DA:247,0
DA:248,0
DA:249,0
DA:250,0
DA:251,0
DA:252,0
DA:255,0
DA:256,0
DA:257,0
DA:258,0
DA:259,0
DA:260,0
DA:261,0
DA:262,0
DA:263,0
DA:266,0
DA:267,0
DA:268,0
DA:269,0
DA:270,0
DA:271,0
DA:272,0
DA:275,0
DA:276,0
DA:277,0
DA:280,0
DA:281,0
DA:284,0
DA:287,0
DA:288,0
DA:289,0
DA:290,0
DA:291,0
DA:292,0
DA:293,0
DA:294,0
DA:295,0
DA:296,0
DA:297,0
DA:305,0
DA:306,0
DA:307,0
DA:310,0
DA:311,0
DA:312,0
DA:313,0
DA:314,0
DA:315,0
DA:316,0
DA:317,0
DA:318,0
DA:319,0
DA:320,0
DA:321,0
DA:322,0
DA:323,0
DA:324,0
DA:325,0
DA:326,0
DA:327,0
DA:328,0
BRF:0
BRH:0
LF:180
LH:0
end_of_record
SF:/home/ubuntu/Code/ExpressGateway/.claude/worktrees/s15-builder/crates/lb-h3/src/qpack.rs
FN:304,_RNCNvMs0_NtCs9vbOsrtJ9jD_5lb_h35qpackNtB7_12QpackDecoder6decode0B9_
FN:319,_RNCNvMs0_NtCs9vbOsrtJ9jD_5lb_h35qpackNtB7_12QpackDecoder6decodes_0B9_
FN:137,_RNCNvNtCs9vbOsrtJ9jD_5lb_h35qpack11find_static0B5_
FN:198,_RNCNvNtCs9vbOsrtJ9jD_5lb_h35qpack14decode_qstring0B5_
FN:211,_RNvMNtCs9vbOsrtJ9jD_5lb_h35qpackNtB2_12QpackEncoder3new
FN:223,_RNvMNtCs9vbOsrtJ9jD_5lb_h35qpackNtB2_12QpackEncoder6encode
FN:270,_RNvMs0_NtCs9vbOsrtJ9jD_5lb_h35qpackNtB5_12QpackDecoder3new
FN:279,_RNvMs0_NtCs9vbOsrtJ9jD_5lb_h35qpackNtB5_12QpackDecoder6decode
FN:161,_RNvNtCs9vbOsrtJ9jD_5lb_h35qpack11decode_qint
FN:142,_RNvNtCs9vbOsrtJ9jD_5lb_h35qpack11encode_qint
FN:125,_RNvNtCs9vbOsrtJ9jD_5lb_h35qpack11find_static
FN:192,_RNvNtCs9vbOsrtJ9jD_5lb_h35qpack14decode_qstring
FN:187,_RNvNtCs9vbOsrtJ9jD_5lb_h35qpack14encode_qstring
FN:356,_RNvXs1_NtCs9vbOsrtJ9jD_5lb_h35qpackNtB5_12QpackDecoderNtNtCs2va5m0jqTTM_4core7default7Default7default
FN:256,_RNvXs_NtCs9vbOsrtJ9jD_5lb_h35qpackNtB4_12QpackEncoderNtNtCs2va5m0jqTTM_4core7default7Default7default
FN:304,_RNCNvMs0_NtCs29y4OA8UEZi_5lb_h35qpackNtB7_12QpackDecoder6decode0B9_
FN:319,_RNCNvMs0_NtCs29y4OA8UEZi_5lb_h35qpackNtB7_12QpackDecoder6decodes_0B9_
FN:137,_RNCNvNtCs29y4OA8UEZi_5lb_h35qpack11find_static0B5_
FN:198,_RNCNvNtCs29y4OA8UEZi_5lb_h35qpack14decode_qstring0B5_
FN:211,_RNvMNtCs29y4OA8UEZi_5lb_h35qpackNtB2_12QpackEncoder3new
FN:223,_RNvMNtCs29y4OA8UEZi_5lb_h35qpackNtB2_12QpackEncoder6encode
FN:270,_RNvMs0_NtCs29y4OA8UEZi_5lb_h35qpackNtB5_12QpackDecoder3new
FN:279,_RNvMs0_NtCs29y4OA8UEZi_5lb_h35qpackNtB5_12QpackDecoder6decode
FN:161,_RNvNtCs29y4OA8UEZi_5lb_h35qpack11decode_qint
FN:142,_RNvNtCs29y4OA8UEZi_5lb_h35qpack11encode_qint
FN:125,_RNvNtCs29y4OA8UEZi_5lb_h35qpack11find_static
FN:192,_RNvNtCs29y4OA8UEZi_5lb_h35qpack14decode_qstring
FN:187,_RNvNtCs29y4OA8UEZi_5lb_h35qpack14encode_qstring
FN:366,_RNvNtNtCs29y4OA8UEZi_5lb_h35qpack5testss_21roundtrip_static_only
FN:383,_RNvNtNtCs29y4OA8UEZi_5lb_h35qpack5testss_23roundtrip_with_literals
FN:399,_RNvNtNtCs29y4OA8UEZi_5lb_h35qpack5testss_32roundtrip_name_ref_value_literal
FN:356,_RNvXs1_NtCs29y4OA8UEZi_5lb_h35qpackNtB5_12QpackDecoderNtNtCs2va5m0jqTTM_4core7default7Default7default
FN:256,_RNvXs_NtCs29y4OA8UEZi_5lb_h35qpackNtB4_12QpackEncoderNtNtCs2va5m0jqTTM_4core7default7Default7default
FNDA:0,_RNCNvMs0_NtCs9vbOsrtJ9jD_5lb_h35qpackNtB7_12QpackDecoder6decode0B9_
FNDA:0,_RNCNvMs0_NtCs9vbOsrtJ9jD_5lb_h35qpackNtB7_12QpackDecoder6decodes_0B9_
FNDA:0,_RNCNvNtCs9vbOsrtJ9jD_5lb_h35qpack11find_static0B5_
FNDA:0,_RNCNvNtCs9vbOsrtJ9jD_5lb_h35qpack14decode_qstring0B5_
FNDA:0,_RNvMNtCs9vbOsrtJ9jD_5lb_h35qpackNtB2_12QpackEncoder3new
FNDA:0,_RNvMNtCs9vbOsrtJ9jD_5lb_h35qpackNtB2_12QpackEncoder6encode
FNDA:0,_RNvMs0_NtCs9vbOsrtJ9jD_5lb_h35qpackNtB5_12QpackDecoder3new
FNDA:0,_RNvMs0_NtCs9vbOsrtJ9jD_5lb_h35qpackNtB5_12QpackDecoder6decode
FNDA:0,_RNvNtCs9vbOsrtJ9jD_5lb_h35qpack11decode_qint
FNDA:0,_RNvNtCs9vbOsrtJ9jD_5lb_h35qpack11encode_qint
FNDA:0,_RNvNtCs9vbOsrtJ9jD_5lb_h35qpack11find_static
FNDA:0,_RNvNtCs9vbOsrtJ9jD_5lb_h35qpack14decode_qstring
FNDA:0,_RNvNtCs9vbOsrtJ9jD_5lb_h35qpack14encode_qstring
FNDA:0,_RNvXs1_NtCs9vbOsrtJ9jD_5lb_h35qpackNtB5_12QpackDecoderNtNtCs2va5m0jqTTM_4core7default7Default7default
FNDA:0,_RNvXs_NtCs9vbOsrtJ9jD_5lb_h35qpackNtB4_12QpackEncoderNtNtCs2va5m0jqTTM_4core7default7Default7default
FNDA:0,_RNCNvMs0_NtCs29y4OA8UEZi_5lb_h35qpackNtB7_12QpackDecoder6decode0B9_
FNDA:0,_RNCNvMs0_NtCs29y4OA8UEZi_5lb_h35qpackNtB7_12QpackDecoder6decodes_0B9_
FNDA:0,_RNCNvNtCs29y4OA8UEZi_5lb_h35qpack11find_static0B5_
FNDA:0,_RNCNvNtCs29y4OA8UEZi_5lb_h35qpack14decode_qstring0B5_
FNDA:0,_RNvMNtCs29y4OA8UEZi_5lb_h35qpackNtB2_12QpackEncoder3new
FNDA:0,_RNvMNtCs29y4OA8UEZi_5lb_h35qpackNtB2_12QpackEncoder6encode
FNDA:0,_RNvMs0_NtCs29y4OA8UEZi_5lb_h35qpackNtB5_12QpackDecoder3new
FNDA:0,_RNvMs0_NtCs29y4OA8UEZi_5lb_h35qpackNtB5_12QpackDecoder6decode
FNDA:0,_RNvNtCs29y4OA8UEZi_5lb_h35qpack11decode_qint
FNDA:0,_RNvNtCs29y4OA8UEZi_5lb_h35qpack11encode_qint
FNDA:0,_RNvNtCs29y4OA8UEZi_5lb_h35qpack11find_static
FNDA:0,_RNvNtCs29y4OA8UEZi_5lb_h35qpack14decode_qstring
FNDA:0,_RNvNtCs29y4OA8UEZi_5lb_h35qpack14encode_qstring
FNDA:0,_RNvNtNtCs29y4OA8UEZi_5lb_h35qpack5testss_21roundtrip_static_only
FNDA:0,_RNvNtNtCs29y4OA8UEZi_5lb_h35qpack5testss_23roundtrip_with_literals
FNDA:0,_RNvNtNtCs29y4OA8UEZi_5lb_h35qpack5testss_32roundtrip_name_ref_value_literal
FNDA:0,_RNvXs1_NtCs29y4OA8UEZi_5lb_h35qpackNtB5_12QpackDecoderNtNtCs2va5m0jqTTM_4core7default7Default7default
FNDA:0,_RNvXs_NtCs29y4OA8UEZi_5lb_h35qpackNtB4_12QpackEncoderNtNtCs2va5m0jqTTM_4core7default7Default7default
FNF:18
FNH:0
DA:125,0
DA:126,0
DA:127,0
DA:128,0
DA:129,0
DA:130,0
DA:131,0
DA:132,0
DA:133,0
DA:134,0
DA:135,0
DA:137,0
DA:138,0
DA:142,0
DA:143,0
DA:144,0
DA:145,0
DA:146,0
DA:147,0
DA:149,0
DA:150,0
DA:151,0
DA:152,0
DA:153,0
DA:154,0
DA:155,0
DA:157,0
DA:159,0
DA:161,0
DA:162,0
DA:163,0
DA:164,0
DA:165,0
DA:166,0
DA:167,0
DA:168,0
DA:169,0
DA:170,0
DA:171,0
DA:173,0
DA:174,0
DA:175,0
DA:176,0
DA:177,0
DA:178,0
DA:179,0
DA:180,0
DA:181,0
DA:182,0
DA:184,0
DA:185,0
DA:187,0
DA:188,0
DA:189,0
DA:190,0
DA:192,0
DA:193,0
DA:194,0
DA:195,0
DA:196,0
DA:197,0
DA:198,0
DA:199,0
DA:200,0
DA:211,0
DA:212,0
DA:213,0
DA:223,0
DA:224,0
DA:225,0
DA:226,0
DA:227,0
DA:228,0
DA:229,0
DA:231,0
DA:232,0
DA:233,0
DA:234,0
DA:235,0
DA:236,0
DA:237,0
DA:238,0
DA:239,0
DA:240,0
DA:241,0
DA:242,0
DA:243,0
DA:244,0
DA:245,0
DA:246,0
DA:247,0
DA:251,0
DA:252,0
DA:256,0
DA:257,0
DA:258,0
DA:270,0
DA:271,0
DA:272,0
DA:279,0
DA:280,0
DA:281,0
DA:282,0
DA:284,0
DA:285,0
DA:286,0
DA:287,0
DA:288,0
DA:289,0
DA:290,0
DA:291,0
DA:293,0
DA:294,0
DA:296,0
DA:298,0
DA:299,0
DA:300,0
DA:302,0
DA:303,0
DA:304,0
DA:305,0
DA:306,0
DA:308,0
DA:309,0
DA:310,0
DA:311,0
DA:313,0
DA:314,0
DA:315,0
DA:317,0
DA:318,0
DA:319,0
DA:320,0
DA:322,0
DA:323,0
DA:324,0
DA:325,0
DA:326,0
DA:327,0
DA:329,0
DA:330,0
DA:331,0
DA:332,0
DA:334,0
DA:335,0
DA:336,0
DA:337,0
DA:339,0
DA:340,0
DA:341,0
DA:342,0
DA:343,0
DA:345,0
DA:346,0
DA:347,0
DA:351,0
DA:352,0
DA:356,0
DA:357,0
DA:358,0
DA:366,0
DA:367,0
DA:368,0
DA:369,0
DA:370,0
DA:371,0
DA:372,0
DA:373,0
DA:374,0
DA:375,0
DA:376,0
DA:377,0
DA:378,0
DA:379,0
DA:380,0
DA:383,0
DA:384,0
DA:385,0
DA:386,0
DA:387,0
DA:388,0
DA:389,0
DA:390,0
DA:391,0
DA:392,0
DA:393,0
DA:394,0
DA:395,0
DA:396,0
DA:399,0
DA:400,0
DA:401,0
DA:402,0
DA:403,0
DA:404,0
DA:405,0
DA:406,0
DA:407,0
DA:408,0
DA:409,0
BRF:0
BRH:0
LF:204
LH:0
end_of_record
SF:/home/ubuntu/Code/ExpressGateway/.claude/worktrees/s15-builder/crates/lb-h3/src/security.rs
FN:22,_RNvMNtCs9vbOsrtJ9jD_5lb_h38securityNtB2_17QpackBombDetector3new
FN:35,_RNvMNtCs9vbOsrtJ9jD_5lb_h38securityNtB2_17QpackBombDetector5check
FN:22,_RNvMNtCs29y4OA8UEZi_5lb_h38securityNtB2_17QpackBombDetector3new
FN:35,_RNvMNtCs29y4OA8UEZi_5lb_h38securityNtB2_17QpackBombDetector5check
FN:85,_RNvNtNtCs29y4OA8UEZi_5lb_h38security5testss_12zero_encoded
FN:79,_RNvNtNtCs29y4OA8UEZi_5lb_h38security5testss_13size_exceeded
FN:73,_RNvNtNtCs29y4OA8UEZi_5lb_h38security5testss_14ratio_exceeded
FN:67,_RNvNtNtCs29y4OA8UEZi_5lb_h38security5testss_15normal_input_ok
FNDA:0,_RNvMNtCs9vbOsrtJ9jD_5lb_h38securityNtB2_17QpackBombDetector3new
FNDA:0,_RNvMNtCs9vbOsrtJ9jD_5lb_h38securityNtB2_17QpackBombDetector5check
FNDA:0,_RNvMNtCs29y4OA8UEZi_5lb_h38securityNtB2_17QpackBombDetector3new
FNDA:0,_RNvMNtCs29y4OA8UEZi_5lb_h38securityNtB2_17QpackBombDetector5check
FNDA:0,_RNvNtNtCs29y4OA8UEZi_5lb_h38security5testss_12zero_encoded
FNDA:0,_RNvNtNtCs29y4OA8UEZi_5lb_h38security5testss_13size_exceeded
FNDA:0,_RNvNtNtCs29y4OA8UEZi_5lb_h38security5testss_14ratio_exceeded
FNDA:0,_RNvNtNtCs29y4OA8UEZi_5lb_h38security5testss_15normal_input_ok
FNF:6
FNH:0
DA:22,0
DA:23,0
DA:24,0
DA:25,0
DA:26,0
DA:27,0
DA:35,0
DA:36,0
DA:37,0
DA:38,0
DA:39,0
DA:41,0
DA:42,0
DA:43,0
DA:44,0
DA:45,0
DA:46,0
DA:48,0
DA:49,0
DA:50,0
DA:51,0
DA:52,0
DA:53,0
DA:54,0
DA:55,0
DA:56,0
DA:58,0
DA:59,0
DA:67,0
DA:68,0
DA:69,0
DA:70,0
DA:73,0
DA:74,0
DA:75,0
DA:76,0
DA:79,0
DA:80,0
DA:81,0
DA:82,0
DA:85,0
DA:86,0
DA:87,0
DA:88,0
BRF:0
BRH:0
LF:44
LH:0
end_of_record
SF:/home/ubuntu/Code/ExpressGateway/.claude/worktrees/s15-builder/crates/lb-h3/src/varint.rs
FN:27,_RNvNtCs9vbOsrtJ9jD_5lb_h36varint13decode_varint
FN:68,_RNvNtCs9vbOsrtJ9jD_5lb_h36varint13encode_varint
FN:27,_RNvNtCs29y4OA8UEZi_5lb_h36varint13decode_varint
FN:68,_RNvNtCs29y4OA8UEZi_5lb_h36varint13encode_varint
FN:99,_RNvNtNtCs29y4OA8UEZi_5lb_h36varint5testss_15roundtrip_small
FN:111,_RNvNtNtCs29y4OA8UEZi_5lb_h36varint5testss_18roundtrip_two_byte
FN:123,_RNvNtNtCs29y4OA8UEZi_5lb_h36varint5testss_19roundtrip_four_byte
FN:135,_RNvNtNtCs29y4OA8UEZi_5lb_h36varint5testss_20roundtrip_eight_byte
FN:147,_RNvNtNtCs29y4OA8UEZi_5lb_h36varint5testss_8overflow
FNDA:0,_RNvNtCs9vbOsrtJ9jD_5lb_h36varint13decode_varint
FNDA:0,_RNvNtCs9vbOsrtJ9jD_5lb_h36varint13encode_varint
FNDA:0,_RNvNtCs29y4OA8UEZi_5lb_h36varint13decode_varint
FNDA:0,_RNvNtCs29y4OA8UEZi_5lb_h36varint13encode_varint
FNDA:0,_RNvNtNtCs29y4OA8UEZi_5lb_h36varint5testss_15roundtrip_small
FNDA:0,_RNvNtNtCs29y4OA8UEZi_5lb_h36varint5testss_18roundtrip_two_byte
FNDA:0,_RNvNtNtCs29y4OA8UEZi_5lb_h36varint5testss_19roundtrip_four_byte
FNDA:0,_RNvNtNtCs29y4OA8UEZi_5lb_h36varint5testss_20roundtrip_eight_byte
FNDA:0,_RNvNtNtCs29y4OA8UEZi_5lb_h36varint5testss_8overflow
FNF:7
FNH:0
DA:27,0
DA:28,0
DA:29,0
DA:30,0
DA:31,0
DA:33,0
DA:34,0
DA:37,0
DA:38,0
DA:39,0
DA:42,0
DA:43,0
DA:44,0
DA:45,0
DA:46,0
DA:47,0
DA:48,0
DA:49,0
DA:52,0
DA:53,0
DA:54,0
DA:55,0
DA:57,0
DA:59,0
DA:61,0
DA:68,0
DA:69,0
DA:70,0
DA:71,0
DA:72,0
DA:73,0
DA:75,0
DA:76,0
DA:77,0
DA:79,0
DA:80,0
DA:81,0
DA:82,0
DA:84,0
DA:85,0
DA:86,0
DA:88,0
DA:89,0
DA:90,0
DA:92,0
DA:99,0
DA:100,0
DA:101,0
DA:102,0
DA:103,0
DA:104,0
DA:105,0
DA:106,0
DA:108,0
DA:111,0
DA:112,0
DA:113,0
DA:114,0
DA:115,0
DA:116,0
DA:117,0
DA:118,0
DA:120,0
DA:123,0
DA:124,0
DA:125,0
DA:126,0
DA:127,0
DA:128,0
DA:129,0
DA:130,0
DA:132,0
DA:135,0
DA:136,0
DA:137,0
DA:138,0
DA:139,0
DA:140,0
DA:141,0
DA:142,0
DA:144,0
DA:147,0
DA:148,0
DA:149,0
DA:150,0
BRF:0
BRH:0
LF:85
LH:0
end_of_record
SF:/home/ubuntu/Code/ExpressGateway/.claude/worktrees/s15-builder/crates/lb-health/src/lib.rs
FN:100,_RNvMs_Cs6EqKqV3Yxz5_9lb_healthNtB4_13HealthChecker14record_failure
FN:91,_RNvMs_Cs6EqKqV3Yxz5_9lb_healthNtB4_13HealthChecker14record_success
FN:70,_RNvMs_Cs6EqKqV3Yxz5_9lb_healthNtB4_13HealthChecker3new
FN:110,_RNvMs_Cs6EqKqV3Yxz5_9lb_healthNtB4_13HealthChecker6status
FN:30,_RNvXCs6EqKqV3Yxz5_9lb_healthNtB2_12HealthStatusNtNtCs2va5m0jqTTM_4core3fmt7Display3fmt
FN:100,_RNvMs_Cs8HdjwPPPNPq_9lb_healthNtB4_13HealthChecker14record_failure
FN:91,_RNvMs_Cs8HdjwPPPNPq_9lb_healthNtB4_13HealthChecker14record_success
FN:70,_RNvMs_Cs8HdjwPPPNPq_9lb_healthNtB4_13HealthChecker3new
FN:110,_RNvMs_Cs8HdjwPPPNPq_9lb_healthNtB4_13HealthChecker6status
FN:155,_RNvNtCs8HdjwPPPNPq_9lb_health5testss_14display_status
FN:120,_RNvNtCs8HdjwPPPNPq_9lb_health5testss_14starts_unknown
FN:145,_RNvNtCs8HdjwPPPNPq_9lb_health5testss_28success_resets_failure_count
FN:162,_RNvNtCs8HdjwPPPNPq_9lb_health5testss_29zero_threshold_clamped_to_one
FN:126,_RNvNtCs8HdjwPPPNPq_9lb_health5testss_31becomes_healthy_after_threshold
FN:136,_RNvNtCs8HdjwPPPNPq_9lb_health5testss_33becomes_unhealthy_after_threshold
FN:30,_RNvXCs8HdjwPPPNPq_9lb_healthNtB2_12HealthStatusNtNtCs2va5m0jqTTM_4core3fmt7Display3fmt
FNDA:0,_RNvMs_Cs6EqKqV3Yxz5_9lb_healthNtB4_13HealthChecker14record_failure
FNDA:0,_RNvMs_Cs6EqKqV3Yxz5_9lb_healthNtB4_13HealthChecker14record_success
FNDA:0,_RNvMs_Cs6EqKqV3Yxz5_9lb_healthNtB4_13HealthChecker3new
FNDA:0,_RNvMs_Cs6EqKqV3Yxz5_9lb_healthNtB4_13HealthChecker6status
FNDA:0,_RNvXCs6EqKqV3Yxz5_9lb_healthNtB2_12HealthStatusNtNtCs2va5m0jqTTM_4core3fmt7Display3fmt
FNDA:0,_RNvMs_Cs8HdjwPPPNPq_9lb_healthNtB4_13HealthChecker14record_failure
FNDA:0,_RNvMs_Cs8HdjwPPPNPq_9lb_healthNtB4_13HealthChecker14record_success
FNDA:0,_RNvMs_Cs8HdjwPPPNPq_9lb_healthNtB4_13HealthChecker3new
FNDA:0,_RNvMs_Cs8HdjwPPPNPq_9lb_healthNtB4_13HealthChecker6status
FNDA:0,_RNvNtCs8HdjwPPPNPq_9lb_health5testss_14display_status
FNDA:0,_RNvNtCs8HdjwPPPNPq_9lb_health5testss_14starts_unknown
FNDA:0,_RNvNtCs8HdjwPPPNPq_9lb_health5testss_28success_resets_failure_count
FNDA:0,_RNvNtCs8HdjwPPPNPq_9lb_health5testss_29zero_threshold_clamped_to_one
FNDA:0,_RNvNtCs8HdjwPPPNPq_9lb_health5testss_31becomes_healthy_after_threshold
FNDA:0,_RNvNtCs8HdjwPPPNPq_9lb_health5testss_33becomes_unhealthy_after_threshold
FNDA:0,_RNvXCs8HdjwPPPNPq_9lb_healthNtB2_12HealthStatusNtNtCs2va5m0jqTTM_4core3fmt7Display3fmt
FNF:11
FNH:0
DA:30,0
DA:31,0
DA:32,0
DA:33,0
DA:34,0
DA:36,0
DA:70,0
DA:71,0
DA:72,0
DA:74,0
DA:76,0
DA:77,0
DA:79,0
DA:81,0
DA:82,0
DA:83,0
DA:84,0
DA:85,0
DA:86,0
DA:87,0
DA:88,0
DA:91,0
DA:92,0
DA:93,0
DA:94,0
DA:95,0
DA:96,0
DA:97,0
DA:100,0
DA:101,0
DA:102,0
DA:103,0
DA:104,0
DA:105,0
DA:106,0
DA:110,0
DA:111,0
DA:112,0
DA:120,0
DA:121,0
DA:122,0
DA:123,0
DA:126,0
DA:127,0
DA:128,0
DA:129,0
DA:130,0
DA:131,0
DA:132,0
DA:133,0
DA:136,0
DA:137,0
DA:138,0
DA:139,0
DA:140,0
DA:141,0
DA:142,0
DA:145,0
DA:146,0
DA:147,0
DA:148,0
DA:149,0
DA:150,0
DA:151,0
DA:152,0
DA:155,0
DA:156,0
DA:157,0
DA:158,0
DA:159,0
DA:162,0
DA:163,0
DA:164,0
DA:165,0
DA:167,0
DA:168,0
DA:171,0
DA:172,0
DA:173,0
DA:174,0
BRF:0
BRH:0
LF:80
LH:0
end_of_record
SF:/home/ubuntu/Code/ExpressGateway/.claude/worktrees/s15-builder/crates/lb-io/src/dns.rs
FN:241,_RNCNCNvMs4_NtCskzoFXwmdkFh_5lb_io3dnsNtB9_11DnsResolver7resolve00Bb_
FN:235,_RNCNvMs4_NtCskzoFXwmdkFh_5lb_io3dnsNtB7_11DnsResolver7resolve0B9_
FN:136,_RINvXs0_NtCskzoFXwmdkFh_5lb_io3dnsNtB6_8CacheKeyNtNtCs2va5m0jqTTM_4core4hash4Hash4hashNtNtNtCs3kAxCWUtVg2_3std4hash6random13DefaultHasherEB8_
FN:283,_RNCNCNCNCNvMs4_NtCskzoFXwmdkFh_5lb_io3dnsNtBd_11DnsResolver15fill_and_return0000Bf_
FN:281,_RNCNCNCNvMs4_NtCskzoFXwmdkFh_5lb_io3dnsNtBb_11DnsResolver15fill_and_return000Bd_
FN:358,_RNCNCNvMs4_NtCskzoFXwmdkFh_5lb_io3dnsNtB9_11DnsResolver11refresh_all00Bb_
FN:305,_RNCNCNvMs4_NtCskzoFXwmdkFh_5lb_io3dnsNtB9_11DnsResolver15fill_and_return00Bb_
FN:354,_RNCNvMs4_NtCskzoFXwmdkFh_5lb_io3dnsNtB7_11DnsResolver11refresh_all0B9_
FN:273,_RNCNvMs4_NtCskzoFXwmdkFh_5lb_io3dnsNtB7_11DnsResolver15fill_and_return0B9_
FN:337,_RNCNvMs4_NtCskzoFXwmdkFh_5lb_io3dnsNtB7_11DnsResolver24spawn_background_refresh0B9_
FN:340,_RNCNvMs4_NtCskzoFXwmdkFh_5lb_io3dnsNtB7_11DnsResolver24spawn_background_refreshs_0B9_
FN:143,_RNvMs1_NtCskzoFXwmdkFh_5lb_io3dnsNtB5_8CacheKey8from_ref
FN:219,_RNvMs4_NtCskzoFXwmdkFh_5lb_io3dnsNtB5_11DnsResolver10cache_size
FN:311,_RNvMs4_NtCskzoFXwmdkFh_5lb_io3dnsNtB5_11DnsResolver11materialize
FN:354,_RNvMs4_NtCskzoFXwmdkFh_5lb_io3dnsNtB5_11DnsResolver11refresh_all
FN:206,_RNvMs4_NtCskzoFXwmdkFh_5lb_io3dnsNtB5_11DnsResolver13with_resolver
FN:268,_RNvMs4_NtCskzoFXwmdkFh_5lb_io3dnsNtB5_11DnsResolver15fill_and_return
FN:328,_RNvMs4_NtCskzoFXwmdkFh_5lb_io3dnsNtB5_11DnsResolver24spawn_background_refresh
FN:193,_RNvMs4_NtCskzoFXwmdkFh_5lb_io3dnsNtB5_11DnsResolver3new
FN:235,_RNvMs4_NtCskzoFXwmdkFh_5lb_io3dnsNtB5_11DnsResolver7resolve
FN:118,_RNvMs_NtCskzoFXwmdkFh_5lb_io3dnsNtB4_10CacheEntry10is_expired
FN:122,_RNvMs_NtCskzoFXwmdkFh_5lb_io3dnsNtB4_10CacheEntry11set_expires
FN:111,_RNvMs_NtCskzoFXwmdkFh_5lb_io3dnsNtB4_10CacheEntry3new
FN:367,_RNvNtCskzoFXwmdkFh_5lb_io3dns13io_err_to_dns
FN:157,_RNvNtCskzoFXwmdkFh_5lb_io3dns15system_resolver
FN:66,_RNvXNtCskzoFXwmdkFh_5lb_io3dnsNtB2_14ResolverConfigNtNtCs2va5m0jqTTM_4core7default7Default7default
FN:176,_RNvXs2_NtCskzoFXwmdkFh_5lb_io3dnsNtB5_11DnsResolverNtNtCs2va5m0jqTTM_4core3fmt5Debug3fmt
FN:185,_RNvXs3_NtCskzoFXwmdkFh_5lb_io3dnsNtB5_11DnsResolverNtNtCs2va5m0jqTTM_4core7default7Default7default
FN:241,_RNCNCNvMs4_NtCskzoFXwmdkFh_5lb_io3dnsNtB9_11DnsResolver7resolve00Cs4A7o14EwR5Q_14expressgateway
FN:235,_RNCNvMs4_NtCskzoFXwmdkFh_5lb_io3dnsNtB7_11DnsResolver7resolve0Cs4A7o14EwR5Q_14expressgateway
FN:450,_RNCNCNvNtNtCsipEsb16Xo5l_5lb_io3dns5testss_30negative_entry_caches_nxdomain00B9_
FN:488,_RNCNCNvNtNtCsipEsb16Xo5l_5lb_io3dns5testss_32concurrent_resolvers_share_cache00B9_
FN:500,_RNCNCNvNtNtCsipEsb16Xo5l_5lb_io3dns5testss_32concurrent_resolvers_share_cache0s_0B9_
FN:395,_RNCNvNtNtCsipEsb16Xo5l_5lb_io3dns5tests17counting_resolver0B7_
FN:515,_RNCNvNtNtCsipEsb16Xo5l_5lb_io3dns5testss_25cache_size_tracks_entries0B7_
FN:423,_RNCNvNtNtCsipEsb16Xo5l_5lb_io3dns5testss_29positive_entry_expires_at_cap0B7_
FN:445,_RNCNvNtNtCsipEsb16Xo5l_5lb_io3dns5testss_30negative_entry_caches_nxdomain0B7_
FN:525,_RNCNvNtNtCsipEsb16Xo5l_5lb_io3dns5testss_30refresh_all_re_queries_entries0B7_
FN:482,_RNCNvNtNtCsipEsb16Xo5l_5lb_io3dns5testss_32concurrent_resolvers_share_cache0B7_
FN:406,_RNCNvNtNtCsipEsb16Xo5l_5lb_io3dns5testss_40cache_hit_returns_same_result_before_ttl0B7_
FN:394,_RNvNtNtCsipEsb16Xo5l_5lb_io3dns5tests17counting_resolver
FN:401,_RNvNtNtCsipEsb16Xo5l_5lb_io3dns5tests4addr
FN:547,_RNvNtNtCsipEsb16Xo5l_5lb_io3dns5testss_24resolver_config_defaults
FN:515,_RNvNtNtCsipEsb16Xo5l_5lb_io3dns5testss_25cache_size_tracks_entries
FN:423,_RNvNtNtCsipEsb16Xo5l_5lb_io3dns5testss_29positive_entry_expires_at_cap
FN:445,_RNvNtNtCsipEsb16Xo5l_5lb_io3dns5testss_30negative_entry_caches_nxdomain
FN:525,_RNvNtNtCsipEsb16Xo5l_5lb_io3dns5testss_30refresh_all_re_queries_entries
FN:482,_RNvNtNtCsipEsb16Xo5l_5lb_io3dns5testss_32concurrent_resolvers_share_cache
FN:406,_RNvNtNtCsipEsb16Xo5l_5lb_io3dns5testss_40cache_hit_returns_same_result_before_ttl
FN:537,_RNvNtNtCsipEsb16Xo5l_5lb_io3dns5testss_46io_err_mapped_to_nxdomain_for_getaddrinfo_text
FN:337,_RNCNvMs4_NtCsipEsb16Xo5l_5lb_io3dnsNtB7_11DnsResolver24spawn_background_refresh0B9_
FN:340,_RNCNvMs4_NtCsipEsb16Xo5l_5lb_io3dnsNtB7_11DnsResolver24spawn_background_refreshs_0B9_
FN:328,_RNvMs4_NtCsipEsb16Xo5l_5lb_io3dnsNtB5_11DnsResolver24spawn_background_refresh
FN:193,_RNvMs4_NtCsipEsb16Xo5l_5lb_io3dnsNtB5_11DnsResolver3new
FN:157,_RNvNtCsipEsb16Xo5l_5lb_io3dns15system_resolver
FN:176,_RNvXs2_NtCsipEsb16Xo5l_5lb_io3dnsNtB5_11DnsResolverNtNtCs2va5m0jqTTM_4core3fmt5Debug3fmt
FN:185,_RNvXs3_NtCsipEsb16Xo5l_5lb_io3dnsNtB5_11DnsResolverNtNtCs2va5m0jqTTM_4core7default7Default7default
FN:136,_RINvXs0_NtCsipEsb16Xo5l_5lb_io3dnsNtB6_8CacheKeyNtNtCs2va5m0jqTTM_4core4hash4Hash4hashNtNtNtCs3kAxCWUtVg2_3std4hash6random13DefaultHasherEB8_
FN:283,_RNCNCNCNCNvMs4_NtCsipEsb16Xo5l_5lb_io3dnsNtBd_11DnsResolver15fill_and_return0000Bf_
FN:281,_RNCNCNCNvMs4_NtCsipEsb16Xo5l_5lb_io3dnsNtBb_11DnsResolver15fill_and_return000Bd_
FN:358,_RNCNCNvMs4_NtCsipEsb16Xo5l_5lb_io3dnsNtB9_11DnsResolver11refresh_all00Bb_
FN:305,_RNCNCNvMs4_NtCsipEsb16Xo5l_5lb_io3dnsNtB9_11DnsResolver15fill_and_return00Bb_
FN:241,_RNCNCNvMs4_NtCsipEsb16Xo5l_5lb_io3dnsNtB9_11DnsResolver7resolve00Bb_
FN:354,_RNCNvMs4_NtCsipEsb16Xo5l_5lb_io3dnsNtB7_11DnsResolver11refresh_all0B9_
FN:273,_RNCNvMs4_NtCsipEsb16Xo5l_5lb_io3dnsNtB7_11DnsResolver15fill_and_return0B9_
FN:235,_RNCNvMs4_NtCsipEsb16Xo5l_5lb_io3dnsNtB7_11DnsResolver7resolve0B9_
FN:143,_RNvMs1_NtCsipEsb16Xo5l_5lb_io3dnsNtB5_8CacheKey8from_ref
FN:219,_RNvMs4_NtCsipEsb16Xo5l_5lb_io3dnsNtB5_11DnsResolver10cache_size
FN:311,_RNvMs4_NtCsipEsb16Xo5l_5lb_io3dnsNtB5_11DnsResolver11materialize
FN:354,_RNvMs4_NtCsipEsb16Xo5l_5lb_io3dnsNtB5_11DnsResolver11refresh_all
FN:206,_RNvMs4_NtCsipEsb16Xo5l_5lb_io3dnsNtB5_11DnsResolver13with_resolver
FN:268,_RNvMs4_NtCsipEsb16Xo5l_5lb_io3dnsNtB5_11DnsResolver15fill_and_return
FN:235,_RNvMs4_NtCsipEsb16Xo5l_5lb_io3dnsNtB5_11DnsResolver7resolve
FN:118,_RNvMs_NtCsipEsb16Xo5l_5lb_io3dnsNtB4_10CacheEntry10is_expired
FN:122,_RNvMs_NtCsipEsb16Xo5l_5lb_io3dnsNtB4_10CacheEntry11set_expires
FN:111,_RNvMs_NtCsipEsb16Xo5l_5lb_io3dnsNtB4_10CacheEntry3new
FN:367,_RNvNtCsipEsb16Xo5l_5lb_io3dns13io_err_to_dns
FN:66,_RNvXNtCsipEsb16Xo5l_5lb_io3dnsNtB2_14ResolverConfigNtNtCs2va5m0jqTTM_4core7default7Default7default
FNDA:0,_RNCNCNvMs4_NtCskzoFXwmdkFh_5lb_io3dnsNtB9_11DnsResolver7resolve00Bb_
FNDA:0,_RNCNvMs4_NtCskzoFXwmdkFh_5lb_io3dnsNtB7_11DnsResolver7resolve0B9_
FNDA:0,_RINvXs0_NtCskzoFXwmdkFh_5lb_io3dnsNtB6_8CacheKeyNtNtCs2va5m0jqTTM_4core4hash4Hash4hashNtNtNtCs3kAxCWUtVg2_3std4hash6random13DefaultHasherEB8_
FNDA:0,_RNCNCNCNCNvMs4_NtCskzoFXwmdkFh_5lb_io3dnsNtBd_11DnsResolver15fill_and_return0000Bf_
FNDA:0,_RNCNCNCNvMs4_NtCskzoFXwmdkFh_5lb_io3dnsNtBb_11DnsResolver15fill_and_return000Bd_
FNDA:0,_RNCNCNvMs4_NtCskzoFXwmdkFh_5lb_io3dnsNtB9_11DnsResolver11refresh_all00Bb_
FNDA:0,_RNCNCNvMs4_NtCskzoFXwmdkFh_5lb_io3dnsNtB9_11DnsResolver15fill_and_return00Bb_
FNDA:0,_RNCNvMs4_NtCskzoFXwmdkFh_5lb_io3dnsNtB7_11DnsResolver11refresh_all0B9_
FNDA:0,_RNCNvMs4_NtCskzoFXwmdkFh_5lb_io3dnsNtB7_11DnsResolver15fill_and_return0B9_
FNDA:0,_RNCNvMs4_NtCskzoFXwmdkFh_5lb_io3dnsNtB7_11DnsResolver24spawn_background_refresh0B9_
FNDA:0,_RNCNvMs4_NtCskzoFXwmdkFh_5lb_io3dnsNtB7_11DnsResolver24spawn_background_refreshs_0B9_
FNDA:0,_RNvMs1_NtCskzoFXwmdkFh_5lb_io3dnsNtB5_8CacheKey8from_ref
FNDA:0,_RNvMs4_NtCskzoFXwmdkFh_5lb_io3dnsNtB5_11DnsResolver10cache_size
FNDA:0,_RNvMs4_NtCskzoFXwmdkFh_5lb_io3dnsNtB5_11DnsResolver11materialize
FNDA:0,_RNvMs4_NtCskzoFXwmdkFh_5lb_io3dnsNtB5_11DnsResolver11refresh_all
FNDA:0,_RNvMs4_NtCskzoFXwmdkFh_5lb_io3dnsNtB5_11DnsResolver13with_resolver
FNDA:0,_RNvMs4_NtCskzoFXwmdkFh_5lb_io3dnsNtB5_11DnsResolver15fill_and_return
FNDA:0,_RNvMs4_NtCskzoFXwmdkFh_5lb_io3dnsNtB5_11DnsResolver24spawn_background_refresh
FNDA:0,_RNvMs4_NtCskzoFXwmdkFh_5lb_io3dnsNtB5_11DnsResolver3new
FNDA:0,_RNvMs4_NtCskzoFXwmdkFh_5lb_io3dnsNtB5_11DnsResolver7resolve
FNDA:0,_RNvMs_NtCskzoFXwmdkFh_5lb_io3dnsNtB4_10CacheEntry10is_expired
FNDA:0,_RNvMs_NtCskzoFXwmdkFh_5lb_io3dnsNtB4_10CacheEntry11set_expires
FNDA:0,_RNvMs_NtCskzoFXwmdkFh_5lb_io3dnsNtB4_10CacheEntry3new
FNDA:0,_RNvNtCskzoFXwmdkFh_5lb_io3dns13io_err_to_dns
FNDA:0,_RNvNtCskzoFXwmdkFh_5lb_io3dns15system_resolver
FNDA:0,_RNvXNtCskzoFXwmdkFh_5lb_io3dnsNtB2_14ResolverConfigNtNtCs2va5m0jqTTM_4core7default7Default7default
FNDA:0,_RNvXs2_NtCskzoFXwmdkFh_5lb_io3dnsNtB5_11DnsResolverNtNtCs2va5m0jqTTM_4core3fmt5Debug3fmt
FNDA:0,_RNvXs3_NtCskzoFXwmdkFh_5lb_io3dnsNtB5_11DnsResolverNtNtCs2va5m0jqTTM_4core7default7Default7default
FNDA:0,_RNCNCNvMs4_NtCskzoFXwmdkFh_5lb_io3dnsNtB9_11DnsResolver7resolve00Cs4A7o14EwR5Q_14expressgateway
FNDA:0,_RNCNvMs4_NtCskzoFXwmdkFh_5lb_io3dnsNtB7_11DnsResolver7resolve0Cs4A7o14EwR5Q_14expressgateway
FNDA:0,_RNCNCNvNtNtCsipEsb16Xo5l_5lb_io3dns5testss_30negative_entry_caches_nxdomain00B9_
FNDA:0,_RNCNCNvNtNtCsipEsb16Xo5l_5lb_io3dns5testss_32concurrent_resolvers_share_cache00B9_
FNDA:0,_RNCNCNvNtNtCsipEsb16Xo5l_5lb_io3dns5testss_32concurrent_resolvers_share_cache0s_0B9_
FNDA:0,_RNCNvNtNtCsipEsb16Xo5l_5lb_io3dns5tests17counting_resolver0B7_
FNDA:0,_RNCNvNtNtCsipEsb16Xo5l_5lb_io3dns5testss_25cache_size_tracks_entries0B7_
FNDA:0,_RNCNvNtNtCsipEsb16Xo5l_5lb_io3dns5testss_29positive_entry_expires_at_cap0B7_
FNDA:0,_RNCNvNtNtCsipEsb16Xo5l_5lb_io3dns5testss_30negative_entry_caches_nxdomain0B7_
FNDA:0,_RNCNvNtNtCsipEsb16Xo5l_5lb_io3dns5testss_30refresh_all_re_queries_entries0B7_
FNDA:0,_RNCNvNtNtCsipEsb16Xo5l_5lb_io3dns5testss_32concurrent_resolvers_share_cache0B7_
FNDA:0,_RNCNvNtNtCsipEsb16Xo5l_5lb_io3dns5testss_40cache_hit_returns_same_result_before_ttl0B7_
FNDA:0,_RNvNtNtCsipEsb16Xo5l_5lb_io3dns5tests17counting_resolver
FNDA:0,_RNvNtNtCsipEsb16Xo5l_5lb_io3dns5tests4addr
FNDA:0,_RNvNtNtCsipEsb16Xo5l_5lb_io3dns5testss_24resolver_config_defaults
FNDA:0,_RNvNtNtCsipEsb16Xo5l_5lb_io3dns5testss_25cache_size_tracks_entries
FNDA:0,_RNvNtNtCsipEsb16Xo5l_5lb_io3dns5testss_29positive_entry_expires_at_cap
FNDA:0,_RNvNtNtCsipEsb16Xo5l_5lb_io3dns5testss_30negative_entry_caches_nxdomain
FNDA:0,_RNvNtNtCsipEsb16Xo5l_5lb_io3dns5testss_30refresh_all_re_queries_entries
FNDA:0,_RNvNtNtCsipEsb16Xo5l_5lb_io3dns5testss_32concurrent_resolvers_share_cache
FNDA:0,_RNvNtNtCsipEsb16Xo5l_5lb_io3dns5testss_40cache_hit_returns_same_result_before_ttl
FNDA:0,_RNvNtNtCsipEsb16Xo5l_5lb_io3dns5testss_46io_err_mapped_to_nxdomain_for_getaddrinfo_text
FNDA:0,_RNCNvMs4_NtCsipEsb16Xo5l_5lb_io3dnsNtB7_11DnsResolver24spawn_background_refresh0B9_
FNDA:0,_RNCNvMs4_NtCsipEsb16Xo5l_5lb_io3dnsNtB7_11DnsResolver24spawn_background_refreshs_0B9_
FNDA:0,_RNvMs4_NtCsipEsb16Xo5l_5lb_io3dnsNtB5_11DnsResolver24spawn_background_refresh
FNDA:0,_RNvMs4_NtCsipEsb16Xo5l_5lb_io3dnsNtB5_11DnsResolver3new
FNDA:0,_RNvNtCsipEsb16Xo5l_5lb_io3dns15system_resolver
FNDA:0,_RNvXs2_NtCsipEsb16Xo5l_5lb_io3dnsNtB5_11DnsResolverNtNtCs2va5m0jqTTM_4core3fmt5Debug3fmt
FNDA:0,_RNvXs3_NtCsipEsb16Xo5l_5lb_io3dnsNtB5_11DnsResolverNtNtCs2va5m0jqTTM_4core7default7Default7default
FNDA:0,_RINvXs0_NtCsipEsb16Xo5l_5lb_io3dnsNtB6_8CacheKeyNtNtCs2va5m0jqTTM_4core4hash4Hash4hashNtNtNtCs3kAxCWUtVg2_3std4hash6random13DefaultHasherEB8_
FNDA:0,_RNCNCNCNCNvMs4_NtCsipEsb16Xo5l_5lb_io3dnsNtBd_11DnsResolver15fill_and_return0000Bf_
FNDA:0,_RNCNCNCNvMs4_NtCsipEsb16Xo5l_5lb_io3dnsNtBb_11DnsResolver15fill_and_return000Bd_
FNDA:0,_RNCNCNvMs4_NtCsipEsb16Xo5l_5lb_io3dnsNtB9_11DnsResolver11refresh_all00Bb_
FNDA:0,_RNCNCNvMs4_NtCsipEsb16Xo5l_5lb_io3dnsNtB9_11DnsResolver15fill_and_return00Bb_
FNDA:0,_RNCNCNvMs4_NtCsipEsb16Xo5l_5lb_io3dnsNtB9_11DnsResolver7resolve00Bb_
FNDA:0,_RNCNvMs4_NtCsipEsb16Xo5l_5lb_io3dnsNtB7_11DnsResolver11refresh_all0B9_
FNDA:0,_RNCNvMs4_NtCsipEsb16Xo5l_5lb_io3dnsNtB7_11DnsResolver15fill_and_return0B9_
FNDA:0,_RNCNvMs4_NtCsipEsb16Xo5l_5lb_io3dnsNtB7_11DnsResolver7resolve0B9_
FNDA:0,_RNvMs1_NtCsipEsb16Xo5l_5lb_io3dnsNtB5_8CacheKey8from_ref
FNDA:0,_RNvMs4_NtCsipEsb16Xo5l_5lb_io3dnsNtB5_11DnsResolver10cache_size
FNDA:0,_RNvMs4_NtCsipEsb16Xo5l_5lb_io3dnsNtB5_11DnsResolver11materialize
FNDA:0,_RNvMs4_NtCsipEsb16Xo5l_5lb_io3dnsNtB5_11DnsResolver11refresh_all
FNDA:0,_RNvMs4_NtCsipEsb16Xo5l_5lb_io3dnsNtB5_11DnsResolver13with_resolver
FNDA:0,_RNvMs4_NtCsipEsb16Xo5l_5lb_io3dnsNtB5_11DnsResolver15fill_and_return
FNDA:0,_RNvMs4_NtCsipEsb16Xo5l_5lb_io3dnsNtB5_11DnsResolver7resolve
FNDA:0,_RNvMs_NtCsipEsb16Xo5l_5lb_io3dnsNtB4_10CacheEntry10is_expired
FNDA:0,_RNvMs_NtCsipEsb16Xo5l_5lb_io3dnsNtB4_10CacheEntry11set_expires
FNDA:0,_RNvMs_NtCsipEsb16Xo5l_5lb_io3dnsNtB4_10CacheEntry3new
FNDA:0,_RNvNtCsipEsb16Xo5l_5lb_io3dns13io_err_to_dns
FNDA:0,_RNvXNtCsipEsb16Xo5l_5lb_io3dnsNtB2_14ResolverConfigNtNtCs2va5m0jqTTM_4core7default7Default7default
FNF:48
FNH:0
DA:66,0
DA:67,0
DA:68,0
DA:69,0
DA:70,0
DA:71,0
DA:72,0
DA:111,0
DA:112,0
DA:113,0
DA:114,0
DA:115,0
DA:116,0
DA:118,0
DA:119,0
DA:120,0
DA:122,0
DA:123,0
DA:124,0
DA:136,0
DA:137,0
DA:138,0
DA:139,0
DA:143,0
DA:144,0
DA:145,0
DA:146,0
DA:147,0
DA:148,0
DA:157,0
DA:158,0
DA:159,0
DA:160,0
DA:176,0
DA:177,0
DA:178,0
DA:179,0
DA:180,0
DA:181,0
DA:185,0
DA:186,0
DA:187,0
DA:193,0
DA:194,0
DA:195,0
DA:196,0
DA:197,0
DA:198,0
DA:199,0
DA:200,0
DA:201,0
DA:202,0
DA:206,0
DA:207,0
DA:208,0
DA:209,0
DA:210,0
DA:211,0
DA:212,0
DA:213,0
DA:214,0
DA:215,0
DA:219,0
DA:220,0
DA:221,0
DA:235,0
DA:236,0
DA:237,0
DA:238,0
DA:239,0
DA:240,0
DA:241,0
DA:242,0
DA:243,0
DA:244,0
DA:245,0
DA:246,0
DA:247,0
DA:248,0
DA:249,0
DA:250,0
DA:251,0
DA:252,0
DA:253,0
DA:254,0
DA:260,0
DA:261,0
DA:262,0
DA:263,0
DA:264,0
DA:265,0
DA:266,0
DA:268,0
DA:269,0
DA:270,0
DA:271,0
DA:272,0
DA:273,0
DA:274,0
DA:275,0
DA:276,0
DA:277,0
DA:279,0
DA:280,0
DA:281,0
DA:282,0
DA:283,0
DA:285,0
DA:286,0
DA:287,0
DA:288,0
DA:289,0
DA:290,0
DA:291,0
DA:292,0
DA:293,0
DA:294,0
DA:296,0
DA:299,0
DA:300,0
DA:301,0
DA:303,0
DA:304,0
DA:305,0
DA:306,0
DA:308,0
DA:309,0
DA:311,0
DA:312,0
DA:313,0
DA:314,0
DA:315,0
DA:316,0
DA:317,0
DA:318,0
DA:320,0
DA:328,0
DA:329,0
DA:330,0
DA:331,0
DA:332,0
DA:333,0
DA:334,0
DA:335,0
DA:337,0
DA:338,0
DA:339,0
DA:340,0
DA:341,0
DA:342,0
DA:343,0
DA:344,0
DA:346,0
DA:347,0
DA:349,0
DA:350,0
DA:354,0
DA:355,0
DA:356,0
DA:357,0
DA:358,0
DA:359,0
DA:360,0
DA:361,0
DA:362,0
DA:364,0
DA:367,0
DA:368,0
DA:369,0
DA:370,0
DA:371,0
DA:372,0
DA:373,0
DA:374,0
DA:375,0
DA:376,0
DA:377,0
DA:378,0
DA:380,0
DA:381,0
DA:382,0
DA:383,0
DA:385,0
DA:394,0
DA:395,0
DA:396,0
DA:397,0
DA:398,0
DA:399,0
DA:401,0
DA:402,0
DA:403,0
DA:406,0
DA:407,0
DA:408,0
DA:409,0
DA:410,0
DA:411,0
DA:412,0
DA:413,0
DA:414,0
DA:415,0
DA:416,0
DA:417,0
DA:418,0
DA:419,0
DA:420,0
DA:423,0
DA:424,0
DA:425,0
DA:426,0
DA:427,0
DA:428,0
DA:429,0
DA:430,0
DA:431,0
DA:432,0
DA:433,0
DA:434,0
DA:435,0
DA:436,0
DA:437,0
DA:438,0
DA:439,0
DA:440,0
DA:441,0
DA:442,0
DA:445,0
DA:446,0
DA:447,0
DA:448,0
DA:449,0
DA:450,0
DA:451,0
DA:452,0
DA:453,0
DA:454,0
DA:455,0
DA:456,0
DA:457,0
DA:458,0
DA:459,0
DA:460,0
DA:461,0
DA:462,0
DA:463,0
DA:464,0
DA:465,0
DA:466,0
DA:467,0
DA:468,0
DA:469,0
DA:470,0
DA:471,0
DA:472,0
DA:473,0
DA:474,0
DA:475,0
DA:476,0
DA:477,0
DA:478,0
DA:479,0
DA:482,0
DA:483,0
DA:484,0
DA:485,0
DA:486,0
DA:487,0
DA:488,0
DA:489,0
DA:490,0
DA:491,0
DA:492,0
DA:493,0
DA:494,0
DA:495,0
DA:496,0
DA:497,0
DA:498,0
DA:499,0
DA:500,0
DA:501,0
DA:502,0
DA:503,0
DA:504,0
DA:505,0
DA:506,0
DA:507,0
DA:508,0
DA:509,0
DA:510,0
DA:511,0
DA:512,0
DA:515,0
DA:516,0
DA:517,0
DA:518,0
DA:519,0
DA:520,0
DA:521,0
DA:522,0
DA:525,0
DA:526,0
DA:527,0
DA:528,0
DA:529,0
DA:530,0
DA:531,0
DA:532,0
DA:533,0
DA:534,0
DA:537,0
DA:538,0
DA:539,0
DA:540,0
DA:541,0
DA:544,0
DA:547,0
DA:548,0
DA:549,0
DA:550,0
DA:551,0
DA:552,0
BRF:0
BRH:0
LF:440
LH:0
end_of_record
SF:/home/ubuntu/Code/ExpressGateway/.claude/worktrees/s15-builder/crates/lb-io/src/http2_pool.rs
FN:305,_RNCNvMs2_NtCskzoFXwmdkFh_5lb_io10http2_poolNtB7_9Http2Pool17send_request_idle0Cs3aqnWZMHlPP_5lb_l7
FN:423,_RNCNCNvMs2_NtCskzoFXwmdkFh_5lb_io10http2_poolNtB9_9Http2Pool18dial_and_handshake00Cs6AViLBCwg8R_7lb_quic
FN:441,_RNCNCNvMs2_NtCskzoFXwmdkFh_5lb_io10http2_poolNtB9_9Http2Pool18dial_and_handshake0s0_0Cs6AViLBCwg8R_7lb_quic
FN:439,_RNCNCNvMs2_NtCskzoFXwmdkFh_5lb_io10http2_poolNtB9_9Http2Pool18dial_and_handshake0s_0Cs6AViLBCwg8R_7lb_quic
FN:232,_RNCNvMs2_NtCskzoFXwmdkFh_5lb_io10http2_poolNtB7_9Http2Pool12send_request0Cs6AViLBCwg8R_7lb_quic
FN:347,_RNCNvMs2_NtCskzoFXwmdkFh_5lb_io10http2_poolNtB7_9Http2Pool14acquire_sender0Cs6AViLBCwg8R_7lb_quic
FN:416,_RNCNvMs2_NtCskzoFXwmdkFh_5lb_io10http2_poolNtB7_9Http2Pool18dial_and_handshake0Cs6AViLBCwg8R_7lb_quic
FN:197,_RNvMs2_NtCskzoFXwmdkFh_5lb_io10http2_poolNtB5_9Http2Pool10peer_count
FN:406,_RNvMs2_NtCskzoFXwmdkFh_5lb_io10http2_poolNtB5_9Http2Pool10reset_peer
FN:228,_RNvMs2_NtCskzoFXwmdkFh_5lb_io10http2_poolNtB5_9Http2Pool12send_request
FN:372,_RNvMs2_NtCskzoFXwmdkFh_5lb_io10http2_poolNtB5_9Http2Pool13replace_entry
FN:344,_RNvMs2_NtCskzoFXwmdkFh_5lb_io10http2_poolNtB5_9Http2Pool14acquire_sender
FN:296,_RNvMs2_NtCskzoFXwmdkFh_5lb_io10http2_poolNtB5_9Http2Pool17send_request_idle
FN:360,_RNvMs2_NtCskzoFXwmdkFh_5lb_io10http2_poolNtB5_9Http2Pool17take_alive_sender
FN:413,_RNvMs2_NtCskzoFXwmdkFh_5lb_io10http2_poolNtB5_9Http2Pool18dial_and_handshake
FN:185,_RNvMs2_NtCskzoFXwmdkFh_5lb_io10http2_poolNtB5_9Http2Pool3new
FN:377,_RNvMs2_NtCskzoFXwmdkFh_5lb_io10http2_poolNtB5_9Http2Pool5evict
FN:128,_RNvMs_NtCskzoFXwmdkFh_5lb_io10http2_poolNtB4_9PeerEntry8is_alive
FN:456,_RNvNtCskzoFXwmdkFh_5lb_io10http2_pool20collect_body_bounded
FN:110,_RNvXNtCskzoFXwmdkFh_5lb_io10http2_poolNtB2_15Http2PoolConfigNtNtCs2va5m0jqTTM_4core7default7Default7default
FN:134,_RNvXs0_NtCskzoFXwmdkFh_5lb_io10http2_poolNtB5_9PeerEntryNtNtNtCs2va5m0jqTTM_4core3ops4drop4Drop4drop
FN:172,_RNvXs1_NtCskzoFXwmdkFh_5lb_io10http2_poolNtB5_9Http2PoolNtNtCs2va5m0jqTTM_4core3fmt5Debug3fmt
FN:423,_RNCNCNvMs2_NtCskzoFXwmdkFh_5lb_io10http2_poolNtB9_9Http2Pool18dial_and_handshake00Bb_
FN:441,_RNCNCNvMs2_NtCskzoFXwmdkFh_5lb_io10http2_poolNtB9_9Http2Pool18dial_and_handshake0s0_0Bb_
FN:439,_RNCNCNvMs2_NtCskzoFXwmdkFh_5lb_io10http2_poolNtB9_9Http2Pool18dial_and_handshake0s_0Bb_
FN:460,_RNCNCNvNtCskzoFXwmdkFh_5lb_io10http2_pool20collect_body_bounded00B7_
FN:232,_RNCNvMs2_NtCskzoFXwmdkFh_5lb_io10http2_poolNtB7_9Http2Pool12send_request0B9_
FN:347,_RNCNvMs2_NtCskzoFXwmdkFh_5lb_io10http2_poolNtB7_9Http2Pool14acquire_sender0B9_
FN:305,_RNCNvMs2_NtCskzoFXwmdkFh_5lb_io10http2_poolNtB7_9Http2Pool17send_request_idle0B9_
FN:416,_RNCNvMs2_NtCskzoFXwmdkFh_5lb_io10http2_poolNtB7_9Http2Pool18dial_and_handshake0B9_
FN:456,_RNCNvNtCskzoFXwmdkFh_5lb_io10http2_pool20collect_body_bounded0B5_
FN:568,_RINvNtNtCsipEsb16Xo5l_5lb_io10http2_pool5tests16spawn_h2_backendNCNCNvB2_s_29send_request_idle_success_arm00NCNCB12_00EB6_
FN:568,_RINvNtNtCsipEsb16Xo5l_5lb_io10http2_pool5tests16spawn_h2_backendNCNCNvB2_s_34send_request_idle_head_timeout_arm00NCNCB12_00EB6_
FN:568,_RINvNtNtCsipEsb16Xo5l_5lb_io10http2_pool5tests16spawn_h2_backendNCNCNvB2_s_34send_request_idle_idle_timeout_arm00NCNCB12_00EB6_
FN:575,_RNCINvNtNtCsipEsb16Xo5l_5lb_io10http2_pool5tests16spawn_h2_backendNCNCNvB4_s_29send_request_idle_success_arm00NCNCB14_00E0B8_
FN:575,_RNCINvNtNtCsipEsb16Xo5l_5lb_io10http2_pool5tests16spawn_h2_backendNCNCNvB4_s_34send_request_idle_head_timeout_arm00NCNCB14_00E0B8_
FN:575,_RNCINvNtNtCsipEsb16Xo5l_5lb_io10http2_pool5tests16spawn_h2_backendNCNCNvB4_s_34send_request_idle_idle_timeout_arm00NCNCB14_00E0B8_
FN:582,_RNCNCINvNtNtCsipEsb16Xo5l_5lb_io10http2_pool5tests16spawn_h2_backendNCNCNvB6_s_29send_request_idle_success_arm00NCNCB16_00E00Ba_
FN:582,_RNCNCINvNtNtCsipEsb16Xo5l_5lb_io10http2_pool5tests16spawn_h2_backendNCNCNvB6_s_34send_request_idle_head_timeout_arm00NCNCB16_00E00Ba_
FN:582,_RNCNCINvNtNtCsipEsb16Xo5l_5lb_io10http2_pool5tests16spawn_h2_backendNCNCNvB6_s_34send_request_idle_idle_timeout_arm00NCNCB16_00E00Ba_
FN:588,_RNCNCNCINvNtNtCsipEsb16Xo5l_5lb_io10http2_pool5tests16spawn_h2_backendNCNCNvB8_s_29send_request_idle_success_arm00NCNCB18_00E000Bc_
FN:588,_RNCNCNCINvNtNtCsipEsb16Xo5l_5lb_io10http2_pool5tests16spawn_h2_backendNCNCNvB8_s_34send_request_idle_head_timeout_arm00NCNCB18_00E000Bc_
FN:588,_RNCNCNCINvNtNtCsipEsb16Xo5l_5lb_io10http2_pool5tests16spawn_h2_backendNCNCNvB8_s_34send_request_idle_idle_timeout_arm00NCNCB18_00E000Bc_
FN:592,_RNCNCNCNCINvNtNtCsipEsb16Xo5l_5lb_io10http2_pool5tests16spawn_h2_backendNCNCNvBa_s_29send_request_idle_success_arm00NCNCB1a_00E0000Be_
FN:592,_RNCNCNCNCINvNtNtCsipEsb16Xo5l_5lb_io10http2_pool5tests16spawn_h2_backendNCNCNvBa_s_34send_request_idle_head_timeout_arm00NCNCB1a_00E0000Be_
FN:592,_RNCNCNCNCINvNtNtCsipEsb16Xo5l_5lb_io10http2_pool5tests16spawn_h2_backendNCNCNvBa_s_34send_request_idle_idle_timeout_arm00NCNCB1a_00E0000Be_
FN:594,_RNCNCNCNCNCINvNtNtCsipEsb16Xo5l_5lb_io10http2_pool5tests16spawn_h2_backendNCNCNvBc_s_29send_request_idle_success_arm00NCNCB1c_00E00000Bg_
FN:594,_RNCNCNCNCNCINvNtNtCsipEsb16Xo5l_5lb_io10http2_pool5tests16spawn_h2_backendNCNCNvBc_s_34send_request_idle_head_timeout_arm00NCNCB1c_00E00000Bg_
FN:594,_RNCNCNCNCNCINvNtNtCsipEsb16Xo5l_5lb_io10http2_pool5tests16spawn_h2_backendNCNCNvBc_s_34send_request_idle_idle_timeout_arm00NCNCB1c_00E00000Bg_
FN:640,_RNCNCNCNvNtNtCsipEsb16Xo5l_5lb_io10http2_pool5testss_29send_request_idle_success_arm000Bb_
FN:674,_RNCNCNCNvNtNtCsipEsb16Xo5l_5lb_io10http2_pool5testss_34send_request_idle_head_timeout_arm000Bb_
FN:712,_RNCNCNCNvNtNtCsipEsb16Xo5l_5lb_io10http2_pool5testss_34send_request_idle_idle_timeout_arm000Bb_
FN:647,_RNCNCNvNtNtCsipEsb16Xo5l_5lb_io10http2_pool5testss_29send_request_idle_success_arm00B9_
FN:534,_RNCNCNvNtNtCsipEsb16Xo5l_5lb_io10http2_pool5testss_33send_request_idle_dial_fail_smoke00B9_
FN:679,_RNCNCNvNtNtCsipEsb16Xo5l_5lb_io10http2_pool5testss_34send_request_idle_head_timeout_arm00B9_
FN:715,_RNCNCNvNtNtCsipEsb16Xo5l_5lb_io10http2_pool5testss_34send_request_idle_idle_timeout_arm00B9_
FN:625,_RNCNvNtNtCsipEsb16Xo5l_5lb_io10http2_pool5tests13empty_request0B7_
FN:638,_RNCNvNtNtCsipEsb16Xo5l_5lb_io10http2_pool5testss_29send_request_idle_success_arm0B7_
FN:512,_RNCNvNtNtCsipEsb16Xo5l_5lb_io10http2_pool5testss_33send_request_idle_dial_fail_smoke0B7_
FN:673,_RNCNvNtNtCsipEsb16Xo5l_5lb_io10http2_pool5testss_34send_request_idle_head_timeout_arm0B7_
FN:711,_RNCNvNtNtCsipEsb16Xo5l_5lb_io10http2_pool5testss_34send_request_idle_idle_timeout_arm0B7_
FN:619,_RNvNtNtCsipEsb16Xo5l_5lb_io10http2_pool5tests13empty_request
FN:604,_RNvNtNtCsipEsb16Xo5l_5lb_io10http2_pool5tests17tcp_pool_for_test
FN:487,_RNvNtNtCsipEsb16Xo5l_5lb_io10http2_pool5testss_17pool_starts_empty
FN:638,_RNvNtNtCsipEsb16Xo5l_5lb_io10http2_pool5testss_29send_request_idle_success_arm
FN:477,_RNvNtNtCsipEsb16Xo5l_5lb_io10http2_pool5testss_32defaults_match_documented_values
FN:512,_RNvNtNtCsipEsb16Xo5l_5lb_io10http2_pool5testss_33send_request_idle_dial_fail_smoke
FN:673,_RNvNtNtCsipEsb16Xo5l_5lb_io10http2_pool5testss_34send_request_idle_head_timeout_arm
FN:711,_RNvNtNtCsipEsb16Xo5l_5lb_io10http2_pool5testss_34send_request_idle_idle_timeout_arm
FN:423,_RNCNCNvMs2_NtCsipEsb16Xo5l_5lb_io10http2_poolNtB9_9Http2Pool18dial_and_handshake00Bb_
FN:441,_RNCNCNvMs2_NtCsipEsb16Xo5l_5lb_io10http2_poolNtB9_9Http2Pool18dial_and_handshake0s0_0Bb_
FN:439,_RNCNCNvMs2_NtCsipEsb16Xo5l_5lb_io10http2_poolNtB9_9Http2Pool18dial_and_handshake0s_0Bb_
FN:347,_RNCNvMs2_NtCsipEsb16Xo5l_5lb_io10http2_poolNtB7_9Http2Pool14acquire_sender0B9_
FN:305,_RNCNvMs2_NtCsipEsb16Xo5l_5lb_io10http2_poolNtB7_9Http2Pool17send_request_idle0B9_
FN:416,_RNCNvMs2_NtCsipEsb16Xo5l_5lb_io10http2_poolNtB7_9Http2Pool18dial_and_handshake0B9_
FN:197,_RNvMs2_NtCsipEsb16Xo5l_5lb_io10http2_poolNtB5_9Http2Pool10peer_count
FN:372,_RNvMs2_NtCsipEsb16Xo5l_5lb_io10http2_poolNtB5_9Http2Pool13replace_entry
FN:344,_RNvMs2_NtCsipEsb16Xo5l_5lb_io10http2_poolNtB5_9Http2Pool14acquire_sender
FN:296,_RNvMs2_NtCsipEsb16Xo5l_5lb_io10http2_poolNtB5_9Http2Pool17send_request_idle
FN:360,_RNvMs2_NtCsipEsb16Xo5l_5lb_io10http2_poolNtB5_9Http2Pool17take_alive_sender
FN:413,_RNvMs2_NtCsipEsb16Xo5l_5lb_io10http2_poolNtB5_9Http2Pool18dial_and_handshake
FN:185,_RNvMs2_NtCsipEsb16Xo5l_5lb_io10http2_poolNtB5_9Http2Pool3new
FN:377,_RNvMs2_NtCsipEsb16Xo5l_5lb_io10http2_poolNtB5_9Http2Pool5evict
FN:128,_RNvMs_NtCsipEsb16Xo5l_5lb_io10http2_poolNtB4_9PeerEntry8is_alive
FN:110,_RNvXNtCsipEsb16Xo5l_5lb_io10http2_poolNtB2_15Http2PoolConfigNtNtCs2va5m0jqTTM_4core7default7Default7default
FN:134,_RNvXs0_NtCsipEsb16Xo5l_5lb_io10http2_poolNtB5_9PeerEntryNtNtNtCs2va5m0jqTTM_4core3ops4drop4Drop4drop
FN:460,_RNCNCNvNtCsipEsb16Xo5l_5lb_io10http2_pool20collect_body_bounded00B7_
FN:232,_RNCNvMs2_NtCsipEsb16Xo5l_5lb_io10http2_poolNtB7_9Http2Pool12send_request0B9_
FN:456,_RNCNvNtCsipEsb16Xo5l_5lb_io10http2_pool20collect_body_bounded0B5_
FN:406,_RNvMs2_NtCsipEsb16Xo5l_5lb_io10http2_poolNtB5_9Http2Pool10reset_peer
FN:228,_RNvMs2_NtCsipEsb16Xo5l_5lb_io10http2_poolNtB5_9Http2Pool12send_request
FN:456,_RNvNtCsipEsb16Xo5l_5lb_io10http2_pool20collect_body_bounded
FN:172,_RNvXs1_NtCsipEsb16Xo5l_5lb_io10http2_poolNtB5_9Http2PoolNtNtCs2va5m0jqTTM_4core3fmt5Debug3fmt
FN:305,_RNCNvMs2_NtCskzoFXwmdkFh_5lb_io10http2_poolNtB7_9Http2Pool17send_request_idle0CsahEFUsRJKn_5lb_l7
FN:423,_RNCNCNvMs2_NtCskzoFXwmdkFh_5lb_io10http2_poolNtB9_9Http2Pool18dial_and_handshake00Cs55RPzE5gwp1_7lb_quic
FN:441,_RNCNCNvMs2_NtCskzoFXwmdkFh_5lb_io10http2_poolNtB9_9Http2Pool18dial_and_handshake0s0_0Cs55RPzE5gwp1_7lb_quic
FN:439,_RNCNCNvMs2_NtCskzoFXwmdkFh_5lb_io10http2_poolNtB9_9Http2Pool18dial_and_handshake0s_0Cs55RPzE5gwp1_7lb_quic
FN:232,_RNCNvMs2_NtCskzoFXwmdkFh_5lb_io10http2_poolNtB7_9Http2Pool12send_request0Cs55RPzE5gwp1_7lb_quic
FN:347,_RNCNvMs2_NtCskzoFXwmdkFh_5lb_io10http2_poolNtB7_9Http2Pool14acquire_sender0Cs55RPzE5gwp1_7lb_quic
FN:416,_RNCNvMs2_NtCskzoFXwmdkFh_5lb_io10http2_poolNtB7_9Http2Pool18dial_and_handshake0Cs55RPzE5gwp1_7lb_quic
FN:423,_RNCNCNvMs2_NtCskzoFXwmdkFh_5lb_io10http2_poolNtB9_9Http2Pool18dial_and_handshake00Cs9KdHnaECcGB_20round8_body_overread
FN:441,_RNCNCNvMs2_NtCskzoFXwmdkFh_5lb_io10http2_poolNtB9_9Http2Pool18dial_and_handshake0s0_0Cs9KdHnaECcGB_20round8_body_overread
FN:439,_RNCNCNvMs2_NtCskzoFXwmdkFh_5lb_io10http2_poolNtB9_9Http2Pool18dial_and_handshake0s_0Cs9KdHnaECcGB_20round8_body_overread
FN:232,_RNCNvMs2_NtCskzoFXwmdkFh_5lb_io10http2_poolNtB7_9Http2Pool12send_request0Cs9KdHnaECcGB_20round8_body_overread
FN:347,_RNCNvMs2_NtCskzoFXwmdkFh_5lb_io10http2_poolNtB7_9Http2Pool14acquire_sender0Cs9KdHnaECcGB_20round8_body_overread
FN:416,_RNCNvMs2_NtCskzoFXwmdkFh_5lb_io10http2_poolNtB7_9Http2Pool18dial_and_handshake0Cs9KdHnaECcGB_20round8_body_overread
FNDA:0,_RNCNvMs2_NtCskzoFXwmdkFh_5lb_io10http2_poolNtB7_9Http2Pool17send_request_idle0Cs3aqnWZMHlPP_5lb_l7
FNDA:0,_RNCNCNvMs2_NtCskzoFXwmdkFh_5lb_io10http2_poolNtB9_9Http2Pool18dial_and_handshake00Cs6AViLBCwg8R_7lb_quic
FNDA:0,_RNCNCNvMs2_NtCskzoFXwmdkFh_5lb_io10http2_poolNtB9_9Http2Pool18dial_and_handshake0s0_0Cs6AViLBCwg8R_7lb_quic
FNDA:0,_RNCNCNvMs2_NtCskzoFXwmdkFh_5lb_io10http2_poolNtB9_9Http2Pool18dial_and_handshake0s_0Cs6AViLBCwg8R_7lb_quic
FNDA:0,_RNCNvMs2_NtCskzoFXwmdkFh_5lb_io10http2_poolNtB7_9Http2Pool12send_request0Cs6AViLBCwg8R_7lb_quic
FNDA:0,_RNCNvMs2_NtCskzoFXwmdkFh_5lb_io10http2_poolNtB7_9Http2Pool14acquire_sender0Cs6AViLBCwg8R_7lb_quic
FNDA:0,_RNCNvMs2_NtCskzoFXwmdkFh_5lb_io10http2_poolNtB7_9Http2Pool18dial_and_handshake0Cs6AViLBCwg8R_7lb_quic
FNDA:0,_RNvMs2_NtCskzoFXwmdkFh_5lb_io10http2_poolNtB5_9Http2Pool10peer_count
FNDA:0,_RNvMs2_NtCskzoFXwmdkFh_5lb_io10http2_poolNtB5_9Http2Pool10reset_peer
FNDA:0,_RNvMs2_NtCskzoFXwmdkFh_5lb_io10http2_poolNtB5_9Http2Pool12send_request
FNDA:0,_RNvMs2_NtCskzoFXwmdkFh_5lb_io10http2_poolNtB5_9Http2Pool13replace_entry
FNDA:0,_RNvMs2_NtCskzoFXwmdkFh_5lb_io10http2_poolNtB5_9Http2Pool14acquire_sender
FNDA:0,_RNvMs2_NtCskzoFXwmdkFh_5lb_io10http2_poolNtB5_9Http2Pool17send_request_idle
FNDA:0,_RNvMs2_NtCskzoFXwmdkFh_5lb_io10http2_poolNtB5_9Http2Pool17take_alive_sender
FNDA:0,_RNvMs2_NtCskzoFXwmdkFh_5lb_io10http2_poolNtB5_9Http2Pool18dial_and_handshake
FNDA:0,_RNvMs2_NtCskzoFXwmdkFh_5lb_io10http2_poolNtB5_9Http2Pool3new
FNDA:0,_RNvMs2_NtCskzoFXwmdkFh_5lb_io10http2_poolNtB5_9Http2Pool5evict
FNDA:0,_RNvMs_NtCskzoFXwmdkFh_5lb_io10http2_poolNtB4_9PeerEntry8is_alive
FNDA:0,_RNvNtCskzoFXwmdkFh_5lb_io10http2_pool20collect_body_bounded
FNDA:0,_RNvXNtCskzoFXwmdkFh_5lb_io10http2_poolNtB2_15Http2PoolConfigNtNtCs2va5m0jqTTM_4core7default7Default7default
FNDA:0,_RNvXs0_NtCskzoFXwmdkFh_5lb_io10http2_poolNtB5_9PeerEntryNtNtNtCs2va5m0jqTTM_4core3ops4drop4Drop4drop
FNDA:0,_RNvXs1_NtCskzoFXwmdkFh_5lb_io10http2_poolNtB5_9Http2PoolNtNtCs2va5m0jqTTM_4core3fmt5Debug3fmt
FNDA:0,_RNCNCNvMs2_NtCskzoFXwmdkFh_5lb_io10http2_poolNtB9_9Http2Pool18dial_and_handshake00Bb_
FNDA:0,_RNCNCNvMs2_NtCskzoFXwmdkFh_5lb_io10http2_poolNtB9_9Http2Pool18dial_and_handshake0s0_0Bb_
FNDA:0,_RNCNCNvMs2_NtCskzoFXwmdkFh_5lb_io10http2_poolNtB9_9Http2Pool18dial_and_handshake0s_0Bb_
FNDA:0,_RNCNCNvNtCskzoFXwmdkFh_5lb_io10http2_pool20collect_body_bounded00B7_
FNDA:0,_RNCNvMs2_NtCskzoFXwmdkFh_5lb_io10http2_poolNtB7_9Http2Pool12send_request0B9_
FNDA:0,_RNCNvMs2_NtCskzoFXwmdkFh_5lb_io10http2_poolNtB7_9Http2Pool14acquire_sender0B9_
FNDA:0,_RNCNvMs2_NtCskzoFXwmdkFh_5lb_io10http2_poolNtB7_9Http2Pool17send_request_idle0B9_
FNDA:0,_RNCNvMs2_NtCskzoFXwmdkFh_5lb_io10http2_poolNtB7_9Http2Pool18dial_and_handshake0B9_
FNDA:0,_RNCNvNtCskzoFXwmdkFh_5lb_io10http2_pool20collect_body_bounded0B5_
FNDA:0,_RINvNtNtCsipEsb16Xo5l_5lb_io10http2_pool5tests16spawn_h2_backendNCNCNvB2_s_29send_request_idle_success_arm00NCNCB12_00EB6_
FNDA:0,_RINvNtNtCsipEsb16Xo5l_5lb_io10http2_pool5tests16spawn_h2_backendNCNCNvB2_s_34send_request_idle_head_timeout_arm00NCNCB12_00EB6_
FNDA:0,_RINvNtNtCsipEsb16Xo5l_5lb_io10http2_pool5tests16spawn_h2_backendNCNCNvB2_s_34send_request_idle_idle_timeout_arm00NCNCB12_00EB6_
FNDA:0,_RNCINvNtNtCsipEsb16Xo5l_5lb_io10http2_pool5tests16spawn_h2_backendNCNCNvB4_s_29send_request_idle_success_arm00NCNCB14_00E0B8_
FNDA:0,_RNCINvNtNtCsipEsb16Xo5l_5lb_io10http2_pool5tests16spawn_h2_backendNCNCNvB4_s_34send_request_idle_head_timeout_arm00NCNCB14_00E0B8_
FNDA:0,_RNCINvNtNtCsipEsb16Xo5l_5lb_io10http2_pool5tests16spawn_h2_backendNCNCNvB4_s_34send_request_idle_idle_timeout_arm00NCNCB14_00E0B8_
FNDA:0,_RNCNCINvNtNtCsipEsb16Xo5l_5lb_io10http2_pool5tests16spawn_h2_backendNCNCNvB6_s_29send_request_idle_success_arm00NCNCB16_00E00Ba_
FNDA:0,_RNCNCINvNtNtCsipEsb16Xo5l_5lb_io10http2_pool5tests16spawn_h2_backendNCNCNvB6_s_34send_request_idle_head_timeout_arm00NCNCB16_00E00Ba_
FNDA:0,_RNCNCINvNtNtCsipEsb16Xo5l_5lb_io10http2_pool5tests16spawn_h2_backendNCNCNvB6_s_34send_request_idle_idle_timeout_arm00NCNCB16_00E00Ba_
FNDA:0,_RNCNCNCINvNtNtCsipEsb16Xo5l_5lb_io10http2_pool5tests16spawn_h2_backendNCNCNvB8_s_29send_request_idle_success_arm00NCNCB18_00E000Bc_
FNDA:0,_RNCNCNCINvNtNtCsipEsb16Xo5l_5lb_io10http2_pool5tests16spawn_h2_backendNCNCNvB8_s_34send_request_idle_head_timeout_arm00NCNCB18_00E000Bc_
FNDA:0,_RNCNCNCINvNtNtCsipEsb16Xo5l_5lb_io10http2_pool5tests16spawn_h2_backendNCNCNvB8_s_34send_request_idle_idle_timeout_arm00NCNCB18_00E000Bc_
FNDA:0,_RNCNCNCNCINvNtNtCsipEsb16Xo5l_5lb_io10http2_pool5tests16spawn_h2_backendNCNCNvBa_s_29send_request_idle_success_arm00NCNCB1a_00E0000Be_
FNDA:0,_RNCNCNCNCINvNtNtCsipEsb16Xo5l_5lb_io10http2_pool5tests16spawn_h2_backendNCNCNvBa_s_34send_request_idle_head_timeout_arm00NCNCB1a_00E0000Be_
FNDA:0,_RNCNCNCNCINvNtNtCsipEsb16Xo5l_5lb_io10http2_pool5tests16spawn_h2_backendNCNCNvBa_s_34send_request_idle_idle_timeout_arm00NCNCB1a_00E0000Be_
FNDA:0,_RNCNCNCNCNCINvNtNtCsipEsb16Xo5l_5lb_io10http2_pool5tests16spawn_h2_backendNCNCNvBc_s_29send_request_idle_success_arm00NCNCB1c_00E00000Bg_
FNDA:0,_RNCNCNCNCNCINvNtNtCsipEsb16Xo5l_5lb_io10http2_pool5tests16spawn_h2_backendNCNCNvBc_s_34send_request_idle_head_timeout_arm00NCNCB1c_00E00000Bg_
FNDA:0,_RNCNCNCNCNCINvNtNtCsipEsb16Xo5l_5lb_io10http2_pool5tests16spawn_h2_backendNCNCNvBc_s_34send_request_idle_idle_timeout_arm00NCNCB1c_00E00000Bg_
FNDA:0,_RNCNCNCNvNtNtCsipEsb16Xo5l_5lb_io10http2_pool5testss_29send_request_idle_success_arm000Bb_
FNDA:0,_RNCNCNCNvNtNtCsipEsb16Xo5l_5lb_io10http2_pool5testss_34send_request_idle_head_timeout_arm000Bb_
FNDA:0,_RNCNCNCNvNtNtCsipEsb16Xo5l_5lb_io10http2_pool5testss_34send_request_idle_idle_timeout_arm000Bb_
FNDA:0,_RNCNCNvNtNtCsipEsb16Xo5l_5lb_io10http2_pool5testss_29send_request_idle_success_arm00B9_
FNDA:0,_RNCNCNvNtNtCsipEsb16Xo5l_5lb_io10http2_pool5testss_33send_request_idle_dial_fail_smoke00B9_
FNDA:0,_RNCNCNvNtNtCsipEsb16Xo5l_5lb_io10http2_pool5testss_34send_request_idle_head_timeout_arm00B9_
FNDA:0,_RNCNCNvNtNtCsipEsb16Xo5l_5lb_io10http2_pool5testss_34send_request_idle_idle_timeout_arm00B9_
FNDA:0,_RNCNvNtNtCsipEsb16Xo5l_5lb_io10http2_pool5tests13empty_request0B7_
FNDA:0,_RNCNvNtNtCsipEsb16Xo5l_5lb_io10http2_pool5testss_29send_request_idle_success_arm0B7_
FNDA:0,_RNCNvNtNtCsipEsb16Xo5l_5lb_io10http2_pool5testss_33send_request_idle_dial_fail_smoke0B7_
FNDA:0,_RNCNvNtNtCsipEsb16Xo5l_5lb_io10http2_pool5testss_34send_request_idle_head_timeout_arm0B7_
FNDA:0,_RNCNvNtNtCsipEsb16Xo5l_5lb_io10http2_pool5testss_34send_request_idle_idle_timeout_arm0B7_
FNDA:0,_RNvNtNtCsipEsb16Xo5l_5lb_io10http2_pool5tests13empty_request
FNDA:0,_RNvNtNtCsipEsb16Xo5l_5lb_io10http2_pool5tests17tcp_pool_for_test
FNDA:0,_RNvNtNtCsipEsb16Xo5l_5lb_io10http2_pool5testss_17pool_starts_empty
FNDA:0,_RNvNtNtCsipEsb16Xo5l_5lb_io10http2_pool5testss_29send_request_idle_success_arm
FNDA:0,_RNvNtNtCsipEsb16Xo5l_5lb_io10http2_pool5testss_32defaults_match_documented_values
FNDA:0,_RNvNtNtCsipEsb16Xo5l_5lb_io10http2_pool5testss_33send_request_idle_dial_fail_smoke
FNDA:0,_RNvNtNtCsipEsb16Xo5l_5lb_io10http2_pool5testss_34send_request_idle_head_timeout_arm
FNDA:0,_RNvNtNtCsipEsb16Xo5l_5lb_io10http2_pool5testss_34send_request_idle_idle_timeout_arm
FNDA:0,_RNCNCNvMs2_NtCsipEsb16Xo5l_5lb_io10http2_poolNtB9_9Http2Pool18dial_and_handshake00Bb_
FNDA:0,_RNCNCNvMs2_NtCsipEsb16Xo5l_5lb_io10http2_poolNtB9_9Http2Pool18dial_and_handshake0s0_0Bb_
FNDA:0,_RNCNCNvMs2_NtCsipEsb16Xo5l_5lb_io10http2_poolNtB9_9Http2Pool18dial_and_handshake0s_0Bb_
FNDA:0,_RNCNvMs2_NtCsipEsb16Xo5l_5lb_io10http2_poolNtB7_9Http2Pool14acquire_sender0B9_
FNDA:0,_RNCNvMs2_NtCsipEsb16Xo5l_5lb_io10http2_poolNtB7_9Http2Pool17send_request_idle0B9_
FNDA:0,_RNCNvMs2_NtCsipEsb16Xo5l_5lb_io10http2_poolNtB7_9Http2Pool18dial_and_handshake0B9_
FNDA:0,_RNvMs2_NtCsipEsb16Xo5l_5lb_io10http2_poolNtB5_9Http2Pool10peer_count
FNDA:0,_RNvMs2_NtCsipEsb16Xo5l_5lb_io10http2_poolNtB5_9Http2Pool13replace_entry
FNDA:0,_RNvMs2_NtCsipEsb16Xo5l_5lb_io10http2_poolNtB5_9Http2Pool14acquire_sender
FNDA:0,_RNvMs2_NtCsipEsb16Xo5l_5lb_io10http2_poolNtB5_9Http2Pool17send_request_idle
FNDA:0,_RNvMs2_NtCsipEsb16Xo5l_5lb_io10http2_poolNtB5_9Http2Pool17take_alive_sender
FNDA:0,_RNvMs2_NtCsipEsb16Xo5l_5lb_io10http2_poolNtB5_9Http2Pool18dial_and_handshake
FNDA:0,_RNvMs2_NtCsipEsb16Xo5l_5lb_io10http2_poolNtB5_9Http2Pool3new
FNDA:0,_RNvMs2_NtCsipEsb16Xo5l_5lb_io10http2_poolNtB5_9Http2Pool5evict
FNDA:0,_RNvMs_NtCsipEsb16Xo5l_5lb_io10http2_poolNtB4_9PeerEntry8is_alive
FNDA:0,_RNvXNtCsipEsb16Xo5l_5lb_io10http2_poolNtB2_15Http2PoolConfigNtNtCs2va5m0jqTTM_4core7default7Default7default
FNDA:0,_RNvXs0_NtCsipEsb16Xo5l_5lb_io10http2_poolNtB5_9PeerEntryNtNtNtCs2va5m0jqTTM_4core3ops4drop4Drop4drop
FNDA:0,_RNCNCNvNtCsipEsb16Xo5l_5lb_io10http2_pool20collect_body_bounded00B7_
FNDA:0,_RNCNvMs2_NtCsipEsb16Xo5l_5lb_io10http2_poolNtB7_9Http2Pool12send_request0B9_
FNDA:0,_RNCNvNtCsipEsb16Xo5l_5lb_io10http2_pool20collect_body_bounded0B5_
FNDA:0,_RNvMs2_NtCsipEsb16Xo5l_5lb_io10http2_poolNtB5_9Http2Pool10reset_peer
FNDA:0,_RNvMs2_NtCsipEsb16Xo5l_5lb_io10http2_poolNtB5_9Http2Pool12send_request
FNDA:0,_RNvNtCsipEsb16Xo5l_5lb_io10http2_pool20collect_body_bounded
FNDA:0,_RNvXs1_NtCsipEsb16Xo5l_5lb_io10http2_poolNtB5_9Http2PoolNtNtCs2va5m0jqTTM_4core3fmt5Debug3fmt
FNDA:0,_RNCNvMs2_NtCskzoFXwmdkFh_5lb_io10http2_poolNtB7_9Http2Pool17send_request_idle0CsahEFUsRJKn_5lb_l7
FNDA:0,_RNCNCNvMs2_NtCskzoFXwmdkFh_5lb_io10http2_poolNtB9_9Http2Pool18dial_and_handshake00Cs55RPzE5gwp1_7lb_quic
FNDA:0,_RNCNCNvMs2_NtCskzoFXwmdkFh_5lb_io10http2_poolNtB9_9Http2Pool18dial_and_handshake0s0_0Cs55RPzE5gwp1_7lb_quic
FNDA:0,_RNCNCNvMs2_NtCskzoFXwmdkFh_5lb_io10http2_poolNtB9_9Http2Pool18dial_and_handshake0s_0Cs55RPzE5gwp1_7lb_quic
FNDA:0,_RNCNvMs2_NtCskzoFXwmdkFh_5lb_io10http2_poolNtB7_9Http2Pool12send_request0Cs55RPzE5gwp1_7lb_quic
FNDA:0,_RNCNvMs2_NtCskzoFXwmdkFh_5lb_io10http2_poolNtB7_9Http2Pool14acquire_sender0Cs55RPzE5gwp1_7lb_quic
FNDA:0,_RNCNvMs2_NtCskzoFXwmdkFh_5lb_io10http2_poolNtB7_9Http2Pool18dial_and_handshake0Cs55RPzE5gwp1_7lb_quic
FNDA:0,_RNCNCNvMs2_NtCskzoFXwmdkFh_5lb_io10http2_poolNtB9_9Http2Pool18dial_and_handshake00Cs9KdHnaECcGB_20round8_body_overread
FNDA:0,_RNCNCNvMs2_NtCskzoFXwmdkFh_5lb_io10http2_poolNtB9_9Http2Pool18dial_and_handshake0s0_0Cs9KdHnaECcGB_20round8_body_overread
FNDA:0,_RNCNCNvMs2_NtCskzoFXwmdkFh_5lb_io10http2_poolNtB9_9Http2Pool18dial_and_handshake0s_0Cs9KdHnaECcGB_20round8_body_overread
FNDA:0,_RNCNvMs2_NtCskzoFXwmdkFh_5lb_io10http2_poolNtB7_9Http2Pool12send_request0Cs9KdHnaECcGB_20round8_body_overread
FNDA:0,_RNCNvMs2_NtCskzoFXwmdkFh_5lb_io10http2_poolNtB7_9Http2Pool14acquire_sender0Cs9KdHnaECcGB_20round8_body_overread
FNDA:0,_RNCNvMs2_NtCskzoFXwmdkFh_5lb_io10http2_poolNtB7_9Http2Pool18dial_and_handshake0Cs9KdHnaECcGB_20round8_body_overread
FNF:50
FNH:0
DA:110,0
DA:111,0
DA:112,0
DA:113,0
DA:114,0
DA:115,0
DA:116,0
DA:117,0
DA:118,0
DA:128,0
DA:129,0
DA:130,0
DA:134,0
DA:135,0
DA:136,0
DA:172,0
DA:173,0
DA:174,0
DA:175,0
DA:176,0
DA:177,0
DA:178,0
DA:185,0
DA:186,0
DA:187,0
DA:188,0
DA:189,0
DA:190,0
DA:191,0
DA:192,0
DA:193,0
DA:197,0
DA:198,0
DA:199,0
DA:228,0
DA:229,0
DA:230,0
DA:231,0
DA:232,0
DA:233,0
DA:234,0
DA:235,0
DA:236,0
DA:237,0
DA:238,0
DA:239,0
DA:240,0
DA:241,0
DA:242,0
DA:243,0
DA:244,0
DA:247,0
DA:248,0
DA:251,0
DA:296,0
DA:297,0
DA:298,0
DA:299,0
DA:300,0
DA:301,0
DA:302,0
DA:303,0
DA:304,0
DA:305,0
DA:306,0
DA:307,0
DA:308,0
DA:309,0
DA:310,0
DA:311,0
DA:312,0
DA:313,0
DA:314,0
DA:315,0
DA:316,0
DA:318,0
DA:319,0
DA:320,0
DA:321,0
DA:322,0
DA:324,0
DA:328,0
DA:329,0
DA:330,0
DA:332,0
DA:334,0
DA:336,0
DA:337,0
DA:340,0
DA:344,0
DA:345,0
DA:346,0
DA:347,0
DA:348,0
DA:349,0
DA:350,0
DA:351,0
DA:352,0
DA:353,0
DA:354,0
DA:355,0
DA:356,0
DA:357,0
DA:358,0
DA:360,0
DA:361,0
DA:362,0
DA:363,0
DA:365,0
DA:366,0
DA:368,0
DA:370,0
DA:372,0
DA:373,0
DA:374,0
DA:375,0
DA:377,0
DA:378,0
DA:379,0
DA:380,0
DA:406,0
DA:407,0
DA:408,0
DA:409,0
DA:410,0
DA:411,0
DA:413,0
DA:414,0
DA:415,0
DA:416,0
DA:420,0
DA:421,0
DA:422,0
DA:423,0
DA:425,0
DA:426,0
DA:427,0
DA:428,0
DA:429,0
DA:430,0
DA:431,0
DA:432,0
DA:433,0
DA:434,0
DA:435,0
DA:436,0
DA:437,0
DA:438,0
DA:439,0
DA:441,0
DA:442,0
DA:443,0
DA:444,0
DA:445,0
DA:456,0
DA:457,0
DA:458,0
DA:459,0
DA:460,0
DA:461,0
DA:462,0
DA:463,0
DA:464,0
DA:465,0
DA:466,0
DA:467,0
DA:468,0
DA:469,0
DA:477,0
DA:478,0
DA:479,0
DA:480,0
DA:481,0
DA:482,0
DA:483,0
DA:484,0
DA:487,0
DA:488,0
DA:489,0
DA:490,0
DA:491,0
DA:492,0
DA:493,0
DA:494,0
DA:495,0
DA:496,0
DA:497,0
DA:498,0
DA:499,0
DA:500,0
DA:501,0
DA:502,0
DA:512,0
DA:513,0
DA:514,0
DA:515,0
DA:516,0
DA:517,0
DA:518,0
DA:519,0
DA:520,0
DA:521,0
DA:522,0
DA:523,0
DA:524,0
DA:525,0
DA:526,0
DA:527,0
DA:528,0
DA:529,0
DA:530,0
DA:531,0
DA:532,0
DA:533,0
DA:534,0
DA:535,0
DA:536,0
DA:537,0
DA:538,0
DA:539,0
DA:540,0
DA:541,0
DA:542,0
DA:543,0
DA:544,0
DA:545,0
DA:546,0
DA:547,0
DA:548,0
DA:549,0
DA:550,0
DA:551,0
DA:552,0
DA:553,0
DA:554,0
DA:555,0
DA:556,0
DA:557,0
DA:558,0
DA:568,0
DA:569,0
DA:570,0
DA:571,0
DA:572,0
DA:573,0
DA:574,0
DA:575,0
DA:579,0
DA:580,0
DA:581,0
DA:582,0
DA:584,0
DA:585,0
DA:587,0
DA:588,0
DA:589,0
DA:590,0
DA:591,0
DA:592,0
DA:593,0
DA:594,0
DA:595,0
DA:596,0
DA:597,0
DA:598,0
DA:600,0
DA:601,0
DA:602,0
DA:604,0
DA:605,0
DA:606,0
DA:607,0
DA:608,0
DA:609,0
DA:610,0
DA:611,0
DA:612,0
DA:613,0
DA:614,0
DA:615,0
DA:616,0
DA:617,0
DA:619,0
DA:621,0
DA:622,0
DA:623,0
DA:624,0
DA:625,0
DA:626,0
DA:627,0
DA:628,0
DA:629,0
DA:630,0
DA:631,0
DA:632,0
DA:638,0
DA:639,0
DA:640,0
DA:641,0
DA:642,0
DA:643,0
DA:644,0
DA:645,0
DA:646,0
DA:647,0
DA:648,0
DA:649,0
DA:650,0
DA:651,0
DA:652,0
DA:653,0
DA:654,0
DA:655,0
DA:656,0
DA:657,0
DA:658,0
DA:659,0
DA:660,0
DA:661,0
DA:662,0
DA:663,0
DA:664,0
DA:665,0
DA:673,0
DA:674,0
DA:675,0
DA:676,0
DA:677,0
DA:678,0
DA:679,0
DA:680,0
DA:681,0
DA:682,0
DA:683,0
DA:684,0
DA:685,0
DA:686,0
DA:687,0
DA:688,0
DA:689,0
DA:690,0
DA:691,0
DA:692,0
DA:693,0
DA:694,0
DA:695,0
DA:696,0
DA:697,0
DA:698,0
DA:699,0
DA:700,0
DA:701,0
DA:702,0
DA:703,0
DA:711,0
DA:712,0
DA:713,0
DA:714,0
DA:715,0
DA:716,0
DA:717,0
DA:718,0
DA:719,0
DA:720,0
DA:721,0
DA:722,0
DA:723,0
DA:724,0
DA:725,0
DA:726,0
DA:727,0
DA:728,0
DA:729,0
DA:730,0
DA:731,0
DA:732,0
DA:733,0
DA:734,0
DA:735,0
BRF:0
BRH:0
LF:527
LH:0
end_of_record
SF:/home/ubuntu/Code/ExpressGateway/.claude/worktrees/s15-builder/crates/lb-io/src/idle_send.rs
FN:183,_RINvNtCskzoFXwmdkFh_5lb_io9idle_send12poll_fn_sendNCNvMs0_NtNtNtCsgB3dp6qvXvn_5hyper6client4conn5http1INtBU_11SendRequestINtNtNtCsedaG9KDMExI_14http_body_util11combinators8box_body7BoxBodyNtNtCs7xJyEqPIUa9_5bytes5bytes5BytesNtNtCs3aqnWZMHlPP_5lb_l78h1_proxy11H1PumpAbortEE12send_request0EB3E_
FN:183,_RINvNtCskzoFXwmdkFh_5lb_io9idle_send12poll_fn_sendNCNvMs0_NtNtNtCsgB3dp6qvXvn_5hyper6client4conn5http1INtBU_11SendRequestINtNtNtCsedaG9KDMExI_14http_body_util11combinators8box_body7BoxBodyNtNtCs7xJyEqPIUa9_5bytes5bytes5BytesNtNtCs3aqnWZMHlPP_5lb_l78h2_proxy9PumpAbortEE12send_request0EB3E_
FN:183,_RINvNtCskzoFXwmdkFh_5lb_io9idle_send12poll_fn_sendNCNvMs0_NtNtNtCsgB3dp6qvXvn_5hyper6client4conn5http2INtBU_11SendRequestINtNtNtCsedaG9KDMExI_14http_body_util11combinators8box_body7BoxBodyNtNtCs7xJyEqPIUa9_5bytes5bytes5BytesINtNtCs8GO9KFlE3Dq_5alloc5boxed3BoxDNtNtCs2va5m0jqTTM_4core5error5ErrorNtNtB4e_6marker4SendNtB4L_4SyncEL_EEE12send_request0ECs3aqnWZMHlPP_5lb_l7
FN:93,_RINvNtCskzoFXwmdkFh_5lb_io9idle_send17idle_bounded_sendNCNvMs0_NtNtNtCsgB3dp6qvXvn_5hyper6client4conn5http1INtBZ_11SendRequestINtNtNtCsedaG9KDMExI_14http_body_util11combinators8box_body7BoxBodyNtNtCs7xJyEqPIUa9_5bytes5bytes5BytesNtNtCs3aqnWZMHlPP_5lb_l78h1_proxy11H1PumpAbortEE12send_request0INtNtCs2va5m0jqTTM_4core6result6ResultINtNtCsjFxw70quGA5_4http8response8ResponseNtNtNtB15_4body8incoming8IncomingENtNtB15_5error5ErrorEEB3J_
FN:93,_RINvNtCskzoFXwmdkFh_5lb_io9idle_send17idle_bounded_sendNCNvMs0_NtNtNtCsgB3dp6qvXvn_5hyper6client4conn5http1INtBZ_11SendRequestINtNtNtCsedaG9KDMExI_14http_body_util11combinators8box_body7BoxBodyNtNtCs7xJyEqPIUa9_5bytes5bytes5BytesNtNtCs3aqnWZMHlPP_5lb_l78h2_proxy9PumpAbortEE12send_request0INtNtCs2va5m0jqTTM_4core6result6ResultINtNtCsjFxw70quGA5_4http8response8ResponseNtNtNtB15_4body8incoming8IncomingENtNtB15_5error5ErrorEEB3J_
FN:93,_RINvNtCskzoFXwmdkFh_5lb_io9idle_send17idle_bounded_sendNCNvMs0_NtNtNtCsgB3dp6qvXvn_5hyper6client4conn5http2INtBZ_11SendRequestINtNtNtCsedaG9KDMExI_14http_body_util11combinators8box_body7BoxBodyNtNtCs7xJyEqPIUa9_5bytes5bytes5BytesINtNtCs8GO9KFlE3Dq_5alloc5boxed3BoxDNtNtCs2va5m0jqTTM_4core5error5ErrorNtNtB4j_6marker4SendNtB4Q_4SyncEL_EEE12send_request0INtNtB4j_6result6ResultINtNtCsjFxw70quGA5_4http8response8ResponseNtNtNtB15_4body8incoming8IncomingENtNtB15_5error5ErrorEECs3aqnWZMHlPP_5lb_l7
FN:183,_RNCINvNtCskzoFXwmdkFh_5lb_io9idle_send12poll_fn_sendNCNvMs0_NtNtNtCsgB3dp6qvXvn_5hyper6client4conn5http1INtBW_11SendRequestINtNtNtCsedaG9KDMExI_14http_body_util11combinators8box_body7BoxBodyNtNtCs7xJyEqPIUa9_5bytes5bytes5BytesNtNtCs3aqnWZMHlPP_5lb_l78h1_proxy11H1PumpAbortEE12send_request0E0B3G_
FN:183,_RNCINvNtCskzoFXwmdkFh_5lb_io9idle_send12poll_fn_sendNCNvMs0_NtNtNtCsgB3dp6qvXvn_5hyper6client4conn5http1INtBW_11SendRequestINtNtNtCsedaG9KDMExI_14http_body_util11combinators8box_body7BoxBodyNtNtCs7xJyEqPIUa9_5bytes5bytes5BytesNtNtCs3aqnWZMHlPP_5lb_l78h2_proxy9PumpAbortEE12send_request0E0B3G_
FN:183,_RNCINvNtCskzoFXwmdkFh_5lb_io9idle_send12poll_fn_sendNCNvMs0_NtNtNtCsgB3dp6qvXvn_5hyper6client4conn5http2INtBW_11SendRequestINtNtNtCsedaG9KDMExI_14http_body_util11combinators8box_body7BoxBodyNtNtCs7xJyEqPIUa9_5bytes5bytes5BytesINtNtCs8GO9KFlE3Dq_5alloc5boxed3BoxDNtNtCs2va5m0jqTTM_4core5error5ErrorNtNtB4g_6marker4SendNtB4N_4SyncEL_EEE12send_request0E0Cs3aqnWZMHlPP_5lb_l7
FN:103,_RNCINvNtCskzoFXwmdkFh_5lb_io9idle_send17idle_bounded_sendNCNvMs0_NtNtNtCsgB3dp6qvXvn_5hyper6client4conn5http1INtB11_11SendRequestINtNtNtCsedaG9KDMExI_14http_body_util11combinators8box_body7BoxBodyNtNtCs7xJyEqPIUa9_5bytes5bytes5BytesNtNtCs3aqnWZMHlPP_5lb_l78h1_proxy11H1PumpAbortEE12send_request0INtNtCs2va5m0jqTTM_4core6result6ResultINtNtCsjFxw70quGA5_4http8response8ResponseNtNtNtB17_4body8incoming8IncomingENtNtB17_5error5ErrorEE0B3M_
FN:103,_RNCINvNtCskzoFXwmdkFh_5lb_io9idle_send17idle_bounded_sendNCNvMs0_NtNtNtCsgB3dp6qvXvn_5hyper6client4conn5http1INtB11_11SendRequestINtNtNtCsedaG9KDMExI_14http_body_util11combinators8box_body7BoxBodyNtNtCs7xJyEqPIUa9_5bytes5bytes5BytesNtNtCs3aqnWZMHlPP_5lb_l78h2_proxy9PumpAbortEE12send_request0INtNtCs2va5m0jqTTM_4core6result6ResultINtNtCsjFxw70quGA5_4http8response8ResponseNtNtNtB17_4body8incoming8IncomingENtNtB17_5error5ErrorEE0B3M_
FN:103,_RNCINvNtCskzoFXwmdkFh_5lb_io9idle_send17idle_bounded_sendNCNvMs0_NtNtNtCsgB3dp6qvXvn_5hyper6client4conn5http2INtB11_11SendRequestINtNtNtCsedaG9KDMExI_14http_body_util11combinators8box_body7BoxBodyNtNtCs7xJyEqPIUa9_5bytes5bytes5BytesINtNtCs8GO9KFlE3Dq_5alloc5boxed3BoxDNtNtCs2va5m0jqTTM_4core5error5ErrorNtNtB4m_6marker4SendNtB4T_4SyncEL_EEE12send_request0INtNtB4m_6result6ResultINtNtCsjFxw70quGA5_4http8response8ResponseNtNtNtB17_4body8incoming8IncomingENtNtB17_5error5ErrorEE0Cs3aqnWZMHlPP_5lb_l7
FN:184,_RNCNCINvNtCskzoFXwmdkFh_5lb_io9idle_send12poll_fn_sendNCNvMs0_NtNtNtCsgB3dp6qvXvn_5hyper6client4conn5http1INtBY_11SendRequestINtNtNtCsedaG9KDMExI_14http_body_util11combinators8box_body7BoxBodyNtNtCs7xJyEqPIUa9_5bytes5bytes5BytesNtNtCs3aqnWZMHlPP_5lb_l78h1_proxy11H1PumpAbortEE12send_request0E00B3I_
FN:184,_RNCNCINvNtCskzoFXwmdkFh_5lb_io9idle_send12poll_fn_sendNCNvMs0_NtNtNtCsgB3dp6qvXvn_5hyper6client4conn5http1INtBY_11SendRequestINtNtNtCsedaG9KDMExI_14http_body_util11combinators8box_body7BoxBodyNtNtCs7xJyEqPIUa9_5bytes5bytes5BytesNtNtCs3aqnWZMHlPP_5lb_l78h2_proxy9PumpAbortEE12send_request0E00B3I_
FN:184,_RNCNCINvNtCskzoFXwmdkFh_5lb_io9idle_send12poll_fn_sendNCNvMs0_NtNtNtCsgB3dp6qvXvn_5hyper6client4conn5http2INtBY_11SendRequestINtNtNtCsedaG9KDMExI_14http_body_util11combinators8box_body7BoxBodyNtNtCs7xJyEqPIUa9_5bytes5bytes5BytesINtNtCs8GO9KFlE3Dq_5alloc5boxed3BoxDNtNtCs2va5m0jqTTM_4core5error5ErrorNtNtB4i_6marker4SendNtB4P_4SyncEL_EEE12send_request0E00Cs3aqnWZMHlPP_5lb_l7
FN:121,_RNCNCINvNtCskzoFXwmdkFh_5lb_io9idle_send17idle_bounded_sendNCNvMs0_NtNtNtCsgB3dp6qvXvn_5hyper6client4conn5http1INtB13_11SendRequestINtNtNtCsedaG9KDMExI_14http_body_util11combinators8box_body7BoxBodyNtNtCs7xJyEqPIUa9_5bytes5bytes5BytesNtNtCs3aqnWZMHlPP_5lb_l78h1_proxy11H1PumpAbortEE12send_request0INtNtCs2va5m0jqTTM_4core6result6ResultINtNtCsjFxw70quGA5_4http8response8ResponseNtNtNtB19_4body8incoming8IncomingENtNtB19_5error5ErrorEE00B3O_
FN:121,_RNCNCINvNtCskzoFXwmdkFh_5lb_io9idle_send17idle_bounded_sendNCNvMs0_NtNtNtCsgB3dp6qvXvn_5hyper6client4conn5http1INtB13_11SendRequestINtNtNtCsedaG9KDMExI_14http_body_util11combinators8box_body7BoxBodyNtNtCs7xJyEqPIUa9_5bytes5bytes5BytesNtNtCs3aqnWZMHlPP_5lb_l78h2_proxy9PumpAbortEE12send_request0INtNtCs2va5m0jqTTM_4core6result6ResultINtNtCsjFxw70quGA5_4http8response8ResponseNtNtNtB19_4body8incoming8IncomingENtNtB19_5error5ErrorEE00B3O_
FN:121,_RNCNCINvNtCskzoFXwmdkFh_5lb_io9idle_send17idle_bounded_sendNCNvMs0_NtNtNtCsgB3dp6qvXvn_5hyper6client4conn5http2INtB13_11SendRequestINtNtNtCsedaG9KDMExI_14http_body_util11combinators8box_body7BoxBodyNtNtCs7xJyEqPIUa9_5bytes5bytes5BytesINtNtCs8GO9KFlE3Dq_5alloc5boxed3BoxDNtNtCs2va5m0jqTTM_4core5error5ErrorNtNtB4o_6marker4SendNtB4V_4SyncEL_EEE12send_request0INtNtB4o_6result6ResultINtNtCsjFxw70quGA5_4http8response8ResponseNtNtNtB19_4body8incoming8IncomingENtNtB19_5error5ErrorEE00Cs3aqnWZMHlPP_5lb_l7
FN:183,_RINvNtCskzoFXwmdkFh_5lb_io9idle_send12poll_fn_sendpEB4_
FN:93,_RINvNtCskzoFXwmdkFh_5lb_io9idle_send17idle_bounded_sendppEB4_
FN:183,_RNCINvNtCskzoFXwmdkFh_5lb_io9idle_send12poll_fn_sendpE0B6_
FN:103,_RNCINvNtCskzoFXwmdkFh_5lb_io9idle_send17idle_bounded_sendppE0B6_
FN:184,_RNCNCINvNtCskzoFXwmdkFh_5lb_io9idle_send12poll_fn_sendpE00B8_
FN:121,_RNCNCINvNtCskzoFXwmdkFh_5lb_io9idle_send17idle_bounded_sendppE00B8_
FN:183,_RINvNtCsipEsb16Xo5l_5lb_io9idle_send12poll_fn_sendINtNtNtCs2va5m0jqTTM_4core6future7pending7PendingmEEB4_
FN:183,_RINvNtCsipEsb16Xo5l_5lb_io9idle_send12poll_fn_sendNCNCNvNtB2_5testss_32arm_i_chunked_progress_completes0s_0EB4_
FN:183,_RINvNtCsipEsb16Xo5l_5lb_io9idle_send12poll_fn_sendNCNCNvNtB2_5testss_39arm_iv_complete_then_fast_head_succeeds0s_0EB4_
FN:183,_RINvNtCsipEsb16Xo5l_5lb_io9idle_send12poll_fn_sendNCNvMs0_NtNtNtCsgB3dp6qvXvn_5hyper6client4conn5http2INtBU_11SendRequestINtNtNtCsedaG9KDMExI_14http_body_util11combinators8box_body7BoxBodyNtNtCs7xJyEqPIUa9_5bytes5bytes5BytesINtNtCs8GO9KFlE3Dq_5alloc5boxed3BoxDNtNtCs2va5m0jqTTM_4core5error5ErrorNtNtB4e_6marker4SendNtB4L_4SyncEL_EEE12send_request0EB4_
FN:93,_RINvNtCsipEsb16Xo5l_5lb_io9idle_send17idle_bounded_sendINtNtNtCs2va5m0jqTTM_4core6future7pending7PendingmEmEB4_
FN:93,_RINvNtCsipEsb16Xo5l_5lb_io9idle_send17idle_bounded_sendNCNCNvNtB2_5testss_32arm_i_chunked_progress_completes0s_0mEB4_
FN:93,_RINvNtCsipEsb16Xo5l_5lb_io9idle_send17idle_bounded_sendNCNCNvNtB2_5testss_39arm_iv_complete_then_fast_head_succeeds0s_0mEB4_
FN:93,_RINvNtCsipEsb16Xo5l_5lb_io9idle_send17idle_bounded_sendNCNvMs0_NtNtNtCsgB3dp6qvXvn_5hyper6client4conn5http2INtBZ_11SendRequestINtNtNtCsedaG9KDMExI_14http_body_util11combinators8box_body7BoxBodyNtNtCs7xJyEqPIUa9_5bytes5bytes5BytesINtNtCs8GO9KFlE3Dq_5alloc5boxed3BoxDNtNtCs2va5m0jqTTM_4core5error5ErrorNtNtB4j_6marker4SendNtB4Q_4SyncEL_EEE12send_request0INtNtB4j_6result6ResultINtNtCsjFxw70quGA5_4http8response8ResponseNtNtNtB15_4body8incoming8IncomingENtNtB15_5error5ErrorEEB4_
FN:183,_RNCINvNtCsipEsb16Xo5l_5lb_io9idle_send12poll_fn_sendINtNtNtCs2va5m0jqTTM_4core6future7pending7PendingmEE0B6_
FN:183,_RNCINvNtCsipEsb16Xo5l_5lb_io9idle_send12poll_fn_sendNCNCNvNtB4_5testss_32arm_i_chunked_progress_completes0s_0E0B6_
FN:183,_RNCINvNtCsipEsb16Xo5l_5lb_io9idle_send12poll_fn_sendNCNCNvNtB4_5testss_39arm_iv_complete_then_fast_head_succeeds0s_0E0B6_
FN:183,_RNCINvNtCsipEsb16Xo5l_5lb_io9idle_send12poll_fn_sendNCNvMs0_NtNtNtCsgB3dp6qvXvn_5hyper6client4conn5http2INtBW_11SendRequestINtNtNtCsedaG9KDMExI_14http_body_util11combinators8box_body7BoxBodyNtNtCs7xJyEqPIUa9_5bytes5bytes5BytesINtNtCs8GO9KFlE3Dq_5alloc5boxed3BoxDNtNtCs2va5m0jqTTM_4core5error5ErrorNtNtB4g_6marker4SendNtB4N_4SyncEL_EEE12send_request0E0B6_
FN:103,_RNCINvNtCsipEsb16Xo5l_5lb_io9idle_send17idle_bounded_sendINtNtNtCs2va5m0jqTTM_4core6future7pending7PendingmEmE0B6_
FN:103,_RNCINvNtCsipEsb16Xo5l_5lb_io9idle_send17idle_bounded_sendNCNCNvNtB4_5testss_32arm_i_chunked_progress_completes0s_0mE0B6_
FN:103,_RNCINvNtCsipEsb16Xo5l_5lb_io9idle_send17idle_bounded_sendNCNCNvNtB4_5testss_39arm_iv_complete_then_fast_head_succeeds0s_0mE0B6_
FN:103,_RNCINvNtCsipEsb16Xo5l_5lb_io9idle_send17idle_bounded_sendNCNvMs0_NtNtNtCsgB3dp6qvXvn_5hyper6client4conn5http2INtB11_11SendRequestINtNtNtCsedaG9KDMExI_14http_body_util11combinators8box_body7BoxBodyNtNtCs7xJyEqPIUa9_5bytes5bytes5BytesINtNtCs8GO9KFlE3Dq_5alloc5boxed3BoxDNtNtCs2va5m0jqTTM_4core5error5ErrorNtNtB4m_6marker4SendNtB4T_4SyncEL_EEE12send_request0INtNtB4m_6result6ResultINtNtCsjFxw70quGA5_4http8response8ResponseNtNtNtB17_4body8incoming8IncomingENtNtB17_5error5ErrorEE0B6_
FN:184,_RNCNCINvNtCsipEsb16Xo5l_5lb_io9idle_send12poll_fn_sendINtNtNtCs2va5m0jqTTM_4core6future7pending7PendingmEE00B8_
FN:184,_RNCNCINvNtCsipEsb16Xo5l_5lb_io9idle_send12poll_fn_sendNCNCNvNtB6_5testss_32arm_i_chunked_progress_completes0s_0E00B8_
FN:184,_RNCNCINvNtCsipEsb16Xo5l_5lb_io9idle_send12poll_fn_sendNCNCNvNtB6_5testss_39arm_iv_complete_then_fast_head_succeeds0s_0E00B8_
FN:184,_RNCNCINvNtCsipEsb16Xo5l_5lb_io9idle_send12poll_fn_sendNCNvMs0_NtNtNtCsgB3dp6qvXvn_5hyper6client4conn5http2INtBY_11SendRequestINtNtNtCsedaG9KDMExI_14http_body_util11combinators8box_body7BoxBodyNtNtCs7xJyEqPIUa9_5bytes5bytes5BytesINtNtCs8GO9KFlE3Dq_5alloc5boxed3BoxDNtNtCs2va5m0jqTTM_4core5error5ErrorNtNtB4i_6marker4SendNtB4P_4SyncEL_EEE12send_request0E00B8_
FN:121,_RNCNCINvNtCsipEsb16Xo5l_5lb_io9idle_send17idle_bounded_sendINtNtNtCs2va5m0jqTTM_4core6future7pending7PendingmEmE00B8_
FN:121,_RNCNCINvNtCsipEsb16Xo5l_5lb_io9idle_send17idle_bounded_sendNCNCNvNtB6_5testss_32arm_i_chunked_progress_completes0s_0mE00B8_
FN:121,_RNCNCINvNtCsipEsb16Xo5l_5lb_io9idle_send17idle_bounded_sendNCNCNvNtB6_5testss_39arm_iv_complete_then_fast_head_succeeds0s_0mE00B8_
FN:121,_RNCNCINvNtCsipEsb16Xo5l_5lb_io9idle_send17idle_bounded_sendNCNvMs0_NtNtNtCsgB3dp6qvXvn_5hyper6client4conn5http2INtB13_11SendRequestINtNtNtCsedaG9KDMExI_14http_body_util11combinators8box_body7BoxBodyNtNtCs7xJyEqPIUa9_5bytes5bytes5BytesINtNtCs8GO9KFlE3Dq_5alloc5boxed3BoxDNtNtCs2va5m0jqTTM_4core5error5ErrorNtNtB4o_6marker4SendNtB4V_4SyncEL_EEE12send_request0INtNtB4o_6result6ResultINtNtCsjFxw70quGA5_4http8response8ResponseNtNtNtB19_4body8incoming8IncomingENtNtB19_5error5ErrorEE00B8_
FN:404,_RNCNCNvNtNtCsipEsb16Xo5l_5lb_io9idle_send5testss_23arm_vi_late_bump_rearms00B9_
FN:444,_RNCNCNvNtNtCsipEsb16Xo5l_5lb_io9idle_send5testss_25arm_vii_tick_race_recheck00B9_
FN:223,_RNCNCNvNtNtCsipEsb16Xo5l_5lb_io9idle_send5testss_32arm_i_chunked_progress_completes00B9_
FN:233,_RNCNCNvNtNtCsipEsb16Xo5l_5lb_io9idle_send5testss_32arm_i_chunked_progress_completes0s_0B9_
FN:341,_RNCNCNvNtNtCsipEsb16Xo5l_5lb_io9idle_send5testss_39arm_iv_complete_then_fast_head_succeeds00B9_
FN:351,_RNCNCNvNtNtCsipEsb16Xo5l_5lb_io9idle_send5testss_39arm_iv_complete_then_fast_head_succeeds0s_0B9_
FN:294,_RNCNCNvNtNtCsipEsb16Xo5l_5lb_io9idle_send5testss_42arm_iii_complete_then_slow_head_fires_head00B9_
FN:497,_RNCNCNvNtNtCsipEsb16Xo5l_5lb_io9idle_send5testss_53arm_ix_lp_zero_bump_then_complete_fires_head_not_idle00B9_
FN:395,_RNCNvNtNtCsipEsb16Xo5l_5lb_io9idle_send5testss_23arm_vi_late_bump_rearms0B7_
FN:435,_RNCNvNtNtCsipEsb16Xo5l_5lb_io9idle_send5testss_25arm_vii_tick_race_recheck0B7_
FN:253,_RNCNvNtNtCsipEsb16Xo5l_5lb_io9idle_send5testss_27arm_ii_immediate_wedge_idle0B7_
FN:367,_RNCNvNtNtCsipEsb16Xo5l_5lb_io9idle_send5testss_27arm_v_zero_bump_scaled_idle0B7_
FN:214,_RNCNvNtNtCsipEsb16Xo5l_5lb_io9idle_send5testss_32arm_i_chunked_progress_completes0B7_
FN:334,_RNCNvNtNtCsipEsb16Xo5l_5lb_io9idle_send5testss_39arm_iv_complete_then_fast_head_succeeds0B7_
FN:283,_RNCNvNtNtCsipEsb16Xo5l_5lb_io9idle_send5testss_42arm_iii_complete_then_slow_head_fires_head0B7_
FN:487,_RNCNvNtNtCsipEsb16Xo5l_5lb_io9idle_send5testss_53arm_ix_lp_zero_bump_then_complete_fires_head_not_idle0B7_
FN:206,_RNvNtNtCsipEsb16Xo5l_5lb_io9idle_send5tests11bump_to_now
FN:198,_RNvNtNtCsipEsb16Xo5l_5lb_io9idle_send5tests5fresh
FN:395,_RNvNtNtCsipEsb16Xo5l_5lb_io9idle_send5testss_23arm_vi_late_bump_rearms
FN:435,_RNvNtNtCsipEsb16Xo5l_5lb_io9idle_send5testss_25arm_vii_tick_race_recheck
FN:253,_RNvNtNtCsipEsb16Xo5l_5lb_io9idle_send5testss_27arm_ii_immediate_wedge_idle
FN:367,_RNvNtNtCsipEsb16Xo5l_5lb_io9idle_send5testss_27arm_v_zero_bump_scaled_idle
FN:214,_RNvNtNtCsipEsb16Xo5l_5lb_io9idle_send5testss_32arm_i_chunked_progress_completes
FN:334,_RNvNtNtCsipEsb16Xo5l_5lb_io9idle_send5testss_39arm_iv_complete_then_fast_head_succeeds
FN:283,_RNvNtNtCsipEsb16Xo5l_5lb_io9idle_send5testss_42arm_iii_complete_then_slow_head_fires_head
FN:487,_RNvNtNtCsipEsb16Xo5l_5lb_io9idle_send5testss_53arm_ix_lp_zero_bump_then_complete_fires_head_not_idle
FN:183,_RINvNtCskzoFXwmdkFh_5lb_io9idle_send12poll_fn_sendNCNvMs0_NtNtNtCsgB3dp6qvXvn_5hyper6client4conn5http1INtBU_11SendRequestINtNtNtCsedaG9KDMExI_14http_body_util11combinators8box_body7BoxBodyNtNtCs7xJyEqPIUa9_5bytes5bytes5BytesNtNtCsahEFUsRJKn_5lb_l78h1_proxy11H1PumpAbortEE12send_request0EB3E_
FN:183,_RINvNtCskzoFXwmdkFh_5lb_io9idle_send12poll_fn_sendNCNvMs0_NtNtNtCsgB3dp6qvXvn_5hyper6client4conn5http1INtBU_11SendRequestINtNtNtCsedaG9KDMExI_14http_body_util11combinators8box_body7BoxBodyNtNtCs7xJyEqPIUa9_5bytes5bytes5BytesNtNtCsahEFUsRJKn_5lb_l78h2_proxy9PumpAbortEE12send_request0EB3E_
FN:183,_RINvNtCskzoFXwmdkFh_5lb_io9idle_send12poll_fn_sendNCNvMs0_NtNtNtCsgB3dp6qvXvn_5hyper6client4conn5http2INtBU_11SendRequestINtNtNtCsedaG9KDMExI_14http_body_util11combinators8box_body7BoxBodyNtNtCs7xJyEqPIUa9_5bytes5bytes5BytesINtNtCs8GO9KFlE3Dq_5alloc5boxed3BoxDNtNtCs2va5m0jqTTM_4core5error5ErrorNtNtB4e_6marker4SendNtB4L_4SyncEL_EEE12send_request0ECsahEFUsRJKn_5lb_l7
FN:93,_RINvNtCskzoFXwmdkFh_5lb_io9idle_send17idle_bounded_sendNCNvMs0_NtNtNtCsgB3dp6qvXvn_5hyper6client4conn5http1INtBZ_11SendRequestINtNtNtCsedaG9KDMExI_14http_body_util11combinators8box_body7BoxBodyNtNtCs7xJyEqPIUa9_5bytes5bytes5BytesNtNtCsahEFUsRJKn_5lb_l78h1_proxy11H1PumpAbortEE12send_request0INtNtCs2va5m0jqTTM_4core6result6ResultINtNtCsjFxw70quGA5_4http8response8ResponseNtNtNtB15_4body8incoming8IncomingENtNtB15_5error5ErrorEEB3J_
FN:93,_RINvNtCskzoFXwmdkFh_5lb_io9idle_send17idle_bounded_sendNCNvMs0_NtNtNtCsgB3dp6qvXvn_5hyper6client4conn5http1INtBZ_11SendRequestINtNtNtCsedaG9KDMExI_14http_body_util11combinators8box_body7BoxBodyNtNtCs7xJyEqPIUa9_5bytes5bytes5BytesNtNtCsahEFUsRJKn_5lb_l78h2_proxy9PumpAbortEE12send_request0INtNtCs2va5m0jqTTM_4core6result6ResultINtNtCsjFxw70quGA5_4http8response8ResponseNtNtNtB15_4body8incoming8IncomingENtNtB15_5error5ErrorEEB3J_
FN:93,_RINvNtCskzoFXwmdkFh_5lb_io9idle_send17idle_bounded_sendNCNvMs0_NtNtNtCsgB3dp6qvXvn_5hyper6client4conn5http2INtBZ_11SendRequestINtNtNtCsedaG9KDMExI_14http_body_util11combinators8box_body7BoxBodyNtNtCs7xJyEqPIUa9_5bytes5bytes5BytesINtNtCs8GO9KFlE3Dq_5alloc5boxed3BoxDNtNtCs2va5m0jqTTM_4core5error5ErrorNtNtB4j_6marker4SendNtB4Q_4SyncEL_EEE12send_request0INtNtB4j_6result6ResultINtNtCsjFxw70quGA5_4http8response8ResponseNtNtNtB15_4body8incoming8IncomingENtNtB15_5error5ErrorEECsahEFUsRJKn_5lb_l7
FN:183,_RNCINvNtCskzoFXwmdkFh_5lb_io9idle_send12poll_fn_sendNCNvMs0_NtNtNtCsgB3dp6qvXvn_5hyper6client4conn5http1INtBW_11SendRequestINtNtNtCsedaG9KDMExI_14http_body_util11combinators8box_body7BoxBodyNtNtCs7xJyEqPIUa9_5bytes5bytes5BytesNtNtCsahEFUsRJKn_5lb_l78h1_proxy11H1PumpAbortEE12send_request0E0B3G_
FN:183,_RNCINvNtCskzoFXwmdkFh_5lb_io9idle_send12poll_fn_sendNCNvMs0_NtNtNtCsgB3dp6qvXvn_5hyper6client4conn5http1INtBW_11SendRequestINtNtNtCsedaG9KDMExI_14http_body_util11combinators8box_body7BoxBodyNtNtCs7xJyEqPIUa9_5bytes5bytes5BytesNtNtCsahEFUsRJKn_5lb_l78h2_proxy9PumpAbortEE12send_request0E0B3G_
FN:183,_RNCINvNtCskzoFXwmdkFh_5lb_io9idle_send12poll_fn_sendNCNvMs0_NtNtNtCsgB3dp6qvXvn_5hyper6client4conn5http2INtBW_11SendRequestINtNtNtCsedaG9KDMExI_14http_body_util11combinators8box_body7BoxBodyNtNtCs7xJyEqPIUa9_5bytes5bytes5BytesINtNtCs8GO9KFlE3Dq_5alloc5boxed3BoxDNtNtCs2va5m0jqTTM_4core5error5ErrorNtNtB4g_6marker4SendNtB4N_4SyncEL_EEE12send_request0E0CsahEFUsRJKn_5lb_l7
FN:103,_RNCINvNtCskzoFXwmdkFh_5lb_io9idle_send17idle_bounded_sendNCNvMs0_NtNtNtCsgB3dp6qvXvn_5hyper6client4conn5http1INtB11_11SendRequestINtNtNtCsedaG9KDMExI_14http_body_util11combinators8box_body7BoxBodyNtNtCs7xJyEqPIUa9_5bytes5bytes5BytesNtNtCsahEFUsRJKn_5lb_l78h1_proxy11H1PumpAbortEE12send_request0INtNtCs2va5m0jqTTM_4core6result6ResultINtNtCsjFxw70quGA5_4http8response8ResponseNtNtNtB17_4body8incoming8IncomingENtNtB17_5error5ErrorEE0B3M_
FN:103,_RNCINvNtCskzoFXwmdkFh_5lb_io9idle_send17idle_bounded_sendNCNvMs0_NtNtNtCsgB3dp6qvXvn_5hyper6client4conn5http1INtB11_11SendRequestINtNtNtCsedaG9KDMExI_14http_body_util11combinators8box_body7BoxBodyNtNtCs7xJyEqPIUa9_5bytes5bytes5BytesNtNtCsahEFUsRJKn_5lb_l78h2_proxy9PumpAbortEE12send_request0INtNtCs2va5m0jqTTM_4core6result6ResultINtNtCsjFxw70quGA5_4http8response8ResponseNtNtNtB17_4body8incoming8IncomingENtNtB17_5error5ErrorEE0B3M_
FN:103,_RNCINvNtCskzoFXwmdkFh_5lb_io9idle_send17idle_bounded_sendNCNvMs0_NtNtNtCsgB3dp6qvXvn_5hyper6client4conn5http2INtB11_11SendRequestINtNtNtCsedaG9KDMExI_14http_body_util11combinators8box_body7BoxBodyNtNtCs7xJyEqPIUa9_5bytes5bytes5BytesINtNtCs8GO9KFlE3Dq_5alloc5boxed3BoxDNtNtCs2va5m0jqTTM_4core5error5ErrorNtNtB4m_6marker4SendNtB4T_4SyncEL_EEE12send_request0INtNtB4m_6result6ResultINtNtCsjFxw70quGA5_4http8response8ResponseNtNtNtB17_4body8incoming8IncomingENtNtB17_5error5ErrorEE0CsahEFUsRJKn_5lb_l7
FN:184,_RNCNCINvNtCskzoFXwmdkFh_5lb_io9idle_send12poll_fn_sendNCNvMs0_NtNtNtCsgB3dp6qvXvn_5hyper6client4conn5http1INtBY_11SendRequestINtNtNtCsedaG9KDMExI_14http_body_util11combinators8box_body7BoxBodyNtNtCs7xJyEqPIUa9_5bytes5bytes5BytesNtNtCsahEFUsRJKn_5lb_l78h1_proxy11H1PumpAbortEE12send_request0E00B3I_
FN:184,_RNCNCINvNtCskzoFXwmdkFh_5lb_io9idle_send12poll_fn_sendNCNvMs0_NtNtNtCsgB3dp6qvXvn_5hyper6client4conn5http1INtBY_11SendRequestINtNtNtCsedaG9KDMExI_14http_body_util11combinators8box_body7BoxBodyNtNtCs7xJyEqPIUa9_5bytes5bytes5BytesNtNtCsahEFUsRJKn_5lb_l78h2_proxy9PumpAbortEE12send_request0E00B3I_
FN:184,_RNCNCINvNtCskzoFXwmdkFh_5lb_io9idle_send12poll_fn_sendNCNvMs0_NtNtNtCsgB3dp6qvXvn_5hyper6client4conn5http2INtBY_11SendRequestINtNtNtCsedaG9KDMExI_14http_body_util11combinators8box_body7BoxBodyNtNtCs7xJyEqPIUa9_5bytes5bytes5BytesINtNtCs8GO9KFlE3Dq_5alloc5boxed3BoxDNtNtCs2va5m0jqTTM_4core5error5ErrorNtNtB4i_6marker4SendNtB4P_4SyncEL_EEE12send_request0E00CsahEFUsRJKn_5lb_l7
FN:121,_RNCNCINvNtCskzoFXwmdkFh_5lb_io9idle_send17idle_bounded_sendNCNvMs0_NtNtNtCsgB3dp6qvXvn_5hyper6client4conn5http1INtB13_11SendRequestINtNtNtCsedaG9KDMExI_14http_body_util11combinators8box_body7BoxBodyNtNtCs7xJyEqPIUa9_5bytes5bytes5BytesNtNtCsahEFUsRJKn_5lb_l78h1_proxy11H1PumpAbortEE12send_request0INtNtCs2va5m0jqTTM_4core6result6ResultINtNtCsjFxw70quGA5_4http8response8ResponseNtNtNtB19_4body8incoming8IncomingENtNtB19_5error5ErrorEE00B3O_
FN:121,_RNCNCINvNtCskzoFXwmdkFh_5lb_io9idle_send17idle_bounded_sendNCNvMs0_NtNtNtCsgB3dp6qvXvn_5hyper6client4conn5http1INtB13_11SendRequestINtNtNtCsedaG9KDMExI_14http_body_util11combinators8box_body7BoxBodyNtNtCs7xJyEqPIUa9_5bytes5bytes5BytesNtNtCsahEFUsRJKn_5lb_l78h2_proxy9PumpAbortEE12send_request0INtNtCs2va5m0jqTTM_4core6result6ResultINtNtCsjFxw70quGA5_4http8response8ResponseNtNtNtB19_4body8incoming8IncomingENtNtB19_5error5ErrorEE00B3O_
FN:121,_RNCNCINvNtCskzoFXwmdkFh_5lb_io9idle_send17idle_bounded_sendNCNvMs0_NtNtNtCsgB3dp6qvXvn_5hyper6client4conn5http2INtB13_11SendRequestINtNtNtCsedaG9KDMExI_14http_body_util11combinators8box_body7BoxBodyNtNtCs7xJyEqPIUa9_5bytes5bytes5BytesINtNtCs8GO9KFlE3Dq_5alloc5boxed3BoxDNtNtCs2va5m0jqTTM_4core5error5ErrorNtNtB4o_6marker4SendNtB4V_4SyncEL_EEE12send_request0INtNtB4o_6result6ResultINtNtCsjFxw70quGA5_4http8response8ResponseNtNtNtB19_4body8incoming8IncomingENtNtB19_5error5ErrorEE00CsahEFUsRJKn_5lb_l7
FNDA:0,_RINvNtCskzoFXwmdkFh_5lb_io9idle_send12poll_fn_sendNCNvMs0_NtNtNtCsgB3dp6qvXvn_5hyper6client4conn5http1INtBU_11SendRequestINtNtNtCsedaG9KDMExI_14http_body_util11combinators8box_body7BoxBodyNtNtCs7xJyEqPIUa9_5bytes5bytes5BytesNtNtCs3aqnWZMHlPP_5lb_l78h1_proxy11H1PumpAbortEE12send_request0EB3E_
FNDA:0,_RINvNtCskzoFXwmdkFh_5lb_io9idle_send12poll_fn_sendNCNvMs0_NtNtNtCsgB3dp6qvXvn_5hyper6client4conn5http1INtBU_11SendRequestINtNtNtCsedaG9KDMExI_14http_body_util11combinators8box_body7BoxBodyNtNtCs7xJyEqPIUa9_5bytes5bytes5BytesNtNtCs3aqnWZMHlPP_5lb_l78h2_proxy9PumpAbortEE12send_request0EB3E_
FNDA:0,_RINvNtCskzoFXwmdkFh_5lb_io9idle_send12poll_fn_sendNCNvMs0_NtNtNtCsgB3dp6qvXvn_5hyper6client4conn5http2INtBU_11SendRequestINtNtNtCsedaG9KDMExI_14http_body_util11combinators8box_body7BoxBodyNtNtCs7xJyEqPIUa9_5bytes5bytes5BytesINtNtCs8GO9KFlE3Dq_5alloc5boxed3BoxDNtNtCs2va5m0jqTTM_4core5error5ErrorNtNtB4e_6marker4SendNtB4L_4SyncEL_EEE12send_request0ECs3aqnWZMHlPP_5lb_l7
FNDA:0,_RINvNtCskzoFXwmdkFh_5lb_io9idle_send17idle_bounded_sendNCNvMs0_NtNtNtCsgB3dp6qvXvn_5hyper6client4conn5http1INtBZ_11SendRequestINtNtNtCsedaG9KDMExI_14http_body_util11combinators8box_body7BoxBodyNtNtCs7xJyEqPIUa9_5bytes5bytes5BytesNtNtCs3aqnWZMHlPP_5lb_l78h1_proxy11H1PumpAbortEE12send_request0INtNtCs2va5m0jqTTM_4core6result6ResultINtNtCsjFxw70quGA5_4http8response8ResponseNtNtNtB15_4body8incoming8IncomingENtNtB15_5error5ErrorEEB3J_
FNDA:0,_RINvNtCskzoFXwmdkFh_5lb_io9idle_send17idle_bounded_sendNCNvMs0_NtNtNtCsgB3dp6qvXvn_5hyper6client4conn5http1INtBZ_11SendRequestINtNtNtCsedaG9KDMExI_14http_body_util11combinators8box_body7BoxBodyNtNtCs7xJyEqPIUa9_5bytes5bytes5BytesNtNtCs3aqnWZMHlPP_5lb_l78h2_proxy9PumpAbortEE12send_request0INtNtCs2va5m0jqTTM_4core6result6ResultINtNtCsjFxw70quGA5_4http8response8ResponseNtNtNtB15_4body8incoming8IncomingENtNtB15_5error5ErrorEEB3J_
FNDA:0,_RINvNtCskzoFXwmdkFh_5lb_io9idle_send17idle_bounded_sendNCNvMs0_NtNtNtCsgB3dp6qvXvn_5hyper6client4conn5http2INtBZ_11SendRequestINtNtNtCsedaG9KDMExI_14http_body_util11combinators8box_body7BoxBodyNtNtCs7xJyEqPIUa9_5bytes5bytes5BytesINtNtCs8GO9KFlE3Dq_5alloc5boxed3BoxDNtNtCs2va5m0jqTTM_4core5error5ErrorNtNtB4j_6marker4SendNtB4Q_4SyncEL_EEE12send_request0INtNtB4j_6result6ResultINtNtCsjFxw70quGA5_4http8response8ResponseNtNtNtB15_4body8incoming8IncomingENtNtB15_5error5ErrorEECs3aqnWZMHlPP_5lb_l7
FNDA:0,_RNCINvNtCskzoFXwmdkFh_5lb_io9idle_send12poll_fn_sendNCNvMs0_NtNtNtCsgB3dp6qvXvn_5hyper6client4conn5http1INtBW_11SendRequestINtNtNtCsedaG9KDMExI_14http_body_util11combinators8box_body7BoxBodyNtNtCs7xJyEqPIUa9_5bytes5bytes5BytesNtNtCs3aqnWZMHlPP_5lb_l78h1_proxy11H1PumpAbortEE12send_request0E0B3G_
FNDA:0,_RNCINvNtCskzoFXwmdkFh_5lb_io9idle_send12poll_fn_sendNCNvMs0_NtNtNtCsgB3dp6qvXvn_5hyper6client4conn5http1INtBW_11SendRequestINtNtNtCsedaG9KDMExI_14http_body_util11combinators8box_body7BoxBodyNtNtCs7xJyEqPIUa9_5bytes5bytes5BytesNtNtCs3aqnWZMHlPP_5lb_l78h2_proxy9PumpAbortEE12send_request0E0B3G_
FNDA:0,_RNCINvNtCskzoFXwmdkFh_5lb_io9idle_send12poll_fn_sendNCNvMs0_NtNtNtCsgB3dp6qvXvn_5hyper6client4conn5http2INtBW_11SendRequestINtNtNtCsedaG9KDMExI_14http_body_util11combinators8box_body7BoxBodyNtNtCs7xJyEqPIUa9_5bytes5bytes5BytesINtNtCs8GO9KFlE3Dq_5alloc5boxed3BoxDNtNtCs2va5m0jqTTM_4core5error5ErrorNtNtB4g_6marker4SendNtB4N_4SyncEL_EEE12send_request0E0Cs3aqnWZMHlPP_5lb_l7
FNDA:0,_RNCINvNtCskzoFXwmdkFh_5lb_io9idle_send17idle_bounded_sendNCNvMs0_NtNtNtCsgB3dp6qvXvn_5hyper6client4conn5http1INtB11_11SendRequestINtNtNtCsedaG9KDMExI_14http_body_util11combinators8box_body7BoxBodyNtNtCs7xJyEqPIUa9_5bytes5bytes5BytesNtNtCs3aqnWZMHlPP_5lb_l78h1_proxy11H1PumpAbortEE12send_request0INtNtCs2va5m0jqTTM_4core6result6ResultINtNtCsjFxw70quGA5_4http8response8ResponseNtNtNtB17_4body8incoming8IncomingENtNtB17_5error5ErrorEE0B3M_
FNDA:0,_RNCINvNtCskzoFXwmdkFh_5lb_io9idle_send17idle_bounded_sendNCNvMs0_NtNtNtCsgB3dp6qvXvn_5hyper6client4conn5http1INtB11_11SendRequestINtNtNtCsedaG9KDMExI_14http_body_util11combinators8box_body7BoxBodyNtNtCs7xJyEqPIUa9_5bytes5bytes5BytesNtNtCs3aqnWZMHlPP_5lb_l78h2_proxy9PumpAbortEE12send_request0INtNtCs2va5m0jqTTM_4core6result6ResultINtNtCsjFxw70quGA5_4http8response8ResponseNtNtNtB17_4body8incoming8IncomingENtNtB17_5error5ErrorEE0B3M_
FNDA:0,_RNCINvNtCskzoFXwmdkFh_5lb_io9idle_send17idle_bounded_sendNCNvMs0_NtNtNtCsgB3dp6qvXvn_5hyper6client4conn5http2INtB11_11SendRequestINtNtNtCsedaG9KDMExI_14http_body_util11combinators8box_body7BoxBodyNtNtCs7xJyEqPIUa9_5bytes5bytes5BytesINtNtCs8GO9KFlE3Dq_5alloc5boxed3BoxDNtNtCs2va5m0jqTTM_4core5error5ErrorNtNtB4m_6marker4SendNtB4T_4SyncEL_EEE12send_request0INtNtB4m_6result6ResultINtNtCsjFxw70quGA5_4http8response8ResponseNtNtNtB17_4body8incoming8IncomingENtNtB17_5error5ErrorEE0Cs3aqnWZMHlPP_5lb_l7
FNDA:0,_RNCNCINvNtCskzoFXwmdkFh_5lb_io9idle_send12poll_fn_sendNCNvMs0_NtNtNtCsgB3dp6qvXvn_5hyper6client4conn5http1INtBY_11SendRequestINtNtNtCsedaG9KDMExI_14http_body_util11combinators8box_body7BoxBodyNtNtCs7xJyEqPIUa9_5bytes5bytes5BytesNtNtCs3aqnWZMHlPP_5lb_l78h1_proxy11H1PumpAbortEE12send_request0E00B3I_
FNDA:0,_RNCNCINvNtCskzoFXwmdkFh_5lb_io9idle_send12poll_fn_sendNCNvMs0_NtNtNtCsgB3dp6qvXvn_5hyper6client4conn5http1INtBY_11SendRequestINtNtNtCsedaG9KDMExI_14http_body_util11combinators8box_body7BoxBodyNtNtCs7xJyEqPIUa9_5bytes5bytes5BytesNtNtCs3aqnWZMHlPP_5lb_l78h2_proxy9PumpAbortEE12send_request0E00B3I_
FNDA:0,_RNCNCINvNtCskzoFXwmdkFh_5lb_io9idle_send12poll_fn_sendNCNvMs0_NtNtNtCsgB3dp6qvXvn_5hyper6client4conn5http2INtBY_11SendRequestINtNtNtCsedaG9KDMExI_14http_body_util11combinators8box_body7BoxBodyNtNtCs7xJyEqPIUa9_5bytes5bytes5BytesINtNtCs8GO9KFlE3Dq_5alloc5boxed3BoxDNtNtCs2va5m0jqTTM_4core5error5ErrorNtNtB4i_6marker4SendNtB4P_4SyncEL_EEE12send_request0E00Cs3aqnWZMHlPP_5lb_l7
FNDA:0,_RNCNCINvNtCskzoFXwmdkFh_5lb_io9idle_send17idle_bounded_sendNCNvMs0_NtNtNtCsgB3dp6qvXvn_5hyper6client4conn5http1INtB13_11SendRequestINtNtNtCsedaG9KDMExI_14http_body_util11combinators8box_body7BoxBodyNtNtCs7xJyEqPIUa9_5bytes5bytes5BytesNtNtCs3aqnWZMHlPP_5lb_l78h1_proxy11H1PumpAbortEE12send_request0INtNtCs2va5m0jqTTM_4core6result6ResultINtNtCsjFxw70quGA5_4http8response8ResponseNtNtNtB19_4body8incoming8IncomingENtNtB19_5error5ErrorEE00B3O_
FNDA:0,_RNCNCINvNtCskzoFXwmdkFh_5lb_io9idle_send17idle_bounded_sendNCNvMs0_NtNtNtCsgB3dp6qvXvn_5hyper6client4conn5http1INtB13_11SendRequestINtNtNtCsedaG9KDMExI_14http_body_util11combinators8box_body7BoxBodyNtNtCs7xJyEqPIUa9_5bytes5bytes5BytesNtNtCs3aqnWZMHlPP_5lb_l78h2_proxy9PumpAbortEE12send_request0INtNtCs2va5m0jqTTM_4core6result6ResultINtNtCsjFxw70quGA5_4http8response8ResponseNtNtNtB19_4body8incoming8IncomingENtNtB19_5error5ErrorEE00B3O_
FNDA:0,_RNCNCINvNtCskzoFXwmdkFh_5lb_io9idle_send17idle_bounded_sendNCNvMs0_NtNtNtCsgB3dp6qvXvn_5hyper6client4conn5http2INtB13_11SendRequestINtNtNtCsedaG9KDMExI_14http_body_util11combinators8box_body7BoxBodyNtNtCs7xJyEqPIUa9_5bytes5bytes5BytesINtNtCs8GO9KFlE3Dq_5alloc5boxed3BoxDNtNtCs2va5m0jqTTM_4core5error5ErrorNtNtB4o_6marker4SendNtB4V_4SyncEL_EEE12send_request0INtNtB4o_6result6ResultINtNtCsjFxw70quGA5_4http8response8ResponseNtNtNtB19_4body8incoming8IncomingENtNtB19_5error5ErrorEE00Cs3aqnWZMHlPP_5lb_l7
FNDA:0,_RINvNtCskzoFXwmdkFh_5lb_io9idle_send12poll_fn_sendpEB4_
FNDA:0,_RINvNtCskzoFXwmdkFh_5lb_io9idle_send17idle_bounded_sendppEB4_
FNDA:0,_RNCINvNtCskzoFXwmdkFh_5lb_io9idle_send12poll_fn_sendpE0B6_
FNDA:0,_RNCINvNtCskzoFXwmdkFh_5lb_io9idle_send17idle_bounded_sendppE0B6_
FNDA:0,_RNCNCINvNtCskzoFXwmdkFh_5lb_io9idle_send12poll_fn_sendpE00B8_
FNDA:0,_RNCNCINvNtCskzoFXwmdkFh_5lb_io9idle_send17idle_bounded_sendppE00B8_
FNDA:0,_RINvNtCsipEsb16Xo5l_5lb_io9idle_send12poll_fn_sendINtNtNtCs2va5m0jqTTM_4core6future7pending7PendingmEEB4_
FNDA:0,_RINvNtCsipEsb16Xo5l_5lb_io9idle_send12poll_fn_sendNCNCNvNtB2_5testss_32arm_i_chunked_progress_completes0s_0EB4_
FNDA:0,_RINvNtCsipEsb16Xo5l_5lb_io9idle_send12poll_fn_sendNCNCNvNtB2_5testss_39arm_iv_complete_then_fast_head_succeeds0s_0EB4_
FNDA:0,_RINvNtCsipEsb16Xo5l_5lb_io9idle_send12poll_fn_sendNCNvMs0_NtNtNtCsgB3dp6qvXvn_5hyper6client4conn5http2INtBU_11SendRequestINtNtNtCsedaG9KDMExI_14http_body_util11combinators8box_body7BoxBodyNtNtCs7xJyEqPIUa9_5bytes5bytes5BytesINtNtCs8GO9KFlE3Dq_5alloc5boxed3BoxDNtNtCs2va5m0jqTTM_4core5error5ErrorNtNtB4e_6marker4SendNtB4L_4SyncEL_EEE12send_request0EB4_
FNDA:0,_RINvNtCsipEsb16Xo5l_5lb_io9idle_send17idle_bounded_sendINtNtNtCs2va5m0jqTTM_4core6future7pending7PendingmEmEB4_
FNDA:0,_RINvNtCsipEsb16Xo5l_5lb_io9idle_send17idle_bounded_sendNCNCNvNtB2_5testss_32arm_i_chunked_progress_completes0s_0mEB4_
FNDA:0,_RINvNtCsipEsb16Xo5l_5lb_io9idle_send17idle_bounded_sendNCNCNvNtB2_5testss_39arm_iv_complete_then_fast_head_succeeds0s_0mEB4_
FNDA:0,_RINvNtCsipEsb16Xo5l_5lb_io9idle_send17idle_bounded_sendNCNvMs0_NtNtNtCsgB3dp6qvXvn_5hyper6client4conn5http2INtBZ_11SendRequestINtNtNtCsedaG9KDMExI_14http_body_util11combinators8box_body7BoxBodyNtNtCs7xJyEqPIUa9_5bytes5bytes5BytesINtNtCs8GO9KFlE3Dq_5alloc5boxed3BoxDNtNtCs2va5m0jqTTM_4core5error5ErrorNtNtB4j_6marker4SendNtB4Q_4SyncEL_EEE12send_request0INtNtB4j_6result6ResultINtNtCsjFxw70quGA5_4http8response8ResponseNtNtNtB15_4body8incoming8IncomingENtNtB15_5error5ErrorEEB4_
FNDA:0,_RNCINvNtCsipEsb16Xo5l_5lb_io9idle_send12poll_fn_sendINtNtNtCs2va5m0jqTTM_4core6future7pending7PendingmEE0B6_
FNDA:0,_RNCINvNtCsipEsb16Xo5l_5lb_io9idle_send12poll_fn_sendNCNCNvNtB4_5testss_32arm_i_chunked_progress_completes0s_0E0B6_
FNDA:0,_RNCINvNtCsipEsb16Xo5l_5lb_io9idle_send12poll_fn_sendNCNCNvNtB4_5testss_39arm_iv_complete_then_fast_head_succeeds0s_0E0B6_
FNDA:0,_RNCINvNtCsipEsb16Xo5l_5lb_io9idle_send12poll_fn_sendNCNvMs0_NtNtNtCsgB3dp6qvXvn_5hyper6client4conn5http2INtBW_11SendRequestINtNtNtCsedaG9KDMExI_14http_body_util11combinators8box_body7BoxBodyNtNtCs7xJyEqPIUa9_5bytes5bytes5BytesINtNtCs8GO9KFlE3Dq_5alloc5boxed3BoxDNtNtCs2va5m0jqTTM_4core5error5ErrorNtNtB4g_6marker4SendNtB4N_4SyncEL_EEE12send_request0E0B6_
FNDA:0,_RNCINvNtCsipEsb16Xo5l_5lb_io9idle_send17idle_bounded_sendINtNtNtCs2va5m0jqTTM_4core6future7pending7PendingmEmE0B6_
FNDA:0,_RNCINvNtCsipEsb16Xo5l_5lb_io9idle_send17idle_bounded_sendNCNCNvNtB4_5testss_32arm_i_chunked_progress_completes0s_0mE0B6_
FNDA:0,_RNCINvNtCsipEsb16Xo5l_5lb_io9idle_send17idle_bounded_sendNCNCNvNtB4_5testss_39arm_iv_complete_then_fast_head_succeeds0s_0mE0B6_
FNDA:0,_RNCINvNtCsipEsb16Xo5l_5lb_io9idle_send17idle_bounded_sendNCNvMs0_NtNtNtCsgB3dp6qvXvn_5hyper6client4conn5http2INtB11_11SendRequestINtNtNtCsedaG9KDMExI_14http_body_util11combinators8box_body7BoxBodyNtNtCs7xJyEqPIUa9_5bytes5bytes5BytesINtNtCs8GO9KFlE3Dq_5alloc5boxed3BoxDNtNtCs2va5m0jqTTM_4core5error5ErrorNtNtB4m_6marker4SendNtB4T_4SyncEL_EEE12send_request0INtNtB4m_6result6ResultINtNtCsjFxw70quGA5_4http8response8ResponseNtNtNtB17_4body8incoming8IncomingENtNtB17_5error5ErrorEE0B6_
FNDA:0,_RNCNCINvNtCsipEsb16Xo5l_5lb_io9idle_send12poll_fn_sendINtNtNtCs2va5m0jqTTM_4core6future7pending7PendingmEE00B8_
FNDA:0,_RNCNCINvNtCsipEsb16Xo5l_5lb_io9idle_send12poll_fn_sendNCNCNvNtB6_5testss_32arm_i_chunked_progress_completes0s_0E00B8_
FNDA:0,_RNCNCINvNtCsipEsb16Xo5l_5lb_io9idle_send12poll_fn_sendNCNCNvNtB6_5testss_39arm_iv_complete_then_fast_head_succeeds0s_0E00B8_
FNDA:0,_RNCNCINvNtCsipEsb16Xo5l_5lb_io9idle_send12poll_fn_sendNCNvMs0_NtNtNtCsgB3dp6qvXvn_5hyper6client4conn5http2INtBY_11SendRequestINtNtNtCsedaG9KDMExI_14http_body_util11combinators8box_body7BoxBodyNtNtCs7xJyEqPIUa9_5bytes5bytes5BytesINtNtCs8GO9KFlE3Dq_5alloc5boxed3BoxDNtNtCs2va5m0jqTTM_4core5error5ErrorNtNtB4i_6marker4SendNtB4P_4SyncEL_EEE12send_request0E00B8_
FNDA:0,_RNCNCINvNtCsipEsb16Xo5l_5lb_io9idle_send17idle_bounded_sendINtNtNtCs2va5m0jqTTM_4core6future7pending7PendingmEmE00B8_
FNDA:0,_RNCNCINvNtCsipEsb16Xo5l_5lb_io9idle_send17idle_bounded_sendNCNCNvNtB6_5testss_32arm_i_chunked_progress_completes0s_0mE00B8_
FNDA:0,_RNCNCINvNtCsipEsb16Xo5l_5lb_io9idle_send17idle_bounded_sendNCNCNvNtB6_5testss_39arm_iv_complete_then_fast_head_succeeds0s_0mE00B8_
FNDA:0,_RNCNCINvNtCsipEsb16Xo5l_5lb_io9idle_send17idle_bounded_sendNCNvMs0_NtNtNtCsgB3dp6qvXvn_5hyper6client4conn5http2INtB13_11SendRequestINtNtNtCsedaG9KDMExI_14http_body_util11combinators8box_body7BoxBodyNtNtCs7xJyEqPIUa9_5bytes5bytes5BytesINtNtCs8GO9KFlE3Dq_5alloc5boxed3BoxDNtNtCs2va5m0jqTTM_4core5error5ErrorNtNtB4o_6marker4SendNtB4V_4SyncEL_EEE12send_request0INtNtB4o_6result6ResultINtNtCsjFxw70quGA5_4http8response8ResponseNtNtNtB19_4body8incoming8IncomingENtNtB19_5error5ErrorEE00B8_
FNDA:0,_RNCNCNvNtNtCsipEsb16Xo5l_5lb_io9idle_send5testss_23arm_vi_late_bump_rearms00B9_
FNDA:0,_RNCNCNvNtNtCsipEsb16Xo5l_5lb_io9idle_send5testss_25arm_vii_tick_race_recheck00B9_
FNDA:0,_RNCNCNvNtNtCsipEsb16Xo5l_5lb_io9idle_send5testss_32arm_i_chunked_progress_completes00B9_
FNDA:0,_RNCNCNvNtNtCsipEsb16Xo5l_5lb_io9idle_send5testss_32arm_i_chunked_progress_completes0s_0B9_
FNDA:0,_RNCNCNvNtNtCsipEsb16Xo5l_5lb_io9idle_send5testss_39arm_iv_complete_then_fast_head_succeeds00B9_
FNDA:0,_RNCNCNvNtNtCsipEsb16Xo5l_5lb_io9idle_send5testss_39arm_iv_complete_then_fast_head_succeeds0s_0B9_
FNDA:0,_RNCNCNvNtNtCsipEsb16Xo5l_5lb_io9idle_send5testss_42arm_iii_complete_then_slow_head_fires_head00B9_
FNDA:0,_RNCNCNvNtNtCsipEsb16Xo5l_5lb_io9idle_send5testss_53arm_ix_lp_zero_bump_then_complete_fires_head_not_idle00B9_
FNDA:0,_RNCNvNtNtCsipEsb16Xo5l_5lb_io9idle_send5testss_23arm_vi_late_bump_rearms0B7_
FNDA:0,_RNCNvNtNtCsipEsb16Xo5l_5lb_io9idle_send5testss_25arm_vii_tick_race_recheck0B7_
FNDA:0,_RNCNvNtNtCsipEsb16Xo5l_5lb_io9idle_send5testss_27arm_ii_immediate_wedge_idle0B7_
FNDA:0,_RNCNvNtNtCsipEsb16Xo5l_5lb_io9idle_send5testss_27arm_v_zero_bump_scaled_idle0B7_
FNDA:0,_RNCNvNtNtCsipEsb16Xo5l_5lb_io9idle_send5testss_32arm_i_chunked_progress_completes0B7_
FNDA:0,_RNCNvNtNtCsipEsb16Xo5l_5lb_io9idle_send5testss_39arm_iv_complete_then_fast_head_succeeds0B7_
FNDA:0,_RNCNvNtNtCsipEsb16Xo5l_5lb_io9idle_send5testss_42arm_iii_complete_then_slow_head_fires_head0B7_
FNDA:0,_RNCNvNtNtCsipEsb16Xo5l_5lb_io9idle_send5testss_53arm_ix_lp_zero_bump_then_complete_fires_head_not_idle0B7_
FNDA:0,_RNvNtNtCsipEsb16Xo5l_5lb_io9idle_send5tests11bump_to_now
FNDA:0,_RNvNtNtCsipEsb16Xo5l_5lb_io9idle_send5tests5fresh
FNDA:0,_RNvNtNtCsipEsb16Xo5l_5lb_io9idle_send5testss_23arm_vi_late_bump_rearms
FNDA:0,_RNvNtNtCsipEsb16Xo5l_5lb_io9idle_send5testss_25arm_vii_tick_race_recheck
FNDA:0,_RNvNtNtCsipEsb16Xo5l_5lb_io9idle_send5testss_27arm_ii_immediate_wedge_idle
FNDA:0,_RNvNtNtCsipEsb16Xo5l_5lb_io9idle_send5testss_27arm_v_zero_bump_scaled_idle
FNDA:0,_RNvNtNtCsipEsb16Xo5l_5lb_io9idle_send5testss_32arm_i_chunked_progress_completes
FNDA:0,_RNvNtNtCsipEsb16Xo5l_5lb_io9idle_send5testss_39arm_iv_complete_then_fast_head_succeeds
FNDA:0,_RNvNtNtCsipEsb16Xo5l_5lb_io9idle_send5testss_42arm_iii_complete_then_slow_head_fires_head
FNDA:0,_RNvNtNtCsipEsb16Xo5l_5lb_io9idle_send5testss_53arm_ix_lp_zero_bump_then_complete_fires_head_not_idle
FNDA:0,_RINvNtCskzoFXwmdkFh_5lb_io9idle_send12poll_fn_sendNCNvMs0_NtNtNtCsgB3dp6qvXvn_5hyper6client4conn5http1INtBU_11SendRequestINtNtNtCsedaG9KDMExI_14http_body_util11combinators8box_body7BoxBodyNtNtCs7xJyEqPIUa9_5bytes5bytes5BytesNtNtCsahEFUsRJKn_5lb_l78h1_proxy11H1PumpAbortEE12send_request0EB3E_
FNDA:0,_RINvNtCskzoFXwmdkFh_5lb_io9idle_send12poll_fn_sendNCNvMs0_NtNtNtCsgB3dp6qvXvn_5hyper6client4conn5http1INtBU_11SendRequestINtNtNtCsedaG9KDMExI_14http_body_util11combinators8box_body7BoxBodyNtNtCs7xJyEqPIUa9_5bytes5bytes5BytesNtNtCsahEFUsRJKn_5lb_l78h2_proxy9PumpAbortEE12send_request0EB3E_
FNDA:0,_RINvNtCskzoFXwmdkFh_5lb_io9idle_send12poll_fn_sendNCNvMs0_NtNtNtCsgB3dp6qvXvn_5hyper6client4conn5http2INtBU_11SendRequestINtNtNtCsedaG9KDMExI_14http_body_util11combinators8box_body7BoxBodyNtNtCs7xJyEqPIUa9_5bytes5bytes5BytesINtNtCs8GO9KFlE3Dq_5alloc5boxed3BoxDNtNtCs2va5m0jqTTM_4core5error5ErrorNtNtB4e_6marker4SendNtB4L_4SyncEL_EEE12send_request0ECsahEFUsRJKn_5lb_l7
FNDA:0,_RINvNtCskzoFXwmdkFh_5lb_io9idle_send17idle_bounded_sendNCNvMs0_NtNtNtCsgB3dp6qvXvn_5hyper6client4conn5http1INtBZ_11SendRequestINtNtNtCsedaG9KDMExI_14http_body_util11combinators8box_body7BoxBodyNtNtCs7xJyEqPIUa9_5bytes5bytes5BytesNtNtCsahEFUsRJKn_5lb_l78h1_proxy11H1PumpAbortEE12send_request0INtNtCs2va5m0jqTTM_4core6result6ResultINtNtCsjFxw70quGA5_4http8response8ResponseNtNtNtB15_4body8incoming8IncomingENtNtB15_5error5ErrorEEB3J_
FNDA:0,_RINvNtCskzoFXwmdkFh_5lb_io9idle_send17idle_bounded_sendNCNvMs0_NtNtNtCsgB3dp6qvXvn_5hyper6client4conn5http1INtBZ_11SendRequestINtNtNtCsedaG9KDMExI_14http_body_util11combinators8box_body7BoxBodyNtNtCs7xJyEqPIUa9_5bytes5bytes5BytesNtNtCsahEFUsRJKn_5lb_l78h2_proxy9PumpAbortEE12send_request0INtNtCs2va5m0jqTTM_4core6result6ResultINtNtCsjFxw70quGA5_4http8response8ResponseNtNtNtB15_4body8incoming8IncomingENtNtB15_5error5ErrorEEB3J_
FNDA:0,_RINvNtCskzoFXwmdkFh_5lb_io9idle_send17idle_bounded_sendNCNvMs0_NtNtNtCsgB3dp6qvXvn_5hyper6client4conn5http2INtBZ_11SendRequestINtNtNtCsedaG9KDMExI_14http_body_util11combinators8box_body7BoxBodyNtNtCs7xJyEqPIUa9_5bytes5bytes5BytesINtNtCs8GO9KFlE3Dq_5alloc5boxed3BoxDNtNtCs2va5m0jqTTM_4core5error5ErrorNtNtB4j_6marker4SendNtB4Q_4SyncEL_EEE12send_request0INtNtB4j_6result6ResultINtNtCsjFxw70quGA5_4http8response8ResponseNtNtNtB15_4body8incoming8IncomingENtNtB15_5error5ErrorEECsahEFUsRJKn_5lb_l7
FNDA:0,_RNCINvNtCskzoFXwmdkFh_5lb_io9idle_send12poll_fn_sendNCNvMs0_NtNtNtCsgB3dp6qvXvn_5hyper6client4conn5http1INtBW_11SendRequestINtNtNtCsedaG9KDMExI_14http_body_util11combinators8box_body7BoxBodyNtNtCs7xJyEqPIUa9_5bytes5bytes5BytesNtNtCsahEFUsRJKn_5lb_l78h1_proxy11H1PumpAbortEE12send_request0E0B3G_
FNDA:0,_RNCINvNtCskzoFXwmdkFh_5lb_io9idle_send12poll_fn_sendNCNvMs0_NtNtNtCsgB3dp6qvXvn_5hyper6client4conn5http1INtBW_11SendRequestINtNtNtCsedaG9KDMExI_14http_body_util11combinators8box_body7BoxBodyNtNtCs7xJyEqPIUa9_5bytes5bytes5BytesNtNtCsahEFUsRJKn_5lb_l78h2_proxy9PumpAbortEE12send_request0E0B3G_
FNDA:0,_RNCINvNtCskzoFXwmdkFh_5lb_io9idle_send12poll_fn_sendNCNvMs0_NtNtNtCsgB3dp6qvXvn_5hyper6client4conn5http2INtBW_11SendRequestINtNtNtCsedaG9KDMExI_14http_body_util11combinators8box_body7BoxBodyNtNtCs7xJyEqPIUa9_5bytes5bytes5BytesINtNtCs8GO9KFlE3Dq_5alloc5boxed3BoxDNtNtCs2va5m0jqTTM_4core5error5ErrorNtNtB4g_6marker4SendNtB4N_4SyncEL_EEE12send_request0E0CsahEFUsRJKn_5lb_l7
FNDA:0,_RNCINvNtCskzoFXwmdkFh_5lb_io9idle_send17idle_bounded_sendNCNvMs0_NtNtNtCsgB3dp6qvXvn_5hyper6client4conn5http1INtB11_11SendRequestINtNtNtCsedaG9KDMExI_14http_body_util11combinators8box_body7BoxBodyNtNtCs7xJyEqPIUa9_5bytes5bytes5BytesNtNtCsahEFUsRJKn_5lb_l78h1_proxy11H1PumpAbortEE12send_request0INtNtCs2va5m0jqTTM_4core6result6ResultINtNtCsjFxw70quGA5_4http8response8ResponseNtNtNtB17_4body8incoming8IncomingENtNtB17_5error5ErrorEE0B3M_
FNDA:0,_RNCINvNtCskzoFXwmdkFh_5lb_io9idle_send17idle_bounded_sendNCNvMs0_NtNtNtCsgB3dp6qvXvn_5hyper6client4conn5http1INtB11_11SendRequestINtNtNtCsedaG9KDMExI_14http_body_util11combinators8box_body7BoxBodyNtNtCs7xJyEqPIUa9_5bytes5bytes5BytesNtNtCsahEFUsRJKn_5lb_l78h2_proxy9PumpAbortEE12send_request0INtNtCs2va5m0jqTTM_4core6result6ResultINtNtCsjFxw70quGA5_4http8response8ResponseNtNtNtB17_4body8incoming8IncomingENtNtB17_5error5ErrorEE0B3M_
FNDA:0,_RNCINvNtCskzoFXwmdkFh_5lb_io9idle_send17idle_bounded_sendNCNvMs0_NtNtNtCsgB3dp6qvXvn_5hyper6client4conn5http2INtB11_11SendRequestINtNtNtCsedaG9KDMExI_14http_body_util11combinators8box_body7BoxBodyNtNtCs7xJyEqPIUa9_5bytes5bytes5BytesINtNtCs8GO9KFlE3Dq_5alloc5boxed3BoxDNtNtCs2va5m0jqTTM_4core5error5ErrorNtNtB4m_6marker4SendNtB4T_4SyncEL_EEE12send_request0INtNtB4m_6result6ResultINtNtCsjFxw70quGA5_4http8response8ResponseNtNtNtB17_4body8incoming8IncomingENtNtB17_5error5ErrorEE0CsahEFUsRJKn_5lb_l7
FNDA:0,_RNCNCINvNtCskzoFXwmdkFh_5lb_io9idle_send12poll_fn_sendNCNvMs0_NtNtNtCsgB3dp6qvXvn_5hyper6client4conn5http1INtBY_11SendRequestINtNtNtCsedaG9KDMExI_14http_body_util11combinators8box_body7BoxBodyNtNtCs7xJyEqPIUa9_5bytes5bytes5BytesNtNtCsahEFUsRJKn_5lb_l78h1_proxy11H1PumpAbortEE12send_request0E00B3I_
FNDA:0,_RNCNCINvNtCskzoFXwmdkFh_5lb_io9idle_send12poll_fn_sendNCNvMs0_NtNtNtCsgB3dp6qvXvn_5hyper6client4conn5http1INtBY_11SendRequestINtNtNtCsedaG9KDMExI_14http_body_util11combinators8box_body7BoxBodyNtNtCs7xJyEqPIUa9_5bytes5bytes5BytesNtNtCsahEFUsRJKn_5lb_l78h2_proxy9PumpAbortEE12send_request0E00B3I_
FNDA:0,_RNCNCINvNtCskzoFXwmdkFh_5lb_io9idle_send12poll_fn_sendNCNvMs0_NtNtNtCsgB3dp6qvXvn_5hyper6client4conn5http2INtBY_11SendRequestINtNtNtCsedaG9KDMExI_14http_body_util11combinators8box_body7BoxBodyNtNtCs7xJyEqPIUa9_5bytes5bytes5BytesINtNtCs8GO9KFlE3Dq_5alloc5boxed3BoxDNtNtCs2va5m0jqTTM_4core5error5ErrorNtNtB4i_6marker4SendNtB4P_4SyncEL_EEE12send_request0E00CsahEFUsRJKn_5lb_l7
FNDA:0,_RNCNCINvNtCskzoFXwmdkFh_5lb_io9idle_send17idle_bounded_sendNCNvMs0_NtNtNtCsgB3dp6qvXvn_5hyper6client4conn5http1INtB13_11SendRequestINtNtNtCsedaG9KDMExI_14http_body_util11combinators8box_body7BoxBodyNtNtCs7xJyEqPIUa9_5bytes5bytes5BytesNtNtCsahEFUsRJKn_5lb_l78h1_proxy11H1PumpAbortEE12send_request0INtNtCs2va5m0jqTTM_4core6result6ResultINtNtCsjFxw70quGA5_4http8response8ResponseNtNtNtB19_4body8incoming8IncomingENtNtB19_5error5ErrorEE00B3O_
FNDA:0,_RNCNCINvNtCskzoFXwmdkFh_5lb_io9idle_send17idle_bounded_sendNCNvMs0_NtNtNtCsgB3dp6qvXvn_5hyper6client4conn5http1INtB13_11SendRequestINtNtNtCsedaG9KDMExI_14http_body_util11combinators8box_body7BoxBodyNtNtCs7xJyEqPIUa9_5bytes5bytes5BytesNtNtCsahEFUsRJKn_5lb_l78h2_proxy9PumpAbortEE12send_request0INtNtCs2va5m0jqTTM_4core6result6ResultINtNtCsjFxw70quGA5_4http8response8ResponseNtNtNtB19_4body8incoming8IncomingENtNtB19_5error5ErrorEE00B3O_
FNDA:0,_RNCNCINvNtCskzoFXwmdkFh_5lb_io9idle_send17idle_bounded_sendNCNvMs0_NtNtNtCsgB3dp6qvXvn_5hyper6client4conn5http2INtB13_11SendRequestINtNtNtCsedaG9KDMExI_14http_body_util11combinators8box_body7BoxBodyNtNtCs7xJyEqPIUa9_5bytes5bytes5BytesINtNtCs8GO9KFlE3Dq_5alloc5boxed3BoxDNtNtCs2va5m0jqTTM_4core5error5ErrorNtNtB4o_6marker4SendNtB4V_4SyncEL_EEE12send_request0INtNtB4o_6result6ResultINtNtCsjFxw70quGA5_4http8response8ResponseNtNtNtB19_4body8incoming8IncomingENtNtB19_5error5ErrorEE00CsahEFUsRJKn_5lb_l7
FNF:32
FNH:0
DA:93,0
DA:94,0
DA:95,0
DA:96,0
DA:97,0
DA:98,0
DA:99,0
DA:100,0
DA:101,0
DA:102,0
DA:103,0
DA:104,0
DA:105,0
DA:106,0
DA:107,0
DA:108,0
DA:109,0
DA:110,0
DA:111,0
DA:112,0
DA:113,0
DA:114,0
DA:115,0
DA:118,0
DA:120,0
DA:121,0
DA:123,0
DA:124,0
DA:127,0
DA:136,0
DA:137,0
DA:139,0
DA:140,0
DA:141,0
DA:142,0
DA:143,0
DA:144,0
DA:145,0
DA:146,0
DA:147,0
DA:148,0
DA:149,0
DA:150,0
DA:151,0
DA:152,0
DA:153,0
DA:154,0
DA:155,0
DA:158,0
DA:159,0
DA:160,0
DA:161,0
DA:162,0
DA:163,0
DA:164,0
DA:165,0
DA:166,0
DA:167,0
DA:168,0
DA:171,0
DA:172,0
DA:173,0
DA:177,0
DA:183,0
DA:184,0
DA:185,0
DA:198,0
DA:199,0
DA:200,0
DA:201,0
DA:202,0
DA:203,0
DA:204,0
DA:206,0
DA:207,0
DA:208,0
DA:209,0
DA:210,0
DA:214,0
DA:215,0
DA:216,0
DA:217,0
DA:218,0
DA:219,0
DA:220,0
DA:221,0
DA:222,0
DA:223,0
DA:224,0
DA:225,0
DA:226,0
DA:227,0
DA:228,0
DA:229,0
DA:230,0
DA:231,0
DA:232,0
DA:233,0
DA:234,0
DA:235,0
DA:236,0
DA:237,0
DA:238,0
DA:239,0
DA:240,0
DA:241,0
DA:242,0
DA:243,0
DA:244,0
DA:245,0
DA:246,0
DA:247,0
DA:248,0
DA:249,0
DA:253,0
DA:254,0
DA:255,0
DA:256,0
DA:257,0
DA:258,0
DA:259,0
DA:260,0
DA:261,0
DA:262,0
DA:263,0
DA:264,0
DA:265,0
DA:266,0
DA:267,0
DA:268,0
DA:269,0
DA:270,0
DA:271,0
DA:272,0
DA:273,0
DA:274,0
DA:275,0
DA:276,0
DA:277,0
DA:278,0
DA:283,0
DA:284,0
DA:285,0
DA:286,0
DA:287,0
DA:288,0
DA:289,0
DA:290,0
DA:291,0
DA:292,0
DA:293,0
DA:294,0
DA:295,0
DA:296,0
DA:297,0
DA:298,0
DA:299,0
DA:300,0
DA:301,0
DA:302,0
DA:303,0
DA:304,0
DA:305,0
DA:306,0
DA:307,0
DA:308,0
DA:309,0
DA:310,0
DA:311,0
DA:312,0
DA:313,0
DA:314,0
DA:315,0
DA:316,0
DA:317,0
DA:318,0
DA:319,0
DA:320,0
DA:321,0
DA:322,0
DA:323,0
DA:324,0
DA:325,0
DA:326,0
DA:327,0
DA:328,0
DA:329,0
DA:330,0
DA:334,0
DA:335,0
DA:336,0
DA:337,0
DA:338,0
DA:339,0
DA:340,0
DA:341,0
DA:342,0
DA:343,0
DA:344,0
DA:345,0
DA:346,0
DA:347,0
DA:348,0
DA:349,0
DA:350,0
DA:351,0
DA:352,0
DA:353,0
DA:354,0
DA:355,0
DA:356,0
DA:357,0
DA:358,0
DA:359,0
DA:360,0
DA:361,0
DA:367,0
DA:368,0
DA:369,0
DA:370,0
DA:371,0
DA:372,0
DA:373,0
DA:374,0
DA:375,0
DA:376,0
DA:377,0
DA:378,0
DA:379,0
DA:380,0
DA:381,0
DA:382,0
DA:383,0
DA:384,0
DA:385,0
DA:386,0
DA:387,0
DA:388,0
DA:389,0
DA:390,0
DA:395,0
DA:396,0
DA:397,0
DA:398,0
DA:399,0
DA:400,0
DA:401,0
DA:402,0
DA:403,0
DA:404,0
DA:405,0
DA:406,0
DA:407,0
DA:408,0
DA:409,0
DA:410,0
DA:411,0
DA:412,0
DA:413,0
DA:414,0
DA:415,0
DA:416,0
DA:417,0
DA:418,0
DA:419,0
DA:420,0
DA:421,0
DA:422,0
DA:423,0
DA:424,0
DA:425,0
DA:426,0
DA:427,0
DA:428,0
DA:435,0
DA:436,0
DA:437,0
DA:438,0
DA:439,0
DA:440,0
DA:441,0
DA:442,0
DA:443,0
DA:444,0
DA:445,0
DA:446,0
DA:447,0
DA:448,0
DA:449,0
DA:450,0
DA:451,0
DA:452,0
DA:453,0
DA:454,0
DA:455,0
DA:456,0
DA:457,0
DA:458,0
DA:459,0
DA:460,0
DA:461,0
DA:462,0
DA:463,0
DA:464,0
DA:465,0
DA:466,0
DA:467,0
DA:468,0
DA:487,0
DA:488,0
DA:489,0
DA:490,0
DA:491,0
DA:492,0
DA:493,0
DA:494,0
DA:495,0
DA:496,0
DA:497,0
DA:498,0
DA:499,0
DA:500,0
DA:501,0
DA:502,0
DA:503,0
DA:504,0
DA:505,0
DA:506,0
DA:507,0
DA:508,0
DA:509,0
DA:510,0
DA:511,0
DA:512,0
DA:513,0
DA:514,0
DA:515,0
DA:516,0
DA:517,0
DA:518,0
DA:519,0
DA:520,0
DA:521,0
DA:522,0
DA:523,0
DA:524,0
DA:525,0
DA:526,0
DA:527,0
DA:528,0
DA:529,0
DA:530,0
BRF:0
BRH:0
LF:596
LH:0
end_of_record
SF:/home/ubuntu/Code/ExpressGateway/.claude/worktrees/s15-builder/crates/lb-io/src/lib.rs
FN:79,_RNvCskzoFXwmdkFh_5lb_io14detect_backend
FN:46,_RNvMCskzoFXwmdkFh_5lb_ioNtB2_9IoBackend6as_str
FN:123,_RNvMs0_CskzoFXwmdkFh_5lb_ioNtB5_7Runtime12with_backend
FN:169,_RNvMs0_CskzoFXwmdkFh_5lb_ioNtB5_7Runtime14connect_socket
FN:143,_RNvMs0_CskzoFXwmdkFh_5lb_ioNtB5_7Runtime14low_water_mark
FN:136,_RNvMs0_CskzoFXwmdkFh_5lb_ioNtB5_7Runtime15high_water_mark
FN:153,_RNvMs0_CskzoFXwmdkFh_5lb_ioNtB5_7Runtime15listener_socket
FN:114,_RNvMs0_CskzoFXwmdkFh_5lb_ioNtB5_7Runtime3new
FN:187,_RNvMs0_CskzoFXwmdkFh_5lb_ioNtB5_7Runtime6listen
FN:129,_RNvMs0_CskzoFXwmdkFh_5lb_ioNtB5_7Runtime7backend
FN:203,_RNvMs0_CskzoFXwmdkFh_5lb_ioNtB5_7Runtime7connect
FN:213,_RNvXs1_CskzoFXwmdkFh_5lb_ioNtB5_7RuntimeNtNtCs2va5m0jqTTM_4core7default7Default7default
FN:55,_RNvXs_CskzoFXwmdkFh_5lb_ioNtB4_9IoBackendNtNtCs2va5m0jqTTM_4core3fmt7Display3fmt
FN:79,_RNvCsipEsb16Xo5l_5lb_io14detect_backend
FN:46,_RNvMCsipEsb16Xo5l_5lb_ioNtB2_9IoBackend6as_str
FN:123,_RNvMs0_CsipEsb16Xo5l_5lb_ioNtB5_7Runtime12with_backend
FN:169,_RNvMs0_CsipEsb16Xo5l_5lb_ioNtB5_7Runtime14connect_socket
FN:143,_RNvMs0_CsipEsb16Xo5l_5lb_ioNtB5_7Runtime14low_water_mark
FN:136,_RNvMs0_CsipEsb16Xo5l_5lb_ioNtB5_7Runtime15high_water_mark
FN:153,_RNvMs0_CsipEsb16Xo5l_5lb_ioNtB5_7Runtime15listener_socket
FN:114,_RNvMs0_CsipEsb16Xo5l_5lb_ioNtB5_7Runtime3new
FN:129,_RNvMs0_CsipEsb16Xo5l_5lb_ioNtB5_7Runtime7backend
FN:203,_RNvMs0_CsipEsb16Xo5l_5lb_ioNtB5_7Runtime7connect
FN:213,_RNvXs1_CsipEsb16Xo5l_5lb_ioNtB5_7RuntimeNtNtCs2va5m0jqTTM_4core7default7Default7default
FN:55,_RNvXs_CsipEsb16Xo5l_5lb_ioNtB4_9IoBackendNtNtCs2va5m0jqTTM_4core3fmt7Display3fmt
FN:187,_RNvMs0_CsipEsb16Xo5l_5lb_ioNtB5_7Runtime6listen
FN:337,_RNvNtCsipEsb16Xo5l_5lb_io5tests15getsockopt_bool
FN:225,_RNvNtCsipEsb16Xo5l_5lb_io5testss_13backend_names
FN:244,_RNvNtCsipEsb16Xo5l_5lb_io5testss_18watermarks_present
FN:283,_RNvNtCsipEsb16Xo5l_5lb_io5testss_19nop_roundtrip_linux
FN:233,_RNvNtCsipEsb16Xo5l_5lb_io5testss_20runtime_with_backend
FN:294,_RNvNtCsipEsb16Xo5l_5lb_io5testss_23socket_options_listener
FN:274,_RNvNtCsipEsb16Xo5l_5lb_io5testss_34detect_backend_returns_real_choice
FN:251,_RNvNtCsipEsb16Xo5l_5lb_io5testss_36runtime_listener_and_connect_sockets
FNDA:0,_RNvCskzoFXwmdkFh_5lb_io14detect_backend
FNDA:0,_RNvMCskzoFXwmdkFh_5lb_ioNtB2_9IoBackend6as_str
FNDA:0,_RNvMs0_CskzoFXwmdkFh_5lb_ioNtB5_7Runtime12with_backend
FNDA:0,_RNvMs0_CskzoFXwmdkFh_5lb_ioNtB5_7Runtime14connect_socket
FNDA:0,_RNvMs0_CskzoFXwmdkFh_5lb_ioNtB5_7Runtime14low_water_mark
FNDA:0,_RNvMs0_CskzoFXwmdkFh_5lb_ioNtB5_7Runtime15high_water_mark
FNDA:0,_RNvMs0_CskzoFXwmdkFh_5lb_ioNtB5_7Runtime15listener_socket
FNDA:0,_RNvMs0_CskzoFXwmdkFh_5lb_ioNtB5_7Runtime3new
FNDA:0,_RNvMs0_CskzoFXwmdkFh_5lb_ioNtB5_7Runtime6listen
FNDA:0,_RNvMs0_CskzoFXwmdkFh_5lb_ioNtB5_7Runtime7backend
FNDA:0,_RNvMs0_CskzoFXwmdkFh_5lb_ioNtB5_7Runtime7connect
FNDA:0,_RNvXs1_CskzoFXwmdkFh_5lb_ioNtB5_7RuntimeNtNtCs2va5m0jqTTM_4core7default7Default7default
FNDA:0,_RNvXs_CskzoFXwmdkFh_5lb_ioNtB4_9IoBackendNtNtCs2va5m0jqTTM_4core3fmt7Display3fmt
FNDA:0,_RNvCsipEsb16Xo5l_5lb_io14detect_backend
FNDA:0,_RNvMCsipEsb16Xo5l_5lb_ioNtB2_9IoBackend6as_str
FNDA:0,_RNvMs0_CsipEsb16Xo5l_5lb_ioNtB5_7Runtime12with_backend
FNDA:0,_RNvMs0_CsipEsb16Xo5l_5lb_ioNtB5_7Runtime14connect_socket
FNDA:0,_RNvMs0_CsipEsb16Xo5l_5lb_ioNtB5_7Runtime14low_water_mark
FNDA:0,_RNvMs0_CsipEsb16Xo5l_5lb_ioNtB5_7Runtime15high_water_mark
FNDA:0,_RNvMs0_CsipEsb16Xo5l_5lb_ioNtB5_7Runtime15listener_socket
FNDA:0,_RNvMs0_CsipEsb16Xo5l_5lb_ioNtB5_7Runtime3new
FNDA:0,_RNvMs0_CsipEsb16Xo5l_5lb_ioNtB5_7Runtime7backend
FNDA:0,_RNvMs0_CsipEsb16Xo5l_5lb_ioNtB5_7Runtime7connect
FNDA:0,_RNvXs1_CsipEsb16Xo5l_5lb_ioNtB5_7RuntimeNtNtCs2va5m0jqTTM_4core7default7Default7default
FNDA:0,_RNvXs_CsipEsb16Xo5l_5lb_ioNtB4_9IoBackendNtNtCs2va5m0jqTTM_4core3fmt7Display3fmt
FNDA:0,_RNvMs0_CsipEsb16Xo5l_5lb_ioNtB5_7Runtime6listen
FNDA:0,_RNvNtCsipEsb16Xo5l_5lb_io5tests15getsockopt_bool
FNDA:0,_RNvNtCsipEsb16Xo5l_5lb_io5testss_13backend_names
FNDA:0,_RNvNtCsipEsb16Xo5l_5lb_io5testss_18watermarks_present
FNDA:0,_RNvNtCsipEsb16Xo5l_5lb_io5testss_19nop_roundtrip_linux
FNDA:0,_RNvNtCsipEsb16Xo5l_5lb_io5testss_20runtime_with_backend
FNDA:0,_RNvNtCsipEsb16Xo5l_5lb_io5testss_23socket_options_listener
FNDA:0,_RNvNtCsipEsb16Xo5l_5lb_io5testss_34detect_backend_returns_real_choice
FNDA:0,_RNvNtCsipEsb16Xo5l_5lb_io5testss_36runtime_listener_and_connect_sockets
FNF:21
FNH:0
DA:46,0
DA:47,0
DA:48,0
DA:49,0
DA:51,0
DA:55,0
DA:56,0
DA:57,0
DA:79,0
DA:80,0
DA:81,0
DA:82,0
DA:83,0
DA:84,0
DA:85,0
DA:87,0
DA:89,0
DA:99,0
DA:114,0
DA:115,0
DA:116,0
DA:117,0
DA:118,0
DA:123,0
DA:124,0
DA:125,0
DA:129,0
DA:130,0
DA:131,0
DA:136,0
DA:137,0
DA:138,0
DA:143,0
DA:144,0
DA:145,0
DA:153,0
DA:154,0
DA:155,0
DA:156,0
DA:157,0
DA:158,0
DA:159,0
DA:160,0
DA:161,0
DA:169,0
DA:170,0
DA:171,0
DA:172,0
DA:173,0
DA:174,0
DA:175,0
DA:176,0
DA:177,0
DA:187,0
DA:188,0
DA:189,0
DA:190,0
DA:191,0
DA:192,0
DA:193,0
DA:203,0
DA:204,0
DA:205,0
DA:206,0
DA:207,0
DA:208,0
DA:209,0
DA:213,0
DA:214,0
DA:215,0
DA:225,0
DA:226,0
DA:227,0
DA:228,0
DA:229,0
DA:230,0
DA:233,0
DA:234,0
DA:235,0
DA:236,0
DA:237,0
DA:239,0
DA:240,0
DA:241,0
DA:244,0
DA:245,0
DA:246,0
DA:247,0
DA:248,0
DA:251,0
DA:253,0
DA:254,0
DA:255,0
DA:256,0
DA:257,0
DA:258,0
DA:259,0
DA:260,0
DA:261,0
DA:262,0
DA:263,0
DA:264,0
DA:265,0
DA:266,0
DA:267,0
DA:268,0
DA:269,0
DA:270,0
DA:271,0
DA:274,0
DA:275,0
DA:276,0
DA:277,0
DA:278,0
DA:279,0
DA:283,0
DA:284,0
DA:285,0
DA:286,0
DA:287,0
DA:288,0
DA:290,0
DA:294,0
DA:297,0
DA:298,0
DA:299,0
DA:300,0
DA:301,0
DA:302,0
DA:303,0
DA:304,0
DA:305,0
DA:306,0
DA:307,0
DA:308,0
DA:309,0
DA:310,0
DA:311,0
DA:312,0
DA:313,0
DA:314,0
DA:315,0
DA:337,0
DA:338,0
DA:339,0
DA:340,0
DA:341,0
DA:342,0
DA:343,0
DA:344,0
DA:345,0
DA:346,0
DA:347,0
DA:348,0
DA:349,0
DA:350,0
DA:351,0
DA:352,0
DA:353,0
DA:356,0
DA:357,0
DA:359,0
DA:360,0
BRF:0
BRH:0
LF:163
LH:0
end_of_record
SF:/home/ubuntu/Code/ExpressGateway/.claude/worktrees/s15-builder/crates/lb-io/src/pool.rs
FN:210,_RNCNvMs0_NtCskzoFXwmdkFh_5lb_io4poolNtB7_7TcpPool13acquire_async0Cs6AViLBCwg8R_7lb_quic
FN:283,_RNCNvMs0_NtCskzoFXwmdkFh_5lb_io4poolNtB7_7TcpPool14dial_new_async0Cs6AViLBCwg8R_7lb_quic
FN:157,_RNCNvMs0_NtCskzoFXwmdkFh_5lb_io4poolNtB7_7TcpPool14idle_count_for0B9_
FN:470,_RNCNvMs2_NtCskzoFXwmdkFh_5lb_io4poolNtB7_9PooledTcp14return_to_pool0B9_
FN:150,_RNvMs0_NtCskzoFXwmdkFh_5lb_io4poolNtB5_7TcpPool10idle_count
FN:210,_RNvMs0_NtCskzoFXwmdkFh_5lb_io4poolNtB5_7TcpPool13acquire_async
FN:283,_RNvMs0_NtCskzoFXwmdkFh_5lb_io4poolNtB5_7TcpPool14dial_new_async
FN:156,_RNvMs0_NtCskzoFXwmdkFh_5lb_io4poolNtB5_7TcpPool14idle_count_for
FN:236,_RNvMs0_NtCskzoFXwmdkFh_5lb_io4poolNtB5_7TcpPool20validate_and_upgrade
FN:134,_RNvMs0_NtCskzoFXwmdkFh_5lb_io4poolNtB5_7TcpPool3new
FN:181,_RNvMs0_NtCskzoFXwmdkFh_5lb_io4poolNtB5_7TcpPool7acquire
FN:266,_RNvMs0_NtCskzoFXwmdkFh_5lb_io4poolNtB5_7TcpPool8dial_new
FN:222,_RNvMs0_NtCskzoFXwmdkFh_5lb_io4poolNtB5_7TcpPool8pop_idle
FN:362,_RNvMs2_NtCskzoFXwmdkFh_5lb_io4poolNtB5_9PooledTcp10stream_mut
FN:412,_RNvMs2_NtCskzoFXwmdkFh_5lb_io4poolNtB5_9PooledTcp11is_reusable
FN:421,_RNvMs2_NtCskzoFXwmdkFh_5lb_io4poolNtB5_9PooledTcp11take_stream
FN:406,_RNvMs2_NtCskzoFXwmdkFh_5lb_io4poolNtB5_9PooledTcp12set_reusable
FN:427,_RNvMs2_NtCskzoFXwmdkFh_5lb_io4poolNtB5_9PooledTcp14return_to_pool
FN:380,_RNvMs2_NtCskzoFXwmdkFh_5lb_io4poolNtB5_9PooledTcp3age
FN:342,_RNvMs2_NtCskzoFXwmdkFh_5lb_io4poolNtB5_9PooledTcp3new
FN:368,_RNvMs2_NtCskzoFXwmdkFh_5lb_io4poolNtB5_9PooledTcp6stream
FN:374,_RNvMs2_NtCskzoFXwmdkFh_5lb_io4poolNtB5_9PooledTcp9peer_addr
FN:502,_RNvNtCskzoFXwmdkFh_5lb_io4pool11probe_alive
FN:86,_RNvXNtCskzoFXwmdkFh_5lb_io4poolNtB2_10PoolConfigNtNtCs2va5m0jqTTM_4core7default7Default7default
FN:330,_RNvXs1_NtCskzoFXwmdkFh_5lb_io4poolNtB5_9PooledTcpNtNtCs2va5m0jqTTM_4core3fmt5Debug3fmt
FN:487,_RNvXs3_NtCskzoFXwmdkFh_5lb_io4poolNtB5_9PooledTcpNtNtNtCs2va5m0jqTTM_4core3ops4drop4Drop4drop
FN:120,_RNvXs_NtCskzoFXwmdkFh_5lb_io4poolNtB4_7TcpPoolNtNtCs2va5m0jqTTM_4core3fmt5Debug3fmt
FN:210,_RNCNvMs0_NtCskzoFXwmdkFh_5lb_io4poolNtB7_7TcpPool13acquire_async0B9_
FN:283,_RNCNvMs0_NtCskzoFXwmdkFh_5lb_io4poolNtB7_7TcpPool14dial_new_async0B9_
FN:210,_RNCNvMs0_NtCsipEsb16Xo5l_5lb_io4poolNtB7_7TcpPool13acquire_async0B9_
FN:283,_RNCNvMs0_NtCsipEsb16Xo5l_5lb_io4poolNtB7_7TcpPool14dial_new_async0B9_
FN:157,_RNCNvMs0_NtCsipEsb16Xo5l_5lb_io4poolNtB7_7TcpPool14idle_count_for0B9_
FN:470,_RNCNvMs2_NtCsipEsb16Xo5l_5lb_io4poolNtB7_9PooledTcp14return_to_pool0B9_
FN:150,_RNvMs0_NtCsipEsb16Xo5l_5lb_io4poolNtB5_7TcpPool10idle_count
FN:210,_RNvMs0_NtCsipEsb16Xo5l_5lb_io4poolNtB5_7TcpPool13acquire_async
FN:283,_RNvMs0_NtCsipEsb16Xo5l_5lb_io4poolNtB5_7TcpPool14dial_new_async
FN:156,_RNvMs0_NtCsipEsb16Xo5l_5lb_io4poolNtB5_7TcpPool14idle_count_for
FN:236,_RNvMs0_NtCsipEsb16Xo5l_5lb_io4poolNtB5_7TcpPool20validate_and_upgrade
FN:134,_RNvMs0_NtCsipEsb16Xo5l_5lb_io4poolNtB5_7TcpPool3new
FN:181,_RNvMs0_NtCsipEsb16Xo5l_5lb_io4poolNtB5_7TcpPool7acquire
FN:266,_RNvMs0_NtCsipEsb16Xo5l_5lb_io4poolNtB5_7TcpPool8dial_new
FN:222,_RNvMs0_NtCsipEsb16Xo5l_5lb_io4poolNtB5_7TcpPool8pop_idle
FN:362,_RNvMs2_NtCsipEsb16Xo5l_5lb_io4poolNtB5_9PooledTcp10stream_mut
FN:421,_RNvMs2_NtCsipEsb16Xo5l_5lb_io4poolNtB5_9PooledTcp11take_stream
FN:406,_RNvMs2_NtCsipEsb16Xo5l_5lb_io4poolNtB5_9PooledTcp12set_reusable
FN:427,_RNvMs2_NtCsipEsb16Xo5l_5lb_io4poolNtB5_9PooledTcp14return_to_pool
FN:342,_RNvMs2_NtCsipEsb16Xo5l_5lb_io4poolNtB5_9PooledTcp3new
FN:502,_RNvNtCsipEsb16Xo5l_5lb_io4pool11probe_alive
FN:86,_RNvXNtCsipEsb16Xo5l_5lb_io4poolNtB2_10PoolConfigNtNtCs2va5m0jqTTM_4core7default7Default7default
FN:330,_RNvXs1_NtCsipEsb16Xo5l_5lb_io4poolNtB5_9PooledTcpNtNtCs2va5m0jqTTM_4core3fmt5Debug3fmt
FN:487,_RNvXs3_NtCsipEsb16Xo5l_5lb_io4poolNtB5_9PooledTcpNtNtNtCs2va5m0jqTTM_4core3ops4drop4Drop4drop
FN:412,_RNvMs2_NtCsipEsb16Xo5l_5lb_io4poolNtB5_9PooledTcp11is_reusable
FN:380,_RNvMs2_NtCsipEsb16Xo5l_5lb_io4poolNtB5_9PooledTcp3age
FN:368,_RNvMs2_NtCsipEsb16Xo5l_5lb_io4poolNtB5_9PooledTcp6stream
FN:374,_RNvMs2_NtCsipEsb16Xo5l_5lb_io4poolNtB5_9PooledTcp9peer_addr
FN:120,_RNvXs_NtCsipEsb16Xo5l_5lb_io4poolNtB4_7TcpPoolNtNtCs2va5m0jqTTM_4core3fmt5Debug3fmt
FN:544,_RNCNCNvNtNtCsipEsb16Xo5l_5lb_io4pool5tests13echo_listener00B9_
FN:537,_RNCNvNtNtCsipEsb16Xo5l_5lb_io4pool5tests13echo_listener0B7_
FN:673,_RNCNvNtNtCsipEsb16Xo5l_5lb_io4pool5testss_18total_max_enforced0B7_
FN:650,_RNCNvNtNtCsipEsb16Xo5l_5lb_io4pool5testss_21per_peer_max_enforced0B7_
FN:752,_RNCNvNtNtCsipEsb16Xo5l_5lb_io4pool5testss_26non_reusable_is_not_parked0B7_
FN:862,_RNCNvNtNtCsipEsb16Xo5l_5lb_io4pool5testss_27acquire_async_timeout_fires0B7_
FN:839,_RNCNvNtNtCsipEsb16Xo5l_5lb_io4pool5testss_30acquire_async_dials_then_parks0B7_
FN:763,_RNCNvNtNtCsipEsb16Xo5l_5lb_io4pool5testss_30take_stream_detaches_from_pool0B7_
FN:731,_RNCNvNtNtCsipEsb16Xo5l_5lb_io4pool5testss_32idle_timeout_discards_on_acquire0B7_
FN:705,_RNCNvNtNtCsipEsb16Xo5l_5lb_io4pool5testss_34max_age_expiry_discards_on_acquire0B7_
FN:619,_RNCNvNtNtCsipEsb16Xo5l_5lb_io4pool5testss_37probe_discards_peer_closed_connection0B7_
FN:777,_RNCNvNtNtCsipEsb16Xo5l_5lb_io4pool5testss_37size_invariant_holds_under_random_ops0B7_
FN:593,_RNCNvNtNtCsipEsb16Xo5l_5lb_io4pool5testss_40acquire_then_release_returns_same_socket0B7_
FN:531,_RNvNtNtCsipEsb16Xo5l_5lb_io4pool5tests13echo_listener
FN:562,_RNvNtNtCsipEsb16Xo5l_5lb_io4pool5tests19shutdown_first_idle
FN:571,_RNvNtNtCsipEsb16Xo5l_5lb_io4pool5tests9pool_with
FN:673,_RNvNtNtCsipEsb16Xo5l_5lb_io4pool5testss_18total_max_enforced
FN:650,_RNvNtNtCsipEsb16Xo5l_5lb_io4pool5testss_21per_peer_max_enforced
FN:752,_RNvNtNtCsipEsb16Xo5l_5lb_io4pool5testss_26non_reusable_is_not_parked
FN:862,_RNvNtNtCsipEsb16Xo5l_5lb_io4pool5testss_27acquire_async_timeout_fires
FN:839,_RNvNtNtCsipEsb16Xo5l_5lb_io4pool5testss_30acquire_async_dials_then_parks
FN:763,_RNvNtNtCsipEsb16Xo5l_5lb_io4pool5testss_30take_stream_detaches_from_pool
FN:584,_RNvNtNtCsipEsb16Xo5l_5lb_io4pool5testss_32defaults_match_prompt_section_21
FN:731,_RNvNtNtCsipEsb16Xo5l_5lb_io4pool5testss_32idle_timeout_discards_on_acquire
FN:705,_RNvNtNtCsipEsb16Xo5l_5lb_io4pool5testss_34max_age_expiry_discards_on_acquire
FN:894,_RNvNtNtCsipEsb16Xo5l_5lb_io4pool5testss_35no_spawn_blocking_in_pool_dial_path
FN:619,_RNvNtNtCsipEsb16Xo5l_5lb_io4pool5testss_37probe_discards_peer_closed_connection
FN:777,_RNvNtNtCsipEsb16Xo5l_5lb_io4pool5testss_37size_invariant_holds_under_random_ops
FN:593,_RNvNtNtCsipEsb16Xo5l_5lb_io4pool5testss_40acquire_then_release_returns_same_socket
FN:210,_RNCNvMs0_NtCskzoFXwmdkFh_5lb_io4poolNtB7_7TcpPool13acquire_async0Cs55RPzE5gwp1_7lb_quic
FN:283,_RNCNvMs0_NtCskzoFXwmdkFh_5lb_io4poolNtB7_7TcpPool14dial_new_async0Cs55RPzE5gwp1_7lb_quic
FN:210,_RNCNvMs0_NtCskzoFXwmdkFh_5lb_io4poolNtB7_7TcpPool13acquire_async0Cs9KdHnaECcGB_20round8_body_overread
FN:283,_RNCNvMs0_NtCskzoFXwmdkFh_5lb_io4poolNtB7_7TcpPool14dial_new_async0Cs9KdHnaECcGB_20round8_body_overread
FNDA:0,_RNCNvMs0_NtCskzoFXwmdkFh_5lb_io4poolNtB7_7TcpPool13acquire_async0Cs6AViLBCwg8R_7lb_quic
FNDA:0,_RNCNvMs0_NtCskzoFXwmdkFh_5lb_io4poolNtB7_7TcpPool14dial_new_async0Cs6AViLBCwg8R_7lb_quic
FNDA:0,_RNCNvMs0_NtCskzoFXwmdkFh_5lb_io4poolNtB7_7TcpPool14idle_count_for0B9_
FNDA:0,_RNCNvMs2_NtCskzoFXwmdkFh_5lb_io4poolNtB7_9PooledTcp14return_to_pool0B9_
FNDA:0,_RNvMs0_NtCskzoFXwmdkFh_5lb_io4poolNtB5_7TcpPool10idle_count
FNDA:0,_RNvMs0_NtCskzoFXwmdkFh_5lb_io4poolNtB5_7TcpPool13acquire_async
FNDA:0,_RNvMs0_NtCskzoFXwmdkFh_5lb_io4poolNtB5_7TcpPool14dial_new_async
FNDA:0,_RNvMs0_NtCskzoFXwmdkFh_5lb_io4poolNtB5_7TcpPool14idle_count_for
FNDA:0,_RNvMs0_NtCskzoFXwmdkFh_5lb_io4poolNtB5_7TcpPool20validate_and_upgrade
FNDA:0,_RNvMs0_NtCskzoFXwmdkFh_5lb_io4poolNtB5_7TcpPool3new
FNDA:0,_RNvMs0_NtCskzoFXwmdkFh_5lb_io4poolNtB5_7TcpPool7acquire
FNDA:0,_RNvMs0_NtCskzoFXwmdkFh_5lb_io4poolNtB5_7TcpPool8dial_new
FNDA:0,_RNvMs0_NtCskzoFXwmdkFh_5lb_io4poolNtB5_7TcpPool8pop_idle
FNDA:0,_RNvMs2_NtCskzoFXwmdkFh_5lb_io4poolNtB5_9PooledTcp10stream_mut
FNDA:0,_RNvMs2_NtCskzoFXwmdkFh_5lb_io4poolNtB5_9PooledTcp11is_reusable
FNDA:0,_RNvMs2_NtCskzoFXwmdkFh_5lb_io4poolNtB5_9PooledTcp11take_stream
FNDA:0,_RNvMs2_NtCskzoFXwmdkFh_5lb_io4poolNtB5_9PooledTcp12set_reusable
FNDA:0,_RNvMs2_NtCskzoFXwmdkFh_5lb_io4poolNtB5_9PooledTcp14return_to_pool
FNDA:0,_RNvMs2_NtCskzoFXwmdkFh_5lb_io4poolNtB5_9PooledTcp3age
FNDA:0,_RNvMs2_NtCskzoFXwmdkFh_5lb_io4poolNtB5_9PooledTcp3new
FNDA:0,_RNvMs2_NtCskzoFXwmdkFh_5lb_io4poolNtB5_9PooledTcp6stream
FNDA:0,_RNvMs2_NtCskzoFXwmdkFh_5lb_io4poolNtB5_9PooledTcp9peer_addr
FNDA:0,_RNvNtCskzoFXwmdkFh_5lb_io4pool11probe_alive
FNDA:0,_RNvXNtCskzoFXwmdkFh_5lb_io4poolNtB2_10PoolConfigNtNtCs2va5m0jqTTM_4core7default7Default7default
FNDA:0,_RNvXs1_NtCskzoFXwmdkFh_5lb_io4poolNtB5_9PooledTcpNtNtCs2va5m0jqTTM_4core3fmt5Debug3fmt
FNDA:0,_RNvXs3_NtCskzoFXwmdkFh_5lb_io4poolNtB5_9PooledTcpNtNtNtCs2va5m0jqTTM_4core3ops4drop4Drop4drop
FNDA:0,_RNvXs_NtCskzoFXwmdkFh_5lb_io4poolNtB4_7TcpPoolNtNtCs2va5m0jqTTM_4core3fmt5Debug3fmt
FNDA:0,_RNCNvMs0_NtCskzoFXwmdkFh_5lb_io4poolNtB7_7TcpPool13acquire_async0B9_
FNDA:0,_RNCNvMs0_NtCskzoFXwmdkFh_5lb_io4poolNtB7_7TcpPool14dial_new_async0B9_
FNDA:0,_RNCNvMs0_NtCsipEsb16Xo5l_5lb_io4poolNtB7_7TcpPool13acquire_async0B9_
FNDA:0,_RNCNvMs0_NtCsipEsb16Xo5l_5lb_io4poolNtB7_7TcpPool14dial_new_async0B9_
FNDA:0,_RNCNvMs0_NtCsipEsb16Xo5l_5lb_io4poolNtB7_7TcpPool14idle_count_for0B9_
FNDA:0,_RNCNvMs2_NtCsipEsb16Xo5l_5lb_io4poolNtB7_9PooledTcp14return_to_pool0B9_
FNDA:0,_RNvMs0_NtCsipEsb16Xo5l_5lb_io4poolNtB5_7TcpPool10idle_count
FNDA:0,_RNvMs0_NtCsipEsb16Xo5l_5lb_io4poolNtB5_7TcpPool13acquire_async
FNDA:0,_RNvMs0_NtCsipEsb16Xo5l_5lb_io4poolNtB5_7TcpPool14dial_new_async
FNDA:0,_RNvMs0_NtCsipEsb16Xo5l_5lb_io4poolNtB5_7TcpPool14idle_count_for
FNDA:0,_RNvMs0_NtCsipEsb16Xo5l_5lb_io4poolNtB5_7TcpPool20validate_and_upgrade
FNDA:0,_RNvMs0_NtCsipEsb16Xo5l_5lb_io4poolNtB5_7TcpPool3new
FNDA:0,_RNvMs0_NtCsipEsb16Xo5l_5lb_io4poolNtB5_7TcpPool7acquire
FNDA:0,_RNvMs0_NtCsipEsb16Xo5l_5lb_io4poolNtB5_7TcpPool8dial_new
FNDA:0,_RNvMs0_NtCsipEsb16Xo5l_5lb_io4poolNtB5_7TcpPool8pop_idle
FNDA:0,_RNvMs2_NtCsipEsb16Xo5l_5lb_io4poolNtB5_9PooledTcp10stream_mut
FNDA:0,_RNvMs2_NtCsipEsb16Xo5l_5lb_io4poolNtB5_9PooledTcp11take_stream
FNDA:0,_RNvMs2_NtCsipEsb16Xo5l_5lb_io4poolNtB5_9PooledTcp12set_reusable
FNDA:0,_RNvMs2_NtCsipEsb16Xo5l_5lb_io4poolNtB5_9PooledTcp14return_to_pool
FNDA:0,_RNvMs2_NtCsipEsb16Xo5l_5lb_io4poolNtB5_9PooledTcp3new
FNDA:0,_RNvNtCsipEsb16Xo5l_5lb_io4pool11probe_alive
FNDA:0,_RNvXNtCsipEsb16Xo5l_5lb_io4poolNtB2_10PoolConfigNtNtCs2va5m0jqTTM_4core7default7Default7default
FNDA:0,_RNvXs1_NtCsipEsb16Xo5l_5lb_io4poolNtB5_9PooledTcpNtNtCs2va5m0jqTTM_4core3fmt5Debug3fmt
FNDA:0,_RNvXs3_NtCsipEsb16Xo5l_5lb_io4poolNtB5_9PooledTcpNtNtNtCs2va5m0jqTTM_4core3ops4drop4Drop4drop
FNDA:0,_RNvMs2_NtCsipEsb16Xo5l_5lb_io4poolNtB5_9PooledTcp11is_reusable
FNDA:0,_RNvMs2_NtCsipEsb16Xo5l_5lb_io4poolNtB5_9PooledTcp3age
FNDA:0,_RNvMs2_NtCsipEsb16Xo5l_5lb_io4poolNtB5_9PooledTcp6stream
FNDA:0,_RNvMs2_NtCsipEsb16Xo5l_5lb_io4poolNtB5_9PooledTcp9peer_addr
FNDA:0,_RNvXs_NtCsipEsb16Xo5l_5lb_io4poolNtB4_7TcpPoolNtNtCs2va5m0jqTTM_4core3fmt5Debug3fmt
FNDA:0,_RNCNCNvNtNtCsipEsb16Xo5l_5lb_io4pool5tests13echo_listener00B9_
FNDA:0,_RNCNvNtNtCsipEsb16Xo5l_5lb_io4pool5tests13echo_listener0B7_
FNDA:0,_RNCNvNtNtCsipEsb16Xo5l_5lb_io4pool5testss_18total_max_enforced0B7_
FNDA:0,_RNCNvNtNtCsipEsb16Xo5l_5lb_io4pool5testss_21per_peer_max_enforced0B7_
FNDA:0,_RNCNvNtNtCsipEsb16Xo5l_5lb_io4pool5testss_26non_reusable_is_not_parked0B7_
FNDA:0,_RNCNvNtNtCsipEsb16Xo5l_5lb_io4pool5testss_27acquire_async_timeout_fires0B7_
FNDA:0,_RNCNvNtNtCsipEsb16Xo5l_5lb_io4pool5testss_30acquire_async_dials_then_parks0B7_
FNDA:0,_RNCNvNtNtCsipEsb16Xo5l_5lb_io4pool5testss_30take_stream_detaches_from_pool0B7_
FNDA:0,_RNCNvNtNtCsipEsb16Xo5l_5lb_io4pool5testss_32idle_timeout_discards_on_acquire0B7_
FNDA:0,_RNCNvNtNtCsipEsb16Xo5l_5lb_io4pool5testss_34max_age_expiry_discards_on_acquire0B7_
FNDA:0,_RNCNvNtNtCsipEsb16Xo5l_5lb_io4pool5testss_37probe_discards_peer_closed_connection0B7_
FNDA:0,_RNCNvNtNtCsipEsb16Xo5l_5lb_io4pool5testss_37size_invariant_holds_under_random_ops0B7_
FNDA:0,_RNCNvNtNtCsipEsb16Xo5l_5lb_io4pool5testss_40acquire_then_release_returns_same_socket0B7_
FNDA:0,_RNvNtNtCsipEsb16Xo5l_5lb_io4pool5tests13echo_listener
FNDA:0,_RNvNtNtCsipEsb16Xo5l_5lb_io4pool5tests19shutdown_first_idle
FNDA:0,_RNvNtNtCsipEsb16Xo5l_5lb_io4pool5tests9pool_with
FNDA:0,_RNvNtNtCsipEsb16Xo5l_5lb_io4pool5testss_18total_max_enforced
FNDA:0,_RNvNtNtCsipEsb16Xo5l_5lb_io4pool5testss_21per_peer_max_enforced
FNDA:0,_RNvNtNtCsipEsb16Xo5l_5lb_io4pool5testss_26non_reusable_is_not_parked
FNDA:0,_RNvNtNtCsipEsb16Xo5l_5lb_io4pool5testss_27acquire_async_timeout_fires
FNDA:0,_RNvNtNtCsipEsb16Xo5l_5lb_io4pool5testss_30acquire_async_dials_then_parks
FNDA:0,_RNvNtNtCsipEsb16Xo5l_5lb_io4pool5testss_30take_stream_detaches_from_pool
FNDA:0,_RNvNtNtCsipEsb16Xo5l_5lb_io4pool5testss_32defaults_match_prompt_section_21
FNDA:0,_RNvNtNtCsipEsb16Xo5l_5lb_io4pool5testss_32idle_timeout_discards_on_acquire
FNDA:0,_RNvNtNtCsipEsb16Xo5l_5lb_io4pool5testss_34max_age_expiry_discards_on_acquire
FNDA:0,_RNvNtNtCsipEsb16Xo5l_5lb_io4pool5testss_35no_spawn_blocking_in_pool_dial_path
FNDA:0,_RNvNtNtCsipEsb16Xo5l_5lb_io4pool5testss_37probe_discards_peer_closed_connection
FNDA:0,_RNvNtNtCsipEsb16Xo5l_5lb_io4pool5testss_37size_invariant_holds_under_random_ops
FNDA:0,_RNvNtNtCsipEsb16Xo5l_5lb_io4pool5testss_40acquire_then_release_returns_same_socket
FNDA:0,_RNCNvMs0_NtCskzoFXwmdkFh_5lb_io4poolNtB7_7TcpPool13acquire_async0Cs55RPzE5gwp1_7lb_quic
FNDA:0,_RNCNvMs0_NtCskzoFXwmdkFh_5lb_io4poolNtB7_7TcpPool14dial_new_async0Cs55RPzE5gwp1_7lb_quic
FNDA:0,_RNCNvMs0_NtCskzoFXwmdkFh_5lb_io4poolNtB7_7TcpPool13acquire_async0Cs9KdHnaECcGB_20round8_body_overread
FNDA:0,_RNCNvMs0_NtCskzoFXwmdkFh_5lb_io4poolNtB7_7TcpPool14dial_new_async0Cs9KdHnaECcGB_20round8_body_overread
FNF:56
FNH:0
DA:86,0
DA:87,0
DA:88,0
DA:89,0
DA:90,0
DA:91,0
DA:92,0
DA:93,0
DA:94,0
DA:120,0
DA:121,0
DA:122,0
DA:123,0
DA:124,0
DA:125,0
DA:126,0
DA:134,0
DA:135,0
DA:136,0
DA:137,0
DA:138,0
DA:139,0
DA:140,0
DA:141,0
DA:142,0
DA:143,0
DA:144,0
DA:150,0
DA:151,0
DA:152,0
DA:156,0
DA:157,0
DA:158,0
DA:181,0
DA:182,0
DA:183,0
DA:184,0
DA:185,0
DA:186,0
DA:189,0
DA:190,0
DA:210,0
DA:211,0
DA:212,0
DA:213,0
DA:214,0
DA:215,0
DA:218,0
DA:219,0
DA:222,0
DA:223,0
DA:224,0
DA:225,0
DA:226,0
DA:227,0
DA:228,0
DA:229,0
DA:230,0
DA:231,0
DA:236,0
DA:237,0
DA:238,0
DA:239,0
DA:240,0
DA:241,0
DA:242,0
DA:243,0
DA:244,0
DA:245,0
DA:246,0
DA:247,0
DA:248,0
DA:249,0
DA:250,0
DA:251,0
DA:252,0
DA:253,0
DA:254,0
DA:255,0
DA:256,0
DA:257,0
DA:258,0
DA:259,0
DA:260,0
DA:261,0
DA:263,0
DA:266,0
DA:267,0
DA:268,0
DA:269,0
DA:270,0
DA:271,0
DA:272,0
DA:273,0
DA:274,0
DA:275,0
DA:276,0
DA:277,0
DA:283,0
DA:284,0
DA:285,0
DA:286,0
DA:287,0
DA:288,0
DA:289,0
DA:290,0
DA:291,0
DA:292,0
DA:293,0
DA:294,0
DA:295,0
DA:296,0
DA:299,0
DA:300,0
DA:301,0
DA:302,0
DA:330,0
DA:331,0
DA:332,0
DA:333,0
DA:334,0
DA:335,0
DA:336,0
DA:337,0
DA:338,0
DA:342,0
DA:343,0
DA:344,0
DA:345,0
DA:346,0
DA:347,0
DA:348,0
DA:349,0
DA:350,0
DA:351,0
DA:352,0
DA:353,0
DA:354,0
DA:355,0
DA:362,0
DA:363,0
DA:364,0
DA:368,0
DA:369,0
DA:370,0
DA:374,0
DA:375,0
DA:376,0
DA:380,0
DA:381,0
DA:382,0
DA:406,0
DA:407,0
DA:408,0
DA:412,0
DA:413,0
DA:414,0
DA:421,0
DA:422,0
DA:423,0
DA:424,0
DA:425,0
DA:427,0
DA:428,0
DA:429,0
DA:431,0
DA:432,0
DA:434,0
DA:435,0
DA:436,0
DA:437,0
DA:438,0
DA:439,0
DA:440,0
DA:441,0
DA:445,0
DA:446,0
DA:447,0
DA:448,0
DA:449,0
DA:452,0
DA:453,0
DA:454,0
DA:455,0
DA:456,0
DA:457,0
DA:458,0
DA:459,0
DA:460,0
DA:461,0
DA:462,0
DA:463,0
DA:464,0
DA:465,0
DA:466,0
DA:467,0
DA:468,0
DA:469,0
DA:470,0
DA:471,0
DA:472,0
DA:473,0
DA:474,0
DA:475,0
DA:476,0
DA:479,0
DA:480,0
DA:481,0
DA:482,0
DA:483,0
DA:487,0
DA:488,0
DA:489,0
DA:502,0
DA:505,0
DA:506,0
DA:507,0
DA:508,0
DA:509,0
DA:510,0
DA:511,0
DA:512,0
DA:513,0
DA:514,0
DA:515,0
DA:531,0
DA:532,0
DA:533,0
DA:534,0
DA:535,0
DA:536,0
DA:537,0
DA:538,0
DA:539,0
DA:540,0
DA:541,0
DA:542,0
DA:543,0
DA:544,0
DA:545,0
DA:547,0
DA:548,0
DA:549,0
DA:550,0
DA:551,0
DA:552,0
DA:556,0
DA:557,0
DA:558,0
DA:559,0
DA:560,0
DA:562,0
DA:563,0
DA:564,0
DA:565,0
DA:566,0
DA:567,0
DA:568,0
DA:569,0
DA:571,0
DA:572,0
DA:573,0
DA:574,0
DA:575,0
DA:576,0
DA:577,0
DA:578,0
DA:579,0
DA:580,0
DA:581,0
DA:584,0
DA:585,0
DA:586,0
DA:587,0
DA:588,0
DA:589,0
DA:590,0
DA:593,0
DA:594,0
DA:595,0
DA:596,0
DA:597,0
DA:598,0
DA:599,0
DA:600,0
DA:601,0
DA:602,0
DA:603,0
DA:604,0
DA:605,0
DA:606,0
DA:607,0
DA:608,0
DA:609,0
DA:610,0
DA:611,0
DA:612,0
DA:613,0
DA:614,0
DA:615,0
DA:616,0
DA:619,0
DA:620,0
DA:621,0
DA:622,0
DA:623,0
DA:624,0
DA:625,0
DA:626,0
DA:627,0
DA:628,0
DA:629,0
DA:630,0
DA:631,0
DA:632,0
DA:633,0
DA:634,0
DA:635,0
DA:636,0
DA:637,0
DA:638,0
DA:639,0
DA:640,0
DA:641,0
DA:642,0
DA:643,0
DA:644,0
DA:645,0
DA:646,0
DA:647,0
DA:650,0
DA:651,0
DA:652,0
DA:653,0
DA:654,0
DA:655,0
DA:656,0
DA:657,0
DA:658,0
DA:659,0
DA:660,0
DA:661,0
DA:662,0
DA:663,0
DA:664,0
DA:665,0
DA:666,0
DA:667,0
DA:668,0
DA:669,0
DA:670,0
DA:673,0
DA:674,0
DA:675,0
DA:676,0
DA:677,0
DA:678,0
DA:679,0
DA:680,0
DA:681,0
DA:682,0
DA:683,0
DA:684,0
DA:685,0
DA:686,0
DA:687,0
DA:688,0
DA:689,0
DA:690,0
DA:691,0
DA:692,0
DA:693,0
DA:694,0
DA:695,0
DA:696,0
DA:697,0
DA:698,0
DA:699,0
DA:700,0
DA:701,0
DA:702,0
DA:705,0
DA:706,0
DA:707,0
DA:708,0
DA:709,0
DA:710,0
DA:711,0
DA:712,0
DA:713,0
DA:714,0
DA:715,0
DA:716,0
DA:717,0
DA:718,0
DA:719,0
DA:720,0
DA:721,0
DA:722,0
DA:723,0
DA:724,0
DA:725,0
DA:726,0
DA:727,0
DA:728,0
DA:731,0
DA:732,0
DA:733,0
DA:734,0
DA:735,0
DA:736,0
DA:737,0
DA:738,0
DA:739,0
DA:740,0
DA:741,0
DA:742,0
DA:743,0
DA:744,0
DA:745,0
DA:746,0
DA:747,0
DA:748,0
DA:749,0
DA:752,0
DA:753,0
DA:754,0
DA:755,0
DA:756,0
DA:757,0
DA:758,0
DA:759,0
DA:760,0
DA:763,0
DA:764,0
DA:765,0
DA:766,0
DA:767,0
DA:768,0
DA:769,0
DA:770,0
DA:777,0
DA:778,0
DA:779,0
DA:780,0
DA:781,0
DA:782,0
DA:783,0
DA:784,0
DA:785,0
DA:786,0
DA:787,0
DA:788,0
DA:789,0
DA:790,0
DA:791,0
DA:792,0
DA:793,0
DA:794,0
DA:795,0
DA:796,0
DA:797,0
DA:798,0
DA:799,0
DA:800,0
DA:801,0
DA:802,0
DA:803,0
DA:804,0
DA:805,0
DA:806,0
DA:807,0
DA:808,0
DA:809,0
DA:810,0
DA:811,0
DA:812,0
DA:813,0
DA:814,0
DA:815,0
DA:816,0
DA:817,0
DA:818,0
DA:819,0
DA:820,0
DA:821,0
DA:822,0
DA:823,0
DA:824,0
DA:825,0
DA:826,0
DA:827,0
DA:828,0
DA:829,0
DA:830,0
DA:831,0
DA:832,0
DA:839,0
DA:840,0
DA:841,0
DA:842,0
DA:843,0
DA:844,0
DA:845,0
DA:846,0
DA:847,0
DA:848,0
DA:849,0
DA:850,0
DA:851,0
DA:852,0
DA:853,0
DA:854,0
DA:855,0
DA:856,0
DA:862,0
DA:863,0
DA:864,0
DA:865,0
DA:866,0
DA:867,0
DA:868,0
DA:869,0
DA:870,0
DA:871,0
DA:872,0
DA:873,0
DA:874,0
DA:875,0
DA:876,0
DA:877,0
DA:878,0
DA:879,0
DA:880,0
DA:881,0
DA:882,0
DA:883,0
DA:884,0
DA:885,0
DA:886,0
DA:894,0
DA:895,0
DA:896,0
DA:897,0
DA:898,0
DA:899,0
DA:900,0
DA:901,0
DA:902,0
DA:903,0
DA:904,0
DA:905,0
DA:906,0
DA:908,0
DA:909,0
DA:910,0
DA:911,0
DA:913,0
BRF:0
BRH:0
LF:787
LH:0
end_of_record
SF:/home/ubuntu/Code/ExpressGateway/.claude/worktrees/s15-builder/crates/lb-io/src/quic_pool.rs
FN:364,_RNCNCNvMs1_NtCskzoFXwmdkFh_5lb_io9quic_poolNtB9_16QuicUpstreamPool8dial_new00Cs6AViLBCwg8R_7lb_quic
FN:371,_RNCNCNvMs1_NtCskzoFXwmdkFh_5lb_io9quic_poolNtB9_16QuicUpstreamPool8dial_new0s0_0Cs6AViLBCwg8R_7lb_quic
FN:368,_RNCNCNvMs1_NtCskzoFXwmdkFh_5lb_io9quic_poolNtB9_16QuicUpstreamPool8dial_new0s_0Cs6AViLBCwg8R_7lb_quic
FN:306,_RNCNvMs1_NtCskzoFXwmdkFh_5lb_io9quic_poolNtB7_16QuicUpstreamPool14probe_liveness0Cs6AViLBCwg8R_7lb_quic
FN:264,_RNCNvMs1_NtCskzoFXwmdkFh_5lb_io9quic_poolNtB7_16QuicUpstreamPool7acquire0Cs6AViLBCwg8R_7lb_quic
FN:351,_RNCNvMs1_NtCskzoFXwmdkFh_5lb_io9quic_poolNtB7_16QuicUpstreamPool8dial_new0Cs6AViLBCwg8R_7lb_quic
FN:237,_RNCNvMs1_NtCskzoFXwmdkFh_5lb_io9quic_poolNtB7_16QuicUpstreamPool14idle_count_for0B9_
FN:522,_RNCNvXs4_NtCskzoFXwmdkFh_5lb_io9quic_poolNtB7_10PooledQuicNtNtNtCs2va5m0jqTTM_4core3ops4drop4Drop4drop0B9_
FN:230,_RNvMs1_NtCskzoFXwmdkFh_5lb_io9quic_poolNtB5_16QuicUpstreamPool10idle_count
FN:249,_RNvMs1_NtCskzoFXwmdkFh_5lb_io9quic_poolNtB5_16QuicUpstreamPool11fresh_dials
FN:236,_RNvMs1_NtCskzoFXwmdkFh_5lb_io9quic_poolNtB5_16QuicUpstreamPool14idle_count_for
FN:243,_RNvMs1_NtCskzoFXwmdkFh_5lb_io9quic_poolNtB5_16QuicUpstreamPool14probe_discards
FN:306,_RNvMs1_NtCskzoFXwmdkFh_5lb_io9quic_poolNtB5_16QuicUpstreamPool14probe_liveness
FN:211,_RNvMs1_NtCskzoFXwmdkFh_5lb_io9quic_poolNtB5_16QuicUpstreamPool3new
FN:264,_RNvMs1_NtCskzoFXwmdkFh_5lb_io9quic_poolNtB5_16QuicUpstreamPool7acquire
FN:351,_RNvMs1_NtCskzoFXwmdkFh_5lb_io9quic_poolNtB5_16QuicUpstreamPool8dial_new
FN:291,_RNvMs1_NtCskzoFXwmdkFh_5lb_io9quic_poolNtB5_16QuicUpstreamPool8pop_idle
FN:475,_RNvMs3_NtCskzoFXwmdkFh_5lb_io9quic_poolNtB5_10PooledQuic12set_reusable
FN:464,_RNvMs3_NtCskzoFXwmdkFh_5lb_io9quic_poolNtB5_10PooledQuic3get
FN:469,_RNvMs3_NtCskzoFXwmdkFh_5lb_io9quic_poolNtB5_10PooledQuic7get_mut
FN:483,_RNvMs3_NtCskzoFXwmdkFh_5lb_io9quic_poolNtB5_10PooledQuic9take_conn
FN:131,_RNvMs_NtCskzoFXwmdkFh_5lb_io9quic_poolNtB4_16UpstreamQuicConn10connection
FN:166,_RNvMs_NtCskzoFXwmdkFh_5lb_io9quic_poolNtB4_16UpstreamQuicConn10created_at
FN:136,_RNvMs_NtCskzoFXwmdkFh_5lb_io9quic_poolNtB4_16UpstreamQuicConn14connection_mut
FN:160,_RNvMs_NtCskzoFXwmdkFh_5lb_io9quic_poolNtB4_16UpstreamQuicConn3cid
FN:148,_RNvMs_NtCskzoFXwmdkFh_5lb_io9quic_poolNtB4_16UpstreamQuicConn4peer
FN:154,_RNvMs_NtCskzoFXwmdkFh_5lb_io9quic_poolNtB4_16UpstreamQuicConn5local
FN:142,_RNvMs_NtCskzoFXwmdkFh_5lb_io9quic_poolNtB4_16UpstreamQuicConn6socket
FN:89,_RNvXNtCskzoFXwmdkFh_5lb_io9quic_poolNtB2_14QuicPoolConfigNtNtCs2va5m0jqTTM_4core7default7Default7default
FN:195,_RNvXs0_NtCskzoFXwmdkFh_5lb_io9quic_poolNtB5_16QuicUpstreamPoolNtNtCs2va5m0jqTTM_4core3fmt5Debug3fmt
FN:451,_RNvXs2_NtCskzoFXwmdkFh_5lb_io9quic_poolNtB5_10PooledQuicNtNtCs2va5m0jqTTM_4core3fmt5Debug3fmt
FN:494,_RNvXs4_NtCskzoFXwmdkFh_5lb_io9quic_poolNtB5_10PooledQuicNtNtNtCs2va5m0jqTTM_4core3ops4drop4Drop4drop
FN:364,_RNCNCNvMs1_NtCskzoFXwmdkFh_5lb_io9quic_poolNtB9_16QuicUpstreamPool8dial_new00Bb_
FN:371,_RNCNCNvMs1_NtCskzoFXwmdkFh_5lb_io9quic_poolNtB9_16QuicUpstreamPool8dial_new0s0_0Bb_
FN:368,_RNCNCNvMs1_NtCskzoFXwmdkFh_5lb_io9quic_poolNtB9_16QuicUpstreamPool8dial_new0s_0Bb_
FN:306,_RNCNvMs1_NtCskzoFXwmdkFh_5lb_io9quic_poolNtB7_16QuicUpstreamPool14probe_liveness0B9_
FN:264,_RNCNvMs1_NtCskzoFXwmdkFh_5lb_io9quic_poolNtB7_16QuicUpstreamPool7acquire0B9_
FN:351,_RNCNvMs1_NtCskzoFXwmdkFh_5lb_io9quic_poolNtB7_16QuicUpstreamPool8dial_new0B9_
FN:716,_RNCNCNvNtNtCsipEsb16Xo5l_5lb_io9quic_pool5testss_34max_age_expiry_discards_on_acquire00B9_
FN:603,_RNCNvNtNtCsipEsb16Xo5l_5lb_io9quic_pool5tests14push_into_pool0B7_
FN:565,_RNCNvNtNtCsipEsb16Xo5l_5lb_io9quic_pool5tests19make_synthetic_conn0B7_
FN:543,_RNCNvNtNtCsipEsb16Xo5l_5lb_io9quic_pool5tests20dummy_config_factory0B7_
FN:675,_RNCNvNtNtCsipEsb16Xo5l_5lb_io9quic_pool5testss_18total_max_enforced0B7_
FN:619,_RNCNvNtNtCsipEsb16Xo5l_5lb_io9quic_pool5testss_21per_peer_max_enforced0B7_
FN:725,_RNCNvNtNtCsipEsb16Xo5l_5lb_io9quic_pool5testss_32probe_discards_closed_connection0B7_
FN:698,_RNCNvNtNtCsipEsb16Xo5l_5lb_io9quic_pool5testss_34max_age_expiry_discards_on_acquire0B7_
FN:598,_RNvNtNtCsipEsb16Xo5l_5lb_io9quic_pool5tests14push_into_pool
FN:565,_RNvNtNtCsipEsb16Xo5l_5lb_io9quic_pool5tests19make_synthetic_conn
FN:541,_RNvNtNtCsipEsb16Xo5l_5lb_io9quic_pool5tests20dummy_config_factory
FN:675,_RNvNtNtCsipEsb16Xo5l_5lb_io9quic_pool5testss_18total_max_enforced
FN:619,_RNvNtNtCsipEsb16Xo5l_5lb_io9quic_pool5testss_21per_peer_max_enforced
FN:766,_RNvNtNtCsipEsb16Xo5l_5lb_io9quic_pool5testss_24test_pool_dialer_uses_h3
FN:753,_RNvNtNtCsipEsb16Xo5l_5lb_io9quic_pool5testss_29idle_count_zero_on_fresh_pool
FN:725,_RNvNtNtCsipEsb16Xo5l_5lb_io9quic_pool5testss_32probe_discards_closed_connection
FN:698,_RNvNtNtCsipEsb16Xo5l_5lb_io9quic_pool5testss_34max_age_expiry_discards_on_acquire
FN:609,_RNvNtNtCsipEsb16Xo5l_5lb_io9quic_pool5testss_42quic_pool_config_defaults_match_section_21
FN:249,_RNvMs1_NtCsipEsb16Xo5l_5lb_io9quic_poolNtB5_16QuicUpstreamPool11fresh_dials
FN:475,_RNvMs3_NtCsipEsb16Xo5l_5lb_io9quic_poolNtB5_10PooledQuic12set_reusable
FN:464,_RNvMs3_NtCsipEsb16Xo5l_5lb_io9quic_poolNtB5_10PooledQuic3get
FN:469,_RNvMs3_NtCsipEsb16Xo5l_5lb_io9quic_poolNtB5_10PooledQuic7get_mut
FN:483,_RNvMs3_NtCsipEsb16Xo5l_5lb_io9quic_poolNtB5_10PooledQuic9take_conn
FN:131,_RNvMs_NtCsipEsb16Xo5l_5lb_io9quic_poolNtB4_16UpstreamQuicConn10connection
FN:166,_RNvMs_NtCsipEsb16Xo5l_5lb_io9quic_poolNtB4_16UpstreamQuicConn10created_at
FN:136,_RNvMs_NtCsipEsb16Xo5l_5lb_io9quic_poolNtB4_16UpstreamQuicConn14connection_mut
FN:160,_RNvMs_NtCsipEsb16Xo5l_5lb_io9quic_poolNtB4_16UpstreamQuicConn3cid
FN:148,_RNvMs_NtCsipEsb16Xo5l_5lb_io9quic_poolNtB4_16UpstreamQuicConn4peer
FN:154,_RNvMs_NtCsipEsb16Xo5l_5lb_io9quic_poolNtB4_16UpstreamQuicConn5local
FN:142,_RNvMs_NtCsipEsb16Xo5l_5lb_io9quic_poolNtB4_16UpstreamQuicConn6socket
FN:195,_RNvXs0_NtCsipEsb16Xo5l_5lb_io9quic_poolNtB5_16QuicUpstreamPoolNtNtCs2va5m0jqTTM_4core3fmt5Debug3fmt
FN:451,_RNvXs2_NtCsipEsb16Xo5l_5lb_io9quic_poolNtB5_10PooledQuicNtNtCs2va5m0jqTTM_4core3fmt5Debug3fmt
FN:364,_RNCNCNvMs1_NtCsipEsb16Xo5l_5lb_io9quic_poolNtB9_16QuicUpstreamPool8dial_new00Bb_
FN:371,_RNCNCNvMs1_NtCsipEsb16Xo5l_5lb_io9quic_poolNtB9_16QuicUpstreamPool8dial_new0s0_0Bb_
FN:368,_RNCNCNvMs1_NtCsipEsb16Xo5l_5lb_io9quic_poolNtB9_16QuicUpstreamPool8dial_new0s_0Bb_
FN:237,_RNCNvMs1_NtCsipEsb16Xo5l_5lb_io9quic_poolNtB7_16QuicUpstreamPool14idle_count_for0B9_
FN:306,_RNCNvMs1_NtCsipEsb16Xo5l_5lb_io9quic_poolNtB7_16QuicUpstreamPool14probe_liveness0B9_
FN:264,_RNCNvMs1_NtCsipEsb16Xo5l_5lb_io9quic_poolNtB7_16QuicUpstreamPool7acquire0B9_
FN:351,_RNCNvMs1_NtCsipEsb16Xo5l_5lb_io9quic_poolNtB7_16QuicUpstreamPool8dial_new0B9_
FN:522,_RNCNvXs4_NtCsipEsb16Xo5l_5lb_io9quic_poolNtB7_10PooledQuicNtNtNtCs2va5m0jqTTM_4core3ops4drop4Drop4drop0B9_
FN:230,_RNvMs1_NtCsipEsb16Xo5l_5lb_io9quic_poolNtB5_16QuicUpstreamPool10idle_count
FN:236,_RNvMs1_NtCsipEsb16Xo5l_5lb_io9quic_poolNtB5_16QuicUpstreamPool14idle_count_for
FN:243,_RNvMs1_NtCsipEsb16Xo5l_5lb_io9quic_poolNtB5_16QuicUpstreamPool14probe_discards
FN:306,_RNvMs1_NtCsipEsb16Xo5l_5lb_io9quic_poolNtB5_16QuicUpstreamPool14probe_liveness
FN:211,_RNvMs1_NtCsipEsb16Xo5l_5lb_io9quic_poolNtB5_16QuicUpstreamPool3new
FN:264,_RNvMs1_NtCsipEsb16Xo5l_5lb_io9quic_poolNtB5_16QuicUpstreamPool7acquire
FN:351,_RNvMs1_NtCsipEsb16Xo5l_5lb_io9quic_poolNtB5_16QuicUpstreamPool8dial_new
FN:291,_RNvMs1_NtCsipEsb16Xo5l_5lb_io9quic_poolNtB5_16QuicUpstreamPool8pop_idle
FN:89,_RNvXNtCsipEsb16Xo5l_5lb_io9quic_poolNtB2_14QuicPoolConfigNtNtCs2va5m0jqTTM_4core7default7Default7default
FN:494,_RNvXs4_NtCsipEsb16Xo5l_5lb_io9quic_poolNtB5_10PooledQuicNtNtNtCs2va5m0jqTTM_4core3ops4drop4Drop4drop
FN:364,_RNCNCNvMs1_NtCskzoFXwmdkFh_5lb_io9quic_poolNtB9_16QuicUpstreamPool8dial_new00Cs55RPzE5gwp1_7lb_quic
FN:371,_RNCNCNvMs1_NtCskzoFXwmdkFh_5lb_io9quic_poolNtB9_16QuicUpstreamPool8dial_new0s0_0Cs55RPzE5gwp1_7lb_quic
FN:368,_RNCNCNvMs1_NtCskzoFXwmdkFh_5lb_io9quic_poolNtB9_16QuicUpstreamPool8dial_new0s_0Cs55RPzE5gwp1_7lb_quic
FN:306,_RNCNvMs1_NtCskzoFXwmdkFh_5lb_io9quic_poolNtB7_16QuicUpstreamPool14probe_liveness0Cs55RPzE5gwp1_7lb_quic
FN:264,_RNCNvMs1_NtCskzoFXwmdkFh_5lb_io9quic_poolNtB7_16QuicUpstreamPool7acquire0Cs55RPzE5gwp1_7lb_quic
FN:351,_RNCNvMs1_NtCskzoFXwmdkFh_5lb_io9quic_poolNtB7_16QuicUpstreamPool8dial_new0Cs55RPzE5gwp1_7lb_quic
FNDA:0,_RNCNCNvMs1_NtCskzoFXwmdkFh_5lb_io9quic_poolNtB9_16QuicUpstreamPool8dial_new00Cs6AViLBCwg8R_7lb_quic
FNDA:0,_RNCNCNvMs1_NtCskzoFXwmdkFh_5lb_io9quic_poolNtB9_16QuicUpstreamPool8dial_new0s0_0Cs6AViLBCwg8R_7lb_quic
FNDA:0,_RNCNCNvMs1_NtCskzoFXwmdkFh_5lb_io9quic_poolNtB9_16QuicUpstreamPool8dial_new0s_0Cs6AViLBCwg8R_7lb_quic
FNDA:0,_RNCNvMs1_NtCskzoFXwmdkFh_5lb_io9quic_poolNtB7_16QuicUpstreamPool14probe_liveness0Cs6AViLBCwg8R_7lb_quic
FNDA:0,_RNCNvMs1_NtCskzoFXwmdkFh_5lb_io9quic_poolNtB7_16QuicUpstreamPool7acquire0Cs6AViLBCwg8R_7lb_quic
FNDA:0,_RNCNvMs1_NtCskzoFXwmdkFh_5lb_io9quic_poolNtB7_16QuicUpstreamPool8dial_new0Cs6AViLBCwg8R_7lb_quic
FNDA:0,_RNCNvMs1_NtCskzoFXwmdkFh_5lb_io9quic_poolNtB7_16QuicUpstreamPool14idle_count_for0B9_
FNDA:0,_RNCNvXs4_NtCskzoFXwmdkFh_5lb_io9quic_poolNtB7_10PooledQuicNtNtNtCs2va5m0jqTTM_4core3ops4drop4Drop4drop0B9_
FNDA:0,_RNvMs1_NtCskzoFXwmdkFh_5lb_io9quic_poolNtB5_16QuicUpstreamPool10idle_count
FNDA:0,_RNvMs1_NtCskzoFXwmdkFh_5lb_io9quic_poolNtB5_16QuicUpstreamPool11fresh_dials
FNDA:0,_RNvMs1_NtCskzoFXwmdkFh_5lb_io9quic_poolNtB5_16QuicUpstreamPool14idle_count_for
FNDA:0,_RNvMs1_NtCskzoFXwmdkFh_5lb_io9quic_poolNtB5_16QuicUpstreamPool14probe_discards
FNDA:0,_RNvMs1_NtCskzoFXwmdkFh_5lb_io9quic_poolNtB5_16QuicUpstreamPool14probe_liveness
FNDA:0,_RNvMs1_NtCskzoFXwmdkFh_5lb_io9quic_poolNtB5_16QuicUpstreamPool3new
FNDA:0,_RNvMs1_NtCskzoFXwmdkFh_5lb_io9quic_poolNtB5_16QuicUpstreamPool7acquire
FNDA:0,_RNvMs1_NtCskzoFXwmdkFh_5lb_io9quic_poolNtB5_16QuicUpstreamPool8dial_new
FNDA:0,_RNvMs1_NtCskzoFXwmdkFh_5lb_io9quic_poolNtB5_16QuicUpstreamPool8pop_idle
FNDA:0,_RNvMs3_NtCskzoFXwmdkFh_5lb_io9quic_poolNtB5_10PooledQuic12set_reusable
FNDA:0,_RNvMs3_NtCskzoFXwmdkFh_5lb_io9quic_poolNtB5_10PooledQuic3get
FNDA:0,_RNvMs3_NtCskzoFXwmdkFh_5lb_io9quic_poolNtB5_10PooledQuic7get_mut
FNDA:0,_RNvMs3_NtCskzoFXwmdkFh_5lb_io9quic_poolNtB5_10PooledQuic9take_conn
FNDA:0,_RNvMs_NtCskzoFXwmdkFh_5lb_io9quic_poolNtB4_16UpstreamQuicConn10connection
FNDA:0,_RNvMs_NtCskzoFXwmdkFh_5lb_io9quic_poolNtB4_16UpstreamQuicConn10created_at
FNDA:0,_RNvMs_NtCskzoFXwmdkFh_5lb_io9quic_poolNtB4_16UpstreamQuicConn14connection_mut
FNDA:0,_RNvMs_NtCskzoFXwmdkFh_5lb_io9quic_poolNtB4_16UpstreamQuicConn3cid
FNDA:0,_RNvMs_NtCskzoFXwmdkFh_5lb_io9quic_poolNtB4_16UpstreamQuicConn4peer
FNDA:0,_RNvMs_NtCskzoFXwmdkFh_5lb_io9quic_poolNtB4_16UpstreamQuicConn5local
FNDA:0,_RNvMs_NtCskzoFXwmdkFh_5lb_io9quic_poolNtB4_16UpstreamQuicConn6socket
FNDA:0,_RNvXNtCskzoFXwmdkFh_5lb_io9quic_poolNtB2_14QuicPoolConfigNtNtCs2va5m0jqTTM_4core7default7Default7default
FNDA:0,_RNvXs0_NtCskzoFXwmdkFh_5lb_io9quic_poolNtB5_16QuicUpstreamPoolNtNtCs2va5m0jqTTM_4core3fmt5Debug3fmt
FNDA:0,_RNvXs2_NtCskzoFXwmdkFh_5lb_io9quic_poolNtB5_10PooledQuicNtNtCs2va5m0jqTTM_4core3fmt5Debug3fmt
FNDA:0,_RNvXs4_NtCskzoFXwmdkFh_5lb_io9quic_poolNtB5_10PooledQuicNtNtNtCs2va5m0jqTTM_4core3ops4drop4Drop4drop
FNDA:0,_RNCNCNvMs1_NtCskzoFXwmdkFh_5lb_io9quic_poolNtB9_16QuicUpstreamPool8dial_new00Bb_
FNDA:0,_RNCNCNvMs1_NtCskzoFXwmdkFh_5lb_io9quic_poolNtB9_16QuicUpstreamPool8dial_new0s0_0Bb_
FNDA:0,_RNCNCNvMs1_NtCskzoFXwmdkFh_5lb_io9quic_poolNtB9_16QuicUpstreamPool8dial_new0s_0Bb_
FNDA:0,_RNCNvMs1_NtCskzoFXwmdkFh_5lb_io9quic_poolNtB7_16QuicUpstreamPool14probe_liveness0B9_
FNDA:0,_RNCNvMs1_NtCskzoFXwmdkFh_5lb_io9quic_poolNtB7_16QuicUpstreamPool7acquire0B9_
FNDA:0,_RNCNvMs1_NtCskzoFXwmdkFh_5lb_io9quic_poolNtB7_16QuicUpstreamPool8dial_new0B9_
FNDA:0,_RNCNCNvNtNtCsipEsb16Xo5l_5lb_io9quic_pool5testss_34max_age_expiry_discards_on_acquire00B9_
FNDA:0,_RNCNvNtNtCsipEsb16Xo5l_5lb_io9quic_pool5tests14push_into_pool0B7_
FNDA:0,_RNCNvNtNtCsipEsb16Xo5l_5lb_io9quic_pool5tests19make_synthetic_conn0B7_
FNDA:0,_RNCNvNtNtCsipEsb16Xo5l_5lb_io9quic_pool5tests20dummy_config_factory0B7_
FNDA:0,_RNCNvNtNtCsipEsb16Xo5l_5lb_io9quic_pool5testss_18total_max_enforced0B7_
FNDA:0,_RNCNvNtNtCsipEsb16Xo5l_5lb_io9quic_pool5testss_21per_peer_max_enforced0B7_
FNDA:0,_RNCNvNtNtCsipEsb16Xo5l_5lb_io9quic_pool5testss_32probe_discards_closed_connection0B7_
FNDA:0,_RNCNvNtNtCsipEsb16Xo5l_5lb_io9quic_pool5testss_34max_age_expiry_discards_on_acquire0B7_
FNDA:0,_RNvNtNtCsipEsb16Xo5l_5lb_io9quic_pool5tests14push_into_pool
FNDA:0,_RNvNtNtCsipEsb16Xo5l_5lb_io9quic_pool5tests19make_synthetic_conn
FNDA:0,_RNvNtNtCsipEsb16Xo5l_5lb_io9quic_pool5tests20dummy_config_factory
FNDA:0,_RNvNtNtCsipEsb16Xo5l_5lb_io9quic_pool5testss_18total_max_enforced
FNDA:0,_RNvNtNtCsipEsb16Xo5l_5lb_io9quic_pool5testss_21per_peer_max_enforced
FNDA:0,_RNvNtNtCsipEsb16Xo5l_5lb_io9quic_pool5testss_24test_pool_dialer_uses_h3
FNDA:0,_RNvNtNtCsipEsb16Xo5l_5lb_io9quic_pool5testss_29idle_count_zero_on_fresh_pool
FNDA:0,_RNvNtNtCsipEsb16Xo5l_5lb_io9quic_pool5testss_32probe_discards_closed_connection
FNDA:0,_RNvNtNtCsipEsb16Xo5l_5lb_io9quic_pool5testss_34max_age_expiry_discards_on_acquire
FNDA:0,_RNvNtNtCsipEsb16Xo5l_5lb_io9quic_pool5testss_42quic_pool_config_defaults_match_section_21
FNDA:0,_RNvMs1_NtCsipEsb16Xo5l_5lb_io9quic_poolNtB5_16QuicUpstreamPool11fresh_dials
FNDA:0,_RNvMs3_NtCsipEsb16Xo5l_5lb_io9quic_poolNtB5_10PooledQuic12set_reusable
FNDA:0,_RNvMs3_NtCsipEsb16Xo5l_5lb_io9quic_poolNtB5_10PooledQuic3get
FNDA:0,_RNvMs3_NtCsipEsb16Xo5l_5lb_io9quic_poolNtB5_10PooledQuic7get_mut
FNDA:0,_RNvMs3_NtCsipEsb16Xo5l_5lb_io9quic_poolNtB5_10PooledQuic9take_conn
FNDA:0,_RNvMs_NtCsipEsb16Xo5l_5lb_io9quic_poolNtB4_16UpstreamQuicConn10connection
FNDA:0,_RNvMs_NtCsipEsb16Xo5l_5lb_io9quic_poolNtB4_16UpstreamQuicConn10created_at
FNDA:0,_RNvMs_NtCsipEsb16Xo5l_5lb_io9quic_poolNtB4_16UpstreamQuicConn14connection_mut
FNDA:0,_RNvMs_NtCsipEsb16Xo5l_5lb_io9quic_poolNtB4_16UpstreamQuicConn3cid
FNDA:0,_RNvMs_NtCsipEsb16Xo5l_5lb_io9quic_poolNtB4_16UpstreamQuicConn4peer
FNDA:0,_RNvMs_NtCsipEsb16Xo5l_5lb_io9quic_poolNtB4_16UpstreamQuicConn5local
FNDA:0,_RNvMs_NtCsipEsb16Xo5l_5lb_io9quic_poolNtB4_16UpstreamQuicConn6socket
FNDA:0,_RNvXs0_NtCsipEsb16Xo5l_5lb_io9quic_poolNtB5_16QuicUpstreamPoolNtNtCs2va5m0jqTTM_4core3fmt5Debug3fmt
FNDA:0,_RNvXs2_NtCsipEsb16Xo5l_5lb_io9quic_poolNtB5_10PooledQuicNtNtCs2va5m0jqTTM_4core3fmt5Debug3fmt
FNDA:0,_RNCNCNvMs1_NtCsipEsb16Xo5l_5lb_io9quic_poolNtB9_16QuicUpstreamPool8dial_new00Bb_
FNDA:0,_RNCNCNvMs1_NtCsipEsb16Xo5l_5lb_io9quic_poolNtB9_16QuicUpstreamPool8dial_new0s0_0Bb_
FNDA:0,_RNCNCNvMs1_NtCsipEsb16Xo5l_5lb_io9quic_poolNtB9_16QuicUpstreamPool8dial_new0s_0Bb_
FNDA:0,_RNCNvMs1_NtCsipEsb16Xo5l_5lb_io9quic_poolNtB7_16QuicUpstreamPool14idle_count_for0B9_
FNDA:0,_RNCNvMs1_NtCsipEsb16Xo5l_5lb_io9quic_poolNtB7_16QuicUpstreamPool14probe_liveness0B9_
FNDA:0,_RNCNvMs1_NtCsipEsb16Xo5l_5lb_io9quic_poolNtB7_16QuicUpstreamPool7acquire0B9_
FNDA:0,_RNCNvMs1_NtCsipEsb16Xo5l_5lb_io9quic_poolNtB7_16QuicUpstreamPool8dial_new0B9_
FNDA:0,_RNCNvXs4_NtCsipEsb16Xo5l_5lb_io9quic_poolNtB7_10PooledQuicNtNtNtCs2va5m0jqTTM_4core3ops4drop4Drop4drop0B9_
FNDA:0,_RNvMs1_NtCsipEsb16Xo5l_5lb_io9quic_poolNtB5_16QuicUpstreamPool10idle_count
FNDA:0,_RNvMs1_NtCsipEsb16Xo5l_5lb_io9quic_poolNtB5_16QuicUpstreamPool14idle_count_for
FNDA:0,_RNvMs1_NtCsipEsb16Xo5l_5lb_io9quic_poolNtB5_16QuicUpstreamPool14probe_discards
FNDA:0,_RNvMs1_NtCsipEsb16Xo5l_5lb_io9quic_poolNtB5_16QuicUpstreamPool14probe_liveness
FNDA:0,_RNvMs1_NtCsipEsb16Xo5l_5lb_io9quic_poolNtB5_16QuicUpstreamPool3new
FNDA:0,_RNvMs1_NtCsipEsb16Xo5l_5lb_io9quic_poolNtB5_16QuicUpstreamPool7acquire
FNDA:0,_RNvMs1_NtCsipEsb16Xo5l_5lb_io9quic_poolNtB5_16QuicUpstreamPool8dial_new
FNDA:0,_RNvMs1_NtCsipEsb16Xo5l_5lb_io9quic_poolNtB5_16QuicUpstreamPool8pop_idle
FNDA:0,_RNvXNtCsipEsb16Xo5l_5lb_io9quic_poolNtB2_14QuicPoolConfigNtNtCs2va5m0jqTTM_4core7default7Default7default
FNDA:0,_RNvXs4_NtCsipEsb16Xo5l_5lb_io9quic_poolNtB5_10PooledQuicNtNtNtCs2va5m0jqTTM_4core3ops4drop4Drop4drop
FNDA:0,_RNCNCNvMs1_NtCskzoFXwmdkFh_5lb_io9quic_poolNtB9_16QuicUpstreamPool8dial_new00Cs55RPzE5gwp1_7lb_quic
FNDA:0,_RNCNCNvMs1_NtCskzoFXwmdkFh_5lb_io9quic_poolNtB9_16QuicUpstreamPool8dial_new0s0_0Cs55RPzE5gwp1_7lb_quic
FNDA:0,_RNCNCNvMs1_NtCskzoFXwmdkFh_5lb_io9quic_poolNtB9_16QuicUpstreamPool8dial_new0s_0Cs55RPzE5gwp1_7lb_quic
FNDA:0,_RNCNvMs1_NtCskzoFXwmdkFh_5lb_io9quic_poolNtB7_16QuicUpstreamPool14probe_liveness0Cs55RPzE5gwp1_7lb_quic
FNDA:0,_RNCNvMs1_NtCskzoFXwmdkFh_5lb_io9quic_poolNtB7_16QuicUpstreamPool7acquire0Cs55RPzE5gwp1_7lb_quic
FNDA:0,_RNCNvMs1_NtCskzoFXwmdkFh_5lb_io9quic_poolNtB7_16QuicUpstreamPool8dial_new0Cs55RPzE5gwp1_7lb_quic
FNF:50
FNH:0
DA:89,0
DA:90,0
DA:91,0
DA:92,0
DA:93,0
DA:94,0
DA:95,0
DA:96,0
DA:97,0
DA:131,0
DA:132,0
DA:133,0
DA:136,0
DA:137,0
DA:138,0
DA:142,0
DA:143,0
DA:144,0
DA:148,0
DA:149,0
DA:150,0
DA:154,0
DA:155,0
DA:156,0
DA:160,0
DA:161,0
DA:162,0
DA:166,0
DA:167,0
DA:168,0
DA:195,0
DA:196,0
DA:197,0
DA:198,0
DA:199,0
DA:200,0
DA:201,0
DA:211,0
DA:212,0
DA:213,0
DA:214,0
DA:215,0
DA:216,0
DA:217,0
DA:218,0
DA:219,0
DA:220,0
DA:221,0
DA:222,0
DA:223,0
DA:224,0
DA:225,0
DA:226,0
DA:230,0
DA:231,0
DA:232,0
DA:236,0
DA:237,0
DA:238,0
DA:243,0
DA:244,0
DA:245,0
DA:249,0
DA:250,0
DA:251,0
DA:264,0
DA:267,0
DA:268,0
DA:269,0
DA:270,0
DA:271,0
DA:274,0
DA:275,0
DA:276,0
DA:277,0
DA:278,0
DA:279,0
DA:280,0
DA:281,0
DA:282,0
DA:283,0
DA:284,0
DA:285,0
DA:288,0
DA:289,0
DA:291,0
DA:292,0
DA:293,0
DA:294,0
DA:295,0
DA:296,0
DA:297,0
DA:298,0
DA:299,0
DA:300,0
DA:306,0
DA:307,0
DA:308,0
DA:310,0
DA:311,0
DA:312,0
DA:313,0
DA:314,0
DA:316,0
DA:317,0
DA:318,0
DA:319,0
DA:320,0
DA:321,0
DA:323,0
DA:324,0
DA:328,0
DA:329,0
DA:330,0
DA:331,0
DA:332,0
DA:333,0
DA:334,0
DA:335,0
DA:336,0
DA:337,0
DA:338,0
DA:339,0
DA:340,0
DA:341,0
DA:342,0
DA:343,0
DA:346,0
DA:348,0
DA:351,0
DA:352,0
DA:353,0
DA:354,0
DA:355,0
DA:356,0
DA:357,0
DA:358,0
DA:359,0
DA:361,0
DA:363,0
DA:364,0
DA:365,0
DA:366,0
DA:367,0
DA:368,0
DA:369,0
DA:370,0
DA:371,0
DA:374,0
DA:375,0
DA:376,0
DA:378,0
DA:379,0
DA:380,0
DA:381,0
DA:382,0
DA:383,0
DA:386,0
DA:387,0
DA:388,0
DA:389,0
DA:391,0
DA:392,0
DA:393,0
DA:397,0
DA:398,0
DA:399,0
DA:400,0
DA:401,0
DA:402,0
DA:403,0
DA:404,0
DA:405,0
DA:406,0
DA:407,0
DA:410,0
DA:411,0
DA:412,0
DA:413,0
DA:417,0
DA:418,0
DA:419,0
DA:420,0
DA:421,0
DA:422,0
DA:423,0
DA:424,0
DA:425,0
DA:426,0
DA:427,0
DA:428,0
DA:429,0
DA:430,0
DA:431,0
DA:432,0
DA:433,0
DA:434,0
DA:435,0
DA:436,0
DA:437,0
DA:451,0
DA:452,0
DA:453,0
DA:454,0
DA:455,0
DA:456,0
DA:457,0
DA:458,0
DA:464,0
DA:465,0
DA:466,0
DA:469,0
DA:470,0
DA:471,0
DA:475,0
DA:476,0
DA:477,0
DA:483,0
DA:484,0
DA:485,0
DA:494,0
DA:495,0
DA:496,0
DA:498,0
DA:499,0
DA:501,0
DA:502,0
DA:503,0
DA:504,0
DA:505,0
DA:507,0
DA:508,0
DA:509,0
DA:510,0
DA:511,0
DA:512,0
DA:513,0
DA:514,0
DA:515,0
DA:516,0
DA:517,0
DA:518,0
DA:519,0
DA:520,0
DA:521,0
DA:522,0
DA:523,0
DA:524,0
DA:525,0
DA:526,0
DA:527,0
DA:528,0
DA:529,0
DA:530,0
DA:531,0
DA:532,0
DA:533,0
DA:541,0
DA:542,0
DA:543,0
DA:544,0
DA:549,0
DA:550,0
DA:551,0
DA:552,0
DA:553,0
DA:554,0
DA:555,0
DA:556,0
DA:557,0
DA:558,0
DA:559,0
DA:560,0
DA:561,0
DA:562,0
DA:563,0
DA:565,0
DA:572,0
DA:573,0
DA:574,0
DA:575,0
DA:576,0
DA:577,0
DA:578,0
DA:579,0
DA:580,0
DA:581,0
DA:582,0
DA:583,0
DA:584,0
DA:585,0
DA:586,0
DA:587,0
DA:588,0
DA:589,0
DA:590,0
DA:591,0
DA:592,0
DA:593,0
DA:594,0
DA:595,0
DA:596,0
DA:598,0
DA:599,0
DA:600,0
DA:601,0
DA:602,0
DA:603,0
DA:604,0
DA:605,0
DA:606,0
DA:609,0
DA:610,0
DA:611,0
DA:612,0
DA:613,0
DA:614,0
DA:615,0
DA:616,0
DA:619,0
DA:620,0
DA:621,0
DA:622,0
DA:623,0
DA:624,0
DA:625,0
DA:626,0
DA:627,0
DA:628,0
DA:629,0
DA:630,0
DA:631,0
DA:632,0
DA:633,0
DA:634,0
DA:635,0
DA:636,0
DA:637,0
DA:638,0
DA:639,0
DA:640,0
DA:641,0
DA:642,0
DA:643,0
DA:644,0
DA:645,0
DA:646,0
DA:647,0
DA:648,0
DA:649,0
DA:650,0
DA:651,0
DA:652,0
DA:653,0
DA:654,0
DA:655,0
DA:656,0
DA:657,0
DA:658,0
DA:659,0
DA:660,0
DA:661,0
DA:662,0
DA:663,0
DA:664,0
DA:665,0
DA:666,0
DA:667,0
DA:668,0
DA:669,0
DA:670,0
DA:671,0
DA:672,0
DA:675,0
DA:676,0
DA:677,0
DA:678,0
DA:679,0
DA:680,0
DA:681,0
DA:682,0
DA:683,0
DA:684,0
DA:685,0
DA:686,0
DA:687,0
DA:688,0
DA:689,0
DA:690,0
DA:691,0
DA:692,0
DA:693,0
DA:694,0
DA:695,0
DA:698,0
DA:699,0
DA:700,0
DA:701,0
DA:702,0
DA:703,0
DA:704,0
DA:705,0
DA:706,0
DA:707,0
DA:708,0
DA:709,0
DA:710,0
DA:711,0
DA:712,0
DA:713,0
DA:714,0
DA:715,0
DA:716,0
DA:717,0
DA:718,0
DA:719,0
DA:720,0
DA:721,0
DA:722,0
DA:725,0
DA:726,0
DA:727,0
DA:728,0
DA:729,0
DA:730,0
DA:731,0
DA:732,0
DA:733,0
DA:734,0
DA:735,0
DA:736,0
DA:737,0
DA:738,0
DA:739,0
DA:740,0
DA:741,0
DA:742,0
DA:743,0
DA:744,0
DA:745,0
DA:746,0
DA:747,0
DA:748,0
DA:749,0
DA:750,0
DA:753,0
DA:754,0
DA:755,0
DA:756,0
DA:766,0
DA:767,0
DA:768,0
DA:769,0
DA:770,0
DA:775,0
DA:776,0
DA:777,0
DA:778,0
DA:779,0
DA:780,0
DA:781,0
BRF:0
BRH:0
LF:549
LH:0
end_of_record
SF:/home/ubuntu/Code/ExpressGateway/.claude/worktrees/s15-builder/crates/lb-io/src/ring.rs
FN:82,_RNCNvNtCskzoFXwmdkFh_5lb_io4ring10accept_one0B5_
FN:209,_RNCNvNtCskzoFXwmdkFh_5lb_io4ring8reap_cqe0B5_
FN:73,_RNvNtCskzoFXwmdkFh_5lb_io4ring10accept_one
FN:43,_RNvNtCskzoFXwmdkFh_5lb_io4ring13nop_roundtrip
FN:234,_RNvNtCskzoFXwmdkFh_5lb_io4ring19u32_from_nonneg_i32B3_
FN:226,_RNvNtCskzoFXwmdkFh_5lb_io4ring21usize_from_nonneg_i32B3_
FN:244,_RNvNtCskzoFXwmdkFh_5lb_io4ring30sockaddr_storage_to_socketaddr
FN:117,_RNvNtCskzoFXwmdkFh_5lb_io4ring4recv
FN:142,_RNvNtCskzoFXwmdkFh_5lb_io4ring4send
FN:168,_RNvNtCskzoFXwmdkFh_5lb_io4ring6splice
FN:196,_RNvNtCskzoFXwmdkFh_5lb_io4ring8push_sqe
FN:205,_RNvNtCskzoFXwmdkFh_5lb_io4ring8reap_cqe
FN:214,_RNvNtCskzoFXwmdkFh_5lb_io4ring9check_cqe
FN:82,_RNCNvNtCsipEsb16Xo5l_5lb_io4ring10accept_one0B5_
FN:209,_RNCNvNtCsipEsb16Xo5l_5lb_io4ring8reap_cqe0B5_
FN:73,_RNvNtCsipEsb16Xo5l_5lb_io4ring10accept_one
FN:43,_RNvNtCsipEsb16Xo5l_5lb_io4ring13nop_roundtrip
FN:234,_RNvNtCsipEsb16Xo5l_5lb_io4ring19u32_from_nonneg_i32B3_
FN:226,_RNvNtCsipEsb16Xo5l_5lb_io4ring21usize_from_nonneg_i32B3_
FN:244,_RNvNtCsipEsb16Xo5l_5lb_io4ring30sockaddr_storage_to_socketaddr
FN:117,_RNvNtCsipEsb16Xo5l_5lb_io4ring4recv
FN:142,_RNvNtCsipEsb16Xo5l_5lb_io4ring4send
FN:168,_RNvNtCsipEsb16Xo5l_5lb_io4ring6splice
FN:196,_RNvNtCsipEsb16Xo5l_5lb_io4ring8push_sqe
FN:205,_RNvNtCsipEsb16Xo5l_5lb_io4ring8reap_cqe
FN:214,_RNvNtCsipEsb16Xo5l_5lb_io4ring9check_cqe
FN:301,_RINvNtNtCsipEsb16Xo5l_5lb_io4ring5tests7skip_ifNtB4_14UringNopResultEB6_
FN:322,_RNCNvNtNtCsipEsb16Xo5l_5lb_io4ring5testss_19accept_one_loopback0B7_
FN:345,_RNCNvNtNtCsipEsb16Xo5l_5lb_io4ring5testss_23recv_send_loopback_pair0B7_
FN:388,_RNCNvNtNtCsipEsb16Xo5l_5lb_io4ring5testss_35splice_rejects_non_pipe_or_succeeds0B7_
FN:319,_RNvNtNtCsipEsb16Xo5l_5lb_io4ring5testss_19accept_one_loopback
FN:342,_RNvNtNtCsipEsb16Xo5l_5lb_io4ring5testss_23recv_send_loopback_pair
FN:312,_RNvNtNtCsipEsb16Xo5l_5lb_io4ring5testss_24nop_roundtrip_ok_or_skip
FN:382,_RNvNtNtCsipEsb16Xo5l_5lb_io4ring5testss_35splice_rejects_non_pipe_or_succeeds
FNDA:0,_RNCNvNtCskzoFXwmdkFh_5lb_io4ring10accept_one0B5_
FNDA:0,_RNCNvNtCskzoFXwmdkFh_5lb_io4ring8reap_cqe0B5_
FNDA:0,_RNvNtCskzoFXwmdkFh_5lb_io4ring10accept_one
FNDA:0,_RNvNtCskzoFXwmdkFh_5lb_io4ring13nop_roundtrip
FNDA:0,_RNvNtCskzoFXwmdkFh_5lb_io4ring19u32_from_nonneg_i32B3_
FNDA:0,_RNvNtCskzoFXwmdkFh_5lb_io4ring21usize_from_nonneg_i32B3_
FNDA:0,_RNvNtCskzoFXwmdkFh_5lb_io4ring30sockaddr_storage_to_socketaddr
FNDA:0,_RNvNtCskzoFXwmdkFh_5lb_io4ring4recv
FNDA:0,_RNvNtCskzoFXwmdkFh_5lb_io4ring4send
FNDA:0,_RNvNtCskzoFXwmdkFh_5lb_io4ring6splice
FNDA:0,_RNvNtCskzoFXwmdkFh_5lb_io4ring8push_sqe
FNDA:0,_RNvNtCskzoFXwmdkFh_5lb_io4ring8reap_cqe
FNDA:0,_RNvNtCskzoFXwmdkFh_5lb_io4ring9check_cqe
FNDA:0,_RNCNvNtCsipEsb16Xo5l_5lb_io4ring10accept_one0B5_
FNDA:0,_RNCNvNtCsipEsb16Xo5l_5lb_io4ring8reap_cqe0B5_
FNDA:0,_RNvNtCsipEsb16Xo5l_5lb_io4ring10accept_one
FNDA:0,_RNvNtCsipEsb16Xo5l_5lb_io4ring13nop_roundtrip
FNDA:0,_RNvNtCsipEsb16Xo5l_5lb_io4ring19u32_from_nonneg_i32B3_
FNDA:0,_RNvNtCsipEsb16Xo5l_5lb_io4ring21usize_from_nonneg_i32B3_
FNDA:0,_RNvNtCsipEsb16Xo5l_5lb_io4ring30sockaddr_storage_to_socketaddr
FNDA:0,_RNvNtCsipEsb16Xo5l_5lb_io4ring4recv
FNDA:0,_RNvNtCsipEsb16Xo5l_5lb_io4ring4send
FNDA:0,_RNvNtCsipEsb16Xo5l_5lb_io4ring6splice
FNDA:0,_RNvNtCsipEsb16Xo5l_5lb_io4ring8push_sqe
FNDA:0,_RNvNtCsipEsb16Xo5l_5lb_io4ring8reap_cqe
FNDA:0,_RNvNtCsipEsb16Xo5l_5lb_io4ring9check_cqe
FNDA:0,_RINvNtNtCsipEsb16Xo5l_5lb_io4ring5tests7skip_ifNtB4_14UringNopResultEB6_
FNDA:0,_RNCNvNtNtCsipEsb16Xo5l_5lb_io4ring5testss_19accept_one_loopback0B7_
FNDA:0,_RNCNvNtNtCsipEsb16Xo5l_5lb_io4ring5testss_23recv_send_loopback_pair0B7_
FNDA:0,_RNCNvNtNtCsipEsb16Xo5l_5lb_io4ring5testss_35splice_rejects_non_pipe_or_succeeds0B7_
FNDA:0,_RNvNtNtCsipEsb16Xo5l_5lb_io4ring5testss_19accept_one_loopback
FNDA:0,_RNvNtNtCsipEsb16Xo5l_5lb_io4ring5testss_23recv_send_loopback_pair
FNDA:0,_RNvNtNtCsipEsb16Xo5l_5lb_io4ring5testss_24nop_roundtrip_ok_or_skip
FNDA:0,_RNvNtNtCsipEsb16Xo5l_5lb_io4ring5testss_35splice_rejects_non_pipe_or_succeeds
FNF:21
FNH:0
DA:43,0
DA:44,0
DA:45,0
DA:46,0
DA:47,0
DA:48,0
DA:49,0
DA:50,0
DA:52,0
DA:54,0
DA:55,0
DA:56,0
DA:57,0
DA:58,0
DA:59,0
DA:73,0
DA:74,0
DA:78,0
DA:79,0
DA:80,0
DA:81,0
DA:82,0
DA:84,0
DA:85,0
DA:86,0
DA:87,0
DA:88,0
DA:89,0
DA:90,0
DA:91,0
DA:92,0
DA:93,0
DA:94,0
DA:95,0
DA:97,0
DA:98,0
DA:99,0
DA:106,0
DA:108,0
DA:109,0
DA:117,0
DA:118,0
DA:119,0
DA:121,0
DA:122,0
DA:123,0
DA:124,0
DA:125,0
DA:126,0
DA:127,0
DA:128,0
DA:129,0
DA:131,0
DA:132,0
DA:133,0
DA:134,0
DA:135,0
DA:142,0
DA:143,0
DA:144,0
DA:146,0
DA:147,0
DA:148,0
DA:149,0
DA:150,0
DA:151,0
DA:152,0
DA:153,0
DA:155,0
DA:156,0
DA:157,0
DA:158,0
DA:159,0
DA:168,0
DA:169,0
DA:171,0
DA:172,0
DA:173,0
DA:174,0
DA:175,0
DA:176,0
DA:177,0
DA:178,0
DA:180,0
DA:181,0
DA:182,0
DA:183,0
DA:184,0
DA:196,0
DA:197,0
DA:198,0
DA:199,0
DA:200,0
DA:201,0
DA:203,0
DA:205,0
DA:206,0
DA:207,0
DA:208,0
DA:209,0
DA:210,0
DA:214,0
DA:215,0
DA:216,0
DA:217,0
DA:219,0
DA:221,0
DA:226,0
DA:227,0
DA:228,0
DA:229,0
DA:234,0
DA:235,0
DA:236,0
DA:244,0
DA:245,0
DA:246,0
DA:247,0
DA:248,0
DA:249,0
DA:250,0
DA:252,0
DA:253,0
DA:254,0
DA:255,0
DA:256,0
DA:257,0
DA:258,0
DA:259,0
DA:260,0
DA:261,0
DA:262,0
DA:263,0
DA:264,0
DA:265,0
DA:268,0
DA:269,0
DA:270,0
DA:271,0
DA:272,0
DA:273,0
DA:274,0
DA:275,0
DA:276,0
DA:277,0
DA:278,0
DA:279,0
DA:280,0
DA:281,0
DA:282,0
DA:283,0
DA:284,0
DA:285,0
DA:287,0
DA:288,0
DA:289,0
DA:290,0
DA:292,0
DA:301,0
DA:302,0
DA:303,0
DA:304,0
DA:305,0
DA:306,0
DA:309,0
DA:312,0
DA:313,0
DA:314,0
DA:315,0
DA:316,0
DA:319,0
DA:320,0
DA:321,0
DA:322,0
DA:323,0
DA:324,0
DA:325,0
DA:326,0
DA:327,0
DA:328,0
DA:329,0
DA:330,0
DA:331,0
DA:332,0
DA:334,0
DA:336,0
DA:338,0
DA:339,0
DA:342,0
DA:343,0
DA:344,0
DA:345,0
DA:346,0
DA:347,0
DA:348,0
DA:349,0
DA:350,0
DA:351,0
DA:352,0
DA:353,0
DA:354,0
DA:355,0
DA:356,0
DA:357,0
DA:358,0
DA:359,0
DA:360,0
DA:361,0
DA:362,0
DA:364,0
DA:365,0
DA:366,0
DA:367,0
DA:368,0
DA:373,0
DA:374,0
DA:375,0
DA:378,0
DA:379,0
DA:382,0
DA:383,0
DA:384,0
DA:385,0
DA:386,0
DA:387,0
DA:388,0
DA:389,0
DA:390,0
DA:391,0
DA:392,0
DA:393,0
DA:394,0
DA:395,0
DA:396,0
BRF:0
BRH:0
LF:242
LH:0
end_of_record
SF:/home/ubuntu/Code/ExpressGateway/.claude/worktrees/s15-builder/crates/lb-io/src/sockopts.rs
FN:111,_RNCNvNtCskzoFXwmdkFh_5lb_io8sockopts14apply_listener0B5_
FN:287,_RNCNvNtCskzoFXwmdkFh_5lb_io8sockopts7set_int0B5_
FN:81,_RNvNtCskzoFXwmdkFh_5lb_io8sockopts14apply_listener
FN:147,_RNvNtCskzoFXwmdkFh_5lb_io8sockopts15apply_connected
FN:200,_RNvNtCskzoFXwmdkFh_5lb_io8sockopts21apply_connected_tokio
FN:280,_RNvNtCskzoFXwmdkFh_5lb_io8sockopts7set_int
FN:245,_RNvNtCskzoFXwmdkFh_5lb_io8sockopts9apply_udp
FN:111,_RNCNvNtCsipEsb16Xo5l_5lb_io8sockopts14apply_listener0B5_
FN:287,_RNCNvNtCsipEsb16Xo5l_5lb_io8sockopts7set_int0B5_
FN:81,_RNvNtCsipEsb16Xo5l_5lb_io8sockopts14apply_listener
FN:147,_RNvNtCsipEsb16Xo5l_5lb_io8sockopts15apply_connected
FN:200,_RNvNtCsipEsb16Xo5l_5lb_io8sockopts21apply_connected_tokio
FN:280,_RNvNtCsipEsb16Xo5l_5lb_io8sockopts7set_int
FN:245,_RNvNtCsipEsb16Xo5l_5lb_io8sockopts9apply_udp
FN:326,_RNvNtNtCsipEsb16Xo5l_5lb_io8sockopts5testss_17apply_udp_minimal
FN:311,_RNvNtNtCsipEsb16Xo5l_5lb_io8sockopts5testss_21apply_backend_minimal
FN:305,_RNvNtNtCsipEsb16Xo5l_5lb_io8sockopts5testss_31apply_listener_defaults_is_noop
FNDA:0,_RNCNvNtCskzoFXwmdkFh_5lb_io8sockopts14apply_listener0B5_
FNDA:0,_RNCNvNtCskzoFXwmdkFh_5lb_io8sockopts7set_int0B5_
FNDA:0,_RNvNtCskzoFXwmdkFh_5lb_io8sockopts14apply_listener
FNDA:0,_RNvNtCskzoFXwmdkFh_5lb_io8sockopts15apply_connected
FNDA:0,_RNvNtCskzoFXwmdkFh_5lb_io8sockopts21apply_connected_tokio
FNDA:0,_RNvNtCskzoFXwmdkFh_5lb_io8sockopts7set_int
FNDA:0,_RNvNtCskzoFXwmdkFh_5lb_io8sockopts9apply_udp
FNDA:0,_RNCNvNtCsipEsb16Xo5l_5lb_io8sockopts14apply_listener0B5_
FNDA:0,_RNCNvNtCsipEsb16Xo5l_5lb_io8sockopts7set_int0B5_
FNDA:0,_RNvNtCsipEsb16Xo5l_5lb_io8sockopts14apply_listener
FNDA:0,_RNvNtCsipEsb16Xo5l_5lb_io8sockopts15apply_connected
FNDA:0,_RNvNtCsipEsb16Xo5l_5lb_io8sockopts21apply_connected_tokio
FNDA:0,_RNvNtCsipEsb16Xo5l_5lb_io8sockopts7set_int
FNDA:0,_RNvNtCsipEsb16Xo5l_5lb_io8sockopts9apply_udp
FNDA:0,_RNvNtNtCsipEsb16Xo5l_5lb_io8sockopts5testss_17apply_udp_minimal
FNDA:0,_RNvNtNtCsipEsb16Xo5l_5lb_io8sockopts5testss_21apply_backend_minimal
FNDA:0,_RNvNtNtCsipEsb16Xo5l_5lb_io8sockopts5testss_31apply_listener_defaults_is_noop
FNF:10
FNH:0
DA:81,0
DA:82,0
DA:83,0
DA:84,0
DA:85,0
DA:87,0
DA:88,0
DA:89,0
DA:90,0
DA:91,0
DA:92,0
DA:93,0
DA:94,0
DA:95,0
DA:96,0
DA:97,0
DA:98,0
DA:99,0
DA:100,0
DA:101,0
DA:106,0
DA:107,0
DA:108,0
DA:109,0
DA:110,0
DA:111,0
DA:112,0
DA:113,0
DA:114,0
DA:115,0
DA:116,0
DA:117,0
DA:118,0
DA:119,0
DA:124,0
DA:125,0
DA:126,0
DA:127,0
DA:128,0
DA:139,0
DA:140,0
DA:147,0
DA:148,0
DA:149,0
DA:150,0
DA:151,0
DA:152,0
DA:153,0
DA:154,0
DA:155,0
DA:156,0
DA:157,0
DA:158,0
DA:159,0
DA:160,0
DA:165,0
DA:166,0
DA:167,0
DA:168,0
DA:169,0
DA:170,0
DA:171,0
DA:172,0
DA:173,0
DA:174,0
DA:183,0
DA:184,0
DA:200,0
DA:201,0
DA:202,0
DA:203,0
DA:204,0
DA:205,0
DA:206,0
DA:207,0
DA:208,0
DA:209,0
DA:210,0
DA:211,0
DA:212,0
DA:213,0
DA:214,0
DA:215,0
DA:216,0
DA:221,0
DA:222,0
DA:223,0
DA:224,0
DA:225,0
DA:226,0
DA:227,0
DA:228,0
DA:237,0
DA:238,0
DA:245,0
DA:246,0
DA:247,0
DA:248,0
DA:249,0
DA:250,0
DA:251,0
DA:252,0
DA:253,0
DA:254,0
DA:255,0
DA:256,0
DA:261,0
DA:262,0
DA:263,0
DA:264,0
DA:265,0
DA:266,0
DA:275,0
DA:276,0
DA:280,0
DA:281,0
DA:282,0
DA:283,0
DA:284,0
DA:285,0
DA:286,0
DA:287,0
DA:292,0
DA:293,0
DA:294,0
DA:296,0
DA:298,0
DA:305,0
DA:306,0
DA:307,0
DA:308,0
DA:311,0
DA:312,0
DA:313,0
DA:314,0
DA:315,0
DA:316,0
DA:317,0
DA:318,0
DA:319,0
DA:320,0
DA:321,0
DA:322,0
DA:323,0
DA:326,0
DA:327,0
DA:328,0
DA:329,0
DA:330,0
DA:331,0
DA:332,0
DA:333,0
DA:334,0
DA:335,0
BRF:0
BRH:0
LF:157
LH:0
end_of_record
SF:/home/ubuntu/Code/ExpressGateway/.claude/worktrees/s15-builder/crates/lb-l4-xdp/src/bpffs.rs
FN:49,_RNCNvNtCscT4abZYhE3h_9lb_l4_xdp5bpffs12assert_bpffs0B5_
FN:45,_RNvNtCscT4abZYhE3h_9lb_l4_xdp5bpffs12assert_bpffs
FN:96,_RNvNtCscT4abZYhE3h_9lb_l4_xdp5bpffs15default_pin_dir
FN:143,_RNvNtNtCslXikeFjAAou_9lb_l4_xdp5bpffs5testss_20rejects_missing_path
FN:157,_RNvNtNtCslXikeFjAAou_9lb_l4_xdp5bpffs5testss_25rejects_interior_nul_path
FN:114,_RNvNtNtCslXikeFjAAou_9lb_l4_xdp5bpffs5testss_25rejects_non_bpffs_tempdir
FN:171,_RNvNtNtCslXikeFjAAou_9lb_l4_xdp5bpffs5testss_37bpf_fs_magic_constant_is_kernel_value
FN:49,_RNCNvNtCslXikeFjAAou_9lb_l4_xdp5bpffs12assert_bpffs0B5_
FN:45,_RNvNtCslXikeFjAAou_9lb_l4_xdp5bpffs12assert_bpffs
FN:96,_RNvNtCslXikeFjAAou_9lb_l4_xdp5bpffs15default_pin_dir
FNDA:0,_RNCNvNtCscT4abZYhE3h_9lb_l4_xdp5bpffs12assert_bpffs0B5_
FNDA:0,_RNvNtCscT4abZYhE3h_9lb_l4_xdp5bpffs12assert_bpffs
FNDA:0,_RNvNtCscT4abZYhE3h_9lb_l4_xdp5bpffs15default_pin_dir
FNDA:0,_RNvNtNtCslXikeFjAAou_9lb_l4_xdp5bpffs5testss_20rejects_missing_path
FNDA:0,_RNvNtNtCslXikeFjAAou_9lb_l4_xdp5bpffs5testss_25rejects_interior_nul_path
FNDA:0,_RNvNtNtCslXikeFjAAou_9lb_l4_xdp5bpffs5testss_25rejects_non_bpffs_tempdir
FNDA:0,_RNvNtNtCslXikeFjAAou_9lb_l4_xdp5bpffs5testss_37bpf_fs_magic_constant_is_kernel_value
FNDA:0,_RNCNvNtCslXikeFjAAou_9lb_l4_xdp5bpffs12assert_bpffs0B5_
FNDA:0,_RNvNtCslXikeFjAAou_9lb_l4_xdp5bpffs12assert_bpffs
FNDA:0,_RNvNtCslXikeFjAAou_9lb_l4_xdp5bpffs15default_pin_dir
FNF:7
FNH:0
DA:45,0
DA:49,0
DA:50,0
DA:51,0
DA:52,0
DA:53,0
DA:54,0
DA:59,0
DA:60,0
DA:61,0
DA:62,0
DA:63,0
DA:64,0
DA:65,0
DA:66,0
DA:67,0
DA:68,0
DA:69,0
DA:70,0
DA:71,0
DA:72,0
DA:73,0
DA:74,0
DA:75,0
DA:76,0
DA:77,0
DA:78,0
DA:79,0
DA:80,0
DA:81,0
DA:82,0
DA:83,0
DA:84,0
DA:85,0
DA:86,0
DA:87,0
DA:88,0
DA:89,0
DA:90,0
DA:91,0
DA:92,0
DA:96,0
DA:97,0
DA:98,0
DA:114,0
DA:115,0
DA:116,0
DA:117,0
DA:118,0
DA:119,0
DA:120,0
DA:122,0
DA:123,0
DA:124,0
DA:125,0
DA:126,0
DA:127,0
DA:130,0
DA:131,0
DA:132,0
DA:133,0
DA:134,0
DA:135,0
DA:137,0
DA:143,0
DA:144,0
DA:145,0
DA:146,0
DA:147,0
DA:148,0
DA:150,0
DA:152,0
DA:157,0
DA:161,0
DA:162,0
DA:163,0
DA:166,0
DA:171,0
DA:172,0
DA:173,0
BRF:0
BRH:0
LF:82
LH:0
end_of_record
SF:/home/ubuntu/Code/ExpressGateway/.claude/worktrees/s15-builder/crates/lb-l4-xdp/src/lib.rs
FN:189,_RNCNvMCscT4abZYhE3h_9lb_l4_xdpNtB4_14ConntrackTable6remove0B4_
FN:280,_RNCNvMs0_CscT4abZYhE3h_9lb_l4_xdpNtB7_11MaglevTable6lookup0B7_
FN:325,_RNCNvMs0_CscT4abZYhE3h_9lb_l4_xdpNtB7_11MaglevTable8populate0B7_
FN:214,_RNvCscT4abZYhE3h_9lb_l4_xdp8is_prime
FN:147,_RNvMCscT4abZYhE3h_9lb_l4_xdpNtB2_14ConntrackTable13with_capacity
FN:196,_RNvMCscT4abZYhE3h_9lb_l4_xdpNtB2_14ConntrackTable3len
FN:137,_RNvMCscT4abZYhE3h_9lb_l4_xdpNtB2_14ConntrackTable3new
FN:164,_RNvMCscT4abZYhE3h_9lb_l4_xdpNtB2_14ConntrackTable6insert
FN:157,_RNvMCscT4abZYhE3h_9lb_l4_xdpNtB2_14ConntrackTable6lookup
FN:186,_RNvMCscT4abZYhE3h_9lb_l4_xdpNtB2_14ConntrackTable6remove
FN:202,_RNvMCscT4abZYhE3h_9lb_l4_xdpNtB2_14ConntrackTable8is_empty
FN:291,_RNvMs0_CscT4abZYhE3h_9lb_l4_xdpNtB5_11MaglevTable11permutation
FN:285,_RNvMs0_CscT4abZYhE3h_9lb_l4_xdpNtB5_11MaglevTable13backend_count
FN:251,_RNvMs0_CscT4abZYhE3h_9lb_l4_xdpNtB5_11MaglevTable3new
FN:272,_RNvMs0_CscT4abZYhE3h_9lb_l4_xdpNtB5_11MaglevTable6lookup
FN:305,_RNvMs0_CscT4abZYhE3h_9lb_l4_xdpNtB5_11MaglevTable8hash_str
FN:321,_RNvMs0_CscT4abZYhE3h_9lb_l4_xdpNtB5_11MaglevTable8populate
FN:422,_RNvMs1_CscT4abZYhE3h_9lb_l4_xdpNtB5_14HotSwapManager10route_flow
FN:400,_RNvMs1_CscT4abZYhE3h_9lb_l4_xdpNtB5_14HotSwapManager13swap_backends
FN:386,_RNvMs1_CscT4abZYhE3h_9lb_l4_xdpNtB5_14HotSwapManager3new
FN:208,_RNvXs_CscT4abZYhE3h_9lb_l4_xdpNtB4_14ConntrackTableNtNtCs2va5m0jqTTM_4core7default7Default7default
FN:557,_RNCNvNtCslXikeFjAAou_9lb_l4_xdp5testss_18maglev_consistency0B5_
FN:582,_RNCNvNtCslXikeFjAAou_9lb_l4_xdp5testss_19maglev_distribution0B5_
FN:474,_RNCNvNtCslXikeFjAAou_9lb_l4_xdp5testss_30conntrack_eviction_at_capacity0B5_
FN:621,_RNCNvNtCslXikeFjAAou_9lb_l4_xdp5testss_43hotswap_evicts_stale_conntrack_after_shrink0B5_
FN:531,_RNvNtCslXikeFjAAou_9lb_l4_xdp5testss_15is_prime_checks
FN:465,_RNvNtCslXikeFjAAou_9lb_l4_xdp5testss_17conntrack_default
FN:556,_RNvNtCslXikeFjAAou_9lb_l4_xdp5testss_18maglev_consistency
FN:581,_RNvNtCslXikeFjAAou_9lb_l4_xdp5testss_19maglev_distribution
FN:568,_RNvNtCslXikeFjAAou_9lb_l4_xdp5testss_24maglev_no_backends_error
FN:597,_RNvNtCslXikeFjAAou_9lb_l4_xdp5testss_27hotswap_preserves_conntrack
FN:574,_RNvNtCslXikeFjAAou_9lb_l4_xdp5testss_28maglev_zero_table_size_error
FN:471,_RNvNtCslXikeFjAAou_9lb_l4_xdp5testss_30conntrack_eviction_at_capacity
FN:442,_RNvNtCslXikeFjAAou_9lb_l4_xdp5testss_30conntrack_insert_lookup_remove
FN:546,_RNvNtCslXikeFjAAou_9lb_l4_xdp5testss_36maglev_non_prime_table_size_rejected
FN:501,_RNvNtCslXikeFjAAou_9lb_l4_xdp5testss_40conntrack_update_existing_does_not_evict
FN:619,_RNvNtCslXikeFjAAou_9lb_l4_xdp5testss_43hotswap_evicts_stale_conntrack_after_shrink
FN:189,_RNCNvMCslXikeFjAAou_9lb_l4_xdpNtB4_14ConntrackTable6remove0B4_
FN:280,_RNCNvMs0_CslXikeFjAAou_9lb_l4_xdpNtB7_11MaglevTable6lookup0B7_
FN:325,_RNCNvMs0_CslXikeFjAAou_9lb_l4_xdpNtB7_11MaglevTable8populate0B7_
FN:214,_RNvCslXikeFjAAou_9lb_l4_xdp8is_prime
FN:147,_RNvMCslXikeFjAAou_9lb_l4_xdpNtB2_14ConntrackTable13with_capacity
FN:196,_RNvMCslXikeFjAAou_9lb_l4_xdpNtB2_14ConntrackTable3len
FN:137,_RNvMCslXikeFjAAou_9lb_l4_xdpNtB2_14ConntrackTable3new
FN:164,_RNvMCslXikeFjAAou_9lb_l4_xdpNtB2_14ConntrackTable6insert
FN:157,_RNvMCslXikeFjAAou_9lb_l4_xdpNtB2_14ConntrackTable6lookup
FN:186,_RNvMCslXikeFjAAou_9lb_l4_xdpNtB2_14ConntrackTable6remove
FN:202,_RNvMCslXikeFjAAou_9lb_l4_xdpNtB2_14ConntrackTable8is_empty
FN:291,_RNvMs0_CslXikeFjAAou_9lb_l4_xdpNtB5_11MaglevTable11permutation
FN:285,_RNvMs0_CslXikeFjAAou_9lb_l4_xdpNtB5_11MaglevTable13backend_count
FN:251,_RNvMs0_CslXikeFjAAou_9lb_l4_xdpNtB5_11MaglevTable3new
FN:272,_RNvMs0_CslXikeFjAAou_9lb_l4_xdpNtB5_11MaglevTable6lookup
FN:305,_RNvMs0_CslXikeFjAAou_9lb_l4_xdpNtB5_11MaglevTable8hash_str
FN:321,_RNvMs0_CslXikeFjAAou_9lb_l4_xdpNtB5_11MaglevTable8populate
FN:422,_RNvMs1_CslXikeFjAAou_9lb_l4_xdpNtB5_14HotSwapManager10route_flow
FN:400,_RNvMs1_CslXikeFjAAou_9lb_l4_xdpNtB5_14HotSwapManager13swap_backends
FN:386,_RNvMs1_CslXikeFjAAou_9lb_l4_xdpNtB5_14HotSwapManager3new
FN:208,_RNvXs_CslXikeFjAAou_9lb_l4_xdpNtB4_14ConntrackTableNtNtCs2va5m0jqTTM_4core7default7Default7default
FNDA:0,_RNCNvMCscT4abZYhE3h_9lb_l4_xdpNtB4_14ConntrackTable6remove0B4_
FNDA:0,_RNCNvMs0_CscT4abZYhE3h_9lb_l4_xdpNtB7_11MaglevTable6lookup0B7_
FNDA:0,_RNCNvMs0_CscT4abZYhE3h_9lb_l4_xdpNtB7_11MaglevTable8populate0B7_
FNDA:0,_RNvCscT4abZYhE3h_9lb_l4_xdp8is_prime
FNDA:0,_RNvMCscT4abZYhE3h_9lb_l4_xdpNtB2_14ConntrackTable13with_capacity
FNDA:0,_RNvMCscT4abZYhE3h_9lb_l4_xdpNtB2_14ConntrackTable3len
FNDA:0,_RNvMCscT4abZYhE3h_9lb_l4_xdpNtB2_14ConntrackTable3new
FNDA:0,_RNvMCscT4abZYhE3h_9lb_l4_xdpNtB2_14ConntrackTable6insert
FNDA:0,_RNvMCscT4abZYhE3h_9lb_l4_xdpNtB2_14ConntrackTable6lookup
FNDA:0,_RNvMCscT4abZYhE3h_9lb_l4_xdpNtB2_14ConntrackTable6remove
FNDA:0,_RNvMCscT4abZYhE3h_9lb_l4_xdpNtB2_14ConntrackTable8is_empty
FNDA:0,_RNvMs0_CscT4abZYhE3h_9lb_l4_xdpNtB5_11MaglevTable11permutation
FNDA:0,_RNvMs0_CscT4abZYhE3h_9lb_l4_xdpNtB5_11MaglevTable13backend_count
FNDA:0,_RNvMs0_CscT4abZYhE3h_9lb_l4_xdpNtB5_11MaglevTable3new
FNDA:0,_RNvMs0_CscT4abZYhE3h_9lb_l4_xdpNtB5_11MaglevTable6lookup
FNDA:0,_RNvMs0_CscT4abZYhE3h_9lb_l4_xdpNtB5_11MaglevTable8hash_str
FNDA:0,_RNvMs0_CscT4abZYhE3h_9lb_l4_xdpNtB5_11MaglevTable8populate
FNDA:0,_RNvMs1_CscT4abZYhE3h_9lb_l4_xdpNtB5_14HotSwapManager10route_flow
FNDA:0,_RNvMs1_CscT4abZYhE3h_9lb_l4_xdpNtB5_14HotSwapManager13swap_backends
FNDA:0,_RNvMs1_CscT4abZYhE3h_9lb_l4_xdpNtB5_14HotSwapManager3new
FNDA:0,_RNvXs_CscT4abZYhE3h_9lb_l4_xdpNtB4_14ConntrackTableNtNtCs2va5m0jqTTM_4core7default7Default7default
FNDA:0,_RNCNvNtCslXikeFjAAou_9lb_l4_xdp5testss_18maglev_consistency0B5_
FNDA:0,_RNCNvNtCslXikeFjAAou_9lb_l4_xdp5testss_19maglev_distribution0B5_
FNDA:0,_RNCNvNtCslXikeFjAAou_9lb_l4_xdp5testss_30conntrack_eviction_at_capacity0B5_
FNDA:0,_RNCNvNtCslXikeFjAAou_9lb_l4_xdp5testss_43hotswap_evicts_stale_conntrack_after_shrink0B5_
FNDA:0,_RNvNtCslXikeFjAAou_9lb_l4_xdp5testss_15is_prime_checks
FNDA:0,_RNvNtCslXikeFjAAou_9lb_l4_xdp5testss_17conntrack_default
FNDA:0,_RNvNtCslXikeFjAAou_9lb_l4_xdp5testss_18maglev_consistency
FNDA:0,_RNvNtCslXikeFjAAou_9lb_l4_xdp5testss_19maglev_distribution
FNDA:0,_RNvNtCslXikeFjAAou_9lb_l4_xdp5testss_24maglev_no_backends_error
FNDA:0,_RNvNtCslXikeFjAAou_9lb_l4_xdp5testss_27hotswap_preserves_conntrack
FNDA:0,_RNvNtCslXikeFjAAou_9lb_l4_xdp5testss_28maglev_zero_table_size_error
FNDA:0,_RNvNtCslXikeFjAAou_9lb_l4_xdp5testss_30conntrack_eviction_at_capacity
FNDA:0,_RNvNtCslXikeFjAAou_9lb_l4_xdp5testss_30conntrack_insert_lookup_remove
FNDA:0,_RNvNtCslXikeFjAAou_9lb_l4_xdp5testss_36maglev_non_prime_table_size_rejected
FNDA:0,_RNvNtCslXikeFjAAou_9lb_l4_xdp5testss_40conntrack_update_existing_does_not_evict
FNDA:0,_RNvNtCslXikeFjAAou_9lb_l4_xdp5testss_43hotswap_evicts_stale_conntrack_after_shrink
FNDA:0,_RNCNvMCslXikeFjAAou_9lb_l4_xdpNtB4_14ConntrackTable6remove0B4_
FNDA:0,_RNCNvMs0_CslXikeFjAAou_9lb_l4_xdpNtB7_11MaglevTable6lookup0B7_
FNDA:0,_RNCNvMs0_CslXikeFjAAou_9lb_l4_xdpNtB7_11MaglevTable8populate0B7_
FNDA:0,_RNvCslXikeFjAAou_9lb_l4_xdp8is_prime
FNDA:0,_RNvMCslXikeFjAAou_9lb_l4_xdpNtB2_14ConntrackTable13with_capacity
FNDA:0,_RNvMCslXikeFjAAou_9lb_l4_xdpNtB2_14ConntrackTable3len
FNDA:0,_RNvMCslXikeFjAAou_9lb_l4_xdpNtB2_14ConntrackTable3new
FNDA:0,_RNvMCslXikeFjAAou_9lb_l4_xdpNtB2_14ConntrackTable6insert
FNDA:0,_RNvMCslXikeFjAAou_9lb_l4_xdpNtB2_14ConntrackTable6lookup
FNDA:0,_RNvMCslXikeFjAAou_9lb_l4_xdpNtB2_14ConntrackTable6remove
FNDA:0,_RNvMCslXikeFjAAou_9lb_l4_xdpNtB2_14ConntrackTable8is_empty
FNDA:0,_RNvMs0_CslXikeFjAAou_9lb_l4_xdpNtB5_11MaglevTable11permutation
FNDA:0,_RNvMs0_CslXikeFjAAou_9lb_l4_xdpNtB5_11MaglevTable13backend_count
FNDA:0,_RNvMs0_CslXikeFjAAou_9lb_l4_xdpNtB5_11MaglevTable3new
FNDA:0,_RNvMs0_CslXikeFjAAou_9lb_l4_xdpNtB5_11MaglevTable6lookup
FNDA:0,_RNvMs0_CslXikeFjAAou_9lb_l4_xdpNtB5_11MaglevTable8hash_str
FNDA:0,_RNvMs0_CslXikeFjAAou_9lb_l4_xdpNtB5_11MaglevTable8populate
FNDA:0,_RNvMs1_CslXikeFjAAou_9lb_l4_xdpNtB5_14HotSwapManager10route_flow
FNDA:0,_RNvMs1_CslXikeFjAAou_9lb_l4_xdpNtB5_14HotSwapManager13swap_backends
FNDA:0,_RNvMs1_CslXikeFjAAou_9lb_l4_xdpNtB5_14HotSwapManager3new
FNDA:0,_RNvXs_CslXikeFjAAou_9lb_l4_xdpNtB4_14ConntrackTableNtNtCs2va5m0jqTTM_4core7default7Default7default
FNF:37
FNH:0
DA:137,0
DA:138,0
DA:139,0
DA:140,0
DA:141,0
DA:142,0
DA:143,0
DA:147,0
DA:148,0
DA:149,0
DA:150,0
DA:151,0
DA:152,0
DA:153,0
DA:157,0
DA:158,0
DA:159,0
DA:164,0
DA:166,0
DA:168,0
DA:169,0
DA:170,0
DA:173,0
DA:174,0
DA:175,0
DA:176,0
DA:177,0
DA:181,0
DA:182,0
DA:183,0
DA:186,0
DA:187,0
DA:188,0
DA:189,0
DA:190,0
DA:191,0
DA:192,0
DA:196,0
DA:197,0
DA:198,0
DA:202,0
DA:203,0
DA:204,0
DA:208,0
DA:209,0
DA:210,0
DA:214,0
DA:215,0
DA:216,0
DA:217,0
DA:218,0
DA:219,0
DA:220,0
DA:221,0
DA:222,0
DA:223,0
DA:224,0
DA:225,0
DA:226,0
DA:227,0
DA:228,0
DA:229,0
DA:231,0
DA:232,0
DA:251,0
DA:252,0
DA:253,0
DA:254,0
DA:255,0
DA:256,0
DA:257,0
DA:258,0
DA:259,0
DA:260,0
DA:261,0
DA:262,0
DA:263,0
DA:264,0
DA:272,0
DA:273,0
DA:274,0
DA:275,0
DA:276,0
DA:277,0
DA:278,0
DA:279,0
DA:280,0
DA:281,0
DA:285,0
DA:286,0
DA:287,0
DA:291,0
DA:292,0
DA:293,0
DA:294,0
DA:295,0
DA:296,0
DA:297,0
DA:299,0
DA:301,0
DA:302,0
DA:305,0
DA:306,0
DA:307,0
DA:308,0
DA:309,0
DA:310,0
DA:311,0
DA:312,0
DA:313,0
DA:314,0
DA:315,0
DA:316,0
DA:317,0
DA:318,0
DA:321,0
DA:322,0
DA:323,0
DA:324,0
DA:325,0
DA:326,0
DA:327,0
DA:328,0
DA:329,0
DA:330,0
DA:332,0
DA:333,0
DA:334,0
DA:335,0
DA:336,0
DA:339,0
DA:340,0
DA:341,0
DA:343,0
DA:346,0
DA:347,0
DA:348,0
DA:349,0
DA:351,0
DA:352,0
DA:353,0
DA:354,0
DA:355,0
DA:356,0
DA:357,0
DA:358,0
DA:359,0
DA:360,0
DA:361,0
DA:365,0
DA:366,0
DA:386,0
DA:387,0
DA:388,0
DA:389,0
DA:390,0
DA:391,0
DA:392,0
DA:400,0
DA:401,0
DA:402,0
DA:403,0
DA:404,0
DA:405,0
DA:406,0
DA:407,0
DA:408,0
DA:422,0
DA:423,0
DA:424,0
DA:425,0
DA:426,0
DA:427,0
DA:428,0
DA:429,0
DA:431,0
DA:432,0
DA:433,0
DA:434,0
DA:442,0
DA:443,0
DA:444,0
DA:446,0
DA:447,0
DA:448,0
DA:449,0
DA:450,0
DA:451,0
DA:452,0
DA:453,0
DA:454,0
DA:455,0
DA:456,0
DA:458,0
DA:459,0
DA:460,0
DA:461,0
DA:462,0
DA:465,0
DA:466,0
DA:467,0
DA:468,0
DA:471,0
DA:472,0
DA:473,0
DA:474,0
DA:475,0
DA:476,0
DA:477,0
DA:478,0
DA:479,0
DA:480,0
DA:482,0
DA:483,0
DA:484,0
DA:485,0
DA:488,0
DA:489,0
DA:490,0
DA:491,0
DA:493,0
DA:495,0
DA:496,0
DA:497,0
DA:498,0
DA:501,0
DA:502,0
DA:503,0
DA:504,0
DA:505,0
DA:506,0
DA:507,0
DA:508,0
DA:509,0
DA:510,0
DA:511,0
DA:512,0
DA:513,0
DA:514,0
DA:515,0
DA:516,0
DA:517,0
DA:518,0
DA:519,0
DA:520,0
DA:521,0
DA:524,0
DA:525,0
DA:526,0
DA:527,0
DA:528,0
DA:531,0
DA:532,0
DA:533,0
DA:534,0
DA:535,0
DA:536,0
DA:537,0
DA:538,0
DA:539,0
DA:540,0
DA:541,0
DA:542,0
DA:543,0
DA:546,0
DA:547,0
DA:548,0
DA:549,0
DA:551,0
DA:552,0
DA:553,0
DA:556,0
DA:557,0
DA:558,0
DA:560,0
DA:561,0
DA:562,0
DA:563,0
DA:565,0
DA:568,0
DA:569,0
DA:570,0
DA:571,0
DA:574,0
DA:575,0
DA:576,0
DA:577,0
DA:578,0
DA:581,0
DA:582,0
DA:583,0
DA:584,0
DA:586,0
DA:587,0
DA:588,0
DA:589,0
DA:590,0
DA:591,0
DA:592,0
DA:594,0
DA:597,0
DA:598,0
DA:599,0
DA:600,0
DA:601,0
DA:602,0
DA:603,0
DA:604,0
DA:605,0
DA:606,0
DA:607,0
DA:608,0
DA:609,0
DA:610,0
DA:611,0
DA:612,0
DA:613,0
DA:614,0
DA:615,0
DA:616,0
DA:619,0
DA:620,0
DA:621,0
DA:622,0
DA:623,0
DA:624,0
DA:625,0
DA:626,0
DA:627,0
DA:628,0
DA:629,0
DA:630,0
DA:631,0
DA:632,0
DA:633,0
DA:634,0
DA:635,0
DA:636,0
DA:637,0
DA:638,0
DA:639,0
DA:640,0
DA:641,0
DA:642,0
DA:643,0
DA:648,0
DA:650,0
DA:653,0
DA:655,0
BRF:0
BRH:0
LF:356
LH:0
end_of_record
SF:/home/ubuntu/Code/ExpressGateway/.claude/worktrees/s15-builder/crates/lb-l4-xdp/src/loader.rs
FN:1050,_RNCNvMsa_NtCscT4abZYhE3h_9lb_l4_xdp6loaderNtB7_9XdpLoader11kernel_load0B9_
FN:1053,_RNCNvMsa_NtCscT4abZYhE3h_9lb_l4_xdp6loaderNtB7_9XdpLoader11kernel_loads_0B9_
FN:1437,_RNCNvMsa_NtCscT4abZYhE3h_9lb_l4_xdp6loaderNtB7_9XdpLoader16attach_replacing0B9_
FN:1440,_RNCNvMsa_NtCscT4abZYhE3h_9lb_l4_xdp6loaderNtB7_9XdpLoader16attach_replacings_0B9_
FN:1497,_RNCNvMsa_NtCscT4abZYhE3h_9lb_l4_xdp6loaderNtB7_9XdpLoader16detach_verifying0B9_
FN:1500,_RNCNvMsa_NtCscT4abZYhE3h_9lb_l4_xdp6loaderNtB7_9XdpLoader16detach_verifyings_0B9_
FN:932,_RNCNvMsa_NtCscT4abZYhE3h_9lb_l4_xdp6loaderNtB7_9XdpLoader16set_new_flow_cap0B9_
FN:1133,_RNCNvMsa_NtCscT4abZYhE3h_9lb_l4_xdp6loaderNtB7_9XdpLoader20attach_with_fallback0B9_
FN:1208,_RNCNvMsa_NtCscT4abZYhE3h_9lb_l4_xdp6loaderNtB7_9XdpLoader20attach_with_fallbacks0_0B9_
FN:1136,_RNCNvMsa_NtCscT4abZYhE3h_9lb_l4_xdp6loaderNtB7_9XdpLoader20attach_with_fallbacks_0B9_
FN:904,_RNCNvMsa_NtCscT4abZYhE3h_9lb_l4_xdp6loaderNtB7_9XdpLoader20install_stats_export0B9_
FN:1077,_RNCNvMsa_NtCscT4abZYhE3h_9lb_l4_xdp6loaderNtB7_9XdpLoader6attach0B9_
FN:1080,_RNCNvMsa_NtCscT4abZYhE3h_9lb_l4_xdp6loaderNtB7_9XdpLoader6attachs_0B9_
FN:1380,_RNCNvMsa_NtCscT4abZYhE3h_9lb_l4_xdp6loaderNtB7_9XdpLoader9query_xdp0B9_
FN:1589,_RNCNvMsb_NtCscT4abZYhE3h_9lb_l4_xdp6loaderNtB7_12CtInsertGate6now_ns0B9_
FN:732,_RNCNvNtCscT4abZYhE3h_9lb_l4_xdp6loader21assert_license_is_gpl0B5_
FN:742,_RNCNvNtCscT4abZYhE3h_9lb_l4_xdp6loader21assert_license_is_gpls0_0B5_
FN:735,_RNCNvNtCscT4abZYhE3h_9lb_l4_xdp6loader21assert_license_is_gpls_0B5_
FN:196,_RNvMs1_NtCscT4abZYhE3h_9lb_l4_xdp6loaderNtB5_12BackendEntry3new
FN:227,_RNvMs1_NtCscT4abZYhE3h_9lb_l4_xdp6loaderNtB5_12BackendEntry7try_new
FN:278,_RNvMs3_NtCscT4abZYhE3h_9lb_l4_xdp6loaderNtB5_9FlowKeyV63new
FN:327,_RNvMs5_NtCscT4abZYhE3h_9lb_l4_xdp6loaderNtB5_14BackendEntryV63new
FN:352,_RNvMs5_NtCscT4abZYhE3h_9lb_l4_xdp6loaderNtB5_14BackendEntryV67try_new
FN:454,_RNvMs7_NtCscT4abZYhE3h_9lb_l4_xdp6loaderNtB5_12BackendTable6zeroed
FN:500,_RNvMs9_NtCscT4abZYhE3h_9lb_l4_xdp6loaderNtB5_7XdpMode8to_flags
FN:512,_RNvMs9_NtCscT4abZYhE3h_9lb_l4_xdp6loaderNtB5_7XdpMode8to_label
FN:135,_RNvMs_NtCscT4abZYhE3h_9lb_l4_xdp6loaderNtB4_7FlowKey3new
FN:1046,_RNvMsa_NtCscT4abZYhE3h_9lb_l4_xdp6loaderNtB5_9XdpLoader11kernel_load
FN:1246,_RNvMsa_NtCscT4abZYhE3h_9lb_l4_xdp6loaderNtB5_9XdpLoader13conntrack_map
FN:1032,_RNvMsa_NtCscT4abZYhE3h_9lb_l4_xdp6loaderNtB5_9XdpLoader13program_names
FN:950,_RNvMsa_NtCscT4abZYhE3h_9lb_l4_xdp6loaderNtB5_9XdpLoader15backends_v4_map
FN:1313,_RNvMsa_NtCscT4abZYhE3h_9lb_l4_xdp6loaderNtB5_9XdpLoader15insert_acl_deny
FN:816,_RNvMsa_NtCscT4abZYhE3h_9lb_l4_xdp6loaderNtB5_9XdpLoader15load_from_bytes
FN:1409,_RNvMsa_NtCscT4abZYhE3h_9lb_l4_xdp6loaderNtB5_9XdpLoader16attach_replacing
FN:1266,_RNvMsa_NtCscT4abZYhE3h_9lb_l4_xdp6loaderNtB5_9XdpLoader16conntrack_v6_map
FN:1474,_RNvMsa_NtCscT4abZYhE3h_9lb_l4_xdp6loaderNtB5_9XdpLoader16detach_verifying
FN:923,_RNvMsa_NtCscT4abZYhE3h_9lb_l4_xdp6loaderNtB5_9XdpLoader16set_new_flow_cap
FN:989,_RNvMsa_NtCscT4abZYhE3h_9lb_l4_xdp6loaderNtB5_9XdpLoader19publish_backends_v4
FN:1115,_RNvMsa_NtCscT4abZYhE3h_9lb_l4_xdp6loaderNtB5_9XdpLoader20attach_with_fallback
FN:901,_RNvMsa_NtCscT4abZYhE3h_9lb_l4_xdp6loaderNtB5_9XdpLoader20install_stats_export
FN:856,_RNvMsa_NtCscT4abZYhE3h_9lb_l4_xdp6loaderNtB5_9XdpLoader22load_from_bytes_pinned
FN:1332,_RNvMsa_NtCscT4abZYhE3h_9lb_l4_xdp6loaderNtB5_9XdpLoader4ebpf
FN:1068,_RNvMsa_NtCscT4abZYhE3h_9lb_l4_xdp6loaderNtB5_9XdpLoader6attach
FN:1284,_RNvMsa_NtCscT4abZYhE3h_9lb_l4_xdp6loaderNtB5_9XdpLoader8acl_trie
FN:1337,_RNvMsa_NtCscT4abZYhE3h_9lb_l4_xdp6loaderNtB5_9XdpLoader8ebpf_mut
FN:1219,_RNvMsa_NtCscT4abZYhE3h_9lb_l4_xdp6loaderNtB5_9XdpLoader8take_map
FN:1368,_RNvMsa_NtCscT4abZYhE3h_9lb_l4_xdp6loaderNtB5_9XdpLoader9query_xdp
FN:1575,_RNvMsb_NtCscT4abZYhE3h_9lb_l4_xdp6loaderNtB5_12CtInsertGate3new
FN:1584,_RNvMsb_NtCscT4abZYhE3h_9lb_l4_xdp6loaderNtB5_12CtInsertGate6now_ns
FN:1597,_RNvMsb_NtCscT4abZYhE3h_9lb_l4_xdp6loaderNtB5_12CtInsertGate9try_admit
FN:528,_RNvNtCscT4abZYhE3h_9lb_l4_xdp6loader19is_unsupported_mode
FN:731,_RNvNtCscT4abZYhE3h_9lb_l4_xdp6loader21assert_license_is_gpl
FN:468,_RNvXs8_NtCscT4abZYhE3h_9lb_l4_xdp6loaderNtB5_12BackendTableNtNtCs2va5m0jqTTM_4core7default7Default7default
FN:1786,_RNvNtNtCslXikeFjAAou_9lb_l4_xdp6loader5tests30build_elf_with_license_section
FN:1846,_RNvNtNtCslXikeFjAAou_9lb_l4_xdp6loader5testss_16xdp_mode_is_copy
FN:1688,_RNvNtNtCslXikeFjAAou_9lb_l4_xdp6loader5testss_21xdp_mode_flag_mapping
FN:1676,_RNvNtNtCslXikeFjAAou_9lb_l4_xdp6loader5testss_25load_empty_bytes_rejected
FN:1662,_RNvNtNtCslXikeFjAAou_9lb_l4_xdp6loader5testss_27load_garbage_bytes_rejected
FN:1769,_RNvNtNtCslXikeFjAAou_9lb_l4_xdp6loader5testss_33license_check_accepts_gpl_payload
FN:1752,_RNvNtNtCslXikeFjAAou_9lb_l4_xdp6loader5testss_35license_check_rejects_wrong_payload
FN:1712,_RNvNtNtCslXikeFjAAou_9lb_l4_xdp6loader5testss_49license_check_rejects_elf_without_license_section
FN:732,_RNCNvNtCslXikeFjAAou_9lb_l4_xdp6loader21assert_license_is_gpl0B5_
FN:742,_RNCNvNtCslXikeFjAAou_9lb_l4_xdp6loader21assert_license_is_gpls0_0B5_
FN:735,_RNCNvNtCslXikeFjAAou_9lb_l4_xdp6loader21assert_license_is_gpls_0B5_
FN:500,_RNvMs9_NtCslXikeFjAAou_9lb_l4_xdp6loaderNtB5_7XdpMode8to_flags
FN:816,_RNvMsa_NtCslXikeFjAAou_9lb_l4_xdp6loaderNtB5_9XdpLoader15load_from_bytes
FN:856,_RNvMsa_NtCslXikeFjAAou_9lb_l4_xdp6loaderNtB5_9XdpLoader22load_from_bytes_pinned
FN:731,_RNvNtCslXikeFjAAou_9lb_l4_xdp6loader21assert_license_is_gpl
FN:1050,_RNCNvMsa_NtCslXikeFjAAou_9lb_l4_xdp6loaderNtB7_9XdpLoader11kernel_load0B9_
FN:1053,_RNCNvMsa_NtCslXikeFjAAou_9lb_l4_xdp6loaderNtB7_9XdpLoader11kernel_loads_0B9_
FN:1437,_RNCNvMsa_NtCslXikeFjAAou_9lb_l4_xdp6loaderNtB7_9XdpLoader16attach_replacing0B9_
FN:1440,_RNCNvMsa_NtCslXikeFjAAou_9lb_l4_xdp6loaderNtB7_9XdpLoader16attach_replacings_0B9_
FN:1497,_RNCNvMsa_NtCslXikeFjAAou_9lb_l4_xdp6loaderNtB7_9XdpLoader16detach_verifying0B9_
FN:1500,_RNCNvMsa_NtCslXikeFjAAou_9lb_l4_xdp6loaderNtB7_9XdpLoader16detach_verifyings_0B9_
FN:932,_RNCNvMsa_NtCslXikeFjAAou_9lb_l4_xdp6loaderNtB7_9XdpLoader16set_new_flow_cap0B9_
FN:1133,_RNCNvMsa_NtCslXikeFjAAou_9lb_l4_xdp6loaderNtB7_9XdpLoader20attach_with_fallback0B9_
FN:1208,_RNCNvMsa_NtCslXikeFjAAou_9lb_l4_xdp6loaderNtB7_9XdpLoader20attach_with_fallbacks0_0B9_
FN:1136,_RNCNvMsa_NtCslXikeFjAAou_9lb_l4_xdp6loaderNtB7_9XdpLoader20attach_with_fallbacks_0B9_
FN:904,_RNCNvMsa_NtCslXikeFjAAou_9lb_l4_xdp6loaderNtB7_9XdpLoader20install_stats_export0B9_
FN:1077,_RNCNvMsa_NtCslXikeFjAAou_9lb_l4_xdp6loaderNtB7_9XdpLoader6attach0B9_
FN:1080,_RNCNvMsa_NtCslXikeFjAAou_9lb_l4_xdp6loaderNtB7_9XdpLoader6attachs_0B9_
FN:1380,_RNCNvMsa_NtCslXikeFjAAou_9lb_l4_xdp6loaderNtB7_9XdpLoader9query_xdp0B9_
FN:1589,_RNCNvMsb_NtCslXikeFjAAou_9lb_l4_xdp6loaderNtB7_12CtInsertGate6now_ns0B9_
FN:196,_RNvMs1_NtCslXikeFjAAou_9lb_l4_xdp6loaderNtB5_12BackendEntry3new
FN:227,_RNvMs1_NtCslXikeFjAAou_9lb_l4_xdp6loaderNtB5_12BackendEntry7try_new
FN:278,_RNvMs3_NtCslXikeFjAAou_9lb_l4_xdp6loaderNtB5_9FlowKeyV63new
FN:327,_RNvMs5_NtCslXikeFjAAou_9lb_l4_xdp6loaderNtB5_14BackendEntryV63new
FN:352,_RNvMs5_NtCslXikeFjAAou_9lb_l4_xdp6loaderNtB5_14BackendEntryV67try_new
FN:454,_RNvMs7_NtCslXikeFjAAou_9lb_l4_xdp6loaderNtB5_12BackendTable6zeroed
FN:512,_RNvMs9_NtCslXikeFjAAou_9lb_l4_xdp6loaderNtB5_7XdpMode8to_label
FN:135,_RNvMs_NtCslXikeFjAAou_9lb_l4_xdp6loaderNtB4_7FlowKey3new
FN:1046,_RNvMsa_NtCslXikeFjAAou_9lb_l4_xdp6loaderNtB5_9XdpLoader11kernel_load
FN:1246,_RNvMsa_NtCslXikeFjAAou_9lb_l4_xdp6loaderNtB5_9XdpLoader13conntrack_map
FN:1032,_RNvMsa_NtCslXikeFjAAou_9lb_l4_xdp6loaderNtB5_9XdpLoader13program_names
FN:950,_RNvMsa_NtCslXikeFjAAou_9lb_l4_xdp6loaderNtB5_9XdpLoader15backends_v4_map
FN:1313,_RNvMsa_NtCslXikeFjAAou_9lb_l4_xdp6loaderNtB5_9XdpLoader15insert_acl_deny
FN:1409,_RNvMsa_NtCslXikeFjAAou_9lb_l4_xdp6loaderNtB5_9XdpLoader16attach_replacing
FN:1266,_RNvMsa_NtCslXikeFjAAou_9lb_l4_xdp6loaderNtB5_9XdpLoader16conntrack_v6_map
FN:1474,_RNvMsa_NtCslXikeFjAAou_9lb_l4_xdp6loaderNtB5_9XdpLoader16detach_verifying
FN:923,_RNvMsa_NtCslXikeFjAAou_9lb_l4_xdp6loaderNtB5_9XdpLoader16set_new_flow_cap
FN:989,_RNvMsa_NtCslXikeFjAAou_9lb_l4_xdp6loaderNtB5_9XdpLoader19publish_backends_v4
FN:1115,_RNvMsa_NtCslXikeFjAAou_9lb_l4_xdp6loaderNtB5_9XdpLoader20attach_with_fallback
FN:901,_RNvMsa_NtCslXikeFjAAou_9lb_l4_xdp6loaderNtB5_9XdpLoader20install_stats_export
FN:1332,_RNvMsa_NtCslXikeFjAAou_9lb_l4_xdp6loaderNtB5_9XdpLoader4ebpf
FN:1068,_RNvMsa_NtCslXikeFjAAou_9lb_l4_xdp6loaderNtB5_9XdpLoader6attach
FN:1284,_RNvMsa_NtCslXikeFjAAou_9lb_l4_xdp6loaderNtB5_9XdpLoader8acl_trie
FN:1337,_RNvMsa_NtCslXikeFjAAou_9lb_l4_xdp6loaderNtB5_9XdpLoader8ebpf_mut
FN:1219,_RNvMsa_NtCslXikeFjAAou_9lb_l4_xdp6loaderNtB5_9XdpLoader8take_map
FN:1368,_RNvMsa_NtCslXikeFjAAou_9lb_l4_xdp6loaderNtB5_9XdpLoader9query_xdp
FN:1575,_RNvMsb_NtCslXikeFjAAou_9lb_l4_xdp6loaderNtB5_12CtInsertGate3new
FN:1584,_RNvMsb_NtCslXikeFjAAou_9lb_l4_xdp6loaderNtB5_12CtInsertGate6now_ns
FN:1597,_RNvMsb_NtCslXikeFjAAou_9lb_l4_xdp6loaderNtB5_12CtInsertGate9try_admit
FN:528,_RNvNtCslXikeFjAAou_9lb_l4_xdp6loader19is_unsupported_mode
FN:468,_RNvXs8_NtCslXikeFjAAou_9lb_l4_xdp6loaderNtB5_12BackendTableNtNtCs2va5m0jqTTM_4core7default7Default7default
FNDA:0,_RNCNvMsa_NtCscT4abZYhE3h_9lb_l4_xdp6loaderNtB7_9XdpLoader11kernel_load0B9_
FNDA:0,_RNCNvMsa_NtCscT4abZYhE3h_9lb_l4_xdp6loaderNtB7_9XdpLoader11kernel_loads_0B9_
FNDA:0,_RNCNvMsa_NtCscT4abZYhE3h_9lb_l4_xdp6loaderNtB7_9XdpLoader16attach_replacing0B9_
FNDA:0,_RNCNvMsa_NtCscT4abZYhE3h_9lb_l4_xdp6loaderNtB7_9XdpLoader16attach_replacings_0B9_
FNDA:0,_RNCNvMsa_NtCscT4abZYhE3h_9lb_l4_xdp6loaderNtB7_9XdpLoader16detach_verifying0B9_
FNDA:0,_RNCNvMsa_NtCscT4abZYhE3h_9lb_l4_xdp6loaderNtB7_9XdpLoader16detach_verifyings_0B9_
FNDA:0,_RNCNvMsa_NtCscT4abZYhE3h_9lb_l4_xdp6loaderNtB7_9XdpLoader16set_new_flow_cap0B9_
FNDA:0,_RNCNvMsa_NtCscT4abZYhE3h_9lb_l4_xdp6loaderNtB7_9XdpLoader20attach_with_fallback0B9_
FNDA:0,_RNCNvMsa_NtCscT4abZYhE3h_9lb_l4_xdp6loaderNtB7_9XdpLoader20attach_with_fallbacks0_0B9_
FNDA:0,_RNCNvMsa_NtCscT4abZYhE3h_9lb_l4_xdp6loaderNtB7_9XdpLoader20attach_with_fallbacks_0B9_
FNDA:0,_RNCNvMsa_NtCscT4abZYhE3h_9lb_l4_xdp6loaderNtB7_9XdpLoader20install_stats_export0B9_
FNDA:0,_RNCNvMsa_NtCscT4abZYhE3h_9lb_l4_xdp6loaderNtB7_9XdpLoader6attach0B9_
FNDA:0,_RNCNvMsa_NtCscT4abZYhE3h_9lb_l4_xdp6loaderNtB7_9XdpLoader6attachs_0B9_
FNDA:0,_RNCNvMsa_NtCscT4abZYhE3h_9lb_l4_xdp6loaderNtB7_9XdpLoader9query_xdp0B9_
FNDA:0,_RNCNvMsb_NtCscT4abZYhE3h_9lb_l4_xdp6loaderNtB7_12CtInsertGate6now_ns0B9_
FNDA:0,_RNCNvNtCscT4abZYhE3h_9lb_l4_xdp6loader21assert_license_is_gpl0B5_
FNDA:0,_RNCNvNtCscT4abZYhE3h_9lb_l4_xdp6loader21assert_license_is_gpls0_0B5_
FNDA:0,_RNCNvNtCscT4abZYhE3h_9lb_l4_xdp6loader21assert_license_is_gpls_0B5_
FNDA:0,_RNvMs1_NtCscT4abZYhE3h_9lb_l4_xdp6loaderNtB5_12BackendEntry3new
FNDA:0,_RNvMs1_NtCscT4abZYhE3h_9lb_l4_xdp6loaderNtB5_12BackendEntry7try_new
FNDA:0,_RNvMs3_NtCscT4abZYhE3h_9lb_l4_xdp6loaderNtB5_9FlowKeyV63new
FNDA:0,_RNvMs5_NtCscT4abZYhE3h_9lb_l4_xdp6loaderNtB5_14BackendEntryV63new
FNDA:0,_RNvMs5_NtCscT4abZYhE3h_9lb_l4_xdp6loaderNtB5_14BackendEntryV67try_new
FNDA:0,_RNvMs7_NtCscT4abZYhE3h_9lb_l4_xdp6loaderNtB5_12BackendTable6zeroed
FNDA:0,_RNvMs9_NtCscT4abZYhE3h_9lb_l4_xdp6loaderNtB5_7XdpMode8to_flags
FNDA:0,_RNvMs9_NtCscT4abZYhE3h_9lb_l4_xdp6loaderNtB5_7XdpMode8to_label
FNDA:0,_RNvMs_NtCscT4abZYhE3h_9lb_l4_xdp6loaderNtB4_7FlowKey3new
FNDA:0,_RNvMsa_NtCscT4abZYhE3h_9lb_l4_xdp6loaderNtB5_9XdpLoader11kernel_load
FNDA:0,_RNvMsa_NtCscT4abZYhE3h_9lb_l4_xdp6loaderNtB5_9XdpLoader13conntrack_map
FNDA:0,_RNvMsa_NtCscT4abZYhE3h_9lb_l4_xdp6loaderNtB5_9XdpLoader13program_names
FNDA:0,_RNvMsa_NtCscT4abZYhE3h_9lb_l4_xdp6loaderNtB5_9XdpLoader15backends_v4_map
FNDA:0,_RNvMsa_NtCscT4abZYhE3h_9lb_l4_xdp6loaderNtB5_9XdpLoader15insert_acl_deny
FNDA:0,_RNvMsa_NtCscT4abZYhE3h_9lb_l4_xdp6loaderNtB5_9XdpLoader15load_from_bytes
FNDA:0,_RNvMsa_NtCscT4abZYhE3h_9lb_l4_xdp6loaderNtB5_9XdpLoader16attach_replacing
FNDA:0,_RNvMsa_NtCscT4abZYhE3h_9lb_l4_xdp6loaderNtB5_9XdpLoader16conntrack_v6_map
FNDA:0,_RNvMsa_NtCscT4abZYhE3h_9lb_l4_xdp6loaderNtB5_9XdpLoader16detach_verifying
FNDA:0,_RNvMsa_NtCscT4abZYhE3h_9lb_l4_xdp6loaderNtB5_9XdpLoader16set_new_flow_cap
FNDA:0,_RNvMsa_NtCscT4abZYhE3h_9lb_l4_xdp6loaderNtB5_9XdpLoader19publish_backends_v4
FNDA:0,_RNvMsa_NtCscT4abZYhE3h_9lb_l4_xdp6loaderNtB5_9XdpLoader20attach_with_fallback
FNDA:0,_RNvMsa_NtCscT4abZYhE3h_9lb_l4_xdp6loaderNtB5_9XdpLoader20install_stats_export
FNDA:0,_RNvMsa_NtCscT4abZYhE3h_9lb_l4_xdp6loaderNtB5_9XdpLoader22load_from_bytes_pinned
FNDA:0,_RNvMsa_NtCscT4abZYhE3h_9lb_l4_xdp6loaderNtB5_9XdpLoader4ebpf
FNDA:0,_RNvMsa_NtCscT4abZYhE3h_9lb_l4_xdp6loaderNtB5_9XdpLoader6attach
FNDA:0,_RNvMsa_NtCscT4abZYhE3h_9lb_l4_xdp6loaderNtB5_9XdpLoader8acl_trie
FNDA:0,_RNvMsa_NtCscT4abZYhE3h_9lb_l4_xdp6loaderNtB5_9XdpLoader8ebpf_mut
FNDA:0,_RNvMsa_NtCscT4abZYhE3h_9lb_l4_xdp6loaderNtB5_9XdpLoader8take_map
FNDA:0,_RNvMsa_NtCscT4abZYhE3h_9lb_l4_xdp6loaderNtB5_9XdpLoader9query_xdp
FNDA:0,_RNvMsb_NtCscT4abZYhE3h_9lb_l4_xdp6loaderNtB5_12CtInsertGate3new
FNDA:0,_RNvMsb_NtCscT4abZYhE3h_9lb_l4_xdp6loaderNtB5_12CtInsertGate6now_ns
FNDA:0,_RNvMsb_NtCscT4abZYhE3h_9lb_l4_xdp6loaderNtB5_12CtInsertGate9try_admit
FNDA:0,_RNvNtCscT4abZYhE3h_9lb_l4_xdp6loader19is_unsupported_mode
FNDA:0,_RNvNtCscT4abZYhE3h_9lb_l4_xdp6loader21assert_license_is_gpl
FNDA:0,_RNvXs8_NtCscT4abZYhE3h_9lb_l4_xdp6loaderNtB5_12BackendTableNtNtCs2va5m0jqTTM_4core7default7Default7default
FNDA:0,_RNvNtNtCslXikeFjAAou_9lb_l4_xdp6loader5tests30build_elf_with_license_section
FNDA:0,_RNvNtNtCslXikeFjAAou_9lb_l4_xdp6loader5testss_16xdp_mode_is_copy
FNDA:0,_RNvNtNtCslXikeFjAAou_9lb_l4_xdp6loader5testss_21xdp_mode_flag_mapping
FNDA:0,_RNvNtNtCslXikeFjAAou_9lb_l4_xdp6loader5testss_25load_empty_bytes_rejected
FNDA:0,_RNvNtNtCslXikeFjAAou_9lb_l4_xdp6loader5testss_27load_garbage_bytes_rejected
FNDA:0,_RNvNtNtCslXikeFjAAou_9lb_l4_xdp6loader5testss_33license_check_accepts_gpl_payload
FNDA:0,_RNvNtNtCslXikeFjAAou_9lb_l4_xdp6loader5testss_35license_check_rejects_wrong_payload
FNDA:0,_RNvNtNtCslXikeFjAAou_9lb_l4_xdp6loader5testss_49license_check_rejects_elf_without_license_section
FNDA:0,_RNCNvNtCslXikeFjAAou_9lb_l4_xdp6loader21assert_license_is_gpl0B5_
FNDA:0,_RNCNvNtCslXikeFjAAou_9lb_l4_xdp6loader21assert_license_is_gpls0_0B5_
FNDA:0,_RNCNvNtCslXikeFjAAou_9lb_l4_xdp6loader21assert_license_is_gpls_0B5_
FNDA:0,_RNvMs9_NtCslXikeFjAAou_9lb_l4_xdp6loaderNtB5_7XdpMode8to_flags
FNDA:0,_RNvMsa_NtCslXikeFjAAou_9lb_l4_xdp6loaderNtB5_9XdpLoader15load_from_bytes
FNDA:0,_RNvMsa_NtCslXikeFjAAou_9lb_l4_xdp6loaderNtB5_9XdpLoader22load_from_bytes_pinned
FNDA:0,_RNvNtCslXikeFjAAou_9lb_l4_xdp6loader21assert_license_is_gpl
FNDA:0,_RNCNvMsa_NtCslXikeFjAAou_9lb_l4_xdp6loaderNtB7_9XdpLoader11kernel_load0B9_
FNDA:0,_RNCNvMsa_NtCslXikeFjAAou_9lb_l4_xdp6loaderNtB7_9XdpLoader11kernel_loads_0B9_
FNDA:0,_RNCNvMsa_NtCslXikeFjAAou_9lb_l4_xdp6loaderNtB7_9XdpLoader16attach_replacing0B9_
FNDA:0,_RNCNvMsa_NtCslXikeFjAAou_9lb_l4_xdp6loaderNtB7_9XdpLoader16attach_replacings_0B9_
FNDA:0,_RNCNvMsa_NtCslXikeFjAAou_9lb_l4_xdp6loaderNtB7_9XdpLoader16detach_verifying0B9_
FNDA:0,_RNCNvMsa_NtCslXikeFjAAou_9lb_l4_xdp6loaderNtB7_9XdpLoader16detach_verifyings_0B9_
FNDA:0,_RNCNvMsa_NtCslXikeFjAAou_9lb_l4_xdp6loaderNtB7_9XdpLoader16set_new_flow_cap0B9_
FNDA:0,_RNCNvMsa_NtCslXikeFjAAou_9lb_l4_xdp6loaderNtB7_9XdpLoader20attach_with_fallback0B9_
FNDA:0,_RNCNvMsa_NtCslXikeFjAAou_9lb_l4_xdp6loaderNtB7_9XdpLoader20attach_with_fallbacks0_0B9_
FNDA:0,_RNCNvMsa_NtCslXikeFjAAou_9lb_l4_xdp6loaderNtB7_9XdpLoader20attach_with_fallbacks_0B9_
FNDA:0,_RNCNvMsa_NtCslXikeFjAAou_9lb_l4_xdp6loaderNtB7_9XdpLoader20install_stats_export0B9_
FNDA:0,_RNCNvMsa_NtCslXikeFjAAou_9lb_l4_xdp6loaderNtB7_9XdpLoader6attach0B9_
FNDA:0,_RNCNvMsa_NtCslXikeFjAAou_9lb_l4_xdp6loaderNtB7_9XdpLoader6attachs_0B9_
FNDA:0,_RNCNvMsa_NtCslXikeFjAAou_9lb_l4_xdp6loaderNtB7_9XdpLoader9query_xdp0B9_
FNDA:0,_RNCNvMsb_NtCslXikeFjAAou_9lb_l4_xdp6loaderNtB7_12CtInsertGate6now_ns0B9_
FNDA:0,_RNvMs1_NtCslXikeFjAAou_9lb_l4_xdp6loaderNtB5_12BackendEntry3new
FNDA:0,_RNvMs1_NtCslXikeFjAAou_9lb_l4_xdp6loaderNtB5_12BackendEntry7try_new
FNDA:0,_RNvMs3_NtCslXikeFjAAou_9lb_l4_xdp6loaderNtB5_9FlowKeyV63new
FNDA:0,_RNvMs5_NtCslXikeFjAAou_9lb_l4_xdp6loaderNtB5_14BackendEntryV63new
FNDA:0,_RNvMs5_NtCslXikeFjAAou_9lb_l4_xdp6loaderNtB5_14BackendEntryV67try_new
FNDA:0,_RNvMs7_NtCslXikeFjAAou_9lb_l4_xdp6loaderNtB5_12BackendTable6zeroed
FNDA:0,_RNvMs9_NtCslXikeFjAAou_9lb_l4_xdp6loaderNtB5_7XdpMode8to_label
FNDA:0,_RNvMs_NtCslXikeFjAAou_9lb_l4_xdp6loaderNtB4_7FlowKey3new
FNDA:0,_RNvMsa_NtCslXikeFjAAou_9lb_l4_xdp6loaderNtB5_9XdpLoader11kernel_load
FNDA:0,_RNvMsa_NtCslXikeFjAAou_9lb_l4_xdp6loaderNtB5_9XdpLoader13conntrack_map
FNDA:0,_RNvMsa_NtCslXikeFjAAou_9lb_l4_xdp6loaderNtB5_9XdpLoader13program_names
FNDA:0,_RNvMsa_NtCslXikeFjAAou_9lb_l4_xdp6loaderNtB5_9XdpLoader15backends_v4_map
FNDA:0,_RNvMsa_NtCslXikeFjAAou_9lb_l4_xdp6loaderNtB5_9XdpLoader15insert_acl_deny
FNDA:0,_RNvMsa_NtCslXikeFjAAou_9lb_l4_xdp6loaderNtB5_9XdpLoader16attach_replacing
FNDA:0,_RNvMsa_NtCslXikeFjAAou_9lb_l4_xdp6loaderNtB5_9XdpLoader16conntrack_v6_map
FNDA:0,_RNvMsa_NtCslXikeFjAAou_9lb_l4_xdp6loaderNtB5_9XdpLoader16detach_verifying
FNDA:0,_RNvMsa_NtCslXikeFjAAou_9lb_l4_xdp6loaderNtB5_9XdpLoader16set_new_flow_cap
FNDA:0,_RNvMsa_NtCslXikeFjAAou_9lb_l4_xdp6loaderNtB5_9XdpLoader19publish_backends_v4
FNDA:0,_RNvMsa_NtCslXikeFjAAou_9lb_l4_xdp6loaderNtB5_9XdpLoader20attach_with_fallback
FNDA:0,_RNvMsa_NtCslXikeFjAAou_9lb_l4_xdp6loaderNtB5_9XdpLoader20install_stats_export
FNDA:0,_RNvMsa_NtCslXikeFjAAou_9lb_l4_xdp6loaderNtB5_9XdpLoader4ebpf
FNDA:0,_RNvMsa_NtCslXikeFjAAou_9lb_l4_xdp6loaderNtB5_9XdpLoader6attach
FNDA:0,_RNvMsa_NtCslXikeFjAAou_9lb_l4_xdp6loaderNtB5_9XdpLoader8acl_trie
FNDA:0,_RNvMsa_NtCslXikeFjAAou_9lb_l4_xdp6loaderNtB5_9XdpLoader8ebpf_mut
FNDA:0,_RNvMsa_NtCslXikeFjAAou_9lb_l4_xdp6loaderNtB5_9XdpLoader8take_map
FNDA:0,_RNvMsa_NtCslXikeFjAAou_9lb_l4_xdp6loaderNtB5_9XdpLoader9query_xdp
FNDA:0,_RNvMsb_NtCslXikeFjAAou_9lb_l4_xdp6loaderNtB5_12CtInsertGate3new
FNDA:0,_RNvMsb_NtCslXikeFjAAou_9lb_l4_xdp6loaderNtB5_12CtInsertGate6now_ns
FNDA:0,_RNvMsb_NtCslXikeFjAAou_9lb_l4_xdp6loaderNtB5_12CtInsertGate9try_admit
FNDA:0,_RNvNtCslXikeFjAAou_9lb_l4_xdp6loader19is_unsupported_mode
FNDA:0,_RNvXs8_NtCslXikeFjAAou_9lb_l4_xdp6loaderNtB5_12BackendTableNtNtCs2va5m0jqTTM_4core7default7Default7default
FNF:61
FNH:0
DA:135,0
DA:136,0
DA:137,0
DA:138,0
DA:139,0
DA:140,0
DA:141,0
DA:142,0
DA:143,0
DA:144,0
DA:145,0
DA:146,0
DA:147,0
DA:148,0
DA:149,0
DA:150,0
DA:196,0
DA:197,0
DA:198,0
DA:199,0
DA:200,0
DA:201,0
DA:202,0
DA:203,0
DA:204,0
DA:205,0
DA:206,0
DA:207,0
DA:208,0
DA:209,0
DA:210,0
DA:211,0
DA:227,0
DA:228,0
DA:229,0
DA:230,0
DA:231,0
DA:232,0
DA:233,0
DA:234,0
DA:235,0
DA:236,0
DA:237,0
DA:238,0
DA:239,0
DA:240,0
DA:241,0
DA:242,0
DA:243,0
DA:244,0
DA:245,0
DA:246,0
DA:247,0
DA:248,0
DA:249,0
DA:250,0
DA:251,0
DA:278,0
DA:279,0
DA:280,0
DA:281,0
DA:282,0
DA:283,0
DA:284,0
DA:285,0
DA:286,0
DA:287,0
DA:288,0
DA:289,0
DA:290,0
DA:291,0
DA:292,0
DA:293,0
DA:327,0
DA:328,0
DA:329,0
DA:330,0
DA:331,0
DA:332,0
DA:333,0
DA:334,0
DA:335,0
DA:336,0
DA:337,0
DA:338,0
DA:339,0
DA:340,0
DA:341,0
DA:342,0
DA:352,0
DA:353,0
DA:354,0
DA:355,0
DA:356,0
DA:357,0
DA:358,0
DA:359,0
DA:360,0
DA:361,0
DA:362,0
DA:363,0
DA:364,0
DA:365,0
DA:366,0
DA:367,0
DA:368,0
DA:369,0
DA:370,0
DA:371,0
DA:372,0
DA:373,0
DA:374,0
DA:375,0
DA:376,0
DA:454,0
DA:456,0
DA:457,0
DA:458,0
DA:459,0
DA:460,0
DA:461,0
DA:462,0
DA:463,0
DA:464,0
DA:468,0
DA:469,0
DA:470,0
DA:500,0
DA:501,0
DA:502,0
DA:503,0
DA:504,0
DA:506,0
DA:512,0
DA:513,0
DA:514,0
DA:515,0
DA:516,0
DA:518,0
DA:528,0
DA:531,0
DA:532,0
DA:533,0
DA:534,0
DA:535,0
DA:536,0
DA:731,0
DA:732,0
DA:733,0
DA:734,0
DA:735,0
DA:736,0
DA:737,0
DA:738,0
DA:739,0
DA:740,0
DA:741,0
DA:742,0
DA:743,0
DA:744,0
DA:745,0
DA:746,0
DA:747,0
DA:748,0
DA:749,0
DA:750,0
DA:751,0
DA:752,0
DA:816,0
DA:817,0
DA:818,0
DA:856,0
DA:857,0
DA:858,0
DA:859,0
DA:860,0
DA:861,0
DA:862,0
DA:863,0
DA:864,0
DA:865,0
DA:866,0
DA:867,0
DA:868,0
DA:874,0
DA:875,0
DA:876,0
DA:877,0
DA:878,0
DA:879,0
DA:880,0
DA:881,0
DA:882,0
DA:901,0
DA:902,0
DA:903,0
DA:904,0
DA:905,0
DA:923,0
DA:925,0
DA:926,0
DA:927,0
DA:928,0
DA:929,0
DA:930,0
DA:931,0
DA:932,0
DA:933,0
DA:934,0
DA:935,0
DA:936,0
DA:937,0
DA:950,0
DA:951,0
DA:952,0
DA:953,0
DA:954,0
DA:955,0
DA:956,0
DA:957,0
DA:958,0
DA:989,0
DA:990,0
DA:991,0
DA:992,0
DA:993,0
DA:994,0
DA:995,0
DA:996,0
DA:997,0
DA:998,0
DA:1002,0
DA:1003,0
DA:1004,0
DA:1005,0
DA:1008,0
DA:1009,0
DA:1010,0
DA:1011,0
DA:1012,0
DA:1013,0
DA:1014,0
DA:1015,0
DA:1016,0
DA:1017,0
DA:1018,0
DA:1019,0
DA:1020,0
DA:1021,0
DA:1022,0
DA:1032,0
DA:1033,0
DA:1034,0
DA:1035,0
DA:1046,0
DA:1047,0
DA:1048,0
DA:1049,0
DA:1050,0
DA:1051,0
DA:1052,0
DA:1053,0
DA:1054,0
DA:1055,0
DA:1056,0
DA:1068,0
DA:1069,0
DA:1070,0
DA:1071,0
DA:1072,0
DA:1073,0
DA:1074,0
DA:1075,0
DA:1076,0
DA:1077,0
DA:1078,0
DA:1079,0
DA:1080,0
DA:1087,0
DA:1088,0
DA:1089,0
DA:1090,0
DA:1115,0
DA:1116,0
DA:1117,0
DA:1118,0
DA:1119,0
DA:1120,0
DA:1124,0
DA:1125,0
DA:1126,0
DA:1127,0
DA:1128,0
DA:1130,0
DA:1131,0
DA:1132,0
DA:1133,0
DA:1134,0
DA:1135,0
DA:1136,0
DA:1138,0
DA:1139,0
DA:1140,0
DA:1141,0
DA:1142,0
DA:1143,0
DA:1144,0
DA:1145,0
DA:1146,0
DA:1147,0
DA:1148,0
DA:1149,0
DA:1150,0
DA:1151,0
DA:1152,0
DA:1153,0
DA:1154,0
DA:1155,0
DA:1156,0
DA:1157,0
DA:1158,0
DA:1159,0
DA:1161,0
DA:1165,0
DA:1166,0
DA:1168,0
DA:1169,0
DA:1170,0
DA:1171,0
DA:1172,0
DA:1173,0
DA:1174,0
DA:1175,0
DA:1176,0
DA:1177,0
DA:1179,0
DA:1180,0
DA:1181,0
DA:1187,0
DA:1188,0
DA:1190,0
DA:1191,0
DA:1193,0
DA:1194,0
DA:1195,0
DA:1197,0
DA:1198,0
DA:1200,0
DA:1203,0
DA:1204,0
DA:1205,0
DA:1206,0
DA:1207,0
DA:1208,0
DA:1209,0
DA:1210,0
DA:1219,0
DA:1220,0
DA:1221,0
DA:1222,0
DA:1223,0
DA:1246,0
DA:1247,0
DA:1248,0
DA:1253,0
DA:1254,0
DA:1255,0
DA:1256,0
DA:1257,0
DA:1258,0
DA:1266,0
DA:1267,0
DA:1268,0
DA:1269,0
DA:1270,0
DA:1271,0
DA:1272,0
DA:1273,0
DA:1274,0
DA:1284,0
DA:1285,0
DA:1286,0
DA:1287,0
DA:1288,0
DA:1289,0
DA:1290,0
DA:1313,0
DA:1314,0
DA:1315,0
DA:1316,0
DA:1317,0
DA:1318,0
DA:1319,0
DA:1320,0
DA:1321,0
DA:1322,0
DA:1323,0
DA:1324,0
DA:1325,0
DA:1326,0
DA:1327,0
DA:1332,0
DA:1333,0
DA:1334,0
DA:1337,0
DA:1338,0
DA:1339,0
DA:1368,0
DA:1380,0
DA:1381,0
DA:1382,0
DA:1383,0
DA:1384,0
DA:1385,0
DA:1386,0
DA:1387,0
DA:1388,0
DA:1389,0
DA:1390,0
DA:1409,0
DA:1410,0
DA:1411,0
DA:1412,0
DA:1413,0
DA:1414,0
DA:1415,0
DA:1421,0
DA:1422,0
DA:1423,0
DA:1433,0
DA:1434,0
DA:1435,0
DA:1436,0
DA:1437,0
DA:1438,0
DA:1439,0
DA:1440,0
DA:1441,0
DA:1442,0
DA:1443,0
DA:1444,0
DA:1446,0
DA:1447,0
DA:1449,0
DA:1474,0
DA:1475,0
DA:1476,0
DA:1477,0
DA:1478,0
DA:1479,0
DA:1482,0
DA:1483,0
DA:1484,0
DA:1493,0
DA:1494,0
DA:1495,0
DA:1496,0
DA:1497,0
DA:1498,0
DA:1499,0
DA:1500,0
DA:1501,0
DA:1502,0
DA:1504,0
DA:1505,0
DA:1512,0
DA:1513,0
DA:1514,0
DA:1515,0
DA:1516,0
DA:1517,0
DA:1518,0
DA:1519,0
DA:1520,0
DA:1575,0
DA:1576,0
DA:1577,0
DA:1578,0
DA:1579,0
DA:1580,0
DA:1581,0
DA:1582,0
DA:1584,0
DA:1585,0
DA:1586,0
DA:1587,0
DA:1588,0
DA:1589,0
DA:1590,0
DA:1591,0
DA:1597,0
DA:1598,0
DA:1599,0
DA:1600,0
DA:1601,0
DA:1602,0
DA:1603,0
DA:1604,0
DA:1605,0
DA:1606,0
DA:1607,0
DA:1608,0
DA:1609,0
DA:1610,0
DA:1611,0
DA:1612,0
DA:1614,0
DA:1615,0
DA:1616,0
DA:1618,0
DA:1619,0
DA:1620,0
DA:1621,0
DA:1622,0
DA:1623,0
DA:1624,0
DA:1625,0
DA:1626,0
DA:1629,0
DA:1630,0
DA:1632,0
DA:1634,0
DA:1635,0
DA:1636,0
DA:1637,0
DA:1638,0
DA:1639,0
DA:1640,0
DA:1641,0
DA:1642,0
DA:1643,0
DA:1644,0
DA:1647,0
DA:1662,0
DA:1663,0
DA:1664,0
DA:1665,0
DA:1666,0
DA:1667,0
DA:1670,0
DA:1672,0
DA:1676,0
DA:1677,0
DA:1678,0
DA:1679,0
DA:1680,0
DA:1683,0
DA:1688,0
DA:1689,0
DA:1690,0
DA:1691,0
DA:1694,0
DA:1695,0
DA:1696,0
DA:1697,0
DA:1698,0
DA:1699,0
DA:1700,0
DA:1701,0
DA:1702,0
DA:1712,0
DA:1713,0
DA:1714,0
DA:1715,0
DA:1716,0
DA:1717,0
DA:1718,0
DA:1719,0
DA:1720,0
DA:1721,0
DA:1722,0
DA:1723,0
DA:1724,0
DA:1725,0
DA:1726,0
DA:1727,0
DA:1728,0
DA:1729,0
DA:1730,0
DA:1731,0
DA:1732,0
DA:1733,0
DA:1734,0
DA:1735,0
DA:1738,0
DA:1740,0
DA:1752,0
DA:1753,0
DA:1754,0
DA:1755,0
DA:1756,0
DA:1757,0
DA:1758,0
DA:1759,0
DA:1762,0
DA:1764,0
DA:1769,0
DA:1770,0
DA:1771,0
DA:1772,0
DA:1773,0
DA:1774,0
DA:1776,0
DA:1786,0
DA:1796,0
DA:1797,0
DA:1798,0
DA:1799,0
DA:1800,0
DA:1801,0
DA:1802,0
DA:1803,0
DA:1804,0
DA:1805,0
DA:1806,0
DA:1807,0
DA:1808,0
DA:1809,0
DA:1810,0
DA:1811,0
DA:1812,0
DA:1813,0
DA:1814,0
DA:1815,0
DA:1816,0
DA:1817,0
DA:1818,0
DA:1819,0
DA:1820,0
DA:1821,0
DA:1822,0
DA:1823,0
DA:1824,0
DA:1825,0
DA:1826,0
DA:1827,0
DA:1828,0
DA:1829,0
DA:1830,0
DA:1831,0
DA:1832,0
DA:1833,0
DA:1834,0
DA:1835,0
DA:1836,0
DA:1837,0
DA:1838,0
DA:1839,0
DA:1840,0
DA:1841,0
DA:1842,0
DA:1843,0
DA:1846,0
DA:1847,0
DA:1848,0
DA:1849,0
DA:1850,0
DA:1851,0
BRF:0
BRH:0
LF:680
LH:0
end_of_record
SF:/home/ubuntu/Code/ExpressGateway/.claude/worktrees/s15-builder/crates/lb-l4-xdp/src/netlink_xdp.rs
FN:296,_RNCNvNtCscT4abZYhE3h_9lb_l4_xdp11netlink_xdp14if_nametoindex0B5_
FN:174,_RNCNvNtCscT4abZYhE3h_9lb_l4_xdp11netlink_xdp22parse_getlink_response0B5_
FN:178,_RNCNvNtCscT4abZYhE3h_9lb_l4_xdp11netlink_xdp22parse_getlink_responses0_0B5_
FN:179,_RNCNvNtCscT4abZYhE3h_9lb_l4_xdp11netlink_xdp22parse_getlink_responses1_0B5_
FN:183,_RNCNvNtCscT4abZYhE3h_9lb_l4_xdp11netlink_xdp22parse_getlink_responses2_0B5_
FN:186,_RNCNvNtCscT4abZYhE3h_9lb_l4_xdp11netlink_xdp22parse_getlink_responses3_0B5_
FN:197,_RNCNvNtCscT4abZYhE3h_9lb_l4_xdp11netlink_xdp22parse_getlink_responses4_0B5_
FN:210,_RNCNvNtCscT4abZYhE3h_9lb_l4_xdp11netlink_xdp22parse_getlink_responses5_0B5_
FN:177,_RNCNvNtCscT4abZYhE3h_9lb_l4_xdp11netlink_xdp22parse_getlink_responses_0B5_
FN:96,_RNCNvNtCscT4abZYhE3h_9lb_l4_xdp11netlink_xdp8read_i320B5_
FN:385,_RNCNvNtCscT4abZYhE3h_9lb_l4_xdp11netlink_xdp8write_at0B5_
FN:388,_RNCNvNtCscT4abZYhE3h_9lb_l4_xdp11netlink_xdp8write_ats_0B5_
FN:248,_RNvMNtCscT4abZYhE3h_9lb_l4_xdp11netlink_xdpNtB2_10RtattrIter3new
FN:294,_RNvNtCscT4abZYhE3h_9lb_l4_xdp11netlink_xdp14if_nametoindex
FN:287,_RNvNtCscT4abZYhE3h_9lb_l4_xdp11netlink_xdp17query_xdp_prog_id
FN:120,_RNvNtCscT4abZYhE3h_9lb_l4_xdp11netlink_xdp20parse_ifinfo_payload
FN:319,_RNvNtCscT4abZYhE3h_9lb_l4_xdp11netlink_xdp21rtm_getlink_roundtrip
FN:166,_RNvNtCscT4abZYhE3h_9lb_l4_xdp11netlink_xdp22parse_getlink_response
FN:68,_RNvNtCscT4abZYhE3h_9lb_l4_xdp11netlink_xdp5alignB3_
FN:95,_RNvNtCscT4abZYhE3h_9lb_l4_xdp11netlink_xdp8read_i32B3_
FN:76,_RNvNtCscT4abZYhE3h_9lb_l4_xdp11netlink_xdp8read_u16B3_
FN:83,_RNvNtCscT4abZYhE3h_9lb_l4_xdp11netlink_xdp8read_u32B3_
FN:382,_RNvNtCscT4abZYhE3h_9lb_l4_xdp11netlink_xdp8write_at
FN:312,_RNvXs0_NtCscT4abZYhE3h_9lb_l4_xdp11netlink_xdpNtB5_7OwnedFdNtNtNtCs2va5m0jqTTM_4core3ops4drop4Drop4drop
FN:256,_RNvXs_NtCscT4abZYhE3h_9lb_l4_xdp11netlink_xdpNtB4_10RtattrIterNtNtNtNtCs2va5m0jqTTM_4core4iter6traits8iterator8Iterator4next
FN:296,_RNCNvNtCslXikeFjAAou_9lb_l4_xdp11netlink_xdp14if_nametoindex0B5_
FN:174,_RNCNvNtCslXikeFjAAou_9lb_l4_xdp11netlink_xdp22parse_getlink_response0B5_
FN:178,_RNCNvNtCslXikeFjAAou_9lb_l4_xdp11netlink_xdp22parse_getlink_responses0_0B5_
FN:179,_RNCNvNtCslXikeFjAAou_9lb_l4_xdp11netlink_xdp22parse_getlink_responses1_0B5_
FN:183,_RNCNvNtCslXikeFjAAou_9lb_l4_xdp11netlink_xdp22parse_getlink_responses2_0B5_
FN:186,_RNCNvNtCslXikeFjAAou_9lb_l4_xdp11netlink_xdp22parse_getlink_responses3_0B5_
FN:197,_RNCNvNtCslXikeFjAAou_9lb_l4_xdp11netlink_xdp22parse_getlink_responses4_0B5_
FN:210,_RNCNvNtCslXikeFjAAou_9lb_l4_xdp11netlink_xdp22parse_getlink_responses5_0B5_
FN:177,_RNCNvNtCslXikeFjAAou_9lb_l4_xdp11netlink_xdp22parse_getlink_responses_0B5_
FN:96,_RNCNvNtCslXikeFjAAou_9lb_l4_xdp11netlink_xdp8read_i320B5_
FN:385,_RNCNvNtCslXikeFjAAou_9lb_l4_xdp11netlink_xdp8write_at0B5_
FN:388,_RNCNvNtCslXikeFjAAou_9lb_l4_xdp11netlink_xdp8write_ats_0B5_
FN:248,_RNvMNtCslXikeFjAAou_9lb_l4_xdp11netlink_xdpNtB2_10RtattrIter3new
FN:294,_RNvNtCslXikeFjAAou_9lb_l4_xdp11netlink_xdp14if_nametoindex
FN:287,_RNvNtCslXikeFjAAou_9lb_l4_xdp11netlink_xdp17query_xdp_prog_id
FN:120,_RNvNtCslXikeFjAAou_9lb_l4_xdp11netlink_xdp20parse_ifinfo_payload
FN:319,_RNvNtCslXikeFjAAou_9lb_l4_xdp11netlink_xdp21rtm_getlink_roundtrip
FN:166,_RNvNtCslXikeFjAAou_9lb_l4_xdp11netlink_xdp22parse_getlink_response
FN:68,_RNvNtCslXikeFjAAou_9lb_l4_xdp11netlink_xdp5alignB3_
FN:95,_RNvNtCslXikeFjAAou_9lb_l4_xdp11netlink_xdp8read_i32B3_
FN:76,_RNvNtCslXikeFjAAou_9lb_l4_xdp11netlink_xdp8read_u16B3_
FN:83,_RNvNtCslXikeFjAAou_9lb_l4_xdp11netlink_xdp8read_u32B3_
FN:382,_RNvNtCslXikeFjAAou_9lb_l4_xdp11netlink_xdp8write_at
FN:312,_RNvXs0_NtCslXikeFjAAou_9lb_l4_xdp11netlink_xdpNtB5_7OwnedFdNtNtNtCs2va5m0jqTTM_4core3ops4drop4Drop4drop
FN:256,_RNvXs_NtCslXikeFjAAou_9lb_l4_xdp11netlink_xdpNtB4_10RtattrIterNtNtNtNtCs2va5m0jqTTM_4core4iter6traits8iterator8Iterator4next
FNDA:0,_RNCNvNtCscT4abZYhE3h_9lb_l4_xdp11netlink_xdp14if_nametoindex0B5_
FNDA:0,_RNCNvNtCscT4abZYhE3h_9lb_l4_xdp11netlink_xdp22parse_getlink_response0B5_
FNDA:0,_RNCNvNtCscT4abZYhE3h_9lb_l4_xdp11netlink_xdp22parse_getlink_responses0_0B5_
FNDA:0,_RNCNvNtCscT4abZYhE3h_9lb_l4_xdp11netlink_xdp22parse_getlink_responses1_0B5_
FNDA:0,_RNCNvNtCscT4abZYhE3h_9lb_l4_xdp11netlink_xdp22parse_getlink_responses2_0B5_
FNDA:0,_RNCNvNtCscT4abZYhE3h_9lb_l4_xdp11netlink_xdp22parse_getlink_responses3_0B5_
FNDA:0,_RNCNvNtCscT4abZYhE3h_9lb_l4_xdp11netlink_xdp22parse_getlink_responses4_0B5_
FNDA:0,_RNCNvNtCscT4abZYhE3h_9lb_l4_xdp11netlink_xdp22parse_getlink_responses5_0B5_
FNDA:0,_RNCNvNtCscT4abZYhE3h_9lb_l4_xdp11netlink_xdp22parse_getlink_responses_0B5_
FNDA:0,_RNCNvNtCscT4abZYhE3h_9lb_l4_xdp11netlink_xdp8read_i320B5_
FNDA:0,_RNCNvNtCscT4abZYhE3h_9lb_l4_xdp11netlink_xdp8write_at0B5_
FNDA:0,_RNCNvNtCscT4abZYhE3h_9lb_l4_xdp11netlink_xdp8write_ats_0B5_
FNDA:0,_RNvMNtCscT4abZYhE3h_9lb_l4_xdp11netlink_xdpNtB2_10RtattrIter3new
FNDA:0,_RNvNtCscT4abZYhE3h_9lb_l4_xdp11netlink_xdp14if_nametoindex
FNDA:0,_RNvNtCscT4abZYhE3h_9lb_l4_xdp11netlink_xdp17query_xdp_prog_id
FNDA:0,_RNvNtCscT4abZYhE3h_9lb_l4_xdp11netlink_xdp20parse_ifinfo_payload
FNDA:0,_RNvNtCscT4abZYhE3h_9lb_l4_xdp11netlink_xdp21rtm_getlink_roundtrip
FNDA:0,_RNvNtCscT4abZYhE3h_9lb_l4_xdp11netlink_xdp22parse_getlink_response
FNDA:0,_RNvNtCscT4abZYhE3h_9lb_l4_xdp11netlink_xdp5alignB3_
FNDA:0,_RNvNtCscT4abZYhE3h_9lb_l4_xdp11netlink_xdp8read_i32B3_
FNDA:0,_RNvNtCscT4abZYhE3h_9lb_l4_xdp11netlink_xdp8read_u16B3_
FNDA:0,_RNvNtCscT4abZYhE3h_9lb_l4_xdp11netlink_xdp8read_u32B3_
FNDA:0,_RNvNtCscT4abZYhE3h_9lb_l4_xdp11netlink_xdp8write_at
FNDA:0,_RNvXs0_NtCscT4abZYhE3h_9lb_l4_xdp11netlink_xdpNtB5_7OwnedFdNtNtNtCs2va5m0jqTTM_4core3ops4drop4Drop4drop
FNDA:0,_RNvXs_NtCscT4abZYhE3h_9lb_l4_xdp11netlink_xdpNtB4_10RtattrIterNtNtNtNtCs2va5m0jqTTM_4core4iter6traits8iterator8Iterator4next
FNDA:0,_RNCNvNtCslXikeFjAAou_9lb_l4_xdp11netlink_xdp14if_nametoindex0B5_
FNDA:0,_RNCNvNtCslXikeFjAAou_9lb_l4_xdp11netlink_xdp22parse_getlink_response0B5_
FNDA:0,_RNCNvNtCslXikeFjAAou_9lb_l4_xdp11netlink_xdp22parse_getlink_responses0_0B5_
FNDA:0,_RNCNvNtCslXikeFjAAou_9lb_l4_xdp11netlink_xdp22parse_getlink_responses1_0B5_
FNDA:0,_RNCNvNtCslXikeFjAAou_9lb_l4_xdp11netlink_xdp22parse_getlink_responses2_0B5_
FNDA:0,_RNCNvNtCslXikeFjAAou_9lb_l4_xdp11netlink_xdp22parse_getlink_responses3_0B5_
FNDA:0,_RNCNvNtCslXikeFjAAou_9lb_l4_xdp11netlink_xdp22parse_getlink_responses4_0B5_
FNDA:0,_RNCNvNtCslXikeFjAAou_9lb_l4_xdp11netlink_xdp22parse_getlink_responses5_0B5_
FNDA:0,_RNCNvNtCslXikeFjAAou_9lb_l4_xdp11netlink_xdp22parse_getlink_responses_0B5_
FNDA:0,_RNCNvNtCslXikeFjAAou_9lb_l4_xdp11netlink_xdp8read_i320B5_
FNDA:0,_RNCNvNtCslXikeFjAAou_9lb_l4_xdp11netlink_xdp8write_at0B5_
FNDA:0,_RNCNvNtCslXikeFjAAou_9lb_l4_xdp11netlink_xdp8write_ats_0B5_
FNDA:0,_RNvMNtCslXikeFjAAou_9lb_l4_xdp11netlink_xdpNtB2_10RtattrIter3new
FNDA:0,_RNvNtCslXikeFjAAou_9lb_l4_xdp11netlink_xdp14if_nametoindex
FNDA:0,_RNvNtCslXikeFjAAou_9lb_l4_xdp11netlink_xdp17query_xdp_prog_id
FNDA:0,_RNvNtCslXikeFjAAou_9lb_l4_xdp11netlink_xdp20parse_ifinfo_payload
FNDA:0,_RNvNtCslXikeFjAAou_9lb_l4_xdp11netlink_xdp21rtm_getlink_roundtrip
FNDA:0,_RNvNtCslXikeFjAAou_9lb_l4_xdp11netlink_xdp22parse_getlink_response
FNDA:0,_RNvNtCslXikeFjAAou_9lb_l4_xdp11netlink_xdp5alignB3_
FNDA:0,_RNvNtCslXikeFjAAou_9lb_l4_xdp11netlink_xdp8read_i32B3_
FNDA:0,_RNvNtCslXikeFjAAou_9lb_l4_xdp11netlink_xdp8read_u16B3_
FNDA:0,_RNvNtCslXikeFjAAou_9lb_l4_xdp11netlink_xdp8read_u32B3_
FNDA:0,_RNvNtCslXikeFjAAou_9lb_l4_xdp11netlink_xdp8write_at
FNDA:0,_RNvXs0_NtCslXikeFjAAou_9lb_l4_xdp11netlink_xdpNtB5_7OwnedFdNtNtNtCs2va5m0jqTTM_4core3ops4drop4Drop4drop
FNDA:0,_RNvXs_NtCslXikeFjAAou_9lb_l4_xdp11netlink_xdpNtB4_10RtattrIterNtNtNtNtCs2va5m0jqTTM_4core4iter6traits8iterator8Iterator4next
FNF:25
FNH:0
DA:68,0
DA:69,0
DA:70,0
DA:76,0
DA:77,0
DA:78,0
DA:79,0
DA:80,0
DA:83,0
DA:84,0
DA:85,0
DA:87,0
DA:88,0
DA:89,0
DA:90,0
DA:92,0
DA:95,0
DA:96,0
DA:97,0
DA:120,0
DA:121,0
DA:122,0
DA:123,0
DA:124,0
DA:125,0
DA:127,0
DA:128,0
DA:129,0
DA:130,0
DA:132,0
DA:133,0
DA:135,0
DA:136,0
DA:137,0
DA:140,0
DA:141,0
DA:142,0
DA:144,0
DA:150,0
DA:151,0
DA:152,0
DA:153,0
DA:154,0
DA:166,0
DA:171,0
DA:172,0
DA:173,0
DA:174,0
DA:176,0
DA:177,0
DA:178,0
DA:179,0
DA:180,0
DA:181,0
DA:182,0
DA:183,0
DA:185,0
DA:186,0
DA:187,0
DA:188,0
DA:189,0
DA:190,0
DA:191,0
DA:192,0
DA:193,0
DA:194,0
DA:195,0
DA:196,0
DA:197,0
DA:199,0
DA:200,0
DA:202,0
DA:203,0
DA:204,0
DA:205,0
DA:208,0
DA:209,0
DA:210,0
DA:212,0
DA:213,0
DA:216,0
DA:217,0
DA:218,0
DA:219,0
DA:220,0
DA:221,0
DA:222,0
DA:224,0
DA:225,0
DA:228,0
DA:229,0
DA:230,0
DA:232,0
DA:235,0
DA:236,0
DA:248,0
DA:249,0
DA:250,0
DA:256,0
DA:257,0
DA:258,0
DA:259,0
DA:262,0
DA:263,0
DA:264,0
DA:265,0
DA:266,0
DA:267,0
DA:268,0
DA:269,0
DA:271,0
DA:272,0
DA:273,0
DA:274,0
DA:275,0
DA:276,0
DA:287,0
DA:288,0
DA:289,0
DA:290,0
DA:291,0
DA:294,0
DA:295,0
DA:296,0
DA:299,0
DA:300,0
DA:301,0
DA:302,0
DA:303,0
DA:304,0
DA:305,0
DA:306,0
DA:307,0
DA:312,0
DA:313,0
DA:314,0
DA:315,0
DA:319,0
DA:324,0
DA:325,0
DA:326,0
DA:327,0
DA:328,0
DA:329,0
DA:330,0
DA:331,0
DA:332,0
DA:333,0
DA:334,0
DA:335,0
DA:336,0
DA:337,0
DA:338,0
DA:339,0
DA:340,0
DA:341,0
DA:342,0
DA:343,0
DA:344,0
DA:346,0
DA:347,0
DA:349,0
DA:350,0
DA:351,0
DA:352,0
DA:353,0
DA:354,0
DA:355,0
DA:356,0
DA:357,0
DA:358,0
DA:359,0
DA:360,0
DA:361,0
DA:362,0
DA:363,0
DA:364,0
DA:365,0
DA:366,0
DA:367,0
DA:368,0
DA:369,0
DA:370,0
DA:371,0
DA:372,0
DA:373,0
DA:374,0
DA:375,0
DA:376,0
DA:377,0
DA:378,0
DA:379,0
DA:382,0
DA:383,0
DA:384,0
DA:385,0
DA:386,0
DA:387,0
DA:388,0
DA:389,0
DA:390,0
DA:391,0
BRF:0
BRH:0
LF:215
LH:0
end_of_record
SF:/home/ubuntu/Code/ExpressGateway/.claude/worktrees/s15-builder/crates/lb-l4-xdp/src/nic_compat.rs
FN:323,_RNCNvNtCscT4abZYhE3h_9lb_l4_xdp10nic_compat11firmware_of0B5_
FN:334,_RNCNvNtCscT4abZYhE3h_9lb_l4_xdp10nic_compat11firmware_ofs_0B5_
FN:197,_RNCNvNtCscT4abZYhE3h_9lb_l4_xdp10nic_compat13parse_version0B5_
FN:202,_RNCNvNtCscT4abZYhE3h_9lb_l4_xdp10nic_compat13parse_versions0_0B5_
FN:201,_RNCNvNtCscT4abZYhE3h_9lb_l4_xdp10nic_compat13parse_versions_0B5_
FN:296,_RNCNvNtCscT4abZYhE3h_9lb_l4_xdp10nic_compat9driver_of0B5_
FN:302,_RNCNvNtCscT4abZYhE3h_9lb_l4_xdp10nic_compat9driver_ofs_0B5_
FN:207,_RNvNtCscT4abZYhE3h_9lb_l4_xdp10nic_compat10version_lt
FN:318,_RNvNtCscT4abZYhE3h_9lb_l4_xdp10nic_compat11firmware_of
FN:185,_RNvNtCscT4abZYhE3h_9lb_l4_xdp10nic_compat12kernel_below
FN:369,_RNvNtCscT4abZYhE3h_9lb_l4_xdp10nic_compat13drv_supported
FN:193,_RNvNtCscT4abZYhE3h_9lb_l4_xdp10nic_compat13parse_version
FN:397,_RNvNtCscT4abZYhE3h_9lb_l4_xdp10nic_compat16driver_link_path
FN:173,_RNvNtCscT4abZYhE3h_9lb_l4_xdp10nic_compat17current_kernel_mm
FN:422,_RNvNtCscT4abZYhE3h_9lb_l4_xdp10nic_compat21probe_xdp_silent_drop
FN:343,_RNvNtCscT4abZYhE3h_9lb_l4_xdp10nic_compat22parse_ethtool_firmware
FN:255,_RNvNtCscT4abZYhE3h_9lb_l4_xdp10nic_compat28classify_unresolved_firmware
FN:225,_RNvNtCscT4abZYhE3h_9lb_l4_xdp10nic_compat8classify
FN:294,_RNvNtCscT4abZYhE3h_9lb_l4_xdp10nic_compat9driver_of
FN:197,_RNCNvNtCslXikeFjAAou_9lb_l4_xdp10nic_compat13parse_version0B5_
FN:202,_RNCNvNtCslXikeFjAAou_9lb_l4_xdp10nic_compat13parse_versions0_0B5_
FN:201,_RNCNvNtCslXikeFjAAou_9lb_l4_xdp10nic_compat13parse_versions_0B5_
FN:207,_RNvNtCslXikeFjAAou_9lb_l4_xdp10nic_compat10version_lt
FN:185,_RNvNtCslXikeFjAAou_9lb_l4_xdp10nic_compat12kernel_below
FN:193,_RNvNtCslXikeFjAAou_9lb_l4_xdp10nic_compat13parse_version
FN:173,_RNvNtCslXikeFjAAou_9lb_l4_xdp10nic_compat17current_kernel_mm
FN:422,_RNvNtCslXikeFjAAou_9lb_l4_xdp10nic_compat21probe_xdp_silent_drop
FN:343,_RNvNtCslXikeFjAAou_9lb_l4_xdp10nic_compat22parse_ethtool_firmware
FN:255,_RNvNtCslXikeFjAAou_9lb_l4_xdp10nic_compat28classify_unresolved_firmware
FN:225,_RNvNtCslXikeFjAAou_9lb_l4_xdp10nic_compat8classify
FN:476,_RNvNtNtCslXikeFjAAou_9lb_l4_xdp10nic_compat5testss_16ena_and_ice_rows
FN:432,_RNvNtNtCslXikeFjAAou_9lb_l4_xdp10nic_compat5testss_21version_compare_basic
FN:486,_RNvNtNtCslXikeFjAAou_9lb_l4_xdp10nic_compat5testss_22ethtool_firmware_parse
FN:469,_RNvNtNtCslXikeFjAAou_9lb_l4_xdp10nic_compat5testss_22unknown_driver_allowed
FN:464,_RNvNtNtCslXikeFjAAou_9lb_l4_xdp10nic_compat5testss_25mlx5_new_firmware_allowed
FN:453,_RNvNtNtCslXikeFjAAou_9lb_l4_xdp10nic_compat5testss_25mlx5_old_firmware_refused
FN:443,_RNvNtNtCslXikeFjAAou_9lb_l4_xdp10nic_compat5testss_28version_parse_truncates_junk
FN:498,_RNvNtNtCslXikeFjAAou_9lb_l4_xdp10nic_compat5testss_36probe_reports_unavailable_on_aya_013
FN:587,_RNvNtNtCslXikeFjAAou_9lb_l4_xdp10nic_compat5testss_38current_kernel_mm_resolves_on_this_box
FN:542,_RNvNtNtCslXikeFjAAou_9lb_l4_xdp10nic_compat5testss_39ena_unresolved_fw_prebad_kernel_refuses
FN:508,_RNvNtNtCslXikeFjAAou_9lb_l4_xdp10nic_compat5testss_40classify_unchanged_is_pure_and_untouched
FN:520,_RNvNtNtCslXikeFjAAou_9lb_l4_xdp10nic_compat5testss_45ena_unresolved_fw_modern_kernel_stays_allowed
FN:567,_RNvNtNtCslXikeFjAAou_9lb_l4_xdp10nic_compat5testss_53non_kernel_keyed_driver_unresolved_fw_still_fail_open
FN:323,_RNCNvNtCslXikeFjAAou_9lb_l4_xdp10nic_compat11firmware_of0B5_
FN:334,_RNCNvNtCslXikeFjAAou_9lb_l4_xdp10nic_compat11firmware_ofs_0B5_
FN:296,_RNCNvNtCslXikeFjAAou_9lb_l4_xdp10nic_compat9driver_of0B5_
FN:302,_RNCNvNtCslXikeFjAAou_9lb_l4_xdp10nic_compat9driver_ofs_0B5_
FN:318,_RNvNtCslXikeFjAAou_9lb_l4_xdp10nic_compat11firmware_of
FN:369,_RNvNtCslXikeFjAAou_9lb_l4_xdp10nic_compat13drv_supported
FN:397,_RNvNtCslXikeFjAAou_9lb_l4_xdp10nic_compat16driver_link_path
FN:294,_RNvNtCslXikeFjAAou_9lb_l4_xdp10nic_compat9driver_of
FNDA:0,_RNCNvNtCscT4abZYhE3h_9lb_l4_xdp10nic_compat11firmware_of0B5_
FNDA:0,_RNCNvNtCscT4abZYhE3h_9lb_l4_xdp10nic_compat11firmware_ofs_0B5_
FNDA:0,_RNCNvNtCscT4abZYhE3h_9lb_l4_xdp10nic_compat13parse_version0B5_
FNDA:0,_RNCNvNtCscT4abZYhE3h_9lb_l4_xdp10nic_compat13parse_versions0_0B5_
FNDA:0,_RNCNvNtCscT4abZYhE3h_9lb_l4_xdp10nic_compat13parse_versions_0B5_
FNDA:0,_RNCNvNtCscT4abZYhE3h_9lb_l4_xdp10nic_compat9driver_of0B5_
FNDA:0,_RNCNvNtCscT4abZYhE3h_9lb_l4_xdp10nic_compat9driver_ofs_0B5_
FNDA:0,_RNvNtCscT4abZYhE3h_9lb_l4_xdp10nic_compat10version_lt
FNDA:0,_RNvNtCscT4abZYhE3h_9lb_l4_xdp10nic_compat11firmware_of
FNDA:0,_RNvNtCscT4abZYhE3h_9lb_l4_xdp10nic_compat12kernel_below
FNDA:0,_RNvNtCscT4abZYhE3h_9lb_l4_xdp10nic_compat13drv_supported
FNDA:0,_RNvNtCscT4abZYhE3h_9lb_l4_xdp10nic_compat13parse_version
FNDA:0,_RNvNtCscT4abZYhE3h_9lb_l4_xdp10nic_compat16driver_link_path
FNDA:0,_RNvNtCscT4abZYhE3h_9lb_l4_xdp10nic_compat17current_kernel_mm
FNDA:0,_RNvNtCscT4abZYhE3h_9lb_l4_xdp10nic_compat21probe_xdp_silent_drop
FNDA:0,_RNvNtCscT4abZYhE3h_9lb_l4_xdp10nic_compat22parse_ethtool_firmware
FNDA:0,_RNvNtCscT4abZYhE3h_9lb_l4_xdp10nic_compat28classify_unresolved_firmware
FNDA:0,_RNvNtCscT4abZYhE3h_9lb_l4_xdp10nic_compat8classify
FNDA:0,_RNvNtCscT4abZYhE3h_9lb_l4_xdp10nic_compat9driver_of
FNDA:0,_RNCNvNtCslXikeFjAAou_9lb_l4_xdp10nic_compat13parse_version0B5_
FNDA:0,_RNCNvNtCslXikeFjAAou_9lb_l4_xdp10nic_compat13parse_versions0_0B5_
FNDA:0,_RNCNvNtCslXikeFjAAou_9lb_l4_xdp10nic_compat13parse_versions_0B5_
FNDA:0,_RNvNtCslXikeFjAAou_9lb_l4_xdp10nic_compat10version_lt
FNDA:0,_RNvNtCslXikeFjAAou_9lb_l4_xdp10nic_compat12kernel_below
FNDA:0,_RNvNtCslXikeFjAAou_9lb_l4_xdp10nic_compat13parse_version
FNDA:0,_RNvNtCslXikeFjAAou_9lb_l4_xdp10nic_compat17current_kernel_mm
FNDA:0,_RNvNtCslXikeFjAAou_9lb_l4_xdp10nic_compat21probe_xdp_silent_drop
FNDA:0,_RNvNtCslXikeFjAAou_9lb_l4_xdp10nic_compat22parse_ethtool_firmware
FNDA:0,_RNvNtCslXikeFjAAou_9lb_l4_xdp10nic_compat28classify_unresolved_firmware
FNDA:0,_RNvNtCslXikeFjAAou_9lb_l4_xdp10nic_compat8classify
FNDA:0,_RNvNtNtCslXikeFjAAou_9lb_l4_xdp10nic_compat5testss_16ena_and_ice_rows
FNDA:0,_RNvNtNtCslXikeFjAAou_9lb_l4_xdp10nic_compat5testss_21version_compare_basic
FNDA:0,_RNvNtNtCslXikeFjAAou_9lb_l4_xdp10nic_compat5testss_22ethtool_firmware_parse
FNDA:0,_RNvNtNtCslXikeFjAAou_9lb_l4_xdp10nic_compat5testss_22unknown_driver_allowed
FNDA:0,_RNvNtNtCslXikeFjAAou_9lb_l4_xdp10nic_compat5testss_25mlx5_new_firmware_allowed
FNDA:0,_RNvNtNtCslXikeFjAAou_9lb_l4_xdp10nic_compat5testss_25mlx5_old_firmware_refused
FNDA:0,_RNvNtNtCslXikeFjAAou_9lb_l4_xdp10nic_compat5testss_28version_parse_truncates_junk
FNDA:0,_RNvNtNtCslXikeFjAAou_9lb_l4_xdp10nic_compat5testss_36probe_reports_unavailable_on_aya_013
FNDA:0,_RNvNtNtCslXikeFjAAou_9lb_l4_xdp10nic_compat5testss_38current_kernel_mm_resolves_on_this_box
FNDA:0,_RNvNtNtCslXikeFjAAou_9lb_l4_xdp10nic_compat5testss_39ena_unresolved_fw_prebad_kernel_refuses
FNDA:0,_RNvNtNtCslXikeFjAAou_9lb_l4_xdp10nic_compat5testss_40classify_unchanged_is_pure_and_untouched
FNDA:0,_RNvNtNtCslXikeFjAAou_9lb_l4_xdp10nic_compat5testss_45ena_unresolved_fw_modern_kernel_stays_allowed
FNDA:0,_RNvNtNtCslXikeFjAAou_9lb_l4_xdp10nic_compat5testss_53non_kernel_keyed_driver_unresolved_fw_still_fail_open
FNDA:0,_RNCNvNtCslXikeFjAAou_9lb_l4_xdp10nic_compat11firmware_of0B5_
FNDA:0,_RNCNvNtCslXikeFjAAou_9lb_l4_xdp10nic_compat11firmware_ofs_0B5_
FNDA:0,_RNCNvNtCslXikeFjAAou_9lb_l4_xdp10nic_compat9driver_of0B5_
FNDA:0,_RNCNvNtCslXikeFjAAou_9lb_l4_xdp10nic_compat9driver_ofs_0B5_
FNDA:0,_RNvNtCslXikeFjAAou_9lb_l4_xdp10nic_compat11firmware_of
FNDA:0,_RNvNtCslXikeFjAAou_9lb_l4_xdp10nic_compat13drv_supported
FNDA:0,_RNvNtCslXikeFjAAou_9lb_l4_xdp10nic_compat16driver_link_path
FNDA:0,_RNvNtCslXikeFjAAou_9lb_l4_xdp10nic_compat9driver_of
FNF:32
FNH:0
DA:173,0
DA:174,0
DA:178,0
DA:179,0
DA:180,0
DA:181,0
DA:182,0
DA:185,0
DA:186,0
DA:187,0
DA:193,0
DA:194,0
DA:195,0
DA:196,0
DA:197,0
DA:198,0
DA:199,0
DA:200,0
DA:201,0
DA:202,0
DA:203,0
DA:204,0
DA:207,0
DA:208,0
DA:209,0
DA:210,0
DA:211,0
DA:212,0
DA:213,0
DA:214,0
DA:215,0
DA:216,0
DA:218,0
DA:219,0
DA:225,0
DA:226,0
DA:227,0
DA:228,0
DA:229,0
DA:230,0
DA:231,0
DA:232,0
DA:233,0
DA:234,0
DA:236,0
DA:237,0
DA:255,0
DA:256,0
DA:257,0
DA:258,0
DA:259,0
DA:260,0
DA:263,0
DA:265,0
DA:266,0
DA:267,0
DA:268,0
DA:269,0
DA:270,0
DA:271,0
DA:272,0
DA:273,0
DA:274,0
DA:279,0
DA:283,0
DA:284,0
DA:294,0
DA:295,0
DA:296,0
DA:297,0
DA:298,0
DA:299,0
DA:300,0
DA:301,0
DA:302,0
DA:303,0
DA:304,0
DA:305,0
DA:318,0
DA:319,0
DA:320,0
DA:321,0
DA:322,0
DA:323,0
DA:324,0
DA:325,0
DA:326,0
DA:327,0
DA:328,0
DA:329,0
DA:330,0
DA:331,0
DA:332,0
DA:333,0
DA:334,0
DA:335,0
DA:336,0
DA:337,0
DA:338,0
DA:343,0
DA:344,0
DA:345,0
DA:346,0
DA:347,0
DA:348,0
DA:349,0
DA:350,0
DA:352,0
DA:353,0
DA:369,0
DA:370,0
DA:371,0
DA:374,0
DA:376,0
DA:377,0
DA:387,0
DA:390,0
DA:391,0
DA:397,0
DA:398,0
DA:399,0
DA:400,0
DA:401,0
DA:422,0
DA:423,0
DA:424,0
DA:432,0
DA:433,0
DA:434,0
DA:435,0
DA:436,0
DA:437,0
DA:438,0
DA:439,0
DA:440,0
DA:443,0
DA:444,0
DA:445,0
DA:446,0
DA:447,0
DA:448,0
DA:449,0
DA:450,0
DA:453,0
DA:454,0
DA:455,0
DA:456,0
DA:457,0
DA:459,0
DA:461,0
DA:464,0
DA:465,0
DA:466,0
DA:469,0
DA:470,0
DA:471,0
DA:472,0
DA:473,0
DA:476,0
DA:477,0
DA:478,0
DA:481,0
DA:482,0
DA:483,0
DA:486,0
DA:487,0
DA:488,0
DA:489,0
DA:490,0
DA:491,0
DA:492,0
DA:493,0
DA:494,0
DA:495,0
DA:498,0
DA:499,0
DA:500,0
DA:501,0
DA:502,0
DA:503,0
DA:508,0
DA:509,0
DA:510,0
DA:511,0
DA:512,0
DA:515,0
DA:516,0
DA:517,0
DA:520,0
DA:521,0
DA:522,0
DA:523,0
DA:524,0
DA:525,0
DA:526,0
DA:527,0
DA:528,0
DA:529,0
DA:531,0
DA:535,0
DA:536,0
DA:537,0
DA:538,0
DA:539,0
DA:542,0
DA:547,0
DA:548,0
DA:549,0
DA:550,0
DA:551,0
DA:552,0
DA:554,0
DA:555,0
DA:556,0
DA:560,0
DA:564,0
DA:567,0
DA:568,0
DA:569,0
DA:570,0
DA:571,0
DA:572,0
DA:573,0
DA:574,0
DA:575,0
DA:576,0
DA:577,0
DA:578,0
DA:579,0
DA:580,0
DA:581,0
DA:582,0
DA:583,0
DA:584,0
DA:587,0
DA:588,0
DA:589,0
DA:590,0
DA:591,0
DA:592,0
DA:593,0
BRF:0
BRH:0
LF:251
LH:0
end_of_record
SF:/home/ubuntu/Code/ExpressGateway/.claude/worktrees/s15-builder/crates/lb-l4-xdp/src/sim.rs
FN:226,_RNvNtCscT4abZYhE3h_9lb_l4_xdp3sim13csum16_updateB3_
FN:143,_RNCNvMNtCscT4abZYhE3h_9lb_l4_xdp3simNtB4_11ConntrackV66decide0B6_
FN:187,_RNCNvMs_NtCscT4abZYhE3h_9lb_l4_xdp3simNtB6_7AclTrie13longest_match0B8_
FN:123,_RNvMNtCscT4abZYhE3h_9lb_l4_xdp3simNtB2_11ConntrackV63new
FN:140,_RNvMNtCscT4abZYhE3h_9lb_l4_xdp3simNtB2_11ConntrackV66decide
FN:130,_RNvMNtCscT4abZYhE3h_9lb_l4_xdp3simNtB2_11ConntrackV66insert
FN:183,_RNvMs_NtCscT4abZYhE3h_9lb_l4_xdp3simNtB4_7AclTrie13longest_match
FN:162,_RNvMs_NtCscT4abZYhE3h_9lb_l4_xdp3simNtB4_7AclTrie3new
FN:170,_RNvMs_NtCscT4abZYhE3h_9lb_l4_xdp3simNtB4_7AclTrie4deny
FN:200,_RNvMs_NtCscT4abZYhE3h_9lb_l4_xdp3simNtB4_7AclTrie6denies
FN:46,_RNvNtCscT4abZYhE3h_9lb_l4_xdp3sim10strip_vlan
FN:235,_RNvNtCscT4abZYhE3h_9lb_l4_xdp3sim13full_checksum
FN:217,_RNvNtCscT4abZYhE3h_9lb_l4_xdp3sim6fold32B3_
FN:143,_RNCNvMNtCslXikeFjAAou_9lb_l4_xdp3simNtB4_11ConntrackV66decide0B6_
FN:187,_RNCNvMs_NtCslXikeFjAAou_9lb_l4_xdp3simNtB6_7AclTrie13longest_match0B8_
FN:123,_RNvMNtCslXikeFjAAou_9lb_l4_xdp3simNtB2_11ConntrackV63new
FN:140,_RNvMNtCslXikeFjAAou_9lb_l4_xdp3simNtB2_11ConntrackV66decide
FN:130,_RNvMNtCslXikeFjAAou_9lb_l4_xdp3simNtB2_11ConntrackV66insert
FN:183,_RNvMs_NtCslXikeFjAAou_9lb_l4_xdp3simNtB4_7AclTrie13longest_match
FN:162,_RNvMs_NtCslXikeFjAAou_9lb_l4_xdp3simNtB4_7AclTrie3new
FN:170,_RNvMs_NtCslXikeFjAAou_9lb_l4_xdp3simNtB4_7AclTrie4deny
FN:200,_RNvMs_NtCslXikeFjAAou_9lb_l4_xdp3simNtB4_7AclTrie6denies
FN:46,_RNvNtCslXikeFjAAou_9lb_l4_xdp3sim10strip_vlan
FN:226,_RNvNtCslXikeFjAAou_9lb_l4_xdp3sim13csum16_updateB3_
FN:235,_RNvNtCslXikeFjAAou_9lb_l4_xdp3sim13full_checksum
FN:217,_RNvNtCslXikeFjAAou_9lb_l4_xdp3sim6fold32B3_
FN:324,_RNvNtNtCslXikeFjAAou_9lb_l4_xdp3sim5testss_27lpm_trie_acl_matches_prefix
FN:409,_RNvNtNtCslXikeFjAAou_9lb_l4_xdp3sim5testss_31rfc_1624_incremental_reversible
FN:292,_RNvNtNtCslXikeFjAAou_9lb_l4_xdp3sim5testss_33truncated_vlan_frame_returns_none
FN:261,_RNvNtNtCslXikeFjAAou_9lb_l4_xdp3sim5testss_35vlan_tag_stripped_before_ipv4_parse
FN:279,_RNvNtNtCslXikeFjAAou_9lb_l4_xdp3sim5testss_36untagged_frame_has_14_byte_l3_offset
FN:303,_RNvNtNtCslXikeFjAAou_9lb_l4_xdp3sim5testss_38ipv6_conntrack_hit_triggers_xdp_tx_sim
FN:341,_RNvNtNtCslXikeFjAAou_9lb_l4_xdp3sim5testss_39lpm_trie_zero_prefix_matches_everything
FN:356,_RNvNtNtCslXikeFjAAou_9lb_l4_xdp3sim5testss_47rfc_1624_incremental_checksum_matches_recompute
FN:358,_RNvNvNtNtCslXikeFjAAou_9lb_l4_xdp3sim5testss_47rfc_1624_incremental_checksum_matches_recompute8xorshift
FNDA:0,_RNvNtCscT4abZYhE3h_9lb_l4_xdp3sim13csum16_updateB3_
FNDA:0,_RNCNvMNtCscT4abZYhE3h_9lb_l4_xdp3simNtB4_11ConntrackV66decide0B6_
FNDA:0,_RNCNvMs_NtCscT4abZYhE3h_9lb_l4_xdp3simNtB6_7AclTrie13longest_match0B8_
FNDA:0,_RNvMNtCscT4abZYhE3h_9lb_l4_xdp3simNtB2_11ConntrackV63new
FNDA:0,_RNvMNtCscT4abZYhE3h_9lb_l4_xdp3simNtB2_11ConntrackV66decide
FNDA:0,_RNvMNtCscT4abZYhE3h_9lb_l4_xdp3simNtB2_11ConntrackV66insert
FNDA:0,_RNvMs_NtCscT4abZYhE3h_9lb_l4_xdp3simNtB4_7AclTrie13longest_match
FNDA:0,_RNvMs_NtCscT4abZYhE3h_9lb_l4_xdp3simNtB4_7AclTrie3new
FNDA:0,_RNvMs_NtCscT4abZYhE3h_9lb_l4_xdp3simNtB4_7AclTrie4deny
FNDA:0,_RNvMs_NtCscT4abZYhE3h_9lb_l4_xdp3simNtB4_7AclTrie6denies
FNDA:0,_RNvNtCscT4abZYhE3h_9lb_l4_xdp3sim10strip_vlan
FNDA:0,_RNvNtCscT4abZYhE3h_9lb_l4_xdp3sim13full_checksum
FNDA:0,_RNvNtCscT4abZYhE3h_9lb_l4_xdp3sim6fold32B3_
FNDA:0,_RNCNvMNtCslXikeFjAAou_9lb_l4_xdp3simNtB4_11ConntrackV66decide0B6_
FNDA:0,_RNCNvMs_NtCslXikeFjAAou_9lb_l4_xdp3simNtB6_7AclTrie13longest_match0B8_
FNDA:0,_RNvMNtCslXikeFjAAou_9lb_l4_xdp3simNtB2_11ConntrackV63new
FNDA:0,_RNvMNtCslXikeFjAAou_9lb_l4_xdp3simNtB2_11ConntrackV66decide
FNDA:0,_RNvMNtCslXikeFjAAou_9lb_l4_xdp3simNtB2_11ConntrackV66insert
FNDA:0,_RNvMs_NtCslXikeFjAAou_9lb_l4_xdp3simNtB4_7AclTrie13longest_match
FNDA:0,_RNvMs_NtCslXikeFjAAou_9lb_l4_xdp3simNtB4_7AclTrie3new
FNDA:0,_RNvMs_NtCslXikeFjAAou_9lb_l4_xdp3simNtB4_7AclTrie4deny
FNDA:0,_RNvMs_NtCslXikeFjAAou_9lb_l4_xdp3simNtB4_7AclTrie6denies
FNDA:0,_RNvNtCslXikeFjAAou_9lb_l4_xdp3sim10strip_vlan
FNDA:0,_RNvNtCslXikeFjAAou_9lb_l4_xdp3sim13csum16_updateB3_
FNDA:0,_RNvNtCslXikeFjAAou_9lb_l4_xdp3sim13full_checksum
FNDA:0,_RNvNtCslXikeFjAAou_9lb_l4_xdp3sim6fold32B3_
FNDA:0,_RNvNtNtCslXikeFjAAou_9lb_l4_xdp3sim5testss_27lpm_trie_acl_matches_prefix
FNDA:0,_RNvNtNtCslXikeFjAAou_9lb_l4_xdp3sim5testss_31rfc_1624_incremental_reversible
FNDA:0,_RNvNtNtCslXikeFjAAou_9lb_l4_xdp3sim5testss_33truncated_vlan_frame_returns_none
FNDA:0,_RNvNtNtCslXikeFjAAou_9lb_l4_xdp3sim5testss_35vlan_tag_stripped_before_ipv4_parse
FNDA:0,_RNvNtNtCslXikeFjAAou_9lb_l4_xdp3sim5testss_36untagged_frame_has_14_byte_l3_offset
FNDA:0,_RNvNtNtCslXikeFjAAou_9lb_l4_xdp3sim5testss_38ipv6_conntrack_hit_triggers_xdp_tx_sim
FNDA:0,_RNvNtNtCslXikeFjAAou_9lb_l4_xdp3sim5testss_39lpm_trie_zero_prefix_matches_everything
FNDA:0,_RNvNtNtCslXikeFjAAou_9lb_l4_xdp3sim5testss_47rfc_1624_incremental_checksum_matches_recompute
FNDA:0,_RNvNvNtNtCslXikeFjAAou_9lb_l4_xdp3sim5testss_47rfc_1624_incremental_checksum_matches_recompute8xorshift
FNF:22
FNH:0
DA:46,0
DA:47,0
DA:48,0
DA:49,0
DA:50,0
DA:51,0
DA:52,0
DA:54,0
DA:55,0
DA:56,0
DA:57,0
DA:58,0
DA:59,0
DA:60,0
DA:61,0
DA:62,0
DA:63,0
DA:64,0
DA:65,0
DA:66,0
DA:68,0
DA:69,0
DA:70,0
DA:71,0
DA:72,0
DA:73,0
DA:74,0
DA:76,0
DA:123,0
DA:124,0
DA:125,0
DA:126,0
DA:127,0
DA:130,0
DA:131,0
DA:132,0
DA:133,0
DA:134,0
DA:135,0
DA:140,0
DA:141,0
DA:142,0
DA:143,0
DA:144,0
DA:162,0
DA:163,0
DA:164,0
DA:165,0
DA:166,0
DA:170,0
DA:171,0
DA:172,0
DA:174,0
DA:176,0
DA:177,0
DA:178,0
DA:183,0
DA:184,0
DA:185,0
DA:186,0
DA:187,0
DA:188,0
DA:189,0
DA:191,0
DA:193,0
DA:194,0
DA:195,0
DA:196,0
DA:200,0
DA:201,0
DA:202,0
DA:217,0
DA:218,0
DA:219,0
DA:220,0
DA:221,0
DA:226,0
DA:227,0
DA:228,0
DA:229,0
DA:235,0
DA:236,0
DA:237,0
DA:238,0
DA:239,0
DA:240,0
DA:242,0
DA:244,0
DA:245,0
DA:246,0
DA:247,0
DA:248,0
DA:261,0
DA:262,0
DA:263,0
DA:264,0
DA:265,0
DA:266,0
DA:267,0
DA:268,0
DA:269,0
DA:270,0
DA:271,0
DA:272,0
DA:273,0
DA:274,0
DA:275,0
DA:279,0
DA:280,0
DA:281,0
DA:282,0
DA:283,0
DA:284,0
DA:285,0
DA:286,0
DA:287,0
DA:292,0
DA:293,0
DA:294,0
DA:295,0
DA:296,0
DA:297,0
DA:298,0
DA:303,0
DA:304,0
DA:305,0
DA:306,0
DA:307,0
DA:308,0
DA:309,0
DA:310,0
DA:311,0
DA:312,0
DA:313,0
DA:315,0
DA:316,0
DA:317,0
DA:318,0
DA:319,0
DA:320,0
DA:324,0
DA:325,0
DA:326,0
DA:327,0
DA:328,0
DA:329,0
DA:330,0
DA:331,0
DA:334,0
DA:335,0
DA:336,0
DA:337,0
DA:341,0
DA:342,0
DA:343,0
DA:344,0
DA:345,0
DA:346,0
DA:356,0
DA:358,0
DA:359,0
DA:360,0
DA:361,0
DA:362,0
DA:363,0
DA:365,0
DA:366,0
DA:367,0
DA:368,0
DA:369,0
DA:370,0
DA:372,0
DA:373,0
DA:374,0
DA:375,0
DA:376,0
DA:377,0
DA:378,0
DA:379,0
DA:380,0
DA:381,0
DA:382,0
DA:383,0
DA:384,0
DA:385,0
DA:386,0
DA:387,0
DA:388,0
DA:389,0
DA:390,0
DA:391,0
DA:392,0
DA:393,0
DA:394,0
DA:395,0
DA:397,0
DA:398,0
DA:399,0
DA:400,0
DA:404,0
DA:409,0
DA:410,0
DA:411,0
DA:412,0
DA:413,0
DA:414,0
DA:415,0
DA:416,0
BRF:0
BRH:0
LF:211
LH:0
end_of_record
SF:/home/ubuntu/Code/ExpressGateway/.claude/worktrees/s15-builder/crates/lb-l4-xdp/src/stats_export.rs
FN:352,_RNCNvNtCscT4abZYhE3h_9lb_l4_xdp12stats_export10read_stats0B5_
FN:160,_RNCNvNtCscT4abZYhE3h_9lb_l4_xdp12stats_export17record_pin_reused0B5_
FN:177,_RNCNvNtCscT4abZYhE3h_9lb_l4_xdp12stats_export19pin_reused_snapshot0B5_
FN:323,_RNCNvNtCscT4abZYhE3h_9lb_l4_xdp12stats_export20install_stats_handle0B5_
FN:326,_RNCNvNtCscT4abZYhE3h_9lb_l4_xdp12stats_export20install_stats_handles_0B5_
FN:67,_RNvMNtCscT4abZYhE3h_9lb_l4_xdp12stats_exportNtB2_15AttachModeLabel6as_str
FN:47,_RNvMNtCscT4abZYhE3h_9lb_l4_xdp12stats_exportNtB2_15AttachModeLabel7as_byte
FN:55,_RNvMNtCscT4abZYhE3h_9lb_l4_xdp12stats_exportNtB2_15AttachModeLabel9from_byte
FN:344,_RNvNtCscT4abZYhE3h_9lb_l4_xdp12stats_export10read_stats
FN:159,_RNvNtCscT4abZYhE3h_9lb_l4_xdp12stats_export17record_pin_reused
FN:90,_RNvNtCscT4abZYhE3h_9lb_l4_xdp12stats_export18record_attach_mode
FN:98,_RNvNtCscT4abZYhE3h_9lb_l4_xdp12stats_export19current_attach_mode
FN:172,_RNvNtCscT4abZYhE3h_9lb_l4_xdp12stats_export19pin_reused_snapshot
FN:321,_RNvNtCscT4abZYhE3h_9lb_l4_xdp12stats_export20install_stats_handle
FN:125,_RNvNtCscT4abZYhE3h_9lb_l4_xdp12stats_export25attach_probe_failed_count
FN:118,_RNvNtCscT4abZYhE3h_9lb_l4_xdp12stats_export26record_attach_probe_failed
FN:146,_RNvNtCscT4abZYhE3h_9lb_l4_xdp12stats_export9pin_names
FN:411,_RNCNvNtNtCslXikeFjAAou_9lb_l4_xdp12stats_export5testss_28pin_reuse_records_round_trip0B7_
FN:413,_RNCNvNtNtCslXikeFjAAou_9lb_l4_xdp12stats_export5testss_28pin_reuse_records_round_trips0_0B7_
FN:414,_RNCNvNtNtCslXikeFjAAou_9lb_l4_xdp12stats_export5testss_28pin_reuse_records_round_trips1_0B7_
FN:415,_RNCNvNtNtCslXikeFjAAou_9lb_l4_xdp12stats_export5testss_28pin_reuse_records_round_trips2_0B7_
FN:416,_RNCNvNtNtCslXikeFjAAou_9lb_l4_xdp12stats_export5testss_28pin_reuse_records_round_trips3_0B7_
FN:412,_RNCNvNtNtCslXikeFjAAou_9lb_l4_xdp12stats_export5testss_28pin_reuse_records_round_trips_0B7_
FN:379,_RNvNtNtCslXikeFjAAou_9lb_l4_xdp12stats_export5testss_18unset_returns_none
FN:386,_RNvNtNtCslXikeFjAAou_9lb_l4_xdp12stats_export5testss_20round_trip_all_modes
FN:463,_RNvNtNtCslXikeFjAAou_9lb_l4_xdp12stats_export5testss_22num_slots_matches_enum
FN:405,_RNvNtNtCslXikeFjAAou_9lb_l4_xdp12stats_export5testss_28pin_reuse_records_round_trip
FN:398,_RNvNtNtCslXikeFjAAou_9lb_l4_xdp12stats_export5testss_32label_strings_match_kernel_vocab
FN:420,_RNvNtNtCslXikeFjAAou_9lb_l4_xdp12stats_export5testss_32pin_reuse_unknown_name_is_silent
FN:428,_RNvNtNtCslXikeFjAAou_9lb_l4_xdp12stats_export5testss_33stat_slot_indices_are_wire_stable
FN:455,_RNvNtNtCslXikeFjAAou_9lb_l4_xdp12stats_export5testss_38attach_probe_failed_counter_round_trip
FN:352,_RNCNvNtCslXikeFjAAou_9lb_l4_xdp12stats_export10read_stats0B5_
FN:323,_RNCNvNtCslXikeFjAAou_9lb_l4_xdp12stats_export20install_stats_handle0B5_
FN:326,_RNCNvNtCslXikeFjAAou_9lb_l4_xdp12stats_export20install_stats_handles_0B5_
FN:344,_RNvNtCslXikeFjAAou_9lb_l4_xdp12stats_export10read_stats
FN:321,_RNvNtCslXikeFjAAou_9lb_l4_xdp12stats_export20install_stats_handle
FN:160,_RNCNvNtCslXikeFjAAou_9lb_l4_xdp12stats_export17record_pin_reused0B5_
FN:177,_RNCNvNtCslXikeFjAAou_9lb_l4_xdp12stats_export19pin_reused_snapshot0B5_
FN:67,_RNvMNtCslXikeFjAAou_9lb_l4_xdp12stats_exportNtB2_15AttachModeLabel6as_str
FN:47,_RNvMNtCslXikeFjAAou_9lb_l4_xdp12stats_exportNtB2_15AttachModeLabel7as_byte
FN:55,_RNvMNtCslXikeFjAAou_9lb_l4_xdp12stats_exportNtB2_15AttachModeLabel9from_byte
FN:159,_RNvNtCslXikeFjAAou_9lb_l4_xdp12stats_export17record_pin_reused
FN:90,_RNvNtCslXikeFjAAou_9lb_l4_xdp12stats_export18record_attach_mode
FN:98,_RNvNtCslXikeFjAAou_9lb_l4_xdp12stats_export19current_attach_mode
FN:172,_RNvNtCslXikeFjAAou_9lb_l4_xdp12stats_export19pin_reused_snapshot
FN:125,_RNvNtCslXikeFjAAou_9lb_l4_xdp12stats_export25attach_probe_failed_count
FN:118,_RNvNtCslXikeFjAAou_9lb_l4_xdp12stats_export26record_attach_probe_failed
FN:146,_RNvNtCslXikeFjAAou_9lb_l4_xdp12stats_export9pin_names
FNDA:0,_RNCNvNtCscT4abZYhE3h_9lb_l4_xdp12stats_export10read_stats0B5_
FNDA:0,_RNCNvNtCscT4abZYhE3h_9lb_l4_xdp12stats_export17record_pin_reused0B5_
FNDA:0,_RNCNvNtCscT4abZYhE3h_9lb_l4_xdp12stats_export19pin_reused_snapshot0B5_
FNDA:0,_RNCNvNtCscT4abZYhE3h_9lb_l4_xdp12stats_export20install_stats_handle0B5_
FNDA:0,_RNCNvNtCscT4abZYhE3h_9lb_l4_xdp12stats_export20install_stats_handles_0B5_
FNDA:0,_RNvMNtCscT4abZYhE3h_9lb_l4_xdp12stats_exportNtB2_15AttachModeLabel6as_str
FNDA:0,_RNvMNtCscT4abZYhE3h_9lb_l4_xdp12stats_exportNtB2_15AttachModeLabel7as_byte
FNDA:0,_RNvMNtCscT4abZYhE3h_9lb_l4_xdp12stats_exportNtB2_15AttachModeLabel9from_byte
FNDA:0,_RNvNtCscT4abZYhE3h_9lb_l4_xdp12stats_export10read_stats
FNDA:0,_RNvNtCscT4abZYhE3h_9lb_l4_xdp12stats_export17record_pin_reused
FNDA:0,_RNvNtCscT4abZYhE3h_9lb_l4_xdp12stats_export18record_attach_mode
FNDA:0,_RNvNtCscT4abZYhE3h_9lb_l4_xdp12stats_export19current_attach_mode
FNDA:0,_RNvNtCscT4abZYhE3h_9lb_l4_xdp12stats_export19pin_reused_snapshot
FNDA:0,_RNvNtCscT4abZYhE3h_9lb_l4_xdp12stats_export20install_stats_handle
FNDA:0,_RNvNtCscT4abZYhE3h_9lb_l4_xdp12stats_export25attach_probe_failed_count
FNDA:0,_RNvNtCscT4abZYhE3h_9lb_l4_xdp12stats_export26record_attach_probe_failed
FNDA:0,_RNvNtCscT4abZYhE3h_9lb_l4_xdp12stats_export9pin_names
FNDA:0,_RNCNvNtNtCslXikeFjAAou_9lb_l4_xdp12stats_export5testss_28pin_reuse_records_round_trip0B7_
FNDA:0,_RNCNvNtNtCslXikeFjAAou_9lb_l4_xdp12stats_export5testss_28pin_reuse_records_round_trips0_0B7_
FNDA:0,_RNCNvNtNtCslXikeFjAAou_9lb_l4_xdp12stats_export5testss_28pin_reuse_records_round_trips1_0B7_
FNDA:0,_RNCNvNtNtCslXikeFjAAou_9lb_l4_xdp12stats_export5testss_28pin_reuse_records_round_trips2_0B7_
FNDA:0,_RNCNvNtNtCslXikeFjAAou_9lb_l4_xdp12stats_export5testss_28pin_reuse_records_round_trips3_0B7_
FNDA:0,_RNCNvNtNtCslXikeFjAAou_9lb_l4_xdp12stats_export5testss_28pin_reuse_records_round_trips_0B7_
FNDA:0,_RNvNtNtCslXikeFjAAou_9lb_l4_xdp12stats_export5testss_18unset_returns_none
FNDA:0,_RNvNtNtCslXikeFjAAou_9lb_l4_xdp12stats_export5testss_20round_trip_all_modes
FNDA:0,_RNvNtNtCslXikeFjAAou_9lb_l4_xdp12stats_export5testss_22num_slots_matches_enum
FNDA:0,_RNvNtNtCslXikeFjAAou_9lb_l4_xdp12stats_export5testss_28pin_reuse_records_round_trip
FNDA:0,_RNvNtNtCslXikeFjAAou_9lb_l4_xdp12stats_export5testss_32label_strings_match_kernel_vocab
FNDA:0,_RNvNtNtCslXikeFjAAou_9lb_l4_xdp12stats_export5testss_32pin_reuse_unknown_name_is_silent
FNDA:0,_RNvNtNtCslXikeFjAAou_9lb_l4_xdp12stats_export5testss_33stat_slot_indices_are_wire_stable
FNDA:0,_RNvNtNtCslXikeFjAAou_9lb_l4_xdp12stats_export5testss_38attach_probe_failed_counter_round_trip
FNDA:0,_RNCNvNtCslXikeFjAAou_9lb_l4_xdp12stats_export10read_stats0B5_
FNDA:0,_RNCNvNtCslXikeFjAAou_9lb_l4_xdp12stats_export20install_stats_handle0B5_
FNDA:0,_RNCNvNtCslXikeFjAAou_9lb_l4_xdp12stats_export20install_stats_handles_0B5_
FNDA:0,_RNvNtCslXikeFjAAou_9lb_l4_xdp12stats_export10read_stats
FNDA:0,_RNvNtCslXikeFjAAou_9lb_l4_xdp12stats_export20install_stats_handle
FNDA:0,_RNCNvNtCslXikeFjAAou_9lb_l4_xdp12stats_export17record_pin_reused0B5_
FNDA:0,_RNCNvNtCslXikeFjAAou_9lb_l4_xdp12stats_export19pin_reused_snapshot0B5_
FNDA:0,_RNvMNtCslXikeFjAAou_9lb_l4_xdp12stats_exportNtB2_15AttachModeLabel6as_str
FNDA:0,_RNvMNtCslXikeFjAAou_9lb_l4_xdp12stats_exportNtB2_15AttachModeLabel7as_byte
FNDA:0,_RNvMNtCslXikeFjAAou_9lb_l4_xdp12stats_exportNtB2_15AttachModeLabel9from_byte
FNDA:0,_RNvNtCslXikeFjAAou_9lb_l4_xdp12stats_export17record_pin_reused
FNDA:0,_RNvNtCslXikeFjAAou_9lb_l4_xdp12stats_export18record_attach_mode
FNDA:0,_RNvNtCslXikeFjAAou_9lb_l4_xdp12stats_export19current_attach_mode
FNDA:0,_RNvNtCslXikeFjAAou_9lb_l4_xdp12stats_export19pin_reused_snapshot
FNDA:0,_RNvNtCslXikeFjAAou_9lb_l4_xdp12stats_export25attach_probe_failed_count
FNDA:0,_RNvNtCslXikeFjAAou_9lb_l4_xdp12stats_export26record_attach_probe_failed
FNDA:0,_RNvNtCslXikeFjAAou_9lb_l4_xdp12stats_export9pin_names
FNF:31
FNH:0
DA:47,0
DA:48,0
DA:49,0
DA:50,0
DA:51,0
DA:53,0
DA:55,0
DA:56,0
DA:57,0
DA:58,0
DA:59,0
DA:60,0
DA:62,0
DA:67,0
DA:68,0
DA:69,0
DA:70,0
DA:71,0
DA:73,0
DA:90,0
DA:91,0
DA:92,0
DA:98,0
DA:99,0
DA:100,0
DA:118,0
DA:119,0
DA:120,0
DA:125,0
DA:126,0
DA:127,0
DA:146,0
DA:147,0
DA:148,0
DA:149,0
DA:150,0
DA:151,0
DA:152,0
DA:153,0
DA:154,0
DA:159,0
DA:160,0
DA:161,0
DA:162,0
DA:163,0
DA:164,0
DA:165,0
DA:166,0
DA:167,0
DA:168,0
DA:172,0
DA:173,0
DA:174,0
DA:175,0
DA:176,0
DA:177,0
DA:178,0
DA:179,0
DA:321,0
DA:322,0
DA:323,0
DA:324,0
DA:325,0
DA:326,0
DA:327,0
DA:328,0
DA:344,0
DA:345,0
DA:346,0
DA:347,0
DA:348,0
DA:349,0
DA:350,0
DA:351,0
DA:352,0
DA:354,0
DA:355,0
DA:356,0
DA:357,0
DA:359,0
DA:360,0
DA:379,0
DA:380,0
DA:381,0
DA:382,0
DA:383,0
DA:386,0
DA:387,0
DA:388,0
DA:389,0
DA:390,0
DA:391,0
DA:392,0
DA:393,0
DA:395,0
DA:398,0
DA:399,0
DA:400,0
DA:401,0
DA:402,0
DA:405,0
DA:406,0
DA:407,0
DA:408,0
DA:409,0
DA:410,0
DA:411,0
DA:412,0
DA:413,0
DA:414,0
DA:415,0
DA:416,0
DA:417,0
DA:420,0
DA:421,0
DA:422,0
DA:423,0
DA:424,0
DA:425,0
DA:428,0
DA:429,0
DA:430,0
DA:431,0
DA:432,0
DA:433,0
DA:434,0
DA:435,0
DA:436,0
DA:437,0
DA:438,0
DA:439,0
DA:440,0
DA:441,0
DA:442,0
DA:443,0
DA:444,0
DA:445,0
DA:446,0
DA:447,0
DA:451,0
DA:452,0
DA:455,0
DA:456,0
DA:457,0
DA:458,0
DA:459,0
DA:460,0
DA:463,0
DA:464,0
DA:465,0
DA:466,0
DA:467,0
DA:468,0
BRF:0
BRH:0
LF:164
LH:0
end_of_record
SF:/home/ubuntu/Code/ExpressGateway/.claude/worktrees/s15-builder/crates/lb-l7/src/authority.rs
FN:66,_RINvNtCs3aqnWZMHlPP_5lb_l79authority16validate_requestNtNtNtCsgB3dp6qvXvn_5hyper4body8incoming8IncomingEB4_
FN:71,_RNCINvNtCs3aqnWZMHlPP_5lb_l79authority16validate_requestNtNtNtCsgB3dp6qvXvn_5hyper4body8incoming8IncomingE0B6_
FN:75,_RNCINvNtCs3aqnWZMHlPP_5lb_l79authority16validate_requestNtNtNtCsgB3dp6qvXvn_5hyper4body8incoming8IncomingEs_0B6_
FN:95,_RNvNtNtCsahEFUsRJKn_5lb_l79authority5testss_29predicate_reexport_is_lb_core
FN:119,_RNvNtNtCsahEFUsRJKn_5lb_l79authority5testss_29request_host_header_validated
FN:143,_RNvNtNtCsahEFUsRJKn_5lb_l79authority5testss_30request_valid_authority_passes
FN:104,_RNvNtNtCsahEFUsRJKn_5lb_l79authority5testss_31request_uri_authority_validated
FN:135,_RNvNtNtCsahEFUsRJKn_5lb_l79authority5testss_42request_absent_and_empty_authority_skipped
FN:66,_RINvNtCsahEFUsRJKn_5lb_l79authority16validate_requestNtNtNtCsgB3dp6qvXvn_5hyper4body8incoming8IncomingEB4_
FN:66,_RINvNtCsahEFUsRJKn_5lb_l79authority16validate_requestuEB4_
FN:71,_RNCINvNtCsahEFUsRJKn_5lb_l79authority16validate_requestNtNtNtCsgB3dp6qvXvn_5hyper4body8incoming8IncomingE0B6_
FN:75,_RNCINvNtCsahEFUsRJKn_5lb_l79authority16validate_requestNtNtNtCsgB3dp6qvXvn_5hyper4body8incoming8IncomingEs_0B6_
FN:71,_RNCINvNtCsahEFUsRJKn_5lb_l79authority16validate_requestuE0B6_
FN:75,_RNCINvNtCsahEFUsRJKn_5lb_l79authority16validate_requestuEs_0B6_
FNDA:0,_RINvNtCs3aqnWZMHlPP_5lb_l79authority16validate_requestNtNtNtCsgB3dp6qvXvn_5hyper4body8incoming8IncomingEB4_
FNDA:0,_RNCINvNtCs3aqnWZMHlPP_5lb_l79authority16validate_requestNtNtNtCsgB3dp6qvXvn_5hyper4body8incoming8IncomingE0B6_
FNDA:0,_RNCINvNtCs3aqnWZMHlPP_5lb_l79authority16validate_requestNtNtNtCsgB3dp6qvXvn_5hyper4body8incoming8IncomingEs_0B6_
FNDA:0,_RNvNtNtCsahEFUsRJKn_5lb_l79authority5testss_29predicate_reexport_is_lb_core
FNDA:0,_RNvNtNtCsahEFUsRJKn_5lb_l79authority5testss_29request_host_header_validated
FNDA:0,_RNvNtNtCsahEFUsRJKn_5lb_l79authority5testss_30request_valid_authority_passes
FNDA:0,_RNvNtNtCsahEFUsRJKn_5lb_l79authority5testss_31request_uri_authority_validated
FNDA:0,_RNvNtNtCsahEFUsRJKn_5lb_l79authority5testss_42request_absent_and_empty_authority_skipped
FNDA:0,_RINvNtCsahEFUsRJKn_5lb_l79authority16validate_requestNtNtNtCsgB3dp6qvXvn_5hyper4body8incoming8IncomingEB4_
FNDA:0,_RINvNtCsahEFUsRJKn_5lb_l79authority16validate_requestuEB4_
FNDA:0,_RNCINvNtCsahEFUsRJKn_5lb_l79authority16validate_requestNtNtNtCsgB3dp6qvXvn_5hyper4body8incoming8IncomingE0B6_
FNDA:0,_RNCINvNtCsahEFUsRJKn_5lb_l79authority16validate_requestNtNtNtCsgB3dp6qvXvn_5hyper4body8incoming8IncomingEs_0B6_
FNDA:0,_RNCINvNtCsahEFUsRJKn_5lb_l79authority16validate_requestuE0B6_
FNDA:0,_RNCINvNtCsahEFUsRJKn_5lb_l79authority16validate_requestuEs_0B6_
FNF:8
FNH:0
DA:66,0
DA:67,0
DA:68,0
DA:69,0
DA:70,0
DA:71,0
DA:72,0
DA:73,0
DA:74,0
DA:75,0
DA:77,0
DA:78,0
DA:79,0
DA:81,0
DA:82,0
DA:95,0
DA:96,0
DA:97,0
DA:98,0
DA:99,0
DA:100,0
DA:101,0
DA:104,0
DA:105,0
DA:106,0
DA:107,0
DA:108,0
DA:109,0
DA:110,0
DA:111,0
DA:112,0
DA:113,0
DA:114,0
DA:115,0
DA:116,0
DA:119,0
DA:120,0
DA:121,0
DA:122,0
DA:123,0
DA:124,0
DA:125,0
DA:126,0
DA:127,0
DA:128,0
DA:129,0
DA:130,0
DA:131,0
DA:132,0
DA:135,0
DA:136,0
DA:137,0
DA:138,0
DA:139,0
DA:140,0
DA:143,0
DA:144,0
DA:145,0
DA:146,0
DA:147,0
DA:148,0
DA:149,0
BRF:0
BRH:0
LF:64
LH:0
end_of_record
SF:/home/ubuntu/Code/ExpressGateway/.claude/worktrees/s15-builder/crates/lb-l7/src/grpc_proxy.rs
FN:279,_RINvNtCs3aqnWZMHlPP_5lb_l710grpc_proxy15is_grpc_requestNtNtNtCsgB3dp6qvXvn_5hyper4body8incoming8IncomingEB4_
FN:282,_RNCINvNtCs3aqnWZMHlPP_5lb_l710grpc_proxy15is_grpc_requestNtNtNtCsgB3dp6qvXvn_5hyper4body8incoming8IncomingE0B6_
FN:283,_RNCINvNtCs3aqnWZMHlPP_5lb_l710grpc_proxy15is_grpc_requestNtNtNtCsgB3dp6qvXvn_5hyper4body8incoming8IncomingEs_0B6_
FN:292,_RNCNCINvNtCs3aqnWZMHlPP_5lb_l710grpc_proxy15is_grpc_requestNtNtNtCsgB3dp6qvXvn_5hyper4body8incoming8IncomingEs_00B8_
FN:247,_RNCNCNvMs_NtCs3aqnWZMHlPP_5lb_l710grpc_proxyNtB8_9GrpcProxy7forward00Ba_
FN:389,_RNCNCNvNtCs3aqnWZMHlPP_5lb_l710grpc_proxy19handle_health_check00B7_
FN:149,_RNCNvMs_NtCs3aqnWZMHlPP_5lb_l710grpc_proxyNtB6_9GrpcProxy6handle0B8_
FN:170,_RNCNvMs_NtCs3aqnWZMHlPP_5lb_l710grpc_proxyNtB6_9GrpcProxy7forward0B8_
FN:596,_RNCNvNtCs3aqnWZMHlPP_5lb_l710grpc_proxy17finalize_upstream0B5_
FN:576,_RNCNvNtCs3aqnWZMHlPP_5lb_l710grpc_proxy19grpc_error_response0B5_
FN:384,_RNCNvNtCs3aqnWZMHlPP_5lb_l710grpc_proxy19handle_health_check0B5_
FN:307,_RNCNvNtCs3aqnWZMHlPP_5lb_l710grpc_proxy24rewrite_uri_for_upstream0B5_
FN:428,_RNCNvNtCs3aqnWZMHlPP_5lb_l710grpc_proxy29health_check_serving_response0B5_
FN:130,_RNvMs_NtCs3aqnWZMHlPP_5lb_l710grpc_proxyNtB4_9GrpcProxy20max_header_list_size
FN:113,_RNvMs_NtCs3aqnWZMHlPP_5lb_l710grpc_proxyNtB4_9GrpcProxy25with_max_header_list_size
FN:98,_RNvMs_NtCs3aqnWZMHlPP_5lb_l710grpc_proxyNtB4_9GrpcProxy3new
FN:120,_RNvMs_NtCs3aqnWZMHlPP_5lb_l710grpc_proxyNtB4_9GrpcProxy6config
FN:145,_RNvMs_NtCs3aqnWZMHlPP_5lb_l710grpc_proxyNtB4_9GrpcProxy6handle
FN:166,_RNvMs_NtCs3aqnWZMHlPP_5lb_l710grpc_proxyNtB4_9GrpcProxy7forward
FN:530,_RNvNtCs3aqnWZMHlPP_5lb_l710grpc_proxy11read_varint
FN:547,_RNvNtCs3aqnWZMHlPP_5lb_l710grpc_proxy14empty_fallback
FN:586,_RNvNtCs3aqnWZMHlPP_5lb_l710grpc_proxy17finalize_upstream
FN:559,_RNvNtCs3aqnWZMHlPP_5lb_l710grpc_proxy19grpc_error_response
FN:384,_RNvNtCs3aqnWZMHlPP_5lb_l710grpc_proxy19handle_health_check
FN:301,_RNvNtCs3aqnWZMHlPP_5lb_l710grpc_proxy24rewrite_uri_for_upstream
FN:445,_RNvNtCs3aqnWZMHlPP_5lb_l710grpc_proxy27decode_health_check_service
FN:333,_RNvNtCs3aqnWZMHlPP_5lb_l710grpc_proxy28parse_and_clamp_grpc_timeout
FN:404,_RNvNtCs3aqnWZMHlPP_5lb_l710grpc_proxy29health_check_serving_response
FN:64,_RNvXNtCs3aqnWZMHlPP_5lb_l710grpc_proxyNtB2_10GrpcConfigNtNtCs2va5m0jqTTM_4core7default7Default7default
FN:279,_RINvNtCsahEFUsRJKn_5lb_l710grpc_proxy15is_grpc_requestINtNtCsedaG9KDMExI_14http_body_util5empty5EmptyNtNtCs7xJyEqPIUa9_5bytes5bytes5BytesEEB4_
FN:279,_RINvNtCsahEFUsRJKn_5lb_l710grpc_proxy15is_grpc_requestNtNtNtCsgB3dp6qvXvn_5hyper4body8incoming8IncomingEB4_
FN:282,_RNCINvNtCsahEFUsRJKn_5lb_l710grpc_proxy15is_grpc_requestINtNtCsedaG9KDMExI_14http_body_util5empty5EmptyNtNtCs7xJyEqPIUa9_5bytes5bytes5BytesEE0B6_
FN:283,_RNCINvNtCsahEFUsRJKn_5lb_l710grpc_proxy15is_grpc_requestINtNtCsedaG9KDMExI_14http_body_util5empty5EmptyNtNtCs7xJyEqPIUa9_5bytes5bytes5BytesEEs_0B6_
FN:282,_RNCINvNtCsahEFUsRJKn_5lb_l710grpc_proxy15is_grpc_requestNtNtNtCsgB3dp6qvXvn_5hyper4body8incoming8IncomingE0B6_
FN:283,_RNCINvNtCsahEFUsRJKn_5lb_l710grpc_proxy15is_grpc_requestNtNtNtCsgB3dp6qvXvn_5hyper4body8incoming8IncomingEs_0B6_
FN:292,_RNCNCINvNtCsahEFUsRJKn_5lb_l710grpc_proxy15is_grpc_requestINtNtCsedaG9KDMExI_14http_body_util5empty5EmptyNtNtCs7xJyEqPIUa9_5bytes5bytes5BytesEEs_00B8_
FN:292,_RNCNCINvNtCsahEFUsRJKn_5lb_l710grpc_proxy15is_grpc_requestNtNtNtCsgB3dp6qvXvn_5hyper4body8incoming8IncomingEs_00B8_
FN:247,_RNCNCNvMs_NtCsahEFUsRJKn_5lb_l710grpc_proxyNtB8_9GrpcProxy7forward00Ba_
FN:389,_RNCNCNvNtCsahEFUsRJKn_5lb_l710grpc_proxy19handle_health_check00B7_
FN:149,_RNCNvMs_NtCsahEFUsRJKn_5lb_l710grpc_proxyNtB6_9GrpcProxy6handle0B8_
FN:170,_RNCNvMs_NtCsahEFUsRJKn_5lb_l710grpc_proxyNtB6_9GrpcProxy7forward0B8_
FN:596,_RNCNvNtCsahEFUsRJKn_5lb_l710grpc_proxy17finalize_upstream0B5_
FN:576,_RNCNvNtCsahEFUsRJKn_5lb_l710grpc_proxy19grpc_error_response0B5_
FN:384,_RNCNvNtCsahEFUsRJKn_5lb_l710grpc_proxy19handle_health_check0B5_
FN:307,_RNCNvNtCsahEFUsRJKn_5lb_l710grpc_proxy24rewrite_uri_for_upstream0B5_
FN:428,_RNCNvNtCsahEFUsRJKn_5lb_l710grpc_proxy29health_check_serving_response0B5_
FN:120,_RNvMs_NtCsahEFUsRJKn_5lb_l710grpc_proxyNtB4_9GrpcProxy6config
FN:145,_RNvMs_NtCsahEFUsRJKn_5lb_l710grpc_proxyNtB4_9GrpcProxy6handle
FN:166,_RNvMs_NtCsahEFUsRJKn_5lb_l710grpc_proxyNtB4_9GrpcProxy7forward
FN:530,_RNvNtCsahEFUsRJKn_5lb_l710grpc_proxy11read_varint
FN:547,_RNvNtCsahEFUsRJKn_5lb_l710grpc_proxy14empty_fallback
FN:586,_RNvNtCsahEFUsRJKn_5lb_l710grpc_proxy17finalize_upstream
FN:362,_RNvNtCsahEFUsRJKn_5lb_l710grpc_proxy18clamp_grpc_timeout
FN:559,_RNvNtCsahEFUsRJKn_5lb_l710grpc_proxy19grpc_error_response
FN:384,_RNvNtCsahEFUsRJKn_5lb_l710grpc_proxy19handle_health_check
FN:301,_RNvNtCsahEFUsRJKn_5lb_l710grpc_proxy24rewrite_uri_for_upstream
FN:445,_RNvNtCsahEFUsRJKn_5lb_l710grpc_proxy27decode_health_check_service
FN:333,_RNvNtCsahEFUsRJKn_5lb_l710grpc_proxy28parse_and_clamp_grpc_timeout
FN:404,_RNvNtCsahEFUsRJKn_5lb_l710grpc_proxy29health_check_serving_response
FN:695,_RNCNvNtNtCsahEFUsRJKn_5lb_l710grpc_proxy5testss_41health_check_serving_response_well_formed0B7_
FN:800,_RNCNvNtNtCsahEFUsRJKn_5lb_l710grpc_proxy5testss_42grpc_error_response_carries_trailer_status0B7_
FN:618,_RNvNtNtCsahEFUsRJKn_5lb_l710grpc_proxy5tests11req_with_ct
FN:774,_RNvNtNtCsahEFUsRJKn_5lb_l710grpc_proxy5tests12write_varint
FN:689,_RNvNtNtCsahEFUsRJKn_5lb_l710grpc_proxy5testss_32grpc_timeout_absent_returns_none
FN:680,_RNvNtNtCsahEFUsRJKn_5lb_l710grpc_proxy5testss_35grpc_timeout_below_max_is_preserved
FN:663,_RNvNtNtCsahEFUsRJKn_5lb_l710grpc_proxy5testss_35grpc_timeout_parse_and_clamp_at_max
FN:783,_RNvNtNtCsahEFUsRJKn_5lb_l710grpc_proxy5testss_38http_non_200_translates_to_grpc_status
FN:656,_RNvNtNtCsahEFUsRJKn_5lb_l710grpc_proxy5testss_39is_grpc_request_rejects_empty_extension
FN:628,_RNvNtNtCsahEFUsRJKn_5lb_l710grpc_proxy5testss_40is_grpc_request_matches_application_grpc
FN:638,_RNvNtNtCsahEFUsRJKn_5lb_l710grpc_proxy5testss_40is_grpc_request_matches_case_insensitive
FN:651,_RNvNtNtCsahEFUsRJKn_5lb_l710grpc_proxy5testss_40is_grpc_request_rejects_application_json
FN:695,_RNvNtNtCsahEFUsRJKn_5lb_l710grpc_proxy5testss_41health_check_serving_response_well_formed
FN:800,_RNvNtNtCsahEFUsRJKn_5lb_l710grpc_proxy5testss_42grpc_error_response_carries_trailer_status
FN:643,_RNvNtNtCsahEFUsRJKn_5lb_l710grpc_proxy5testss_46is_grpc_request_matches_with_charset_parameter
FN:739,_RNvNtNtCsahEFUsRJKn_5lb_l710grpc_proxy5testss_47decode_health_check_service_skips_unknown_field
FN:726,_RNvNtNtCsahEFUsRJKn_5lb_l710grpc_proxy5testss_48decode_health_check_service_decodes_string_field
FN:766,_RNvNtNtCsahEFUsRJKn_5lb_l710grpc_proxy5testss_49parse_and_clamp_grpc_timeout_absent_yields_absent
FN:633,_RNvNtNtCsahEFUsRJKn_5lb_l710grpc_proxy5testss_51is_grpc_request_matches_application_grpc_plus_proto
FN:714,_RNvNtNtCsahEFUsRJKn_5lb_l710grpc_proxy5testss_52decode_health_check_service_empty_body_returns_empty
FN:719,_RNvNtNtCsahEFUsRJKn_5lb_l710grpc_proxy5testss_55decode_health_check_service_empty_message_returns_empty
FN:755,_RNvNtNtCsahEFUsRJKn_5lb_l710grpc_proxy5testss_62parse_and_clamp_grpc_timeout_malformed_yields_invalid_argument
FN:130,_RNvMs_NtCsahEFUsRJKn_5lb_l710grpc_proxyNtB4_9GrpcProxy20max_header_list_size
FN:113,_RNvMs_NtCsahEFUsRJKn_5lb_l710grpc_proxyNtB4_9GrpcProxy25with_max_header_list_size
FN:98,_RNvMs_NtCsahEFUsRJKn_5lb_l710grpc_proxyNtB4_9GrpcProxy3new
FN:64,_RNvXNtCsahEFUsRJKn_5lb_l710grpc_proxyNtB2_10GrpcConfigNtNtCs2va5m0jqTTM_4core7default7Default7default
FNDA:0,_RINvNtCs3aqnWZMHlPP_5lb_l710grpc_proxy15is_grpc_requestNtNtNtCsgB3dp6qvXvn_5hyper4body8incoming8IncomingEB4_
FNDA:0,_RNCINvNtCs3aqnWZMHlPP_5lb_l710grpc_proxy15is_grpc_requestNtNtNtCsgB3dp6qvXvn_5hyper4body8incoming8IncomingE0B6_
FNDA:0,_RNCINvNtCs3aqnWZMHlPP_5lb_l710grpc_proxy15is_grpc_requestNtNtNtCsgB3dp6qvXvn_5hyper4body8incoming8IncomingEs_0B6_
FNDA:0,_RNCNCINvNtCs3aqnWZMHlPP_5lb_l710grpc_proxy15is_grpc_requestNtNtNtCsgB3dp6qvXvn_5hyper4body8incoming8IncomingEs_00B8_
FNDA:0,_RNCNCNvMs_NtCs3aqnWZMHlPP_5lb_l710grpc_proxyNtB8_9GrpcProxy7forward00Ba_
FNDA:0,_RNCNCNvNtCs3aqnWZMHlPP_5lb_l710grpc_proxy19handle_health_check00B7_
FNDA:0,_RNCNvMs_NtCs3aqnWZMHlPP_5lb_l710grpc_proxyNtB6_9GrpcProxy6handle0B8_
FNDA:0,_RNCNvMs_NtCs3aqnWZMHlPP_5lb_l710grpc_proxyNtB6_9GrpcProxy7forward0B8_
FNDA:0,_RNCNvNtCs3aqnWZMHlPP_5lb_l710grpc_proxy17finalize_upstream0B5_
FNDA:0,_RNCNvNtCs3aqnWZMHlPP_5lb_l710grpc_proxy19grpc_error_response0B5_
FNDA:0,_RNCNvNtCs3aqnWZMHlPP_5lb_l710grpc_proxy19handle_health_check0B5_
FNDA:0,_RNCNvNtCs3aqnWZMHlPP_5lb_l710grpc_proxy24rewrite_uri_for_upstream0B5_
FNDA:0,_RNCNvNtCs3aqnWZMHlPP_5lb_l710grpc_proxy29health_check_serving_response0B5_
FNDA:0,_RNvMs_NtCs3aqnWZMHlPP_5lb_l710grpc_proxyNtB4_9GrpcProxy20max_header_list_size
FNDA:0,_RNvMs_NtCs3aqnWZMHlPP_5lb_l710grpc_proxyNtB4_9GrpcProxy25with_max_header_list_size
FNDA:0,_RNvMs_NtCs3aqnWZMHlPP_5lb_l710grpc_proxyNtB4_9GrpcProxy3new
FNDA:0,_RNvMs_NtCs3aqnWZMHlPP_5lb_l710grpc_proxyNtB4_9GrpcProxy6config
FNDA:0,_RNvMs_NtCs3aqnWZMHlPP_5lb_l710grpc_proxyNtB4_9GrpcProxy6handle
FNDA:0,_RNvMs_NtCs3aqnWZMHlPP_5lb_l710grpc_proxyNtB4_9GrpcProxy7forward
FNDA:0,_RNvNtCs3aqnWZMHlPP_5lb_l710grpc_proxy11read_varint
FNDA:0,_RNvNtCs3aqnWZMHlPP_5lb_l710grpc_proxy14empty_fallback
FNDA:0,_RNvNtCs3aqnWZMHlPP_5lb_l710grpc_proxy17finalize_upstream
FNDA:0,_RNvNtCs3aqnWZMHlPP_5lb_l710grpc_proxy19grpc_error_response
FNDA:0,_RNvNtCs3aqnWZMHlPP_5lb_l710grpc_proxy19handle_health_check
FNDA:0,_RNvNtCs3aqnWZMHlPP_5lb_l710grpc_proxy24rewrite_uri_for_upstream
FNDA:0,_RNvNtCs3aqnWZMHlPP_5lb_l710grpc_proxy27decode_health_check_service
FNDA:0,_RNvNtCs3aqnWZMHlPP_5lb_l710grpc_proxy28parse_and_clamp_grpc_timeout
FNDA:0,_RNvNtCs3aqnWZMHlPP_5lb_l710grpc_proxy29health_check_serving_response
FNDA:0,_RNvXNtCs3aqnWZMHlPP_5lb_l710grpc_proxyNtB2_10GrpcConfigNtNtCs2va5m0jqTTM_4core7default7Default7default
FNDA:0,_RINvNtCsahEFUsRJKn_5lb_l710grpc_proxy15is_grpc_requestINtNtCsedaG9KDMExI_14http_body_util5empty5EmptyNtNtCs7xJyEqPIUa9_5bytes5bytes5BytesEEB4_
FNDA:0,_RINvNtCsahEFUsRJKn_5lb_l710grpc_proxy15is_grpc_requestNtNtNtCsgB3dp6qvXvn_5hyper4body8incoming8IncomingEB4_
FNDA:0,_RNCINvNtCsahEFUsRJKn_5lb_l710grpc_proxy15is_grpc_requestINtNtCsedaG9KDMExI_14http_body_util5empty5EmptyNtNtCs7xJyEqPIUa9_5bytes5bytes5BytesEE0B6_
FNDA:0,_RNCINvNtCsahEFUsRJKn_5lb_l710grpc_proxy15is_grpc_requestINtNtCsedaG9KDMExI_14http_body_util5empty5EmptyNtNtCs7xJyEqPIUa9_5bytes5bytes5BytesEEs_0B6_
FNDA:0,_RNCINvNtCsahEFUsRJKn_5lb_l710grpc_proxy15is_grpc_requestNtNtNtCsgB3dp6qvXvn_5hyper4body8incoming8IncomingE0B6_
FNDA:0,_RNCINvNtCsahEFUsRJKn_5lb_l710grpc_proxy15is_grpc_requestNtNtNtCsgB3dp6qvXvn_5hyper4body8incoming8IncomingEs_0B6_
FNDA:0,_RNCNCINvNtCsahEFUsRJKn_5lb_l710grpc_proxy15is_grpc_requestINtNtCsedaG9KDMExI_14http_body_util5empty5EmptyNtNtCs7xJyEqPIUa9_5bytes5bytes5BytesEEs_00B8_
FNDA:0,_RNCNCINvNtCsahEFUsRJKn_5lb_l710grpc_proxy15is_grpc_requestNtNtNtCsgB3dp6qvXvn_5hyper4body8incoming8IncomingEs_00B8_
FNDA:0,_RNCNCNvMs_NtCsahEFUsRJKn_5lb_l710grpc_proxyNtB8_9GrpcProxy7forward00Ba_
FNDA:0,_RNCNCNvNtCsahEFUsRJKn_5lb_l710grpc_proxy19handle_health_check00B7_
FNDA:0,_RNCNvMs_NtCsahEFUsRJKn_5lb_l710grpc_proxyNtB6_9GrpcProxy6handle0B8_
FNDA:0,_RNCNvMs_NtCsahEFUsRJKn_5lb_l710grpc_proxyNtB6_9GrpcProxy7forward0B8_
FNDA:0,_RNCNvNtCsahEFUsRJKn_5lb_l710grpc_proxy17finalize_upstream0B5_
FNDA:0,_RNCNvNtCsahEFUsRJKn_5lb_l710grpc_proxy19grpc_error_response0B5_
FNDA:0,_RNCNvNtCsahEFUsRJKn_5lb_l710grpc_proxy19handle_health_check0B5_
FNDA:0,_RNCNvNtCsahEFUsRJKn_5lb_l710grpc_proxy24rewrite_uri_for_upstream0B5_
FNDA:0,_RNCNvNtCsahEFUsRJKn_5lb_l710grpc_proxy29health_check_serving_response0B5_
FNDA:0,_RNvMs_NtCsahEFUsRJKn_5lb_l710grpc_proxyNtB4_9GrpcProxy6config
FNDA:0,_RNvMs_NtCsahEFUsRJKn_5lb_l710grpc_proxyNtB4_9GrpcProxy6handle
FNDA:0,_RNvMs_NtCsahEFUsRJKn_5lb_l710grpc_proxyNtB4_9GrpcProxy7forward
FNDA:0,_RNvNtCsahEFUsRJKn_5lb_l710grpc_proxy11read_varint
FNDA:0,_RNvNtCsahEFUsRJKn_5lb_l710grpc_proxy14empty_fallback
FNDA:0,_RNvNtCsahEFUsRJKn_5lb_l710grpc_proxy17finalize_upstream
FNDA:0,_RNvNtCsahEFUsRJKn_5lb_l710grpc_proxy18clamp_grpc_timeout
FNDA:0,_RNvNtCsahEFUsRJKn_5lb_l710grpc_proxy19grpc_error_response
FNDA:0,_RNvNtCsahEFUsRJKn_5lb_l710grpc_proxy19handle_health_check
FNDA:0,_RNvNtCsahEFUsRJKn_5lb_l710grpc_proxy24rewrite_uri_for_upstream
FNDA:0,_RNvNtCsahEFUsRJKn_5lb_l710grpc_proxy27decode_health_check_service
FNDA:0,_RNvNtCsahEFUsRJKn_5lb_l710grpc_proxy28parse_and_clamp_grpc_timeout
FNDA:0,_RNvNtCsahEFUsRJKn_5lb_l710grpc_proxy29health_check_serving_response
FNDA:0,_RNCNvNtNtCsahEFUsRJKn_5lb_l710grpc_proxy5testss_41health_check_serving_response_well_formed0B7_
FNDA:0,_RNCNvNtNtCsahEFUsRJKn_5lb_l710grpc_proxy5testss_42grpc_error_response_carries_trailer_status0B7_
FNDA:0,_RNvNtNtCsahEFUsRJKn_5lb_l710grpc_proxy5tests11req_with_ct
FNDA:0,_RNvNtNtCsahEFUsRJKn_5lb_l710grpc_proxy5tests12write_varint
FNDA:0,_RNvNtNtCsahEFUsRJKn_5lb_l710grpc_proxy5testss_32grpc_timeout_absent_returns_none
FNDA:0,_RNvNtNtCsahEFUsRJKn_5lb_l710grpc_proxy5testss_35grpc_timeout_below_max_is_preserved
FNDA:0,_RNvNtNtCsahEFUsRJKn_5lb_l710grpc_proxy5testss_35grpc_timeout_parse_and_clamp_at_max
FNDA:0,_RNvNtNtCsahEFUsRJKn_5lb_l710grpc_proxy5testss_38http_non_200_translates_to_grpc_status
FNDA:0,_RNvNtNtCsahEFUsRJKn_5lb_l710grpc_proxy5testss_39is_grpc_request_rejects_empty_extension
FNDA:0,_RNvNtNtCsahEFUsRJKn_5lb_l710grpc_proxy5testss_40is_grpc_request_matches_application_grpc
FNDA:0,_RNvNtNtCsahEFUsRJKn_5lb_l710grpc_proxy5testss_40is_grpc_request_matches_case_insensitive
FNDA:0,_RNvNtNtCsahEFUsRJKn_5lb_l710grpc_proxy5testss_40is_grpc_request_rejects_application_json
FNDA:0,_RNvNtNtCsahEFUsRJKn_5lb_l710grpc_proxy5testss_41health_check_serving_response_well_formed
FNDA:0,_RNvNtNtCsahEFUsRJKn_5lb_l710grpc_proxy5testss_42grpc_error_response_carries_trailer_status
FNDA:0,_RNvNtNtCsahEFUsRJKn_5lb_l710grpc_proxy5testss_46is_grpc_request_matches_with_charset_parameter
FNDA:0,_RNvNtNtCsahEFUsRJKn_5lb_l710grpc_proxy5testss_47decode_health_check_service_skips_unknown_field
FNDA:0,_RNvNtNtCsahEFUsRJKn_5lb_l710grpc_proxy5testss_48decode_health_check_service_decodes_string_field
FNDA:0,_RNvNtNtCsahEFUsRJKn_5lb_l710grpc_proxy5testss_49parse_and_clamp_grpc_timeout_absent_yields_absent
FNDA:0,_RNvNtNtCsahEFUsRJKn_5lb_l710grpc_proxy5testss_51is_grpc_request_matches_application_grpc_plus_proto
FNDA:0,_RNvNtNtCsahEFUsRJKn_5lb_l710grpc_proxy5testss_52decode_health_check_service_empty_body_returns_empty
FNDA:0,_RNvNtNtCsahEFUsRJKn_5lb_l710grpc_proxy5testss_55decode_health_check_service_empty_message_returns_empty
FNDA:0,_RNvNtNtCsahEFUsRJKn_5lb_l710grpc_proxy5testss_62parse_and_clamp_grpc_timeout_malformed_yields_invalid_argument
FNDA:0,_RNvMs_NtCsahEFUsRJKn_5lb_l710grpc_proxyNtB4_9GrpcProxy20max_header_list_size
FNDA:0,_RNvMs_NtCsahEFUsRJKn_5lb_l710grpc_proxyNtB4_9GrpcProxy25with_max_header_list_size
FNDA:0,_RNvMs_NtCsahEFUsRJKn_5lb_l710grpc_proxyNtB4_9GrpcProxy3new
FNDA:0,_RNvXNtCsahEFUsRJKn_5lb_l710grpc_proxyNtB2_10GrpcConfigNtNtCs2va5m0jqTTM_4core7default7Default7default
FNF:52
FNH:0
DA:64,0
DA:65,0
DA:66,0
DA:67,0
DA:68,0
DA:69,0
DA:70,0
DA:98,0
DA:99,0
DA:100,0
DA:101,0
DA:102,0
DA:103,0
DA:104,0
DA:113,0
DA:114,0
DA:115,0
DA:116,0
DA:120,0
DA:121,0
DA:122,0
DA:130,0
DA:131,0
DA:132,0
DA:145,0
DA:146,0
DA:147,0
DA:148,0
DA:149,0
DA:150,0
DA:151,0
DA:152,0
DA:154,0
DA:155,0
DA:156,0
DA:157,0
DA:166,0
DA:167,0
DA:168,0
DA:169,0
DA:170,0
DA:171,0
DA:178,0
DA:179,0
DA:180,0
DA:181,0
DA:182,0
DA:183,0
DA:184,0
DA:185,0
DA:186,0
DA:194,0
DA:195,0
DA:196,0
DA:202,0
DA:203,0
DA:204,0
DA:210,0
DA:211,0
DA:215,0
DA:216,0
DA:217,0
DA:218,0
DA:219,0
DA:220,0
DA:221,0
DA:224,0
DA:225,0
DA:233,0
DA:234,0
DA:235,0
DA:236,0
DA:237,0
DA:239,0
DA:240,0
DA:241,0
DA:242,0
DA:243,0
DA:244,0
DA:247,0
DA:248,0
DA:249,0
DA:250,0
DA:251,0
DA:252,0
DA:253,0
DA:254,0
DA:255,0
DA:257,0
DA:258,0
DA:261,0
DA:264,0
DA:265,0
DA:266,0
DA:267,0
DA:268,0
DA:271,0
DA:272,0
DA:273,0
DA:274,0
DA:279,0
DA:280,0
DA:281,0
DA:282,0
DA:283,0
DA:284,0
DA:285,0
DA:286,0
DA:287,0
DA:288,0
DA:289,0
DA:290,0
DA:292,0
DA:293,0
DA:294,0
DA:301,0
DA:302,0
DA:303,0
DA:304,0
DA:305,0
DA:306,0
DA:307,0
DA:308,0
DA:309,0
DA:310,0
DA:333,0
DA:334,0
DA:335,0
DA:337,0
DA:339,0
DA:341,0
DA:342,0
DA:343,0
DA:345,0
DA:346,0
DA:347,0
DA:348,0
DA:349,0
DA:350,0
DA:351,0
DA:352,0
DA:362,0
DA:363,0
DA:364,0
DA:365,0
DA:367,0
DA:384,0
DA:388,0
DA:389,0
DA:390,0
DA:391,0
DA:392,0
DA:393,0
DA:394,0
DA:395,0
DA:396,0
DA:397,0
DA:398,0
DA:399,0
DA:404,0
DA:405,0
DA:406,0
DA:407,0
DA:408,0
DA:409,0
DA:410,0
DA:411,0
DA:412,0
DA:413,0
DA:414,0
DA:415,0
DA:416,0
DA:417,0
DA:418,0
DA:419,0
DA:420,0
DA:421,0
DA:422,0
DA:423,0
DA:424,0
DA:425,0
DA:426,0
DA:427,0
DA:428,0
DA:429,0
DA:445,0
DA:446,0
DA:447,0
DA:448,0
DA:449,0
DA:451,0
DA:452,0
DA:456,0
DA:457,0
DA:458,0
DA:459,0
DA:460,0
DA:461,0
DA:462,0
DA:463,0
DA:464,0
DA:465,0
DA:466,0
DA:468,0
DA:469,0
DA:470,0
DA:471,0
DA:474,0
DA:475,0
DA:477,0
DA:478,0
DA:479,0
DA:481,0
DA:482,0
DA:484,0
DA:485,0
DA:486,0
DA:487,0
DA:488,0
DA:490,0
DA:491,0
DA:493,0
DA:497,0
DA:498,0
DA:500,0
DA:504,0
DA:505,0
DA:507,0
DA:508,0
DA:509,0
DA:511,0
DA:512,0
DA:514,0
DA:515,0
DA:516,0
DA:517,0
DA:519,0
DA:520,0
DA:521,0
DA:524,0
DA:525,0
DA:530,0
DA:531,0
DA:532,0
DA:533,0
DA:534,0
DA:535,0
DA:536,0
DA:537,0
DA:538,0
DA:539,0
DA:540,0
DA:541,0
DA:542,0
DA:544,0
DA:545,0
DA:547,0
DA:548,0
DA:549,0
DA:550,0
DA:551,0
DA:552,0
DA:553,0
DA:559,0
DA:560,0
DA:561,0
DA:562,0
DA:563,0
DA:564,0
DA:565,0
DA:566,0
DA:567,0
DA:568,0
DA:569,0
DA:570,0
DA:571,0
DA:572,0
DA:573,0
DA:574,0
DA:575,0
DA:576,0
DA:577,0
DA:586,0
DA:587,0
DA:588,0
DA:589,0
DA:590,0
DA:591,0
DA:592,0
DA:593,0
DA:594,0
DA:595,0
DA:596,0
DA:597,0
DA:598,0
DA:599,0
DA:600,0
DA:618,0
DA:619,0
DA:620,0
DA:621,0
DA:622,0
DA:623,0
DA:624,0
DA:625,0
DA:628,0
DA:629,0
DA:630,0
DA:633,0
DA:634,0
DA:635,0
DA:638,0
DA:639,0
DA:640,0
DA:643,0
DA:644,0
DA:645,0
DA:646,0
DA:647,0
DA:648,0
DA:651,0
DA:652,0
DA:653,0
DA:656,0
DA:657,0
DA:658,0
DA:659,0
DA:660,0
DA:663,0
DA:664,0
DA:665,0
DA:666,0
DA:667,0
DA:668,0
DA:669,0
DA:670,0
DA:671,0
DA:672,0
DA:673,0
DA:674,0
DA:675,0
DA:676,0
DA:677,0
DA:680,0
DA:681,0
DA:682,0
DA:683,0
DA:684,0
DA:685,0
DA:686,0
DA:689,0
DA:690,0
DA:691,0
DA:692,0
DA:695,0
DA:696,0
DA:697,0
DA:698,0
DA:699,0
DA:700,0
DA:701,0
DA:702,0
DA:703,0
DA:704,0
DA:705,0
DA:706,0
DA:707,0
DA:708,0
DA:709,0
DA:710,0
DA:711,0
DA:714,0
DA:715,0
DA:716,0
DA:719,0
DA:720,0
DA:721,0
DA:722,0
DA:723,0
DA:726,0
DA:727,0
DA:728,0
DA:729,0
DA:730,0
DA:731,0
DA:732,0
DA:733,0
DA:734,0
DA:735,0
DA:736,0
DA:739,0
DA:740,0
DA:741,0
DA:742,0
DA:743,0
DA:744,0
DA:745,0
DA:746,0
DA:747,0
DA:748,0
DA:749,0
DA:750,0
DA:751,0
DA:752,0
DA:755,0
DA:756,0
DA:757,0
DA:758,0
DA:759,0
DA:760,0
DA:761,0
DA:763,0
DA:766,0
DA:767,0
DA:768,0
DA:769,0
DA:770,0
DA:772,0
DA:774,0
DA:775,0
DA:776,0
DA:777,0
DA:778,0
DA:779,0
DA:780,0
DA:783,0
DA:784,0
DA:785,0
DA:786,0
DA:787,0
DA:788,0
DA:789,0
DA:790,0
DA:791,0
DA:792,0
DA:793,0
DA:794,0
DA:795,0
DA:796,0
DA:797,0
DA:800,0
DA:801,0
DA:802,0
DA:803,0
DA:804,0
DA:805,0
DA:806,0
DA:807,0
BRF:0
BRH:0
LF:485
LH:0
end_of_record
SF:/home/ubuntu/Code/ExpressGateway/.claude/worktrees/s15-builder/crates/lb-l7/src/h1_proxy.rs
FN:2214,_RNCNCNCNCNCNvMs6_NtCs3aqnWZMHlPP_5lb_l78h1_proxyNtBf_7H1Proxy14proxy_h1_to_h300000Bh_
FN:2213,_RNCNCNCNCNvMs6_NtCs3aqnWZMHlPP_5lb_l78h1_proxyNtBd_7H1Proxy14proxy_h1_to_h30000Bf_
FN:1769,_RNCNCNCNCNvMs6_NtCs3aqnWZMHlPP_5lb_l78h1_proxyNtBd_7H1Proxy22proxy_h1_to_h2_request0000Bf_
FN:1067,_RNCNCNCNvMs6_NtCs3aqnWZMHlPP_5lb_l78h1_proxyNtBb_7H1Proxy12handle_inner0s5_00Bd_
FN:1101,_RNCNCNCNvMs6_NtCs3aqnWZMHlPP_5lb_l78h1_proxyNtBb_7H1Proxy12handle_inner0s6_00Bd_
FN:1325,_RNCNCNCNvMs6_NtCs3aqnWZMHlPP_5lb_l78h1_proxyNtBb_7H1Proxy13proxy_request0s3_00Bd_
FN:1334,_RNCNCNCNvMs6_NtCs3aqnWZMHlPP_5lb_l78h1_proxyNtBb_7H1Proxy13proxy_request0s3_0s_0Bd_
FN:2211,_RNCNCNCNvMs6_NtCs3aqnWZMHlPP_5lb_l78h1_proxyNtBb_7H1Proxy14proxy_h1_to_h3000Bd_
FN:1766,_RNCNCNCNvMs6_NtCs3aqnWZMHlPP_5lb_l78h1_proxyNtBb_7H1Proxy22proxy_h1_to_h2_request000Bd_
FN:1839,_RNCNCNCNvMs6_NtCs3aqnWZMHlPP_5lb_l78h1_proxyNtBb_7H1Proxy22proxy_h1_to_h2_request0s2_00Bd_
FN:1844,_RNCNCNCNvMs6_NtCs3aqnWZMHlPP_5lb_l78h1_proxyNtBb_7H1Proxy22proxy_h1_to_h2_request0s2_0s_0Bd_
FN:919,_RNCNCNvMs6_NtCs3aqnWZMHlPP_5lb_l78h1_proxyNtB9_7H1Proxy12handle_inner00Bb_
FN:942,_RNCNCNvMs6_NtCs3aqnWZMHlPP_5lb_l78h1_proxyNtB9_7H1Proxy12handle_inner0s0_0Bb_
FN:970,_RNCNCNvMs6_NtCs3aqnWZMHlPP_5lb_l78h1_proxyNtB9_7H1Proxy12handle_inner0s1_0Bb_
FN:982,_RNCNCNvMs6_NtCs3aqnWZMHlPP_5lb_l78h1_proxyNtB9_7H1Proxy12handle_inner0s2_0Bb_
FN:1010,_RNCNCNvMs6_NtCs3aqnWZMHlPP_5lb_l78h1_proxyNtB9_7H1Proxy12handle_inner0s3_0Bb_
FN:1037,_RNCNCNvMs6_NtCs3aqnWZMHlPP_5lb_l78h1_proxyNtB9_7H1Proxy12handle_inner0s4_0Bb_
FN:1064,_RNCNCNvMs6_NtCs3aqnWZMHlPP_5lb_l78h1_proxyNtB9_7H1Proxy12handle_inner0s5_0Bb_
FN:1085,_RNCNCNvMs6_NtCs3aqnWZMHlPP_5lb_l78h1_proxyNtB9_7H1Proxy12handle_inner0s6_0Bb_
FN:1112,_RNCNCNvMs6_NtCs3aqnWZMHlPP_5lb_l78h1_proxyNtB9_7H1Proxy12handle_inner0s7_0Bb_
FN:920,_RNCNCNvMs6_NtCs3aqnWZMHlPP_5lb_l78h1_proxyNtB9_7H1Proxy12handle_inner0s_0Bb_
FN:1235,_RNCNCNvMs6_NtCs3aqnWZMHlPP_5lb_l78h1_proxyNtB9_7H1Proxy13proxy_request00Bb_
FN:1256,_RNCNCNvMs6_NtCs3aqnWZMHlPP_5lb_l78h1_proxyNtB9_7H1Proxy13proxy_request0s0_0Bb_
FN:1258,_RNCNCNvMs6_NtCs3aqnWZMHlPP_5lb_l78h1_proxyNtB9_7H1Proxy13proxy_request0s1_0Bb_
FN:1288,_RNCNCNvMs6_NtCs3aqnWZMHlPP_5lb_l78h1_proxyNtB9_7H1Proxy13proxy_request0s2_0Bb_
FN:1320,_RNCNCNvMs6_NtCs3aqnWZMHlPP_5lb_l78h1_proxyNtB9_7H1Proxy13proxy_request0s3_0Bb_
FN:1608,_RNCNCNvMs6_NtCs3aqnWZMHlPP_5lb_l78h1_proxyNtB9_7H1Proxy13proxy_request0s4_0Bb_
FN:1244,_RNCNCNvMs6_NtCs3aqnWZMHlPP_5lb_l78h1_proxyNtB9_7H1Proxy13proxy_request0s_0Bb_
FN:2146,_RNCNCNvMs6_NtCs3aqnWZMHlPP_5lb_l78h1_proxyNtB9_7H1Proxy14proxy_h1_to_h300Bb_
FN:2300,_RNCNCNvMs6_NtCs3aqnWZMHlPP_5lb_l78h1_proxyNtB9_7H1Proxy14proxy_h1_to_h30s0_0Bb_
FN:2339,_RNCNCNvMs6_NtCs3aqnWZMHlPP_5lb_l78h1_proxyNtB9_7H1Proxy14proxy_h1_to_h30s1_0Bb_
FN:2350,_RNCNCNvMs6_NtCs3aqnWZMHlPP_5lb_l78h1_proxyNtB9_7H1Proxy14proxy_h1_to_h30s2_0Bb_
FN:2271,_RNCNCNvMs6_NtCs3aqnWZMHlPP_5lb_l78h1_proxyNtB9_7H1Proxy14proxy_h1_to_h30s_0Bb_
FN:2436,_RNCNCNvMs6_NtCs3aqnWZMHlPP_5lb_l78h1_proxyNtB9_7H1Proxy17handle_ws_upgrade00Bb_
FN:2509,_RNCNCNvMs6_NtCs3aqnWZMHlPP_5lb_l78h1_proxyNtB9_7H1Proxy17handle_ws_upgrade0s0_0Bb_
FN:2510,_RNCNCNvMs6_NtCs3aqnWZMHlPP_5lb_l78h1_proxyNtB9_7H1Proxy17handle_ws_upgrade0s1_0Bb_
FN:2512,_RNCNCNvMs6_NtCs3aqnWZMHlPP_5lb_l78h1_proxyNtB9_7H1Proxy17handle_ws_upgrade0s2_0Bb_
FN:2513,_RNCNCNvMs6_NtCs3aqnWZMHlPP_5lb_l78h1_proxyNtB9_7H1Proxy17handle_ws_upgrade0s3_0Bb_
FN:2524,_RNCNCNvMs6_NtCs3aqnWZMHlPP_5lb_l78h1_proxyNtB9_7H1Proxy17handle_ws_upgrade0s5_0Bb_
FN:2440,_RNCNCNvMs6_NtCs3aqnWZMHlPP_5lb_l78h1_proxyNtB9_7H1Proxy17handle_ws_upgrade0s_0Bb_
FN:1764,_RNCNCNvMs6_NtCs3aqnWZMHlPP_5lb_l78h1_proxyNtB9_7H1Proxy22proxy_h1_to_h2_request00Bb_
FN:1807,_RNCNCNvMs6_NtCs3aqnWZMHlPP_5lb_l78h1_proxyNtB9_7H1Proxy22proxy_h1_to_h2_request0s0_0Bb_
FN:1816,_RNCNCNvMs6_NtCs3aqnWZMHlPP_5lb_l78h1_proxyNtB9_7H1Proxy22proxy_h1_to_h2_request0s1_0Bb_
FN:1838,_RNCNCNvMs6_NtCs3aqnWZMHlPP_5lb_l78h1_proxyNtB9_7H1Proxy22proxy_h1_to_h2_request0s2_0Bb_
FN:1782,_RNCNCNvMs6_NtCs3aqnWZMHlPP_5lb_l78h1_proxyNtB9_7H1Proxy22proxy_h1_to_h2_request0s_0Bb_
FN:2589,_RNCNCNvNtCs3aqnWZMHlPP_5lb_l78h1_proxy16dial_upstream_ws00B7_
FN:2596,_RNCNCNvNtCs3aqnWZMHlPP_5lb_l78h1_proxy16dial_upstream_ws0s0_0B7_
FN:2624,_RNCNCNvNtCs3aqnWZMHlPP_5lb_l78h1_proxy16dial_upstream_ws0s1_0B7_
FN:2592,_RNCNCNvNtCs3aqnWZMHlPP_5lb_l78h1_proxy16dial_upstream_ws0s_0B7_
FN:3183,_RNCNCNvNtCs3aqnWZMHlPP_5lb_l78h1_proxy24build_h1_to_h3_fieldlists1_00B7_
FN:2830,_RNCNCNvNtCs3aqnWZMHlPP_5lb_l78h1_proxy29build_h1_to_h2_upstream_partss_00B7_
FN:880,_RNCNvMs6_NtCs3aqnWZMHlPP_5lb_l78h1_proxyNtB7_7H1Proxy12handle_inner0B9_
FN:1200,_RNCNvMs6_NtCs3aqnWZMHlPP_5lb_l78h1_proxyNtB7_7H1Proxy13proxy_request0B9_
FN:2037,_RNCNvMs6_NtCs3aqnWZMHlPP_5lb_l78h1_proxyNtB7_7H1Proxy14proxy_h1_to_h20B9_
FN:2104,_RNCNvMs6_NtCs3aqnWZMHlPP_5lb_l78h1_proxyNtB7_7H1Proxy14proxy_h1_to_h30B9_
FN:2543,_RNCNvMs6_NtCs3aqnWZMHlPP_5lb_l78h1_proxyNtB7_7H1Proxy17finalize_response0B9_
FN:2413,_RNCNvMs6_NtCs3aqnWZMHlPP_5lb_l78h1_proxyNtB7_7H1Proxy17handle_ws_upgrade0B9_
FN:1678,_RNCNvMs6_NtCs3aqnWZMHlPP_5lb_l78h1_proxyNtB7_7H1Proxy22proxy_h1_to_h2_request0B9_
FN:847,_RNCNvMs6_NtCs3aqnWZMHlPP_5lb_l78h1_proxyNtB7_7H1Proxy6handle0B9_
FN:2582,_RNCNvNtCs3aqnWZMHlPP_5lb_l78h1_proxy16dial_upstream_ws0B5_
FN:2704,_RNCNvNtCs3aqnWZMHlPP_5lb_l78h1_proxy16strip_hop_by_hop0B5_
FN:2707,_RNCNvNtCs3aqnWZMHlPP_5lb_l78h1_proxy16strip_hop_by_hops0_0B5_
FN:2708,_RNCNvNtCs3aqnWZMHlPP_5lb_l78h1_proxy16strip_hop_by_hops1_0B5_
FN:2705,_RNCNvNtCs3aqnWZMHlPP_5lb_l78h1_proxy16strip_hop_by_hops_0B5_
FN:2637,_RNCNvNtCs3aqnWZMHlPP_5lb_l78h1_proxy21run_h1_ws_splice_task0B5_
FN:3055,_RNCNvNtCs3aqnWZMHlPP_5lb_l78h1_proxy23upstream_response_to_h10B5_
FN:3058,_RNCNvNtCs3aqnWZMHlPP_5lb_l78h1_proxy23upstream_response_to_h1s_0B5_
FN:3166,_RNCNvNtCs3aqnWZMHlPP_5lb_l78h1_proxy24build_h1_to_h3_fieldlist0B5_
FN:3175,_RNCNvNtCs3aqnWZMHlPP_5lb_l78h1_proxy24build_h1_to_h3_fieldlists0_0B5_
FN:3180,_RNCNvNtCs3aqnWZMHlPP_5lb_l78h1_proxy24build_h1_to_h3_fieldlists1_0B5_
FN:3187,_RNCNvNtCs3aqnWZMHlPP_5lb_l78h1_proxy24build_h1_to_h3_fieldlists2_0B5_
FN:3200,_RNCNvNtCs3aqnWZMHlPP_5lb_l78h1_proxy24build_h1_to_h3_fieldlists3_0B5_
FN:3204,_RNCNvNtCs3aqnWZMHlPP_5lb_l78h1_proxy24build_h1_to_h3_fieldlists4_0B5_
FN:3167,_RNCNvNtCs3aqnWZMHlPP_5lb_l78h1_proxy24build_h1_to_h3_fieldlists_0B5_
FN:2947,_RNCNvNtCs3aqnWZMHlPP_5lb_l78h1_proxy27build_h1_streaming_response0B5_
FN:177,_RNCNvNtCs3aqnWZMHlPP_5lb_l78h1_proxy28validate_h1_request_trailers0B5_
FN:2823,_RNCNvNtCs3aqnWZMHlPP_5lb_l78h1_proxy29build_h1_to_h2_upstream_parts0B5_
FN:2839,_RNCNvNtCs3aqnWZMHlPP_5lb_l78h1_proxy29build_h1_to_h2_upstream_partss0_0B5_
FN:2845,_RNCNvNtCs3aqnWZMHlPP_5lb_l78h1_proxy29build_h1_to_h2_upstream_partss1_0B5_
FN:2846,_RNCNvNtCs3aqnWZMHlPP_5lb_l78h1_proxy29build_h1_to_h2_upstream_partss2_0B5_
FN:2847,_RNCNvNtCs3aqnWZMHlPP_5lb_l78h1_proxy29build_h1_to_h2_upstream_partss3_0B5_
FN:2869,_RNCNvNtCs3aqnWZMHlPP_5lb_l78h1_proxy29build_h1_to_h2_upstream_partss4_0B5_
FN:2827,_RNCNvNtCs3aqnWZMHlPP_5lb_l78h1_proxy29build_h1_to_h2_upstream_partss_0B5_
FN:3121,_RNCNvNtCs3aqnWZMHlPP_5lb_l78h1_proxy31build_h1_response_with_trailers0B5_
FN:3144,_RNCNvNtCs3aqnWZMHlPP_5lb_l78h1_proxy31build_h1_response_with_trailerss0_0B5_
FN:3142,_RNCNvNtCs3aqnWZMHlPP_5lb_l78h1_proxy31build_h1_response_with_trailerss_0B5_
FN:806,_RNCNvXs5_NtCs3aqnWZMHlPP_5lb_l78h1_proxyNtB7_12ProxyServiceINtNtNtCsgB3dp6qvXvn_5hyper7service7service7ServiceINtNtCsjFxw70quGA5_4http7request7RequestNtNtNtB12_4body8incoming8IncomingEE4call0B9_
FN:201,_RNvMs0_NtCs3aqnWZMHlPP_5lb_l78h1_proxyNtB5_12AltSvcConfig12header_value
FN:278,_RNvMs2_NtCs3aqnWZMHlPP_5lb_l78h1_proxyNtB5_15RoundRobinAddrs3new
FN:468,_RNvMs4_NtCs3aqnWZMHlPP_5lb_l78h1_proxyNtB5_7H1Proxy10with_hooks
FN:483,_RNvMs4_NtCs3aqnWZMHlPP_5lb_l78h1_proxyNtB5_7H1Proxy13with_watchdog
FN:576,_RNvMs4_NtCs3aqnWZMHlPP_5lb_l78h1_proxyNtB5_7H1Proxy14with_websocket
FN:541,_RNvMs4_NtCs3aqnWZMHlPP_5lb_l78h1_proxyNtB5_7H1Proxy15has_h2_upstream
FN:548,_RNvMs4_NtCs3aqnWZMHlPP_5lb_l78h1_proxyNtB5_7H1Proxy15has_h3_upstream
FN:524,_RNvMs4_NtCs3aqnWZMHlPP_5lb_l78h1_proxyNtB5_7H1Proxy16with_h2_upstream
FN:532,_RNvMs4_NtCs3aqnWZMHlPP_5lb_l78h1_proxyNtB5_7H1Proxy16with_h3_upstream
FN:431,_RNvMs4_NtCs3aqnWZMHlPP_5lb_l78h1_proxyNtB5_7H1Proxy16with_multi_proto
FN:516,_RNvMs4_NtCs3aqnWZMHlPP_5lb_l78h1_proxyNtB5_7H1Proxy17with_expected_sni
FN:493,_RNvMs4_NtCs3aqnWZMHlPP_5lb_l78h1_proxyNtB5_7H1Proxy19with_smuggle_strict
FN:557,_RNvMs4_NtCs3aqnWZMHlPP_5lb_l78h1_proxyNtB5_7H1Proxy27with_max_keepalive_requests
FN:504,_RNvMs4_NtCs3aqnWZMHlPP_5lb_l78h1_proxyNtB5_7H1Proxy29with_header_underscore_policy
FN:567,_RNvMs4_NtCs3aqnWZMHlPP_5lb_l78h1_proxyNtB5_7H1Proxy33keepalive_cap_termination_counter
FN:387,_RNvMs4_NtCs3aqnWZMHlPP_5lb_l78h1_proxyNtB5_7H1Proxy3new
FN:874,_RNvMs6_NtCs3aqnWZMHlPP_5lb_l78h1_proxyNtB5_7H1Proxy12handle_inner
FN:1196,_RNvMs6_NtCs3aqnWZMHlPP_5lb_l78h1_proxyNtB5_7H1Proxy13proxy_request
FN:2033,_RNvMs6_NtCs3aqnWZMHlPP_5lb_l78h1_proxyNtB5_7H1Proxy14proxy_h1_to_h2
FN:2100,_RNvMs6_NtCs3aqnWZMHlPP_5lb_l78h1_proxyNtB5_7H1Proxy14proxy_h1_to_h3
FN:2529,_RNvMs6_NtCs3aqnWZMHlPP_5lb_l78h1_proxyNtB5_7H1Proxy17finalize_response
FN:2409,_RNvMs6_NtCs3aqnWZMHlPP_5lb_l78h1_proxyNtB5_7H1Proxy17handle_ws_upgrade
FN:1673,_RNvMs6_NtCs3aqnWZMHlPP_5lb_l78h1_proxyNtB5_7H1Proxy22proxy_h1_to_h2_request
FN:842,_RNvMs6_NtCs3aqnWZMHlPP_5lb_l78h1_proxyNtB5_7H1Proxy6handle
FN:2772,_RNvNtCs3aqnWZMHlPP_5lb_l78h1_proxy10append_via
FN:2732,_RNvNtCs3aqnWZMHlPP_5lb_l78h1_proxy10append_xff
FN:2654,_RNvNtCs3aqnWZMHlPP_5lb_l78h1_proxy14error_response
FN:2893,_RNvNtCs3aqnWZMHlPP_5lb_l78h1_proxy16concat_h1_chunks
FN:2574,_RNvNtCs3aqnWZMHlPP_5lb_l78h1_proxy16dial_upstream_ws
FN:2698,_RNvNtCs3aqnWZMHlPP_5lb_l78h1_proxy16strip_hop_by_hop
FN:2879,_RNvNtCs3aqnWZMHlPP_5lb_l78h1_proxy18h1_to_h2_proxy_err
FN:3241,_RNvNtCs3aqnWZMHlPP_5lb_l78h1_proxy18record_retained_h1
FN:2678,_RNvNtCs3aqnWZMHlPP_5lb_l78h1_proxy18reject_to_response
FN:2633,_RNvNtCs3aqnWZMHlPP_5lb_l78h1_proxy21run_h1_ws_splice_task
FN:3019,_RNvNtCs3aqnWZMHlPP_5lb_l78h1_proxy23upstream_response_to_h1
FN:2955,_RNvNtCs3aqnWZMHlPP_5lb_l78h1_proxy24build_body_with_trailers
FN:3158,_RNvNtCs3aqnWZMHlPP_5lb_l78h1_proxy24build_h1_to_h3_fieldlist
FN:2943,_RNvNtCs3aqnWZMHlPP_5lb_l78h1_proxy27build_h1_streaming_response
FN:2917,_RNvNtCs3aqnWZMHlPP_5lb_l78h1_proxy28h3_decoded_resp_head_builder
FN:166,_RNvNtCs3aqnWZMHlPP_5lb_l78h1_proxy28validate_h1_request_trailers
FN:2814,_RNvNtCs3aqnWZMHlPP_5lb_l78h1_proxy29build_h1_to_h2_upstream_parts
FN:3085,_RNvNtCs3aqnWZMHlPP_5lb_l78h1_proxy31build_h1_response_with_trailers
FN:2761,_RNvNtCs3aqnWZMHlPP_5lb_l78h1_proxy7set_xfh
FN:2753,_RNvNtCs3aqnWZMHlPP_5lb_l78h1_proxy7set_xfp
FN:141,_RNvXNtCs3aqnWZMHlPP_5lb_l78h1_proxyNtB2_11H1PumpAbortNtNtCs2va5m0jqTTM_4core3fmt7Display3fmt
FN:227,_RNvXs1_NtCs3aqnWZMHlPP_5lb_l78h1_proxyNtB5_12HttpTimeoutsNtNtCs2va5m0jqTTM_4core7default7Default7default
FN:290,_RNvXs3_NtCs3aqnWZMHlPP_5lb_l78h1_proxyNtB5_15RoundRobinAddrsNtB5_13BackendPicker4pick
FN:791,_RNvXs5_NtCs3aqnWZMHlPP_5lb_l78h1_proxyNtB5_12ProxyServiceINtNtNtCsgB3dp6qvXvn_5hyper7service7service7ServiceINtNtCsjFxw70quGA5_4http7request7RequestNtNtNtB10_4body8incoming8IncomingEE4call
FN:594,_RINvMs4_NtCs3aqnWZMHlPP_5lb_l78h1_proxyNtB6_7H1Proxy16serve_connectionpEB8_
FN:629,_RINvMs4_NtCs3aqnWZMHlPP_5lb_l78h1_proxyNtB6_7H1Proxy28serve_connection_with_cancelpEB8_
FN:660,_RINvMs4_NtCs3aqnWZMHlPP_5lb_l78h1_proxyNtB6_7H1Proxy32serve_connection_with_cancel_snipEB8_
FN:597,_RNCINvMs4_NtCs3aqnWZMHlPP_5lb_l78h1_proxyNtB8_7H1Proxy16serve_connectionpE0Ba_
FN:637,_RNCINvMs4_NtCs3aqnWZMHlPP_5lb_l78h1_proxyNtB8_7H1Proxy28serve_connection_with_cancelpE0Ba_
FN:669,_RNCINvMs4_NtCs3aqnWZMHlPP_5lb_l78h1_proxyNtB8_7H1Proxy32serve_connection_with_cancel_snipE0Ba_
FN:629,_RINvMs4_NtCs3aqnWZMHlPP_5lb_l78h1_proxyNtB6_7H1Proxy28serve_connection_with_cancelNtNtNtNtCsfWKKmeeA0Vo_5tokio3net3tcp6stream9TcpStreamECs4A7o14EwR5Q_14expressgateway
FN:660,_RINvMs4_NtCs3aqnWZMHlPP_5lb_l78h1_proxyNtB6_7H1Proxy32serve_connection_with_cancel_sniINtNtCs7m3feRqGqA4_12tokio_rustls6server9TlsStreamNtNtNtNtCsfWKKmeeA0Vo_5tokio3net3tcp6stream9TcpStreamEECs4A7o14EwR5Q_14expressgateway
FN:660,_RINvMs4_NtCs3aqnWZMHlPP_5lb_l78h1_proxyNtB6_7H1Proxy32serve_connection_with_cancel_sniNtNtNtNtCsfWKKmeeA0Vo_5tokio3net3tcp6stream9TcpStreamECs4A7o14EwR5Q_14expressgateway
FN:637,_RNCINvMs4_NtCs3aqnWZMHlPP_5lb_l78h1_proxyNtB8_7H1Proxy28serve_connection_with_cancelNtNtNtNtCsfWKKmeeA0Vo_5tokio3net3tcp6stream9TcpStreamE0Cs4A7o14EwR5Q_14expressgateway
FN:669,_RNCINvMs4_NtCs3aqnWZMHlPP_5lb_l78h1_proxyNtB8_7H1Proxy32serve_connection_with_cancel_sniINtNtCs7m3feRqGqA4_12tokio_rustls6server9TlsStreamNtNtNtNtCsfWKKmeeA0Vo_5tokio3net3tcp6stream9TcpStreamEE0Cs4A7o14EwR5Q_14expressgateway
FN:669,_RNCINvMs4_NtCs3aqnWZMHlPP_5lb_l78h1_proxyNtB8_7H1Proxy32serve_connection_with_cancel_sniNtNtNtNtCsfWKKmeeA0Vo_5tokio3net3tcp6stream9TcpStreamE0Cs4A7o14EwR5Q_14expressgateway
FN:594,_RINvMs4_NtCs3aqnWZMHlPP_5lb_l78h1_proxyNtB6_7H1Proxy16serve_connectionINtNtCs7m3feRqGqA4_12tokio_rustls6server9TlsStreamNtNtNtNtCsfWKKmeeA0Vo_5tokio3net3tcp6stream9TcpStreamEECs2Los8BPxBk6_12h1_proxy_e2e
FN:594,_RINvMs4_NtCs3aqnWZMHlPP_5lb_l78h1_proxyNtB6_7H1Proxy16serve_connectionNtNtNtNtCsfWKKmeeA0Vo_5tokio3net3tcp6stream9TcpStreamECs2Los8BPxBk6_12h1_proxy_e2e
FN:629,_RINvMs4_NtCs3aqnWZMHlPP_5lb_l78h1_proxyNtB6_7H1Proxy28serve_connection_with_cancelINtNtCs7m3feRqGqA4_12tokio_rustls6server9TlsStreamNtNtNtNtCsfWKKmeeA0Vo_5tokio3net3tcp6stream9TcpStreamEECs2Los8BPxBk6_12h1_proxy_e2e
FN:629,_RINvMs4_NtCs3aqnWZMHlPP_5lb_l78h1_proxyNtB6_7H1Proxy28serve_connection_with_cancelNtNtNtNtCsfWKKmeeA0Vo_5tokio3net3tcp6stream9TcpStreamECs2Los8BPxBk6_12h1_proxy_e2e
FN:660,_RINvMs4_NtCs3aqnWZMHlPP_5lb_l78h1_proxyNtB6_7H1Proxy32serve_connection_with_cancel_sniINtNtCs7m3feRqGqA4_12tokio_rustls6server9TlsStreamNtNtNtNtCsfWKKmeeA0Vo_5tokio3net3tcp6stream9TcpStreamEECs2Los8BPxBk6_12h1_proxy_e2e
FN:660,_RINvMs4_NtCs3aqnWZMHlPP_5lb_l78h1_proxyNtB6_7H1Proxy32serve_connection_with_cancel_sniNtNtNtNtCsfWKKmeeA0Vo_5tokio3net3tcp6stream9TcpStreamECs2Los8BPxBk6_12h1_proxy_e2e
FN:597,_RNCINvMs4_NtCs3aqnWZMHlPP_5lb_l78h1_proxyNtB8_7H1Proxy16serve_connectionINtNtCs7m3feRqGqA4_12tokio_rustls6server9TlsStreamNtNtNtNtCsfWKKmeeA0Vo_5tokio3net3tcp6stream9TcpStreamEE0Cs2Los8BPxBk6_12h1_proxy_e2e
FN:597,_RNCINvMs4_NtCs3aqnWZMHlPP_5lb_l78h1_proxyNtB8_7H1Proxy16serve_connectionNtNtNtNtCsfWKKmeeA0Vo_5tokio3net3tcp6stream9TcpStreamE0Cs2Los8BPxBk6_12h1_proxy_e2e
FN:637,_RNCINvMs4_NtCs3aqnWZMHlPP_5lb_l78h1_proxyNtB8_7H1Proxy28serve_connection_with_cancelINtNtCs7m3feRqGqA4_12tokio_rustls6server9TlsStreamNtNtNtNtCsfWKKmeeA0Vo_5tokio3net3tcp6stream9TcpStreamEE0Cs2Los8BPxBk6_12h1_proxy_e2e
FN:637,_RNCINvMs4_NtCs3aqnWZMHlPP_5lb_l78h1_proxyNtB8_7H1Proxy28serve_connection_with_cancelNtNtNtNtCsfWKKmeeA0Vo_5tokio3net3tcp6stream9TcpStreamE0Cs2Los8BPxBk6_12h1_proxy_e2e
FN:669,_RNCINvMs4_NtCs3aqnWZMHlPP_5lb_l78h1_proxyNtB8_7H1Proxy32serve_connection_with_cancel_sniINtNtCs7m3feRqGqA4_12tokio_rustls6server9TlsStreamNtNtNtNtCsfWKKmeeA0Vo_5tokio3net3tcp6stream9TcpStreamEE0Cs2Los8BPxBk6_12h1_proxy_e2e
FN:669,_RNCINvMs4_NtCs3aqnWZMHlPP_5lb_l78h1_proxyNtB8_7H1Proxy32serve_connection_with_cancel_sniNtNtNtNtCsfWKKmeeA0Vo_5tokio3net3tcp6stream9TcpStreamE0Cs2Los8BPxBk6_12h1_proxy_e2e
FN:594,_RINvMs4_NtCs3aqnWZMHlPP_5lb_l78h1_proxyNtB6_7H1Proxy16serve_connectionNtNtNtNtCsfWKKmeeA0Vo_5tokio3net3tcp6stream9TcpStreamECsk5lUp1PCKZu_15h1_rejects_grpc
FN:629,_RINvMs4_NtCs3aqnWZMHlPP_5lb_l78h1_proxyNtB6_7H1Proxy28serve_connection_with_cancelNtNtNtNtCsfWKKmeeA0Vo_5tokio3net3tcp6stream9TcpStreamECsk5lUp1PCKZu_15h1_rejects_grpc
FN:660,_RINvMs4_NtCs3aqnWZMHlPP_5lb_l78h1_proxyNtB6_7H1Proxy32serve_connection_with_cancel_sniNtNtNtNtCsfWKKmeeA0Vo_5tokio3net3tcp6stream9TcpStreamECsk5lUp1PCKZu_15h1_rejects_grpc
FN:597,_RNCINvMs4_NtCs3aqnWZMHlPP_5lb_l78h1_proxyNtB8_7H1Proxy16serve_connectionNtNtNtNtCsfWKKmeeA0Vo_5tokio3net3tcp6stream9TcpStreamE0Csk5lUp1PCKZu_15h1_rejects_grpc
FN:637,_RNCINvMs4_NtCs3aqnWZMHlPP_5lb_l78h1_proxyNtB8_7H1Proxy28serve_connection_with_cancelNtNtNtNtCsfWKKmeeA0Vo_5tokio3net3tcp6stream9TcpStreamE0Csk5lUp1PCKZu_15h1_rejects_grpc
FN:669,_RNCINvMs4_NtCs3aqnWZMHlPP_5lb_l78h1_proxyNtB8_7H1Proxy32serve_connection_with_cancel_sniNtNtNtNtCsfWKKmeeA0Vo_5tokio3net3tcp6stream9TcpStreamE0Csk5lUp1PCKZu_15h1_rejects_grpc
FN:594,_RINvMs4_NtCs3aqnWZMHlPP_5lb_l78h1_proxyNtB6_7H1Proxy16serve_connectionNtNtNtNtCsfWKKmeeA0Vo_5tokio3net3tcp6stream9TcpStreamECs9DdTxILyqAS_24h1h1_md_streaming_verify
FN:629,_RINvMs4_NtCs3aqnWZMHlPP_5lb_l78h1_proxyNtB6_7H1Proxy28serve_connection_with_cancelNtNtNtNtCsfWKKmeeA0Vo_5tokio3net3tcp6stream9TcpStreamECs9DdTxILyqAS_24h1h1_md_streaming_verify
FN:660,_RINvMs4_NtCs3aqnWZMHlPP_5lb_l78h1_proxyNtB6_7H1Proxy32serve_connection_with_cancel_sniNtNtNtNtCsfWKKmeeA0Vo_5tokio3net3tcp6stream9TcpStreamECs9DdTxILyqAS_24h1h1_md_streaming_verify
FN:597,_RNCINvMs4_NtCs3aqnWZMHlPP_5lb_l78h1_proxyNtB8_7H1Proxy16serve_connectionNtNtNtNtCsfWKKmeeA0Vo_5tokio3net3tcp6stream9TcpStreamE0Cs9DdTxILyqAS_24h1h1_md_streaming_verify
FN:637,_RNCINvMs4_NtCs3aqnWZMHlPP_5lb_l78h1_proxyNtB8_7H1Proxy28serve_connection_with_cancelNtNtNtNtCsfWKKmeeA0Vo_5tokio3net3tcp6stream9TcpStreamE0Cs9DdTxILyqAS_24h1h1_md_streaming_verify
FN:669,_RNCINvMs4_NtCs3aqnWZMHlPP_5lb_l78h1_proxyNtB8_7H1Proxy32serve_connection_with_cancel_sniNtNtNtNtCsfWKKmeeA0Vo_5tokio3net3tcp6stream9TcpStreamE0Cs9DdTxILyqAS_24h1h1_md_streaming_verify
FN:594,_RINvMs4_NtCs3aqnWZMHlPP_5lb_l78h1_proxyNtB6_7H1Proxy16serve_connectionNtNtNtNtCsfWKKmeeA0Vo_5tokio3net3tcp6stream9TcpStreamECs1RnlujWy43g_24h1h2_md_streaming_verify
FN:629,_RINvMs4_NtCs3aqnWZMHlPP_5lb_l78h1_proxyNtB6_7H1Proxy28serve_connection_with_cancelNtNtNtNtCsfWKKmeeA0Vo_5tokio3net3tcp6stream9TcpStreamECs1RnlujWy43g_24h1h2_md_streaming_verify
FN:660,_RINvMs4_NtCs3aqnWZMHlPP_5lb_l78h1_proxyNtB6_7H1Proxy32serve_connection_with_cancel_sniNtNtNtNtCsfWKKmeeA0Vo_5tokio3net3tcp6stream9TcpStreamECs1RnlujWy43g_24h1h2_md_streaming_verify
FN:597,_RNCINvMs4_NtCs3aqnWZMHlPP_5lb_l78h1_proxyNtB8_7H1Proxy16serve_connectionNtNtNtNtCsfWKKmeeA0Vo_5tokio3net3tcp6stream9TcpStreamE0Cs1RnlujWy43g_24h1h2_md_streaming_verify
FN:637,_RNCINvMs4_NtCs3aqnWZMHlPP_5lb_l78h1_proxyNtB8_7H1Proxy28serve_connection_with_cancelNtNtNtNtCsfWKKmeeA0Vo_5tokio3net3tcp6stream9TcpStreamE0Cs1RnlujWy43g_24h1h2_md_streaming_verify
FN:669,_RNCINvMs4_NtCs3aqnWZMHlPP_5lb_l78h1_proxyNtB8_7H1Proxy32serve_connection_with_cancel_sniNtNtNtNtCsfWKKmeeA0Vo_5tokio3net3tcp6stream9TcpStreamE0Cs1RnlujWy43g_24h1h2_md_streaming_verify
FN:594,_RINvMs4_NtCs3aqnWZMHlPP_5lb_l78h1_proxyNtB6_7H1Proxy16serve_connectionNtNtNtNtCsfWKKmeeA0Vo_5tokio3net3tcp6stream9TcpStreamECsk3juxYwSjed_26h1h2_resp_streaming_verify
FN:629,_RINvMs4_NtCs3aqnWZMHlPP_5lb_l78h1_proxyNtB6_7H1Proxy28serve_connection_with_cancelNtNtNtNtCsfWKKmeeA0Vo_5tokio3net3tcp6stream9TcpStreamECsk3juxYwSjed_26h1h2_resp_streaming_verify
FN:660,_RINvMs4_NtCs3aqnWZMHlPP_5lb_l78h1_proxyNtB6_7H1Proxy32serve_connection_with_cancel_sniNtNtNtNtCsfWKKmeeA0Vo_5tokio3net3tcp6stream9TcpStreamECsk3juxYwSjed_26h1h2_resp_streaming_verify
FN:597,_RNCINvMs4_NtCs3aqnWZMHlPP_5lb_l78h1_proxyNtB8_7H1Proxy16serve_connectionNtNtNtNtCsfWKKmeeA0Vo_5tokio3net3tcp6stream9TcpStreamE0Csk3juxYwSjed_26h1h2_resp_streaming_verify
FN:637,_RNCINvMs4_NtCs3aqnWZMHlPP_5lb_l78h1_proxyNtB8_7H1Proxy28serve_connection_with_cancelNtNtNtNtCsfWKKmeeA0Vo_5tokio3net3tcp6stream9TcpStreamE0Csk3juxYwSjed_26h1h2_resp_streaming_verify
FN:669,_RNCINvMs4_NtCs3aqnWZMHlPP_5lb_l78h1_proxyNtB8_7H1Proxy32serve_connection_with_cancel_sniNtNtNtNtCsfWKKmeeA0Vo_5tokio3net3tcp6stream9TcpStreamE0Csk3juxYwSjed_26h1h2_resp_streaming_verify
FN:594,_RINvMs4_NtCs3aqnWZMHlPP_5lb_l78h1_proxyNtB6_7H1Proxy16serve_connectionNtNtNtNtCsfWKKmeeA0Vo_5tokio3net3tcp6stream9TcpStreamECs1xZhjmtST83_24h1h3_md_streaming_verify
FN:629,_RINvMs4_NtCs3aqnWZMHlPP_5lb_l78h1_proxyNtB6_7H1Proxy28serve_connection_with_cancelNtNtNtNtCsfWKKmeeA0Vo_5tokio3net3tcp6stream9TcpStreamECs1xZhjmtST83_24h1h3_md_streaming_verify
FN:660,_RINvMs4_NtCs3aqnWZMHlPP_5lb_l78h1_proxyNtB6_7H1Proxy32serve_connection_with_cancel_sniNtNtNtNtCsfWKKmeeA0Vo_5tokio3net3tcp6stream9TcpStreamECs1xZhjmtST83_24h1h3_md_streaming_verify
FN:597,_RNCINvMs4_NtCs3aqnWZMHlPP_5lb_l78h1_proxyNtB8_7H1Proxy16serve_connectionNtNtNtNtCsfWKKmeeA0Vo_5tokio3net3tcp6stream9TcpStreamE0Cs1xZhjmtST83_24h1h3_md_streaming_verify
FN:637,_RNCINvMs4_NtCs3aqnWZMHlPP_5lb_l78h1_proxyNtB8_7H1Proxy28serve_connection_with_cancelNtNtNtNtCsfWKKmeeA0Vo_5tokio3net3tcp6stream9TcpStreamE0Cs1xZhjmtST83_24h1h3_md_streaming_verify
FN:669,_RNCINvMs4_NtCs3aqnWZMHlPP_5lb_l78h1_proxyNtB8_7H1Proxy32serve_connection_with_cancel_sniNtNtNtNtCsfWKKmeeA0Vo_5tokio3net3tcp6stream9TcpStreamE0Cs1xZhjmtST83_24h1h3_md_streaming_verify
FN:594,_RINvMs4_NtCs3aqnWZMHlPP_5lb_l78h1_proxyNtB6_7H1Proxy16serve_connectionINtNtCs7m3feRqGqA4_12tokio_rustls6server9TlsStreamNtNtNtNtCsfWKKmeeA0Vo_5tokio3net3tcp6stream9TcpStreamEECsbvYgQnCQya0_12h2_proxy_e2e
FN:629,_RINvMs4_NtCs3aqnWZMHlPP_5lb_l78h1_proxyNtB6_7H1Proxy28serve_connection_with_cancelINtNtCs7m3feRqGqA4_12tokio_rustls6server9TlsStreamNtNtNtNtCsfWKKmeeA0Vo_5tokio3net3tcp6stream9TcpStreamEECsbvYgQnCQya0_12h2_proxy_e2e
FN:660,_RINvMs4_NtCs3aqnWZMHlPP_5lb_l78h1_proxyNtB6_7H1Proxy32serve_connection_with_cancel_sniINtNtCs7m3feRqGqA4_12tokio_rustls6server9TlsStreamNtNtNtNtCsfWKKmeeA0Vo_5tokio3net3tcp6stream9TcpStreamEECsbvYgQnCQya0_12h2_proxy_e2e
FN:597,_RNCINvMs4_NtCs3aqnWZMHlPP_5lb_l78h1_proxyNtB8_7H1Proxy16serve_connectionINtNtCs7m3feRqGqA4_12tokio_rustls6server9TlsStreamNtNtNtNtCsfWKKmeeA0Vo_5tokio3net3tcp6stream9TcpStreamEE0CsbvYgQnCQya0_12h2_proxy_e2e
FN:637,_RNCINvMs4_NtCs3aqnWZMHlPP_5lb_l78h1_proxyNtB8_7H1Proxy28serve_connection_with_cancelINtNtCs7m3feRqGqA4_12tokio_rustls6server9TlsStreamNtNtNtNtCsfWKKmeeA0Vo_5tokio3net3tcp6stream9TcpStreamEE0CsbvYgQnCQya0_12h2_proxy_e2e
FN:669,_RNCINvMs4_NtCs3aqnWZMHlPP_5lb_l78h1_proxyNtB8_7H1Proxy32serve_connection_with_cancel_sniINtNtCs7m3feRqGqA4_12tokio_rustls6server9TlsStreamNtNtNtNtCsfWKKmeeA0Vo_5tokio3net3tcp6stream9TcpStreamEE0CsbvYgQnCQya0_12h2_proxy_e2e
FN:594,_RINvMs4_NtCs3aqnWZMHlPP_5lb_l78h1_proxyNtB6_7H1Proxy16serve_connectionINtNtCs7m3feRqGqA4_12tokio_rustls6server9TlsStreamNtNtNtNtCsfWKKmeeA0Vo_5tokio3net3tcp6stream9TcpStreamEECsfEnSCCpOUPN_32h2_rapid_reset_goaway_under_load
FN:629,_RINvMs4_NtCs3aqnWZMHlPP_5lb_l78h1_proxyNtB6_7H1Proxy28serve_connection_with_cancelINtNtCs7m3feRqGqA4_12tokio_rustls6server9TlsStreamNtNtNtNtCsfWKKmeeA0Vo_5tokio3net3tcp6stream9TcpStreamEECsfEnSCCpOUPN_32h2_rapid_reset_goaway_under_load
FN:660,_RINvMs4_NtCs3aqnWZMHlPP_5lb_l78h1_proxyNtB6_7H1Proxy32serve_connection_with_cancel_sniINtNtCs7m3feRqGqA4_12tokio_rustls6server9TlsStreamNtNtNtNtCsfWKKmeeA0Vo_5tokio3net3tcp6stream9TcpStreamEECsfEnSCCpOUPN_32h2_rapid_reset_goaway_under_load
FN:597,_RNCINvMs4_NtCs3aqnWZMHlPP_5lb_l78h1_proxyNtB8_7H1Proxy16serve_connectionINtNtCs7m3feRqGqA4_12tokio_rustls6server9TlsStreamNtNtNtNtCsfWKKmeeA0Vo_5tokio3net3tcp6stream9TcpStreamEE0CsfEnSCCpOUPN_32h2_rapid_reset_goaway_under_load
FN:637,_RNCINvMs4_NtCs3aqnWZMHlPP_5lb_l78h1_proxyNtB8_7H1Proxy28serve_connection_with_cancelINtNtCs7m3feRqGqA4_12tokio_rustls6server9TlsStreamNtNtNtNtCsfWKKmeeA0Vo_5tokio3net3tcp6stream9TcpStreamEE0CsfEnSCCpOUPN_32h2_rapid_reset_goaway_under_load
FN:669,_RNCINvMs4_NtCs3aqnWZMHlPP_5lb_l78h1_proxyNtB8_7H1Proxy32serve_connection_with_cancel_sniINtNtCs7m3feRqGqA4_12tokio_rustls6server9TlsStreamNtNtNtNtCsfWKKmeeA0Vo_5tokio3net3tcp6stream9TcpStreamEE0CsfEnSCCpOUPN_32h2_rapid_reset_goaway_under_load
FN:594,_RINvMs4_NtCs3aqnWZMHlPP_5lb_l78h1_proxyNtB6_7H1Proxy16serve_connectionINtNtCs7m3feRqGqA4_12tokio_rustls6server9TlsStreamNtNtNtNtCsfWKKmeeA0Vo_5tokio3net3tcp6stream9TcpStreamEECs7HD0UuDdg5u_16h2_security_live
FN:629,_RINvMs4_NtCs3aqnWZMHlPP_5lb_l78h1_proxyNtB6_7H1Proxy28serve_connection_with_cancelINtNtCs7m3feRqGqA4_12tokio_rustls6server9TlsStreamNtNtNtNtCsfWKKmeeA0Vo_5tokio3net3tcp6stream9TcpStreamEECs7HD0UuDdg5u_16h2_security_live
FN:660,_RINvMs4_NtCs3aqnWZMHlPP_5lb_l78h1_proxyNtB6_7H1Proxy32serve_connection_with_cancel_sniINtNtCs7m3feRqGqA4_12tokio_rustls6server9TlsStreamNtNtNtNtCsfWKKmeeA0Vo_5tokio3net3tcp6stream9TcpStreamEECs7HD0UuDdg5u_16h2_security_live
FN:597,_RNCINvMs4_NtCs3aqnWZMHlPP_5lb_l78h1_proxyNtB8_7H1Proxy16serve_connectionINtNtCs7m3feRqGqA4_12tokio_rustls6server9TlsStreamNtNtNtNtCsfWKKmeeA0Vo_5tokio3net3tcp6stream9TcpStreamEE0Cs7HD0UuDdg5u_16h2_security_live
FN:637,_RNCINvMs4_NtCs3aqnWZMHlPP_5lb_l78h1_proxyNtB8_7H1Proxy28serve_connection_with_cancelINtNtCs7m3feRqGqA4_12tokio_rustls6server9TlsStreamNtNtNtNtCsfWKKmeeA0Vo_5tokio3net3tcp6stream9TcpStreamEE0Cs7HD0UuDdg5u_16h2_security_live
FN:669,_RNCINvMs4_NtCs3aqnWZMHlPP_5lb_l78h1_proxyNtB8_7H1Proxy32serve_connection_with_cancel_sniINtNtCs7m3feRqGqA4_12tokio_rustls6server9TlsStreamNtNtNtNtCsfWKKmeeA0Vo_5tokio3net3tcp6stream9TcpStreamEE0Cs7HD0UuDdg5u_16h2_security_live
FN:594,_RINvMs4_NtCs3aqnWZMHlPP_5lb_l78h1_proxyNtB6_7H1Proxy16serve_connectionINtNtCs7m3feRqGqA4_12tokio_rustls6server9TlsStreamNtNtNtNtCsfWKKmeeA0Vo_5tokio3net3tcp6stream9TcpStreamEECs9jX4mgcpFvg_28h2_validation_before_forward
FN:629,_RINvMs4_NtCs3aqnWZMHlPP_5lb_l78h1_proxyNtB6_7H1Proxy28serve_connection_with_cancelINtNtCs7m3feRqGqA4_12tokio_rustls6server9TlsStreamNtNtNtNtCsfWKKmeeA0Vo_5tokio3net3tcp6stream9TcpStreamEECs9jX4mgcpFvg_28h2_validation_before_forward
FN:660,_RINvMs4_NtCs3aqnWZMHlPP_5lb_l78h1_proxyNtB6_7H1Proxy32serve_connection_with_cancel_sniINtNtCs7m3feRqGqA4_12tokio_rustls6server9TlsStreamNtNtNtNtCsfWKKmeeA0Vo_5tokio3net3tcp6stream9TcpStreamEECs9jX4mgcpFvg_28h2_validation_before_forward
FN:597,_RNCINvMs4_NtCs3aqnWZMHlPP_5lb_l78h1_proxyNtB8_7H1Proxy16serve_connectionINtNtCs7m3feRqGqA4_12tokio_rustls6server9TlsStreamNtNtNtNtCsfWKKmeeA0Vo_5tokio3net3tcp6stream9TcpStreamEE0Cs9jX4mgcpFvg_28h2_validation_before_forward
FN:637,_RNCINvMs4_NtCs3aqnWZMHlPP_5lb_l78h1_proxyNtB8_7H1Proxy28serve_connection_with_cancelINtNtCs7m3feRqGqA4_12tokio_rustls6server9TlsStreamNtNtNtNtCsfWKKmeeA0Vo_5tokio3net3tcp6stream9TcpStreamEE0Cs9jX4mgcpFvg_28h2_validation_before_forward
FN:669,_RNCINvMs4_NtCs3aqnWZMHlPP_5lb_l78h1_proxyNtB8_7H1Proxy32serve_connection_with_cancel_sniINtNtCs7m3feRqGqA4_12tokio_rustls6server9TlsStreamNtNtNtNtCsfWKKmeeA0Vo_5tokio3net3tcp6stream9TcpStreamEE0Cs9jX4mgcpFvg_28h2_validation_before_forward
FN:594,_RINvMs4_NtCs3aqnWZMHlPP_5lb_l78h1_proxyNtB6_7H1Proxy16serve_connectionINtNtCs7m3feRqGqA4_12tokio_rustls6server9TlsStreamNtNtNtNtCsfWKKmeeA0Vo_5tokio3net3tcp6stream9TcpStreamEECskAzUiMFb0VD_23h2h1_md_coverage_driver
FN:629,_RINvMs4_NtCs3aqnWZMHlPP_5lb_l78h1_proxyNtB6_7H1Proxy28serve_connection_with_cancelINtNtCs7m3feRqGqA4_12tokio_rustls6server9TlsStreamNtNtNtNtCsfWKKmeeA0Vo_5tokio3net3tcp6stream9TcpStreamEECskAzUiMFb0VD_23h2h1_md_coverage_driver
FN:660,_RINvMs4_NtCs3aqnWZMHlPP_5lb_l78h1_proxyNtB6_7H1Proxy32serve_connection_with_cancel_sniINtNtCs7m3feRqGqA4_12tokio_rustls6server9TlsStreamNtNtNtNtCsfWKKmeeA0Vo_5tokio3net3tcp6stream9TcpStreamEECskAzUiMFb0VD_23h2h1_md_coverage_driver
FN:597,_RNCINvMs4_NtCs3aqnWZMHlPP_5lb_l78h1_proxyNtB8_7H1Proxy16serve_connectionINtNtCs7m3feRqGqA4_12tokio_rustls6server9TlsStreamNtNtNtNtCsfWKKmeeA0Vo_5tokio3net3tcp6stream9TcpStreamEE0CskAzUiMFb0VD_23h2h1_md_coverage_driver
FN:637,_RNCINvMs4_NtCs3aqnWZMHlPP_5lb_l78h1_proxyNtB8_7H1Proxy28serve_connection_with_cancelINtNtCs7m3feRqGqA4_12tokio_rustls6server9TlsStreamNtNtNtNtCsfWKKmeeA0Vo_5tokio3net3tcp6stream9TcpStreamEE0CskAzUiMFb0VD_23h2h1_md_coverage_driver
FN:669,_RNCINvMs4_NtCs3aqnWZMHlPP_5lb_l78h1_proxyNtB8_7H1Proxy32serve_connection_with_cancel_sniINtNtCs7m3feRqGqA4_12tokio_rustls6server9TlsStreamNtNtNtNtCsfWKKmeeA0Vo_5tokio3net3tcp6stream9TcpStreamEE0CskAzUiMFb0VD_23h2h1_md_coverage_driver
FN:594,_RINvMs4_NtCs3aqnWZMHlPP_5lb_l78h1_proxyNtB6_7H1Proxy16serve_connectionINtNtCs7m3feRqGqA4_12tokio_rustls6server9TlsStreamNtNtNtNtCsfWKKmeeA0Vo_5tokio3net3tcp6stream9TcpStreamEECsa8gk6GkwKFH_24h2h1_md_streaming_verify
FN:629,_RINvMs4_NtCs3aqnWZMHlPP_5lb_l78h1_proxyNtB6_7H1Proxy28serve_connection_with_cancelINtNtCs7m3feRqGqA4_12tokio_rustls6server9TlsStreamNtNtNtNtCsfWKKmeeA0Vo_5tokio3net3tcp6stream9TcpStreamEECsa8gk6GkwKFH_24h2h1_md_streaming_verify
FN:660,_RINvMs4_NtCs3aqnWZMHlPP_5lb_l78h1_proxyNtB6_7H1Proxy32serve_connection_with_cancel_sniINtNtCs7m3feRqGqA4_12tokio_rustls6server9TlsStreamNtNtNtNtCsfWKKmeeA0Vo_5tokio3net3tcp6stream9TcpStreamEECsa8gk6GkwKFH_24h2h1_md_streaming_verify
FN:597,_RNCINvMs4_NtCs3aqnWZMHlPP_5lb_l78h1_proxyNtB8_7H1Proxy16serve_connectionINtNtCs7m3feRqGqA4_12tokio_rustls6server9TlsStreamNtNtNtNtCsfWKKmeeA0Vo_5tokio3net3tcp6stream9TcpStreamEE0Csa8gk6GkwKFH_24h2h1_md_streaming_verify
FN:637,_RNCINvMs4_NtCs3aqnWZMHlPP_5lb_l78h1_proxyNtB8_7H1Proxy28serve_connection_with_cancelINtNtCs7m3feRqGqA4_12tokio_rustls6server9TlsStreamNtNtNtNtCsfWKKmeeA0Vo_5tokio3net3tcp6stream9TcpStreamEE0Csa8gk6GkwKFH_24h2h1_md_streaming_verify
FN:669,_RNCINvMs4_NtCs3aqnWZMHlPP_5lb_l78h1_proxyNtB8_7H1Proxy32serve_connection_with_cancel_sniINtNtCs7m3feRqGqA4_12tokio_rustls6server9TlsStreamNtNtNtNtCsfWKKmeeA0Vo_5tokio3net3tcp6stream9TcpStreamEE0Csa8gk6GkwKFH_24h2h1_md_streaming_verify
FN:594,_RINvMs4_NtCs3aqnWZMHlPP_5lb_l78h1_proxyNtB6_7H1Proxy16serve_connectionINtNtCs7m3feRqGqA4_12tokio_rustls6server9TlsStreamNtNtNtNtCsfWKKmeeA0Vo_5tokio3net3tcp6stream9TcpStreamEECs5pYL1P8yAXO_6h2spec
FN:629,_RINvMs4_NtCs3aqnWZMHlPP_5lb_l78h1_proxyNtB6_7H1Proxy28serve_connection_with_cancelINtNtCs7m3feRqGqA4_12tokio_rustls6server9TlsStreamNtNtNtNtCsfWKKmeeA0Vo_5tokio3net3tcp6stream9TcpStreamEECs5pYL1P8yAXO_6h2spec
FN:660,_RINvMs4_NtCs3aqnWZMHlPP_5lb_l78h1_proxyNtB6_7H1Proxy32serve_connection_with_cancel_sniINtNtCs7m3feRqGqA4_12tokio_rustls6server9TlsStreamNtNtNtNtCsfWKKmeeA0Vo_5tokio3net3tcp6stream9TcpStreamEECs5pYL1P8yAXO_6h2spec
FN:597,_RNCINvMs4_NtCs3aqnWZMHlPP_5lb_l78h1_proxyNtB8_7H1Proxy16serve_connectionINtNtCs7m3feRqGqA4_12tokio_rustls6server9TlsStreamNtNtNtNtCsfWKKmeeA0Vo_5tokio3net3tcp6stream9TcpStreamEE0Cs5pYL1P8yAXO_6h2spec
FN:637,_RNCINvMs4_NtCs3aqnWZMHlPP_5lb_l78h1_proxyNtB8_7H1Proxy28serve_connection_with_cancelINtNtCs7m3feRqGqA4_12tokio_rustls6server9TlsStreamNtNtNtNtCsfWKKmeeA0Vo_5tokio3net3tcp6stream9TcpStreamEE0Cs5pYL1P8yAXO_6h2spec
FN:669,_RNCINvMs4_NtCs3aqnWZMHlPP_5lb_l78h1_proxyNtB8_7H1Proxy32serve_connection_with_cancel_sniINtNtCs7m3feRqGqA4_12tokio_rustls6server9TlsStreamNtNtNtNtCsfWKKmeeA0Vo_5tokio3net3tcp6stream9TcpStreamEE0Cs5pYL1P8yAXO_6h2spec
FN:3356,_RNCNvNtNtCsahEFUsRJKn_5lb_l78h1_proxy5testss_23via_two_lines_preserved0B7_
FN:3332,_RNCNvNtNtCsahEFUsRJKn_5lb_l78h1_proxy5testss_35x_forwarded_for_two_lines_preserved0B7_
FN:3431,_RNCNvNtNtCsahEFUsRJKn_5lb_l78h1_proxy5testss_42test_sigterm_h1_graceful_shutdown_resolves0B7_
FN:3263,_RNvNtNtCsahEFUsRJKn_5lb_l78h1_proxy5tests8map_with
FN:3365,_RNvNtNtCsahEFUsRJKn_5lb_l78h1_proxy5testss_12via_appended
FN:3348,_RNvNtNtCsahEFUsRJKn_5lb_l78h1_proxy5testss_23via_two_lines_preserved
FN:3295,_RNvNtNtCsahEFUsRJKn_5lb_l78h1_proxy5testss_24x_forwarded_for_appended
FN:3407,_RNvNtNtCsahEFUsRJKn_5lb_l78h1_proxy5testss_25round_robin_picker_cycles
FN:3417,_RNvNtNtCsahEFUsRJKn_5lb_l78h1_proxy5testss_30round_robin_empty_returns_none
FN:3372,_RNvNtNtCsahEFUsRJKn_5lb_l78h1_proxy5testss_32alt_svc_injected_when_configured
FN:3384,_RNvNtNtCsahEFUsRJKn_5lb_l78h1_proxy5testss_34alt_svc_absent_when_not_configured
FN:3303,_RNvNtNtCsahEFUsRJKn_5lb_l78h1_proxy5testss_35x_forwarded_for_created_when_absent
FN:3317,_RNvNtNtCsahEFUsRJKn_5lb_l78h1_proxy5testss_35x_forwarded_for_two_lines_preserved
FN:3275,_RNvNtNtCsahEFUsRJKn_5lb_l78h1_proxy5testss_40hop_by_hop_headers_stripped_from_request
FN:3431,_RNvNtNtCsahEFUsRJKn_5lb_l78h1_proxy5testss_42test_sigterm_h1_graceful_shutdown_resolves
FN:3390,_RNvNtNtCsahEFUsRJKn_5lb_l78h1_proxy5testss_65hop_by_hop_response_strips_te_and_transfer_encoding_keeps_trailer
FN:594,_RINvMs4_NtCsahEFUsRJKn_5lb_l78h1_proxyNtB6_7H1Proxy16serve_connectionpEB8_
FN:597,_RNCINvMs4_NtCsahEFUsRJKn_5lb_l78h1_proxyNtB8_7H1Proxy16serve_connectionpE0Ba_
FN:3121,_RNCNvNtCsahEFUsRJKn_5lb_l78h1_proxy31build_h1_response_with_trailers0B5_
FN:3144,_RNCNvNtCsahEFUsRJKn_5lb_l78h1_proxy31build_h1_response_with_trailerss0_0B5_
FN:3142,_RNCNvNtCsahEFUsRJKn_5lb_l78h1_proxy31build_h1_response_with_trailerss_0B5_
FN:468,_RNvMs4_NtCsahEFUsRJKn_5lb_l78h1_proxyNtB5_7H1Proxy10with_hooks
FN:483,_RNvMs4_NtCsahEFUsRJKn_5lb_l78h1_proxyNtB5_7H1Proxy13with_watchdog
FN:576,_RNvMs4_NtCsahEFUsRJKn_5lb_l78h1_proxyNtB5_7H1Proxy14with_websocket
FN:541,_RNvMs4_NtCsahEFUsRJKn_5lb_l78h1_proxyNtB5_7H1Proxy15has_h2_upstream
FN:548,_RNvMs4_NtCsahEFUsRJKn_5lb_l78h1_proxyNtB5_7H1Proxy15has_h3_upstream
FN:524,_RNvMs4_NtCsahEFUsRJKn_5lb_l78h1_proxyNtB5_7H1Proxy16with_h2_upstream
FN:532,_RNvMs4_NtCsahEFUsRJKn_5lb_l78h1_proxyNtB5_7H1Proxy16with_h3_upstream
FN:431,_RNvMs4_NtCsahEFUsRJKn_5lb_l78h1_proxyNtB5_7H1Proxy16with_multi_proto
FN:516,_RNvMs4_NtCsahEFUsRJKn_5lb_l78h1_proxyNtB5_7H1Proxy17with_expected_sni
FN:493,_RNvMs4_NtCsahEFUsRJKn_5lb_l78h1_proxyNtB5_7H1Proxy19with_smuggle_strict
FN:557,_RNvMs4_NtCsahEFUsRJKn_5lb_l78h1_proxyNtB5_7H1Proxy27with_max_keepalive_requests
FN:504,_RNvMs4_NtCsahEFUsRJKn_5lb_l78h1_proxyNtB5_7H1Proxy29with_header_underscore_policy
FN:567,_RNvMs4_NtCsahEFUsRJKn_5lb_l78h1_proxyNtB5_7H1Proxy33keepalive_cap_termination_counter
FN:3085,_RNvNtCsahEFUsRJKn_5lb_l78h1_proxy31build_h1_response_with_trailers
FN:629,_RINvMs4_NtCsahEFUsRJKn_5lb_l78h1_proxyNtB6_7H1Proxy28serve_connection_with_cancelNtNtNtNtCsfWKKmeeA0Vo_5tokio2io4util3mem12DuplexStreamEB8_
FN:660,_RINvMs4_NtCsahEFUsRJKn_5lb_l78h1_proxyNtB6_7H1Proxy32serve_connection_with_cancel_sniNtNtNtNtCsfWKKmeeA0Vo_5tokio2io4util3mem12DuplexStreamEB8_
FN:637,_RNCINvMs4_NtCsahEFUsRJKn_5lb_l78h1_proxyNtB8_7H1Proxy28serve_connection_with_cancelNtNtNtNtCsfWKKmeeA0Vo_5tokio2io4util3mem12DuplexStreamE0Ba_
FN:669,_RNCINvMs4_NtCsahEFUsRJKn_5lb_l78h1_proxyNtB8_7H1Proxy32serve_connection_with_cancel_sniNtNtNtNtCsfWKKmeeA0Vo_5tokio2io4util3mem12DuplexStreamE0Ba_
FN:2214,_RNCNCNCNCNCNvMs6_NtCsahEFUsRJKn_5lb_l78h1_proxyNtBf_7H1Proxy14proxy_h1_to_h300000Bh_
FN:2213,_RNCNCNCNCNvMs6_NtCsahEFUsRJKn_5lb_l78h1_proxyNtBd_7H1Proxy14proxy_h1_to_h30000Bf_
FN:1769,_RNCNCNCNCNvMs6_NtCsahEFUsRJKn_5lb_l78h1_proxyNtBd_7H1Proxy22proxy_h1_to_h2_request0000Bf_
FN:1067,_RNCNCNCNvMs6_NtCsahEFUsRJKn_5lb_l78h1_proxyNtBb_7H1Proxy12handle_inner0s5_00Bd_
FN:1101,_RNCNCNCNvMs6_NtCsahEFUsRJKn_5lb_l78h1_proxyNtBb_7H1Proxy12handle_inner0s6_00Bd_
FN:1325,_RNCNCNCNvMs6_NtCsahEFUsRJKn_5lb_l78h1_proxyNtBb_7H1Proxy13proxy_request0s3_00Bd_
FN:1334,_RNCNCNCNvMs6_NtCsahEFUsRJKn_5lb_l78h1_proxyNtBb_7H1Proxy13proxy_request0s3_0s_0Bd_
FN:2211,_RNCNCNCNvMs6_NtCsahEFUsRJKn_5lb_l78h1_proxyNtBb_7H1Proxy14proxy_h1_to_h3000Bd_
FN:1766,_RNCNCNCNvMs6_NtCsahEFUsRJKn_5lb_l78h1_proxyNtBb_7H1Proxy22proxy_h1_to_h2_request000Bd_
FN:1839,_RNCNCNCNvMs6_NtCsahEFUsRJKn_5lb_l78h1_proxyNtBb_7H1Proxy22proxy_h1_to_h2_request0s2_00Bd_
FN:1844,_RNCNCNCNvMs6_NtCsahEFUsRJKn_5lb_l78h1_proxyNtBb_7H1Proxy22proxy_h1_to_h2_request0s2_0s_0Bd_
FN:919,_RNCNCNvMs6_NtCsahEFUsRJKn_5lb_l78h1_proxyNtB9_7H1Proxy12handle_inner00Bb_
FN:942,_RNCNCNvMs6_NtCsahEFUsRJKn_5lb_l78h1_proxyNtB9_7H1Proxy12handle_inner0s0_0Bb_
FN:970,_RNCNCNvMs6_NtCsahEFUsRJKn_5lb_l78h1_proxyNtB9_7H1Proxy12handle_inner0s1_0Bb_
FN:982,_RNCNCNvMs6_NtCsahEFUsRJKn_5lb_l78h1_proxyNtB9_7H1Proxy12handle_inner0s2_0Bb_
FN:1010,_RNCNCNvMs6_NtCsahEFUsRJKn_5lb_l78h1_proxyNtB9_7H1Proxy12handle_inner0s3_0Bb_
FN:1037,_RNCNCNvMs6_NtCsahEFUsRJKn_5lb_l78h1_proxyNtB9_7H1Proxy12handle_inner0s4_0Bb_
FN:1064,_RNCNCNvMs6_NtCsahEFUsRJKn_5lb_l78h1_proxyNtB9_7H1Proxy12handle_inner0s5_0Bb_
FN:1085,_RNCNCNvMs6_NtCsahEFUsRJKn_5lb_l78h1_proxyNtB9_7H1Proxy12handle_inner0s6_0Bb_
FN:1112,_RNCNCNvMs6_NtCsahEFUsRJKn_5lb_l78h1_proxyNtB9_7H1Proxy12handle_inner0s7_0Bb_
FN:920,_RNCNCNvMs6_NtCsahEFUsRJKn_5lb_l78h1_proxyNtB9_7H1Proxy12handle_inner0s_0Bb_
FN:1235,_RNCNCNvMs6_NtCsahEFUsRJKn_5lb_l78h1_proxyNtB9_7H1Proxy13proxy_request00Bb_
FN:1256,_RNCNCNvMs6_NtCsahEFUsRJKn_5lb_l78h1_proxyNtB9_7H1Proxy13proxy_request0s0_0Bb_
FN:1258,_RNCNCNvMs6_NtCsahEFUsRJKn_5lb_l78h1_proxyNtB9_7H1Proxy13proxy_request0s1_0Bb_
FN:1288,_RNCNCNvMs6_NtCsahEFUsRJKn_5lb_l78h1_proxyNtB9_7H1Proxy13proxy_request0s2_0Bb_
FN:1320,_RNCNCNvMs6_NtCsahEFUsRJKn_5lb_l78h1_proxyNtB9_7H1Proxy13proxy_request0s3_0Bb_
FN:1608,_RNCNCNvMs6_NtCsahEFUsRJKn_5lb_l78h1_proxyNtB9_7H1Proxy13proxy_request0s4_0Bb_
FN:1244,_RNCNCNvMs6_NtCsahEFUsRJKn_5lb_l78h1_proxyNtB9_7H1Proxy13proxy_request0s_0Bb_
FN:2146,_RNCNCNvMs6_NtCsahEFUsRJKn_5lb_l78h1_proxyNtB9_7H1Proxy14proxy_h1_to_h300Bb_
FN:2300,_RNCNCNvMs6_NtCsahEFUsRJKn_5lb_l78h1_proxyNtB9_7H1Proxy14proxy_h1_to_h30s0_0Bb_
FN:2339,_RNCNCNvMs6_NtCsahEFUsRJKn_5lb_l78h1_proxyNtB9_7H1Proxy14proxy_h1_to_h30s1_0Bb_
FN:2350,_RNCNCNvMs6_NtCsahEFUsRJKn_5lb_l78h1_proxyNtB9_7H1Proxy14proxy_h1_to_h30s2_0Bb_
FN:2271,_RNCNCNvMs6_NtCsahEFUsRJKn_5lb_l78h1_proxyNtB9_7H1Proxy14proxy_h1_to_h30s_0Bb_
FN:2436,_RNCNCNvMs6_NtCsahEFUsRJKn_5lb_l78h1_proxyNtB9_7H1Proxy17handle_ws_upgrade00Bb_
FN:2509,_RNCNCNvMs6_NtCsahEFUsRJKn_5lb_l78h1_proxyNtB9_7H1Proxy17handle_ws_upgrade0s0_0Bb_
FN:2510,_RNCNCNvMs6_NtCsahEFUsRJKn_5lb_l78h1_proxyNtB9_7H1Proxy17handle_ws_upgrade0s1_0Bb_
FN:2512,_RNCNCNvMs6_NtCsahEFUsRJKn_5lb_l78h1_proxyNtB9_7H1Proxy17handle_ws_upgrade0s2_0Bb_
FN:2513,_RNCNCNvMs6_NtCsahEFUsRJKn_5lb_l78h1_proxyNtB9_7H1Proxy17handle_ws_upgrade0s3_0Bb_
FN:2524,_RNCNCNvMs6_NtCsahEFUsRJKn_5lb_l78h1_proxyNtB9_7H1Proxy17handle_ws_upgrade0s5_0Bb_
FN:2440,_RNCNCNvMs6_NtCsahEFUsRJKn_5lb_l78h1_proxyNtB9_7H1Proxy17handle_ws_upgrade0s_0Bb_
FN:1764,_RNCNCNvMs6_NtCsahEFUsRJKn_5lb_l78h1_proxyNtB9_7H1Proxy22proxy_h1_to_h2_request00Bb_
FN:1807,_RNCNCNvMs6_NtCsahEFUsRJKn_5lb_l78h1_proxyNtB9_7H1Proxy22proxy_h1_to_h2_request0s0_0Bb_
FN:1816,_RNCNCNvMs6_NtCsahEFUsRJKn_5lb_l78h1_proxyNtB9_7H1Proxy22proxy_h1_to_h2_request0s1_0Bb_
FN:1838,_RNCNCNvMs6_NtCsahEFUsRJKn_5lb_l78h1_proxyNtB9_7H1Proxy22proxy_h1_to_h2_request0s2_0Bb_
FN:1782,_RNCNCNvMs6_NtCsahEFUsRJKn_5lb_l78h1_proxyNtB9_7H1Proxy22proxy_h1_to_h2_request0s_0Bb_
FN:2589,_RNCNCNvNtCsahEFUsRJKn_5lb_l78h1_proxy16dial_upstream_ws00B7_
FN:2596,_RNCNCNvNtCsahEFUsRJKn_5lb_l78h1_proxy16dial_upstream_ws0s0_0B7_
FN:2624,_RNCNCNvNtCsahEFUsRJKn_5lb_l78h1_proxy16dial_upstream_ws0s1_0B7_
FN:2592,_RNCNCNvNtCsahEFUsRJKn_5lb_l78h1_proxy16dial_upstream_ws0s_0B7_
FN:3183,_RNCNCNvNtCsahEFUsRJKn_5lb_l78h1_proxy24build_h1_to_h3_fieldlists1_00B7_
FN:2830,_RNCNCNvNtCsahEFUsRJKn_5lb_l78h1_proxy29build_h1_to_h2_upstream_partss_00B7_
FN:880,_RNCNvMs6_NtCsahEFUsRJKn_5lb_l78h1_proxyNtB7_7H1Proxy12handle_inner0B9_
FN:1200,_RNCNvMs6_NtCsahEFUsRJKn_5lb_l78h1_proxyNtB7_7H1Proxy13proxy_request0B9_
FN:2037,_RNCNvMs6_NtCsahEFUsRJKn_5lb_l78h1_proxyNtB7_7H1Proxy14proxy_h1_to_h20B9_
FN:2104,_RNCNvMs6_NtCsahEFUsRJKn_5lb_l78h1_proxyNtB7_7H1Proxy14proxy_h1_to_h30B9_
FN:2543,_RNCNvMs6_NtCsahEFUsRJKn_5lb_l78h1_proxyNtB7_7H1Proxy17finalize_response0B9_
FN:2413,_RNCNvMs6_NtCsahEFUsRJKn_5lb_l78h1_proxyNtB7_7H1Proxy17handle_ws_upgrade0B9_
FN:1678,_RNCNvMs6_NtCsahEFUsRJKn_5lb_l78h1_proxyNtB7_7H1Proxy22proxy_h1_to_h2_request0B9_
FN:847,_RNCNvMs6_NtCsahEFUsRJKn_5lb_l78h1_proxyNtB7_7H1Proxy6handle0B9_
FN:2582,_RNCNvNtCsahEFUsRJKn_5lb_l78h1_proxy16dial_upstream_ws0B5_
FN:2704,_RNCNvNtCsahEFUsRJKn_5lb_l78h1_proxy16strip_hop_by_hop0B5_
FN:2707,_RNCNvNtCsahEFUsRJKn_5lb_l78h1_proxy16strip_hop_by_hops0_0B5_
FN:2708,_RNCNvNtCsahEFUsRJKn_5lb_l78h1_proxy16strip_hop_by_hops1_0B5_
FN:2705,_RNCNvNtCsahEFUsRJKn_5lb_l78h1_proxy16strip_hop_by_hops_0B5_
FN:2637,_RNCNvNtCsahEFUsRJKn_5lb_l78h1_proxy21run_h1_ws_splice_task0B5_
FN:3055,_RNCNvNtCsahEFUsRJKn_5lb_l78h1_proxy23upstream_response_to_h10B5_
FN:3058,_RNCNvNtCsahEFUsRJKn_5lb_l78h1_proxy23upstream_response_to_h1s_0B5_
FN:3166,_RNCNvNtCsahEFUsRJKn_5lb_l78h1_proxy24build_h1_to_h3_fieldlist0B5_
FN:3175,_RNCNvNtCsahEFUsRJKn_5lb_l78h1_proxy24build_h1_to_h3_fieldlists0_0B5_
FN:3180,_RNCNvNtCsahEFUsRJKn_5lb_l78h1_proxy24build_h1_to_h3_fieldlists1_0B5_
FN:3187,_RNCNvNtCsahEFUsRJKn_5lb_l78h1_proxy24build_h1_to_h3_fieldlists2_0B5_
FN:3200,_RNCNvNtCsahEFUsRJKn_5lb_l78h1_proxy24build_h1_to_h3_fieldlists3_0B5_
FN:3204,_RNCNvNtCsahEFUsRJKn_5lb_l78h1_proxy24build_h1_to_h3_fieldlists4_0B5_
FN:3167,_RNCNvNtCsahEFUsRJKn_5lb_l78h1_proxy24build_h1_to_h3_fieldlists_0B5_
FN:2947,_RNCNvNtCsahEFUsRJKn_5lb_l78h1_proxy27build_h1_streaming_response0B5_
FN:177,_RNCNvNtCsahEFUsRJKn_5lb_l78h1_proxy28validate_h1_request_trailers0B5_
FN:2823,_RNCNvNtCsahEFUsRJKn_5lb_l78h1_proxy29build_h1_to_h2_upstream_parts0B5_
FN:2839,_RNCNvNtCsahEFUsRJKn_5lb_l78h1_proxy29build_h1_to_h2_upstream_partss0_0B5_
FN:2845,_RNCNvNtCsahEFUsRJKn_5lb_l78h1_proxy29build_h1_to_h2_upstream_partss1_0B5_
FN:2846,_RNCNvNtCsahEFUsRJKn_5lb_l78h1_proxy29build_h1_to_h2_upstream_partss2_0B5_
FN:2847,_RNCNvNtCsahEFUsRJKn_5lb_l78h1_proxy29build_h1_to_h2_upstream_partss3_0B5_
FN:2869,_RNCNvNtCsahEFUsRJKn_5lb_l78h1_proxy29build_h1_to_h2_upstream_partss4_0B5_
FN:2827,_RNCNvNtCsahEFUsRJKn_5lb_l78h1_proxy29build_h1_to_h2_upstream_partss_0B5_
FN:806,_RNCNvXs5_NtCsahEFUsRJKn_5lb_l78h1_proxyNtB7_12ProxyServiceINtNtNtCsgB3dp6qvXvn_5hyper7service7service7ServiceINtNtCsjFxw70quGA5_4http7request7RequestNtNtNtB11_4body8incoming8IncomingEE4call0B9_
FN:201,_RNvMs0_NtCsahEFUsRJKn_5lb_l78h1_proxyNtB5_12AltSvcConfig12header_value
FN:278,_RNvMs2_NtCsahEFUsRJKn_5lb_l78h1_proxyNtB5_15RoundRobinAddrs3new
FN:387,_RNvMs4_NtCsahEFUsRJKn_5lb_l78h1_proxyNtB5_7H1Proxy3new
FN:874,_RNvMs6_NtCsahEFUsRJKn_5lb_l78h1_proxyNtB5_7H1Proxy12handle_inner
FN:1196,_RNvMs6_NtCsahEFUsRJKn_5lb_l78h1_proxyNtB5_7H1Proxy13proxy_request
FN:2033,_RNvMs6_NtCsahEFUsRJKn_5lb_l78h1_proxyNtB5_7H1Proxy14proxy_h1_to_h2
FN:2100,_RNvMs6_NtCsahEFUsRJKn_5lb_l78h1_proxyNtB5_7H1Proxy14proxy_h1_to_h3
FN:2529,_RNvMs6_NtCsahEFUsRJKn_5lb_l78h1_proxyNtB5_7H1Proxy17finalize_response
FN:2409,_RNvMs6_NtCsahEFUsRJKn_5lb_l78h1_proxyNtB5_7H1Proxy17handle_ws_upgrade
FN:1673,_RNvMs6_NtCsahEFUsRJKn_5lb_l78h1_proxyNtB5_7H1Proxy22proxy_h1_to_h2_request
FN:842,_RNvMs6_NtCsahEFUsRJKn_5lb_l78h1_proxyNtB5_7H1Proxy6handle
FN:2772,_RNvNtCsahEFUsRJKn_5lb_l78h1_proxy10append_via
FN:2732,_RNvNtCsahEFUsRJKn_5lb_l78h1_proxy10append_xff
FN:2654,_RNvNtCsahEFUsRJKn_5lb_l78h1_proxy14error_response
FN:2893,_RNvNtCsahEFUsRJKn_5lb_l78h1_proxy16concat_h1_chunks
FN:2574,_RNvNtCsahEFUsRJKn_5lb_l78h1_proxy16dial_upstream_ws
FN:2698,_RNvNtCsahEFUsRJKn_5lb_l78h1_proxy16strip_hop_by_hop
FN:2879,_RNvNtCsahEFUsRJKn_5lb_l78h1_proxy18h1_to_h2_proxy_err
FN:3241,_RNvNtCsahEFUsRJKn_5lb_l78h1_proxy18record_retained_h1
FN:2678,_RNvNtCsahEFUsRJKn_5lb_l78h1_proxy18reject_to_response
FN:2633,_RNvNtCsahEFUsRJKn_5lb_l78h1_proxy21run_h1_ws_splice_task
FN:3019,_RNvNtCsahEFUsRJKn_5lb_l78h1_proxy23upstream_response_to_h1
FN:2955,_RNvNtCsahEFUsRJKn_5lb_l78h1_proxy24build_body_with_trailers
FN:3158,_RNvNtCsahEFUsRJKn_5lb_l78h1_proxy24build_h1_to_h3_fieldlist
FN:2943,_RNvNtCsahEFUsRJKn_5lb_l78h1_proxy27build_h1_streaming_response
FN:2917,_RNvNtCsahEFUsRJKn_5lb_l78h1_proxy28h3_decoded_resp_head_builder
FN:166,_RNvNtCsahEFUsRJKn_5lb_l78h1_proxy28validate_h1_request_trailers
FN:2814,_RNvNtCsahEFUsRJKn_5lb_l78h1_proxy29build_h1_to_h2_upstream_parts
FN:2761,_RNvNtCsahEFUsRJKn_5lb_l78h1_proxy7set_xfh
FN:2753,_RNvNtCsahEFUsRJKn_5lb_l78h1_proxy7set_xfp
FN:141,_RNvXNtCsahEFUsRJKn_5lb_l78h1_proxyNtB2_11H1PumpAbortNtNtCs2va5m0jqTTM_4core3fmt7Display3fmt
FN:227,_RNvXs1_NtCsahEFUsRJKn_5lb_l78h1_proxyNtB5_12HttpTimeoutsNtNtCs2va5m0jqTTM_4core7default7Default7default
FN:290,_RNvXs3_NtCsahEFUsRJKn_5lb_l78h1_proxyNtB5_15RoundRobinAddrsNtB5_13BackendPicker4pick
FN:791,_RNvXs5_NtCsahEFUsRJKn_5lb_l78h1_proxyNtB5_12ProxyServiceINtNtNtCsgB3dp6qvXvn_5hyper7service7service7ServiceINtNtCsjFxw70quGA5_4http7request7RequestNtNtNtBZ_4body8incoming8IncomingEE4call
FN:594,_RINvMs4_NtCs3aqnWZMHlPP_5lb_l78h1_proxyNtB6_7H1Proxy16serve_connectionNtNtNtNtCsfWKKmeeA0Vo_5tokio3net3tcp6stream9TcpStreamECs8wdkRL3AaJU_21proto_translation_e2e
FN:629,_RINvMs4_NtCs3aqnWZMHlPP_5lb_l78h1_proxyNtB6_7H1Proxy28serve_connection_with_cancelNtNtNtNtCsfWKKmeeA0Vo_5tokio3net3tcp6stream9TcpStreamECs8wdkRL3AaJU_21proto_translation_e2e
FN:660,_RINvMs4_NtCs3aqnWZMHlPP_5lb_l78h1_proxyNtB6_7H1Proxy32serve_connection_with_cancel_sniNtNtNtNtCsfWKKmeeA0Vo_5tokio3net3tcp6stream9TcpStreamECs8wdkRL3AaJU_21proto_translation_e2e
FN:597,_RNCINvMs4_NtCs3aqnWZMHlPP_5lb_l78h1_proxyNtB8_7H1Proxy16serve_connectionNtNtNtNtCsfWKKmeeA0Vo_5tokio3net3tcp6stream9TcpStreamE0Cs8wdkRL3AaJU_21proto_translation_e2e
FN:637,_RNCINvMs4_NtCs3aqnWZMHlPP_5lb_l78h1_proxyNtB8_7H1Proxy28serve_connection_with_cancelNtNtNtNtCsfWKKmeeA0Vo_5tokio3net3tcp6stream9TcpStreamE0Cs8wdkRL3AaJU_21proto_translation_e2e
FN:669,_RNCINvMs4_NtCs3aqnWZMHlPP_5lb_l78h1_proxyNtB8_7H1Proxy32serve_connection_with_cancel_sniNtNtNtNtCsfWKKmeeA0Vo_5tokio3net3tcp6stream9TcpStreamE0Cs8wdkRL3AaJU_21proto_translation_e2e
FN:594,_RINvMs4_NtCs3aqnWZMHlPP_5lb_l78h1_proxyNtB6_7H1Proxy16serve_connectionNtNtNtNtCsfWKKmeeA0Vo_5tokio3net3tcp6stream9TcpStreamECs2sQzjJr4NYG_25round8_authority_enforced
FN:629,_RINvMs4_NtCs3aqnWZMHlPP_5lb_l78h1_proxyNtB6_7H1Proxy28serve_connection_with_cancelNtNtNtNtCsfWKKmeeA0Vo_5tokio3net3tcp6stream9TcpStreamECs2sQzjJr4NYG_25round8_authority_enforced
FN:660,_RINvMs4_NtCs3aqnWZMHlPP_5lb_l78h1_proxyNtB6_7H1Proxy32serve_connection_with_cancel_sniNtNtNtNtCsfWKKmeeA0Vo_5tokio3net3tcp6stream9TcpStreamECs2sQzjJr4NYG_25round8_authority_enforced
FN:597,_RNCINvMs4_NtCs3aqnWZMHlPP_5lb_l78h1_proxyNtB8_7H1Proxy16serve_connectionNtNtNtNtCsfWKKmeeA0Vo_5tokio3net3tcp6stream9TcpStreamE0Cs2sQzjJr4NYG_25round8_authority_enforced
FN:637,_RNCINvMs4_NtCs3aqnWZMHlPP_5lb_l78h1_proxyNtB8_7H1Proxy28serve_connection_with_cancelNtNtNtNtCsfWKKmeeA0Vo_5tokio3net3tcp6stream9TcpStreamE0Cs2sQzjJr4NYG_25round8_authority_enforced
FN:669,_RNCINvMs4_NtCs3aqnWZMHlPP_5lb_l78h1_proxyNtB8_7H1Proxy32serve_connection_with_cancel_sniNtNtNtNtCsfWKKmeeA0Vo_5tokio3net3tcp6stream9TcpStreamE0Cs2sQzjJr4NYG_25round8_authority_enforced
FN:594,_RINvMs4_NtCs3aqnWZMHlPP_5lb_l78h1_proxyNtB6_7H1Proxy16serve_connectionNtNtNtNtCsfWKKmeeA0Vo_5tokio3net3tcp6stream9TcpStreamECsfEr5h6gJ0bQ_26round8_keepalive_count_cap
FN:629,_RINvMs4_NtCs3aqnWZMHlPP_5lb_l78h1_proxyNtB6_7H1Proxy28serve_connection_with_cancelNtNtNtNtCsfWKKmeeA0Vo_5tokio3net3tcp6stream9TcpStreamECsfEr5h6gJ0bQ_26round8_keepalive_count_cap
FN:660,_RINvMs4_NtCs3aqnWZMHlPP_5lb_l78h1_proxyNtB6_7H1Proxy32serve_connection_with_cancel_sniNtNtNtNtCsfWKKmeeA0Vo_5tokio3net3tcp6stream9TcpStreamECsfEr5h6gJ0bQ_26round8_keepalive_count_cap
FN:597,_RNCINvMs4_NtCs3aqnWZMHlPP_5lb_l78h1_proxyNtB8_7H1Proxy16serve_connectionNtNtNtNtCsfWKKmeeA0Vo_5tokio3net3tcp6stream9TcpStreamE0CsfEr5h6gJ0bQ_26round8_keepalive_count_cap
FN:637,_RNCINvMs4_NtCs3aqnWZMHlPP_5lb_l78h1_proxyNtB8_7H1Proxy28serve_connection_with_cancelNtNtNtNtCsfWKKmeeA0Vo_5tokio3net3tcp6stream9TcpStreamE0CsfEr5h6gJ0bQ_26round8_keepalive_count_cap
FN:669,_RNCINvMs4_NtCs3aqnWZMHlPP_5lb_l78h1_proxyNtB8_7H1Proxy32serve_connection_with_cancel_sniNtNtNtNtCsfWKKmeeA0Vo_5tokio3net3tcp6stream9TcpStreamE0CsfEr5h6gJ0bQ_26round8_keepalive_count_cap
FN:594,_RINvMs4_NtCs3aqnWZMHlPP_5lb_l78h1_proxyNtB6_7H1Proxy16serve_connectionNtNtNtNtCsfWKKmeeA0Vo_5tokio3net3tcp6stream9TcpStreamECsgzlOEIqFVj1_30round8_traceparent_propagation
FN:629,_RINvMs4_NtCs3aqnWZMHlPP_5lb_l78h1_proxyNtB6_7H1Proxy28serve_connection_with_cancelNtNtNtNtCsfWKKmeeA0Vo_5tokio3net3tcp6stream9TcpStreamECsgzlOEIqFVj1_30round8_traceparent_propagation
FN:660,_RINvMs4_NtCs3aqnWZMHlPP_5lb_l78h1_proxyNtB6_7H1Proxy32serve_connection_with_cancel_sniNtNtNtNtCsfWKKmeeA0Vo_5tokio3net3tcp6stream9TcpStreamECsgzlOEIqFVj1_30round8_traceparent_propagation
FN:597,_RNCINvMs4_NtCs3aqnWZMHlPP_5lb_l78h1_proxyNtB8_7H1Proxy16serve_connectionNtNtNtNtCsfWKKmeeA0Vo_5tokio3net3tcp6stream9TcpStreamE0CsgzlOEIqFVj1_30round8_traceparent_propagation
FN:637,_RNCINvMs4_NtCs3aqnWZMHlPP_5lb_l78h1_proxyNtB8_7H1Proxy28serve_connection_with_cancelNtNtNtNtCsfWKKmeeA0Vo_5tokio3net3tcp6stream9TcpStreamE0CsgzlOEIqFVj1_30round8_traceparent_propagation
FN:669,_RNCINvMs4_NtCs3aqnWZMHlPP_5lb_l78h1_proxyNtB8_7H1Proxy32serve_connection_with_cancel_sniNtNtNtNtCsfWKKmeeA0Vo_5tokio3net3tcp6stream9TcpStreamE0CsgzlOEIqFVj1_30round8_traceparent_propagation
FN:594,_RINvMs4_NtCs3aqnWZMHlPP_5lb_l78h1_proxyNtB6_7H1Proxy16serve_connectionNtNtNtNtCsfWKKmeeA0Vo_5tokio3net3tcp6stream9TcpStreamECsi6RFRS0aH6f_23round8_ws_upgrade_defer
FN:629,_RINvMs4_NtCs3aqnWZMHlPP_5lb_l78h1_proxyNtB6_7H1Proxy28serve_connection_with_cancelNtNtNtNtCsfWKKmeeA0Vo_5tokio3net3tcp6stream9TcpStreamECsi6RFRS0aH6f_23round8_ws_upgrade_defer
FN:660,_RINvMs4_NtCs3aqnWZMHlPP_5lb_l78h1_proxyNtB6_7H1Proxy32serve_connection_with_cancel_sniNtNtNtNtCsfWKKmeeA0Vo_5tokio3net3tcp6stream9TcpStreamECsi6RFRS0aH6f_23round8_ws_upgrade_defer
FN:597,_RNCINvMs4_NtCs3aqnWZMHlPP_5lb_l78h1_proxyNtB8_7H1Proxy16serve_connectionNtNtNtNtCsfWKKmeeA0Vo_5tokio3net3tcp6stream9TcpStreamE0Csi6RFRS0aH6f_23round8_ws_upgrade_defer
FN:637,_RNCINvMs4_NtCs3aqnWZMHlPP_5lb_l78h1_proxyNtB8_7H1Proxy28serve_connection_with_cancelNtNtNtNtCsfWKKmeeA0Vo_5tokio3net3tcp6stream9TcpStreamE0Csi6RFRS0aH6f_23round8_ws_upgrade_defer
FN:669,_RNCINvMs4_NtCs3aqnWZMHlPP_5lb_l78h1_proxyNtB8_7H1Proxy32serve_connection_with_cancel_sniNtNtNtNtCsfWKKmeeA0Vo_5tokio3net3tcp6stream9TcpStreamE0Csi6RFRS0aH6f_23round8_ws_upgrade_defer
FN:594,_RINvMs4_NtCs3aqnWZMHlPP_5lb_l78h1_proxyNtB6_7H1Proxy16serve_connectionNtNtNtNtCsfWKKmeeA0Vo_5tokio3net3tcp6stream9TcpStreamECsh3B4FAGUhYd_13s14_cfbw_h1h1
FN:629,_RINvMs4_NtCs3aqnWZMHlPP_5lb_l78h1_proxyNtB6_7H1Proxy28serve_connection_with_cancelNtNtNtNtCsfWKKmeeA0Vo_5tokio3net3tcp6stream9TcpStreamECsh3B4FAGUhYd_13s14_cfbw_h1h1
FN:660,_RINvMs4_NtCs3aqnWZMHlPP_5lb_l78h1_proxyNtB6_7H1Proxy32serve_connection_with_cancel_sniNtNtNtNtCsfWKKmeeA0Vo_5tokio3net3tcp6stream9TcpStreamECsh3B4FAGUhYd_13s14_cfbw_h1h1
FN:597,_RNCINvMs4_NtCs3aqnWZMHlPP_5lb_l78h1_proxyNtB8_7H1Proxy16serve_connectionNtNtNtNtCsfWKKmeeA0Vo_5tokio3net3tcp6stream9TcpStreamE0Csh3B4FAGUhYd_13s14_cfbw_h1h1
FN:637,_RNCINvMs4_NtCs3aqnWZMHlPP_5lb_l78h1_proxyNtB8_7H1Proxy28serve_connection_with_cancelNtNtNtNtCsfWKKmeeA0Vo_5tokio3net3tcp6stream9TcpStreamE0Csh3B4FAGUhYd_13s14_cfbw_h1h1
FN:669,_RNCINvMs4_NtCs3aqnWZMHlPP_5lb_l78h1_proxyNtB8_7H1Proxy32serve_connection_with_cancel_sniNtNtNtNtCsfWKKmeeA0Vo_5tokio3net3tcp6stream9TcpStreamE0Csh3B4FAGUhYd_13s14_cfbw_h1h1
FN:660,_RINvMs4_NtCs3aqnWZMHlPP_5lb_l78h1_proxyNtB6_7H1Proxy32serve_connection_with_cancel_sniINtNtCs7m3feRqGqA4_12tokio_rustls6server9TlsStreamNtNtNtNtCsfWKKmeeA0Vo_5tokio2io4util3mem12DuplexStreamEECsaLjsuWGaidd_17sni_authority_421
FN:669,_RNCINvMs4_NtCs3aqnWZMHlPP_5lb_l78h1_proxyNtB8_7H1Proxy32serve_connection_with_cancel_sniINtNtCs7m3feRqGqA4_12tokio_rustls6server9TlsStreamNtNtNtNtCsfWKKmeeA0Vo_5tokio2io4util3mem12DuplexStreamEE0CsaLjsuWGaidd_17sni_authority_421
FN:594,_RINvMs4_NtCs3aqnWZMHlPP_5lb_l78h1_proxyNtB6_7H1Proxy16serve_connectionNtNtNtNtCsfWKKmeeA0Vo_5tokio3net3tcp6stream9TcpStreamECs6wkqnlGdaoU_12ws_proxy_e2e
FN:629,_RINvMs4_NtCs3aqnWZMHlPP_5lb_l78h1_proxyNtB6_7H1Proxy28serve_connection_with_cancelNtNtNtNtCsfWKKmeeA0Vo_5tokio3net3tcp6stream9TcpStreamECs6wkqnlGdaoU_12ws_proxy_e2e
FN:660,_RINvMs4_NtCs3aqnWZMHlPP_5lb_l78h1_proxyNtB6_7H1Proxy32serve_connection_with_cancel_sniNtNtNtNtCsfWKKmeeA0Vo_5tokio3net3tcp6stream9TcpStreamECs6wkqnlGdaoU_12ws_proxy_e2e
FN:597,_RNCINvMs4_NtCs3aqnWZMHlPP_5lb_l78h1_proxyNtB8_7H1Proxy16serve_connectionNtNtNtNtCsfWKKmeeA0Vo_5tokio3net3tcp6stream9TcpStreamE0Cs6wkqnlGdaoU_12ws_proxy_e2e
FN:637,_RNCINvMs4_NtCs3aqnWZMHlPP_5lb_l78h1_proxyNtB8_7H1Proxy28serve_connection_with_cancelNtNtNtNtCsfWKKmeeA0Vo_5tokio3net3tcp6stream9TcpStreamE0Cs6wkqnlGdaoU_12ws_proxy_e2e
FN:669,_RNCINvMs4_NtCs3aqnWZMHlPP_5lb_l78h1_proxyNtB8_7H1Proxy32serve_connection_with_cancel_sniNtNtNtNtCsfWKKmeeA0Vo_5tokio3net3tcp6stream9TcpStreamE0Cs6wkqnlGdaoU_12ws_proxy_e2e
FNDA:0,_RNCNCNCNCNCNvMs6_NtCs3aqnWZMHlPP_5lb_l78h1_proxyNtBf_7H1Proxy14proxy_h1_to_h300000Bh_
FNDA:0,_RNCNCNCNCNvMs6_NtCs3aqnWZMHlPP_5lb_l78h1_proxyNtBd_7H1Proxy14proxy_h1_to_h30000Bf_
FNDA:0,_RNCNCNCNCNvMs6_NtCs3aqnWZMHlPP_5lb_l78h1_proxyNtBd_7H1Proxy22proxy_h1_to_h2_request0000Bf_
FNDA:0,_RNCNCNCNvMs6_NtCs3aqnWZMHlPP_5lb_l78h1_proxyNtBb_7H1Proxy12handle_inner0s5_00Bd_
FNDA:0,_RNCNCNCNvMs6_NtCs3aqnWZMHlPP_5lb_l78h1_proxyNtBb_7H1Proxy12handle_inner0s6_00Bd_
FNDA:0,_RNCNCNCNvMs6_NtCs3aqnWZMHlPP_5lb_l78h1_proxyNtBb_7H1Proxy13proxy_request0s3_00Bd_
FNDA:0,_RNCNCNCNvMs6_NtCs3aqnWZMHlPP_5lb_l78h1_proxyNtBb_7H1Proxy13proxy_request0s3_0s_0Bd_
FNDA:0,_RNCNCNCNvMs6_NtCs3aqnWZMHlPP_5lb_l78h1_proxyNtBb_7H1Proxy14proxy_h1_to_h3000Bd_
FNDA:0,_RNCNCNCNvMs6_NtCs3aqnWZMHlPP_5lb_l78h1_proxyNtBb_7H1Proxy22proxy_h1_to_h2_request000Bd_
FNDA:0,_RNCNCNCNvMs6_NtCs3aqnWZMHlPP_5lb_l78h1_proxyNtBb_7H1Proxy22proxy_h1_to_h2_request0s2_00Bd_
FNDA:0,_RNCNCNCNvMs6_NtCs3aqnWZMHlPP_5lb_l78h1_proxyNtBb_7H1Proxy22proxy_h1_to_h2_request0s2_0s_0Bd_
FNDA:0,_RNCNCNvMs6_NtCs3aqnWZMHlPP_5lb_l78h1_proxyNtB9_7H1Proxy12handle_inner00Bb_
FNDA:0,_RNCNCNvMs6_NtCs3aqnWZMHlPP_5lb_l78h1_proxyNtB9_7H1Proxy12handle_inner0s0_0Bb_
FNDA:0,_RNCNCNvMs6_NtCs3aqnWZMHlPP_5lb_l78h1_proxyNtB9_7H1Proxy12handle_inner0s1_0Bb_
FNDA:0,_RNCNCNvMs6_NtCs3aqnWZMHlPP_5lb_l78h1_proxyNtB9_7H1Proxy12handle_inner0s2_0Bb_
FNDA:0,_RNCNCNvMs6_NtCs3aqnWZMHlPP_5lb_l78h1_proxyNtB9_7H1Proxy12handle_inner0s3_0Bb_
FNDA:0,_RNCNCNvMs6_NtCs3aqnWZMHlPP_5lb_l78h1_proxyNtB9_7H1Proxy12handle_inner0s4_0Bb_
FNDA:0,_RNCNCNvMs6_NtCs3aqnWZMHlPP_5lb_l78h1_proxyNtB9_7H1Proxy12handle_inner0s5_0Bb_
FNDA:0,_RNCNCNvMs6_NtCs3aqnWZMHlPP_5lb_l78h1_proxyNtB9_7H1Proxy12handle_inner0s6_0Bb_
FNDA:0,_RNCNCNvMs6_NtCs3aqnWZMHlPP_5lb_l78h1_proxyNtB9_7H1Proxy12handle_inner0s7_0Bb_
FNDA:0,_RNCNCNvMs6_NtCs3aqnWZMHlPP_5lb_l78h1_proxyNtB9_7H1Proxy12handle_inner0s_0Bb_
FNDA:0,_RNCNCNvMs6_NtCs3aqnWZMHlPP_5lb_l78h1_proxyNtB9_7H1Proxy13proxy_request00Bb_
FNDA:0,_RNCNCNvMs6_NtCs3aqnWZMHlPP_5lb_l78h1_proxyNtB9_7H1Proxy13proxy_request0s0_0Bb_
FNDA:0,_RNCNCNvMs6_NtCs3aqnWZMHlPP_5lb_l78h1_proxyNtB9_7H1Proxy13proxy_request0s1_0Bb_
FNDA:0,_RNCNCNvMs6_NtCs3aqnWZMHlPP_5lb_l78h1_proxyNtB9_7H1Proxy13proxy_request0s2_0Bb_
FNDA:0,_RNCNCNvMs6_NtCs3aqnWZMHlPP_5lb_l78h1_proxyNtB9_7H1Proxy13proxy_request0s3_0Bb_
FNDA:0,_RNCNCNvMs6_NtCs3aqnWZMHlPP_5lb_l78h1_proxyNtB9_7H1Proxy13proxy_request0s4_0Bb_
FNDA:0,_RNCNCNvMs6_NtCs3aqnWZMHlPP_5lb_l78h1_proxyNtB9_7H1Proxy13proxy_request0s_0Bb_
FNDA:0,_RNCNCNvMs6_NtCs3aqnWZMHlPP_5lb_l78h1_proxyNtB9_7H1Proxy14proxy_h1_to_h300Bb_
FNDA:0,_RNCNCNvMs6_NtCs3aqnWZMHlPP_5lb_l78h1_proxyNtB9_7H1Proxy14proxy_h1_to_h30s0_0Bb_
FNDA:0,_RNCNCNvMs6_NtCs3aqnWZMHlPP_5lb_l78h1_proxyNtB9_7H1Proxy14proxy_h1_to_h30s1_0Bb_
FNDA:0,_RNCNCNvMs6_NtCs3aqnWZMHlPP_5lb_l78h1_proxyNtB9_7H1Proxy14proxy_h1_to_h30s2_0Bb_
FNDA:0,_RNCNCNvMs6_NtCs3aqnWZMHlPP_5lb_l78h1_proxyNtB9_7H1Proxy14proxy_h1_to_h30s_0Bb_
FNDA:0,_RNCNCNvMs6_NtCs3aqnWZMHlPP_5lb_l78h1_proxyNtB9_7H1Proxy17handle_ws_upgrade00Bb_
FNDA:0,_RNCNCNvMs6_NtCs3aqnWZMHlPP_5lb_l78h1_proxyNtB9_7H1Proxy17handle_ws_upgrade0s0_0Bb_
FNDA:0,_RNCNCNvMs6_NtCs3aqnWZMHlPP_5lb_l78h1_proxyNtB9_7H1Proxy17handle_ws_upgrade0s1_0Bb_
FNDA:0,_RNCNCNvMs6_NtCs3aqnWZMHlPP_5lb_l78h1_proxyNtB9_7H1Proxy17handle_ws_upgrade0s2_0Bb_
FNDA:0,_RNCNCNvMs6_NtCs3aqnWZMHlPP_5lb_l78h1_proxyNtB9_7H1Proxy17handle_ws_upgrade0s3_0Bb_
FNDA:0,_RNCNCNvMs6_NtCs3aqnWZMHlPP_5lb_l78h1_proxyNtB9_7H1Proxy17handle_ws_upgrade0s5_0Bb_
FNDA:0,_RNCNCNvMs6_NtCs3aqnWZMHlPP_5lb_l78h1_proxyNtB9_7H1Proxy17handle_ws_upgrade0s_0Bb_
FNDA:0,_RNCNCNvMs6_NtCs3aqnWZMHlPP_5lb_l78h1_proxyNtB9_7H1Proxy22proxy_h1_to_h2_request00Bb_
FNDA:0,_RNCNCNvMs6_NtCs3aqnWZMHlPP_5lb_l78h1_proxyNtB9_7H1Proxy22proxy_h1_to_h2_request0s0_0Bb_
FNDA:0,_RNCNCNvMs6_NtCs3aqnWZMHlPP_5lb_l78h1_proxyNtB9_7H1Proxy22proxy_h1_to_h2_request0s1_0Bb_
FNDA:0,_RNCNCNvMs6_NtCs3aqnWZMHlPP_5lb_l78h1_proxyNtB9_7H1Proxy22proxy_h1_to_h2_request0s2_0Bb_
FNDA:0,_RNCNCNvMs6_NtCs3aqnWZMHlPP_5lb_l78h1_proxyNtB9_7H1Proxy22proxy_h1_to_h2_request0s_0Bb_
FNDA:0,_RNCNCNvNtCs3aqnWZMHlPP_5lb_l78h1_proxy16dial_upstream_ws00B7_
FNDA:0,_RNCNCNvNtCs3aqnWZMHlPP_5lb_l78h1_proxy16dial_upstream_ws0s0_0B7_
FNDA:0,_RNCNCNvNtCs3aqnWZMHlPP_5lb_l78h1_proxy16dial_upstream_ws0s1_0B7_
FNDA:0,_RNCNCNvNtCs3aqnWZMHlPP_5lb_l78h1_proxy16dial_upstream_ws0s_0B7_
FNDA:0,_RNCNCNvNtCs3aqnWZMHlPP_5lb_l78h1_proxy24build_h1_to_h3_fieldlists1_00B7_
FNDA:0,_RNCNCNvNtCs3aqnWZMHlPP_5lb_l78h1_proxy29build_h1_to_h2_upstream_partss_00B7_
FNDA:0,_RNCNvMs6_NtCs3aqnWZMHlPP_5lb_l78h1_proxyNtB7_7H1Proxy12handle_inner0B9_
FNDA:0,_RNCNvMs6_NtCs3aqnWZMHlPP_5lb_l78h1_proxyNtB7_7H1Proxy13proxy_request0B9_
FNDA:0,_RNCNvMs6_NtCs3aqnWZMHlPP_5lb_l78h1_proxyNtB7_7H1Proxy14proxy_h1_to_h20B9_
FNDA:0,_RNCNvMs6_NtCs3aqnWZMHlPP_5lb_l78h1_proxyNtB7_7H1Proxy14proxy_h1_to_h30B9_
FNDA:0,_RNCNvMs6_NtCs3aqnWZMHlPP_5lb_l78h1_proxyNtB7_7H1Proxy17finalize_response0B9_
FNDA:0,_RNCNvMs6_NtCs3aqnWZMHlPP_5lb_l78h1_proxyNtB7_7H1Proxy17handle_ws_upgrade0B9_
FNDA:0,_RNCNvMs6_NtCs3aqnWZMHlPP_5lb_l78h1_proxyNtB7_7H1Proxy22proxy_h1_to_h2_request0B9_
FNDA:0,_RNCNvMs6_NtCs3aqnWZMHlPP_5lb_l78h1_proxyNtB7_7H1Proxy6handle0B9_
FNDA:0,_RNCNvNtCs3aqnWZMHlPP_5lb_l78h1_proxy16dial_upstream_ws0B5_
FNDA:0,_RNCNvNtCs3aqnWZMHlPP_5lb_l78h1_proxy16strip_hop_by_hop0B5_
FNDA:0,_RNCNvNtCs3aqnWZMHlPP_5lb_l78h1_proxy16strip_hop_by_hops0_0B5_
FNDA:0,_RNCNvNtCs3aqnWZMHlPP_5lb_l78h1_proxy16strip_hop_by_hops1_0B5_
FNDA:0,_RNCNvNtCs3aqnWZMHlPP_5lb_l78h1_proxy16strip_hop_by_hops_0B5_
FNDA:0,_RNCNvNtCs3aqnWZMHlPP_5lb_l78h1_proxy21run_h1_ws_splice_task0B5_
FNDA:0,_RNCNvNtCs3aqnWZMHlPP_5lb_l78h1_proxy23upstream_response_to_h10B5_
FNDA:0,_RNCNvNtCs3aqnWZMHlPP_5lb_l78h1_proxy23upstream_response_to_h1s_0B5_
FNDA:0,_RNCNvNtCs3aqnWZMHlPP_5lb_l78h1_proxy24build_h1_to_h3_fieldlist0B5_
FNDA:0,_RNCNvNtCs3aqnWZMHlPP_5lb_l78h1_proxy24build_h1_to_h3_fieldlists0_0B5_
FNDA:0,_RNCNvNtCs3aqnWZMHlPP_5lb_l78h1_proxy24build_h1_to_h3_fieldlists1_0B5_
FNDA:0,_RNCNvNtCs3aqnWZMHlPP_5lb_l78h1_proxy24build_h1_to_h3_fieldlists2_0B5_
FNDA:0,_RNCNvNtCs3aqnWZMHlPP_5lb_l78h1_proxy24build_h1_to_h3_fieldlists3_0B5_
FNDA:0,_RNCNvNtCs3aqnWZMHlPP_5lb_l78h1_proxy24build_h1_to_h3_fieldlists4_0B5_
FNDA:0,_RNCNvNtCs3aqnWZMHlPP_5lb_l78h1_proxy24build_h1_to_h3_fieldlists_0B5_
FNDA:0,_RNCNvNtCs3aqnWZMHlPP_5lb_l78h1_proxy27build_h1_streaming_response0B5_
FNDA:0,_RNCNvNtCs3aqnWZMHlPP_5lb_l78h1_proxy28validate_h1_request_trailers0B5_
FNDA:0,_RNCNvNtCs3aqnWZMHlPP_5lb_l78h1_proxy29build_h1_to_h2_upstream_parts0B5_
FNDA:0,_RNCNvNtCs3aqnWZMHlPP_5lb_l78h1_proxy29build_h1_to_h2_upstream_partss0_0B5_
FNDA:0,_RNCNvNtCs3aqnWZMHlPP_5lb_l78h1_proxy29build_h1_to_h2_upstream_partss1_0B5_
FNDA:0,_RNCNvNtCs3aqnWZMHlPP_5lb_l78h1_proxy29build_h1_to_h2_upstream_partss2_0B5_
FNDA:0,_RNCNvNtCs3aqnWZMHlPP_5lb_l78h1_proxy29build_h1_to_h2_upstream_partss3_0B5_
FNDA:0,_RNCNvNtCs3aqnWZMHlPP_5lb_l78h1_proxy29build_h1_to_h2_upstream_partss4_0B5_
FNDA:0,_RNCNvNtCs3aqnWZMHlPP_5lb_l78h1_proxy29build_h1_to_h2_upstream_partss_0B5_
FNDA:0,_RNCNvNtCs3aqnWZMHlPP_5lb_l78h1_proxy31build_h1_response_with_trailers0B5_
FNDA:0,_RNCNvNtCs3aqnWZMHlPP_5lb_l78h1_proxy31build_h1_response_with_trailerss0_0B5_
FNDA:0,_RNCNvNtCs3aqnWZMHlPP_5lb_l78h1_proxy31build_h1_response_with_trailerss_0B5_
FNDA:0,_RNCNvXs5_NtCs3aqnWZMHlPP_5lb_l78h1_proxyNtB7_12ProxyServiceINtNtNtCsgB3dp6qvXvn_5hyper7service7service7ServiceINtNtCsjFxw70quGA5_4http7request7RequestNtNtNtB12_4body8incoming8IncomingEE4call0B9_
FNDA:0,_RNvMs0_NtCs3aqnWZMHlPP_5lb_l78h1_proxyNtB5_12AltSvcConfig12header_value
FNDA:0,_RNvMs2_NtCs3aqnWZMHlPP_5lb_l78h1_proxyNtB5_15RoundRobinAddrs3new
FNDA:0,_RNvMs4_NtCs3aqnWZMHlPP_5lb_l78h1_proxyNtB5_7H1Proxy10with_hooks
FNDA:0,_RNvMs4_NtCs3aqnWZMHlPP_5lb_l78h1_proxyNtB5_7H1Proxy13with_watchdog
FNDA:0,_RNvMs4_NtCs3aqnWZMHlPP_5lb_l78h1_proxyNtB5_7H1Proxy14with_websocket
FNDA:0,_RNvMs4_NtCs3aqnWZMHlPP_5lb_l78h1_proxyNtB5_7H1Proxy15has_h2_upstream
FNDA:0,_RNvMs4_NtCs3aqnWZMHlPP_5lb_l78h1_proxyNtB5_7H1Proxy15has_h3_upstream
FNDA:0,_RNvMs4_NtCs3aqnWZMHlPP_5lb_l78h1_proxyNtB5_7H1Proxy16with_h2_upstream
FNDA:0,_RNvMs4_NtCs3aqnWZMHlPP_5lb_l78h1_proxyNtB5_7H1Proxy16with_h3_upstream
FNDA:0,_RNvMs4_NtCs3aqnWZMHlPP_5lb_l78h1_proxyNtB5_7H1Proxy16with_multi_proto
FNDA:0,_RNvMs4_NtCs3aqnWZMHlPP_5lb_l78h1_proxyNtB5_7H1Proxy17with_expected_sni
FNDA:0,_RNvMs4_NtCs3aqnWZMHlPP_5lb_l78h1_proxyNtB5_7H1Proxy19with_smuggle_strict
FNDA:0,_RNvMs4_NtCs3aqnWZMHlPP_5lb_l78h1_proxyNtB5_7H1Proxy27with_max_keepalive_requests
FNDA:0,_RNvMs4_NtCs3aqnWZMHlPP_5lb_l78h1_proxyNtB5_7H1Proxy29with_header_underscore_policy
FNDA:0,_RNvMs4_NtCs3aqnWZMHlPP_5lb_l78h1_proxyNtB5_7H1Proxy33keepalive_cap_termination_counter
FNDA:0,_RNvMs4_NtCs3aqnWZMHlPP_5lb_l78h1_proxyNtB5_7H1Proxy3new
FNDA:0,_RNvMs6_NtCs3aqnWZMHlPP_5lb_l78h1_proxyNtB5_7H1Proxy12handle_inner
FNDA:0,_RNvMs6_NtCs3aqnWZMHlPP_5lb_l78h1_proxyNtB5_7H1Proxy13proxy_request
FNDA:0,_RNvMs6_NtCs3aqnWZMHlPP_5lb_l78h1_proxyNtB5_7H1Proxy14proxy_h1_to_h2
FNDA:0,_RNvMs6_NtCs3aqnWZMHlPP_5lb_l78h1_proxyNtB5_7H1Proxy14proxy_h1_to_h3
FNDA:0,_RNvMs6_NtCs3aqnWZMHlPP_5lb_l78h1_proxyNtB5_7H1Proxy17finalize_response
FNDA:0,_RNvMs6_NtCs3aqnWZMHlPP_5lb_l78h1_proxyNtB5_7H1Proxy17handle_ws_upgrade
FNDA:0,_RNvMs6_NtCs3aqnWZMHlPP_5lb_l78h1_proxyNtB5_7H1Proxy22proxy_h1_to_h2_request
FNDA:0,_RNvMs6_NtCs3aqnWZMHlPP_5lb_l78h1_proxyNtB5_7H1Proxy6handle
FNDA:0,_RNvNtCs3aqnWZMHlPP_5lb_l78h1_proxy10append_via
FNDA:0,_RNvNtCs3aqnWZMHlPP_5lb_l78h1_proxy10append_xff
FNDA:0,_RNvNtCs3aqnWZMHlPP_5lb_l78h1_proxy14error_response
FNDA:0,_RNvNtCs3aqnWZMHlPP_5lb_l78h1_proxy16concat_h1_chunks
FNDA:0,_RNvNtCs3aqnWZMHlPP_5lb_l78h1_proxy16dial_upstream_ws
FNDA:0,_RNvNtCs3aqnWZMHlPP_5lb_l78h1_proxy16strip_hop_by_hop
FNDA:0,_RNvNtCs3aqnWZMHlPP_5lb_l78h1_proxy18h1_to_h2_proxy_err
FNDA:0,_RNvNtCs3aqnWZMHlPP_5lb_l78h1_proxy18record_retained_h1
FNDA:0,_RNvNtCs3aqnWZMHlPP_5lb_l78h1_proxy18reject_to_response
FNDA:0,_RNvNtCs3aqnWZMHlPP_5lb_l78h1_proxy21run_h1_ws_splice_task
FNDA:0,_RNvNtCs3aqnWZMHlPP_5lb_l78h1_proxy23upstream_response_to_h1
